ARM GAS  C:\Users\TaisikHam\AppData\Local\Temp\ccP4BDr8.s 			page 1


   1              		.syntax unified
   2              		.cpu cortex-m4
   3              		.fpu softvfp
   4              		.eabi_attribute 20, 1
   5              		.eabi_attribute 21, 1
   6              		.eabi_attribute 23, 3
   7              		.eabi_attribute 24, 1
   8              		.eabi_attribute 25, 1
   9              		.eabi_attribute 26, 1
  10              		.eabi_attribute 30, 2
  11              		.eabi_attribute 34, 1
  12              		.eabi_attribute 18, 4
  13              		.thumb
  14              		.file	"chmsg.c"
  15              		.text
  16              	.Ltext0:
  17              		.cfi_sections	.debug_frame
  18              		.section	.text.chMsgSend,"ax",%progbits
  19              		.align	2
  20              		.p2align 4,,15
  21              		.global	chMsgSend
  22              		.thumb
  23              		.thumb_func
  24              		.type	chMsgSend, %function
  25              	chMsgSend:
  26              	.LFB7:
  27              		.file 1 "../../../os/kernel/src/chmsg.c"
  28              		.loc 1 68 0
  29              		.cfi_startproc
  30              		@ args = 0, pretend = 0, frame = 0
  31              		@ frame_needed = 0, uses_anonymous_args = 0
  32              	.LVL0:
  33              		.loc 1 69 0
  34 0000 154B     		ldr	r3, .L7
  35              		.loc 1 68 0
  36 0002 70B5     		push	{r4, r5, r6, lr}
  37              	.LCFI0:
  38              		.cfi_def_cfa_offset 16
  39              		.cfi_offset 4, -16
  40              		.cfi_offset 5, -12
  41              		.cfi_offset 6, -8
  42              		.cfi_offset 14, -4
  43              		.loc 1 71 0
  44 0004 0546     		mov	r5, r0
  45              		.loc 1 68 0
  46 0006 0E46     		mov	r6, r1
  47              		.loc 1 69 0
  48 0008 9C69     		ldr	r4, [r3, #24]
  49              	.LVL1:
  50              		.loc 1 71 0
  51 000a 00B3     		cbz	r0, .L5
  52              	.LVL2:
  53              	.L2:
  54              	.LBB10:
  55              		.loc 1 73 0
  56 000c 2023     		movs	r3, #32
  57              	.LVL3:
ARM GAS  C:\Users\TaisikHam\AppData\Local\Temp\ccP4BDr8.s 			page 2


  58              	@ 73 "../../../os/kernel/src/chmsg.c" 1
  59 000e 83F31188 		msr     BASEPRI, r3
  60              	@ 0 "" 2
  61              	.LVL4:
  62              		.thumb
  63              	.LBE10:
  64 0012 FFF7FEFF 		bl	dbg_check_lock
  65              	.LVL5:
  66              		.loc 1 75 0
  67 0016 05F13002 		add	r2, r5, #48
  68 001a A262     		str	r2, [r4, #40]
  69              	.LVL6:
  70              		.loc 1 77 0
  71 001c 95F82010 		ldrb	r1, [r5, #32]	@ zero_extendqisi2
  72              	.LBB11:
  73              	.LBB12:
  74              		.file 2 "../../../os/kernel/include/chinline.h"
  75              		.loc 2 48 0
  76 0020 6B6B     		ldr	r3, [r5, #52]
  77              		.loc 2 47 0
  78 0022 2260     		str	r2, [r4, #0]
  79              	.LBE12:
  80              	.LBE11:
  81              		.loc 1 77 0
  82 0024 0C29     		cmp	r1, #12
  83              		.loc 1 74 0
  84 0026 A663     		str	r6, [r4, #56]
  85              	.LBB14:
  86              	.LBB13:
  87              		.loc 2 48 0
  88 0028 6360     		str	r3, [r4, #4]
  89              		.loc 2 49 0
  90 002a 6C63     		str	r4, [r5, #52]
  91 002c 1C60     		str	r4, [r3, #0]
  92              	.LBE13:
  93              	.LBE14:
  94              		.loc 1 77 0
  95 002e 0AD0     		beq	.L6
  96              	.LVL7:
  97              	.L3:
  98              		.loc 1 79 0
  99 0030 0A20     		movs	r0, #10
 100 0032 FFF7FEFF 		bl	chSchGoSleepS
 101              	.LVL8:
 102              		.loc 1 80 0
 103 0036 A46A     		ldr	r4, [r4, #40]
 104              	.LVL9:
 105              		.loc 1 81 0
 106 0038 FFF7FEFF 		bl	dbg_check_unlock
 107              	.LVL10:
 108              	.LBB15:
 109 003c 0023     		movs	r3, #0
 110              	.LVL11:
 111              	@ 81 "../../../os/kernel/src/chmsg.c" 1
 112 003e 83F31188 		msr     BASEPRI, r3
 113              	@ 0 "" 2
 114              	.LVL12:
ARM GAS  C:\Users\TaisikHam\AppData\Local\Temp\ccP4BDr8.s 			page 3


 115              		.thumb
 116              	.LBE15:
 117              		.loc 1 83 0
 118 0042 2046     		mov	r0, r4
 119 0044 70BD     		pop	{r4, r5, r6, pc}
 120              	.LVL13:
 121              	.L6:
 122              		.loc 1 78 0
 123 0046 2846     		mov	r0, r5
 124 0048 FFF7FEFF 		bl	chSchReadyI
 125              	.LVL14:
 126 004c F0E7     		b	.L3
 127              	.LVL15:
 128              	.L5:
 129              		.loc 1 71 0 discriminator 1
 130 004e 0348     		ldr	r0, .L7+4
 131              	.LVL16:
 132 0050 FFF7FEFF 		bl	chDbgPanic
 133              	.LVL17:
 134 0054 DAE7     		b	.L2
 135              	.L8:
 136 0056 00BF     		.align	2
 137              	.L7:
 138 0058 00000000 		.word	rlist
 139 005c 00000000 		.word	.LC0
 140              		.cfi_endproc
 141              	.LFE7:
 142              		.size	chMsgSend, .-chMsgSend
 143              		.section	.text.chMsgWait,"ax",%progbits
 144              		.align	2
 145              		.p2align 4,,15
 146              		.global	chMsgWait
 147              		.thumb
 148              		.thumb_func
 149              		.type	chMsgWait, %function
 150              	chMsgWait:
 151              	.LFB8:
 152              		.loc 1 99 0
 153              		.cfi_startproc
 154              		@ args = 0, pretend = 0, frame = 0
 155              		@ frame_needed = 0, uses_anonymous_args = 0
 156 0000 38B5     		push	{r3, r4, r5, lr}
 157              	.LCFI1:
 158              		.cfi_def_cfa_offset 16
 159              		.cfi_offset 3, -16
 160              		.cfi_offset 4, -12
 161              		.cfi_offset 5, -8
 162              		.cfi_offset 14, -4
 163              	.LBB16:
 164              		.loc 1 102 0
 165 0002 2023     		movs	r3, #32
 166              	.LVL18:
 167              	@ 102 "../../../os/kernel/src/chmsg.c" 1
 168 0004 83F31188 		msr     BASEPRI, r3
 169              	@ 0 "" 2
 170              	.LVL19:
 171              		.thumb
ARM GAS  C:\Users\TaisikHam\AppData\Local\Temp\ccP4BDr8.s 			page 4


 172              	.LBE16:
 173              		.loc 1 103 0
 174 0008 0E4D     		ldr	r5, .L12
 175              		.loc 1 102 0
 176 000a FFF7FEFF 		bl	dbg_check_lock
 177              	.LVL20:
 178              		.loc 1 103 0
 179 000e AA69     		ldr	r2, [r5, #24]
 180 0010 1346     		mov	r3, r2
 181 0012 53F8304F 		ldr	r4, [r3, #48]!
 182 0016 9C42     		cmp	r4, r3
 183 0018 0CD0     		beq	.L11
 184              	.L10:
 185              	.LVL21:
 186              	.LBB17:
 187              	.LBB18:
 188              		.loc 2 55 0
 189 001a 2168     		ldr	r1, [r4, #0]
 190 001c 1163     		str	r1, [r2, #48]
 191 001e 4B60     		str	r3, [r1, #4]
 192              	.LBE18:
 193              	.LBE17:
 194              		.loc 1 106 0
 195 0020 0B23     		movs	r3, #11
 196 0022 84F82030 		strb	r3, [r4, #32]
 197              		.loc 1 107 0
 198 0026 FFF7FEFF 		bl	dbg_check_unlock
 199              	.LVL22:
 200              	.LBB19:
 201 002a 0023     		movs	r3, #0
 202              	.LVL23:
 203              	@ 107 "../../../os/kernel/src/chmsg.c" 1
 204 002c 83F31188 		msr     BASEPRI, r3
 205              	@ 0 "" 2
 206              	.LVL24:
 207              		.thumb
 208              	.LBE19:
 209              		.loc 1 109 0
 210 0030 2046     		mov	r0, r4
 211 0032 38BD     		pop	{r3, r4, r5, pc}
 212              	.LVL25:
 213              	.L11:
 214              		.loc 1 104 0
 215 0034 0C20     		movs	r0, #12
 216 0036 FFF7FEFF 		bl	chSchGoSleepS
 217              	.LVL26:
 218 003a AA69     		ldr	r2, [r5, #24]
 219 003c 1346     		mov	r3, r2
 220 003e 53F8304F 		ldr	r4, [r3, #48]!
 221 0042 EAE7     		b	.L10
 222              	.L13:
 223              		.align	2
 224              	.L12:
 225 0044 00000000 		.word	rlist
 226              		.cfi_endproc
 227              	.LFE8:
 228              		.size	chMsgWait, .-chMsgWait
ARM GAS  C:\Users\TaisikHam\AppData\Local\Temp\ccP4BDr8.s 			page 5


 229 0048 AFF30080 		.section	.text.chMsgRelease,"ax",%progbits
 229      AFF30080 
 230              		.align	2
 231              		.p2align 4,,15
 232              		.global	chMsgRelease
 233              		.thumb
 234              		.thumb_func
 235              		.type	chMsgRelease, %function
 236              	chMsgRelease:
 237              	.LFB9:
 238              		.loc 1 121 0
 239              		.cfi_startproc
 240              		@ args = 0, pretend = 0, frame = 0
 241              		@ frame_needed = 0, uses_anonymous_args = 0
 242              	.LVL27:
 243 0000 38B5     		push	{r3, r4, r5, lr}
 244              	.LCFI2:
 245              		.cfi_def_cfa_offset 16
 246              		.cfi_offset 3, -16
 247              		.cfi_offset 4, -12
 248              		.cfi_offset 5, -8
 249              		.cfi_offset 14, -4
 250              		.loc 1 121 0
 251 0002 0446     		mov	r4, r0
 252 0004 0D46     		mov	r5, r1
 253              	.LBB20:
 254              		.loc 1 123 0
 255 0006 2023     		movs	r3, #32
 256              	.LVL28:
 257              	@ 123 "../../../os/kernel/src/chmsg.c" 1
 258 0008 83F31188 		msr     BASEPRI, r3
 259              	@ 0 "" 2
 260              	.LVL29:
 261              		.thumb
 262              	.LBE20:
 263 000c FFF7FEFF 		bl	dbg_check_lock
 264              	.LVL30:
 265              		.loc 1 124 0
 266 0010 94F82030 		ldrb	r3, [r4, #32]	@ zero_extendqisi2
 267 0014 0B2B     		cmp	r3, #11
 268 0016 02D0     		beq	.L15
 269              		.loc 1 124 0 is_stmt 0 discriminator 1
 270 0018 0648     		ldr	r0, .L19
 271 001a FFF7FEFF 		bl	chDbgPanic
 272              	.LVL31:
 273              	.L15:
 274              		.loc 1 126 0 is_stmt 1
 275 001e 2046     		mov	r0, r4
 276 0020 2946     		mov	r1, r5
 277 0022 FFF7FEFF 		bl	chSchWakeupS
 278              	.LVL32:
 279              		.loc 1 127 0
 280 0026 FFF7FEFF 		bl	dbg_check_unlock
 281              	.LVL33:
 282              	.LBB21:
 283 002a 0023     		movs	r3, #0
 284              	.LVL34:
ARM GAS  C:\Users\TaisikHam\AppData\Local\Temp\ccP4BDr8.s 			page 6


 285              	@ 127 "../../../os/kernel/src/chmsg.c" 1
 286 002c 83F31188 		msr     BASEPRI, r3
 287              	@ 0 "" 2
 288              	.LVL35:
 289              		.thumb
 290 0030 38BD     		pop	{r3, r4, r5, pc}
 291              	.L20:
 292 0032 00BF     		.align	2
 293              	.L19:
 294 0034 10000000 		.word	.LC1
 295              	.LBE21:
 296              		.cfi_endproc
 297              	.LFE9:
 298              		.size	chMsgRelease, .-chMsgRelease
 299 0038 AFF30080 		.section	.rodata.str1.4,"aMS",%progbits,1
 299      AFF30080 
 300              		.align	2
 301              	.LC0:
 302 0000 2263684D 		.ascii	"\"chMsgSend\"()\000"
 302      73675365 
 302      6E642228 
 302      2900
 303 000e 0000     		.space	2
 304              	.LC1:
 305 0010 63684D73 		.ascii	"chMsgRelease(), #1\000"
 305      6752656C 
 305      65617365 
 305      28292C20 
 305      233100
 306 0023 00       		.text
 307              	.Letext0:
 308              		.file 3 "c:/develop/genist/chibistudio/tools/yagarto-tools/yagarto-20121222/lib/gcc/../../arm-none
 309              		.file 4 "../../../os/ports/GCC/ARMCMx/chtypes.h"
 310              		.file 5 "../../../os/kernel/include/chlists.h"
 311              		.file 6 "../../../os/kernel/include/chthreads.h"
 312              		.file 7 "../../../os/ports/GCC/ARMCMx/chcore_v7m.h"
 313              		.file 8 "../../../os/kernel/include/chschd.h"
 314              		.file 9 "../../../os/kernel/include/chmtx.h"
 315              		.file 10 "../../../os/kernel/include/chdebug.h"