ARM GAS  C:\cygwin\tmp\ccF6YLzk.s 			page 1


   1              		.syntax unified
   2              		.cpu cortex-m4
   3              		.fpu softvfp
   4              		.eabi_attribute 20, 1
   5              		.eabi_attribute 21, 1
   6              		.eabi_attribute 23, 3
   7              		.eabi_attribute 24, 1
   8              		.eabi_attribute 25, 1
   9              		.eabi_attribute 26, 1
  10              		.eabi_attribute 30, 2
  11              		.eabi_attribute 34, 1
  12              		.eabi_attribute 18, 4
  13              		.thumb
  14              		.file	"hal.c"
  15              		.text
  16              	.Ltext0:
  17              		.cfi_sections	.debug_frame
  18              		.section	.text.halInit,"ax",%progbits
  19              		.align	2
  20              		.p2align 4,,15
  21              		.global	halInit
  22              		.thumb
  23              		.thumb_func
  24              		.type	halInit, %function
  25              	halInit:
  26              	.LFB118:
  27              		.file 1 "../../../os/hal/src/hal.c"
  28              		.loc 1 61 0
  29              		.cfi_startproc
  30              		@ args = 0, pretend = 0, frame = 0
  31              		@ frame_needed = 0, uses_anonymous_args = 0
  32 0000 08B5     		push	{r3, lr}
  33              	.LCFI0:
  34              		.cfi_def_cfa_offset 8
  35              		.cfi_offset 3, -8
  36              		.cfi_offset 14, -4
  37              		.loc 1 63 0
  38 0002 FFF7FEFF 		bl	hal_lld_init
  39              	.LVL0:
  40              		.loc 1 66 0
  41 0006 FFF7FEFF 		bl	tmInit
  42              	.LVL1:
  43              		.loc 1 69 0
  44 000a 40F20000 		movw	r0, #:lower16:pal_default_config
  45 000e C0F20000 		movt	r0, #:upper16:pal_default_config
  46 0012 FFF7FEFF 		bl	_pal_lld_init
  47              	.LVL2:
  48              		.loc 1 96 0
  49 0016 FFF7FEFF 		bl	sdInit
  50              	.LVL3:
  51              		.loc 1 102 0
  52 001a FFF7FEFF 		bl	spiInit
  53              	.LVL4:
  54              		.loc 1 121 0
  55 001e BDE80840 		pop	{r3, lr}
  56              		.loc 1 120 0
  57 0022 FFF7FEBF 		b	boardInit
ARM GAS  C:\cygwin\tmp\ccF6YLzk.s 			page 2


  58              	.LVL5:
  59              		.cfi_endproc
  60              	.LFE118:
  61              		.size	halInit, .-halInit
  62 0026 00BFAFF3 		.section	.text.halIsCounterWithin,"ax",%progbits
  62      0080AFF3 
  62      0080
  63              		.align	2
  64              		.p2align 4,,15
  65              		.global	halIsCounterWithin
  66              		.thumb
  67              		.thumb_func
  68              		.type	halIsCounterWithin, %function
  69              	halIsCounterWithin:
  70              	.LFB119:
  71              		.loc 1 167 0
  72              		.cfi_startproc
  73              		@ args = 0, pretend = 0, frame = 0
  74              		@ frame_needed = 0, uses_anonymous_args = 0
  75              		@ link register save eliminated.
  76              	.LVL6:
  77              		.loc 1 168 0
  78 0000 4FF48053 		mov	r3, #4096
  79 0004 CEF20003 		movt	r3, 57344
  80              		.loc 1 170 0
  81 0008 8142     		cmp	r1, r0
  82              		.loc 1 167 0
  83 000a 0246     		mov	r2, r0
  84              		.loc 1 168 0
  85 000c 5B68     		ldr	r3, [r3, #4]
  86              	.LVL7:
  87              		.loc 1 170 0
  88 000e 09D8     		bhi	.L6
  89              		.loc 1 171 0 discriminator 2
  90 0010 8342     		cmp	r3, r0
  91 0012 34BF     		ite	cc
  92 0014 0022     		movcc	r2, #0
  93 0016 0122     		movcs	r2, #1
  94 0018 8B42     		cmp	r3, r1
  95 001a 2CBF     		ite	cs
  96 001c 1046     		movcs	r0, r2
  97 001e 42F00100 		orrcc	r0, r2, #1
  98              	.LVL8:
  99              		.loc 1 172 0 discriminator 2
 100 0022 7047     		bx	lr
 101              	.LVL9:
 102              	.L6:
 103              		.loc 1 170 0 discriminator 1
 104 0024 8B42     		cmp	r3, r1
 105 0026 2CBF     		ite	cs
 106 0028 0020     		movcs	r0, #0
 107              	.LVL10:
 108 002a 0120     		movcc	r0, #1
 109 002c 9342     		cmp	r3, r2
 110 002e 38BF     		it	cc
 111 0030 0020     		movcc	r0, #0
 112 0032 7047     		bx	lr
ARM GAS  C:\cygwin\tmp\ccF6YLzk.s 			page 3


 113              		.cfi_endproc
 114              	.LFE119:
 115              		.size	halIsCounterWithin, .-halIsCounterWithin
 116 0034 AFF30080 		.section	.text.halPolledDelay,"ax",%progbits
 116      AFF30080 
 116      AFF30080 
 117              		.align	2
 118              		.p2align 4,,15
 119              		.global	halPolledDelay
 120              		.thumb
 121              		.thumb_func
 122              		.type	halPolledDelay, %function
 123              	halPolledDelay:
 124              	.LFB120:
 125              		.loc 1 186 0
 126              		.cfi_startproc
 127              		@ args = 0, pretend = 0, frame = 0
 128              		@ frame_needed = 0, uses_anonymous_args = 0
 129              		@ link register save eliminated.
 130              	.LVL11:
 131              		.loc 1 187 0
 132 0000 4FF48053 		mov	r3, #4096
 133 0004 CEF20003 		movt	r3, 57344
 134              		.loc 1 186 0
 135 0008 10B4     		push	{r4}
 136              	.LCFI1:
 137              		.cfi_def_cfa_offset 4
 138              		.cfi_offset 4, -4
 139              		.loc 1 187 0
 140 000a 5A68     		ldr	r2, [r3, #4]
 141              	.LVL12:
 142              	.LBB4:
 143              	.LBB5:
 144              		.loc 1 168 0
 145 000c 1C46     		mov	r4, r3
 146              	.LBE5:
 147              	.LBE4:
 148              		.loc 1 188 0
 149 000e 8018     		adds	r0, r0, r2
 150              	.LVL13:
 151              	.L10:
 152              	.LBB8:
 153              	.LBB6:
 154              		.loc 1 170 0 discriminator 1
 155 0010 8242     		cmp	r2, r0
 156              		.loc 1 168 0 discriminator 1
 157 0012 6368     		ldr	r3, [r4, #4]
 158              	.LVL14:
 159              		.loc 1 170 0 discriminator 1
 160 0014 0AD2     		bcs	.L8
 161              		.loc 1 170 0 is_stmt 0
 162 0016 9842     		cmp	r0, r3
 163 0018 94BF     		ite	ls
 164 001a 0021     		movls	r1, #0
 165 001c 0121     		movhi	r1, #1
 166 001e 9A42     		cmp	r2, r3
 167 0020 88BF     		it	hi
ARM GAS  C:\cygwin\tmp\ccF6YLzk.s 			page 4


 168 0022 0021     		movhi	r1, #0
 169              	.LBE6:
 170              	.LBE8:
 171              		.loc 1 189 0 is_stmt 1
 172 0024 0029     		cmp	r1, #0
 173 0026 F3D1     		bne	.L10
 174              	.L12:
 175              		.loc 1 191 0
 176 0028 10BC     		pop	{r4}
 177 002a 7047     		bx	lr
 178              	.L8:
 179              	.LBB9:
 180              	.LBB7:
 181              		.loc 1 171 0
 182 002c 9A42     		cmp	r2, r3
 183 002e 8CBF     		ite	hi
 184 0030 0021     		movhi	r1, #0
 185 0032 0121     		movls	r1, #1
 186 0034 9842     		cmp	r0, r3
 187 0036 88BF     		it	hi
 188 0038 41F00101 		orrhi	r1, r1, #1
 189              	.LBE7:
 190              	.LBE9:
 191              		.loc 1 189 0
 192 003c 0029     		cmp	r1, #0
 193 003e E7D1     		bne	.L10
 194 0040 F2E7     		b	.L12
 195              		.cfi_endproc
 196              	.LFE120:
 197              		.size	halPolledDelay, .-halPolledDelay
 198 0042 00BFAFF3 		.text
 198      0080AFF3 
 198      0080AFF3 
 198      0080
 199              	.Letext0:
 200              		.file 2 "c:/develop/genist/chibistudio/tools/yagarto-tools/yagarto-20121222/lib/gcc/../../arm-none
 201              		.file 3 "../../../os/ports/GCC/ARMCMx/chtypes.h"
 202              		.file 4 "../../../os/ports/common/ARMCMx/nvic.h"
 203              		.file 5 "../../../os/hal/platforms/STM32F30x/hal_lld.h"
 204              		.file 6 "../../../os/hal/platforms/STM32/GPIOv2/pal_lld.h"
 205              		.file 7 "../../../os/ports/common/ARMCMx/CMSIS/include/core_cm4.h"
 206              		.file 8 "../../../os/hal/include/tm.h"
 207              		.file 9 "../../../os/hal/include/serial.h"
 208              		.file 10 "../../../os/hal/include/spi.h"
 209              		.file 11 "../../../boards/ST_STM32F3_DISCOVERY/board.h"