ARM GAS  C:\cygwin\tmp\ccJR7lIV.s 			page 1


   1              		.syntax unified
   2              		.cpu cortex-m4
   3              		.fpu softvfp
   4              		.eabi_attribute 20, 1
   5              		.eabi_attribute 21, 1
   6              		.eabi_attribute 23, 3
   7              		.eabi_attribute 24, 1
   8              		.eabi_attribute 25, 1
   9              		.eabi_attribute 26, 1
  10              		.eabi_attribute 30, 2
  11              		.eabi_attribute 34, 1
  12              		.eabi_attribute 18, 4
  13              		.thumb
  14              		.file	"l3gdcomp.c"
  15              		.text
  16              	.Ltext0:
  17              		.cfi_sections	.debug_frame
  18              		.section	.text.L3GD20_SendByte,"ax",%progbits
  19              		.align	2
  20              		.p2align 4,,15
  21              		.thumb
  22              		.thumb_func
  23              		.type	L3GD20_SendByte, %function
  24              	L3GD20_SendByte:
  25              	.LFB128:
  26              		.file 1 "../../../Testhal_wrk/STM32F30x/Gyro/l3gdcomp.c"
  27              		.loc 1 361 0
  28              		.cfi_startproc
  29              		@ args = 0, pretend = 0, frame = 16
  30              		@ frame_needed = 0, uses_anonymous_args = 0
  31              	.LVL0:
  32 0000 00B5     		push	{lr}
  33              	.LCFI0:
  34              		.cfi_def_cfa_offset 4
  35              		.cfi_offset 14, -4
  36              		.loc 1 365 0
  37 0002 114B     		ldr	r3, .L8
  38              		.loc 1 361 0
  39 0004 85B0     		sub	sp, sp, #20
  40              	.LCFI1:
  41              		.cfi_def_cfa_offset 24
  42              	.LBB8:
  43              	.LBB9:
  44              		.loc 1 109 0
  45 0006 4FF44052 		mov	r2, #12288
  46              	.LBE9:
  47              	.LBE8:
  48              		.loc 1 365 0
  49 000a 4FF48051 		mov	r1, #4096
  50              		.loc 1 361 0
  51 000e 8DF80700 		strb	r0, [sp, #7]
  52              		.loc 1 365 0
  53 0012 1960     		str	r1, [r3, #0]
  54              	.LBB11:
  55              	.LBB10:
  56              		.loc 1 109 0
  57 0014 C4F20102 		movt	r2, 16385
ARM GAS  C:\cygwin\tmp\ccJR7lIV.s 			page 2


  58              	.L2:
  59              	.LVL1:
  60              		.loc 1 109 0 is_stmt 0 discriminator 1
  61 0018 1189     		ldrh	r1, [r2, #8]
  62 001a 01F00201 		and	r1, r1, #2
  63 001e 89B2     		uxth	r1, r1
  64 0020 59B1     		cbz	r1, .L4
  65              	.LVL2:
  66              	.LBE10:
  67              	.LBE11:
  68              		.loc 1 374 0 is_stmt 1
  69 0022 0A48     		ldr	r0, .L8+4
  70 0024 0121     		movs	r1, #1
  71 0026 0DF10702 		add	r2, sp, #7
  72 002a 0DF10F03 		add	r3, sp, #15
  73 002e FFF7FEFF 		bl	spiExchange
  74              	.LVL3:
  75              		.loc 1 376 0
  76 0032 9DF80F00 		ldrb	r0, [sp, #15]	@ zero_extendqisi2
  77              		.loc 1 377 0
  78 0036 05B0     		add	sp, sp, #20
  79 0038 00BD     		pop	{pc}
  80              	.LVL4:
  81              	.L4:
  82              		.loc 1 370 0
  83 003a 1968     		ldr	r1, [r3, #0]
  84 003c 481E     		subs	r0, r1, #1
  85 003e 1860     		str	r0, [r3, #0]
  86 0040 0029     		cmp	r1, #0
  87 0042 E9D1     		bne	.L2
  88              	.L3:
  89 0044 FEE7     		b	.L3
  90              	.L9:
  91 0046 00BF     		.align	2
  92              	.L8:
  93 0048 00000000 		.word	.LANCHOR0
  94 004c 00000000 		.word	SPID1
  95              		.cfi_endproc
  96              	.LFE128:
  97              		.size	L3GD20_SendByte, .-L3GD20_SendByte
  98              		.section	.text.SPI_I2S_GetFlagStatus,"ax",%progbits
  99              		.align	2
 100              		.p2align 4,,15
 101              		.global	SPI_I2S_GetFlagStatus
 102              		.thumb
 103              		.thumb_func
 104              		.type	SPI_I2S_GetFlagStatus, %function
 105              	SPI_I2S_GetFlagStatus:
 106              	.LFB118:
 107              		.loc 1 105 0
 108              		.cfi_startproc
 109              		@ args = 0, pretend = 0, frame = 0
 110              		@ frame_needed = 0, uses_anonymous_args = 0
 111              		@ link register save eliminated.
 112              	.LVL5:
 113              		.loc 1 109 0
 114 0000 0389     		ldrh	r3, [r0, #8]
ARM GAS  C:\cygwin\tmp\ccJR7lIV.s 			page 3


 115              	.LVL6:
 116 0002 1942     		tst	r1, r3
 117              		.loc 1 120 0
 118 0004 0CBF     		ite	eq
 119 0006 0020     		moveq	r0, #0
 120 0008 0120     		movne	r0, #1
 121              	.LVL7:
 122 000a 7047     		bx	lr
 123              		.cfi_endproc
 124              	.LFE118:
 125              		.size	SPI_I2S_GetFlagStatus, .-SPI_I2S_GetFlagStatus
 126 000c AFF30080 		.section	.text.L3GD20_Read,"ax",%progbits
 127              		.align	2
 128              		.p2align 4,,15
 129              		.global	L3GD20_Read
 130              		.thumb
 131              		.thumb_func
 132              		.type	L3GD20_Read, %function
 133              	L3GD20_Read:
 134              	.LFB120:
 135              		.loc 1 143 0
 136              		.cfi_startproc
 137              		@ args = 0, pretend = 0, frame = 0
 138              		@ frame_needed = 0, uses_anonymous_args = 0
 139              	.LVL8:
 140 0000 38B5     		push	{r3, r4, r5, lr}
 141              	.LCFI2:
 142              		.cfi_def_cfa_offset 16
 143              		.cfi_offset 3, -16
 144              		.cfi_offset 4, -12
 145              		.cfi_offset 5, -8
 146              		.cfi_offset 14, -4
 147              		.loc 1 143 0
 148 0002 1546     		mov	r5, r2
 149              		.loc 1 153 0
 150 0004 4FF48053 		mov	r3, #4096
 151              		.loc 1 144 0
 152 0008 012D     		cmp	r5, #1
 153              		.loc 1 143 0
 154 000a 0446     		mov	r4, r0
 155              		.loc 1 146 0
 156 000c 0A78     		ldrb	r2, [r1, #0]	@ zero_extendqisi2
 157              	.LVL9:
 158              		.loc 1 153 0
 159 000e C4F60003 		movt	r3, 18432
 160              		.loc 1 144 0
 161 0012 19D9     		bls	.L12
 162              		.loc 1 146 0
 163 0014 62F03F02 		orn	r2, r2, #63
 164 0018 0A70     		strb	r2, [r1, #0]
 165              		.loc 1 153 0
 166 001a 0822     		movs	r2, #8
 167 001c 5A83     		strh	r2, [r3, #26]	@ movhi
 168              		.loc 1 156 0
 169 001e 0878     		ldrb	r0, [r1, #0]	@ zero_extendqisi2
 170              	.LVL10:
 171 0020 FFF7FEFF 		bl	L3GD20_SendByte
ARM GAS  C:\cygwin\tmp\ccJR7lIV.s 			page 4


 172              	.LVL11:
 173              	.L13:
 174              		.loc 1 142 0
 175 0024 013D     		subs	r5, r5, #1
 176 0026 ADB2     		uxth	r5, r5
 177 0028 0135     		adds	r5, r5, #1
 178 002a 6519     		adds	r5, r4, r5
 179              	.L14:
 180              		.loc 1 162 0
 181 002c 0020     		movs	r0, #0
 182 002e FFF7FEFF 		bl	L3GD20_SendByte
 183              	.LVL12:
 184 0032 04F8010B 		strb	r0, [r4], #1
 185              	.LVL13:
 186              		.loc 1 159 0
 187 0036 AC42     		cmp	r4, r5
 188 0038 F8D1     		bne	.L14
 189              	.L15:
 190              		.loc 1 168 0
 191 003a 4FF48053 		mov	r3, #4096
 192 003e C4F60003 		movt	r3, 18432
 193 0042 0822     		movs	r2, #8
 194 0044 1A83     		strh	r2, [r3, #24]	@ movhi
 195 0046 38BD     		pop	{r3, r4, r5, pc}
 196              	.LVL14:
 197              	.L12:
 198              		.loc 1 150 0
 199 0048 62F07F02 		orn	r2, r2, #127
 200 004c 0A70     		strb	r2, [r1, #0]
 201              		.loc 1 153 0
 202 004e 0822     		movs	r2, #8
 203 0050 5A83     		strh	r2, [r3, #26]	@ movhi
 204              		.loc 1 156 0
 205 0052 0878     		ldrb	r0, [r1, #0]	@ zero_extendqisi2
 206              	.LVL15:
 207 0054 FFF7FEFF 		bl	L3GD20_SendByte
 208              	.LVL16:
 209              		.loc 1 159 0
 210 0058 002D     		cmp	r5, #0
 211 005a E3D1     		bne	.L13
 212 005c EDE7     		b	.L15
 213              		.cfi_endproc
 214              	.LFE120:
 215              		.size	L3GD20_Read, .-L3GD20_Read
 216 005e 00BF     		.section	.text.L3GD20_GetDataStatus,"ax",%progbits
 217              		.align	2
 218              		.p2align 4,,15
 219              		.global	L3GD20_GetDataStatus
 220              		.thumb
 221              		.thumb_func
 222              		.type	L3GD20_GetDataStatus, %function
 223              	L3GD20_GetDataStatus:
 224              	.LFB127:
 225              		.loc 1 338 0
 226              		.cfi_startproc
 227              		@ args = 0, pretend = 0, frame = 8
 228              		@ frame_needed = 0, uses_anonymous_args = 0
ARM GAS  C:\cygwin\tmp\ccJR7lIV.s 			page 5


 229 0000 00B5     		push	{lr}
 230              	.LCFI3:
 231              		.cfi_def_cfa_offset 4
 232              		.cfi_offset 14, -4
 233 0002 83B0     		sub	sp, sp, #12
 234              	.LCFI4:
 235              		.cfi_def_cfa_offset 16
 236              		.loc 1 343 0
 237 0004 0DF10600 		add	r0, sp, #6
 238              		.loc 1 342 0
 239 0008 2723     		movs	r3, #39
 240              		.loc 1 343 0
 241 000a 0DF10701 		add	r1, sp, #7
 242 000e 0122     		movs	r2, #1
 243              		.loc 1 342 0
 244 0010 8DF80730 		strb	r3, [sp, #7]
 245              	.LVL17:
 246              		.loc 1 343 0
 247 0014 FFF7FEFF 		bl	L3GD20_Read
 248              	.LVL18:
 249              		.loc 1 346 0
 250 0018 9DF80600 		ldrb	r0, [sp, #6]	@ zero_extendqisi2
 251 001c 03B0     		add	sp, sp, #12
 252 001e 00BD     		pop	{pc}
 253              		.cfi_endproc
 254              	.LFE127:
 255              		.size	L3GD20_GetDataStatus, .-L3GD20_GetDataStatus
 256              		.section	.text.SPI_Init_A,"ax",%progbits
 257              		.align	2
 258              		.p2align 4,,15
 259              		.global	SPI_Init_A
 260              		.thumb
 261              		.thumb_func
 262              		.type	SPI_Init_A, %function
 263              	SPI_Init_A:
 264              	.LFB129:
 265              		.loc 1 389 0
 266              		.cfi_startproc
 267              		@ args = 0, pretend = 0, frame = 0
 268              		@ frame_needed = 0, uses_anonymous_args = 0
 269              		@ link register save eliminated.
 270              	.LVL19:
 271 0000 2DE9F007 		push	{r4, r5, r6, r7, r8, r9, sl}
 272              	.LCFI5:
 273              		.cfi_def_cfa_offset 28
 274              		.cfi_offset 4, -28
 275              		.cfi_offset 5, -24
 276              		.cfi_offset 6, -20
 277              		.cfi_offset 7, -16
 278              		.cfi_offset 8, -12
 279              		.cfi_offset 9, -8
 280              		.cfi_offset 10, -4
 281              		.loc 1 393 0
 282 0004 4C88     		ldrh	r4, [r1, #2]
 283 0006 B4F5827F 		cmp	r4, #260
 284 000a 2FD0     		beq	.L22
 285              		.loc 1 423 0
ARM GAS  C:\cygwin\tmp\ccJR7lIV.s 			page 6


 286 000c 8388     		ldrh	r3, [r0, #4]
 287              	.LVL20:
 288              		.loc 1 444 0
 289 000e B1F800C0 		ldrh	ip, [r1, #0]
 290              		.loc 1 427 0
 291 0012 B1F804A0 		ldrh	sl, [r1, #4]
 292              		.loc 1 446 0
 293 0016 B1F80690 		ldrh	r9, [r1, #6]
 294 001a B1F80880 		ldrh	r8, [r1, #8]
 295              		.loc 1 445 0
 296 001e 4F89     		ldrh	r7, [r1, #10]
 297 0020 8E89     		ldrh	r6, [r1, #12]
 298              		.loc 1 444 0
 299 0022 CD89     		ldrh	r5, [r1, #14]
 300              		.loc 1 425 0
 301 0024 23F47063 		bic	r3, r3, #3840
 302              	.LVL21:
 303 0028 1B04     		lsls	r3, r3, #16
 304              		.loc 1 444 0
 305 002a 44EA0C0C 		orr	ip, r4, ip
 306              		.loc 1 425 0
 307 002e 1B0C     		lsrs	r3, r3, #16
 308              	.LVL22:
 309              		.loc 1 427 0
 310 0030 43EA0A03 		orr	r3, r3, sl
 311              	.LVL23:
 312              		.loc 1 446 0
 313 0034 4CEA090C 		orr	ip, ip, r9
 314              		.loc 1 429 0
 315 0038 8380     		strh	r3, [r0, #4]	@ movhi
 316              		.loc 1 446 0
 317 003a 4CEA080C 		orr	ip, ip, r8
 318              		.loc 1 433 0
 319 003e 0488     		ldrh	r4, [r0, #0]
 320              	.LVL24:
 321              		.loc 1 430 0
 322 0040 9381     		strh	r3, [r2, #12]	@ movhi
 323              		.loc 1 445 0
 324 0042 4CEA0703 		orr	r3, ip, r7
 325 0046 3343     		orrs	r3, r3, r6
 326              		.loc 1 435 0
 327 0048 04F44154 		and	r4, r4, #12352
 328              	.LVL25:
 329              		.loc 1 444 0
 330 004c 2B43     		orrs	r3, r3, r5
 331 004e 2343     		orrs	r3, r3, r4
 332 0050 9BB2     		uxth	r3, r3
 333              	.LVL26:
 334              		.loc 1 450 0
 335 0052 0380     		strh	r3, [r0, #0]	@ movhi
 336              		.loc 1 451 0
 337 0054 5381     		strh	r3, [r2, #10]	@ movhi
 338              	.LVL27:
 339              	.L21:
 340              		.loc 1 455 0
 341 0056 838B     		ldrh	r3, [r0, #28]
 342              		.loc 1 459 0
ARM GAS  C:\cygwin\tmp\ccJR7lIV.s 			page 7


 343 0058 0A8A     		ldrh	r2, [r1, #16]
 344              	.LVL28:
 345              		.loc 1 455 0
 346 005a 23F40063 		bic	r3, r3, #2048
 347 005e 1B04     		lsls	r3, r3, #16
 348 0060 1B0C     		lsrs	r3, r3, #16
 349 0062 8383     		strh	r3, [r0, #28]	@ movhi
 350              		.loc 1 459 0
 351 0064 0282     		strh	r2, [r0, #16]	@ movhi
 352              		.loc 1 460 0
 353 0066 BDE8F007 		pop	{r4, r5, r6, r7, r8, r9, sl}
 354 006a 7047     		bx	lr
 355              	.LVL29:
 356              	.L22:
 357              		.loc 1 399 0
 358 006c B1F80090 		ldrh	r9, [r1, #0]
 359 0070 CC88     		ldrh	r4, [r1, #6]
 360              		.loc 1 401 0
 361 0072 B1F80880 		ldrh	r8, [r1, #8]
 362              		.loc 1 400 0
 363 0076 B1F80AC0 		ldrh	ip, [r1, #10]
 364 007a 8F89     		ldrh	r7, [r1, #12]
 365              		.loc 1 395 0
 366 007c 0388     		ldrh	r3, [r0, #0]
 367              	.LVL30:
 368              		.loc 1 399 0
 369 007e CE89     		ldrh	r6, [r1, #14]
 370              		.loc 1 413 0
 371 0080 8D88     		ldrh	r5, [r1, #4]
 372              		.loc 1 399 0
 373 0082 49EA0404 		orr	r4, r9, r4
 374              		.loc 1 401 0
 375 0086 44F48274 		orr	r4, r4, #260
 376 008a 44EA0804 		orr	r4, r4, r8
 377              		.loc 1 400 0
 378 008e 44EA0C04 		orr	r4, r4, ip
 379 0092 3C43     		orrs	r4, r4, r7
 380              		.loc 1 397 0
 381 0094 03F44153 		and	r3, r3, #12352
 382              	.LVL31:
 383              		.loc 1 399 0
 384 0098 3443     		orrs	r4, r4, r6
 385 009a 1C43     		orrs	r4, r4, r3
 386 009c A4B2     		uxth	r4, r4
 387              	.LVL32:
 388              		.loc 1 404 0
 389 009e 0480     		strh	r4, [r0, #0]	@ movhi
 390              		.loc 1 409 0
 391 00a0 8388     		ldrh	r3, [r0, #4]
 392              	.LVL33:
 393              		.loc 1 405 0
 394 00a2 5481     		strh	r4, [r2, #10]	@ movhi
 395              		.loc 1 411 0
 396 00a4 23F47063 		bic	r3, r3, #3840
 397              	.LVL34:
 398 00a8 1B04     		lsls	r3, r3, #16
 399 00aa 1B0C     		lsrs	r3, r3, #16
ARM GAS  C:\cygwin\tmp\ccJR7lIV.s 			page 8


 400              	.LVL35:
 401              		.loc 1 413 0
 402 00ac 2B43     		orrs	r3, r3, r5
 403              	.LVL36:
 404              		.loc 1 415 0
 405 00ae 8380     		strh	r3, [r0, #4]	@ movhi
 406              		.loc 1 416 0
 407 00b0 9381     		strh	r3, [r2, #12]	@ movhi
 408 00b2 D0E7     		b	.L21
 409              		.cfi_endproc
 410              	.LFE129:
 411              		.size	SPI_Init_A, .-SPI_Init_A
 412 00b4 AFF30080 		.section	.text.SPI_Initialize,"ax",%progbits
 412      AFF30080 
 412      AFF30080 
 413              		.align	2
 414              		.p2align 4,,15
 415              		.global	SPI_Initialize
 416              		.thumb
 417              		.thumb_func
 418              		.type	SPI_Initialize, %function
 419              	SPI_Initialize:
 420              	.LFB130:
 421              		.loc 1 463 0
 422              		.cfi_startproc
 423              		@ args = 0, pretend = 0, frame = 0
 424              		@ frame_needed = 0, uses_anonymous_args = 0
 425              		@ link register save eliminated.
 426              	.LVL37:
 427              		.loc 1 466 0
 428 0000 2D4B     		ldr	r3, .L27
 429              		.loc 1 463 0
 430 0002 2DE9F007 		push	{r4, r5, r6, r7, r8, r9, sl}
 431              	.LCFI6:
 432              		.cfi_def_cfa_offset 28
 433              		.cfi_offset 4, -28
 434              		.cfi_offset 5, -24
 435              		.cfi_offset 6, -20
 436              		.cfi_offset 7, -16
 437              		.cfi_offset 8, -12
 438              		.cfi_offset 9, -8
 439              		.cfi_offset 10, -4
 440              		.loc 1 466 0
 441 0006 5C88     		ldrh	r4, [r3, #2]
 442 0008 B4F5827F 		cmp	r4, #260
 443 000c 2FD0     		beq	.L26
 444              		.loc 1 466 0 is_stmt 0 discriminator 2
 445 000e 8288     		ldrh	r2, [r0, #4]
 446              	.LVL38:
 447              		.loc 1 492 0 is_stmt 1 discriminator 2
 448 0010 B3F800C0 		ldrh	ip, [r3, #0]
 449              		.loc 1 474 0 discriminator 2
 450 0014 B3F804A0 		ldrh	sl, [r3, #4]
 451              		.loc 1 492 0 discriminator 2
 452 0018 B3F80690 		ldrh	r9, [r3, #6]
 453 001c B3F80880 		ldrh	r8, [r3, #8]
 454 0020 5F89     		ldrh	r7, [r3, #10]
ARM GAS  C:\cygwin\tmp\ccJR7lIV.s 			page 9


 455 0022 9E89     		ldrh	r6, [r3, #12]
 456 0024 DD89     		ldrh	r5, [r3, #14]
 457              		.loc 1 470 0 discriminator 2
 458 0026 22F47062 		bic	r2, r2, #3840
 459              	.LVL39:
 460 002a 1204     		lsls	r2, r2, #16
 461              		.loc 1 492 0 discriminator 2
 462 002c 44EA0C0C 		orr	ip, r4, ip
 463              		.loc 1 470 0 discriminator 2
 464 0030 120C     		lsrs	r2, r2, #16
 465              		.loc 1 474 0 discriminator 2
 466 0032 42EA0A02 		orr	r2, r2, sl
 467              	.LVL40:
 468              		.loc 1 492 0 discriminator 2
 469 0036 4CEA090C 		orr	ip, ip, r9
 470              		.loc 1 480 0 discriminator 2
 471 003a 8A81     		strh	r2, [r1, #12]	@ movhi
 472              		.loc 1 492 0 discriminator 2
 473 003c 4CEA080C 		orr	ip, ip, r8
 474              		.loc 1 480 0 discriminator 2
 475 0040 8280     		strh	r2, [r0, #4]	@ movhi
 476              		.loc 1 490 0 discriminator 2
 477 0042 0488     		ldrh	r4, [r0, #0]
 478              	.LVL41:
 479              		.loc 1 492 0 discriminator 2
 480 0044 4CEA0702 		orr	r2, ip, r7
 481 0048 3243     		orrs	r2, r2, r6
 482              		.loc 1 491 0 discriminator 2
 483 004a 04F44154 		and	r4, r4, #12352
 484              	.LVL42:
 485              		.loc 1 492 0 discriminator 2
 486 004e 2A43     		orrs	r2, r2, r5
 487 0050 2243     		orrs	r2, r2, r4
 488 0052 92B2     		uxth	r2, r2
 489              	.LVL43:
 490              		.loc 1 494 0 discriminator 2
 491 0054 4A81     		strh	r2, [r1, #10]	@ movhi
 492 0056 0280     		strh	r2, [r0, #0]	@ movhi
 493              	.LVL44:
 494              	.L25:
 495              		.loc 1 498 0
 496 0058 818B     		ldrh	r1, [r0, #28]
 497              	.LVL45:
 498              		.loc 1 501 0
 499 005a 1A8A     		ldrh	r2, [r3, #16]
 500              		.loc 1 498 0
 501 005c 21F40063 		bic	r3, r1, #2048
 502 0060 1B04     		lsls	r3, r3, #16
 503 0062 1B0C     		lsrs	r3, r3, #16
 504 0064 8383     		strh	r3, [r0, #28]	@ movhi
 505              		.loc 1 501 0
 506 0066 0282     		strh	r2, [r0, #16]	@ movhi
 507              		.loc 1 502 0
 508 0068 BDE8F007 		pop	{r4, r5, r6, r7, r8, r9, sl}
 509 006c 7047     		bx	lr
 510              	.LVL46:
 511              	.L26:
ARM GAS  C:\cygwin\tmp\ccJR7lIV.s 			page 10


 512              		.loc 1 474 0 discriminator 1
 513 006e DC88     		ldrh	r4, [r3, #6]
 514 0070 B3F80090 		ldrh	r9, [r3, #0]
 515 0074 B3F80880 		ldrh	r8, [r3, #8]
 516 0078 B3F80AC0 		ldrh	ip, [r3, #10]
 517 007c 9F89     		ldrh	r7, [r3, #12]
 518              		.loc 1 466 0 discriminator 1
 519 007e 0288     		ldrh	r2, [r0, #0]
 520              	.LVL47:
 521              		.loc 1 474 0 discriminator 1
 522 0080 DE89     		ldrh	r6, [r3, #14]
 523              		.loc 1 487 0 discriminator 1
 524 0082 9D88     		ldrh	r5, [r3, #4]
 525              		.loc 1 474 0 discriminator 1
 526 0084 49EA0404 		orr	r4, r9, r4
 527 0088 44F48274 		orr	r4, r4, #260
 528 008c 44EA0804 		orr	r4, r4, r8
 529 0090 44EA0C04 		orr	r4, r4, ip
 530 0094 3C43     		orrs	r4, r4, r7
 531              		.loc 1 470 0 discriminator 1
 532 0096 02F44152 		and	r2, r2, #12352
 533              	.LVL48:
 534              		.loc 1 474 0 discriminator 1
 535 009a 3443     		orrs	r4, r4, r6
 536 009c 1443     		orrs	r4, r4, r2
 537 009e A4B2     		uxth	r4, r4
 538              	.LVL49:
 539              		.loc 1 479 0 discriminator 1
 540 00a0 4C81     		strh	r4, [r1, #10]	@ movhi
 541 00a2 0480     		strh	r4, [r0, #0]	@ movhi
 542              		.loc 1 483 0 discriminator 1
 543 00a4 8288     		ldrh	r2, [r0, #4]
 544              	.LVL50:
 545              		.loc 1 484 0 discriminator 1
 546 00a6 22F47062 		bic	r2, r2, #3840
 547              	.LVL51:
 548 00aa 1204     		lsls	r2, r2, #16
 549 00ac 120C     		lsrs	r2, r2, #16
 550              	.LVL52:
 551              		.loc 1 487 0 discriminator 1
 552 00ae 2A43     		orrs	r2, r2, r5
 553              	.LVL53:
 554              		.loc 1 488 0 discriminator 1
 555 00b0 8A81     		strh	r2, [r1, #12]	@ movhi
 556 00b2 8280     		strh	r2, [r0, #4]	@ movhi
 557 00b4 D0E7     		b	.L25
 558              	.L28:
 559 00b6 00BF     		.align	2
 560              	.L27:
 561 00b8 00000000 		.word	.LANCHOR1
 562              		.cfi_endproc
 563              	.LFE130:
 564              		.size	SPI_Initialize, .-SPI_Initialize
 565 00bc AFF30080 		.section	.text.L3GD20_Write,"ax",%progbits
 566              		.align	2
 567              		.p2align 4,,15
 568              		.global	L3GD20_Write
ARM GAS  C:\cygwin\tmp\ccJR7lIV.s 			page 11


 569              		.thumb
 570              		.thumb_func
 571              		.type	L3GD20_Write, %function
 572              	L3GD20_Write:
 573              	.LFB133:
 574              		.loc 1 623 0
 575              		.cfi_startproc
 576              		@ args = 0, pretend = 0, frame = 0
 577              		@ frame_needed = 0, uses_anonymous_args = 0
 578              	.LVL54:
 579              		.loc 1 628 0
 580 0000 012A     		cmp	r2, #1
 581              		.loc 1 623 0
 582 0002 38B5     		push	{r3, r4, r5, lr}
 583              	.LCFI7:
 584              		.cfi_def_cfa_offset 16
 585              		.cfi_offset 3, -16
 586              		.cfi_offset 4, -12
 587              		.cfi_offset 5, -8
 588              		.cfi_offset 14, -4
 589              		.loc 1 623 0
 590 0004 1546     		mov	r5, r2
 591 0006 0446     		mov	r4, r0
 592              		.loc 1 628 0
 593 0008 1DD9     		bls	.L30
 594              		.loc 1 630 0
 595 000a 0A78     		ldrb	r2, [r1, #0]	@ zero_extendqisi2
 596              	.LVL55:
 597              		.loc 1 633 0
 598 000c 4FF48053 		mov	r3, #4096
 599              		.loc 1 630 0
 600 0010 42F04002 		orr	r2, r2, #64
 601              		.loc 1 633 0
 602 0014 C4F60003 		movt	r3, 18432
 603              		.loc 1 630 0
 604 0018 0A70     		strb	r2, [r1, #0]
 605              		.loc 1 633 0
 606 001a 0822     		movs	r2, #8
 607 001c 5A83     		strh	r2, [r3, #26]	@ movhi
 608              		.loc 1 636 0
 609 001e 0878     		ldrb	r0, [r1, #0]	@ zero_extendqisi2
 610              	.LVL56:
 611 0020 FFF7FEFF 		bl	L3GD20_SendByte
 612              	.LVL57:
 613              	.L31:
 614              		.loc 1 622 0
 615 0024 013D     		subs	r5, r5, #1
 616 0026 ADB2     		uxth	r5, r5
 617 0028 0135     		adds	r5, r5, #1
 618 002a 6519     		adds	r5, r4, r5
 619              	.L32:
 620              		.loc 1 640 0
 621 002c 14F8010B 		ldrb	r0, [r4], #1	@ zero_extendqisi2
 622              	.LVL58:
 623 0030 FFF7FEFF 		bl	L3GD20_SendByte
 624              	.LVL59:
 625              		.loc 1 638 0
ARM GAS  C:\cygwin\tmp\ccJR7lIV.s 			page 12


 626 0034 AC42     		cmp	r4, r5
 627 0036 F9D1     		bne	.L32
 628              	.L33:
 629              		.loc 1 646 0
 630 0038 4FF48053 		mov	r3, #4096
 631 003c C4F60003 		movt	r3, 18432
 632 0040 0822     		movs	r2, #8
 633 0042 1A83     		strh	r2, [r3, #24]	@ movhi
 634 0044 38BD     		pop	{r3, r4, r5, pc}
 635              	.LVL60:
 636              	.L30:
 637              		.loc 1 633 0
 638 0046 4FF48053 		mov	r3, #4096
 639 004a C4F60003 		movt	r3, 18432
 640 004e 0822     		movs	r2, #8
 641              	.LVL61:
 642 0050 5A83     		strh	r2, [r3, #26]	@ movhi
 643              		.loc 1 636 0
 644 0052 0878     		ldrb	r0, [r1, #0]	@ zero_extendqisi2
 645              	.LVL62:
 646 0054 FFF7FEFF 		bl	L3GD20_SendByte
 647              	.LVL63:
 648              		.loc 1 638 0
 649 0058 002D     		cmp	r5, #0
 650 005a E3D1     		bne	.L31
 651 005c ECE7     		b	.L33
 652              		.cfi_endproc
 653              	.LFE133:
 654              		.size	L3GD20_Write, .-L3GD20_Write
 655 005e 00BF     		.section	.text.L3GD20_FilterCmd,"ax",%progbits
 656              		.align	2
 657              		.p2align 4,,15
 658              		.global	L3GD20_FilterCmd
 659              		.thumb
 660              		.thumb_func
 661              		.type	L3GD20_FilterCmd, %function
 662              	L3GD20_FilterCmd:
 663              	.LFB126:
 664              		.loc 1 316 0
 665              		.cfi_startproc
 666              		@ args = 0, pretend = 0, frame = 8
 667              		@ frame_needed = 0, uses_anonymous_args = 0
 668              	.LVL64:
 669 0000 30B5     		push	{r4, r5, lr}
 670              	.LCFI8:
 671              		.cfi_def_cfa_offset 12
 672              		.cfi_offset 4, -12
 673              		.cfi_offset 5, -8
 674              		.cfi_offset 14, -4
 675 0002 83B0     		sub	sp, sp, #12
 676              	.LCFI9:
 677              		.cfi_def_cfa_offset 24
 678              		.loc 1 320 0
 679 0004 2424     		movs	r4, #36
 680              		.loc 1 321 0
 681 0006 0DF10701 		add	r1, sp, #7
 682 000a 0122     		movs	r2, #1
ARM GAS  C:\cygwin\tmp\ccJR7lIV.s 			page 13


 683              		.loc 1 316 0
 684 000c 0546     		mov	r5, r0
 685              		.loc 1 321 0
 686 000e 0DF10600 		add	r0, sp, #6
 687              	.LVL65:
 688              		.loc 1 320 0
 689 0012 8DF80740 		strb	r4, [sp, #7]
 690              	.LVL66:
 691              		.loc 1 321 0
 692 0016 FFF7FEFF 		bl	L3GD20_Read
 693              	.LVL67:
 694              		.loc 1 323 0
 695 001a 9DF80630 		ldrb	r3, [sp, #6]	@ zero_extendqisi2
 696              	.LVL68:
 697              		.loc 1 328 0
 698 001e 8DF80740 		strb	r4, [sp, #7]
 699              		.loc 1 323 0
 700 0022 23F01003 		bic	r3, r3, #16
 701              	.LVL69:
 702              		.loc 1 325 0
 703 0026 1D43     		orrs	r5, r5, r3
 704              		.loc 1 329 0
 705 0028 0DF10600 		add	r0, sp, #6
 706 002c 0DF10701 		add	r1, sp, #7
 707 0030 0122     		movs	r2, #1
 708              		.loc 1 325 0
 709 0032 8DF80650 		strb	r5, [sp, #6]
 710              	.LVL70:
 711              		.loc 1 329 0
 712 0036 FFF7FEFF 		bl	L3GD20_Write
 713              	.LVL71:
 714              		.loc 1 330 0
 715 003a 03B0     		add	sp, sp, #12
 716 003c 30BD     		pop	{r4, r5, pc}
 717              		.cfi_endproc
 718              	.LFE126:
 719              		.size	L3GD20_FilterCmd, .-L3GD20_FilterCmd
 720 003e 00BF     		.section	.text.L3GD20_FilterConfig,"ax",%progbits
 721              		.align	2
 722              		.p2align 4,,15
 723              		.global	L3GD20_FilterConfig
 724              		.thumb
 725              		.thumb_func
 726              		.type	L3GD20_FilterConfig, %function
 727              	L3GD20_FilterConfig:
 728              	.LFB125:
 729              		.loc 1 289 0
 730              		.cfi_startproc
 731              		@ args = 0, pretend = 0, frame = 8
 732              		@ frame_needed = 0, uses_anonymous_args = 0
 733              	.LVL72:
 734 0000 30B5     		push	{r4, r5, lr}
 735              	.LCFI10:
 736              		.cfi_def_cfa_offset 12
 737              		.cfi_offset 4, -12
 738              		.cfi_offset 5, -8
 739              		.cfi_offset 14, -4
ARM GAS  C:\cygwin\tmp\ccJR7lIV.s 			page 14


 740 0002 0546     		mov	r5, r0
 741 0004 83B0     		sub	sp, sp, #12
 742              	.LCFI11:
 743              		.cfi_def_cfa_offset 24
 744              		.loc 1 293 0
 745 0006 2124     		movs	r4, #33
 746              		.loc 1 294 0
 747 0008 0DF10600 		add	r0, sp, #6
 748              	.LVL73:
 749 000c 0DF10701 		add	r1, sp, #7
 750 0010 0122     		movs	r2, #1
 751              		.loc 1 293 0
 752 0012 8DF80740 		strb	r4, [sp, #7]
 753              	.LVL74:
 754              		.loc 1 294 0
 755 0016 FFF7FEFF 		bl	L3GD20_Read
 756              	.LVL75:
 757              		.loc 1 296 0
 758 001a 9DF80620 		ldrb	r2, [sp, #6]	@ zero_extendqisi2
 759              	.LVL76:
 760              		.loc 1 299 0
 761 001e 6978     		ldrb	r1, [r5, #1]	@ zero_extendqisi2
 762 0020 2B78     		ldrb	r3, [r5, #0]	@ zero_extendqisi2
 763              		.loc 1 303 0
 764 0022 8DF80740 		strb	r4, [sp, #7]
 765              		.loc 1 299 0
 766 0026 0B43     		orrs	r3, r3, r1
 767              		.loc 1 296 0
 768 0028 22F03F02 		bic	r2, r2, #63
 769              	.LVL77:
 770              		.loc 1 299 0
 771 002c 1343     		orrs	r3, r3, r2
 772              		.loc 1 304 0
 773 002e 0DF10600 		add	r0, sp, #6
 774 0032 0DF10701 		add	r1, sp, #7
 775 0036 0122     		movs	r2, #1
 776              		.loc 1 299 0
 777 0038 8DF80630 		strb	r3, [sp, #6]
 778              	.LVL78:
 779              		.loc 1 304 0
 780 003c FFF7FEFF 		bl	L3GD20_Write
 781              	.LVL79:
 782              		.loc 1 305 0
 783 0040 03B0     		add	sp, sp, #12
 784 0042 30BD     		pop	{r4, r5, pc}
 785              		.cfi_endproc
 786              	.LFE125:
 787              		.size	L3GD20_FilterConfig, .-L3GD20_FilterConfig
 788 0044 AFF30080 		.section	.text.L3GD20_INT2InterruptCmd,"ax",%progbits
 788      AFF30080 
 788      AFF30080 
 789              		.align	2
 790              		.p2align 4,,15
 791              		.global	L3GD20_INT2InterruptCmd
 792              		.thumb
 793              		.thumb_func
 794              		.type	L3GD20_INT2InterruptCmd, %function
ARM GAS  C:\cygwin\tmp\ccJR7lIV.s 			page 15


 795              	L3GD20_INT2InterruptCmd:
 796              	.LFB124:
 797              		.loc 1 267 0
 798              		.cfi_startproc
 799              		@ args = 0, pretend = 0, frame = 8
 800              		@ frame_needed = 0, uses_anonymous_args = 0
 801              	.LVL80:
 802 0000 30B5     		push	{r4, r5, lr}
 803              	.LCFI12:
 804              		.cfi_def_cfa_offset 12
 805              		.cfi_offset 4, -12
 806              		.cfi_offset 5, -8
 807              		.cfi_offset 14, -4
 808 0002 83B0     		sub	sp, sp, #12
 809              	.LCFI13:
 810              		.cfi_def_cfa_offset 24
 811              		.loc 1 271 0
 812 0004 2224     		movs	r4, #34
 813              		.loc 1 272 0
 814 0006 0DF10701 		add	r1, sp, #7
 815 000a 0122     		movs	r2, #1
 816              		.loc 1 267 0
 817 000c 0546     		mov	r5, r0
 818              		.loc 1 272 0
 819 000e 0DF10600 		add	r0, sp, #6
 820              	.LVL81:
 821              		.loc 1 271 0
 822 0012 8DF80740 		strb	r4, [sp, #7]
 823              	.LVL82:
 824              		.loc 1 272 0
 825 0016 FFF7FEFF 		bl	L3GD20_Read
 826              	.LVL83:
 827              		.loc 1 274 0
 828 001a 9DF80630 		ldrb	r3, [sp, #6]	@ zero_extendqisi2
 829              	.LVL84:
 830              		.loc 1 278 0
 831 001e 8DF80740 		strb	r4, [sp, #7]
 832              		.loc 1 274 0
 833 0022 23F00803 		bic	r3, r3, #8
 834              	.LVL85:
 835              		.loc 1 275 0
 836 0026 1D43     		orrs	r5, r5, r3
 837              		.loc 1 279 0
 838 0028 0DF10600 		add	r0, sp, #6
 839 002c 0DF10701 		add	r1, sp, #7
 840 0030 0122     		movs	r2, #1
 841              		.loc 1 275 0
 842 0032 8DF80650 		strb	r5, [sp, #6]
 843              	.LVL86:
 844              		.loc 1 279 0
 845 0036 FFF7FEFF 		bl	L3GD20_Write
 846              	.LVL87:
 847              		.loc 1 280 0
 848 003a 03B0     		add	sp, sp, #12
 849 003c 30BD     		pop	{r4, r5, pc}
 850              		.cfi_endproc
 851              	.LFE124:
ARM GAS  C:\cygwin\tmp\ccJR7lIV.s 			page 16


 852              		.size	L3GD20_INT2InterruptCmd, .-L3GD20_INT2InterruptCmd
 853 003e 00BF     		.section	.text.L3GD20_INT1InterruptCmd,"ax",%progbits
 854              		.align	2
 855              		.p2align 4,,15
 856              		.global	L3GD20_INT1InterruptCmd
 857              		.thumb
 858              		.thumb_func
 859              		.type	L3GD20_INT1InterruptCmd, %function
 860              	L3GD20_INT1InterruptCmd:
 861              	.LFB123:
 862              		.loc 1 243 0
 863              		.cfi_startproc
 864              		@ args = 0, pretend = 0, frame = 8
 865              		@ frame_needed = 0, uses_anonymous_args = 0
 866              	.LVL88:
 867 0000 30B5     		push	{r4, r5, lr}
 868              	.LCFI14:
 869              		.cfi_def_cfa_offset 12
 870              		.cfi_offset 4, -12
 871              		.cfi_offset 5, -8
 872              		.cfi_offset 14, -4
 873 0002 83B0     		sub	sp, sp, #12
 874              	.LCFI15:
 875              		.cfi_def_cfa_offset 24
 876              		.loc 1 247 0
 877 0004 2224     		movs	r4, #34
 878              		.loc 1 248 0
 879 0006 0DF10701 		add	r1, sp, #7
 880 000a 0122     		movs	r2, #1
 881              		.loc 1 243 0
 882 000c 0546     		mov	r5, r0
 883              		.loc 1 248 0
 884 000e 0DF10600 		add	r0, sp, #6
 885              	.LVL89:
 886              		.loc 1 247 0
 887 0012 8DF80740 		strb	r4, [sp, #7]
 888              	.LVL90:
 889              		.loc 1 248 0
 890 0016 FFF7FEFF 		bl	L3GD20_Read
 891              	.LVL91:
 892              		.loc 1 250 0
 893 001a 9DF80630 		ldrb	r3, [sp, #6]	@ zero_extendqisi2
 894              	.LVL92:
 895              		.loc 1 254 0
 896 001e 8DF80740 		strb	r4, [sp, #7]
 897              		.loc 1 250 0
 898 0022 03F07F03 		and	r3, r3, #127
 899              	.LVL93:
 900              		.loc 1 251 0
 901 0026 1D43     		orrs	r5, r5, r3
 902              		.loc 1 255 0
 903 0028 0DF10600 		add	r0, sp, #6
 904 002c 0DF10701 		add	r1, sp, #7
 905 0030 0122     		movs	r2, #1
 906              		.loc 1 251 0
 907 0032 8DF80650 		strb	r5, [sp, #6]
 908              	.LVL94:
ARM GAS  C:\cygwin\tmp\ccJR7lIV.s 			page 17


 909              		.loc 1 255 0
 910 0036 FFF7FEFF 		bl	L3GD20_Write
 911              	.LVL95:
 912              		.loc 1 256 0
 913 003a 03B0     		add	sp, sp, #12
 914 003c 30BD     		pop	{r4, r5, pc}
 915              		.cfi_endproc
 916              	.LFE123:
 917              		.size	L3GD20_INT1InterruptCmd, .-L3GD20_INT1InterruptCmd
 918 003e 00BF     		.section	.text.L3GD20_INT1InterruptConfig,"ax",%progbits
 919              		.align	2
 920              		.p2align 4,,15
 921              		.global	L3GD20_INT1InterruptConfig
 922              		.thumb
 923              		.thumb_func
 924              		.type	L3GD20_INT1InterruptConfig, %function
 925              	L3GD20_INT1InterruptConfig:
 926              	.LFB122:
 927              		.loc 1 202 0
 928              		.cfi_startproc
 929              		@ args = 0, pretend = 0, frame = 8
 930              		@ frame_needed = 0, uses_anonymous_args = 0
 931              	.LVL96:
 932 0000 F0B5     		push	{r4, r5, r6, r7, lr}
 933              	.LCFI16:
 934              		.cfi_def_cfa_offset 20
 935              		.cfi_offset 4, -20
 936              		.cfi_offset 5, -16
 937              		.cfi_offset 6, -12
 938              		.cfi_offset 7, -8
 939              		.cfi_offset 14, -4
 940 0002 83B0     		sub	sp, sp, #12
 941              	.LCFI17:
 942              		.cfi_def_cfa_offset 32
 943              		.loc 1 203 0
 944 0004 0023     		movs	r3, #0
 945              		.loc 1 202 0
 946 0006 0446     		mov	r4, r0
 947              		.loc 1 206 0
 948 0008 3026     		movs	r6, #48
 949              		.loc 1 208 0
 950 000a 0DF10500 		add	r0, sp, #5
 951              	.LVL97:
 952 000e 0DF10701 		add	r1, sp, #7
 953 0012 0122     		movs	r2, #1
 954              		.loc 1 203 0
 955 0014 8DF80530 		strb	r3, [sp, #5]
 956              	.LVL98:
 957 0018 8DF80630 		strb	r3, [sp, #6]
 958              	.LVL99:
 959              		.loc 1 210 0
 960 001c 2225     		movs	r5, #34
 961              		.loc 1 206 0
 962 001e 8DF80760 		strb	r6, [sp, #7]
 963              	.LVL100:
 964              		.loc 1 208 0
 965 0022 FFF7FEFF 		bl	L3GD20_Read
ARM GAS  C:\cygwin\tmp\ccJR7lIV.s 			page 18


 966              	.LVL101:
 967              		.loc 1 212 0
 968 0026 0DF10600 		add	r0, sp, #6
 969 002a 0DF10701 		add	r1, sp, #7
 970 002e 0122     		movs	r2, #1
 971              		.loc 1 210 0
 972 0030 8DF80750 		strb	r5, [sp, #7]
 973              		.loc 1 212 0
 974 0034 FFF7FEFF 		bl	L3GD20_Read
 975              	.LVL102:
 976              		.loc 1 216 0
 977 0038 9DF80630 		ldrb	r3, [sp, #6]	@ zero_extendqisi2
 978              	.LVL103:
 979              		.loc 1 214 0
 980 003c 9DF80510 		ldrb	r1, [sp, #5]	@ zero_extendqisi2
 981              	.LVL104:
 982              		.loc 1 219 0
 983 0040 6778     		ldrb	r7, [r4, #1]	@ zero_extendqisi2
 984 0042 2078     		ldrb	r0, [r4, #0]	@ zero_extendqisi2
 985              		.loc 1 222 0
 986 0044 A278     		ldrb	r2, [r4, #2]	@ zero_extendqisi2
 987              		.loc 1 225 0
 988 0046 8DF80760 		strb	r6, [sp, #7]
 989              		.loc 1 219 0
 990 004a 47EA0004 		orr	r4, r7, r0
 991              	.LVL105:
 992              		.loc 1 214 0
 993 004e 21F07F01 		bic	r1, r1, #127
 994              	.LVL106:
 995              		.loc 1 216 0
 996 0052 03F0DF03 		and	r3, r3, #223
 997              	.LVL107:
 998              		.loc 1 222 0
 999 0056 1343     		orrs	r3, r3, r2
 1000              	.LVL108:
 1001              		.loc 1 219 0
 1002 0058 0C43     		orrs	r4, r4, r1
 1003              		.loc 1 226 0
 1004 005a 0DF10500 		add	r0, sp, #5
 1005 005e 0DF10701 		add	r1, sp, #7
 1006 0062 0122     		movs	r2, #1
 1007              		.loc 1 219 0
 1008 0064 8DF80540 		strb	r4, [sp, #5]
 1009              	.LVL109:
 1010              		.loc 1 222 0
 1011 0068 8DF80630 		strb	r3, [sp, #6]
 1012              	.LVL110:
 1013              		.loc 1 226 0
 1014 006c FFF7FEFF 		bl	L3GD20_Write
 1015              	.LVL111:
 1016              		.loc 1 230 0
 1017 0070 0DF10600 		add	r0, sp, #6
 1018 0074 0DF10701 		add	r1, sp, #7
 1019 0078 0122     		movs	r2, #1
 1020              		.loc 1 229 0
 1021 007a 8DF80750 		strb	r5, [sp, #7]
 1022              		.loc 1 230 0
ARM GAS  C:\cygwin\tmp\ccJR7lIV.s 			page 19


 1023 007e FFF7FEFF 		bl	L3GD20_Write
 1024              	.LVL112:
 1025              		.loc 1 231 0
 1026 0082 03B0     		add	sp, sp, #12
 1027 0084 F0BD     		pop	{r4, r5, r6, r7, pc}
 1028              		.cfi_endproc
 1029              	.LFE122:
 1030              		.size	L3GD20_INT1InterruptConfig, .-L3GD20_INT1InterruptConfig
 1031 0086 00BFAFF3 		.section	.text.L3GD20_RebootCmd,"ax",%progbits
 1031      0080AFF3 
 1031      0080
 1032              		.align	2
 1033              		.p2align 4,,15
 1034              		.global	L3GD20_RebootCmd
 1035              		.thumb
 1036              		.thumb_func
 1037              		.type	L3GD20_RebootCmd, %function
 1038              	L3GD20_RebootCmd:
 1039              	.LFB121:
 1040              		.loc 1 177 0
 1041              		.cfi_startproc
 1042              		@ args = 0, pretend = 0, frame = 8
 1043              		@ frame_needed = 0, uses_anonymous_args = 0
 1044 0000 10B5     		push	{r4, lr}
 1045              	.LCFI18:
 1046              		.cfi_def_cfa_offset 8
 1047              		.cfi_offset 4, -8
 1048              		.cfi_offset 14, -4
 1049 0002 82B0     		sub	sp, sp, #8
 1050              	.LCFI19:
 1051              		.cfi_def_cfa_offset 16
 1052              		.loc 1 180 0
 1053 0004 2424     		movs	r4, #36
 1054              		.loc 1 183 0
 1055 0006 0DF10600 		add	r0, sp, #6
 1056 000a 0DF10701 		add	r1, sp, #7
 1057 000e 0122     		movs	r2, #1
 1058              		.loc 1 180 0
 1059 0010 8DF80740 		strb	r4, [sp, #7]
 1060              	.LVL113:
 1061              		.loc 1 183 0
 1062 0014 FFF7FEFF 		bl	L3GD20_Read
 1063              	.LVL114:
 1064              		.loc 1 187 0
 1065 0018 9DF80630 		ldrb	r3, [sp, #6]	@ zero_extendqisi2
 1066              	.LVL115:
 1067              		.loc 1 189 0
 1068 001c 8DF80740 		strb	r4, [sp, #7]
 1069              		.loc 1 187 0
 1070 0020 63F07F03 		orn	r3, r3, #127
 1071              	.LVL116:
 1072              		.loc 1 191 0
 1073 0024 0DF10600 		add	r0, sp, #6
 1074 0028 0DF10701 		add	r1, sp, #7
 1075 002c 0122     		movs	r2, #1
 1076              		.loc 1 187 0
 1077 002e 8DF80630 		strb	r3, [sp, #6]
ARM GAS  C:\cygwin\tmp\ccJR7lIV.s 			page 20


 1078              	.LVL117:
 1079              		.loc 1 191 0
 1080 0032 FFF7FEFF 		bl	L3GD20_Write
 1081              	.LVL118:
 1082              		.loc 1 192 0
 1083 0036 02B0     		add	sp, sp, #8
 1084 0038 10BD     		pop	{r4, pc}
 1085              		.cfi_endproc
 1086              	.LFE121:
 1087              		.size	L3GD20_RebootCmd, .-L3GD20_RebootCmd
 1088 003a 00BFAFF3 		.section	.text.L3GD20_Init,"ax",%progbits
 1088      0080
 1089              		.align	2
 1090              		.p2align 4,,15
 1091              		.global	L3GD20_Init
 1092              		.thumb
 1093              		.thumb_func
 1094              		.type	L3GD20_Init, %function
 1095              	L3GD20_Init:
 1096              	.LFB134:
 1097              		.loc 1 658 0
 1098              		.cfi_startproc
 1099              		@ args = 0, pretend = 0, frame = 24
 1100              		@ frame_needed = 0, uses_anonymous_args = 0
 1101              	.LVL119:
 1102 0000 F0B5     		push	{r4, r5, r6, r7, lr}
 1103              	.LCFI20:
 1104              		.cfi_def_cfa_offset 20
 1105              		.cfi_offset 4, -20
 1106              		.cfi_offset 5, -16
 1107              		.cfi_offset 6, -12
 1108              		.cfi_offset 7, -8
 1109              		.cfi_offset 14, -4
 1110              	.LBB18:
 1111              	.LBB19:
 1112              		.loc 1 566 0
 1113 0002 4FF48054 		mov	r4, #4096
 1114 0006 C4F20204 		movt	r4, 16386
 1115              	.LBE19:
 1116              	.LBE18:
 1117              		.loc 1 658 0
 1118 000a 87B0     		sub	sp, sp, #28
 1119              	.LCFI21:
 1120              		.cfi_def_cfa_offset 48
 1121              	.LBB38:
 1122              	.LBB36:
 1123              		.loc 1 566 0
 1124 000c A369     		ldr	r3, [r4, #24]
 1125 000e 43F48053 		orr	r3, r3, #4096
 1126 0012 A361     		str	r3, [r4, #24]
 1127              		.loc 1 567 0
 1128 0014 6369     		ldr	r3, [r4, #20]
 1129 0016 43F00703 		orr	r3, r3, #7
 1130 001a 6361     		str	r3, [r4, #20]
 1131              		.loc 1 568 0
 1132 001c 6369     		ldr	r3, [r4, #20]
 1133 001e 43F40013 		orr	r3, r3, #2097152
ARM GAS  C:\cygwin\tmp\ccJR7lIV.s 			page 21


 1134 0022 6361     		str	r3, [r4, #20]
 1135              		.loc 1 569 0
 1136 0024 6369     		ldr	r3, [r4, #20]
 1137 0026 43F40013 		orr	r3, r3, #2097152
 1138 002a 6361     		str	r3, [r4, #20]
 1139              		.loc 1 570 0
 1140 002c 6369     		ldr	r3, [r4, #20]
 1141 002e 43F40013 		orr	r3, r3, #2097152
 1142 0032 6361     		str	r3, [r4, #20]
 1143              	.LBE36:
 1144              	.LBE38:
 1145              		.loc 1 658 0
 1146 0034 0F46     		mov	r7, r1
 1147 0036 0546     		mov	r5, r0
 1148              	.LVL120:
 1149              	.LBB39:
 1150              	.LBB37:
 1151              		.loc 1 572 0
 1152 0038 0521     		movs	r1, #5
 1153              	.LVL121:
 1154 003a 4FF09040 		mov	r0, #1207959552
 1155              	.LVL122:
 1156 003e 4FF42072 		mov	r2, #640
 1157 0042 FFF7FEFF 		bl	_pal_lld_setgroupmode
 1158              	.LVL123:
 1159              		.loc 1 573 0
 1160 0046 0521     		movs	r1, #5
 1161 0048 4FF09040 		mov	r0, #1207959552
 1162 004c 4FF44072 		mov	r2, #768
 1163 0050 FFF7FEFF 		bl	_pal_lld_setgroupmode
 1164              	.LVL124:
 1165              		.loc 1 574 0
 1166 0054 0521     		movs	r1, #5
 1167 0056 4FF09040 		mov	r0, #1207959552
 1168 005a 4FF46072 		mov	r2, #896
 1169 005e FFF7FEFF 		bl	_pal_lld_setgroupmode
 1170              	.LVL125:
 1171              		.loc 1 576 0
 1172 0062 0521     		movs	r1, #5
 1173 0064 0422     		movs	r2, #4
 1174 0066 4FF09040 		mov	r0, #1207959552
 1175 006a FFF7FEFF 		bl	_pal_lld_setgroupmode
 1176              	.LVL126:
 1177              		.loc 1 577 0
 1178 006e 0521     		movs	r1, #5
 1179 0070 0022     		movs	r2, #0
 1180 0072 4FF09040 		mov	r0, #1207959552
 1181 0076 FFF7FEFF 		bl	_pal_lld_setgroupmode
 1182              	.LVL127:
 1183              		.loc 1 578 0
 1184 007a 0521     		movs	r1, #5
 1185 007c 0022     		movs	r2, #0
 1186 007e 4FF09040 		mov	r0, #1207959552
 1187 0082 FFF7FEFF 		bl	_pal_lld_setgroupmode
 1188              	.LVL128:
 1189              		.loc 1 579 0
 1190 0086 0521     		movs	r1, #5
ARM GAS  C:\cygwin\tmp\ccJR7lIV.s 			page 22


 1191 0088 1822     		movs	r2, #24
 1192 008a 4FF09040 		mov	r0, #1207959552
 1193 008e FFF7FEFF 		bl	_pal_lld_setgroupmode
 1194              	.LVL129:
 1195              		.loc 1 581 0
 1196 0092 4FF09043 		mov	r3, #1207959552
 1197 0096 4FF40012 		mov	r2, #2097152
 1198 009a 9A61     		str	r2, [r3, #24]
 1199              		.loc 1 582 0
 1200 009c 4FF40002 		mov	r2, #8388608
 1201 00a0 9A61     		str	r2, [r3, #24]
 1202              		.loc 1 583 0
 1203 00a2 4FF48002 		mov	r2, #4194304
 1204 00a6 9A61     		str	r2, [r3, #24]
 1205              		.loc 1 589 0
 1206 00a8 A369     		ldr	r3, [r4, #24]
 1207              		.loc 1 597 0
 1208 00aa EE69     		ldr	r6, [r5, #28]
 1209              	.LVL130:
 1210              		.loc 1 589 0
 1211 00ac 43F48053 		orr	r3, r3, #4096
 1212 00b0 A361     		str	r3, [r4, #24]
 1213              		.loc 1 590 0
 1214 00b2 A369     		ldr	r3, [r4, #24]
 1215 00b4 43F48053 		orr	r3, r3, #4096
 1216 00b8 A361     		str	r3, [r4, #24]
 1217              		.loc 1 593 0
 1218 00ba 0323     		movs	r3, #3
 1219 00bc 3B81     		strh	r3, [r7, #8]	@ movhi
 1220              	.LBB20:
 1221              	.LBB21:
 1222              		.loc 1 516 0
 1223 00be 4FF4E063 		mov	r3, #1792
 1224 00c2 ADF80830 		strh	r3, [sp, #8]	@ movhi
 1225              		.loc 1 519 0
 1226 00c6 4FF40073 		mov	r3, #512
 1227 00ca ADF80E30 		strh	r3, [sp, #14]	@ movhi
 1228              	.LBE21:
 1229              	.LBE20:
 1230              		.loc 1 592 0
 1231 00ce 4FF48055 		mov	r5, #4096
 1232              	.LVL131:
 1233              	.LBB32:
 1234              	.LBB28:
 1235              		.loc 1 520 0
 1236 00d2 1023     		movs	r3, #16
 1237              	.LBE28:
 1238              	.LBE32:
 1239              		.loc 1 592 0
 1240 00d4 C4F60005 		movt	r5, 18432
 1241              	.LBB33:
 1242              	.LBB29:
 1243              		.loc 1 520 0
 1244 00d8 ADF81030 		strh	r3, [sp, #16]	@ movhi
 1245              		.loc 1 522 0
 1246 00dc 0723     		movs	r3, #7
 1247              		.loc 1 515 0
ARM GAS  C:\cygwin\tmp\ccJR7lIV.s 			page 23


 1248 00de 0024     		movs	r4, #0
 1249              		.loc 1 525 0
 1250 00e0 3046     		mov	r0, r6
 1251 00e2 01A9     		add	r1, sp, #4
 1252 00e4 3A46     		mov	r2, r7
 1253              		.loc 1 522 0
 1254 00e6 ADF81430 		strh	r3, [sp, #20]	@ movhi
 1255              	.LBE29:
 1256              	.LBE33:
 1257              		.loc 1 592 0
 1258 00ea 7D60     		str	r5, [r7, #4]
 1259              	.LBB34:
 1260              	.LBB30:
 1261              		.loc 1 523 0
 1262 00ec 4FF48273 		mov	r3, #260
 1263 00f0 ADF80630 		strh	r3, [sp, #6]	@ movhi
 1264              		.loc 1 515 0
 1265 00f4 ADF80440 		strh	r4, [sp, #4]	@ movhi
 1266              		.loc 1 517 0
 1267 00f8 ADF80A40 		strh	r4, [sp, #10]	@ movhi
 1268              		.loc 1 518 0
 1269 00fc ADF80C40 		strh	r4, [sp, #12]	@ movhi
 1270              		.loc 1 521 0
 1271 0100 ADF81240 		strh	r4, [sp, #18]	@ movhi
 1272              		.loc 1 525 0
 1273 0104 FFF7FEFF 		bl	SPI_Init_A
 1274              	.LVL132:
 1275              		.loc 1 535 0
 1276 0108 B388     		ldrh	r3, [r6, #4]
 1277 010a 23F48053 		bic	r3, r3, #4096
 1278 010e 1B04     		lsls	r3, r3, #16
 1279 0110 1B0C     		lsrs	r3, r3, #16
 1280 0112 B380     		strh	r3, [r6, #4]	@ movhi
 1281              		.loc 1 537 0
 1282 0114 B388     		ldrh	r3, [r6, #4]
 1283 0116 9BB2     		uxth	r3, r3
 1284 0118 43F48053 		orr	r3, r3, #4096
 1285 011c B380     		strh	r3, [r6, #4]	@ movhi
 1286              		.loc 1 538 0
 1287 011e B288     		ldrh	r2, [r6, #4]
 1288              	.LBB22:
 1289              	.LBB23:
 1290              		.loc 1 130 0
 1291 0120 3388     		ldrh	r3, [r6, #0]
 1292              	.LBE23:
 1293              	.LBE22:
 1294              		.loc 1 538 0
 1295 0122 BA81     		strh	r2, [r7, #12]	@ movhi
 1296              	.LVL133:
 1297              	.LBB26:
 1298              	.LBB24:
 1299              		.loc 1 130 0
 1300 0124 9BB2     		uxth	r3, r3
 1301 0126 43F04003 		orr	r3, r3, #64
 1302 012a 3380     		strh	r3, [r6, #0]	@ movhi
 1303              		.loc 1 138 0
 1304 012c 3388     		ldrh	r3, [r6, #0]
ARM GAS  C:\cygwin\tmp\ccJR7lIV.s 			page 24


 1305              	.LBE24:
 1306              	.LBE26:
 1307              	.LBE30:
 1308              	.LBE34:
 1309              		.loc 1 599 0
 1310 012e 0521     		movs	r1, #5
 1311              	.LBB35:
 1312              	.LBB31:
 1313              	.LBB27:
 1314              	.LBB25:
 1315              		.loc 1 138 0
 1316 0130 7B81     		strh	r3, [r7, #10]	@ movhi
 1317              	.LBE25:
 1318              	.LBE27:
 1319              	.LBE31:
 1320              	.LBE35:
 1321              		.loc 1 599 0
 1322 0132 0222     		movs	r2, #2
 1323 0134 2846     		mov	r0, r5
 1324 0136 FFF7FEFF 		bl	_pal_lld_setgroupmode
 1325              	.LVL134:
 1326              		.loc 1 600 0
 1327 013a 0521     		movs	r1, #5
 1328 013c 2846     		mov	r0, r5
 1329 013e 2246     		mov	r2, r4
 1330 0140 FFF7FEFF 		bl	_pal_lld_setgroupmode
 1331              	.LVL135:
 1332              		.loc 1 601 0
 1333 0144 1822     		movs	r2, #24
 1334 0146 2846     		mov	r0, r5
 1335 0148 0521     		movs	r1, #5
 1336 014a FFF7FEFF 		bl	_pal_lld_setgroupmode
 1337              	.LVL136:
 1338              		.loc 1 603 0
 1339 014e 4FF40023 		mov	r3, #524288
 1340              		.loc 1 606 0
 1341 0152 0521     		movs	r1, #5
 1342              		.loc 1 603 0
 1343 0154 AB61     		str	r3, [r5, #24]
 1344              		.loc 1 604 0
 1345 0156 0823     		movs	r3, #8
 1346 0158 2B83     		strh	r3, [r5, #24]	@ movhi
 1347              		.loc 1 606 0
 1348 015a 0122     		movs	r2, #1
 1349 015c 2846     		mov	r0, r5
 1350 015e FFF7FEFF 		bl	_pal_lld_setgroupmode
 1351              	.LVL137:
 1352              		.loc 1 607 0
 1353 0162 2846     		mov	r0, r5
 1354 0164 0521     		movs	r1, #5
 1355 0166 2246     		mov	r2, r4
 1356 0168 FFF7FEFF 		bl	_pal_lld_setgroupmode
 1357              	.LVL138:
 1358              		.loc 1 608 0
 1359 016c 2846     		mov	r0, r5
 1360 016e 0521     		movs	r1, #5
 1361 0170 1822     		movs	r2, #24
ARM GAS  C:\cygwin\tmp\ccJR7lIV.s 			page 25


 1362 0172 FFF7FEFF 		bl	_pal_lld_setgroupmode
 1363              	.LVL139:
 1364              		.loc 1 609 0
 1365 0176 2846     		mov	r0, r5
 1366 0178 0521     		movs	r1, #5
 1367 017a 2246     		mov	r2, r4
 1368 017c FFF7FEFF 		bl	_pal_lld_setgroupmode
 1369              	.LVL140:
 1370              		.loc 1 611 0
 1371 0180 0123     		movs	r3, #1
 1372 0182 AB61     		str	r3, [r5, #24]
 1373              		.loc 1 612 0
 1374 0184 4FF40033 		mov	r3, #131072
 1375 0188 AB61     		str	r3, [r5, #24]
 1376              	.LBE37:
 1377              	.LBE39:
 1378              		.loc 1 663 0
 1379 018a 07B0     		add	sp, sp, #28
 1380 018c F0BD     		pop	{r4, r5, r6, r7, pc}
 1381              		.cfi_endproc
 1382              	.LFE134:
 1383              		.size	L3GD20_Init, .-L3GD20_Init
 1384 018e 00BF     		.section	.text.L3GD20_Init_Setting,"ax",%progbits
 1385              		.align	2
 1386              		.p2align 4,,15
 1387              		.global	L3GD20_Init_Setting
 1388              		.thumb
 1389              		.thumb_func
 1390              		.type	L3GD20_Init_Setting, %function
 1391              	L3GD20_Init_Setting:
 1392              	.LFB135:
 1393              		.loc 1 666 0
 1394              		.cfi_startproc
 1395              		@ args = 0, pretend = 0, frame = 8
 1396              		@ frame_needed = 0, uses_anonymous_args = 0
 1397              	.LVL141:
 1398 0000 F0B5     		push	{r4, r5, r6, r7, lr}
 1399              	.LCFI22:
 1400              		.cfi_def_cfa_offset 20
 1401              		.cfi_offset 4, -20
 1402              		.cfi_offset 5, -16
 1403              		.cfi_offset 6, -12
 1404              		.cfi_offset 7, -8
 1405              		.cfi_offset 14, -4
 1406              		.loc 1 672 0
 1407 0002 0578     		ldrb	r5, [r0, #0]	@ zero_extendqisi2
 1408 0004 90F801E0 		ldrb	lr, [r0, #1]	@ zero_extendqisi2
 1409              		.loc 1 675 0
 1410 0008 4679     		ldrb	r6, [r0, #5]	@ zero_extendqisi2
 1411 000a 0379     		ldrb	r3, [r0, #4]	@ zero_extendqisi2
 1412              		.loc 1 672 0
 1413 000c 8778     		ldrb	r7, [r0, #2]	@ zero_extendqisi2
 1414              		.loc 1 675 0
 1415 000e 8279     		ldrb	r2, [r0, #6]	@ zero_extendqisi2
 1416              		.loc 1 672 0
 1417 0010 C178     		ldrb	r1, [r0, #3]	@ zero_extendqisi2
 1418              		.loc 1 666 0
ARM GAS  C:\cygwin\tmp\ccJR7lIV.s 			page 26


 1419 0012 83B0     		sub	sp, sp, #12
 1420              	.LCFI23:
 1421              		.cfi_def_cfa_offset 32
 1422              		.loc 1 672 0
 1423 0014 4EEA0505 		orr	r5, lr, r5
 1424              		.loc 1 675 0
 1425 0018 3343     		orrs	r3, r3, r6
 1426              		.loc 1 679 0
 1427 001a 40F20004 		movw	r4, #:lower16:.LANCHOR2
 1428 001e C0F20004 		movt	r4, #:upper16:.LANCHOR2
 1429              		.loc 1 675 0
 1430 0022 1343     		orrs	r3, r3, r2
 1431              		.loc 1 672 0
 1432 0024 3D43     		orrs	r5, r5, r7
 1433 0026 0D43     		orrs	r5, r5, r1
 1434              		.loc 1 679 0
 1435 0028 0DF10600 		add	r0, sp, #6
 1436              	.LVL142:
 1437 002c 2146     		mov	r1, r4
 1438 002e 0122     		movs	r2, #1
 1439              		.loc 1 675 0
 1440 0030 8DF80730 		strb	r3, [sp, #7]
 1441              	.LVL143:
 1442              		.loc 1 679 0
 1443 0034 2023     		movs	r3, #32
 1444 0036 2370     		strb	r3, [r4, #0]
 1445              		.loc 1 672 0
 1446 0038 8DF80650 		strb	r5, [sp, #6]
 1447              	.LVL144:
 1448              		.loc 1 679 0
 1449 003c FFF7FEFF 		bl	L3GD20_Write
 1450              	.LVL145:
 1451              		.loc 1 682 0
 1452 0040 2323     		movs	r3, #35
 1453 0042 0DF10700 		add	r0, sp, #7
 1454 0046 2146     		mov	r1, r4
 1455 0048 0122     		movs	r2, #1
 1456 004a 2370     		strb	r3, [r4, #0]
 1457 004c FFF7FEFF 		bl	L3GD20_Write
 1458              	.LVL146:
 1459              		.loc 1 683 0
 1460 0050 03B0     		add	sp, sp, #12
 1461 0052 F0BD     		pop	{r4, r5, r6, r7, pc}
 1462              		.cfi_endproc
 1463              	.LFE135:
 1464              		.size	L3GD20_Init_Setting, .-L3GD20_Init_Setting
 1465 0054 AFF30080 		.section	.text.L3GD20_TIMEOUT_UserCallback,"ax",%progbits
 1465      AFF30080 
 1465      AFF30080 
 1466              		.align	2
 1467              		.p2align 4,,15
 1468              		.global	L3GD20_TIMEOUT_UserCallback
 1469              		.thumb
 1470              		.thumb_func
 1471              		.type	L3GD20_TIMEOUT_UserCallback, %function
 1472              	L3GD20_TIMEOUT_UserCallback:
 1473              	.LFB136:
ARM GAS  C:\cygwin\tmp\ccJR7lIV.s 			page 27


 1474              		.loc 1 691 0
 1475              		.cfi_startproc
 1476              		@ Volatile: function does not return.
 1477              		@ args = 0, pretend = 0, frame = 0
 1478              		@ frame_needed = 0, uses_anonymous_args = 0
 1479              		@ link register save eliminated.
 1480              	.L45:
 1481 0000 FEE7     		b	.L45
 1482              		.cfi_endproc
 1483              	.LFE136:
 1484              		.size	L3GD20_TIMEOUT_UserCallback, .-L3GD20_TIMEOUT_UserCallback
 1485              		.global	L3GD20Timeout
 1486              		.global	gSPI_Init
 1487              		.global	gSPI_TypeDef
 1488 0002 00BFAFF3 		.section	.bss.gSPI_TypeDef,"aw",%nobits
 1488      0080AFF3 
 1488      0080AFF3 
 1488      0080
 1489              		.align	2
 1490              		.type	gSPI_TypeDef, %object
 1491              		.size	gSPI_TypeDef, 36
 1492              	gSPI_TypeDef:
 1493 0000 00000000 		.space	36
 1493      00000000 
 1493      00000000 
 1493      00000000 
 1493      00000000 
 1494              		.section	.data.L3GD20Timeout,"aw",%progbits
 1495              		.align	2
 1496              		.set	.LANCHOR0,. + 0
 1497              		.type	L3GD20Timeout, %object
 1498              		.size	L3GD20Timeout, 4
 1499              	L3GD20Timeout:
 1500 0000 00100000 		.word	4096
 1501              		.section	.bss.ctrl_reg.6656,"aw",%nobits
 1502              		.set	.LANCHOR2,. + 0
 1503              		.type	ctrl_reg.6656, %object
 1504              		.size	ctrl_reg.6656, 1
 1505              	ctrl_reg.6656:
 1506 0000 00       		.space	1
 1507              		.section	.data.gSPI_Init,"aw",%progbits
 1508              		.align	2
 1509              		.set	.LANCHOR1,. + 0
 1510              		.type	gSPI_Init, %object
 1511              		.size	gSPI_Init, 18
 1512              	gSPI_Init:
 1513 0000 0000     		.short	0
 1514 0002 0007     		.short	1792
 1515 0004 0000     		.short	0
 1516 0006 0000     		.short	0
 1517 0008 0002     		.short	512
 1518 000a 1000     		.short	16
 1519 000c 0000     		.short	0
 1520 000e 0700     		.short	7
 1521 0010 0401     		.short	260
 1522 0012 0000     		.text
 1523              	.Letext0:
ARM GAS  C:\cygwin\tmp\ccJR7lIV.s 			page 28


 1524              		.file 2 "c:\\develop\\genist\\chibistudio\\tools\\yagarto-tools\\yagarto-20121222\\bin\\../lib/gcc
 1525              		.file 3 "c:/develop/genist/chibistudio/tools/yagarto-tools/yagarto-20121222/lib/gcc/../../arm-none
 1526              		.file 4 "../../../os/ports/GCC/ARMCMx/chtypes.h"
 1527              		.file 5 "../../../os/kernel/include/chlists.h"
 1528              		.file 6 "../../../os/kernel/include/chthreads.h"
 1529              		.file 7 "../../../os/ports/GCC/ARMCMx/chcore_v7m.h"
 1530              		.file 8 "../../../os/kernel/include/chmtx.h"
 1531              		.file 9 "../../../os/hal/platforms/STM32F30x/stm32f30x.h"
 1532              		.file 10 "../../../os/hal/platforms/STM32F30x/stm32_dma.h"
 1533              		.file 11 "../../../os/hal/platforms/STM32/GPIOv2/pal_lld.h"
 1534              		.file 12 "../../../os/hal/include/spi.h"
 1535              		.file 13 "../../../os/hal/platforms/STM32/SPIv2/spi_lld.h"
 1536              		.file 14 "../../../Testhal_wrk/STM32F30x/Gyro/stm32f3_discovery_l3gd20.h"
 1537              		.file 15 "../../../Testhal_wrk/STM32F30x/Gyro/l3gdcomp.h"
 1538              		.file 16 "../../../os/ports/common/ARMCMx/CMSIS/include/core_cm4.h"