ARM GAS  C:\cygwin\tmp\cczUkFSk.s 			page 1


   1              		.syntax unified
   2              		.cpu cortex-m4
   3              		.fpu softvfp
   4              		.eabi_attribute 20, 1
   5              		.eabi_attribute 21, 1
   6              		.eabi_attribute 23, 3
   7              		.eabi_attribute 24, 1
   8              		.eabi_attribute 25, 1
   9              		.eabi_attribute 26, 1
  10              		.eabi_attribute 30, 2
  11              		.eabi_attribute 34, 1
  12              		.eabi_attribute 18, 4
  13              		.thumb
  14              		.file	"main.c"
  15              		.text
  16              	.Ltext0:
  17              		.cfi_sections	.debug_frame
  18              		.section	.text.spi_thread_2,"ax",%progbits
  19              		.align	2
  20              		.p2align 4,,15
  21              		.thumb
  22              		.thumb_func
  23              		.type	spi_thread_2, %function
  24              	spi_thread_2:
  25              	.LFB123:
  26              		.file 1 "main.c"
  27              		.loc 1 259 0
  28              		.cfi_startproc
  29              		@ args = 0, pretend = 0, frame = 0
  30              		@ frame_needed = 0, uses_anonymous_args = 0
  31              	.LVL0:
  32 0000 08B5     		push	{r3, lr}
  33              	.LCFI0:
  34              		.cfi_def_cfa_offset 8
  35              		.cfi_offset 3, -8
  36              		.cfi_offset 14, -4
  37              		.loc 1 263 0
  38 0002 054B     		ldr	r3, .L4
  39 0004 054A     		ldr	r2, .L4+4
  40 0006 9B69     		ldr	r3, [r3, #24]
  41 0008 9A61     		str	r2, [r3, #24]
  42              	.LVL1:
  43              	.L2:
  44              		.loc 1 267 0 discriminator 1
  45 000a 0548     		ldr	r0, .L4+8
  46 000c FFF7FEFF 		bl	spiAcquireBus
  47              	.LVL2:
  48              		.loc 1 279 0 discriminator 1
  49 0010 0348     		ldr	r0, .L4+8
  50 0012 FFF7FEFF 		bl	spiReleaseBus
  51              	.LVL3:
  52 0016 F8E7     		b	.L2
  53              	.L5:
  54              		.align	2
  55              	.L4:
  56 0018 00000000 		.word	rlist
  57 001c 00000000 		.word	.LC0
ARM GAS  C:\cygwin\tmp\cczUkFSk.s 			page 2


  58 0020 00000000 		.word	SPID1
  59              		.cfi_endproc
  60              	.LFE123:
  61              		.size	spi_thread_2, .-spi_thread_2
  62 0024 AFF30080 		.section	.text.assert_check_led,"ax",%progbits
  62      AFF30080 
  62      AFF30080 
  63              		.align	2
  64              		.p2align 4,,15
  65              		.global	assert_check_led
  66              		.thumb
  67              		.thumb_func
  68              		.type	assert_check_led, %function
  69              	assert_check_led:
  70              	.LFB118:
  71              		.loc 1 59 0
  72              		.cfi_startproc
  73              		@ args = 0, pretend = 0, frame = 0
  74              		@ frame_needed = 0, uses_anonymous_args = 0
  75              		@ link register save eliminated.
  76              	.LVL4:
  77              		.loc 1 68 0
  78 0000 0120     		movs	r0, #1
  79 0002 7047     		bx	lr
  80              		.cfi_endproc
  81              	.LFE118:
  82              		.size	assert_check_led, .-assert_check_led
  83 0004 AFF30080 		.section	.text.searching_led_position,"ax",%progbits
  83      AFF30080 
  83      AFF30080 
  84              		.align	2
  85              		.p2align 4,,15
  86              		.global	searching_led_position
  87              		.thumb
  88              		.thumb_func
  89              		.type	searching_led_position, %function
  90              	searching_led_position:
  91              	.LFB119:
  92              		.loc 1 71 0
  93              		.cfi_startproc
  94              		@ args = 0, pretend = 0, frame = 0
  95              		@ frame_needed = 0, uses_anonymous_args = 0
  96              	.LVL5:
  97 0000 F8B5     		push	{r3, r4, r5, r6, r7, lr}
  98              	.LCFI1:
  99              		.cfi_def_cfa_offset 24
 100              		.cfi_offset 3, -24
 101              		.cfi_offset 4, -20
 102              		.cfi_offset 5, -16
 103              		.cfi_offset 6, -12
 104              		.cfi_offset 7, -8
 105              		.cfi_offset 14, -4
 106              		.loc 1 79 0
 107 0002 0E4D     		ldr	r5, .L9
 108              		.loc 1 77 0
 109 0004 0E4C     		ldr	r4, .L9+4
 110              		.loc 1 79 0
ARM GAS  C:\cygwin\tmp\cczUkFSk.s 			page 3


 111 0006 2B78     		ldrb	r3, [r5, #0]	@ zero_extendqisi2
 112              		.loc 1 77 0
 113 0008 2070     		strb	r0, [r4, #0]
 114              		.loc 1 79 0
 115 000a 9842     		cmp	r0, r3
 116 000c 15D0     		beq	.L7
 117              	.LVL6:
 118              		.loc 1 82 0
 119 000e 0127     		movs	r7, #1
 120 0010 4FF48056 		mov	r6, #4096
 121 0014 07FA03F3 		lsl	r3, r7, r3
 122 0018 C4F60006 		movt	r6, 18432
 123 001c 9BB2     		uxth	r3, r3
 124              		.loc 1 83 0
 125 001e 5020     		movs	r0, #80
 126              	.LVL7:
 127              		.loc 1 82 0
 128 0020 7383     		strh	r3, [r6, #26]	@ movhi
 129              		.loc 1 83 0
 130 0022 FFF7FEFF 		bl	chThdSleep
 131              	.LVL8:
 132              		.loc 1 85 0
 133 0026 2378     		ldrb	r3, [r4, #0]	@ zero_extendqisi2
 134 0028 07FA03F7 		lsl	r7, r7, r3
 135 002c BFB2     		uxth	r7, r7
 136 002e 3783     		strh	r7, [r6, #24]	@ movhi
 137              		.loc 1 86 0
 138 0030 5020     		movs	r0, #80
 139 0032 FFF7FEFF 		bl	chThdSleep
 140              	.LVL9:
 141              		.loc 1 87 0
 142 0036 2378     		ldrb	r3, [r4, #0]	@ zero_extendqisi2
 143 0038 2B70     		strb	r3, [r5, #0]
 144              	.LVL10:
 145              	.L7:
 146 003a F8BD     		pop	{r3, r4, r5, r6, r7, pc}
 147              	.L10:
 148              		.align	2
 149              	.L9:
 150 003c 00000000 		.word	.LANCHOR1
 151 0040 00000000 		.word	.LANCHOR0
 152              		.cfi_endproc
 153              	.LFE119:
 154              		.size	searching_led_position, .-searching_led_position
 155 0044 AFF30080 		.section	.text.checking_coord,"ax",%progbits
 155      AFF30080 
 155      AFF30080 
 156              		.align	2
 157              		.p2align 4,,15
 158              		.global	checking_coord
 159              		.thumb
 160              		.thumb_func
 161              		.type	checking_coord, %function
 162              	checking_coord:
 163              	.LFB120:
 164              		.loc 1 103 0
 165              		.cfi_startproc
ARM GAS  C:\cygwin\tmp\cczUkFSk.s 			page 4


 166              		@ args = 0, pretend = 0, frame = 0
 167              		@ frame_needed = 0, uses_anonymous_args = 0
 168              		@ link register save eliminated.
 169              		.loc 1 108 0
 170 0000 284B     		ldr	r3, .L28
 171 0002 1B88     		ldrh	r3, [r3, #0]
 172 0004 40F2FF72 		movw	r2, #2047
 173 0008 9342     		cmp	r3, r2
 174 000a 32D9     		bls	.L12
 175              		.loc 1 109 0
 176 000c 03F50061 		add	r1, r3, #2048
 177 0010 89B2     		uxth	r1, r1
 178 0012 9142     		cmp	r1, r2
 179 0014 2DD9     		bls	.L12
 180              		.loc 1 112 0
 181 0016 03F5C051 		add	r1, r3, #6144
 182 001a 89B2     		uxth	r1, r1
 183 001c 40F6FF72 		movw	r2, #4095
 184 0020 9142     		cmp	r1, r2
 185 0022 2CD9     		bls	.L22
 186              		.loc 1 115 0
 187 0024 03F52051 		add	r1, r3, #10240
 188 0028 89B2     		uxth	r1, r1
 189 002a 9142     		cmp	r1, r2
 190 002c 2AD9     		bls	.L23
 191              		.loc 1 118 0
 192 002e 03F56051 		add	r1, r3, #14336
 193 0032 89B2     		uxth	r1, r1
 194 0034 9142     		cmp	r1, r2
 195 0036 28D9     		bls	.L24
 196              		.loc 1 122 0
 197 0038 03F57F51 		add	r1, r3, #16320
 198 003c 3F31     		adds	r1, r1, #63
 199              		.loc 1 121 0
 200 003e 89B2     		uxth	r1, r1
 201 0040 40F2FE70 		movw	r0, #2046
 202 0044 8142     		cmp	r1, r0
 203 0046 17D9     		bls	.L17
 204              		.loc 1 124 0
 205 0048 A3F56051 		sub	r1, r3, #14336
 206              		.loc 1 123 0
 207 004c 89B2     		uxth	r1, r1
 208 004e 8142     		cmp	r1, r0
 209 0050 12D9     		bls	.L17
 210              		.loc 1 127 0
 211 0052 A3F52051 		sub	r1, r3, #10240
 212 0056 89B2     		uxth	r1, r1
 213 0058 9142     		cmp	r1, r2
 214 005a 1CD9     		bls	.L25
 215              		.loc 1 130 0
 216 005c A3F5C051 		sub	r1, r3, #6144
 217 0060 89B2     		uxth	r1, r1
 218 0062 9142     		cmp	r1, r2
 219 0064 1AD9     		bls	.L26
 220              		.loc 1 133 0
 221 0066 A3F50063 		sub	r3, r3, #2048
 222 006a 9BB2     		uxth	r3, r3
ARM GAS  C:\cygwin\tmp\cczUkFSk.s 			page 5


 223 006c 9342     		cmp	r3, r2
 224 006e 0FD9     		bls	.L27
 225 0070 7047     		bx	lr
 226              	.L12:
 227              		.loc 1 110 0
 228 0072 0920     		movs	r0, #9
 229              		.loc 1 137 0
 230              		.loc 1 110 0
 231 0074 FFF7FEBF 		b	searching_led_position
 232              	.LVL11:
 233              	.L17:
 234              		.loc 1 125 0
 235 0078 0D20     		movs	r0, #13
 236              		.loc 1 137 0
 237              		.loc 1 125 0
 238 007a FFF7FEBF 		b	searching_led_position
 239              	.LVL12:
 240              	.L22:
 241              		.loc 1 113 0
 242 007e 0A20     		movs	r0, #10
 243              		.loc 1 137 0
 244              		.loc 1 113 0
 245 0080 FFF7FEBF 		b	searching_led_position
 246              	.LVL13:
 247              	.L23:
 248              		.loc 1 116 0
 249 0084 0B20     		movs	r0, #11
 250              		.loc 1 137 0
 251              		.loc 1 116 0
 252 0086 FFF7FEBF 		b	searching_led_position
 253              	.LVL14:
 254              	.L24:
 255              		.loc 1 119 0
 256 008a 0C20     		movs	r0, #12
 257              		.loc 1 137 0
 258              		.loc 1 119 0
 259 008c FFF7FEBF 		b	searching_led_position
 260              	.LVL15:
 261              	.L27:
 262              		.loc 1 134 0
 263 0090 0820     		movs	r0, #8
 264              		.loc 1 137 0
 265              		.loc 1 134 0
 266 0092 FFF7FEBF 		b	searching_led_position
 267              	.LVL16:
 268              	.L25:
 269              		.loc 1 128 0
 270 0096 0E20     		movs	r0, #14
 271              		.loc 1 137 0
 272              		.loc 1 128 0
 273 0098 FFF7FEBF 		b	searching_led_position
 274              	.LVL17:
 275              	.L26:
 276              		.loc 1 131 0
 277 009c 0F20     		movs	r0, #15
 278              		.loc 1 137 0
 279              		.loc 1 131 0
ARM GAS  C:\cygwin\tmp\cczUkFSk.s 			page 6


 280 009e FFF7FEBF 		b	searching_led_position
 281              	.LVL18:
 282              	.L29:
 283 00a2 00BF     		.align	2
 284              	.L28:
 285 00a4 00000000 		.word	.LANCHOR2
 286              		.cfi_endproc
 287              	.LFE120:
 288              		.size	checking_coord, .-checking_coord
 289 00a8 AFF30080 		.section	.text._l3gd_register_setting,"ax",%progbits
 289      AFF30080 
 290              		.align	2
 291              		.p2align 4,,15
 292              		.global	_l3gd_register_setting
 293              		.thumb
 294              		.thumb_func
 295              		.type	_l3gd_register_setting, %function
 296              	_l3gd_register_setting:
 297              	.LFB121:
 298              		.loc 1 176 0
 299              		.cfi_startproc
 300              		@ args = 0, pretend = 0, frame = 8
 301              		@ frame_needed = 0, uses_anonymous_args = 0
 302              	.LVL19:
 303 0000 30B5     		push	{r4, r5, lr}
 304              	.LCFI2:
 305              		.cfi_def_cfa_offset 12
 306              		.cfi_offset 4, -12
 307              		.cfi_offset 5, -8
 308              		.cfi_offset 14, -4
 309              		.loc 1 179 0
 310 0002 A0F12003 		sub	r3, r0, #32
 311              		.loc 1 176 0
 312 0006 83B0     		sub	sp, sp, #12
 313              	.LCFI3:
 314              		.cfi_def_cfa_offset 24
 315              		.loc 1 179 0
 316 0008 DBB2     		uxtb	r3, r3
 317 000a 182B     		cmp	r3, #24
 318              		.loc 1 176 0
 319 000c 8DF80700 		strb	r0, [sp, #7]
 320              		.loc 1 179 0
 321 0010 07D8     		bhi	.L30
 322              	.LVL20:
 323              		.loc 1 184 0
 324 0012 44F23F02 		movw	r2, #16447
 325 0016 C0F2FD12 		movt	r2, 509
 326 001a 22FA03F2 		lsr	r2, r2, r3
 327 001e D207     		lsls	r2, r2, #31
 328 0020 01D4     		bmi	.L35
 329              	.LVL21:
 330              	.L30:
 331              		.loc 1 189 0
 332 0022 03B0     		add	sp, sp, #12
 333 0024 30BD     		pop	{r4, r5, pc}
 334              	.LVL22:
 335              	.L35:
ARM GAS  C:\cygwin\tmp\cczUkFSk.s 			page 7


 336              		.loc 1 186 0
 337 0026 064C     		ldr	r4, .L36
 338              		.loc 1 185 0
 339 0028 E55C     		ldrb	r5, [r4, r3]	@ zero_extendqisi2
 340 002a 25EA0105 		bic	r5, r5, r1
 341              		.loc 1 186 0
 342 002e 0D43     		orrs	r5, r5, r1
 343              		.loc 1 187 0
 344 0030 E018     		adds	r0, r4, r3
 345 0032 0DF10701 		add	r1, sp, #7
 346              	.LVL23:
 347 0036 0122     		movs	r2, #1
 348              		.loc 1 186 0
 349 0038 E554     		strb	r5, [r4, r3]
 350              		.loc 1 187 0
 351 003a FFF7FEFF 		bl	L3GD20_Write
 352              	.LVL24:
 353 003e F0E7     		b	.L30
 354              	.L37:
 355              		.align	2
 356              	.L36:
 357 0040 00000000 		.word	.LANCHOR3
 358              		.cfi_endproc
 359              	.LFE121:
 360              		.size	_l3gd_register_setting, .-_l3gd_register_setting
 361 0044 AFF30080 		.section	.text.spi_thread_1,"ax",%progbits
 361      AFF30080 
 361      AFF30080 
 362              		.align	2
 363              		.p2align 4,,15
 364              		.thumb
 365              		.thumb_func
 366              		.type	spi_thread_1, %function
 367              	spi_thread_1:
 368              	.LFB122:
 369              		.loc 1 192 0
 370              		.cfi_startproc
 371              		@ args = 0, pretend = 0, frame = 0
 372              		@ frame_needed = 0, uses_anonymous_args = 0
 373              	.LVL25:
 374 0000 2DE9F84F 		push	{r3, r4, r5, r6, r7, r8, r9, sl, fp, lr}
 375              	.LCFI4:
 376              		.cfi_def_cfa_offset 40
 377              		.cfi_offset 3, -40
 378              		.cfi_offset 4, -36
 379              		.cfi_offset 5, -32
 380              		.cfi_offset 6, -28
 381              		.cfi_offset 7, -24
 382              		.cfi_offset 8, -20
 383              		.cfi_offset 9, -16
 384              		.cfi_offset 10, -12
 385              		.cfi_offset 11, -8
 386              		.cfi_offset 14, -4
 387              		.loc 1 199 0
 388 0004 5A4B     		ldr	r3, .L40
 389 0006 5B4A     		ldr	r2, .L40+4
 390 0008 9B69     		ldr	r3, [r3, #24]
ARM GAS  C:\cygwin\tmp\cczUkFSk.s 			page 8


 391 000a 5B4C     		ldr	r4, .L40+8
 392 000c 5B4F     		ldr	r7, .L40+12
 393 000e 5C4E     		ldr	r6, .L40+16
 394 0010 9A61     		str	r2, [r3, #24]
 395              	.LVL26:
 396              	.L39:
 397              		.loc 1 202 0 discriminator 1
 398 0012 5C48     		ldr	r0, .L40+20
 399 0014 FFF7FEFF 		bl	spiAcquireBus
 400              	.LVL27:
 401              		.loc 1 211 0 discriminator 1
 402 0018 5B49     		ldr	r1, .L40+24
 403 001a 5A48     		ldr	r0, .L40+20
 404 001c FFF7FEFF 		bl	spiStart
 405              	.LVL28:
 406              		.loc 1 212 0 discriminator 1
 407 0020 5848     		ldr	r0, .L40+20
 408 0022 FFF7FEFF 		bl	spiSelect
 409              	.LVL29:
 410              		.loc 1 214 0 discriminator 1
 411 0026 2020     		movs	r0, #32
 412 0028 0821     		movs	r1, #8
 413 002a FFF7FEFF 		bl	_l3gd_register_setting
 414              	.LVL30:
 415              		.loc 1 215 0 discriminator 1
 416 002e 2320     		movs	r0, #35
 417 0030 0021     		movs	r1, #0
 418 0032 FFF7FEFF 		bl	_l3gd_register_setting
 419              	.LVL31:
 420              		.loc 1 216 0 discriminator 1
 421 0036 2E20     		movs	r0, #46
 422 0038 4021     		movs	r1, #64
 423 003a FFF7FEFF 		bl	_l3gd_register_setting
 424              	.LVL32:
 425              		.loc 1 218 0 discriminator 1
 426 003e 0F23     		movs	r3, #15
 427 0040 0122     		movs	r2, #1
 428 0042 5248     		ldr	r0, .L40+28
 429 0044 4C49     		ldr	r1, .L40+8
 430 0046 2370     		strb	r3, [r4, #0]
 431 0048 FFF7FEFF 		bl	L3GD20_Read
 432              	.LVL33:
 433              		.loc 1 219 0 discriminator 1
 434 004c 2823     		movs	r3, #40
 435 004e 0122     		movs	r2, #1
 436 0050 4F48     		ldr	r0, .L40+32
 437 0052 4949     		ldr	r1, .L40+8
 438 0054 2370     		strb	r3, [r4, #0]
 439 0056 FFF7FEFF 		bl	L3GD20_Read
 440              	.LVL34:
 441              		.loc 1 220 0 discriminator 1
 442 005a 2923     		movs	r3, #41
 443 005c 0122     		movs	r2, #1
 444 005e 4D48     		ldr	r0, .L40+36
 445 0060 4549     		ldr	r1, .L40+8
 446 0062 2370     		strb	r3, [r4, #0]
 447 0064 FFF7FEFF 		bl	L3GD20_Read
ARM GAS  C:\cygwin\tmp\cczUkFSk.s 			page 9


 448              	.LVL35:
 449              		.loc 1 221 0 discriminator 1
 450 0068 2A23     		movs	r3, #42
 451 006a 0122     		movs	r2, #1
 452 006c 4A48     		ldr	r0, .L40+40
 453 006e 4249     		ldr	r1, .L40+8
 454 0070 2370     		strb	r3, [r4, #0]
 455 0072 FFF7FEFF 		bl	L3GD20_Read
 456              	.LVL36:
 457              		.loc 1 222 0 discriminator 1
 458 0076 2B23     		movs	r3, #43
 459 0078 0122     		movs	r2, #1
 460 007a 4848     		ldr	r0, .L40+44
 461 007c 3E49     		ldr	r1, .L40+8
 462 007e 2370     		strb	r3, [r4, #0]
 463 0080 FFF7FEFF 		bl	L3GD20_Read
 464              	.LVL37:
 465              		.loc 1 223 0 discriminator 1
 466 0084 2C23     		movs	r3, #44
 467 0086 0122     		movs	r2, #1
 468 0088 4548     		ldr	r0, .L40+48
 469 008a 3B49     		ldr	r1, .L40+8
 470 008c 2370     		strb	r3, [r4, #0]
 471 008e FFF7FEFF 		bl	L3GD20_Read
 472              	.LVL38:
 473              		.loc 1 224 0 discriminator 1
 474 0092 2D23     		movs	r3, #45
 475 0094 3849     		ldr	r1, .L40+8
 476 0096 4348     		ldr	r0, .L40+52
 477 0098 2370     		strb	r3, [r4, #0]
 478 009a 0122     		movs	r2, #1
 479 009c FFF7FEFF 		bl	L3GD20_Read
 480              	.LVL39:
 481              		.loc 1 225 0 discriminator 1
 482 00a0 3848     		ldr	r0, .L40+20
 483 00a2 FFF7FEFF 		bl	spiUnselect
 484              	.LVL40:
 485              		.loc 1 237 0 discriminator 1
 486 00a6 40F20009 		movw	r9, #:lower16:.LANCHOR10
 487              		.loc 1 234 0 discriminator 1
 488 00aa 40F20001 		movw	r1, #:lower16:.LANCHOR8
 489 00ae C0F20001 		movt	r1, #:upper16:.LANCHOR8
 490              		.loc 1 237 0 discriminator 1
 491 00b2 C0F20009 		movt	r9, #:upper16:.LANCHOR10
 492              		.loc 1 240 0 discriminator 1
 493 00b6 40F2000C 		movw	ip, #:lower16:.LANCHOR11
 494              		.loc 1 234 0 discriminator 1
 495 00ba 0D78     		ldrb	r5, [r1, #0]	@ zero_extendqisi2
 496              		.loc 1 237 0 discriminator 1
 497 00bc 99F80010 		ldrb	r1, [r9, #0]	@ zero_extendqisi2
 498              		.loc 1 240 0 discriminator 1
 499 00c0 C0F2000C 		movt	ip, #:upper16:.LANCHOR11
 500              		.loc 1 234 0 discriminator 1
 501 00c4 40F20000 		movw	r0, #:lower16:.LANCHOR7
 502              		.loc 1 237 0 discriminator 1
 503 00c8 40F20003 		movw	r3, #:lower16:.LANCHOR9
 504              		.loc 1 240 0 discriminator 1
ARM GAS  C:\cygwin\tmp\cczUkFSk.s 			page 10


 505 00cc 40F20009 		movw	r9, #:lower16:.LANCHOR12
 506              		.loc 1 234 0 discriminator 1
 507 00d0 C0F20000 		movt	r0, #:upper16:.LANCHOR7
 508              		.loc 1 237 0 discriminator 1
 509 00d4 C0F20003 		movt	r3, #:upper16:.LANCHOR9
 510              		.loc 1 240 0 discriminator 1
 511 00d8 C0F20009 		movt	r9, #:upper16:.LANCHOR12
 512 00dc 9CF80020 		ldrb	r2, [ip, #0]	@ zero_extendqisi2
 513              		.loc 1 234 0 discriminator 1
 514 00e0 90F800E0 		ldrb	lr, [r0, #0]	@ zero_extendqisi2
 515              		.loc 1 237 0 discriminator 1
 516 00e4 1878     		ldrb	r0, [r3, #0]	@ zero_extendqisi2
 517              		.loc 1 240 0 discriminator 1
 518 00e6 99F80030 		ldrb	r3, [r9, #0]	@ zero_extendqisi2
 519              		.loc 1 234 0 discriminator 1
 520 00ea 40F2000C 		movw	ip, #:lower16:.LANCHOR13
 521 00ee C0F2000C 		movt	ip, #:upper16:.LANCHOR13
 522              		.loc 1 241 0 discriminator 1
 523 00f2 4FFA83F9 		sxtb	r9, r3
 524              		.loc 1 234 0 discriminator 1
 525 00f6 8CF800E0 		strb	lr, [ip, #0]
 526              		.loc 1 241 0 discriminator 1
 527 00fa 4FFA82FC 		sxtb	ip, r2
 528 00fe 4CEAC91C 		orr	ip, ip, r9, lsl #7
 529              		.loc 1 234 0 discriminator 1
 530 0102 40F20009 		movw	r9, #:lower16:.LANCHOR14
 531 0106 C0F20009 		movt	r9, #:upper16:.LANCHOR14
 532              		.loc 1 235 0 discriminator 1
 533 010a 4FFA85FB 		sxtb	fp, r5
 534              		.loc 1 234 0 discriminator 1
 535 010e 89F80050 		strb	r5, [r9, #0]
 536              		.loc 1 237 0 discriminator 1
 537 0112 40F20009 		movw	r9, #:lower16:.LANCHOR15
 538 0116 C0F20009 		movt	r9, #:upper16:.LANCHOR15
 539              		.loc 1 238 0 discriminator 1
 540 011a 4FFA80F8 		sxtb	r8, r0
 541              		.loc 1 237 0 discriminator 1
 542 011e 89F80000 		strb	r0, [r9, #0]
 543              		.loc 1 235 0 discriminator 1
 544 0122 40F20005 		movw	r5, #:lower16:.LANCHOR2
 545              		.loc 1 237 0 discriminator 1
 546 0126 40F20000 		movw	r0, #:lower16:.LANCHOR16
 547 012a C0F20000 		movt	r0, #:upper16:.LANCHOR16
 548              		.loc 1 235 0 discriminator 1
 549 012e C0F20005 		movt	r5, #:upper16:.LANCHOR2
 550 0132 4FFA8EFE 		sxtb	lr, lr
 551 0136 4EEACB1E 		orr	lr, lr, fp, lsl #7
 552 013a A5F800E0 		strh	lr, [r5, #0]	@ movhi
 553              		.loc 1 238 0 discriminator 1
 554 013e 4FFA81FA 		sxtb	sl, r1
 555              		.loc 1 237 0 discriminator 1
 556 0142 0170     		strb	r1, [r0, #0]
 557              		.loc 1 240 0 discriminator 1
 558 0144 40F20005 		movw	r5, #:lower16:.LANCHOR18
 559              		.loc 1 238 0 discriminator 1
 560 0148 40F20001 		movw	r1, #:lower16:.LANCHOR17
 561 014c C0F20001 		movt	r1, #:upper16:.LANCHOR17
ARM GAS  C:\cygwin\tmp\cczUkFSk.s 			page 11


 562              		.loc 1 240 0 discriminator 1
 563 0150 C0F20005 		movt	r5, #:upper16:.LANCHOR18
 564              		.loc 1 238 0 discriminator 1
 565 0154 48EACA18 		orr	r8, r8, sl, lsl #7
 566 0158 A1F80080 		strh	r8, [r1, #0]	@ movhi
 567              		.loc 1 240 0 discriminator 1
 568 015c 2A70     		strb	r2, [r5, #0]
 569 015e 3B70     		strb	r3, [r7, #0]
 570              		.loc 1 241 0 discriminator 1
 571 0160 A6F800C0 		strh	ip, [r6, #0]	@ movhi
 572              		.loc 1 243 0 discriminator 1
 573 0164 FFF7FEFF 		bl	checking_coord
 574              	.LVL41:
 575              		.loc 1 249 0 discriminator 1
 576 0168 0648     		ldr	r0, .L40+20
 577 016a FFF7FEFF 		bl	spiReleaseBus
 578              	.LVL42:
 579 016e 50E7     		b	.L39
 580              	.L41:
 581              		.align	2
 582              	.L40:
 583 0170 00000000 		.word	rlist
 584 0174 10000000 		.word	.LC1
 585 0178 00000000 		.word	.LANCHOR5
 586 017c 00000000 		.word	.LANCHOR19
 587 0180 00000000 		.word	.LANCHOR20
 588 0184 00000000 		.word	SPID1
 589 0188 00000000 		.word	.LANCHOR4
 590 018c 00000000 		.word	.LANCHOR6
 591 0190 00000000 		.word	.LANCHOR7
 592 0194 00000000 		.word	.LANCHOR8
 593 0198 00000000 		.word	.LANCHOR9
 594 019c 00000000 		.word	.LANCHOR10
 595 01a0 00000000 		.word	.LANCHOR11
 596 01a4 00000000 		.word	.LANCHOR12
 597              		.cfi_endproc
 598              	.LFE122:
 599              		.size	spi_thread_1, .-spi_thread_1
 600 01a8 AFF30080 		.section	.text.startup.main,"ax",%progbits
 600      AFF30080 
 601              		.align	2
 602              		.p2align 4,,15
 603              		.global	main
 604              		.thumb
 605              		.thumb_func
 606              		.type	main, %function
 607              	main:
 608              	.LFB124:
 609              		.loc 1 289 0
 610              		.cfi_startproc
 611              		@ args = 0, pretend = 0, frame = 0
 612              		@ frame_needed = 0, uses_anonymous_args = 0
 613 0000 10B5     		push	{r4, lr}
 614              	.LCFI5:
 615              		.cfi_def_cfa_offset 8
 616              		.cfi_offset 4, -8
 617              		.cfi_offset 14, -4
ARM GAS  C:\cygwin\tmp\cczUkFSk.s 			page 12


 618 0002 82B0     		sub	sp, sp, #8
 619              	.LCFI6:
 620              		.cfi_def_cfa_offset 16
 621              		.loc 1 297 0
 622 0004 FFF7FEFF 		bl	halInit
 623              	.LVL43:
 624              		.loc 1 298 0
 625 0008 FFF7FEFF 		bl	chSysInit
 626              	.LVL44:
 627              		.loc 1 300 0
 628 000c 40F20000 		movw	r0, #:lower16:SPID1
 629 0010 40F20001 		movw	r1, #:lower16:.LANCHOR4
 630 0014 C0F20000 		movt	r0, #:upper16:SPID1
 631 0018 C0F20001 		movt	r1, #:upper16:.LANCHOR4
 632 001c FFF7FEFF 		bl	L3GD20_Init
 633              	.LVL45:
 634              		.loc 1 307 0
 635 0020 0024     		movs	r4, #0
 636 0022 40F20003 		movw	r3, #:lower16:spi_thread_1
 637 0026 40F20000 		movw	r0, #:lower16:.LANCHOR21
 638 002a 4122     		movs	r2, #65
 639 002c 4FF4D871 		mov	r1, #432
 640 0030 C0F20003 		movt	r3, #:upper16:spi_thread_1
 641 0034 0094     		str	r4, [sp, #0]
 642 0036 C0F20000 		movt	r0, #:upper16:.LANCHOR21
 643 003a FFF7FEFF 		bl	chThdCreateStatic
 644              	.LVL46:
 645              		.loc 1 311 0
 646 003e 40F20000 		movw	r0, #:lower16:.LANCHOR22
 647 0042 40F20003 		movw	r3, #:lower16:spi_thread_2
 648 0046 0094     		str	r4, [sp, #0]
 649 0048 4FF4D871 		mov	r1, #432
 650 004c 4122     		movs	r2, #65
 651 004e C0F20003 		movt	r3, #:upper16:spi_thread_2
 652 0052 C0F20000 		movt	r0, #:upper16:.LANCHOR22
 653 0056 FFF7FEFF 		bl	chThdCreateStatic
 654              	.LVL47:
 655              		.loc 1 315 0
 656 005a 2046     		mov	r0, r4
 657 005c 02B0     		add	sp, sp, #8
 658 005e 10BD     		pop	{r4, pc}
 659              		.cfi_endproc
 660              	.LFE124:
 661              		.size	main, .-main
 662              		.global	gRegStatus
 663              		.global	lhz
 664              		.global	llz
 665              		.global	lhy
 666              		.global	lly
 667              		.global	llx
 668              		.global	lhx
 669              		.global	gZ
 670              		.global	gY
 671              		.global	gX
 672              		.global	WHO_AM_I
 673              		.global	OUT_Z_H
 674              		.global	OUT_Z_L
ARM GAS  C:\cygwin\tmp\cczUkFSk.s 			page 13


 675              		.global	OUT_Y_H
 676              		.global	OUT_Y_L
 677              		.global	OUT_X_H
 678              		.global	OUT_X_L
 679              		.global	rxBuf
 680              		.global	gSpiConfig
 681              		.global	gSpiDriver
 682              		.section	.bss.llx,"aw",%nobits
 683              		.set	.LANCHOR13,. + 0
 684              		.type	llx, %object
 685              		.size	llx, 1
 686              	llx:
 687 0000 00       		.space	1
 688              		.section	.bss.lly,"aw",%nobits
 689              		.set	.LANCHOR15,. + 0
 690              		.type	lly, %object
 691              		.size	lly, 1
 692              	lly:
 693 0000 00       		.space	1
 694              		.section	.data.cur_pos.6469,"aw",%progbits
 695              		.set	.LANCHOR0,. + 0
 696              		.type	cur_pos.6469, %object
 697              		.size	cur_pos.6469, 1
 698              	cur_pos.6469:
 699 0000 FF       		.byte	-1
 700              		.section	.bss.spi_thread_1_wa,"aw",%nobits
 701              		.align	3
 702              		.set	.LANCHOR21,. + 0
 703              		.type	spi_thread_1_wa, %object
 704              		.size	spi_thread_1_wa, 432
 705              	spi_thread_1_wa:
 706 0000 00000000 		.space	432
 706      00000000 
 706      00000000 
 706      00000000 
 706      00000000 
 707              		.section	.bss.OUT_Y_H,"aw",%nobits
 708              		.set	.LANCHOR10,. + 0
 709              		.type	OUT_Y_H, %object
 710              		.size	OUT_Y_H, 1
 711              	OUT_Y_H:
 712 0000 00       		.space	1
 713              		.section	.bss.OUT_Z_H,"aw",%nobits
 714              		.set	.LANCHOR12,. + 0
 715              		.type	OUT_Z_H, %object
 716              		.size	OUT_Z_H, 1
 717              	OUT_Z_H:
 718 0000 00       		.space	1
 719              		.section	.bss.spi_thread_2_wa,"aw",%nobits
 720              		.align	3
 721              		.set	.LANCHOR22,. + 0
 722              		.type	spi_thread_2_wa, %object
 723              		.size	spi_thread_2_wa, 432
 724              	spi_thread_2_wa:
 725 0000 00000000 		.space	432
 725      00000000 
 725      00000000 
ARM GAS  C:\cygwin\tmp\cczUkFSk.s 			page 14


 725      00000000 
 725      00000000 
 726              		.section	.bss.OUT_Z_L,"aw",%nobits
 727              		.set	.LANCHOR11,. + 0
 728              		.type	OUT_Z_L, %object
 729              		.size	OUT_Z_L, 1
 730              	OUT_Z_L:
 731 0000 00       		.space	1
 732              		.section	.bss.addr.6502,"aw",%nobits
 733              		.set	.LANCHOR5,. + 0
 734              		.type	addr.6502, %object
 735              		.size	addr.6502, 1
 736              	addr.6502:
 737 0000 00       		.space	1
 738              		.section	.rodata.gRegStatus,"a",%progbits
 739              		.align	2
 740              		.type	gRegStatus, %object
 741              		.size	gRegStatus, 4
 742              	gRegStatus:
 743 0000 3F40FD01 		.word	33374271
 744              		.section	.bss.WHO_AM_I,"aw",%nobits
 745              		.set	.LANCHOR6,. + 0
 746              		.type	WHO_AM_I, %object
 747              		.size	WHO_AM_I, 1
 748              	WHO_AM_I:
 749 0000 00       		.space	1
 750              		.section	.data.gRegTable,"aw",%progbits
 751              		.align	2
 752              		.set	.LANCHOR3,. + 0
 753              		.type	gRegTable, %object
 754              		.size	gRegTable, 24
 755              	gRegTable:
 756 0000 07       		.byte	7
 757 0001 00000000 		.space	23
 757      00000000 
 757      00000000 
 757      00000000 
 757      00000000 
 758              		.section	.bss.lhx,"aw",%nobits
 759              		.set	.LANCHOR14,. + 0
 760              		.type	lhx, %object
 761              		.size	lhx, 1
 762              	lhx:
 763 0000 00       		.space	1
 764              		.section	.bss.llz,"aw",%nobits
 765              		.set	.LANCHOR18,. + 0
 766              		.type	llz, %object
 767              		.size	llz, 1
 768              	llz:
 769 0000 00       		.space	1
 770              		.section	.bss.gSpiDriver,"aw",%nobits
 771              		.align	2
 772              		.type	gSpiDriver, %object
 773              		.size	gSpiDriver, 48
 774              	gSpiDriver:
 775 0000 00000000 		.space	48
 775      00000000 
ARM GAS  C:\cygwin\tmp\cczUkFSk.s 			page 15


 775      00000000 
 775      00000000 
 775      00000000 
 776              		.section	.bss.gY,"aw",%nobits
 777              		.align	1
 778              		.set	.LANCHOR17,. + 0
 779              		.type	gY, %object
 780              		.size	gY, 2
 781              	gY:
 782 0000 0000     		.space	2
 783              		.section	.bss.gX,"aw",%nobits
 784              		.align	1
 785              		.set	.LANCHOR2,. + 0
 786              		.type	gX, %object
 787              		.size	gX, 2
 788              	gX:
 789 0000 0000     		.space	2
 790              		.section	.bss.OUT_X_L,"aw",%nobits
 791              		.set	.LANCHOR7,. + 0
 792              		.type	OUT_X_L, %object
 793              		.size	OUT_X_L, 1
 794              	OUT_X_L:
 795 0000 00       		.space	1
 796              		.section	.bss.gZ,"aw",%nobits
 797              		.align	1
 798              		.set	.LANCHOR20,. + 0
 799              		.type	gZ, %object
 800              		.size	gZ, 2
 801              	gZ:
 802 0000 0000     		.space	2
 803              		.section	.bss.OUT_Y_L,"aw",%nobits
 804              		.set	.LANCHOR9,. + 0
 805              		.type	OUT_Y_L, %object
 806              		.size	OUT_Y_L, 1
 807              	OUT_Y_L:
 808 0000 00       		.space	1
 809              		.section	.bss.lhy,"aw",%nobits
 810              		.set	.LANCHOR16,. + 0
 811              		.type	lhy, %object
 812              		.size	lhy, 1
 813              	lhy:
 814 0000 00       		.space	1
 815              		.section	.bss.lhz,"aw",%nobits
 816              		.set	.LANCHOR19,. + 0
 817              		.type	lhz, %object
 818              		.size	lhz, 1
 819              	lhz:
 820 0000 00       		.space	1
 821              		.section	.bss.rxBuf,"aw",%nobits
 822              		.align	2
 823              		.type	rxBuf, %object
 824              		.size	rxBuf, 56
 825              	rxBuf:
 826 0000 00000000 		.space	56
 826      00000000 
 826      00000000 
 826      00000000 
ARM GAS  C:\cygwin\tmp\cczUkFSk.s 			page 16


 826      00000000 
 827              		.section	.bss.prev_pos.6470,"aw",%nobits
 828              		.set	.LANCHOR1,. + 0
 829              		.type	prev_pos.6470, %object
 830              		.size	prev_pos.6470, 1
 831              	prev_pos.6470:
 832 0000 00       		.space	1
 833              		.section	.bss.gSpiConfig,"aw",%nobits
 834              		.align	2
 835              		.set	.LANCHOR4,. + 0
 836              		.type	gSpiConfig, %object
 837              		.size	gSpiConfig, 16
 838              	gSpiConfig:
 839 0000 00000000 		.space	16
 839      00000000 
 839      00000000 
 839      00000000 
 840              		.section	.bss.OUT_X_H,"aw",%nobits
 841              		.set	.LANCHOR8,. + 0
 842              		.type	OUT_X_H, %object
 843              		.size	OUT_X_H, 1
 844              	OUT_X_H:
 845 0000 00       		.space	1
 846              		.section	.rodata.str1.4,"aMS",%progbits,1
 847              		.align	2
 848              	.LC0:
 849 0000 53504920 		.ascii	"SPI thread 1\000"
 849      74687265 
 849      61642031 
 849      00
 850 000d 000000   		.space	3
 851              	.LC1:
 852 0010 53504920 		.ascii	"SPI thread 0\000"
 852      74687265 
 852      61642030 
 852      00
 853 001d 000000   		.text
 854              	.Letext0:
 855              		.file 2 "c:\\develop\\genist\\chibistudio\\tools\\yagarto-tools\\yagarto-20121222\\bin\\../lib/gcc
 856              		.file 3 "c:/develop/genist/chibistudio/tools/yagarto-tools/yagarto-20121222/lib/gcc/../../arm-none
 857              		.file 4 "../../../os/ports/GCC/ARMCMx/chtypes.h"
 858              		.file 5 "../../../os/kernel/include/chlists.h"
 859              		.file 6 "../../../os/kernel/include/chthreads.h"
 860              		.file 7 "../../../os/ports/GCC/ARMCMx/chcore_v7m.h"
 861              		.file 8 "../../../os/kernel/include/chschd.h"
 862              		.file 9 "../../../os/kernel/include/chmtx.h"
 863              		.file 10 "../../../os/hal/platforms/STM32F30x/stm32f30x.h"
 864              		.file 11 "../../../os/hal/platforms/STM32F30x/stm32_dma.h"
 865              		.file 12 "../../../os/hal/platforms/STM32/GPIOv2/pal_lld.h"
 866              		.file 13 "../../../os/hal/include/spi.h"
 867              		.file 14 "../../../os/hal/platforms/STM32/SPIv2/spi_lld.h"
 868              		.file 15 "../../../os/ports/common/ARMCMx/CMSIS/include/core_cm4.h"
 869              		.file 16 "./l3gd20/stm32f3_discovery_l3gd20.h"
 870              		.file 17 "../../../os/hal/include/hal.h"
 871              		.file 18 "../../../os/kernel/include/chsys.h"