ARM GAS  C:\cygwin\tmp\cczUkFSk.s 			page 1


   1              		.syntax unified
   2              		.cpu cortex-m4
   3              		.fpu softvfp
   4              		.eabi_attribute 20, 1
   5              		.eabi_attribute 21, 1
   6              		.eabi_attribute 23, 3
   7              		.eabi_attribute 24, 1
   8              		.eabi_attribute 25, 1
   9              		.eabi_attribute 26, 1
  10              		.eabi_attribute 30, 2
  11              		.eabi_attribute 34, 1
  12              		.eabi_attribute 18, 4
  13              		.thumb
  14              		.file	"main.c"
  15              		.text
  16              	.Ltext0:
  17              		.cfi_sections	.debug_frame
  18              		.section	.text.spi_thread_2,"ax",%progbits
  19              		.align	2
  20              		.p2align 4,,15
  21              		.thumb
  22              		.thumb_func
  23              		.type	spi_thread_2, %function
  24              	spi_thread_2:
  25              	.LFB123:
  26              		.file 1 "main.c"
  27              		.loc 1 259 0
  28              		.cfi_startproc
  29              		@ args = 0, pretend = 0, frame = 0
  30              		@ frame_needed = 0, uses_anonymous_args = 0
  31              	.LVL0:
  32 0000 08B5     		push	{r3, lr}
  33              	.LCFI0:
  34              		.cfi_def_cfa_offset 8
  35              		.cfi_offset 3, -8
  36              		.cfi_offset 14, -4
  37              		.loc 1 263 0
  38 0002 054B     		ldr	r3, .L4
  39 0004 054A     		ldr	r2, .L4+4
  40 0006 9B69     		ldr	r3, [r3, #24]
  41 0008 9A61     		str	r2, [r3, #24]
  42              	.LVL1:
  43              	.L2:
  44              		.loc 1 267 0 discriminator 1
  45 000a 0548     		ldr	r0, .L4+8
  46 000c FFF7FEFF 		bl	spiAcquireBus
  47              	.LVL2:
  48              		.loc 1 279 0 discriminator 1
  49 0010 0348     		ldr	r0, .L4+8
  50 0012 FFF7FEFF 		bl	spiReleaseBus
  51              	.LVL3:
  52 0016 F8E7     		b	.L2
  53              	.L5:
  54              		.align	2
  55              	.L4:
  56 0018 00000000 		.word	rlist
  57 001c 00000000 		.word	.LC0
ARM GAS  C:\cygwin\tmp\cczUkFSk.s 			page 2


  58 0020 00000000 		.word	SPID1
  59              		.cfi_endproc
  60              	.LFE123:
  61              		.size	spi_thread_2, .-spi_thread_2
  62 0024 AFF30080 		.section	.text.assert_check_led,"ax",%progbits
  62      AFF30080 
  62      AFF30080 
  63              		.align	2
  64              		.p2align 4,,15
  65              		.global	assert_check_led
  66              		.thumb
  67              		.thumb_func
  68              		.type	assert_check_led, %function
  69              	assert_check_led:
  70              	.LFB118:
  71              		.loc 1 59 0
  72              		.cfi_startproc
  73              		@ args = 0, pretend = 0, frame = 0
  74              		@ frame_needed = 0, uses_anonymous_args = 0
  75              		@ link register save eliminated.
  76              	.LVL4:
  77              		.loc 1 68 0
  78 0000 0120     		movs	r0, #1
  79 0002 7047     		bx	lr
  80              		.cfi_endproc
  81              	.LFE118:
  82              		.size	assert_check_led, .-assert_check_led
  83 0004 AFF30080 		.section	.text.searching_led_position,"ax",%progbits
  83      AFF30080 
  83      AFF30080 
  84              		.align	2
  85              		.p2align 4,,15
  86              		.global	searching_led_position
  87              		.thumb
  88              		.thumb_func
  89              		.type	searching_led_position, %function
  90              	searching_led_position:
  91              	.LFB119:
  92              		.loc 1 71 0
  93              		.cfi_startproc
  94              		@ args = 0, pretend = 0, frame = 0
  95              		@ frame_needed = 0, uses_anonymous_args = 0
  96              	.LVL5:
  97 0000 F8B5     		push	{r3, r4, r5, r6, r7, lr}
  98              	.LCFI1:
  99              		.cfi_def_cfa_offset 24
 100              		.cfi_offset 3, -24
 101              		.cfi_offset 4, -20
 102              		.cfi_offset 5, -16
 103              		.cfi_offset 6, -12
 104              		.cfi_offset 7, -8
 105              		.cfi_offset 14, -4
 106              		.loc 1 79 0
 107 0002 0E4D     		ldr	r5, .L9
 108              		.loc 1 77 0
 109 0004 0E4C     		ldr	r4, .L9+4
 110              		.loc 1 79 0
ARM GAS  C:\cygwin\tmp\cczUkFSk.s 			page 3


 111 0006 2B78     		ldrb	r3, [r5, #0]	@ zero_extendqisi2
 112              		.loc 1 77 0
 113 0008 2070     		strb	r0, [r4, #0]
 114              		.loc 1 79 0
 115 000a 9842     		cmp	r0, r3
 116 000c 15D0     		beq	.L7
 117              	.LVL6:
 118              		.loc 1 82 0
 119 000e 0127     		movs	r7, #1
 120 0010 4FF48056 		mov	r6, #4096
 121 0014 07FA03F3 		lsl	r3, r7, r3
 122 0018 C4F60006 		movt	r6, 18432
 123 001c 9BB2     		uxth	r3, r3
 124              		.loc 1 83 0
 125 001e 5020     		movs	r0, #80
 126              	.LVL7:
 127              		.loc 1 82 0
 128 0020 7383     		strh	r3, [r6, #26]	@ movhi
 129              		.loc 1 83 0
 130 0022 FFF7FEFF 		bl	chThdSleep
 131              	.LVL8:
 132              		.loc 1 85 0
 133 0026 2378     		ldrb	r3, [r4, #0]	@ zero_extendqisi2
 134 0028 07FA03F7 		lsl	r7, r7, r3
 135 002c BFB2     		uxth	r7, r7
 136 002e 3783     		strh	r7, [r6, #24]	@ movhi
 137              		.loc 1 86 0
 138 0030 5020     		movs	r0, #80
 139 0032 FFF7FEFF 		bl	chThdSleep
 140              	.LVL9:
 141              		.loc 1 87 0
 142 0036 2378     		ldrb	r3, [r4, #0]	@ zero_extendqisi2
 143 0038 2B70     		strb	r3, [r5, #0]
 144              	.LVL10:
 145              	.L7:
 146 003a F8BD     		pop	{r3, r4, r5, r6, r7, pc}
 147              	.L10:
 148              		.align	2
 149              	.L9:
 150 003c 00000000 		.word	.LANCHOR1
 151 0040 00000000 		.word	.LANCHOR0
 152              		.cfi_endproc
 153              	.LFE119:
 154              		.size	searching_led_position, .-searching_led_position
 155 0044 AFF30080 		.section	.text.checking_coord,"ax",%progbits
 155      AFF30080 
 155      AFF30080 
 156              		.align	2
 157              		.p2align 4,,15
 158              		.global	checking_coord
 159              		.thumb
 160              		.thumb_func
 161              		.type	checking_coord, %function
 162              	checking_coord:
 163              	.LFB120:
 164              		.loc 1 103 0
 165              		.cfi_startproc
ARM GAS  C:\cygwin\tmp\cczUkFSk.s 			page 4


 166              		@ args = 0, pretend = 0, frame = 0
 167              		@ frame_needed = 0, uses_anonymous_args = 0
 168              		@ link register save eliminated.
 169              		.loc 1 108 0
 170 0000 284B     		ldr	r3, .L28
 171 0002 1B88     		ldrh	r3, [r3, #0]
 172 0004 40F2FF72 		movw	r2, #2047
 173 0008 9342     		cmp	r3, r2
 174 000a 32D9     		bls	.L12
 175              		.loc 1 109 0
 176 000c 03F50061 		add	r1, r3, #2048
 177 0010 89B2     		uxth	r1, r1
 178 0012 9142     		cmp	r1, r2
 179 0014 2DD9     		bls	.L12
 180              		.loc 1 112 0
 181 0016 03F5C051 		add	r1, r3, #6144
 182 001a 89B2     		uxth	r1, r1
 183 001c 40F6FF72 		movw	r2, #4095
 184 0020 9142     		cmp	r1, r2
 185 0022 2CD9     		bls	.L22
 186              		.loc 1 115 0
 187 0024 03F52051 		add	r1, r3, #10240
 188 0028 89B2     		uxth	r1, r1
 189 002a 9142     		cmp	r1, r2
 190 002c 2AD9     		bls	.L23
 191              		.loc 1 118 0
 192 002e 03F56051 		add	r1, r3, #14336
 193 0032 89B2     		uxth	r1, r1
 194 0034 9142     		cmp	r1, r2
 195 0036 28D9     		bls	.L24
 196              		.loc 1 122 0
 197 0038 03F57F51 		add	r1, r3, #16320
 198 003c 3F31     		adds	r1, r1, #63
 199              		.loc 1 121 0
 200 003e 89B2     		uxth	r1, r1
 201 0040 40F2FE70 		movw	r0, #2046
 202 0044 8142     		cmp	r1, r0
 203 0046 17D9     		bls	.L17
 204              		.loc 1 124 0
 205 0048 A3F56051 		sub	r1, r3, #14336
 206              		.loc 1 123 0
 207 004c 89B2     		uxth	r1, r1
 208 004e 8142     		cmp	r1, r0
 209 0050 12D9     		bls	.L17
 210              		.loc 1 127 0
 211 0052 A3F52051 		sub	r1, r3, #10240
 212 0056 89B2     		uxth	r1, r1
 213 0058 9142     		cmp	r1, r2
 214 005a 1CD9     		bls	.L25
 215              		.loc 1 130 0
 216 005c A3F5C051 		sub	r1, r3, #6144
 217 0060 89B2     		uxth	r1, r1
 218 0062 9142     		cmp	r1, r2
 219 0064 1AD9     		bls	.L26
 220              		.loc 1 133 0
 221 0066 A3F50063 		sub	r3, r3, #2048
 222 006a 9BB2     		uxth	r3, r3
ARM GAS  C:\cygwin\tmp\cczUkFSk.s 			page 5


 223 006c 9342     		cmp	r3, r2
 224 006e 0FD9     		bls	.L27
 225 0070 7047     		bx	lr
 226              	.L12:
 227              		.loc 1 110 0
 228 0072 0920     		movs	r0, #9
 229              		.loc 1 137 0
 230              		.loc 1 110 0
 231 0074 FFF7FEBF 		b	searching_led_position
 232              	.LVL11:
 233              	.L17:
 234              		.loc 1 125 0
 235 0078 0D20     		movs	r0, #13
 236              		.loc 1 137 0
 237              		.loc 1 125 0
 238 007a FFF7FEBF 		b	searching_led_position
 239              	.LVL12:
 240              	.L22:
 241              		.loc 1 113 0
 242 007e 0A20     		movs	r0, #10
 243              		.loc 1 137 0
 244              		.loc 1 113 0
 245 0080 FFF7FEBF 		b	searching_led_position
 246              	.LVL13:
 247              	.L23:
 248              		.loc 1 116 0
 249 0084 0B20     		movs	r0, #11
 250              		.loc 1 137 0
 251              		.loc 1 116 0
 252 0086 FFF7FEBF 		b	searching_led_position
 253              	.LVL14:
 254              	.L24:
 255              		.loc 1 119 0
 256 008a 0C20     		movs	r0, #12
 257              		.loc 1 137 0
 258              		.loc 1 119 0
 259 008c FFF7FEBF 		b	searching_led_position
 260              	.LVL15:
 261              	.L27:
 262              		.loc 1 134 0
 263 0090 0820     		movs	r0, #8
 264              		.loc 1 137 0
 265              		.loc 1 134 0
 266 0092 FFF7FEBF 		b	searching_led_position
 267              	.LVL16:
 268              	.L25:
 269              		.loc 1 128 0
 270 0096 0E20     		movs	r0, #14
 271              		.loc 1 137 0
 272              		.loc 1 128 0
 273 0098 FFF7FEBF 		b	searching_led_position
 274              	.LVL17:
 275              	.L26:
 276              		.loc 1 131 0
 277 009c 0F20     		movs	r0, #15
 278              		.loc 1 137 0
 279              		.loc 1 131 0
ARM GAS  C:\cygwin\tmp\cczUkFSk.s 			page 6


 280 009e FFF7FEBF 		b	searching_led_position
 281              	.LVL18:
 282              	.L29:
 283 00a2 00BF     		.align	2
 284              	.L28:
 285 00a4 00000000 		.word	.LANCHOR2
 286              		.cfi_endproc
 287              	.LFE120:
 288              		.size	checking_coord, .-checking_coord
 289 00a8 AFF30080 		.section	.text._l3gd_register_setting,"ax",%progbits
 289      AFF30080 
 290              		.align	2
 291              		.p2align 4,,15
 292              		.global	_l3gd_register_setting
 293              		.thumb
 294              		.thumb_func
 295              		.type	_l3gd_register_setting, %function
 296              	_l3gd_register_setting:
 297              	.LFB121:
 298              		.loc 1 176 0
 299              		.cfi_startproc
 300              		@ args = 0, pretend = 0, frame = 8
 301              		@ frame_needed = 0, uses_anonymous_args = 0
 302              	.LVL19:
 303 0000 30B5     		push	{r4, r5, lr}
 304              	.LCFI2:
 305              		.cfi_def_cfa_offset 12
 306              		.cfi_offset 4, -12
 307              		.cfi_offset 5, -8
 308              		.cfi_offset 14, -4
 309              		.loc 1 179 0
 310 0002 A0F12003 		sub	r3, r0, #32
 311              		.loc 1 176 0
 312 0006 83B0     		sub	sp, sp, #12
 313              	.LCFI3:
 314              		.cfi_def_cfa_offset 24
 315              		.loc 1 179 0
 316 0008 DBB2     		uxtb	r3, r3
 317 000a 182B     		cmp	r3, #24
 318              		.loc 1 176 0
 319 000c 8DF80700 		strb	r0, [sp, #7]
 320              		.loc 1 179 0
 321 0010 07D8     		bhi	.L30
 322              	.LVL20:
 323              		.loc 1 184 0
 324 0012 44F23F02 		movw	r2, #16447
 325 0016 C0F2FD12 		movt	r2, 509
 326 001a 22FA03F2 		lsr	r2, r2, r3
 327 001e D207     		lsls	r2, r2, #31
 328 0020 01D4     		bmi	.L35
 329              	.LVL21:
 330              	.L30:
 331              		.loc 1 189 0
 332 0022 03B0     		add	sp, sp, #12
 333 0024 30BD     		pop	{r4, r5, pc}
 334              	.LVL22:
 335              	.L35:
ARM GAS  C:\cygwin\tmp\cczUkFSk.s 			page 7


 336              		.loc 1 186 0
 337 0026 064C     		ldr	r4, .L36
 338              		.loc 1 185 0
 339 0028 E55C     		ldrb	r5, [r4, r3]	@ zero_extendqisi2
 340 002a 25EA0105 		bic	r5, r5, r1
 341              		.loc 1 186 0
 342 002e 0D43     		orrs	r5, r5, r1
 343              		.loc 1 187 0
 344 0030 E018     		adds	r0, r4, r3
 345 0032 0DF10701 		add	r1, sp, #7
 346              	.LVL23:
 347 0036 0122     		movs	r2, #1
 348              		.loc 1 186 0
 349 0038 E554     		strb	r5, [r4, r3]
 350              		.loc 1 187 0
 351 003a FFF7FEFF 		bl	L3GD20_Write
 352              	.LVL24:
 353 003e F0E7     		b	.L30
 354              	.L37:
 355              		.align	2
 356              	.L36:
 357 0040 00000000 		.word	.LANCHOR3
 358              		.cfi_endproc
 359              	.LFE121:
 360              		.size	_l3gd_register_setting, .-_l3gd_register_setting
 361 0044 AFF30080 		.section	.text.spi_thread_1,"ax",%progbits
 361      AFF30080 
 361      AFF30080 
 362              		.align	2
 363              		.p2align 4,,15
 364              		.thumb
 365              		.thumb_func
 366              		.type	spi_thread_1, %function
 367              	spi_thread_1:
 368              	.LFB122:
 369              		.loc 1 192 0
 370              		.cfi_startproc
 371              		@ args = 0, pretend = 0, frame = 0
 372              		@ frame_needed = 0, uses_anonymous_args = 0
 373              	.LVL25:
 374 0000 2DE9F84F 		push	{r3, r4, r5, r6, r7, r8, r9, sl, fp, lr}
 375              	.LCFI4:
 376              		.cfi_def_cfa_offset 40
 377              		.cfi_offset 3, -40
 378              		.cfi_offset 4, -36
 379              		.cfi_offset 5, -32
 380              		.cfi_offset 6, -28
 381              		.cfi_offset 7, -24
 382              		.cfi_offset 8, -20
 383              		.cfi_offset 9, -16
 384              		.cfi_offset 10, -12
 385              		.cfi_offset 11, -8
 386              		.cfi_offset 14, -4
 387              		.loc 1 199 0
 388 0004 5A4B     		ldr	r3, .L40
 389 0006 5B4A     		ldr	r2, .L40+4
 390 0008 9B69     		ldr	r3, [r3, #24]
ARM GAS  C:\cygwin\tmp\cczUkFSk.s 			page 8


 391 000a 5B4C     		ldr	r4, .L40+8
 392 000c 5B4F     		ldr	r7, .L40+12
 393 000e 5C4E     		ldr	r6, .L40+16
 394 0010 9A61     		str	r2, [r3, #24]
 395              	.LVL26:
 396              	.L39:
 397              		.loc 1 202 0 discriminator 1
 398 0012 5C48     		ldr	r0, .L40+20
 399 0014 FFF7FEFF 		bl	spiAcquireBus
 400              	.LVL27:
 401              		.loc 1 211 0 discriminator 1
 402 0018 5B49     		ldr	r1, .L40+24
 403 001a 5A48     		ldr	r0, .L40+20
 404 001c FFF7FEFF 		bl	spiStart
 405              	.LVL28:
 406              		.loc 1 212 0 discriminator 1
 407 0020 5848     		ldr	r0, .L40+20
 408 0022 FFF7FEFF 		bl	spiSelect
 409              	.LVL29:
 410              		.loc 1 214 0 discriminator 1
 411 0026 2020     		movs	r0, #32
 412 0028 0821     		movs	r1, #8
 413 002a FFF7FEFF 		bl	_l3gd_register_setting
 414              	.LVL30:
 415              		.loc 1 215 0 discriminator 1
 416 002e 2320     		movs	r0, #35
 417 0030 0021     		movs	r1, #0
 418 0032 FFF7FEFF 		bl	_l3gd_register_setting
 419              	.LVL31:
 420              		.loc 1 216 0 discriminator 1
 421 0036 2E20     		movs	r0, #46
 422 0038 4021     		movs	r1, #64
 423 003a FFF7FEFF 		bl	_l3gd_register_setting
 424              	.LVL32:
 425              		.loc 1 218 0 discriminator 1
 426 003e 0F23     		movs	r3, #15
 427 0040 0122     		movs	r2, #1
 428 0042 5248     		ldr	r0, .L40+28
 429 0044 4C49     		ldr	r1, .L40+8
 430 0046 2370     		strb	r3, [r4, #0]
 431 0048 FFF7FEFF 		bl	L3GD20_Read
 432              	.LVL33:
 433              		.loc 1 219 0 discriminator 1
 434 004c 2823     		movs	r3, #40
 435 004e 0122     		movs	r2, #1
 436 0050 4F48     		ldr	r0, .L40+32
 437 0052 4949     		ldr	r1, .L40+8
 438 0054 2370     		strb	r3, [r4, #0]
 439 0056 FFF7FEFF 		bl	L3GD20_Read
 440              	.LVL34:
 441              		.loc 1 220 0 discriminator 1
 442 005a 2923     		movs	r3, #41
 443 005c 0122     		movs	r2, #1
 444 005e 4D48     		ldr	r0, .L40+36
 445 0060 4549     		ldr	r1, .L40+8
 446 0062 2370     		strb	r3, [r4, #0]
 447 0064 FFF7FEFF 		bl	L3GD20_Read
ARM GAS  C:\cygwin\tmp\cczUkFSk.s 			page 9


 448              	.LVL35:
 449              		.loc 1 221 0 discriminator 1
 450 0068 2A23     		movs	r3, #42
 451 006a 0122     		movs	r2, #1
 452 006c 4A48     		ldr	r0, .L40+40
 453 006e 4249     		ldr	r1, .L40+8
 454 0070 2370     		strb	r3, [r4, #0]
 455 0072 FFF7FEFF 		bl	L3GD20_Read
 456              	.LVL36:
 457              		.loc 1 222 0 discriminator 1
 458 0076 2B23     		movs	r3, #43
 459 0078 0122     		movs	r2, #1
 460 007a 4848     		ldr	r0, .L40+44
 461 007c 3E49     		ldr	r1, .L40+8
 462 007e 2370     		strb	r3, [r4, #0]
 463 0080 FFF7FEFF 		bl	L3GD20_Read
 464              	.LVL37:
 465              		.loc 1 223 0 discriminator 1
 466 0084 2C23     		movs	r3, #44
 467 0086 0122     		movs	r2, #1
 468 0088 4548     		ldr	r0, .L40+48
 469 008a 3B49     		ldr	r1, .L40+8
 470 008c 2370     		strb	r3, [r4, #0]
 471 008e FFF7FEFF 		bl	L3GD20_Read
 472              	.LVL38:
 473              		.loc 1 224 0 discriminator 1
 474 0092 2D23     		movs	r3, #45
 475 0094 3849     		ldr	r1, .L40+8
 476 0096 4348     		ldr	r0, .L40+52
 477 0098 2370     		strb	r3, [r4, #0]
 478 009a 0122     		movs	r2, #1
 479 009c FFF7FEFF 		bl	L3GD20_Read
 480              	.LVL39:
 481              		.loc 1 225 0 discriminator 1
 482 00a0 3848     		ldr	r0, .L40+20
 483 00a2 FFF7FEFF 		bl	spiUnselect
 484              	.LVL40:
 485              		.loc 1 237 0 discriminator 1
 486 00a6 40F20009 		movw	r9, #:lower16:.LANCHOR10
 487              		.loc 1 234 0 discriminator 1
 488 00aa 40F20001 		movw	r1, #:lower16:.LANCHOR8
 489 00ae C0F20001 		movt	r1, #:upper16:.LANCHOR8
 490              		.loc 1 237 0 discriminator 1
 491 00b2 C0F20009 		movt	r9, #:upper16:.LANCHOR10
 492              		.loc 1 240 0 discriminator 1
 493 00b6 40F2000C 		movw	ip, #:lower16:.LANCHOR11
 494              		.loc 1 234 0 discriminator 1
 495 00ba 0D78     		ldrb	r5, [r1, #0]	@ zero_extendqisi2
 496              		.loc 1 237 0 discriminator 1
 497 00bc 99F80010 		ldrb	r1, [r9, #0]	@ zero_extendqisi2
 498              		.loc 1 240 0 discriminator 1
 499 00c0 C0F2000C 		movt	ip, #:upper16:.LANCHOR11
 500              		.loc 1 234 0 discriminator 1
 501 00c4 40F20000 		movw	r0, #:lower16:.LANCHOR7
 502              		.loc 1 237 0 discriminator 1
 503 00c8 40F20003 		movw	r3, #:lower16:.LANCHOR9
 504              		.loc 1 240 0 discriminator 1
ARM GAS  C:\cygwin\tmp\cczUkFSk.s 			page 10


 505 00cc 40F20009 		movw	r9, #:lower16:.LANCHOR12
 506              		.loc 1 234 0 discriminator 1
 507 00d0 C0F20000 		movt	r0, #:upper16:.LANCHOR7
 508              		.loc 1 237 0 discriminator 1
 509 00d4 C0F20003 		movt	r3, #:upper16:.LANCHOR9
 510              		.loc 1 240 0 discriminator 1
 511 00d8 C0F20009 		movt	r9, #:upper16:.LANCHOR12
 512 00dc 9CF80020 		ldrb	r2, [ip, #0]	@ zero_extendqisi2
 513              		.loc 1 234 0 discriminator 1
 514 00e0 90F800E0 		ldrb	lr, [r0, #0]	@ zero_extendqisi2
 515              		.loc 1 237 0 discriminator 1
 516 00e4 1878     		ldrb	r0, [r3, #0]	@ zero_extendqisi2
 517              		.loc 1 240 0 discriminator 1
 518 00e6 99F80030 		ldrb	r3, [r9, #0]	@ zero_extendqisi2
 519              		.loc 1 234 0 discriminator 1
 520 00ea 40F2000C 		movw	ip, #:lower16:.LANCHOR13
 521 00ee C0F2000C 		movt	ip, #:upper16:.LANCHOR13
 522              		.loc 1 241 0 discriminator 1
 523 00f2 4FFA83F9 		sxtb	r9, r3
 524              		.loc 1 234 0 discriminator 1
 525 00f6 8CF800E0 		strb	lr, [ip, #0]
 526              		.loc 1 241 0 discriminator 1
 527 00fa 4FFA82FC 		sxtb	ip, r2
 528 00fe 4CEAC91C 		orr	ip, ip, r9, lsl #7
 529              		.loc 1 234 0 discriminator 1
 530 0102 40F20009 		movw	r9, #:lower16:.LANCHOR14
 531 0106 C0F20009 		movt	r9, #:upper16:.LANCHOR14
 532              		.loc 1 235 0 discriminator 1
 533 010a 4FFA85FB 		sxtb	fp, r5
 534              		.loc 1 234 0 discriminator 1
 535 010e 89F80050 		strb	r5, [r9, #0]
 536              		.loc 1 237 0 discriminator 1
 537 0112 40F20009 		movw	r9, #:lower16:.LANCHOR15
 538 0116 C0F20009 		movt	r9, #:upper16:.LANCHOR15
 539              		.loc 1 238 0 discriminator 1
 540 011a 4FFA80F8 		sxtb	r8, r0
 541              		.loc 1 237 0 discriminator 1
 542 011e 89F80000 		strb	r0, [r9, #0]
 543              		.loc 1 235 0 discriminator 1
 544 0122 40F20005 		movw	r5, #:lower16:.LANCHOR2
 545              		.loc 1 237 0 discriminator 1
 546 0126 40F20000 		movw	r0, #:lower16:.LANCHOR16
 547 012a C0F20000 		movt	r0, #:upper16:.LANCHOR16
 548              		.loc 1 235 0 discriminator 1
 549 012e C0F20005 		movt	r5, #:upper16:.LANCHOR2
 550 0132 4FFA8EFE 		sxtb	lr, lr
 551 0136 4EEACB1E 		orr	lr, lr, fp, lsl #7
 552 013a A5F800E0 		strh	lr, [r5, #0]	@ movhi
 553              		.loc 1 238 0 discriminator 1
 554 013e 4FFA81FA 		sxtb	sl, r1
 555              		.loc 1 237 0 discriminator 1
 556 0142 0170     		strb	r1, [r0, #0]
 557              		.loc 1 240 0 discriminator 1
 558 0144 40F20005 		movw	r5, #:lower16:.LANCHOR18
 559              		.loc 1 238 0 discriminator 1
 560 0148 40F20001 		movw	r1, #:lower16:.LANCHOR17
 561 014c C0F20001 		movt	r1, #:upper16:.LANCHOR17
ARM GAS  C:\cygwin\tmp\cczUkFSk.s 			page 11


 562              		.loc 1 240 0 discriminator 1
 563 0150 C0F20005 		movt	r5, #:upper16:.LANCHOR18
 564              		.loc 1 238 0 discriminator 1
 565 0154 48EACA18 		orr	r8, r8, sl, lsl #7
 566 0158 A1F80080 		strh	r8, [r1, #0]	@ movhi
 567              		.loc 1 240 0 discriminator 1
 568 015c 2A70     		strb	r2, [r5, #0]
 569 015e 3B70     		strb	r3, [r7, #0]
 570              		.loc 1 241 0 discriminator 1
 571 0160 A6F800C0 		strh	ip, [r6, #0]	@ movhi
 572              		.loc 1 243 0 discriminator 1
 573 0164 FFF7FEFF 		bl	checking_coord
 574              	.LVL41:
 575              		.loc 1 249 0 discriminator 1
 576 0168 0648     		ldr	r0, .L40+20
 577 016a FFF7FEFF 		bl	spiReleaseBus
 578              	.LVL42:
 579 016e 50E7     		b	.L39
 580              	.L41:
 581              		.align	2
 582              	.L40:
 583 0170 00000000 		.word	rlist
 584 0174 10000000 		.word	.LC1
 585 0178 00000000 		.word	.LANCHOR5
 586 017c 00000000 		.word	.LANCHOR19
 587 0180 00000000 		.word	.LANCHOR20
 588 0184 00000000 		.word	SPID1
 589 0188 00000000 		.word	.LANCHOR4
 590 018c 00000000 		.word	.LANCHOR6
 591 0190 00000000 		.word	.LANCHOR7
 592 0194 00000000 		.word	.LANCHOR8
 593 0198 00000000 		.word	.LANCHOR9
 594 019c 00000000 		.word	.LANCHOR10
 595 01a0 00000000 		.word	.LANCHOR11
 596 01a4 00000000 		.word	.LANCHOR12
 597              		.cfi_endproc
 598              	.LFE122:
 599              		.size	spi_thread_1, .-spi_thread_1
 600 01a8 AFF30080 		.section	.text.startup.main,"ax",%progbits
 600      AFF30080 
 601              		.align	2
 602              		.p2align 4,,15
 603              		.global	main
 604              		.thumb
 605              		.thumb_func
 606              		.type	main, %function
 607              	main:
 608              	.LFB124:
 609              		.loc 1 289 0
 610              		.cfi_startproc
 611              		@ args = 0, pretend = 0, frame = 0
 612              		@ frame_needed = 0, uses_anonymous_args = 0
 613 0000 10B5     		push	{r4, lr}
 614              	.LCFI5:
 615              		.cfi_def_cfa_offset 8
 616              		.cfi_offset 4, -8
 617              		.cfi_offset 14, -4
ARM GAS  C:\cygwin\tmp\cczUkFSk.s 			page 12


 618 0002 82B0     		sub	sp, sp, #8
 619              	.LCFI6:
 620              		.cfi_def_cfa_offset 16
 621              		.loc 1 297 0
 622 0004 FFF7FEFF 		bl	halInit
 623              	.LVL43:
 624              		.loc 1 298 0
 625 0008 FFF7FEFF 		bl	chSysInit
 626              	.LVL44:
 627              		.loc 1 300 0
 628 000c 40F20000 		movw	r0, #:lower16:SPID1
 629 0010 40F20001 		movw	r1, #:lower16:.LANCHOR4
 630 0014 C0F20000 		movt	r0, #:upper16:SPID1
 631 0018 C0F20001 		movt	r1, #:upper16:.LANCHOR4
 632 001c FFF7FEFF 		bl	L3GD20_Init
 633              	.LVL45:
 634              		.loc 1 307 0
 635 0020 0024     		movs	r4, #0
 636 0022 40F20003 		movw	r3, #:lower16:spi_thread_1
 637 0026 40F20000 		movw	r0, #:lower16:.LANCHOR21
 638 002a 4122     		movs	r2, #65
 639 002c 4FF4D871 		mov	r1, #432
 640 0030 C0F20003 		movt	r3, #:upper16:spi_thread_1
 641 0034 0094     		str	r4, [sp, #0]
 642 0036 C0F20000 		movt	r0, #:upper16:.LANCHOR21
 643 003a FFF7FEFF 		bl	chThdCreateStatic
 644              	.LVL46:
 645              		.loc 1 311 0
 646 003e 40F20000 		movw	r0, #:lower16:.LANCHOR22
 647 0042 40F20003 		movw	r3, #:lower16:spi_thread_2
 648 0046 0094     		str	r4, [sp, #0]
 649 0048 4FF4D871 		mov	r1, #432
 650 004c 4122     		movs	r2, #65
 651 004e C0F20003 		movt	r3, #:upper16:spi_thread_2
 652 0052 C0F20000 		movt	r0, #:upper16:.LANCHOR22
 653 0056 FFF7FEFF 		bl	chThdCreateStatic
 654              	.LVL47:
 655              		.loc 1 315 0
 656 005a 2046     		mov	r0, r4
 657 005c 02B0     		add	sp, sp, #8
 658 005e 10BD     		pop	{r4, pc}
 659              		.cfi_endproc
 660              	.LFE124:
 661              		.size	main, .-main
 662              		.global	gRegStatus
 663              		.global	lhz
 664              		.global	llz
 665              		.global	lhy
 666              		.global	lly
 667              		.global	llx
 668              		.global	lhx
 669              		.global	gZ
 670              		.global	gY
 671              		.global	gX
 672              		.global	WHO_AM_I
 673              		.global	OUT_Z_H
 674              		.global	OUT_Z_L
ARM GAS  C:\cygwin\tmp\cczUkFSk.s 			page 13


 675              		.global	OUT_Y_H
 676              		.global	OUT_Y_L
 677              		.global	OUT_X_H
 678              		.global	OUT_X_L
 679              		.global	rxBuf
 680              		.global	gSpiConfig
 681              		.global	gSpiDriver
 682              		.section	.bss.llx,"aw",%nobits
 683              		.set	.LANCHOR13,. + 0
 684              		.type	llx, %object
 685              		.size	llx, 1
 686              	llx:
 687 0000 00       		.space	1
 688              		.section	.bss.lly,"aw",%nobits
 689              		.set	.LANCHOR15,. + 0
 690              		.type	lly, %object
 691              		.size	lly, 1
 692              	lly:
 693 0000 00       		.space	1
 694              		.section	.data.cur_pos.6469,"aw",%progbits
 695              		.set	.LANCHOR0,. + 0
 696              		.type	cur_pos.6469, %object
 697              		.size	cur_pos.6469, 1
 698              	cur_pos.6469:
 699 0000 FF       		.byte	-1
 700              		.section	.bss.spi_thread_1_wa,"aw",%nobits
 701              		.align	3
 702              		.set	.LANCHOR21,. + 0
 703              		.type	spi_thread_1_wa, %object
 704              		.size	spi_thread_1_wa, 432
 705              	spi_thread_1_wa:
 706 0000 00000000 		.space	432
 706      00000000 
 706      00000000 
 706      00000000 
 706      00000000 
 707              		.section	.bss.OUT_Y_H,"aw",%nobits
 708              		.set	.LANCHOR10,. + 0
 709              		.type	OUT_Y_H, %object
 710              		.size	OUT_Y_H, 1
 711              	OUT_Y_H:
 712 0000 00       		.space	1
 713              		.section	.bss.OUT_Z_H,"aw",%nobits
 714              		.set	.LANCHOR12,. + 0
 715              		.type	OUT_Z_H, %object
 716              		.size	OUT_Z_H, 1
 717              	OUT_Z_H:
 718 0000 00       		.space	1
 719              		.section	.bss.spi_thread_2_wa,"aw",%nobits
 720              		.align	3
 721              		.set	.LANCHOR22,. + 0
 722              		.type	spi_thread_2_wa, %object
 723              		.size	spi_thread_2_wa, 432
 724              	spi_thread_2_wa:
 725 0000 00000000 		.space	432
 725      00000000 
 725      00000000 
ARM GAS  C:\cygwin\tmp\cczUkFSk.s 			page 14


 725      00000000 
 725      00000000 
 726              		.section	.bss.OUT_Z_L,"aw",%nobits
 727              		.set	.LANCHOR11,. + 0
 728              		.type	OUT_Z_L, %object
 729              		.size	OUT_Z_L, 1
 730              	OUT_Z_L:
 731 0000 00       		.space	1
 732              		.section	.bss.addr.6502,"aw",%nobits
 733              		.set	.LANCHOR5,. + 0
 734              		.type	addr.6502, %object
 735              		.size	addr.6502, 1
 736              	addr.6502:
 737 0000 00       		.space	1
 738              		.section	.rodata.gRegStatus,"a",%progbits
 739              		.align	2
 740              		.type	gRegStatus, %object
 741              		.size	gRegStatus, 4
 742              	gRegStatus:
 743 0000 3F40FD01 		.word	33374271
 744              		.section	.bss.WHO_AM_I,"aw",%nobits
 745              		.set	.LANCHOR6,. + 0
 746              		.type	WHO_AM_I, %object
 747              		.size	WHO_AM_I, 1
 748              	WHO_AM_I:
 749 0000 00       		.space	1
 750              		.section	.data.gRegTable,"aw",%progbits
 751              		.align	2
 752              		.set	.LANCHOR3,. + 0
 753              		.type	gRegTable, %object
 754              		.size	gRegTable, 24
 755              	gRegTable:
 756 0000 07       		.byte	7
 757 0001 00000000 		.space	23
 757      00000000 
 757      00000000 
 757      00000000 
 757      00000000 
 758              		.section	.bss.lhx,"aw",%nobits
 759              		.set	.LANCHOR14,. + 0
 760              		.type	lhx, %object
 761              		.size	lhx, 1
 762              	lhx:
 763 0000 00       		.space	1
 764              		.section	.bss.llz,"aw",%nobits
 765              		.set	.LANCHOR18,. + 0
 766              		.type	llz, %object
 767              		.size	llz, 1
 768              	llz:
 769 0000 00       		.space	1
 770              		.section	.bss.gSpiDriver,"aw",%nobits
 771              		.align	2
 772              		.type	gSpiDriver, %object
 773              		.size	gSpiDriver, 48
 774              	gSpiDriver:
 775 0000 00000000 		.space	48
 775      00000000 
ARM GAS  C:\cygwin\tmp\cczUkFSk.s 			page 15


 775      00000000 
 775      00000000 
 775      00000000 
 776              		.section	.bss.gY,"aw",%nobits
 777              		.align	1
 778              		.set	.LANCHOR17,. + 0
 779              		.type	gY, %object
 780              		.size	gY, 2
 781              	gY:
 782 0000 0000     		.space	2
 783              		.section	.bss.gX,"aw",%nobits
 784              		.align	1
 785              		.set	.LANCHOR2,. + 0
 786              		.type	gX, %object
 787              		.size	gX, 2
 788              	gX:
 789 0000 0000     		.space	2
 790              		.section	.bss.OUT_X_L,"aw",%nobits
 791              		.set	.LANCHOR7,. + 0
 792              		.type	OUT_X_L, %object
 793              		.size	OUT_X_L, 1
 794              	OUT_X_L:
 795 0000 00       		.space	1
 796              		.section	.bss.gZ,"aw",%nobits
 797              		.align	1
 798              		.set	.LANCHOR20,. + 0
 799              		.type	gZ, %object
 800              		.size	gZ, 2
 801              	gZ:
 802 0000 0000     		.space	2
 803              		.section	.bss.OUT_Y_L,"aw",%nobits
 804              		.set	.LANCHOR9,. + 0
 805              		.type	OUT_Y_L, %object
 806              		.size	OUT_Y_L, 1
 807              	OUT_Y_L:
 808 0000 00       		.space	1
 809              		.section	.bss.lhy,"aw",%nobits
 810              		.set	.LANCHOR16,. + 0
 811              		.type	lhy, %object
 812              		.size	lhy, 1
 813              	lhy:
 814 0000 00       		.space	1
 815              		.section	.bss.lhz,"aw",%nobits
 816              		.set	.LANCHOR19,. + 0
 817              		.type	lhz, %object
 818              		.size	lhz, 1
 819              	lhz:
 820 0000 00       		.space	1
 821              		.section	.bss.rxBuf,"aw",%nobits
 822              		.align	2
 823              		.type	rxBuf, %object
 824              		.size	rxBuf, 56
 825              	rxBuf:
 826 0000 00000000 		.space	56
 826      00000000 
 826      00000000 
 826      00000000 
ARM GAS  C:\cygwin\tmp\cczUkFSk.s 			page 16


 826      00000000 
 827              		.section	.bss.prev_pos.6470,"aw",%nobits
 828              		.set	.LANCHOR1,. + 0
 829              		.type	prev_pos.6470, %object
 830              		.size	prev_pos.6470, 1
 831              	prev_pos.6470:
 832 0000 00       		.space	1
 833              		.section	.bss.gSpiConfig,"aw",%nobits
 834              		.align	2
 835              		.set	.LANCHOR4,. + 0
 836              		.type	gSpiConfig, %object
 837              		.size	gSpiConfig, 16
 838              	gSpiConfig:
 839 0000 00000000 		.space	16
 839      00000000 
 839      00000000 
 839      00000000 
 840              		.section	.bss.OUT_X_H,"aw",%nobits
 841              		.set	.LANCHOR8,. + 0
 842              		.type	OUT_X_H, %object
 843              		.size	OUT_X_H, 1
 844              	OUT_X_H:
 845 0000 00       		.space	1
 846              		.section	.rodata.str1.4,"aMS",%progbits,1
 847              		.align	2
 848              	.LC0:
 849 0000 53504920 		.ascii	"SPI thread 1\000"
 849      74687265 
 849      61642031 
 849      00
 850 000d 000000   		.space	3
 851              	.LC1:
 852 0010 53504920 		.ascii	"SPI thread 0\000"
 852      74687265 
 852      61642030 
 852      00
 853 001d 000000   		.text
 854              	.Letext0:
 855              		.file 2 "c:\\develop\\genist\\chibistudio\\tools\\yagarto-tools\\yagarto-20121222\\bin\\../lib/gcc
 856              		.file 3 "c:/develop/genist/chibistudio/tools/yagarto-tools/yagarto-20121222/lib/gcc/../../arm-none
 857              		.file 4 "../../../os/ports/GCC/ARMCMx/chtypes.h"
 858              		.file 5 "../../../os/kernel/include/chlists.h"
 859              		.file 6 "../../../os/kernel/include/chthreads.h"
 860              		.file 7 "../../../os/ports/GCC/ARMCMx/chcore_v7m.h"
 861              		.file 8 "../../../os/kernel/include/chschd.h"
 862              		.file 9 "../../../os/kernel/include/chmtx.h"
 863              		.file 10 "../../../os/hal/platforms/STM32F30x/stm32f30x.h"
 864              		.file 11 "../../../os/hal/platforms/STM32F30x/stm32_dma.h"
 865              		.file 12 "../../../os/hal/platforms/STM32/GPIOv2/pal_lld.h"
 866              		.file 13 "../../../os/hal/include/spi.h"
 867              		.file 14 "../../../os/hal/platforms/STM32/SPIv2/spi_lld.h"
 868              		.file 15 "../../../os/ports/common/ARMCMx/CMSIS/include/core_cm4.h"
 869              		.file 16 "./l3gd20/stm32f3_discovery_l3gd20.h"
 870              		.file 17 "../../../os/hal/include/hal.h"
 871              		.file 18 "../../../os/kernel/include/chsys.h"
 872              		.section	.debug_info,"",%progbits
 873              	.Ldebug_info0:
ARM GAS  C:\cygwin\tmp\cczUkFSk.s 			page 17


 874 0000 DD100000 		.4byte	0x10dd
 875 0004 0200     		.2byte	0x2
 876 0006 00000000 		.4byte	.Ldebug_abbrev0
 877 000a 04       		.byte	0x4
 878 000b 01       		.uleb128 0x1
 879 000c 52030000 		.4byte	.LASF169
 880 0010 01       		.byte	0x1
 881 0011 8F020000 		.4byte	.LASF170
 882 0015 F2040000 		.4byte	.LASF171
 883 0019 00000000 		.4byte	.Ldebug_ranges0+0
 884 001d 00000000 		.4byte	0
 885 0021 00000000 		.4byte	0
 886 0025 00000000 		.4byte	.Ldebug_line0
 887 0029 02       		.uleb128 0x2
 888 002a 04       		.byte	0x4
 889 002b 05       		.byte	0x5
 890 002c 696E7400 		.ascii	"int\000"
 891 0030 03       		.uleb128 0x3
 892 0031 0F000000 		.4byte	.LASF1
 893 0035 02       		.byte	0x2
 894 0036 D5       		.byte	0xd5
 895 0037 3B000000 		.4byte	0x3b
 896 003b 04       		.uleb128 0x4
 897 003c 04       		.byte	0x4
 898 003d 07       		.byte	0x7
 899 003e 18020000 		.4byte	.LASF0
 900 0042 03       		.uleb128 0x3
 901 0043 CA050000 		.4byte	.LASF2
 902 0047 03       		.byte	0x3
 903 0048 29       		.byte	0x29
 904 0049 4D000000 		.4byte	0x4d
 905 004d 04       		.uleb128 0x4
 906 004e 01       		.byte	0x1
 907 004f 06       		.byte	0x6
 908 0050 DC000000 		.4byte	.LASF3
 909 0054 03       		.uleb128 0x3
 910 0055 2C060000 		.4byte	.LASF4
 911 0059 03       		.byte	0x3
 912 005a 2A       		.byte	0x2a
 913 005b 5F000000 		.4byte	0x5f
 914 005f 04       		.uleb128 0x4
 915 0060 01       		.byte	0x1
 916 0061 08       		.byte	0x8
 917 0062 11040000 		.4byte	.LASF5
 918 0066 03       		.uleb128 0x3
 919 0067 C6000000 		.4byte	.LASF6
 920 006b 03       		.byte	0x3
 921 006c 35       		.byte	0x35
 922 006d 71000000 		.4byte	0x71
 923 0071 04       		.uleb128 0x4
 924 0072 02       		.byte	0x2
 925 0073 05       		.byte	0x5
 926 0074 42040000 		.4byte	.LASF7
 927 0078 03       		.uleb128 0x3
 928 0079 24030000 		.4byte	.LASF8
 929 007d 03       		.byte	0x3
 930 007e 36       		.byte	0x36
ARM GAS  C:\cygwin\tmp\cczUkFSk.s 			page 18


 931 007f 83000000 		.4byte	0x83
 932 0083 04       		.uleb128 0x4
 933 0084 02       		.byte	0x2
 934 0085 07       		.byte	0x7
 935 0086 6A020000 		.4byte	.LASF9
 936 008a 03       		.uleb128 0x3
 937 008b 09040000 		.4byte	.LASF10
 938 008f 03       		.byte	0x3
 939 0090 4F       		.byte	0x4f
 940 0091 95000000 		.4byte	0x95
 941 0095 04       		.uleb128 0x4
 942 0096 04       		.byte	0x4
 943 0097 05       		.byte	0x5
 944 0098 45010000 		.4byte	.LASF11
 945 009c 03       		.uleb128 0x3
 946 009d A9040000 		.4byte	.LASF12
 947 00a1 03       		.byte	0x3
 948 00a2 50       		.byte	0x50
 949 00a3 A7000000 		.4byte	0xa7
 950 00a7 04       		.uleb128 0x4
 951 00a8 04       		.byte	0x4
 952 00a9 07       		.byte	0x7
 953 00aa C2040000 		.4byte	.LASF13
 954 00ae 04       		.uleb128 0x4
 955 00af 08       		.byte	0x8
 956 00b0 05       		.byte	0x5
 957 00b1 CE000000 		.4byte	.LASF14
 958 00b5 03       		.uleb128 0x3
 959 00b6 1D000000 		.4byte	.LASF15
 960 00ba 03       		.byte	0x3
 961 00bb 78       		.byte	0x78
 962 00bc C0000000 		.4byte	0xc0
 963 00c0 04       		.uleb128 0x4
 964 00c1 08       		.byte	0x8
 965 00c2 07       		.byte	0x7
 966 00c3 57000000 		.4byte	.LASF16
 967 00c7 04       		.uleb128 0x4
 968 00c8 01       		.byte	0x1
 969 00c9 02       		.byte	0x2
 970 00ca 03040000 		.4byte	.LASF17
 971 00ce 03       		.uleb128 0x3
 972 00cf 96020000 		.4byte	.LASF18
 973 00d3 04       		.byte	0x4
 974 00d4 25       		.byte	0x25
 975 00d5 54000000 		.4byte	0x54
 976 00d9 03       		.uleb128 0x3
 977 00da 4E010000 		.4byte	.LASF19
 978 00de 04       		.byte	0x4
 979 00df 26       		.byte	0x26
 980 00e0 54000000 		.4byte	0x54
 981 00e4 03       		.uleb128 0x3
 982 00e5 BA040000 		.4byte	.LASF20
 983 00e9 04       		.byte	0x4
 984 00ea 27       		.byte	0x27
 985 00eb 54000000 		.4byte	0x54
 986 00ef 03       		.uleb128 0x3
 987 00f0 27010000 		.4byte	.LASF21
ARM GAS  C:\cygwin\tmp\cczUkFSk.s 			page 19


 988 00f4 04       		.byte	0x4
 989 00f5 28       		.byte	0x28
 990 00f6 54000000 		.4byte	0x54
 991 00fa 03       		.uleb128 0x3
 992 00fb F5030000 		.4byte	.LASF22
 993 00ff 04       		.byte	0x4
 994 0100 29       		.byte	0x29
 995 0101 9C000000 		.4byte	0x9c
 996 0105 03       		.uleb128 0x3
 997 0106 7D020000 		.4byte	.LASF23
 998 010a 04       		.byte	0x4
 999 010b 2A       		.byte	0x2a
 1000 010c 8A000000 		.4byte	0x8a
 1001 0110 03       		.uleb128 0x3
 1002 0111 AA020000 		.4byte	.LASF24
 1003 0115 04       		.byte	0x4
 1004 0116 2C       		.byte	0x2c
 1005 0117 9C000000 		.4byte	0x9c
 1006 011b 03       		.uleb128 0x3
 1007 011c 79050000 		.4byte	.LASF25
 1008 0120 04       		.byte	0x4
 1009 0121 2E       		.byte	0x2e
 1010 0122 9C000000 		.4byte	0x9c
 1011 0126 03       		.uleb128 0x3
 1012 0127 E4020000 		.4byte	.LASF26
 1013 012b 05       		.byte	0x5
 1014 012c 23       		.byte	0x23
 1015 012d 31010000 		.4byte	0x131
 1016 0131 05       		.uleb128 0x5
 1017 0132 E4020000 		.4byte	.LASF26
 1018 0136 4C       		.byte	0x4c
 1019 0137 06       		.byte	0x6
 1020 0138 57       		.byte	0x57
 1021 0139 64020000 		.4byte	0x264
 1022 013d 06       		.uleb128 0x6
 1023 013e 75040000 		.4byte	.LASF27
 1024 0142 06       		.byte	0x6
 1025 0143 58       		.byte	0x58
 1026 0144 89020000 		.4byte	0x289
 1027 0148 02       		.byte	0x2
 1028 0149 23       		.byte	0x23
 1029 014a 00       		.uleb128 0
 1030 014b 06       		.uleb128 0x6
 1031 014c D0030000 		.4byte	.LASF28
 1032 0150 06       		.byte	0x6
 1033 0151 5A       		.byte	0x5a
 1034 0152 89020000 		.4byte	0x289
 1035 0156 02       		.byte	0x2
 1036 0157 23       		.byte	0x23
 1037 0158 04       		.uleb128 0x4
 1038 0159 06       		.uleb128 0x6
 1039 015a B9000000 		.4byte	.LASF29
 1040 015e 06       		.byte	0x6
 1041 015f 5C       		.byte	0x5c
 1042 0160 FA000000 		.4byte	0xfa
 1043 0164 02       		.byte	0x2
 1044 0165 23       		.byte	0x23
ARM GAS  C:\cygwin\tmp\cczUkFSk.s 			page 20


 1045 0166 08       		.uleb128 0x8
 1046 0167 06       		.uleb128 0x6
 1047 0168 9F060000 		.4byte	.LASF30
 1048 016c 06       		.byte	0x6
 1049 016d 5D       		.byte	0x5d
 1050 016e 62030000 		.4byte	0x362
 1051 0172 02       		.byte	0x2
 1052 0173 23       		.byte	0x23
 1053 0174 0C       		.uleb128 0xc
 1054 0175 06       		.uleb128 0x6
 1055 0176 83010000 		.4byte	.LASF31
 1056 017a 06       		.byte	0x6
 1057 017b 5F       		.byte	0x5f
 1058 017c 89020000 		.4byte	0x289
 1059 0180 02       		.byte	0x2
 1060 0181 23       		.byte	0x23
 1061 0182 10       		.uleb128 0x10
 1062 0183 06       		.uleb128 0x6
 1063 0184 2D030000 		.4byte	.LASF32
 1064 0188 06       		.byte	0x6
 1065 0189 60       		.byte	0x60
 1066 018a 89020000 		.4byte	0x289
 1067 018e 02       		.byte	0x2
 1068 018f 23       		.byte	0x23
 1069 0190 14       		.uleb128 0x14
 1070 0191 06       		.uleb128 0x6
 1071 0192 53060000 		.4byte	.LASF33
 1072 0196 06       		.byte	0x6
 1073 0197 67       		.byte	0x67
 1074 0198 7B040000 		.4byte	0x47b
 1075 019c 02       		.byte	0x2
 1076 019d 23       		.byte	0x23
 1077 019e 18       		.uleb128 0x18
 1078 019f 06       		.uleb128 0x6
 1079 01a0 0D020000 		.4byte	.LASF34
 1080 01a4 06       		.byte	0x6
 1081 01a5 6D       		.byte	0x6d
 1082 01a6 8D040000 		.4byte	0x48d
 1083 01aa 02       		.byte	0x2
 1084 01ab 23       		.byte	0x23
 1085 01ac 1C       		.uleb128 0x1c
 1086 01ad 06       		.uleb128 0x6
 1087 01ae 4C040000 		.4byte	.LASF35
 1088 01b2 06       		.byte	0x6
 1089 01b3 72       		.byte	0x72
 1090 01b4 D9000000 		.4byte	0xd9
 1091 01b8 02       		.byte	0x2
 1092 01b9 23       		.byte	0x23
 1093 01ba 20       		.uleb128 0x20
 1094 01bb 06       		.uleb128 0x6
 1095 01bc 7C040000 		.4byte	.LASF36
 1096 01c0 06       		.byte	0x6
 1097 01c1 76       		.byte	0x76
 1098 01c2 CE000000 		.4byte	0xce
 1099 01c6 02       		.byte	0x2
 1100 01c7 23       		.byte	0x23
 1101 01c8 21       		.uleb128 0x21
ARM GAS  C:\cygwin\tmp\cczUkFSk.s 			page 21


 1102 01c9 06       		.uleb128 0x6
 1103 01ca 03060000 		.4byte	.LASF37
 1104 01ce 06       		.byte	0x6
 1105 01cf 7B       		.byte	0x7b
 1106 01d0 E4000000 		.4byte	0xe4
 1107 01d4 02       		.byte	0x2
 1108 01d5 23       		.byte	0x23
 1109 01d6 22       		.uleb128 0x22
 1110 01d7 06       		.uleb128 0x6
 1111 01d8 54040000 		.4byte	.LASF38
 1112 01dc 06       		.byte	0x6
 1113 01dd 81       		.byte	0x81
 1114 01de EF000000 		.4byte	0xef
 1115 01e2 02       		.byte	0x2
 1116 01e3 23       		.byte	0x23
 1117 01e4 23       		.uleb128 0x23
 1118 01e5 06       		.uleb128 0x6
 1119 01e6 7C010000 		.4byte	.LASF39
 1120 01ea 06       		.byte	0x6
 1121 01eb 88       		.byte	0x88
 1122 01ec 91030000 		.4byte	0x391
 1123 01f0 02       		.byte	0x2
 1124 01f1 23       		.byte	0x23
 1125 01f2 24       		.uleb128 0x24
 1126 01f3 07       		.uleb128 0x7
 1127 01f4 705F7500 		.ascii	"p_u\000"
 1128 01f8 06       		.byte	0x6
 1129 01f9 AD       		.byte	0xad
 1130 01fa 46040000 		.4byte	0x446
 1131 01fe 02       		.byte	0x2
 1132 01ff 23       		.byte	0x23
 1133 0200 28       		.uleb128 0x28
 1134 0201 06       		.uleb128 0x6
 1135 0202 A5060000 		.4byte	.LASF40
 1136 0206 06       		.byte	0x6
 1137 0207 B2       		.byte	0xb2
 1138 0208 B1020000 		.4byte	0x2b1
 1139 020c 02       		.byte	0x2
 1140 020d 23       		.byte	0x23
 1141 020e 2C       		.uleb128 0x2c
 1142 020f 06       		.uleb128 0x6
 1143 0210 2A020000 		.4byte	.LASF41
 1144 0214 06       		.byte	0x6
 1145 0215 B8       		.byte	0xb8
 1146 0216 8F020000 		.4byte	0x28f
 1147 021a 02       		.byte	0x2
 1148 021b 23       		.byte	0x23
 1149 021c 30       		.uleb128 0x30
 1150 021d 06       		.uleb128 0x6
 1151 021e 7C060000 		.4byte	.LASF42
 1152 0222 06       		.byte	0x6
 1153 0223 BC       		.byte	0xbc
 1154 0224 05010000 		.4byte	0x105
 1155 0228 02       		.byte	0x2
 1156 0229 23       		.byte	0x23
 1157 022a 38       		.uleb128 0x38
 1158 022b 06       		.uleb128 0x6
ARM GAS  C:\cygwin\tmp\cczUkFSk.s 			page 22


 1159 022c 8C040000 		.4byte	.LASF43
 1160 0230 06       		.byte	0x6
 1161 0231 C2       		.byte	0xc2
 1162 0232 10010000 		.4byte	0x110
 1163 0236 02       		.byte	0x2
 1164 0237 23       		.byte	0x23
 1165 0238 3C       		.uleb128 0x3c
 1166 0239 06       		.uleb128 0x6
 1167 023a 38040000 		.4byte	.LASF44
 1168 023e 06       		.byte	0x6
 1169 023f C9       		.byte	0xc9
 1170 0240 93040000 		.4byte	0x493
 1171 0244 02       		.byte	0x2
 1172 0245 23       		.byte	0x23
 1173 0246 40       		.uleb128 0x40
 1174 0247 06       		.uleb128 0x6
 1175 0248 83050000 		.4byte	.LASF45
 1176 024c 06       		.byte	0x6
 1177 024d CD       		.byte	0xcd
 1178 024e FA000000 		.4byte	0xfa
 1179 0252 02       		.byte	0x2
 1180 0253 23       		.byte	0x23
 1181 0254 44       		.uleb128 0x44
 1182 0255 06       		.uleb128 0x6
 1183 0256 00010000 		.4byte	.LASF46
 1184 025a 06       		.byte	0x6
 1185 025b D3       		.byte	0xd3
 1186 025c C7020000 		.4byte	0x2c7
 1187 0260 02       		.byte	0x2
 1188 0261 23       		.byte	0x23
 1189 0262 48       		.uleb128 0x48
 1190 0263 00       		.byte	0
 1191 0264 08       		.uleb128 0x8
 1192 0265 08       		.byte	0x8
 1193 0266 05       		.byte	0x5
 1194 0267 5A       		.byte	0x5a
 1195 0268 89020000 		.4byte	0x289
 1196 026c 06       		.uleb128 0x6
 1197 026d 75040000 		.4byte	.LASF27
 1198 0271 05       		.byte	0x5
 1199 0272 5B       		.byte	0x5b
 1200 0273 89020000 		.4byte	0x289
 1201 0277 02       		.byte	0x2
 1202 0278 23       		.byte	0x23
 1203 0279 00       		.uleb128 0
 1204 027a 06       		.uleb128 0x6
 1205 027b D0030000 		.4byte	.LASF28
 1206 027f 05       		.byte	0x5
 1207 0280 5D       		.byte	0x5d
 1208 0281 89020000 		.4byte	0x289
 1209 0285 02       		.byte	0x2
 1210 0286 23       		.byte	0x23
 1211 0287 04       		.uleb128 0x4
 1212 0288 00       		.byte	0
 1213 0289 09       		.uleb128 0x9
 1214 028a 04       		.byte	0x4
 1215 028b 26010000 		.4byte	0x126
ARM GAS  C:\cygwin\tmp\cczUkFSk.s 			page 23


 1216 028f 03       		.uleb128 0x3
 1217 0290 3B030000 		.4byte	.LASF47
 1218 0294 05       		.byte	0x5
 1219 0295 5F       		.byte	0x5f
 1220 0296 64020000 		.4byte	0x264
 1221 029a 08       		.uleb128 0x8
 1222 029b 04       		.byte	0x4
 1223 029c 05       		.byte	0x5
 1224 029d 64       		.byte	0x64
 1225 029e B1020000 		.4byte	0x2b1
 1226 02a2 06       		.uleb128 0x6
 1227 02a3 75040000 		.4byte	.LASF27
 1228 02a7 05       		.byte	0x5
 1229 02a8 66       		.byte	0x66
 1230 02a9 89020000 		.4byte	0x289
 1231 02ad 02       		.byte	0x2
 1232 02ae 23       		.byte	0x23
 1233 02af 00       		.uleb128 0
 1234 02b0 00       		.byte	0
 1235 02b1 03       		.uleb128 0x3
 1236 02b2 9E020000 		.4byte	.LASF48
 1237 02b6 05       		.byte	0x5
 1238 02b7 69       		.byte	0x69
 1239 02b8 9A020000 		.4byte	0x29a
 1240 02bc 03       		.uleb128 0x3
 1241 02bd EE010000 		.4byte	.LASF49
 1242 02c1 07       		.byte	0x7
 1243 02c2 DE       		.byte	0xde
 1244 02c3 C7020000 		.4byte	0x2c7
 1245 02c7 0A       		.uleb128 0xa
 1246 02c8 04       		.byte	0x4
 1247 02c9 03       		.uleb128 0x3
 1248 02ca BC020000 		.4byte	.LASF50
 1249 02ce 07       		.byte	0x7
 1250 02cf E4       		.byte	0xe4
 1251 02d0 B5000000 		.4byte	0xb5
 1252 02d4 0B       		.uleb128 0xb
 1253 02d5 00000000 		.4byte	.LASF51
 1254 02d9 24       		.byte	0x24
 1255 02da 07       		.byte	0x7
 1256 02db 0501     		.2byte	0x105
 1257 02dd 62030000 		.4byte	0x362
 1258 02e1 0C       		.uleb128 0xc
 1259 02e2 723400   		.ascii	"r4\000"
 1260 02e5 07       		.byte	0x7
 1261 02e6 1801     		.2byte	0x118
 1262 02e8 BC020000 		.4byte	0x2bc
 1263 02ec 02       		.byte	0x2
 1264 02ed 23       		.byte	0x23
 1265 02ee 00       		.uleb128 0
 1266 02ef 0C       		.uleb128 0xc
 1267 02f0 723500   		.ascii	"r5\000"
 1268 02f3 07       		.byte	0x7
 1269 02f4 1901     		.2byte	0x119
 1270 02f6 BC020000 		.4byte	0x2bc
 1271 02fa 02       		.byte	0x2
 1272 02fb 23       		.byte	0x23
ARM GAS  C:\cygwin\tmp\cczUkFSk.s 			page 24


 1273 02fc 04       		.uleb128 0x4
 1274 02fd 0C       		.uleb128 0xc
 1275 02fe 723600   		.ascii	"r6\000"
 1276 0301 07       		.byte	0x7
 1277 0302 1A01     		.2byte	0x11a
 1278 0304 BC020000 		.4byte	0x2bc
 1279 0308 02       		.byte	0x2
 1280 0309 23       		.byte	0x23
 1281 030a 08       		.uleb128 0x8
 1282 030b 0C       		.uleb128 0xc
 1283 030c 723700   		.ascii	"r7\000"
 1284 030f 07       		.byte	0x7
 1285 0310 1B01     		.2byte	0x11b
 1286 0312 BC020000 		.4byte	0x2bc
 1287 0316 02       		.byte	0x2
 1288 0317 23       		.byte	0x23
 1289 0318 0C       		.uleb128 0xc
 1290 0319 0C       		.uleb128 0xc
 1291 031a 723800   		.ascii	"r8\000"
 1292 031d 07       		.byte	0x7
 1293 031e 1C01     		.2byte	0x11c
 1294 0320 BC020000 		.4byte	0x2bc
 1295 0324 02       		.byte	0x2
 1296 0325 23       		.byte	0x23
 1297 0326 10       		.uleb128 0x10
 1298 0327 0C       		.uleb128 0xc
 1299 0328 723900   		.ascii	"r9\000"
 1300 032b 07       		.byte	0x7
 1301 032c 1D01     		.2byte	0x11d
 1302 032e BC020000 		.4byte	0x2bc
 1303 0332 02       		.byte	0x2
 1304 0333 23       		.byte	0x23
 1305 0334 14       		.uleb128 0x14
 1306 0335 0C       		.uleb128 0xc
 1307 0336 72313000 		.ascii	"r10\000"
 1308 033a 07       		.byte	0x7
 1309 033b 1E01     		.2byte	0x11e
 1310 033d BC020000 		.4byte	0x2bc
 1311 0341 02       		.byte	0x2
 1312 0342 23       		.byte	0x23
 1313 0343 18       		.uleb128 0x18
 1314 0344 0C       		.uleb128 0xc
 1315 0345 72313100 		.ascii	"r11\000"
 1316 0349 07       		.byte	0x7
 1317 034a 1F01     		.2byte	0x11f
 1318 034c BC020000 		.4byte	0x2bc
 1319 0350 02       		.byte	0x2
 1320 0351 23       		.byte	0x23
 1321 0352 1C       		.uleb128 0x1c
 1322 0353 0C       		.uleb128 0xc
 1323 0354 6C7200   		.ascii	"lr\000"
 1324 0357 07       		.byte	0x7
 1325 0358 2001     		.2byte	0x120
 1326 035a BC020000 		.4byte	0x2bc
 1327 035e 02       		.byte	0x2
 1328 035f 23       		.byte	0x23
 1329 0360 20       		.uleb128 0x20
ARM GAS  C:\cygwin\tmp\cczUkFSk.s 			page 25


 1330 0361 00       		.byte	0
 1331 0362 0B       		.uleb128 0xb
 1332 0363 AF050000 		.4byte	.LASF52
 1333 0367 04       		.byte	0x4
 1334 0368 07       		.byte	0x7
 1335 0369 2A01     		.2byte	0x12a
 1336 036b 7F030000 		.4byte	0x37f
 1337 036f 0C       		.uleb128 0xc
 1338 0370 72313300 		.ascii	"r13\000"
 1339 0374 07       		.byte	0x7
 1340 0375 2B01     		.2byte	0x12b
 1341 0377 7F030000 		.4byte	0x37f
 1342 037b 02       		.byte	0x2
 1343 037c 23       		.byte	0x23
 1344 037d 00       		.uleb128 0
 1345 037e 00       		.byte	0
 1346 037f 09       		.uleb128 0x9
 1347 0380 04       		.byte	0x4
 1348 0381 D4020000 		.4byte	0x2d4
 1349 0385 0D       		.uleb128 0xd
 1350 0386 9C000000 		.4byte	0x9c
 1351 038a 04       		.uleb128 0x4
 1352 038b 04       		.byte	0x4
 1353 038c 07       		.byte	0x7
 1354 038d FA020000 		.4byte	.LASF53
 1355 0391 0D       		.uleb128 0xd
 1356 0392 1B010000 		.4byte	0x11b
 1357 0396 08       		.uleb128 0x8
 1358 0397 1C       		.byte	0x1c
 1359 0398 08       		.byte	0x8
 1360 0399 57       		.byte	0x57
 1361 039a F3030000 		.4byte	0x3f3
 1362 039e 06       		.uleb128 0x6
 1363 039f B2040000 		.4byte	.LASF54
 1364 03a3 08       		.byte	0x8
 1365 03a4 58       		.byte	0x58
 1366 03a5 8F020000 		.4byte	0x28f
 1367 03a9 02       		.byte	0x2
 1368 03aa 23       		.byte	0x23
 1369 03ab 00       		.uleb128 0
 1370 03ac 06       		.uleb128 0x6
 1371 03ad 67040000 		.4byte	.LASF55
 1372 03b1 08       		.byte	0x8
 1373 03b2 59       		.byte	0x59
 1374 03b3 FA000000 		.4byte	0xfa
 1375 03b7 02       		.byte	0x2
 1376 03b8 23       		.byte	0x23
 1377 03b9 08       		.uleb128 0x8
 1378 03ba 06       		.uleb128 0x6
 1379 03bb 35030000 		.4byte	.LASF56
 1380 03bf 08       		.byte	0x8
 1381 03c0 5B       		.byte	0x5b
 1382 03c1 62030000 		.4byte	0x362
 1383 03c5 02       		.byte	0x2
 1384 03c6 23       		.byte	0x23
 1385 03c7 0C       		.uleb128 0xc
 1386 03c8 06       		.uleb128 0x6
ARM GAS  C:\cygwin\tmp\cczUkFSk.s 			page 26


 1387 03c9 E6010000 		.4byte	.LASF57
 1388 03cd 08       		.byte	0x8
 1389 03ce 5E       		.byte	0x5e
 1390 03cf 89020000 		.4byte	0x289
 1391 03d3 02       		.byte	0x2
 1392 03d4 23       		.byte	0x23
 1393 03d5 10       		.uleb128 0x10
 1394 03d6 06       		.uleb128 0x6
 1395 03d7 68030000 		.4byte	.LASF58
 1396 03db 08       		.byte	0x8
 1397 03dc 5F       		.byte	0x5f
 1398 03dd 89020000 		.4byte	0x289
 1399 03e1 02       		.byte	0x2
 1400 03e2 23       		.byte	0x23
 1401 03e3 14       		.uleb128 0x14
 1402 03e4 06       		.uleb128 0x6
 1403 03e5 5E030000 		.4byte	.LASF59
 1404 03e9 08       		.byte	0x8
 1405 03ea 62       		.byte	0x62
 1406 03eb 89020000 		.4byte	0x289
 1407 03ef 02       		.byte	0x2
 1408 03f0 23       		.byte	0x23
 1409 03f1 18       		.uleb128 0x18
 1410 03f2 00       		.byte	0
 1411 03f3 03       		.uleb128 0x3
 1412 03f4 0A060000 		.4byte	.LASF60
 1413 03f8 08       		.byte	0x8
 1414 03f9 64       		.byte	0x64
 1415 03fa 96030000 		.4byte	0x396
 1416 03fe 05       		.uleb128 0x5
 1417 03ff B6020000 		.4byte	.LASF61
 1418 0403 10       		.byte	0x10
 1419 0404 09       		.byte	0x9
 1420 0405 25       		.byte	0x25
 1421 0406 35040000 		.4byte	0x435
 1422 040a 06       		.uleb128 0x6
 1423 040b 1F010000 		.4byte	.LASF62
 1424 040f 09       		.byte	0x9
 1425 0410 26       		.byte	0x26
 1426 0411 8F020000 		.4byte	0x28f
 1427 0415 02       		.byte	0x2
 1428 0416 23       		.byte	0x23
 1429 0417 00       		.uleb128 0
 1430 0418 06       		.uleb128 0x6
 1431 0419 97060000 		.4byte	.LASF63
 1432 041d 09       		.byte	0x9
 1433 041e 28       		.byte	0x28
 1434 041f 89020000 		.4byte	0x289
 1435 0423 02       		.byte	0x2
 1436 0424 23       		.byte	0x23
 1437 0425 08       		.uleb128 0x8
 1438 0426 06       		.uleb128 0x6
 1439 0427 72050000 		.4byte	.LASF64
 1440 042b 09       		.byte	0x9
 1441 042c 2A       		.byte	0x2a
 1442 042d 35040000 		.4byte	0x435
 1443 0431 02       		.byte	0x2
ARM GAS  C:\cygwin\tmp\cczUkFSk.s 			page 27


 1444 0432 23       		.byte	0x23
 1445 0433 0C       		.uleb128 0xc
 1446 0434 00       		.byte	0
 1447 0435 09       		.uleb128 0x9
 1448 0436 04       		.byte	0x4
 1449 0437 FE030000 		.4byte	0x3fe
 1450 043b 03       		.uleb128 0x3
 1451 043c B6020000 		.4byte	.LASF61
 1452 0440 09       		.byte	0x9
 1453 0441 2C       		.byte	0x2c
 1454 0442 FE030000 		.4byte	0x3fe
 1455 0446 0E       		.uleb128 0xe
 1456 0447 04       		.byte	0x4
 1457 0448 06       		.byte	0x6
 1458 0449 8F       		.byte	0x8f
 1459 044a 7B040000 		.4byte	0x47b
 1460 044e 0F       		.uleb128 0xf
 1461 044f 16000000 		.4byte	.LASF65
 1462 0453 06       		.byte	0x6
 1463 0454 96       		.byte	0x96
 1464 0455 05010000 		.4byte	0x105
 1465 0459 0F       		.uleb128 0xf
 1466 045a 81000000 		.4byte	.LASF66
 1467 045e 06       		.byte	0x6
 1468 045f 9D       		.byte	0x9d
 1469 0460 05010000 		.4byte	0x105
 1470 0464 0F       		.uleb128 0xf
 1471 0465 4C060000 		.4byte	.LASF67
 1472 0469 06       		.byte	0x6
 1473 046a A4       		.byte	0xa4
 1474 046b C7020000 		.4byte	0x2c7
 1475 046f 0F       		.uleb128 0xf
 1476 0470 6E040000 		.4byte	.LASF68
 1477 0474 06       		.byte	0x6
 1478 0475 AB       		.byte	0xab
 1479 0476 10010000 		.4byte	0x110
 1480 047a 00       		.byte	0
 1481 047b 09       		.uleb128 0x9
 1482 047c 04       		.byte	0x4
 1483 047d 81040000 		.4byte	0x481
 1484 0481 10       		.uleb128 0x10
 1485 0482 86040000 		.4byte	0x486
 1486 0486 04       		.uleb128 0x4
 1487 0487 01       		.byte	0x1
 1488 0488 08       		.byte	0x8
 1489 0489 E0040000 		.4byte	.LASF69
 1490 048d 09       		.uleb128 0x9
 1491 048e 04       		.byte	0x4
 1492 048f C9020000 		.4byte	0x2c9
 1493 0493 09       		.uleb128 0x9
 1494 0494 04       		.byte	0x4
 1495 0495 3B040000 		.4byte	0x43b
 1496 0499 03       		.uleb128 0x3
 1497 049a 07000000 		.4byte	.LASF70
 1498 049e 06       		.byte	0x6
 1499 049f DE       		.byte	0xde
 1500 04a0 A4040000 		.4byte	0x4a4
ARM GAS  C:\cygwin\tmp\cczUkFSk.s 			page 28


 1501 04a4 09       		.uleb128 0x9
 1502 04a5 04       		.byte	0x4
 1503 04a6 AA040000 		.4byte	0x4aa
 1504 04aa 11       		.uleb128 0x11
 1505 04ab 01       		.byte	0x1
 1506 04ac 05010000 		.4byte	0x105
 1507 04b0 BA040000 		.4byte	0x4ba
 1508 04b4 12       		.uleb128 0x12
 1509 04b5 C7020000 		.4byte	0x2c7
 1510 04b9 00       		.byte	0
 1511 04ba 09       		.uleb128 0x9
 1512 04bb 04       		.byte	0x4
 1513 04bc 54000000 		.4byte	0x54
 1514 04c0 0D       		.uleb128 0xd
 1515 04c1 78000000 		.4byte	0x78
 1516 04c5 0D       		.uleb128 0xd
 1517 04c6 8A000000 		.4byte	0x8a
 1518 04ca 10       		.uleb128 0x10
 1519 04cb 9C000000 		.4byte	0x9c
 1520 04cf 13       		.uleb128 0x13
 1521 04d0 10       		.byte	0x10
 1522 04d1 0A       		.byte	0xa
 1523 04d2 E501     		.2byte	0x1e5
 1524 04d4 15050000 		.4byte	0x515
 1525 04d8 0C       		.uleb128 0xc
 1526 04d9 43435200 		.ascii	"CCR\000"
 1527 04dd 0A       		.byte	0xa
 1528 04de E701     		.2byte	0x1e7
 1529 04e0 85030000 		.4byte	0x385
 1530 04e4 02       		.byte	0x2
 1531 04e5 23       		.byte	0x23
 1532 04e6 00       		.uleb128 0
 1533 04e7 14       		.uleb128 0x14
 1534 04e8 14060000 		.4byte	.LASF71
 1535 04ec 0A       		.byte	0xa
 1536 04ed E801     		.2byte	0x1e8
 1537 04ef 85030000 		.4byte	0x385
 1538 04f3 02       		.byte	0x2
 1539 04f4 23       		.byte	0x23
 1540 04f5 04       		.uleb128 0x4
 1541 04f6 14       		.uleb128 0x14
 1542 04f7 25020000 		.4byte	.LASF72
 1543 04fb 0A       		.byte	0xa
 1544 04fc E901     		.2byte	0x1e9
 1545 04fe 85030000 		.4byte	0x385
 1546 0502 02       		.byte	0x2
 1547 0503 23       		.byte	0x23
 1548 0504 08       		.uleb128 0x8
 1549 0505 14       		.uleb128 0x14
 1550 0506 1A060000 		.4byte	.LASF73
 1551 050a 0A       		.byte	0xa
 1552 050b EA01     		.2byte	0x1ea
 1553 050d 85030000 		.4byte	0x385
 1554 0511 02       		.byte	0x2
 1555 0512 23       		.byte	0x23
 1556 0513 0C       		.uleb128 0xc
 1557 0514 00       		.byte	0
ARM GAS  C:\cygwin\tmp\cczUkFSk.s 			page 29


 1558 0515 15       		.uleb128 0x15
 1559 0516 78030000 		.4byte	.LASF74
 1560 051a 0A       		.byte	0xa
 1561 051b EB01     		.2byte	0x1eb
 1562 051d CF040000 		.4byte	0x4cf
 1563 0521 13       		.uleb128 0x13
 1564 0522 04       		.byte	0x4
 1565 0523 0A       		.byte	0xa
 1566 0524 4D02     		.2byte	0x24d
 1567 0526 49050000 		.4byte	0x549
 1568 052a 0C       		.uleb128 0xc
 1569 052b 73657400 		.ascii	"set\000"
 1570 052f 0A       		.byte	0xa
 1571 0530 4E02     		.2byte	0x24e
 1572 0532 78000000 		.4byte	0x78
 1573 0536 02       		.byte	0x2
 1574 0537 23       		.byte	0x23
 1575 0538 00       		.uleb128 0
 1576 0539 14       		.uleb128 0x14
 1577 053a 03030000 		.4byte	.LASF75
 1578 053e 0A       		.byte	0xa
 1579 053f 4F02     		.2byte	0x24f
 1580 0541 78000000 		.4byte	0x78
 1581 0545 02       		.byte	0x2
 1582 0546 23       		.byte	0x23
 1583 0547 02       		.uleb128 0x2
 1584 0548 00       		.byte	0
 1585 0549 16       		.uleb128 0x16
 1586 054a 04       		.byte	0x4
 1587 054b 0A       		.byte	0xa
 1588 054c 4B02     		.2byte	0x24b
 1589 054e 67050000 		.4byte	0x567
 1590 0552 17       		.uleb128 0x17
 1591 0553 5700     		.ascii	"W\000"
 1592 0555 0A       		.byte	0xa
 1593 0556 4C02     		.2byte	0x24c
 1594 0558 9C000000 		.4byte	0x9c
 1595 055c 17       		.uleb128 0x17
 1596 055d 4800     		.ascii	"H\000"
 1597 055f 0A       		.byte	0xa
 1598 0560 5002     		.2byte	0x250
 1599 0562 21050000 		.4byte	0x521
 1600 0566 00       		.byte	0
 1601 0567 13       		.uleb128 0x13
 1602 0568 28       		.byte	0x28
 1603 0569 0A       		.byte	0xa
 1604 056a 4302     		.2byte	0x243
 1605 056c 07060000 		.4byte	0x607
 1606 0570 14       		.uleb128 0x14
 1607 0571 51000000 		.4byte	.LASF76
 1608 0575 0A       		.byte	0xa
 1609 0576 4502     		.2byte	0x245
 1610 0578 85030000 		.4byte	0x385
 1611 057c 02       		.byte	0x2
 1612 057d 23       		.byte	0x23
 1613 057e 00       		.uleb128 0
 1614 057f 14       		.uleb128 0x14
ARM GAS  C:\cygwin\tmp\cczUkFSk.s 			page 30


 1615 0580 2C000000 		.4byte	.LASF77
 1616 0584 0A       		.byte	0xa
 1617 0585 4602     		.2byte	0x246
 1618 0587 85030000 		.4byte	0x385
 1619 058b 02       		.byte	0x2
 1620 058c 23       		.byte	0x23
 1621 058d 04       		.uleb128 0x4
 1622 058e 14       		.uleb128 0x14
 1623 058f DE010000 		.4byte	.LASF78
 1624 0593 0A       		.byte	0xa
 1625 0594 4702     		.2byte	0x247
 1626 0596 85030000 		.4byte	0x385
 1627 059a 02       		.byte	0x2
 1628 059b 23       		.byte	0x23
 1629 059c 08       		.uleb128 0x8
 1630 059d 14       		.uleb128 0x14
 1631 059e 7B000000 		.4byte	.LASF79
 1632 05a2 0A       		.byte	0xa
 1633 05a3 4802     		.2byte	0x248
 1634 05a5 85030000 		.4byte	0x385
 1635 05a9 02       		.byte	0x2
 1636 05aa 23       		.byte	0x23
 1637 05ab 0C       		.uleb128 0xc
 1638 05ac 0C       		.uleb128 0xc
 1639 05ad 49445200 		.ascii	"IDR\000"
 1640 05b1 0A       		.byte	0xa
 1641 05b2 4902     		.2byte	0x249
 1642 05b4 85030000 		.4byte	0x385
 1643 05b8 02       		.byte	0x2
 1644 05b9 23       		.byte	0x23
 1645 05ba 10       		.uleb128 0x10
 1646 05bb 0C       		.uleb128 0xc
 1647 05bc 4F445200 		.ascii	"ODR\000"
 1648 05c0 0A       		.byte	0xa
 1649 05c1 4A02     		.2byte	0x24a
 1650 05c3 85030000 		.4byte	0x385
 1651 05c7 02       		.byte	0x2
 1652 05c8 23       		.byte	0x23
 1653 05c9 14       		.uleb128 0x14
 1654 05ca 14       		.uleb128 0x14
 1655 05cb E8000000 		.4byte	.LASF80
 1656 05cf 0A       		.byte	0xa
 1657 05d0 5102     		.2byte	0x251
 1658 05d2 07060000 		.4byte	0x607
 1659 05d6 02       		.byte	0x2
 1660 05d7 23       		.byte	0x23
 1661 05d8 18       		.uleb128 0x18
 1662 05d9 14       		.uleb128 0x14
 1663 05da 46020000 		.4byte	.LASF81
 1664 05de 0A       		.byte	0xa
 1665 05df 5202     		.2byte	0x252
 1666 05e1 85030000 		.4byte	0x385
 1667 05e5 02       		.byte	0x2
 1668 05e6 23       		.byte	0x23
 1669 05e7 1C       		.uleb128 0x1c
 1670 05e8 14       		.uleb128 0x14
 1671 05e9 92030000 		.4byte	.LASF82
ARM GAS  C:\cygwin\tmp\cczUkFSk.s 			page 31


 1672 05ed 0A       		.byte	0xa
 1673 05ee 5302     		.2byte	0x253
 1674 05f0 85030000 		.4byte	0x385
 1675 05f4 02       		.byte	0x2
 1676 05f5 23       		.byte	0x23
 1677 05f6 20       		.uleb128 0x20
 1678 05f7 14       		.uleb128 0x14
 1679 05f8 87060000 		.4byte	.LASF83
 1680 05fc 0A       		.byte	0xa
 1681 05fd 5402     		.2byte	0x254
 1682 05ff 85030000 		.4byte	0x385
 1683 0603 02       		.byte	0x2
 1684 0604 23       		.byte	0x23
 1685 0605 24       		.uleb128 0x24
 1686 0606 00       		.byte	0
 1687 0607 0D       		.uleb128 0xd
 1688 0608 49050000 		.4byte	0x549
 1689 060c 15       		.uleb128 0x15
 1690 060d B3010000 		.4byte	.LASF84
 1691 0611 0A       		.byte	0xa
 1692 0612 5502     		.2byte	0x255
 1693 0614 67050000 		.4byte	0x567
 1694 0618 13       		.uleb128 0x13
 1695 0619 24       		.byte	0x24
 1696 061a 0A       		.byte	0xa
 1697 061b DD02     		.2byte	0x2dd
 1698 061d 2E070000 		.4byte	0x72e
 1699 0621 0C       		.uleb128 0xc
 1700 0622 43523100 		.ascii	"CR1\000"
 1701 0626 0A       		.byte	0xa
 1702 0627 DF02     		.2byte	0x2df
 1703 0629 C0040000 		.4byte	0x4c0
 1704 062d 02       		.byte	0x2
 1705 062e 23       		.byte	0x23
 1706 062f 00       		.uleb128 0
 1707 0630 14       		.uleb128 0x14
 1708 0631 9E030000 		.4byte	.LASF85
 1709 0635 0A       		.byte	0xa
 1710 0636 E002     		.2byte	0x2e0
 1711 0638 78000000 		.4byte	0x78
 1712 063c 02       		.byte	0x2
 1713 063d 23       		.byte	0x23
 1714 063e 02       		.uleb128 0x2
 1715 063f 0C       		.uleb128 0xc
 1716 0640 43523200 		.ascii	"CR2\000"
 1717 0644 0A       		.byte	0xa
 1718 0645 E102     		.2byte	0x2e1
 1719 0647 C0040000 		.4byte	0x4c0
 1720 064b 02       		.byte	0x2
 1721 064c 23       		.byte	0x23
 1722 064d 04       		.uleb128 0x4
 1723 064e 14       		.uleb128 0x14
 1724 064f A8030000 		.4byte	.LASF86
 1725 0653 0A       		.byte	0xa
 1726 0654 E202     		.2byte	0x2e2
 1727 0656 78000000 		.4byte	0x78
 1728 065a 02       		.byte	0x2
ARM GAS  C:\cygwin\tmp\cczUkFSk.s 			page 32


 1729 065b 23       		.byte	0x23
 1730 065c 06       		.uleb128 0x6
 1731 065d 0C       		.uleb128 0xc
 1732 065e 535200   		.ascii	"SR\000"
 1733 0661 0A       		.byte	0xa
 1734 0662 E302     		.2byte	0x2e3
 1735 0664 C0040000 		.4byte	0x4c0
 1736 0668 02       		.byte	0x2
 1737 0669 23       		.byte	0x23
 1738 066a 08       		.uleb128 0x8
 1739 066b 14       		.uleb128 0x14
 1740 066c B2030000 		.4byte	.LASF87
 1741 0670 0A       		.byte	0xa
 1742 0671 E402     		.2byte	0x2e4
 1743 0673 78000000 		.4byte	0x78
 1744 0677 02       		.byte	0x2
 1745 0678 23       		.byte	0x23
 1746 0679 0A       		.uleb128 0xa
 1747 067a 0C       		.uleb128 0xc
 1748 067b 445200   		.ascii	"DR\000"
 1749 067e 0A       		.byte	0xa
 1750 067f E502     		.2byte	0x2e5
 1751 0681 C0040000 		.4byte	0x4c0
 1752 0685 02       		.byte	0x2
 1753 0686 23       		.byte	0x23
 1754 0687 0C       		.uleb128 0xc
 1755 0688 14       		.uleb128 0x14
 1756 0689 BC030000 		.4byte	.LASF88
 1757 068d 0A       		.byte	0xa
 1758 068e E602     		.2byte	0x2e6
 1759 0690 78000000 		.4byte	0x78
 1760 0694 02       		.byte	0x2
 1761 0695 23       		.byte	0x23
 1762 0696 0E       		.uleb128 0xe
 1763 0697 14       		.uleb128 0x14
 1764 0698 8C030000 		.4byte	.LASF89
 1765 069c 0A       		.byte	0xa
 1766 069d E702     		.2byte	0x2e7
 1767 069f C0040000 		.4byte	0x4c0
 1768 06a3 02       		.byte	0x2
 1769 06a4 23       		.byte	0x23
 1770 06a5 10       		.uleb128 0x10
 1771 06a6 14       		.uleb128 0x14
 1772 06a7 C6030000 		.4byte	.LASF90
 1773 06ab 0A       		.byte	0xa
 1774 06ac E802     		.2byte	0x2e8
 1775 06ae 78000000 		.4byte	0x78
 1776 06b2 02       		.byte	0x2
 1777 06b3 23       		.byte	0x23
 1778 06b4 12       		.uleb128 0x12
 1779 06b5 14       		.uleb128 0x14
 1780 06b6 1F060000 		.4byte	.LASF91
 1781 06ba 0A       		.byte	0xa
 1782 06bb E902     		.2byte	0x2e9
 1783 06bd C0040000 		.4byte	0x4c0
 1784 06c1 02       		.byte	0x2
 1785 06c2 23       		.byte	0x23
ARM GAS  C:\cygwin\tmp\cczUkFSk.s 			page 33


 1786 06c3 14       		.uleb128 0x14
 1787 06c4 14       		.uleb128 0x14
 1788 06c5 C0050000 		.4byte	.LASF92
 1789 06c9 0A       		.byte	0xa
 1790 06ca EA02     		.2byte	0x2ea
 1791 06cc 78000000 		.4byte	0x78
 1792 06d0 02       		.byte	0x2
 1793 06d1 23       		.byte	0x23
 1794 06d2 16       		.uleb128 0x16
 1795 06d3 14       		.uleb128 0x14
 1796 06d4 97030000 		.4byte	.LASF93
 1797 06d8 0A       		.byte	0xa
 1798 06d9 EB02     		.2byte	0x2eb
 1799 06db C0040000 		.4byte	0x4c0
 1800 06df 02       		.byte	0x2
 1801 06e0 23       		.byte	0x23
 1802 06e1 18       		.uleb128 0x18
 1803 06e2 14       		.uleb128 0x14
 1804 06e3 D7030000 		.4byte	.LASF94
 1805 06e7 0A       		.byte	0xa
 1806 06e8 EC02     		.2byte	0x2ec
 1807 06ea 78000000 		.4byte	0x78
 1808 06ee 02       		.byte	0x2
 1809 06ef 23       		.byte	0x23
 1810 06f0 1A       		.uleb128 0x1a
 1811 06f1 14       		.uleb128 0x14
 1812 06f2 1C030000 		.4byte	.LASF95
 1813 06f6 0A       		.byte	0xa
 1814 06f7 ED02     		.2byte	0x2ed
 1815 06f9 C0040000 		.4byte	0x4c0
 1816 06fd 02       		.byte	0x2
 1817 06fe 23       		.byte	0x23
 1818 06ff 1C       		.uleb128 0x1c
 1819 0700 14       		.uleb128 0x14
 1820 0701 E1030000 		.4byte	.LASF96
 1821 0705 0A       		.byte	0xa
 1822 0706 EE02     		.2byte	0x2ee
 1823 0708 78000000 		.4byte	0x78
 1824 070c 02       		.byte	0x2
 1825 070d 23       		.byte	0x23
 1826 070e 1E       		.uleb128 0x1e
 1827 070f 14       		.uleb128 0x14
 1828 0710 EB020000 		.4byte	.LASF97
 1829 0714 0A       		.byte	0xa
 1830 0715 EF02     		.2byte	0x2ef
 1831 0717 C0040000 		.4byte	0x4c0
 1832 071b 02       		.byte	0x2
 1833 071c 23       		.byte	0x23
 1834 071d 20       		.uleb128 0x20
 1835 071e 14       		.uleb128 0x14
 1836 071f EB030000 		.4byte	.LASF98
 1837 0723 0A       		.byte	0xa
 1838 0724 F002     		.2byte	0x2f0
 1839 0726 78000000 		.4byte	0x78
 1840 072a 02       		.byte	0x2
 1841 072b 23       		.byte	0x23
 1842 072c 22       		.uleb128 0x22
ARM GAS  C:\cygwin\tmp\cczUkFSk.s 			page 34


 1843 072d 00       		.byte	0
 1844 072e 15       		.uleb128 0x15
 1845 072f D4040000 		.4byte	.LASF99
 1846 0733 0A       		.byte	0xa
 1847 0734 F102     		.2byte	0x2f1
 1848 0736 18060000 		.4byte	0x618
 1849 073a 08       		.uleb128 0x8
 1850 073b 0C       		.byte	0xc
 1851 073c 0B       		.byte	0xb
 1852 073d C5       		.byte	0xc5
 1853 073e 89070000 		.4byte	0x789
 1854 0742 06       		.uleb128 0x6
 1855 0743 84040000 		.4byte	.LASF100
 1856 0747 0B       		.byte	0xb
 1857 0748 C6       		.byte	0xc6
 1858 0749 89070000 		.4byte	0x789
 1859 074d 02       		.byte	0x2
 1860 074e 23       		.byte	0x23
 1861 074f 00       		.uleb128 0
 1862 0750 06       		.uleb128 0x6
 1863 0751 97040000 		.4byte	.LASF101
 1864 0755 0B       		.byte	0xb
 1865 0756 C7       		.byte	0xc7
 1866 0757 8F070000 		.4byte	0x78f
 1867 075b 02       		.byte	0x2
 1868 075c 23       		.byte	0x23
 1869 075d 04       		.uleb128 0x4
 1870 075e 06       		.uleb128 0x6
 1871 075f 4B020000 		.4byte	.LASF102
 1872 0763 0B       		.byte	0xb
 1873 0764 C8       		.byte	0xc8
 1874 0765 54000000 		.4byte	0x54
 1875 0769 02       		.byte	0x2
 1876 076a 23       		.byte	0x23
 1877 076b 08       		.uleb128 0x8
 1878 076c 06       		.uleb128 0x6
 1879 076d F7010000 		.4byte	.LASF103
 1880 0771 0B       		.byte	0xb
 1881 0772 CA       		.byte	0xca
 1882 0773 54000000 		.4byte	0x54
 1883 0777 02       		.byte	0x2
 1884 0778 23       		.byte	0x23
 1885 0779 09       		.uleb128 0x9
 1886 077a 06       		.uleb128 0x6
 1887 077b 8A000000 		.4byte	.LASF104
 1888 077f 0B       		.byte	0xb
 1889 0780 CB       		.byte	0xcb
 1890 0781 54000000 		.4byte	0x54
 1891 0785 02       		.byte	0x2
 1892 0786 23       		.byte	0x23
 1893 0787 0A       		.uleb128 0xa
 1894 0788 00       		.byte	0
 1895 0789 09       		.uleb128 0x9
 1896 078a 04       		.byte	0x4
 1897 078b 15050000 		.4byte	0x515
 1898 078f 09       		.uleb128 0x9
 1899 0790 04       		.byte	0x4
ARM GAS  C:\cygwin\tmp\cczUkFSk.s 			page 35


 1900 0791 85030000 		.4byte	0x385
 1901 0795 03       		.uleb128 0x3
 1902 0796 1F040000 		.4byte	.LASF105
 1903 079a 0B       		.byte	0xb
 1904 079b CC       		.byte	0xcc
 1905 079c 3A070000 		.4byte	0x73a
 1906 07a0 03       		.uleb128 0x3
 1907 07a1 3E000000 		.4byte	.LASF106
 1908 07a5 0C       		.byte	0xc
 1909 07a6 EE       		.byte	0xee
 1910 07a7 9C000000 		.4byte	0x9c
 1911 07ab 03       		.uleb128 0x3
 1912 07ac A4050000 		.4byte	.LASF107
 1913 07b0 0C       		.byte	0xc
 1914 07b1 FB       		.byte	0xfb
 1915 07b2 B6070000 		.4byte	0x7b6
 1916 07b6 09       		.uleb128 0x9
 1917 07b7 04       		.byte	0x4
 1918 07b8 0C060000 		.4byte	0x60c
 1919 07bc 18       		.uleb128 0x18
 1920 07bd 01       		.byte	0x1
 1921 07be 0D       		.byte	0xd
 1922 07bf 4E       		.byte	0x4e
 1923 07c0 E3070000 		.4byte	0x7e3
 1924 07c4 19       		.uleb128 0x19
 1925 07c5 DB050000 		.4byte	.LASF108
 1926 07c9 00       		.sleb128 0
 1927 07ca 19       		.uleb128 0x19
 1928 07cb F7000000 		.4byte	.LASF109
 1929 07cf 01       		.sleb128 1
 1930 07d0 19       		.uleb128 0x19
 1931 07d1 D1050000 		.4byte	.LASF110
 1932 07d5 02       		.sleb128 2
 1933 07d6 19       		.uleb128 0x19
 1934 07d7 33000000 		.4byte	.LASF111
 1935 07db 03       		.sleb128 3
 1936 07dc 19       		.uleb128 0x19
 1937 07dd E5040000 		.4byte	.LASF112
 1938 07e1 04       		.sleb128 4
 1939 07e2 00       		.byte	0
 1940 07e3 03       		.uleb128 0x3
 1941 07e4 67050000 		.4byte	.LASF113
 1942 07e8 0D       		.byte	0xd
 1943 07e9 54       		.byte	0x54
 1944 07ea BC070000 		.4byte	0x7bc
 1945 07ee 15       		.uleb128 0x15
 1946 07ef 91000000 		.4byte	.LASF114
 1947 07f3 0E       		.byte	0xe
 1948 07f4 2701     		.2byte	0x127
 1949 07f6 FA070000 		.4byte	0x7fa
 1950 07fa 0B       		.uleb128 0xb
 1951 07fb 91000000 		.4byte	.LASF114
 1952 07ff 30       		.byte	0x30
 1953 0800 0E       		.byte	0xe
 1954 0801 4F01     		.2byte	0x14f
 1955 0803 8F080000 		.4byte	0x88f
 1956 0807 14       		.uleb128 0x14
ARM GAS  C:\cygwin\tmp\cczUkFSk.s 			page 36


 1957 0808 3F010000 		.4byte	.LASF115
 1958 080c 0E       		.byte	0xe
 1959 080d 5301     		.2byte	0x153
 1960 080f E3070000 		.4byte	0x7e3
 1961 0813 02       		.byte	0x2
 1962 0814 23       		.byte	0x23
 1963 0815 00       		.uleb128 0
 1964 0816 14       		.uleb128 0x14
 1965 0817 44050000 		.4byte	.LASF116
 1966 081b 0E       		.byte	0xe
 1967 081c 5701     		.2byte	0x157
 1968 081e 14090000 		.4byte	0x914
 1969 0822 02       		.byte	0x2
 1970 0823 23       		.byte	0x23
 1971 0824 04       		.uleb128 0x4
 1972 0825 14       		.uleb128 0x14
 1973 0826 64010000 		.4byte	.LASF117
 1974 082a 0E       		.byte	0xe
 1975 082b 5C01     		.2byte	0x15c
 1976 082d 89020000 		.4byte	0x289
 1977 0831 02       		.byte	0x2
 1978 0832 23       		.byte	0x23
 1979 0833 08       		.uleb128 0x8
 1980 0834 14       		.uleb128 0x14
 1981 0835 FD030000 		.4byte	.LASF118
 1982 0839 0E       		.byte	0xe
 1983 083a 6301     		.2byte	0x163
 1984 083c 3B040000 		.4byte	0x43b
 1985 0840 02       		.byte	0x2
 1986 0841 23       		.byte	0x23
 1987 0842 0C       		.uleb128 0xc
 1988 0843 0C       		.uleb128 0xc
 1989 0844 73706900 		.ascii	"spi\000"
 1990 0848 0E       		.byte	0xe
 1991 0849 6F01     		.2byte	0x16f
 1992 084b 1F090000 		.4byte	0x91f
 1993 084f 02       		.byte	0x2
 1994 0850 23       		.byte	0x23
 1995 0851 1C       		.uleb128 0x1c
 1996 0852 14       		.uleb128 0x14
 1997 0853 4B000000 		.4byte	.LASF119
 1998 0857 0E       		.byte	0xe
 1999 0858 7301     		.2byte	0x173
 2000 085a 25090000 		.4byte	0x925
 2001 085e 02       		.byte	0x2
 2002 085f 23       		.byte	0x23
 2003 0860 20       		.uleb128 0x20
 2004 0861 14       		.uleb128 0x14
 2005 0862 C0010000 		.4byte	.LASF120
 2006 0866 0E       		.byte	0xe
 2007 0867 7701     		.2byte	0x177
 2008 0869 25090000 		.4byte	0x925
 2009 086d 02       		.byte	0x2
 2010 086e 23       		.byte	0x23
 2011 086f 24       		.uleb128 0x24
 2012 0870 14       		.uleb128 0x14
 2013 0871 A9010000 		.4byte	.LASF121
ARM GAS  C:\cygwin\tmp\cczUkFSk.s 			page 37


 2014 0875 0E       		.byte	0xe
 2015 0876 7B01     		.2byte	0x17b
 2016 0878 9C000000 		.4byte	0x9c
 2017 087c 02       		.byte	0x2
 2018 087d 23       		.byte	0x23
 2019 087e 28       		.uleb128 0x28
 2020 087f 14       		.uleb128 0x14
 2021 0880 48030000 		.4byte	.LASF122
 2022 0884 0E       		.byte	0xe
 2023 0885 7F01     		.2byte	0x17f
 2024 0887 9C000000 		.4byte	0x9c
 2025 088b 02       		.byte	0x2
 2026 088c 23       		.byte	0x23
 2027 088d 2C       		.uleb128 0x2c
 2028 088e 00       		.byte	0
 2029 088f 15       		.uleb128 0x15
 2030 0890 31010000 		.4byte	.LASF123
 2031 0894 0E       		.byte	0xe
 2032 0895 2F01     		.2byte	0x12f
 2033 0897 9B080000 		.4byte	0x89b
 2034 089b 09       		.uleb128 0x9
 2035 089c 04       		.byte	0x4
 2036 089d A1080000 		.4byte	0x8a1
 2037 08a1 1A       		.uleb128 0x1a
 2038 08a2 01       		.byte	0x1
 2039 08a3 AD080000 		.4byte	0x8ad
 2040 08a7 12       		.uleb128 0x12
 2041 08a8 AD080000 		.4byte	0x8ad
 2042 08ac 00       		.byte	0
 2043 08ad 09       		.uleb128 0x9
 2044 08ae 04       		.byte	0x4
 2045 08af EE070000 		.4byte	0x7ee
 2046 08b3 13       		.uleb128 0x13
 2047 08b4 10       		.byte	0x10
 2048 08b5 0E       		.byte	0xe
 2049 08b6 3401     		.2byte	0x134
 2050 08b8 08090000 		.4byte	0x908
 2051 08bc 14       		.uleb128 0x14
 2052 08bd A2010000 		.4byte	.LASF124
 2053 08c1 0E       		.byte	0xe
 2054 08c2 3801     		.2byte	0x138
 2055 08c4 8F080000 		.4byte	0x88f
 2056 08c8 02       		.byte	0x2
 2057 08c9 23       		.byte	0x23
 2058 08ca 00       		.uleb128 0
 2059 08cb 14       		.uleb128 0x14
 2060 08cc 9B000000 		.4byte	.LASF125
 2061 08d0 0E       		.byte	0xe
 2062 08d1 3D01     		.2byte	0x13d
 2063 08d3 AB070000 		.4byte	0x7ab
 2064 08d7 02       		.byte	0x2
 2065 08d8 23       		.byte	0x23
 2066 08d9 04       		.uleb128 0x4
 2067 08da 14       		.uleb128 0x14
 2068 08db C0000000 		.4byte	.LASF126
 2069 08df 0E       		.byte	0xe
 2070 08e0 4101     		.2byte	0x141
ARM GAS  C:\cygwin\tmp\cczUkFSk.s 			page 38


 2071 08e2 78000000 		.4byte	0x78
 2072 08e6 02       		.byte	0x2
 2073 08e7 23       		.byte	0x23
 2074 08e8 08       		.uleb128 0x8
 2075 08e9 0C       		.uleb128 0xc
 2076 08ea 63723100 		.ascii	"cr1\000"
 2077 08ee 0E       		.byte	0xe
 2078 08ef 4501     		.2byte	0x145
 2079 08f1 78000000 		.4byte	0x78
 2080 08f5 02       		.byte	0x2
 2081 08f6 23       		.byte	0x23
 2082 08f7 0A       		.uleb128 0xa
 2083 08f8 0C       		.uleb128 0xc
 2084 08f9 63723200 		.ascii	"cr2\000"
 2085 08fd 0E       		.byte	0xe
 2086 08fe 4901     		.2byte	0x149
 2087 0900 78000000 		.4byte	0x78
 2088 0904 02       		.byte	0x2
 2089 0905 23       		.byte	0x23
 2090 0906 0C       		.uleb128 0xc
 2091 0907 00       		.byte	0
 2092 0908 15       		.uleb128 0x15
 2093 0909 72060000 		.4byte	.LASF127
 2094 090d 0E       		.byte	0xe
 2095 090e 4A01     		.2byte	0x14a
 2096 0910 B3080000 		.4byte	0x8b3
 2097 0914 09       		.uleb128 0x9
 2098 0915 04       		.byte	0x4
 2099 0916 1A090000 		.4byte	0x91a
 2100 091a 10       		.uleb128 0x10
 2101 091b 08090000 		.4byte	0x908
 2102 091f 09       		.uleb128 0x9
 2103 0920 04       		.byte	0x4
 2104 0921 2E070000 		.4byte	0x72e
 2105 0925 09       		.uleb128 0x9
 2106 0926 04       		.byte	0x4
 2107 0927 2B090000 		.4byte	0x92b
 2108 092b 10       		.uleb128 0x10
 2109 092c 95070000 		.4byte	0x795
 2110 0930 1B       		.uleb128 0x1b
 2111 0931 44495200 		.ascii	"DIR\000"
 2112 0935 01       		.byte	0x1
 2113 0936 01       		.byte	0x1
 2114 0937 2F       		.byte	0x2f
 2115 0938 61090000 		.4byte	0x961
 2116 093c 1C       		.uleb128 0x1c
 2117 093d 4E00     		.ascii	"N\000"
 2118 093f 09       		.sleb128 9
 2119 0940 1C       		.uleb128 0x1c
 2120 0941 4E4500   		.ascii	"NE\000"
 2121 0944 0A       		.sleb128 10
 2122 0945 1C       		.uleb128 0x1c
 2123 0946 4500     		.ascii	"E\000"
 2124 0948 0B       		.sleb128 11
 2125 0949 1C       		.uleb128 0x1c
 2126 094a 534500   		.ascii	"SE\000"
 2127 094d 0C       		.sleb128 12
ARM GAS  C:\cygwin\tmp\cczUkFSk.s 			page 39


 2128 094e 1C       		.uleb128 0x1c
 2129 094f 5300     		.ascii	"S\000"
 2130 0951 0D       		.sleb128 13
 2131 0952 1C       		.uleb128 0x1c
 2132 0953 535700   		.ascii	"SW\000"
 2133 0956 0E       		.sleb128 14
 2134 0957 1C       		.uleb128 0x1c
 2135 0958 5700     		.ascii	"W\000"
 2136 095a 0F       		.sleb128 15
 2137 095b 1C       		.uleb128 0x1c
 2138 095c 4E5700   		.ascii	"NW\000"
 2139 095f 08       		.sleb128 8
 2140 0960 00       		.byte	0
 2141 0961 03       		.uleb128 0x3
 2142 0962 26000000 		.4byte	.LASF128
 2143 0966 01       		.byte	0x1
 2144 0967 38       		.byte	0x38
 2145 0968 30090000 		.4byte	0x930
 2146 096c 1D       		.uleb128 0x1d
 2147 096d 01       		.byte	0x1
 2148 096e 6B010000 		.4byte	.LASF172
 2149 0972 01       		.byte	0x1
 2150 0973 3A       		.byte	0x3a
 2151 0974 01       		.byte	0x1
 2152 0975 C7000000 		.4byte	0xc7
 2153 0979 01       		.byte	0x1
 2154 097a 8A090000 		.4byte	0x98a
 2155 097e 1E       		.uleb128 0x1e
 2156 097f 706F7300 		.ascii	"pos\000"
 2157 0983 01       		.byte	0x1
 2158 0984 3A       		.byte	0x3a
 2159 0985 61090000 		.4byte	0x961
 2160 0989 00       		.byte	0
 2161 098a 1F       		.uleb128 0x1f
 2162 098b 5A050000 		.4byte	.LASF137
 2163 098f 01       		.byte	0x1
 2164 0990 0301     		.2byte	0x103
 2165 0992 01       		.byte	0x1
 2166 0993 05010000 		.4byte	0x105
 2167 0997 00000000 		.4byte	.LFB123
 2168 099b 24000000 		.4byte	.LFE123
 2169 099f 00000000 		.4byte	.LLST0
 2170 09a3 01       		.byte	0x1
 2171 09a4 C9090000 		.4byte	0x9c9
 2172 09a8 20       		.uleb128 0x20
 2173 09a9 7000     		.ascii	"p\000"
 2174 09ab 01       		.byte	0x1
 2175 09ac 0301     		.2byte	0x103
 2176 09ae C7020000 		.4byte	0x2c7
 2177 09b2 20000000 		.4byte	.LLST1
 2178 09b6 21       		.uleb128 0x21
 2179 09b7 10000000 		.4byte	.LVL2
 2180 09bb C20F0000 		.4byte	0xfc2
 2181 09bf 21       		.uleb128 0x21
 2182 09c0 16000000 		.4byte	.LVL3
 2183 09c4 D70F0000 		.4byte	0xfd7
 2184 09c8 00       		.byte	0
ARM GAS  C:\cygwin\tmp\cczUkFSk.s 			page 40


 2185 09c9 22       		.uleb128 0x22
 2186 09ca 6C090000 		.4byte	0x96c
 2187 09ce 00000000 		.4byte	.LFB118
 2188 09d2 04000000 		.4byte	.LFE118
 2189 09d6 02       		.byte	0x2
 2190 09d7 7D       		.byte	0x7d
 2191 09d8 00       		.sleb128 0
 2192 09d9 01       		.byte	0x1
 2193 09da E8090000 		.4byte	0x9e8
 2194 09de 23       		.uleb128 0x23
 2195 09df 7E090000 		.4byte	0x97e
 2196 09e3 41000000 		.4byte	.LLST2
 2197 09e7 00       		.byte	0
 2198 09e8 24       		.uleb128 0x24
 2199 09e9 01       		.byte	0x1
 2200 09ea 8B010000 		.4byte	.LASF131
 2201 09ee 01       		.byte	0x1
 2202 09ef 46       		.byte	0x46
 2203 09f0 01       		.byte	0x1
 2204 09f1 00000000 		.4byte	.LFB119
 2205 09f5 44000000 		.4byte	.LFE119
 2206 09f9 60000000 		.4byte	.LLST3
 2207 09fd 01       		.byte	0x1
 2208 09fe 580A0000 		.4byte	0xa58
 2209 0a02 25       		.uleb128 0x25
 2210 0a03 706F7300 		.ascii	"pos\000"
 2211 0a07 01       		.byte	0x1
 2212 0a08 46       		.byte	0x46
 2213 0a09 61090000 		.4byte	0x961
 2214 0a0d 80000000 		.4byte	.LLST4
 2215 0a11 26       		.uleb128 0x26
 2216 0a12 9C050000 		.4byte	.LASF129
 2217 0a16 01       		.byte	0x1
 2218 0a17 48       		.byte	0x48
 2219 0a18 54000000 		.4byte	0x54
 2220 0a1c 05       		.byte	0x5
 2221 0a1d 03       		.byte	0x3
 2222 0a1e 00000000 		.4byte	cur_pos.6469
 2223 0a22 26       		.uleb128 0x26
 2224 0a23 5E040000 		.4byte	.LASF130
 2225 0a27 01       		.byte	0x1
 2226 0a28 48       		.byte	0x48
 2227 0a29 54000000 		.4byte	0x54
 2228 0a2d 05       		.byte	0x5
 2229 0a2e 03       		.byte	0x3
 2230 0a2f 00000000 		.4byte	prev_pos.6470
 2231 0a33 27       		.uleb128 0x27
 2232 0a34 26000000 		.4byte	.LVL8
 2233 0a38 EC0F0000 		.4byte	0xfec
 2234 0a3c 470A0000 		.4byte	0xa47
 2235 0a40 28       		.uleb128 0x28
 2236 0a41 01       		.byte	0x1
 2237 0a42 50       		.byte	0x50
 2238 0a43 02       		.byte	0x2
 2239 0a44 08       		.byte	0x8
 2240 0a45 50       		.byte	0x50
 2241 0a46 00       		.byte	0
ARM GAS  C:\cygwin\tmp\cczUkFSk.s 			page 41


 2242 0a47 29       		.uleb128 0x29
 2243 0a48 36000000 		.4byte	.LVL9
 2244 0a4c EC0F0000 		.4byte	0xfec
 2245 0a50 28       		.uleb128 0x28
 2246 0a51 01       		.byte	0x1
 2247 0a52 50       		.byte	0x50
 2248 0a53 02       		.byte	0x2
 2249 0a54 08       		.byte	0x8
 2250 0a55 50       		.byte	0x50
 2251 0a56 00       		.byte	0
 2252 0a57 00       		.byte	0
 2253 0a58 2A       		.uleb128 0x2a
 2254 0a59 01       		.byte	0x1
 2255 0a5a 4B050000 		.4byte	.LASF132
 2256 0a5e 01       		.byte	0x1
 2257 0a5f 66       		.byte	0x66
 2258 0a60 01       		.byte	0x1
 2259 0a61 00000000 		.4byte	.LFB120
 2260 0a65 A8000000 		.4byte	.LFE120
 2261 0a69 02       		.byte	0x2
 2262 0a6a 7D       		.byte	0x7d
 2263 0a6b 00       		.sleb128 0
 2264 0a6c 01       		.byte	0x1
 2265 0a6d 0E0B0000 		.4byte	0xb0e
 2266 0a71 2B       		.uleb128 0x2b
 2267 0a72 78000000 		.4byte	.LVL11
 2268 0a76 01       		.byte	0x1
 2269 0a77 E8090000 		.4byte	0x9e8
 2270 0a7b 850A0000 		.4byte	0xa85
 2271 0a7f 28       		.uleb128 0x28
 2272 0a80 01       		.byte	0x1
 2273 0a81 50       		.byte	0x50
 2274 0a82 01       		.byte	0x1
 2275 0a83 39       		.byte	0x39
 2276 0a84 00       		.byte	0
 2277 0a85 2B       		.uleb128 0x2b
 2278 0a86 7E000000 		.4byte	.LVL12
 2279 0a8a 01       		.byte	0x1
 2280 0a8b E8090000 		.4byte	0x9e8
 2281 0a8f 990A0000 		.4byte	0xa99
 2282 0a93 28       		.uleb128 0x28
 2283 0a94 01       		.byte	0x1
 2284 0a95 50       		.byte	0x50
 2285 0a96 01       		.byte	0x1
 2286 0a97 3D       		.byte	0x3d
 2287 0a98 00       		.byte	0
 2288 0a99 2B       		.uleb128 0x2b
 2289 0a9a 84000000 		.4byte	.LVL13
 2290 0a9e 01       		.byte	0x1
 2291 0a9f E8090000 		.4byte	0x9e8
 2292 0aa3 AD0A0000 		.4byte	0xaad
 2293 0aa7 28       		.uleb128 0x28
 2294 0aa8 01       		.byte	0x1
 2295 0aa9 50       		.byte	0x50
 2296 0aaa 01       		.byte	0x1
 2297 0aab 3A       		.byte	0x3a
 2298 0aac 00       		.byte	0
ARM GAS  C:\cygwin\tmp\cczUkFSk.s 			page 42


 2299 0aad 2B       		.uleb128 0x2b
 2300 0aae 8A000000 		.4byte	.LVL14
 2301 0ab2 01       		.byte	0x1
 2302 0ab3 E8090000 		.4byte	0x9e8
 2303 0ab7 C10A0000 		.4byte	0xac1
 2304 0abb 28       		.uleb128 0x28
 2305 0abc 01       		.byte	0x1
 2306 0abd 50       		.byte	0x50
 2307 0abe 01       		.byte	0x1
 2308 0abf 3B       		.byte	0x3b
 2309 0ac0 00       		.byte	0
 2310 0ac1 2B       		.uleb128 0x2b
 2311 0ac2 90000000 		.4byte	.LVL15
 2312 0ac6 01       		.byte	0x1
 2313 0ac7 E8090000 		.4byte	0x9e8
 2314 0acb D50A0000 		.4byte	0xad5
 2315 0acf 28       		.uleb128 0x28
 2316 0ad0 01       		.byte	0x1
 2317 0ad1 50       		.byte	0x50
 2318 0ad2 01       		.byte	0x1
 2319 0ad3 3C       		.byte	0x3c
 2320 0ad4 00       		.byte	0
 2321 0ad5 2B       		.uleb128 0x2b
 2322 0ad6 96000000 		.4byte	.LVL16
 2323 0ada 01       		.byte	0x1
 2324 0adb E8090000 		.4byte	0x9e8
 2325 0adf E90A0000 		.4byte	0xae9
 2326 0ae3 28       		.uleb128 0x28
 2327 0ae4 01       		.byte	0x1
 2328 0ae5 50       		.byte	0x50
 2329 0ae6 01       		.byte	0x1
 2330 0ae7 38       		.byte	0x38
 2331 0ae8 00       		.byte	0
 2332 0ae9 2B       		.uleb128 0x2b
 2333 0aea 9C000000 		.4byte	.LVL17
 2334 0aee 01       		.byte	0x1
 2335 0aef E8090000 		.4byte	0x9e8
 2336 0af3 FD0A0000 		.4byte	0xafd
 2337 0af7 28       		.uleb128 0x28
 2338 0af8 01       		.byte	0x1
 2339 0af9 50       		.byte	0x50
 2340 0afa 01       		.byte	0x1
 2341 0afb 3E       		.byte	0x3e
 2342 0afc 00       		.byte	0
 2343 0afd 2C       		.uleb128 0x2c
 2344 0afe A2000000 		.4byte	.LVL18
 2345 0b02 01       		.byte	0x1
 2346 0b03 E8090000 		.4byte	0x9e8
 2347 0b07 28       		.uleb128 0x28
 2348 0b08 01       		.byte	0x1
 2349 0b09 50       		.byte	0x50
 2350 0b0a 01       		.byte	0x1
 2351 0b0b 3F       		.byte	0x3f
 2352 0b0c 00       		.byte	0
 2353 0b0d 00       		.byte	0
 2354 0b0e 24       		.uleb128 0x24
 2355 0b0f 01       		.byte	0x1
ARM GAS  C:\cygwin\tmp\cczUkFSk.s 			page 43


 2356 0b10 08010000 		.4byte	.LASF133
 2357 0b14 01       		.byte	0x1
 2358 0b15 AF       		.byte	0xaf
 2359 0b16 01       		.byte	0x1
 2360 0b17 00000000 		.4byte	.LFB121
 2361 0b1b 44000000 		.4byte	.LFE121
 2362 0b1f B0000000 		.4byte	.LLST5
 2363 0b23 01       		.byte	0x1
 2364 0b24 690B0000 		.4byte	0xb69
 2365 0b28 2D       		.uleb128 0x2d
 2366 0b29 35020000 		.4byte	.LASF134
 2367 0b2d 01       		.byte	0x1
 2368 0b2e AF       		.byte	0xaf
 2369 0b2f 54000000 		.4byte	0x54
 2370 0b33 01       		.byte	0x1
 2371 0b34 50       		.byte	0x50
 2372 0b35 2E       		.uleb128 0x2e
 2373 0b36 14030000 		.4byte	.LASF135
 2374 0b3a 01       		.byte	0x1
 2375 0b3b AF       		.byte	0xaf
 2376 0b3c 54000000 		.4byte	0x54
 2377 0b40 DC000000 		.4byte	.LLST6
 2378 0b44 2F       		.uleb128 0x2f
 2379 0b45 52020000 		.4byte	.LASF136
 2380 0b49 01       		.byte	0x1
 2381 0b4a B1       		.byte	0xb1
 2382 0b4b 54000000 		.4byte	0x54
 2383 0b4f 16010000 		.4byte	.LLST7
 2384 0b53 29       		.uleb128 0x29
 2385 0b54 3E000000 		.4byte	.LVL24
 2386 0b58 01100000 		.4byte	0x1001
 2387 0b5c 28       		.uleb128 0x28
 2388 0b5d 01       		.byte	0x1
 2389 0b5e 52       		.byte	0x52
 2390 0b5f 01       		.byte	0x1
 2391 0b60 31       		.byte	0x31
 2392 0b61 28       		.uleb128 0x28
 2393 0b62 01       		.byte	0x1
 2394 0b63 51       		.byte	0x51
 2395 0b64 02       		.byte	0x2
 2396 0b65 91       		.byte	0x91
 2397 0b66 6F       		.sleb128 -17
 2398 0b67 00       		.byte	0
 2399 0b68 00       		.byte	0
 2400 0b69 30       		.uleb128 0x30
 2401 0b6a 57010000 		.4byte	.LASF138
 2402 0b6e 01       		.byte	0x1
 2403 0b6f C0       		.byte	0xc0
 2404 0b70 01       		.byte	0x1
 2405 0b71 05010000 		.4byte	0x105
 2406 0b75 00000000 		.4byte	.LFB122
 2407 0b79 A8010000 		.4byte	.LFE122
 2408 0b7d 34010000 		.4byte	.LLST8
 2409 0b81 01       		.byte	0x1
 2410 0b82 230D0000 		.4byte	0xd23
 2411 0b86 25       		.uleb128 0x25
 2412 0b87 7000     		.ascii	"p\000"
ARM GAS  C:\cygwin\tmp\cczUkFSk.s 			page 44


 2413 0b89 01       		.byte	0x1
 2414 0b8a C0       		.byte	0xc0
 2415 0b8b C7020000 		.4byte	0x2c7
 2416 0b8f 54010000 		.4byte	.LLST9
 2417 0b93 26       		.uleb128 0x26
 2418 0b94 76000000 		.4byte	.LASF139
 2419 0b98 01       		.byte	0x1
 2420 0b99 C4       		.byte	0xc4
 2421 0b9a 54000000 		.4byte	0x54
 2422 0b9e 05       		.byte	0x5
 2423 0b9f 03       		.byte	0x3
 2424 0ba0 00000000 		.4byte	addr.6502
 2425 0ba4 21       		.uleb128 0x21
 2426 0ba5 18000000 		.4byte	.LVL27
 2427 0ba9 C20F0000 		.4byte	0xfc2
 2428 0bad 27       		.uleb128 0x27
 2429 0bae 20000000 		.4byte	.LVL28
 2430 0bb2 20100000 		.4byte	0x1020
 2431 0bb6 C40B0000 		.4byte	0xbc4
 2432 0bba 28       		.uleb128 0x28
 2433 0bbb 01       		.byte	0x1
 2434 0bbc 51       		.byte	0x51
 2435 0bbd 05       		.byte	0x5
 2436 0bbe 03       		.byte	0x3
 2437 0bbf 00000000 		.4byte	.LANCHOR4
 2438 0bc3 00       		.byte	0
 2439 0bc4 21       		.uleb128 0x21
 2440 0bc5 26000000 		.4byte	.LVL29
 2441 0bc9 3A100000 		.4byte	0x103a
 2442 0bcd 27       		.uleb128 0x27
 2443 0bce 2E000000 		.4byte	.LVL30
 2444 0bd2 0E0B0000 		.4byte	0xb0e
 2445 0bd6 E60B0000 		.4byte	0xbe6
 2446 0bda 28       		.uleb128 0x28
 2447 0bdb 01       		.byte	0x1
 2448 0bdc 51       		.byte	0x51
 2449 0bdd 01       		.byte	0x1
 2450 0bde 38       		.byte	0x38
 2451 0bdf 28       		.uleb128 0x28
 2452 0be0 01       		.byte	0x1
 2453 0be1 50       		.byte	0x50
 2454 0be2 02       		.byte	0x2
 2455 0be3 08       		.byte	0x8
 2456 0be4 20       		.byte	0x20
 2457 0be5 00       		.byte	0
 2458 0be6 27       		.uleb128 0x27
 2459 0be7 36000000 		.4byte	.LVL31
 2460 0beb 0E0B0000 		.4byte	0xb0e
 2461 0bef FF0B0000 		.4byte	0xbff
 2462 0bf3 28       		.uleb128 0x28
 2463 0bf4 01       		.byte	0x1
 2464 0bf5 51       		.byte	0x51
 2465 0bf6 01       		.byte	0x1
 2466 0bf7 30       		.byte	0x30
 2467 0bf8 28       		.uleb128 0x28
 2468 0bf9 01       		.byte	0x1
 2469 0bfa 50       		.byte	0x50
ARM GAS  C:\cygwin\tmp\cczUkFSk.s 			page 45


 2470 0bfb 02       		.byte	0x2
 2471 0bfc 08       		.byte	0x8
 2472 0bfd 23       		.byte	0x23
 2473 0bfe 00       		.byte	0
 2474 0bff 27       		.uleb128 0x27
 2475 0c00 3E000000 		.4byte	.LVL32
 2476 0c04 0E0B0000 		.4byte	0xb0e
 2477 0c08 190C0000 		.4byte	0xc19
 2478 0c0c 28       		.uleb128 0x28
 2479 0c0d 01       		.byte	0x1
 2480 0c0e 51       		.byte	0x51
 2481 0c0f 02       		.byte	0x2
 2482 0c10 08       		.byte	0x8
 2483 0c11 40       		.byte	0x40
 2484 0c12 28       		.uleb128 0x28
 2485 0c13 01       		.byte	0x1
 2486 0c14 50       		.byte	0x50
 2487 0c15 02       		.byte	0x2
 2488 0c16 08       		.byte	0x8
 2489 0c17 2E       		.byte	0x2e
 2490 0c18 00       		.byte	0
 2491 0c19 27       		.uleb128 0x27
 2492 0c1a 4C000000 		.4byte	.LVL33
 2493 0c1e 4F100000 		.4byte	0x104f
 2494 0c22 3B0C0000 		.4byte	0xc3b
 2495 0c26 28       		.uleb128 0x28
 2496 0c27 01       		.byte	0x1
 2497 0c28 52       		.byte	0x52
 2498 0c29 01       		.byte	0x1
 2499 0c2a 31       		.byte	0x31
 2500 0c2b 28       		.uleb128 0x28
 2501 0c2c 01       		.byte	0x1
 2502 0c2d 51       		.byte	0x51
 2503 0c2e 02       		.byte	0x2
 2504 0c2f 74       		.byte	0x74
 2505 0c30 00       		.sleb128 0
 2506 0c31 28       		.uleb128 0x28
 2507 0c32 01       		.byte	0x1
 2508 0c33 50       		.byte	0x50
 2509 0c34 05       		.byte	0x5
 2510 0c35 03       		.byte	0x3
 2511 0c36 00000000 		.4byte	.LANCHOR6
 2512 0c3a 00       		.byte	0
 2513 0c3b 27       		.uleb128 0x27
 2514 0c3c 5A000000 		.4byte	.LVL34
 2515 0c40 4F100000 		.4byte	0x104f
 2516 0c44 5D0C0000 		.4byte	0xc5d
 2517 0c48 28       		.uleb128 0x28
 2518 0c49 01       		.byte	0x1
 2519 0c4a 52       		.byte	0x52
 2520 0c4b 01       		.byte	0x1
 2521 0c4c 31       		.byte	0x31
 2522 0c4d 28       		.uleb128 0x28
 2523 0c4e 01       		.byte	0x1
 2524 0c4f 51       		.byte	0x51
 2525 0c50 02       		.byte	0x2
 2526 0c51 74       		.byte	0x74
ARM GAS  C:\cygwin\tmp\cczUkFSk.s 			page 46


 2527 0c52 00       		.sleb128 0
 2528 0c53 28       		.uleb128 0x28
 2529 0c54 01       		.byte	0x1
 2530 0c55 50       		.byte	0x50
 2531 0c56 05       		.byte	0x5
 2532 0c57 03       		.byte	0x3
 2533 0c58 00000000 		.4byte	.LANCHOR7
 2534 0c5c 00       		.byte	0
 2535 0c5d 27       		.uleb128 0x27
 2536 0c5e 68000000 		.4byte	.LVL35
 2537 0c62 4F100000 		.4byte	0x104f
 2538 0c66 7F0C0000 		.4byte	0xc7f
 2539 0c6a 28       		.uleb128 0x28
 2540 0c6b 01       		.byte	0x1
 2541 0c6c 52       		.byte	0x52
 2542 0c6d 01       		.byte	0x1
 2543 0c6e 31       		.byte	0x31
 2544 0c6f 28       		.uleb128 0x28
 2545 0c70 01       		.byte	0x1
 2546 0c71 51       		.byte	0x51
 2547 0c72 02       		.byte	0x2
 2548 0c73 74       		.byte	0x74
 2549 0c74 00       		.sleb128 0
 2550 0c75 28       		.uleb128 0x28
 2551 0c76 01       		.byte	0x1
 2552 0c77 50       		.byte	0x50
 2553 0c78 05       		.byte	0x5
 2554 0c79 03       		.byte	0x3
 2555 0c7a 00000000 		.4byte	.LANCHOR8
 2556 0c7e 00       		.byte	0
 2557 0c7f 27       		.uleb128 0x27
 2558 0c80 76000000 		.4byte	.LVL36
 2559 0c84 4F100000 		.4byte	0x104f
 2560 0c88 A10C0000 		.4byte	0xca1
 2561 0c8c 28       		.uleb128 0x28
 2562 0c8d 01       		.byte	0x1
 2563 0c8e 52       		.byte	0x52
 2564 0c8f 01       		.byte	0x1
 2565 0c90 31       		.byte	0x31
 2566 0c91 28       		.uleb128 0x28
 2567 0c92 01       		.byte	0x1
 2568 0c93 51       		.byte	0x51
 2569 0c94 02       		.byte	0x2
 2570 0c95 74       		.byte	0x74
 2571 0c96 00       		.sleb128 0
 2572 0c97 28       		.uleb128 0x28
 2573 0c98 01       		.byte	0x1
 2574 0c99 50       		.byte	0x50
 2575 0c9a 05       		.byte	0x5
 2576 0c9b 03       		.byte	0x3
 2577 0c9c 00000000 		.4byte	.LANCHOR9
 2578 0ca0 00       		.byte	0
 2579 0ca1 27       		.uleb128 0x27
 2580 0ca2 84000000 		.4byte	.LVL37
 2581 0ca6 4F100000 		.4byte	0x104f
 2582 0caa C30C0000 		.4byte	0xcc3
 2583 0cae 28       		.uleb128 0x28
ARM GAS  C:\cygwin\tmp\cczUkFSk.s 			page 47


 2584 0caf 01       		.byte	0x1
 2585 0cb0 52       		.byte	0x52
 2586 0cb1 01       		.byte	0x1
 2587 0cb2 31       		.byte	0x31
 2588 0cb3 28       		.uleb128 0x28
 2589 0cb4 01       		.byte	0x1
 2590 0cb5 51       		.byte	0x51
 2591 0cb6 02       		.byte	0x2
 2592 0cb7 74       		.byte	0x74
 2593 0cb8 00       		.sleb128 0
 2594 0cb9 28       		.uleb128 0x28
 2595 0cba 01       		.byte	0x1
 2596 0cbb 50       		.byte	0x50
 2597 0cbc 05       		.byte	0x5
 2598 0cbd 03       		.byte	0x3
 2599 0cbe 00000000 		.4byte	.LANCHOR10
 2600 0cc2 00       		.byte	0
 2601 0cc3 27       		.uleb128 0x27
 2602 0cc4 92000000 		.4byte	.LVL38
 2603 0cc8 4F100000 		.4byte	0x104f
 2604 0ccc E50C0000 		.4byte	0xce5
 2605 0cd0 28       		.uleb128 0x28
 2606 0cd1 01       		.byte	0x1
 2607 0cd2 52       		.byte	0x52
 2608 0cd3 01       		.byte	0x1
 2609 0cd4 31       		.byte	0x31
 2610 0cd5 28       		.uleb128 0x28
 2611 0cd6 01       		.byte	0x1
 2612 0cd7 51       		.byte	0x51
 2613 0cd8 02       		.byte	0x2
 2614 0cd9 74       		.byte	0x74
 2615 0cda 00       		.sleb128 0
 2616 0cdb 28       		.uleb128 0x28
 2617 0cdc 01       		.byte	0x1
 2618 0cdd 50       		.byte	0x50
 2619 0cde 05       		.byte	0x5
 2620 0cdf 03       		.byte	0x3
 2621 0ce0 00000000 		.4byte	.LANCHOR11
 2622 0ce4 00       		.byte	0
 2623 0ce5 27       		.uleb128 0x27
 2624 0ce6 A0000000 		.4byte	.LVL39
 2625 0cea 4F100000 		.4byte	0x104f
 2626 0cee 070D0000 		.4byte	0xd07
 2627 0cf2 28       		.uleb128 0x28
 2628 0cf3 01       		.byte	0x1
 2629 0cf4 52       		.byte	0x52
 2630 0cf5 01       		.byte	0x1
 2631 0cf6 31       		.byte	0x31
 2632 0cf7 28       		.uleb128 0x28
 2633 0cf8 01       		.byte	0x1
 2634 0cf9 51       		.byte	0x51
 2635 0cfa 02       		.byte	0x2
 2636 0cfb 74       		.byte	0x74
 2637 0cfc 00       		.sleb128 0
 2638 0cfd 28       		.uleb128 0x28
 2639 0cfe 01       		.byte	0x1
 2640 0cff 50       		.byte	0x50
ARM GAS  C:\cygwin\tmp\cczUkFSk.s 			page 48


 2641 0d00 05       		.byte	0x5
 2642 0d01 03       		.byte	0x3
 2643 0d02 00000000 		.4byte	.LANCHOR12
 2644 0d06 00       		.byte	0
 2645 0d07 21       		.uleb128 0x21
 2646 0d08 A6000000 		.4byte	.LVL40
 2647 0d0c 6E100000 		.4byte	0x106e
 2648 0d10 21       		.uleb128 0x21
 2649 0d11 68010000 		.4byte	.LVL41
 2650 0d15 580A0000 		.4byte	0xa58
 2651 0d19 21       		.uleb128 0x21
 2652 0d1a 6E010000 		.4byte	.LVL42
 2653 0d1e D70F0000 		.4byte	0xfd7
 2654 0d22 00       		.byte	0
 2655 0d23 31       		.uleb128 0x31
 2656 0d24 01       		.byte	0x1
 2657 0d25 82060000 		.4byte	.LASF173
 2658 0d29 01       		.byte	0x1
 2659 0d2a 2101     		.2byte	0x121
 2660 0d2c 01       		.byte	0x1
 2661 0d2d 29000000 		.4byte	0x29
 2662 0d31 00000000 		.4byte	.LFB124
 2663 0d35 60000000 		.4byte	.LFE124
 2664 0d39 75010000 		.4byte	.LLST10
 2665 0d3d 01       		.byte	0x1
 2666 0d3e D00D0000 		.4byte	0xdd0
 2667 0d42 21       		.uleb128 0x21
 2668 0d43 08000000 		.4byte	.LVL43
 2669 0d47 83100000 		.4byte	0x1083
 2670 0d4b 21       		.uleb128 0x21
 2671 0d4c 0C000000 		.4byte	.LVL44
 2672 0d50 8D100000 		.4byte	0x108d
 2673 0d54 27       		.uleb128 0x27
 2674 0d55 20000000 		.4byte	.LVL45
 2675 0d59 97100000 		.4byte	0x1097
 2676 0d5d 6B0D0000 		.4byte	0xd6b
 2677 0d61 28       		.uleb128 0x28
 2678 0d62 01       		.byte	0x1
 2679 0d63 51       		.byte	0x51
 2680 0d64 05       		.byte	0x5
 2681 0d65 03       		.byte	0x3
 2682 0d66 00000000 		.4byte	.LANCHOR4
 2683 0d6a 00       		.byte	0
 2684 0d6b 27       		.uleb128 0x27
 2685 0d6c 3E000000 		.4byte	.LVL46
 2686 0d70 B7100000 		.4byte	0x10b7
 2687 0d74 9F0D0000 		.4byte	0xd9f
 2688 0d78 28       		.uleb128 0x28
 2689 0d79 01       		.byte	0x1
 2690 0d7a 53       		.byte	0x53
 2691 0d7b 05       		.byte	0x5
 2692 0d7c 03       		.byte	0x3
 2693 0d7d 00000000 		.4byte	spi_thread_1
 2694 0d81 28       		.uleb128 0x28
 2695 0d82 01       		.byte	0x1
 2696 0d83 52       		.byte	0x52
 2697 0d84 02       		.byte	0x2
ARM GAS  C:\cygwin\tmp\cczUkFSk.s 			page 49


 2698 0d85 08       		.byte	0x8
 2699 0d86 41       		.byte	0x41
 2700 0d87 28       		.uleb128 0x28
 2701 0d88 01       		.byte	0x1
 2702 0d89 51       		.byte	0x51
 2703 0d8a 03       		.byte	0x3
 2704 0d8b 0A       		.byte	0xa
 2705 0d8c B001     		.2byte	0x1b0
 2706 0d8e 28       		.uleb128 0x28
 2707 0d8f 01       		.byte	0x1
 2708 0d90 50       		.byte	0x50
 2709 0d91 05       		.byte	0x5
 2710 0d92 03       		.byte	0x3
 2711 0d93 00000000 		.4byte	.LANCHOR21
 2712 0d97 28       		.uleb128 0x28
 2713 0d98 02       		.byte	0x2
 2714 0d99 7D       		.byte	0x7d
 2715 0d9a 00       		.sleb128 0
 2716 0d9b 02       		.byte	0x2
 2717 0d9c 74       		.byte	0x74
 2718 0d9d 00       		.sleb128 0
 2719 0d9e 00       		.byte	0
 2720 0d9f 29       		.uleb128 0x29
 2721 0da0 5A000000 		.4byte	.LVL47
 2722 0da4 B7100000 		.4byte	0x10b7
 2723 0da8 28       		.uleb128 0x28
 2724 0da9 01       		.byte	0x1
 2725 0daa 53       		.byte	0x53
 2726 0dab 05       		.byte	0x5
 2727 0dac 03       		.byte	0x3
 2728 0dad 00000000 		.4byte	spi_thread_2
 2729 0db1 28       		.uleb128 0x28
 2730 0db2 01       		.byte	0x1
 2731 0db3 52       		.byte	0x52
 2732 0db4 02       		.byte	0x2
 2733 0db5 08       		.byte	0x8
 2734 0db6 41       		.byte	0x41
 2735 0db7 28       		.uleb128 0x28
 2736 0db8 01       		.byte	0x1
 2737 0db9 51       		.byte	0x51
 2738 0dba 03       		.byte	0x3
 2739 0dbb 0A       		.byte	0xa
 2740 0dbc B001     		.2byte	0x1b0
 2741 0dbe 28       		.uleb128 0x28
 2742 0dbf 01       		.byte	0x1
 2743 0dc0 50       		.byte	0x50
 2744 0dc1 05       		.byte	0x5
 2745 0dc2 03       		.byte	0x3
 2746 0dc3 00000000 		.4byte	.LANCHOR22
 2747 0dc7 28       		.uleb128 0x28
 2748 0dc8 02       		.byte	0x2
 2749 0dc9 7D       		.byte	0x7d
 2750 0dca 00       		.sleb128 0
 2751 0dcb 02       		.byte	0x2
 2752 0dcc 74       		.byte	0x74
 2753 0dcd 00       		.sleb128 0
 2754 0dce 00       		.byte	0
ARM GAS  C:\cygwin\tmp\cczUkFSk.s 			page 50


 2755 0dcf 00       		.byte	0
 2756 0dd0 32       		.uleb128 0x32
 2757 0dd1 54000000 		.4byte	0x54
 2758 0dd5 E00D0000 		.4byte	0xde0
 2759 0dd9 33       		.uleb128 0x33
 2760 0dda 8A030000 		.4byte	0x38a
 2761 0dde 17       		.byte	0x17
 2762 0ddf 00       		.byte	0
 2763 0de0 26       		.uleb128 0x26
 2764 0de1 5A060000 		.4byte	.LASF140
 2765 0de5 01       		.byte	0x1
 2766 0de6 9E       		.byte	0x9e
 2767 0de7 D00D0000 		.4byte	0xdd0
 2768 0deb 05       		.byte	0x5
 2769 0dec 03       		.byte	0x3
 2770 0ded 00000000 		.4byte	gRegTable
 2771 0df1 32       		.uleb128 0x32
 2772 0df2 C9020000 		.4byte	0x2c9
 2773 0df6 010E0000 		.4byte	0xe01
 2774 0dfa 33       		.uleb128 0x33
 2775 0dfb 8A030000 		.4byte	0x38a
 2776 0dff 35       		.byte	0x35
 2777 0e00 00       		.byte	0
 2778 0e01 26       		.uleb128 0x26
 2779 0e02 5A020000 		.4byte	.LASF141
 2780 0e06 01       		.byte	0x1
 2781 0e07 BF       		.byte	0xbf
 2782 0e08 F10D0000 		.4byte	0xdf1
 2783 0e0c 05       		.byte	0x5
 2784 0e0d 03       		.byte	0x3
 2785 0e0e 00000000 		.4byte	spi_thread_1_wa
 2786 0e12 34       		.uleb128 0x34
 2787 0e13 CE010000 		.4byte	.LASF142
 2788 0e17 01       		.byte	0x1
 2789 0e18 0201     		.2byte	0x102
 2790 0e1a F10D0000 		.4byte	0xdf1
 2791 0e1e 05       		.byte	0x5
 2792 0e1f 03       		.byte	0x3
 2793 0e20 00000000 		.4byte	spi_thread_2_wa
 2794 0e24 35       		.uleb128 0x35
 2795 0e25 26060000 		.4byte	.LASF143
 2796 0e29 08       		.byte	0x8
 2797 0e2a 68       		.byte	0x68
 2798 0e2b F3030000 		.4byte	0x3f3
 2799 0e2f 01       		.byte	0x1
 2800 0e30 01       		.byte	0x1
 2801 0e31 36       		.uleb128 0x36
 2802 0e32 A2000000 		.4byte	.LASF144
 2803 0e36 0F       		.byte	0xf
 2804 0e37 9806     		.2byte	0x698
 2805 0e39 C5040000 		.4byte	0x4c5
 2806 0e3d 01       		.byte	0x1
 2807 0e3e 01       		.byte	0x1
 2808 0e3f 36       		.uleb128 0x36
 2809 0e40 32040000 		.4byte	.LASF145
 2810 0e44 0E       		.byte	0xe
 2811 0e45 8B01     		.2byte	0x18b
ARM GAS  C:\cygwin\tmp\cczUkFSk.s 			page 51


 2812 0e47 EE070000 		.4byte	0x7ee
 2813 0e4b 01       		.byte	0x1
 2814 0e4c 01       		.byte	0x1
 2815 0e4d 37       		.uleb128 0x37
 2816 0e4e 8C060000 		.4byte	.LASF146
 2817 0e52 01       		.byte	0x1
 2818 0e53 1D       		.byte	0x1d
 2819 0e54 EE070000 		.4byte	0x7ee
 2820 0e58 01       		.byte	0x1
 2821 0e59 05       		.byte	0x5
 2822 0e5a 03       		.byte	0x3
 2823 0e5b 00000000 		.4byte	gSpiDriver
 2824 0e5f 37       		.uleb128 0x37
 2825 0e60 09030000 		.4byte	.LASF147
 2826 0e64 01       		.byte	0x1
 2827 0e65 1E       		.byte	0x1e
 2828 0e66 08090000 		.4byte	0x908
 2829 0e6a 01       		.byte	0x1
 2830 0e6b 05       		.byte	0x5
 2831 0e6c 03       		.byte	0x3
 2832 0e6d 00000000 		.4byte	gSpiConfig
 2833 0e71 32       		.uleb128 0x32
 2834 0e72 54000000 		.4byte	0x54
 2835 0e76 810E0000 		.4byte	0xe81
 2836 0e7a 33       		.uleb128 0x33
 2837 0e7b 8A030000 		.4byte	0x38a
 2838 0e7f 37       		.byte	0x37
 2839 0e80 00       		.byte	0
 2840 0e81 37       		.uleb128 0x37
 2841 0e82 E6050000 		.4byte	.LASF148
 2842 0e86 01       		.byte	0x1
 2843 0e87 5B       		.byte	0x5b
 2844 0e88 710E0000 		.4byte	0xe71
 2845 0e8c 01       		.byte	0x1
 2846 0e8d 05       		.byte	0x5
 2847 0e8e 03       		.byte	0x3
 2848 0e8f 00000000 		.4byte	rxBuf
 2849 0e93 37       		.uleb128 0x37
 2850 0e94 34060000 		.4byte	.LASF149
 2851 0e98 01       		.byte	0x1
 2852 0e99 5D       		.byte	0x5d
 2853 0e9a 54000000 		.4byte	0x54
 2854 0e9e 01       		.byte	0x1
 2855 0e9f 05       		.byte	0x5
 2856 0ea0 03       		.byte	0x3
 2857 0ea1 00000000 		.4byte	OUT_X_L
 2858 0ea5 37       		.uleb128 0x37
 2859 0ea6 70030000 		.4byte	.LASF150
 2860 0eaa 01       		.byte	0x1
 2861 0eab 5D       		.byte	0x5d
 2862 0eac 54000000 		.4byte	0x54
 2863 0eb0 01       		.byte	0x1
 2864 0eb1 05       		.byte	0x5
 2865 0eb2 03       		.byte	0x3
 2866 0eb3 00000000 		.4byte	OUT_X_H
 2867 0eb7 37       		.uleb128 0x37
 2868 0eb8 C6010000 		.4byte	.LASF151
ARM GAS  C:\cygwin\tmp\cczUkFSk.s 			page 52


 2869 0ebc 01       		.byte	0x1
 2870 0ebd 5E       		.byte	0x5e
 2871 0ebe 54000000 		.4byte	0x54
 2872 0ec2 01       		.byte	0x1
 2873 0ec3 05       		.byte	0x5
 2874 0ec4 03       		.byte	0x3
 2875 0ec5 00000000 		.4byte	OUT_Y_L
 2876 0ec9 37       		.uleb128 0x37
 2877 0eca 6E000000 		.4byte	.LASF152
 2878 0ece 01       		.byte	0x1
 2879 0ecf 5E       		.byte	0x5e
 2880 0ed0 54000000 		.4byte	0x54
 2881 0ed4 01       		.byte	0x1
 2882 0ed5 05       		.byte	0x5
 2883 0ed6 03       		.byte	0x3
 2884 0ed7 00000000 		.4byte	OUT_Y_H
 2885 0edb 37       		.uleb128 0x37
 2886 0edc 44060000 		.4byte	.LASF153
 2887 0ee0 01       		.byte	0x1
 2888 0ee1 5F       		.byte	0x5f
 2889 0ee2 54000000 		.4byte	0x54
 2890 0ee6 01       		.byte	0x1
 2891 0ee7 05       		.byte	0x5
 2892 0ee8 03       		.byte	0x3
 2893 0ee9 00000000 		.4byte	OUT_Z_L
 2894 0eed 37       		.uleb128 0x37
 2895 0eee 3C060000 		.4byte	.LASF154
 2896 0ef2 01       		.byte	0x1
 2897 0ef3 5F       		.byte	0x5f
 2898 0ef4 54000000 		.4byte	0x54
 2899 0ef8 01       		.byte	0x1
 2900 0ef9 05       		.byte	0x5
 2901 0efa 03       		.byte	0x3
 2902 0efb 00000000 		.4byte	OUT_Z_H
 2903 0eff 37       		.uleb128 0x37
 2904 0f00 F1020000 		.4byte	.LASF155
 2905 0f04 01       		.byte	0x1
 2906 0f05 60       		.byte	0x60
 2907 0f06 54000000 		.4byte	0x54
 2908 0f0a 01       		.byte	0x1
 2909 0f0b 05       		.byte	0x5
 2910 0f0c 03       		.byte	0x3
 2911 0f0d 00000000 		.4byte	WHO_AM_I
 2912 0f11 38       		.uleb128 0x38
 2913 0f12 675800   		.ascii	"gX\000"
 2914 0f15 01       		.byte	0x1
 2915 0f16 62       		.byte	0x62
 2916 0f17 66000000 		.4byte	0x66
 2917 0f1b 01       		.byte	0x1
 2918 0f1c 05       		.byte	0x5
 2919 0f1d 03       		.byte	0x3
 2920 0f1e 00000000 		.4byte	gX
 2921 0f22 38       		.uleb128 0x38
 2922 0f23 675900   		.ascii	"gY\000"
 2923 0f26 01       		.byte	0x1
 2924 0f27 62       		.byte	0x62
 2925 0f28 66000000 		.4byte	0x66
ARM GAS  C:\cygwin\tmp\cczUkFSk.s 			page 53


 2926 0f2c 01       		.byte	0x1
 2927 0f2d 05       		.byte	0x5
 2928 0f2e 03       		.byte	0x3
 2929 0f2f 00000000 		.4byte	gY
 2930 0f33 38       		.uleb128 0x38
 2931 0f34 675A00   		.ascii	"gZ\000"
 2932 0f37 01       		.byte	0x1
 2933 0f38 62       		.byte	0x62
 2934 0f39 66000000 		.4byte	0x66
 2935 0f3d 01       		.byte	0x1
 2936 0f3e 05       		.byte	0x5
 2937 0f3f 03       		.byte	0x3
 2938 0f40 00000000 		.4byte	gZ
 2939 0f44 38       		.uleb128 0x38
 2940 0f45 6C687800 		.ascii	"lhx\000"
 2941 0f49 01       		.byte	0x1
 2942 0f4a 63       		.byte	0x63
 2943 0f4b 42000000 		.4byte	0x42
 2944 0f4f 01       		.byte	0x1
 2945 0f50 05       		.byte	0x5
 2946 0f51 03       		.byte	0x3
 2947 0f52 00000000 		.4byte	lhx
 2948 0f56 38       		.uleb128 0x38
 2949 0f57 6C6C7800 		.ascii	"llx\000"
 2950 0f5b 01       		.byte	0x1
 2951 0f5c 63       		.byte	0x63
 2952 0f5d 42000000 		.4byte	0x42
 2953 0f61 01       		.byte	0x1
 2954 0f62 05       		.byte	0x5
 2955 0f63 03       		.byte	0x3
 2956 0f64 00000000 		.4byte	llx
 2957 0f68 38       		.uleb128 0x38
 2958 0f69 6C6C7900 		.ascii	"lly\000"
 2959 0f6d 01       		.byte	0x1
 2960 0f6e 63       		.byte	0x63
 2961 0f6f 42000000 		.4byte	0x42
 2962 0f73 01       		.byte	0x1
 2963 0f74 05       		.byte	0x5
 2964 0f75 03       		.byte	0x3
 2965 0f76 00000000 		.4byte	lly
 2966 0f7a 38       		.uleb128 0x38
 2967 0f7b 6C687900 		.ascii	"lhy\000"
 2968 0f7f 01       		.byte	0x1
 2969 0f80 63       		.byte	0x63
 2970 0f81 42000000 		.4byte	0x42
 2971 0f85 01       		.byte	0x1
 2972 0f86 05       		.byte	0x5
 2973 0f87 03       		.byte	0x3
 2974 0f88 00000000 		.4byte	lhy
 2975 0f8c 38       		.uleb128 0x38
 2976 0f8d 6C6C7A00 		.ascii	"llz\000"
 2977 0f91 01       		.byte	0x1
 2978 0f92 63       		.byte	0x63
 2979 0f93 42000000 		.4byte	0x42
 2980 0f97 01       		.byte	0x1
 2981 0f98 05       		.byte	0x5
 2982 0f99 03       		.byte	0x3
ARM GAS  C:\cygwin\tmp\cczUkFSk.s 			page 54


 2983 0f9a 00000000 		.4byte	llz
 2984 0f9e 38       		.uleb128 0x38
 2985 0f9f 6C687A00 		.ascii	"lhz\000"
 2986 0fa3 01       		.byte	0x1
 2987 0fa4 63       		.byte	0x63
 2988 0fa5 42000000 		.4byte	0x42
 2989 0fa9 01       		.byte	0x1
 2990 0faa 05       		.byte	0x5
 2991 0fab 03       		.byte	0x3
 2992 0fac 00000000 		.4byte	lhz
 2993 0fb0 37       		.uleb128 0x37
 2994 0fb1 C7020000 		.4byte	.LASF156
 2995 0fb5 01       		.byte	0x1
 2996 0fb6 98       		.byte	0x98
 2997 0fb7 CA040000 		.4byte	0x4ca
 2998 0fbb 01       		.byte	0x1
 2999 0fbc 05       		.byte	0x5
 3000 0fbd 03       		.byte	0x3
 3001 0fbe 00000000 		.4byte	gRegStatus
 3002 0fc2 39       		.uleb128 0x39
 3003 0fc3 01       		.byte	0x1
 3004 0fc4 64060000 		.4byte	.LASF157
 3005 0fc8 0D       		.byte	0xd
 3006 0fc9 3801     		.2byte	0x138
 3007 0fcb 01       		.byte	0x1
 3008 0fcc 01       		.byte	0x1
 3009 0fcd D70F0000 		.4byte	0xfd7
 3010 0fd1 12       		.uleb128 0x12
 3011 0fd2 AD080000 		.4byte	0x8ad
 3012 0fd6 00       		.byte	0
 3013 0fd7 39       		.uleb128 0x39
 3014 0fd8 01       		.byte	0x1
 3015 0fd9 8E050000 		.4byte	.LASF158
 3016 0fdd 0D       		.byte	0xd
 3017 0fde 3901     		.2byte	0x139
 3018 0fe0 01       		.byte	0x1
 3019 0fe1 01       		.byte	0x1
 3020 0fe2 EC0F0000 		.4byte	0xfec
 3021 0fe6 12       		.uleb128 0x12
 3022 0fe7 AD080000 		.4byte	0x8ad
 3023 0feb 00       		.byte	0
 3024 0fec 39       		.uleb128 0x39
 3025 0fed 01       		.byte	0x1
 3026 0fee F8050000 		.4byte	.LASF159
 3027 0ff2 06       		.byte	0x6
 3028 0ff3 6E01     		.2byte	0x16e
 3029 0ff5 01       		.byte	0x1
 3030 0ff6 01       		.byte	0x1
 3031 0ff7 01100000 		.4byte	0x1001
 3032 0ffb 12       		.uleb128 0x12
 3033 0ffc 1B010000 		.4byte	0x11b
 3034 1000 00       		.byte	0
 3035 1001 39       		.uleb128 0x39
 3036 1002 01       		.byte	0x1
 3037 1003 9C040000 		.4byte	.LASF160
 3038 1007 10       		.byte	0x10
 3039 1008 8F01     		.2byte	0x18f
ARM GAS  C:\cygwin\tmp\cczUkFSk.s 			page 55


 3040 100a 01       		.byte	0x1
 3041 100b 01       		.byte	0x1
 3042 100c 20100000 		.4byte	0x1020
 3043 1010 12       		.uleb128 0x12
 3044 1011 BA040000 		.4byte	0x4ba
 3045 1015 12       		.uleb128 0x12
 3046 1016 BA040000 		.4byte	0x4ba
 3047 101a 12       		.uleb128 0x12
 3048 101b 78000000 		.4byte	0x78
 3049 101f 00       		.byte	0
 3050 1020 39       		.uleb128 0x39
 3051 1021 01       		.byte	0x1
 3052 1022 B7050000 		.4byte	.LASF161
 3053 1026 0D       		.byte	0xd
 3054 1027 2801     		.2byte	0x128
 3055 1029 01       		.byte	0x1
 3056 102a 01       		.byte	0x1
 3057 102b 3A100000 		.4byte	0x103a
 3058 102f 12       		.uleb128 0x12
 3059 1030 AD080000 		.4byte	0x8ad
 3060 1034 12       		.uleb128 0x12
 3061 1035 14090000 		.4byte	0x914
 3062 1039 00       		.byte	0
 3063 103a 39       		.uleb128 0x39
 3064 103b 01       		.byte	0x1
 3065 103c AF000000 		.4byte	.LASF162
 3066 1040 0D       		.byte	0xd
 3067 1041 2A01     		.2byte	0x12a
 3068 1043 01       		.byte	0x1
 3069 1044 01       		.byte	0x1
 3070 1045 4F100000 		.4byte	0x104f
 3071 1049 12       		.uleb128 0x12
 3072 104a AD080000 		.4byte	0x8ad
 3073 104e 00       		.byte	0
 3074 104f 39       		.uleb128 0x39
 3075 1050 01       		.byte	0x1
 3076 1051 83020000 		.4byte	.LASF163
 3077 1055 10       		.byte	0x10
 3078 1056 9001     		.2byte	0x190
 3079 1058 01       		.byte	0x1
 3080 1059 01       		.byte	0x1
 3081 105a 6E100000 		.4byte	0x106e
 3082 105e 12       		.uleb128 0x12
 3083 105f BA040000 		.4byte	0x4ba
 3084 1063 12       		.uleb128 0x12
 3085 1064 BA040000 		.4byte	0x4ba
 3086 1068 12       		.uleb128 0x12
 3087 1069 78000000 		.4byte	0x78
 3088 106d 00       		.byte	0
 3089 106e 39       		.uleb128 0x39
 3090 106f 01       		.byte	0x1
 3091 1070 01020000 		.4byte	.LASF164
 3092 1074 0D       		.byte	0xd
 3093 1075 2B01     		.2byte	0x12b
 3094 1077 01       		.byte	0x1
 3095 1078 01       		.byte	0x1
 3096 1079 83100000 		.4byte	0x1083
ARM GAS  C:\cygwin\tmp\cczUkFSk.s 			page 56


 3097 107d 12       		.uleb128 0x12
 3098 107e AD080000 		.4byte	0x8ad
 3099 1082 00       		.byte	0
 3100 1083 3A       		.uleb128 0x3a
 3101 1084 01       		.byte	0x1
 3102 1085 3E020000 		.4byte	.LASF165
 3103 1089 11       		.byte	0x11
 3104 108a C9       		.byte	0xc9
 3105 108b 01       		.byte	0x1
 3106 108c 01       		.byte	0x1
 3107 108d 3A       		.uleb128 0x3a
 3108 108e 01       		.byte	0x1
 3109 108f ED000000 		.4byte	.LASF166
 3110 1093 12       		.byte	0x12
 3111 1094 EF       		.byte	0xef
 3112 1095 01       		.byte	0x1
 3113 1096 01       		.byte	0x1
 3114 1097 39       		.uleb128 0x39
 3115 1098 01       		.byte	0x1
 3116 1099 EC050000 		.4byte	.LASF167
 3117 109d 10       		.byte	0x10
 3118 109e 8301     		.2byte	0x183
 3119 10a0 01       		.byte	0x1
 3120 10a1 01       		.byte	0x1
 3121 10a2 B1100000 		.4byte	0x10b1
 3122 10a6 12       		.uleb128 0x12
 3123 10a7 AD080000 		.4byte	0x8ad
 3124 10ab 12       		.uleb128 0x12
 3125 10ac B1100000 		.4byte	0x10b1
 3126 10b0 00       		.byte	0
 3127 10b1 09       		.uleb128 0x9
 3128 10b2 04       		.byte	0x4
 3129 10b3 08090000 		.4byte	0x908
 3130 10b7 3B       		.uleb128 0x3b
 3131 10b8 01       		.byte	0x1
 3132 10b9 D2020000 		.4byte	.LASF168
 3133 10bd 06       		.byte	0x6
 3134 10be 6901     		.2byte	0x169
 3135 10c0 01       		.byte	0x1
 3136 10c1 89020000 		.4byte	0x289
 3137 10c5 01       		.byte	0x1
 3138 10c6 12       		.uleb128 0x12
 3139 10c7 C7020000 		.4byte	0x2c7
 3140 10cb 12       		.uleb128 0x12
 3141 10cc 30000000 		.4byte	0x30
 3142 10d0 12       		.uleb128 0x12
 3143 10d1 FA000000 		.4byte	0xfa
 3144 10d5 12       		.uleb128 0x12
 3145 10d6 99040000 		.4byte	0x499
 3146 10da 12       		.uleb128 0x12
 3147 10db C7020000 		.4byte	0x2c7
 3148 10df 00       		.byte	0
 3149 10e0 00       		.byte	0
 3150              		.section	.debug_abbrev,"",%progbits
 3151              	.Ldebug_abbrev0:
 3152 0000 01       		.uleb128 0x1
 3153 0001 11       		.uleb128 0x11
ARM GAS  C:\cygwin\tmp\cczUkFSk.s 			page 57


 3154 0002 01       		.byte	0x1
 3155 0003 25       		.uleb128 0x25
 3156 0004 0E       		.uleb128 0xe
 3157 0005 13       		.uleb128 0x13
 3158 0006 0B       		.uleb128 0xb
 3159 0007 03       		.uleb128 0x3
 3160 0008 0E       		.uleb128 0xe
 3161 0009 1B       		.uleb128 0x1b
 3162 000a 0E       		.uleb128 0xe
 3163 000b 55       		.uleb128 0x55
 3164 000c 06       		.uleb128 0x6
 3165 000d 11       		.uleb128 0x11
 3166 000e 01       		.uleb128 0x1
 3167 000f 52       		.uleb128 0x52
 3168 0010 01       		.uleb128 0x1
 3169 0011 10       		.uleb128 0x10
 3170 0012 06       		.uleb128 0x6
 3171 0013 00       		.byte	0
 3172 0014 00       		.byte	0
 3173 0015 02       		.uleb128 0x2
 3174 0016 24       		.uleb128 0x24
 3175 0017 00       		.byte	0
 3176 0018 0B       		.uleb128 0xb
 3177 0019 0B       		.uleb128 0xb
 3178 001a 3E       		.uleb128 0x3e
 3179 001b 0B       		.uleb128 0xb
 3180 001c 03       		.uleb128 0x3
 3181 001d 08       		.uleb128 0x8
 3182 001e 00       		.byte	0
 3183 001f 00       		.byte	0
 3184 0020 03       		.uleb128 0x3
 3185 0021 16       		.uleb128 0x16
 3186 0022 00       		.byte	0
 3187 0023 03       		.uleb128 0x3
 3188 0024 0E       		.uleb128 0xe
 3189 0025 3A       		.uleb128 0x3a
 3190 0026 0B       		.uleb128 0xb
 3191 0027 3B       		.uleb128 0x3b
 3192 0028 0B       		.uleb128 0xb
 3193 0029 49       		.uleb128 0x49
 3194 002a 13       		.uleb128 0x13
 3195 002b 00       		.byte	0
 3196 002c 00       		.byte	0
 3197 002d 04       		.uleb128 0x4
 3198 002e 24       		.uleb128 0x24
 3199 002f 00       		.byte	0
 3200 0030 0B       		.uleb128 0xb
 3201 0031 0B       		.uleb128 0xb
 3202 0032 3E       		.uleb128 0x3e
 3203 0033 0B       		.uleb128 0xb
 3204 0034 03       		.uleb128 0x3
 3205 0035 0E       		.uleb128 0xe
 3206 0036 00       		.byte	0
 3207 0037 00       		.byte	0
 3208 0038 05       		.uleb128 0x5
 3209 0039 13       		.uleb128 0x13
 3210 003a 01       		.byte	0x1
ARM GAS  C:\cygwin\tmp\cczUkFSk.s 			page 58


 3211 003b 03       		.uleb128 0x3
 3212 003c 0E       		.uleb128 0xe
 3213 003d 0B       		.uleb128 0xb
 3214 003e 0B       		.uleb128 0xb
 3215 003f 3A       		.uleb128 0x3a
 3216 0040 0B       		.uleb128 0xb
 3217 0041 3B       		.uleb128 0x3b
 3218 0042 0B       		.uleb128 0xb
 3219 0043 01       		.uleb128 0x1
 3220 0044 13       		.uleb128 0x13
 3221 0045 00       		.byte	0
 3222 0046 00       		.byte	0
 3223 0047 06       		.uleb128 0x6
 3224 0048 0D       		.uleb128 0xd
 3225 0049 00       		.byte	0
 3226 004a 03       		.uleb128 0x3
 3227 004b 0E       		.uleb128 0xe
 3228 004c 3A       		.uleb128 0x3a
 3229 004d 0B       		.uleb128 0xb
 3230 004e 3B       		.uleb128 0x3b
 3231 004f 0B       		.uleb128 0xb
 3232 0050 49       		.uleb128 0x49
 3233 0051 13       		.uleb128 0x13
 3234 0052 38       		.uleb128 0x38
 3235 0053 0A       		.uleb128 0xa
 3236 0054 00       		.byte	0
 3237 0055 00       		.byte	0
 3238 0056 07       		.uleb128 0x7
 3239 0057 0D       		.uleb128 0xd
 3240 0058 00       		.byte	0
 3241 0059 03       		.uleb128 0x3
 3242 005a 08       		.uleb128 0x8
 3243 005b 3A       		.uleb128 0x3a
 3244 005c 0B       		.uleb128 0xb
 3245 005d 3B       		.uleb128 0x3b
 3246 005e 0B       		.uleb128 0xb
 3247 005f 49       		.uleb128 0x49
 3248 0060 13       		.uleb128 0x13
 3249 0061 38       		.uleb128 0x38
 3250 0062 0A       		.uleb128 0xa
 3251 0063 00       		.byte	0
 3252 0064 00       		.byte	0
 3253 0065 08       		.uleb128 0x8
 3254 0066 13       		.uleb128 0x13
 3255 0067 01       		.byte	0x1
 3256 0068 0B       		.uleb128 0xb
 3257 0069 0B       		.uleb128 0xb
 3258 006a 3A       		.uleb128 0x3a
 3259 006b 0B       		.uleb128 0xb
 3260 006c 3B       		.uleb128 0x3b
 3261 006d 0B       		.uleb128 0xb
 3262 006e 01       		.uleb128 0x1
 3263 006f 13       		.uleb128 0x13
 3264 0070 00       		.byte	0
 3265 0071 00       		.byte	0
 3266 0072 09       		.uleb128 0x9
 3267 0073 0F       		.uleb128 0xf
ARM GAS  C:\cygwin\tmp\cczUkFSk.s 			page 59


 3268 0074 00       		.byte	0
 3269 0075 0B       		.uleb128 0xb
 3270 0076 0B       		.uleb128 0xb
 3271 0077 49       		.uleb128 0x49
 3272 0078 13       		.uleb128 0x13
 3273 0079 00       		.byte	0
 3274 007a 00       		.byte	0
 3275 007b 0A       		.uleb128 0xa
 3276 007c 0F       		.uleb128 0xf
 3277 007d 00       		.byte	0
 3278 007e 0B       		.uleb128 0xb
 3279 007f 0B       		.uleb128 0xb
 3280 0080 00       		.byte	0
 3281 0081 00       		.byte	0
 3282 0082 0B       		.uleb128 0xb
 3283 0083 13       		.uleb128 0x13
 3284 0084 01       		.byte	0x1
 3285 0085 03       		.uleb128 0x3
 3286 0086 0E       		.uleb128 0xe
 3287 0087 0B       		.uleb128 0xb
 3288 0088 0B       		.uleb128 0xb
 3289 0089 3A       		.uleb128 0x3a
 3290 008a 0B       		.uleb128 0xb
 3291 008b 3B       		.uleb128 0x3b
 3292 008c 05       		.uleb128 0x5
 3293 008d 01       		.uleb128 0x1
 3294 008e 13       		.uleb128 0x13
 3295 008f 00       		.byte	0
 3296 0090 00       		.byte	0
 3297 0091 0C       		.uleb128 0xc
 3298 0092 0D       		.uleb128 0xd
 3299 0093 00       		.byte	0
 3300 0094 03       		.uleb128 0x3
 3301 0095 08       		.uleb128 0x8
 3302 0096 3A       		.uleb128 0x3a
 3303 0097 0B       		.uleb128 0xb
 3304 0098 3B       		.uleb128 0x3b
 3305 0099 05       		.uleb128 0x5
 3306 009a 49       		.uleb128 0x49
 3307 009b 13       		.uleb128 0x13
 3308 009c 38       		.uleb128 0x38
 3309 009d 0A       		.uleb128 0xa
 3310 009e 00       		.byte	0
 3311 009f 00       		.byte	0
 3312 00a0 0D       		.uleb128 0xd
 3313 00a1 35       		.uleb128 0x35
 3314 00a2 00       		.byte	0
 3315 00a3 49       		.uleb128 0x49
 3316 00a4 13       		.uleb128 0x13
 3317 00a5 00       		.byte	0
 3318 00a6 00       		.byte	0
 3319 00a7 0E       		.uleb128 0xe
 3320 00a8 17       		.uleb128 0x17
 3321 00a9 01       		.byte	0x1
 3322 00aa 0B       		.uleb128 0xb
 3323 00ab 0B       		.uleb128 0xb
 3324 00ac 3A       		.uleb128 0x3a
ARM GAS  C:\cygwin\tmp\cczUkFSk.s 			page 60


 3325 00ad 0B       		.uleb128 0xb
 3326 00ae 3B       		.uleb128 0x3b
 3327 00af 0B       		.uleb128 0xb
 3328 00b0 01       		.uleb128 0x1
 3329 00b1 13       		.uleb128 0x13
 3330 00b2 00       		.byte	0
 3331 00b3 00       		.byte	0
 3332 00b4 0F       		.uleb128 0xf
 3333 00b5 0D       		.uleb128 0xd
 3334 00b6 00       		.byte	0
 3335 00b7 03       		.uleb128 0x3
 3336 00b8 0E       		.uleb128 0xe
 3337 00b9 3A       		.uleb128 0x3a
 3338 00ba 0B       		.uleb128 0xb
 3339 00bb 3B       		.uleb128 0x3b
 3340 00bc 0B       		.uleb128 0xb
 3341 00bd 49       		.uleb128 0x49
 3342 00be 13       		.uleb128 0x13
 3343 00bf 00       		.byte	0
 3344 00c0 00       		.byte	0
 3345 00c1 10       		.uleb128 0x10
 3346 00c2 26       		.uleb128 0x26
 3347 00c3 00       		.byte	0
 3348 00c4 49       		.uleb128 0x49
 3349 00c5 13       		.uleb128 0x13
 3350 00c6 00       		.byte	0
 3351 00c7 00       		.byte	0
 3352 00c8 11       		.uleb128 0x11
 3353 00c9 15       		.uleb128 0x15
 3354 00ca 01       		.byte	0x1
 3355 00cb 27       		.uleb128 0x27
 3356 00cc 0C       		.uleb128 0xc
 3357 00cd 49       		.uleb128 0x49
 3358 00ce 13       		.uleb128 0x13
 3359 00cf 01       		.uleb128 0x1
 3360 00d0 13       		.uleb128 0x13
 3361 00d1 00       		.byte	0
 3362 00d2 00       		.byte	0
 3363 00d3 12       		.uleb128 0x12
 3364 00d4 05       		.uleb128 0x5
 3365 00d5 00       		.byte	0
 3366 00d6 49       		.uleb128 0x49
 3367 00d7 13       		.uleb128 0x13
 3368 00d8 00       		.byte	0
 3369 00d9 00       		.byte	0
 3370 00da 13       		.uleb128 0x13
 3371 00db 13       		.uleb128 0x13
 3372 00dc 01       		.byte	0x1
 3373 00dd 0B       		.uleb128 0xb
 3374 00de 0B       		.uleb128 0xb
 3375 00df 3A       		.uleb128 0x3a
 3376 00e0 0B       		.uleb128 0xb
 3377 00e1 3B       		.uleb128 0x3b
 3378 00e2 05       		.uleb128 0x5
 3379 00e3 01       		.uleb128 0x1
 3380 00e4 13       		.uleb128 0x13
 3381 00e5 00       		.byte	0
ARM GAS  C:\cygwin\tmp\cczUkFSk.s 			page 61


 3382 00e6 00       		.byte	0
 3383 00e7 14       		.uleb128 0x14
 3384 00e8 0D       		.uleb128 0xd
 3385 00e9 00       		.byte	0
 3386 00ea 03       		.uleb128 0x3
 3387 00eb 0E       		.uleb128 0xe
 3388 00ec 3A       		.uleb128 0x3a
 3389 00ed 0B       		.uleb128 0xb
 3390 00ee 3B       		.uleb128 0x3b
 3391 00ef 05       		.uleb128 0x5
 3392 00f0 49       		.uleb128 0x49
 3393 00f1 13       		.uleb128 0x13
 3394 00f2 38       		.uleb128 0x38
 3395 00f3 0A       		.uleb128 0xa
 3396 00f4 00       		.byte	0
 3397 00f5 00       		.byte	0
 3398 00f6 15       		.uleb128 0x15
 3399 00f7 16       		.uleb128 0x16
 3400 00f8 00       		.byte	0
 3401 00f9 03       		.uleb128 0x3
 3402 00fa 0E       		.uleb128 0xe
 3403 00fb 3A       		.uleb128 0x3a
 3404 00fc 0B       		.uleb128 0xb
 3405 00fd 3B       		.uleb128 0x3b
 3406 00fe 05       		.uleb128 0x5
 3407 00ff 49       		.uleb128 0x49
 3408 0100 13       		.uleb128 0x13
 3409 0101 00       		.byte	0
 3410 0102 00       		.byte	0
 3411 0103 16       		.uleb128 0x16
 3412 0104 17       		.uleb128 0x17
 3413 0105 01       		.byte	0x1
 3414 0106 0B       		.uleb128 0xb
 3415 0107 0B       		.uleb128 0xb
 3416 0108 3A       		.uleb128 0x3a
 3417 0109 0B       		.uleb128 0xb
 3418 010a 3B       		.uleb128 0x3b
 3419 010b 05       		.uleb128 0x5
 3420 010c 01       		.uleb128 0x1
 3421 010d 13       		.uleb128 0x13
 3422 010e 00       		.byte	0
 3423 010f 00       		.byte	0
 3424 0110 17       		.uleb128 0x17
 3425 0111 0D       		.uleb128 0xd
 3426 0112 00       		.byte	0
 3427 0113 03       		.uleb128 0x3
 3428 0114 08       		.uleb128 0x8
 3429 0115 3A       		.uleb128 0x3a
 3430 0116 0B       		.uleb128 0xb
 3431 0117 3B       		.uleb128 0x3b
 3432 0118 05       		.uleb128 0x5
 3433 0119 49       		.uleb128 0x49
 3434 011a 13       		.uleb128 0x13
 3435 011b 00       		.byte	0
 3436 011c 00       		.byte	0
 3437 011d 18       		.uleb128 0x18
 3438 011e 04       		.uleb128 0x4
ARM GAS  C:\cygwin\tmp\cczUkFSk.s 			page 62


 3439 011f 01       		.byte	0x1
 3440 0120 0B       		.uleb128 0xb
 3441 0121 0B       		.uleb128 0xb
 3442 0122 3A       		.uleb128 0x3a
 3443 0123 0B       		.uleb128 0xb
 3444 0124 3B       		.uleb128 0x3b
 3445 0125 0B       		.uleb128 0xb
 3446 0126 01       		.uleb128 0x1
 3447 0127 13       		.uleb128 0x13
 3448 0128 00       		.byte	0
 3449 0129 00       		.byte	0
 3450 012a 19       		.uleb128 0x19
 3451 012b 28       		.uleb128 0x28
 3452 012c 00       		.byte	0
 3453 012d 03       		.uleb128 0x3
 3454 012e 0E       		.uleb128 0xe
 3455 012f 1C       		.uleb128 0x1c
 3456 0130 0D       		.uleb128 0xd
 3457 0131 00       		.byte	0
 3458 0132 00       		.byte	0
 3459 0133 1A       		.uleb128 0x1a
 3460 0134 15       		.uleb128 0x15
 3461 0135 01       		.byte	0x1
 3462 0136 27       		.uleb128 0x27
 3463 0137 0C       		.uleb128 0xc
 3464 0138 01       		.uleb128 0x1
 3465 0139 13       		.uleb128 0x13
 3466 013a 00       		.byte	0
 3467 013b 00       		.byte	0
 3468 013c 1B       		.uleb128 0x1b
 3469 013d 04       		.uleb128 0x4
 3470 013e 01       		.byte	0x1
 3471 013f 03       		.uleb128 0x3
 3472 0140 08       		.uleb128 0x8
 3473 0141 0B       		.uleb128 0xb
 3474 0142 0B       		.uleb128 0xb
 3475 0143 3A       		.uleb128 0x3a
 3476 0144 0B       		.uleb128 0xb
 3477 0145 3B       		.uleb128 0x3b
 3478 0146 0B       		.uleb128 0xb
 3479 0147 01       		.uleb128 0x1
 3480 0148 13       		.uleb128 0x13
 3481 0149 00       		.byte	0
 3482 014a 00       		.byte	0
 3483 014b 1C       		.uleb128 0x1c
 3484 014c 28       		.uleb128 0x28
 3485 014d 00       		.byte	0
 3486 014e 03       		.uleb128 0x3
 3487 014f 08       		.uleb128 0x8
 3488 0150 1C       		.uleb128 0x1c
 3489 0151 0D       		.uleb128 0xd
 3490 0152 00       		.byte	0
 3491 0153 00       		.byte	0
 3492 0154 1D       		.uleb128 0x1d
 3493 0155 2E       		.uleb128 0x2e
 3494 0156 01       		.byte	0x1
 3495 0157 3F       		.uleb128 0x3f
ARM GAS  C:\cygwin\tmp\cczUkFSk.s 			page 63


 3496 0158 0C       		.uleb128 0xc
 3497 0159 03       		.uleb128 0x3
 3498 015a 0E       		.uleb128 0xe
 3499 015b 3A       		.uleb128 0x3a
 3500 015c 0B       		.uleb128 0xb
 3501 015d 3B       		.uleb128 0x3b
 3502 015e 0B       		.uleb128 0xb
 3503 015f 27       		.uleb128 0x27
 3504 0160 0C       		.uleb128 0xc
 3505 0161 49       		.uleb128 0x49
 3506 0162 13       		.uleb128 0x13
 3507 0163 20       		.uleb128 0x20
 3508 0164 0B       		.uleb128 0xb
 3509 0165 01       		.uleb128 0x1
 3510 0166 13       		.uleb128 0x13
 3511 0167 00       		.byte	0
 3512 0168 00       		.byte	0
 3513 0169 1E       		.uleb128 0x1e
 3514 016a 05       		.uleb128 0x5
 3515 016b 00       		.byte	0
 3516 016c 03       		.uleb128 0x3
 3517 016d 08       		.uleb128 0x8
 3518 016e 3A       		.uleb128 0x3a
 3519 016f 0B       		.uleb128 0xb
 3520 0170 3B       		.uleb128 0x3b
 3521 0171 0B       		.uleb128 0xb
 3522 0172 49       		.uleb128 0x49
 3523 0173 13       		.uleb128 0x13
 3524 0174 00       		.byte	0
 3525 0175 00       		.byte	0
 3526 0176 1F       		.uleb128 0x1f
 3527 0177 2E       		.uleb128 0x2e
 3528 0178 01       		.byte	0x1
 3529 0179 03       		.uleb128 0x3
 3530 017a 0E       		.uleb128 0xe
 3531 017b 3A       		.uleb128 0x3a
 3532 017c 0B       		.uleb128 0xb
 3533 017d 3B       		.uleb128 0x3b
 3534 017e 05       		.uleb128 0x5
 3535 017f 27       		.uleb128 0x27
 3536 0180 0C       		.uleb128 0xc
 3537 0181 49       		.uleb128 0x49
 3538 0182 13       		.uleb128 0x13
 3539 0183 11       		.uleb128 0x11
 3540 0184 01       		.uleb128 0x1
 3541 0185 12       		.uleb128 0x12
 3542 0186 01       		.uleb128 0x1
 3543 0187 40       		.uleb128 0x40
 3544 0188 06       		.uleb128 0x6
 3545 0189 9742     		.uleb128 0x2117
 3546 018b 0C       		.uleb128 0xc
 3547 018c 01       		.uleb128 0x1
 3548 018d 13       		.uleb128 0x13
 3549 018e 00       		.byte	0
 3550 018f 00       		.byte	0
 3551 0190 20       		.uleb128 0x20
 3552 0191 05       		.uleb128 0x5
ARM GAS  C:\cygwin\tmp\cczUkFSk.s 			page 64


 3553 0192 00       		.byte	0
 3554 0193 03       		.uleb128 0x3
 3555 0194 08       		.uleb128 0x8
 3556 0195 3A       		.uleb128 0x3a
 3557 0196 0B       		.uleb128 0xb
 3558 0197 3B       		.uleb128 0x3b
 3559 0198 05       		.uleb128 0x5
 3560 0199 49       		.uleb128 0x49
 3561 019a 13       		.uleb128 0x13
 3562 019b 02       		.uleb128 0x2
 3563 019c 06       		.uleb128 0x6
 3564 019d 00       		.byte	0
 3565 019e 00       		.byte	0
 3566 019f 21       		.uleb128 0x21
 3567 01a0 898201   		.uleb128 0x4109
 3568 01a3 00       		.byte	0
 3569 01a4 11       		.uleb128 0x11
 3570 01a5 01       		.uleb128 0x1
 3571 01a6 31       		.uleb128 0x31
 3572 01a7 13       		.uleb128 0x13
 3573 01a8 00       		.byte	0
 3574 01a9 00       		.byte	0
 3575 01aa 22       		.uleb128 0x22
 3576 01ab 2E       		.uleb128 0x2e
 3577 01ac 01       		.byte	0x1
 3578 01ad 31       		.uleb128 0x31
 3579 01ae 13       		.uleb128 0x13
 3580 01af 11       		.uleb128 0x11
 3581 01b0 01       		.uleb128 0x1
 3582 01b1 12       		.uleb128 0x12
 3583 01b2 01       		.uleb128 0x1
 3584 01b3 40       		.uleb128 0x40
 3585 01b4 0A       		.uleb128 0xa
 3586 01b5 9742     		.uleb128 0x2117
 3587 01b7 0C       		.uleb128 0xc
 3588 01b8 01       		.uleb128 0x1
 3589 01b9 13       		.uleb128 0x13
 3590 01ba 00       		.byte	0
 3591 01bb 00       		.byte	0
 3592 01bc 23       		.uleb128 0x23
 3593 01bd 05       		.uleb128 0x5
 3594 01be 00       		.byte	0
 3595 01bf 31       		.uleb128 0x31
 3596 01c0 13       		.uleb128 0x13
 3597 01c1 02       		.uleb128 0x2
 3598 01c2 06       		.uleb128 0x6
 3599 01c3 00       		.byte	0
 3600 01c4 00       		.byte	0
 3601 01c5 24       		.uleb128 0x24
 3602 01c6 2E       		.uleb128 0x2e
 3603 01c7 01       		.byte	0x1
 3604 01c8 3F       		.uleb128 0x3f
 3605 01c9 0C       		.uleb128 0xc
 3606 01ca 03       		.uleb128 0x3
 3607 01cb 0E       		.uleb128 0xe
 3608 01cc 3A       		.uleb128 0x3a
 3609 01cd 0B       		.uleb128 0xb
ARM GAS  C:\cygwin\tmp\cczUkFSk.s 			page 65


 3610 01ce 3B       		.uleb128 0x3b
 3611 01cf 0B       		.uleb128 0xb
 3612 01d0 27       		.uleb128 0x27
 3613 01d1 0C       		.uleb128 0xc
 3614 01d2 11       		.uleb128 0x11
 3615 01d3 01       		.uleb128 0x1
 3616 01d4 12       		.uleb128 0x12
 3617 01d5 01       		.uleb128 0x1
 3618 01d6 40       		.uleb128 0x40
 3619 01d7 06       		.uleb128 0x6
 3620 01d8 9742     		.uleb128 0x2117
 3621 01da 0C       		.uleb128 0xc
 3622 01db 01       		.uleb128 0x1
 3623 01dc 13       		.uleb128 0x13
 3624 01dd 00       		.byte	0
 3625 01de 00       		.byte	0
 3626 01df 25       		.uleb128 0x25
 3627 01e0 05       		.uleb128 0x5
 3628 01e1 00       		.byte	0
 3629 01e2 03       		.uleb128 0x3
 3630 01e3 08       		.uleb128 0x8
 3631 01e4 3A       		.uleb128 0x3a
 3632 01e5 0B       		.uleb128 0xb
 3633 01e6 3B       		.uleb128 0x3b
 3634 01e7 0B       		.uleb128 0xb
 3635 01e8 49       		.uleb128 0x49
 3636 01e9 13       		.uleb128 0x13
 3637 01ea 02       		.uleb128 0x2
 3638 01eb 06       		.uleb128 0x6
 3639 01ec 00       		.byte	0
 3640 01ed 00       		.byte	0
 3641 01ee 26       		.uleb128 0x26
 3642 01ef 34       		.uleb128 0x34
 3643 01f0 00       		.byte	0
 3644 01f1 03       		.uleb128 0x3
 3645 01f2 0E       		.uleb128 0xe
 3646 01f3 3A       		.uleb128 0x3a
 3647 01f4 0B       		.uleb128 0xb
 3648 01f5 3B       		.uleb128 0x3b
 3649 01f6 0B       		.uleb128 0xb
 3650 01f7 49       		.uleb128 0x49
 3651 01f8 13       		.uleb128 0x13
 3652 01f9 02       		.uleb128 0x2
 3653 01fa 0A       		.uleb128 0xa
 3654 01fb 00       		.byte	0
 3655 01fc 00       		.byte	0
 3656 01fd 27       		.uleb128 0x27
 3657 01fe 898201   		.uleb128 0x4109
 3658 0201 01       		.byte	0x1
 3659 0202 11       		.uleb128 0x11
 3660 0203 01       		.uleb128 0x1
 3661 0204 31       		.uleb128 0x31
 3662 0205 13       		.uleb128 0x13
 3663 0206 01       		.uleb128 0x1
 3664 0207 13       		.uleb128 0x13
 3665 0208 00       		.byte	0
 3666 0209 00       		.byte	0
ARM GAS  C:\cygwin\tmp\cczUkFSk.s 			page 66


 3667 020a 28       		.uleb128 0x28
 3668 020b 8A8201   		.uleb128 0x410a
 3669 020e 00       		.byte	0
 3670 020f 02       		.uleb128 0x2
 3671 0210 0A       		.uleb128 0xa
 3672 0211 9142     		.uleb128 0x2111
 3673 0213 0A       		.uleb128 0xa
 3674 0214 00       		.byte	0
 3675 0215 00       		.byte	0
 3676 0216 29       		.uleb128 0x29
 3677 0217 898201   		.uleb128 0x4109
 3678 021a 01       		.byte	0x1
 3679 021b 11       		.uleb128 0x11
 3680 021c 01       		.uleb128 0x1
 3681 021d 31       		.uleb128 0x31
 3682 021e 13       		.uleb128 0x13
 3683 021f 00       		.byte	0
 3684 0220 00       		.byte	0
 3685 0221 2A       		.uleb128 0x2a
 3686 0222 2E       		.uleb128 0x2e
 3687 0223 01       		.byte	0x1
 3688 0224 3F       		.uleb128 0x3f
 3689 0225 0C       		.uleb128 0xc
 3690 0226 03       		.uleb128 0x3
 3691 0227 0E       		.uleb128 0xe
 3692 0228 3A       		.uleb128 0x3a
 3693 0229 0B       		.uleb128 0xb
 3694 022a 3B       		.uleb128 0x3b
 3695 022b 0B       		.uleb128 0xb
 3696 022c 27       		.uleb128 0x27
 3697 022d 0C       		.uleb128 0xc
 3698 022e 11       		.uleb128 0x11
 3699 022f 01       		.uleb128 0x1
 3700 0230 12       		.uleb128 0x12
 3701 0231 01       		.uleb128 0x1
 3702 0232 40       		.uleb128 0x40
 3703 0233 0A       		.uleb128 0xa
 3704 0234 9742     		.uleb128 0x2117
 3705 0236 0C       		.uleb128 0xc
 3706 0237 01       		.uleb128 0x1
 3707 0238 13       		.uleb128 0x13
 3708 0239 00       		.byte	0
 3709 023a 00       		.byte	0
 3710 023b 2B       		.uleb128 0x2b
 3711 023c 898201   		.uleb128 0x4109
 3712 023f 01       		.byte	0x1
 3713 0240 11       		.uleb128 0x11
 3714 0241 01       		.uleb128 0x1
 3715 0242 9542     		.uleb128 0x2115
 3716 0244 0C       		.uleb128 0xc
 3717 0245 31       		.uleb128 0x31
 3718 0246 13       		.uleb128 0x13
 3719 0247 01       		.uleb128 0x1
 3720 0248 13       		.uleb128 0x13
 3721 0249 00       		.byte	0
 3722 024a 00       		.byte	0
 3723 024b 2C       		.uleb128 0x2c
ARM GAS  C:\cygwin\tmp\cczUkFSk.s 			page 67


 3724 024c 898201   		.uleb128 0x4109
 3725 024f 01       		.byte	0x1
 3726 0250 11       		.uleb128 0x11
 3727 0251 01       		.uleb128 0x1
 3728 0252 9542     		.uleb128 0x2115
 3729 0254 0C       		.uleb128 0xc
 3730 0255 31       		.uleb128 0x31
 3731 0256 13       		.uleb128 0x13
 3732 0257 00       		.byte	0
 3733 0258 00       		.byte	0
 3734 0259 2D       		.uleb128 0x2d
 3735 025a 05       		.uleb128 0x5
 3736 025b 00       		.byte	0
 3737 025c 03       		.uleb128 0x3
 3738 025d 0E       		.uleb128 0xe
 3739 025e 3A       		.uleb128 0x3a
 3740 025f 0B       		.uleb128 0xb
 3741 0260 3B       		.uleb128 0x3b
 3742 0261 0B       		.uleb128 0xb
 3743 0262 49       		.uleb128 0x49
 3744 0263 13       		.uleb128 0x13
 3745 0264 02       		.uleb128 0x2
 3746 0265 0A       		.uleb128 0xa
 3747 0266 00       		.byte	0
 3748 0267 00       		.byte	0
 3749 0268 2E       		.uleb128 0x2e
 3750 0269 05       		.uleb128 0x5
 3751 026a 00       		.byte	0
 3752 026b 03       		.uleb128 0x3
 3753 026c 0E       		.uleb128 0xe
 3754 026d 3A       		.uleb128 0x3a
 3755 026e 0B       		.uleb128 0xb
 3756 026f 3B       		.uleb128 0x3b
 3757 0270 0B       		.uleb128 0xb
 3758 0271 49       		.uleb128 0x49
 3759 0272 13       		.uleb128 0x13
 3760 0273 02       		.uleb128 0x2
 3761 0274 06       		.uleb128 0x6
 3762 0275 00       		.byte	0
 3763 0276 00       		.byte	0
 3764 0277 2F       		.uleb128 0x2f
 3765 0278 34       		.uleb128 0x34
 3766 0279 00       		.byte	0
 3767 027a 03       		.uleb128 0x3
 3768 027b 0E       		.uleb128 0xe
 3769 027c 3A       		.uleb128 0x3a
 3770 027d 0B       		.uleb128 0xb
 3771 027e 3B       		.uleb128 0x3b
 3772 027f 0B       		.uleb128 0xb
 3773 0280 49       		.uleb128 0x49
 3774 0281 13       		.uleb128 0x13
 3775 0282 02       		.uleb128 0x2
 3776 0283 06       		.uleb128 0x6
 3777 0284 00       		.byte	0
 3778 0285 00       		.byte	0
 3779 0286 30       		.uleb128 0x30
 3780 0287 2E       		.uleb128 0x2e
ARM GAS  C:\cygwin\tmp\cczUkFSk.s 			page 68


 3781 0288 01       		.byte	0x1
 3782 0289 03       		.uleb128 0x3
 3783 028a 0E       		.uleb128 0xe
 3784 028b 3A       		.uleb128 0x3a
 3785 028c 0B       		.uleb128 0xb
 3786 028d 3B       		.uleb128 0x3b
 3787 028e 0B       		.uleb128 0xb
 3788 028f 27       		.uleb128 0x27
 3789 0290 0C       		.uleb128 0xc
 3790 0291 49       		.uleb128 0x49
 3791 0292 13       		.uleb128 0x13
 3792 0293 11       		.uleb128 0x11
 3793 0294 01       		.uleb128 0x1
 3794 0295 12       		.uleb128 0x12
 3795 0296 01       		.uleb128 0x1
 3796 0297 40       		.uleb128 0x40
 3797 0298 06       		.uleb128 0x6
 3798 0299 9742     		.uleb128 0x2117
 3799 029b 0C       		.uleb128 0xc
 3800 029c 01       		.uleb128 0x1
 3801 029d 13       		.uleb128 0x13
 3802 029e 00       		.byte	0
 3803 029f 00       		.byte	0
 3804 02a0 31       		.uleb128 0x31
 3805 02a1 2E       		.uleb128 0x2e
 3806 02a2 01       		.byte	0x1
 3807 02a3 3F       		.uleb128 0x3f
 3808 02a4 0C       		.uleb128 0xc
 3809 02a5 03       		.uleb128 0x3
 3810 02a6 0E       		.uleb128 0xe
 3811 02a7 3A       		.uleb128 0x3a
 3812 02a8 0B       		.uleb128 0xb
 3813 02a9 3B       		.uleb128 0x3b
 3814 02aa 05       		.uleb128 0x5
 3815 02ab 27       		.uleb128 0x27
 3816 02ac 0C       		.uleb128 0xc
 3817 02ad 49       		.uleb128 0x49
 3818 02ae 13       		.uleb128 0x13
 3819 02af 11       		.uleb128 0x11
 3820 02b0 01       		.uleb128 0x1
 3821 02b1 12       		.uleb128 0x12
 3822 02b2 01       		.uleb128 0x1
 3823 02b3 40       		.uleb128 0x40
 3824 02b4 06       		.uleb128 0x6
 3825 02b5 9742     		.uleb128 0x2117
 3826 02b7 0C       		.uleb128 0xc
 3827 02b8 01       		.uleb128 0x1
 3828 02b9 13       		.uleb128 0x13
 3829 02ba 00       		.byte	0
 3830 02bb 00       		.byte	0
 3831 02bc 32       		.uleb128 0x32
 3832 02bd 01       		.uleb128 0x1
 3833 02be 01       		.byte	0x1
 3834 02bf 49       		.uleb128 0x49
 3835 02c0 13       		.uleb128 0x13
 3836 02c1 01       		.uleb128 0x1
 3837 02c2 13       		.uleb128 0x13
ARM GAS  C:\cygwin\tmp\cczUkFSk.s 			page 69


 3838 02c3 00       		.byte	0
 3839 02c4 00       		.byte	0
 3840 02c5 33       		.uleb128 0x33
 3841 02c6 21       		.uleb128 0x21
 3842 02c7 00       		.byte	0
 3843 02c8 49       		.uleb128 0x49
 3844 02c9 13       		.uleb128 0x13
 3845 02ca 2F       		.uleb128 0x2f
 3846 02cb 0B       		.uleb128 0xb
 3847 02cc 00       		.byte	0
 3848 02cd 00       		.byte	0
 3849 02ce 34       		.uleb128 0x34
 3850 02cf 34       		.uleb128 0x34
 3851 02d0 00       		.byte	0
 3852 02d1 03       		.uleb128 0x3
 3853 02d2 0E       		.uleb128 0xe
 3854 02d3 3A       		.uleb128 0x3a
 3855 02d4 0B       		.uleb128 0xb
 3856 02d5 3B       		.uleb128 0x3b
 3857 02d6 05       		.uleb128 0x5
 3858 02d7 49       		.uleb128 0x49
 3859 02d8 13       		.uleb128 0x13
 3860 02d9 02       		.uleb128 0x2
 3861 02da 0A       		.uleb128 0xa
 3862 02db 00       		.byte	0
 3863 02dc 00       		.byte	0
 3864 02dd 35       		.uleb128 0x35
 3865 02de 34       		.uleb128 0x34
 3866 02df 00       		.byte	0
 3867 02e0 03       		.uleb128 0x3
 3868 02e1 0E       		.uleb128 0xe
 3869 02e2 3A       		.uleb128 0x3a
 3870 02e3 0B       		.uleb128 0xb
 3871 02e4 3B       		.uleb128 0x3b
 3872 02e5 0B       		.uleb128 0xb
 3873 02e6 49       		.uleb128 0x49
 3874 02e7 13       		.uleb128 0x13
 3875 02e8 3F       		.uleb128 0x3f
 3876 02e9 0C       		.uleb128 0xc
 3877 02ea 3C       		.uleb128 0x3c
 3878 02eb 0C       		.uleb128 0xc
 3879 02ec 00       		.byte	0
 3880 02ed 00       		.byte	0
 3881 02ee 36       		.uleb128 0x36
 3882 02ef 34       		.uleb128 0x34
 3883 02f0 00       		.byte	0
 3884 02f1 03       		.uleb128 0x3
 3885 02f2 0E       		.uleb128 0xe
 3886 02f3 3A       		.uleb128 0x3a
 3887 02f4 0B       		.uleb128 0xb
 3888 02f5 3B       		.uleb128 0x3b
 3889 02f6 05       		.uleb128 0x5
 3890 02f7 49       		.uleb128 0x49
 3891 02f8 13       		.uleb128 0x13
 3892 02f9 3F       		.uleb128 0x3f
 3893 02fa 0C       		.uleb128 0xc
 3894 02fb 3C       		.uleb128 0x3c
ARM GAS  C:\cygwin\tmp\cczUkFSk.s 			page 70


 3895 02fc 0C       		.uleb128 0xc
 3896 02fd 00       		.byte	0
 3897 02fe 00       		.byte	0
 3898 02ff 37       		.uleb128 0x37
 3899 0300 34       		.uleb128 0x34
 3900 0301 00       		.byte	0
 3901 0302 03       		.uleb128 0x3
 3902 0303 0E       		.uleb128 0xe
 3903 0304 3A       		.uleb128 0x3a
 3904 0305 0B       		.uleb128 0xb
 3905 0306 3B       		.uleb128 0x3b
 3906 0307 0B       		.uleb128 0xb
 3907 0308 49       		.uleb128 0x49
 3908 0309 13       		.uleb128 0x13
 3909 030a 3F       		.uleb128 0x3f
 3910 030b 0C       		.uleb128 0xc
 3911 030c 02       		.uleb128 0x2
 3912 030d 0A       		.uleb128 0xa
 3913 030e 00       		.byte	0
 3914 030f 00       		.byte	0
 3915 0310 38       		.uleb128 0x38
 3916 0311 34       		.uleb128 0x34
 3917 0312 00       		.byte	0
 3918 0313 03       		.uleb128 0x3
 3919 0314 08       		.uleb128 0x8
 3920 0315 3A       		.uleb128 0x3a
 3921 0316 0B       		.uleb128 0xb
 3922 0317 3B       		.uleb128 0x3b
 3923 0318 0B       		.uleb128 0xb
 3924 0319 49       		.uleb128 0x49
 3925 031a 13       		.uleb128 0x13
 3926 031b 3F       		.uleb128 0x3f
 3927 031c 0C       		.uleb128 0xc
 3928 031d 02       		.uleb128 0x2
 3929 031e 0A       		.uleb128 0xa
 3930 031f 00       		.byte	0
 3931 0320 00       		.byte	0
 3932 0321 39       		.uleb128 0x39
 3933 0322 2E       		.uleb128 0x2e
 3934 0323 01       		.byte	0x1
 3935 0324 3F       		.uleb128 0x3f
 3936 0325 0C       		.uleb128 0xc
 3937 0326 03       		.uleb128 0x3
 3938 0327 0E       		.uleb128 0xe
 3939 0328 3A       		.uleb128 0x3a
 3940 0329 0B       		.uleb128 0xb
 3941 032a 3B       		.uleb128 0x3b
 3942 032b 05       		.uleb128 0x5
 3943 032c 27       		.uleb128 0x27
 3944 032d 0C       		.uleb128 0xc
 3945 032e 3C       		.uleb128 0x3c
 3946 032f 0C       		.uleb128 0xc
 3947 0330 01       		.uleb128 0x1
 3948 0331 13       		.uleb128 0x13
 3949 0332 00       		.byte	0
 3950 0333 00       		.byte	0
 3951 0334 3A       		.uleb128 0x3a
ARM GAS  C:\cygwin\tmp\cczUkFSk.s 			page 71


 3952 0335 2E       		.uleb128 0x2e
 3953 0336 00       		.byte	0
 3954 0337 3F       		.uleb128 0x3f
 3955 0338 0C       		.uleb128 0xc
 3956 0339 03       		.uleb128 0x3
 3957 033a 0E       		.uleb128 0xe
 3958 033b 3A       		.uleb128 0x3a
 3959 033c 0B       		.uleb128 0xb
 3960 033d 3B       		.uleb128 0x3b
 3961 033e 0B       		.uleb128 0xb
 3962 033f 27       		.uleb128 0x27
 3963 0340 0C       		.uleb128 0xc
 3964 0341 3C       		.uleb128 0x3c
 3965 0342 0C       		.uleb128 0xc
 3966 0343 00       		.byte	0
 3967 0344 00       		.byte	0
 3968 0345 3B       		.uleb128 0x3b
 3969 0346 2E       		.uleb128 0x2e
 3970 0347 01       		.byte	0x1
 3971 0348 3F       		.uleb128 0x3f
 3972 0349 0C       		.uleb128 0xc
 3973 034a 03       		.uleb128 0x3
 3974 034b 0E       		.uleb128 0xe
 3975 034c 3A       		.uleb128 0x3a
 3976 034d 0B       		.uleb128 0xb
 3977 034e 3B       		.uleb128 0x3b
 3978 034f 05       		.uleb128 0x5
 3979 0350 27       		.uleb128 0x27
 3980 0351 0C       		.uleb128 0xc
 3981 0352 49       		.uleb128 0x49
 3982 0353 13       		.uleb128 0x13
 3983 0354 3C       		.uleb128 0x3c
 3984 0355 0C       		.uleb128 0xc
 3985 0356 00       		.byte	0
 3986 0357 00       		.byte	0
 3987 0358 00       		.byte	0
 3988              		.section	.debug_loc,"",%progbits
 3989              	.Ldebug_loc0:
 3990              	.LLST0:
 3991 0000 00000000 		.4byte	.LFB123
 3992 0004 02000000 		.4byte	.LCFI0
 3993 0008 0200     		.2byte	0x2
 3994 000a 7D       		.byte	0x7d
 3995 000b 00       		.sleb128 0
 3996 000c 02000000 		.4byte	.LCFI0
 3997 0010 24000000 		.4byte	.LFE123
 3998 0014 0200     		.2byte	0x2
 3999 0016 7D       		.byte	0x7d
 4000 0017 08       		.sleb128 8
 4001 0018 00000000 		.4byte	0
 4002 001c 00000000 		.4byte	0
 4003              	.LLST1:
 4004 0020 00000000 		.4byte	.LVL0
 4005 0024 0A000000 		.4byte	.LVL1
 4006 0028 0100     		.2byte	0x1
 4007 002a 50       		.byte	0x50
 4008 002b 0A000000 		.4byte	.LVL1
ARM GAS  C:\cygwin\tmp\cczUkFSk.s 			page 72


 4009 002f 24000000 		.4byte	.LFE123
 4010 0033 0400     		.2byte	0x4
 4011 0035 F3       		.byte	0xf3
 4012 0036 01       		.uleb128 0x1
 4013 0037 50       		.byte	0x50
 4014 0038 9F       		.byte	0x9f
 4015 0039 00000000 		.4byte	0
 4016 003d 00000000 		.4byte	0
 4017              	.LLST2:
 4018 0041 00000000 		.4byte	.LVL4
 4019 0045 00000000 		.4byte	.LVL4
 4020 0049 0100     		.2byte	0x1
 4021 004b 50       		.byte	0x50
 4022 004c 00000000 		.4byte	.LVL4
 4023 0050 04000000 		.4byte	.LFE118
 4024 0054 0200     		.2byte	0x2
 4025 0056 31       		.byte	0x31
 4026 0057 9F       		.byte	0x9f
 4027 0058 00000000 		.4byte	0
 4028 005c 00000000 		.4byte	0
 4029              	.LLST3:
 4030 0060 00000000 		.4byte	.LFB119
 4031 0064 02000000 		.4byte	.LCFI1
 4032 0068 0200     		.2byte	0x2
 4033 006a 7D       		.byte	0x7d
 4034 006b 00       		.sleb128 0
 4035 006c 02000000 		.4byte	.LCFI1
 4036 0070 44000000 		.4byte	.LFE119
 4037 0074 0200     		.2byte	0x2
 4038 0076 7D       		.byte	0x7d
 4039 0077 18       		.sleb128 24
 4040 0078 00000000 		.4byte	0
 4041 007c 00000000 		.4byte	0
 4042              	.LLST4:
 4043 0080 00000000 		.4byte	.LVL5
 4044 0084 20000000 		.4byte	.LVL7
 4045 0088 0100     		.2byte	0x1
 4046 008a 50       		.byte	0x50
 4047 008b 20000000 		.4byte	.LVL7
 4048 008f 25000000 		.4byte	.LVL8-1
 4049 0093 0500     		.2byte	0x5
 4050 0095 03       		.byte	0x3
 4051 0096 00000000 		.4byte	cur_pos.6469
 4052 009a 25000000 		.4byte	.LVL8-1
 4053 009e 44000000 		.4byte	.LFE119
 4054 00a2 0400     		.2byte	0x4
 4055 00a4 F3       		.byte	0xf3
 4056 00a5 01       		.uleb128 0x1
 4057 00a6 50       		.byte	0x50
 4058 00a7 9F       		.byte	0x9f
 4059 00a8 00000000 		.4byte	0
 4060 00ac 00000000 		.4byte	0
 4061              	.LLST5:
 4062 00b0 00000000 		.4byte	.LFB121
 4063 00b4 02000000 		.4byte	.LCFI2
 4064 00b8 0200     		.2byte	0x2
 4065 00ba 7D       		.byte	0x7d
ARM GAS  C:\cygwin\tmp\cczUkFSk.s 			page 73


 4066 00bb 00       		.sleb128 0
 4067 00bc 02000000 		.4byte	.LCFI2
 4068 00c0 08000000 		.4byte	.LCFI3
 4069 00c4 0200     		.2byte	0x2
 4070 00c6 7D       		.byte	0x7d
 4071 00c7 0C       		.sleb128 12
 4072 00c8 08000000 		.4byte	.LCFI3
 4073 00cc 44000000 		.4byte	.LFE121
 4074 00d0 0200     		.2byte	0x2
 4075 00d2 7D       		.byte	0x7d
 4076 00d3 18       		.sleb128 24
 4077 00d4 00000000 		.4byte	0
 4078 00d8 00000000 		.4byte	0
 4079              	.LLST6:
 4080 00dc 00000000 		.4byte	.LVL19
 4081 00e0 22000000 		.4byte	.LVL21
 4082 00e4 0100     		.2byte	0x1
 4083 00e6 51       		.byte	0x51
 4084 00e7 22000000 		.4byte	.LVL21
 4085 00eb 26000000 		.4byte	.LVL22
 4086 00ef 0400     		.2byte	0x4
 4087 00f1 F3       		.byte	0xf3
 4088 00f2 01       		.uleb128 0x1
 4089 00f3 51       		.byte	0x51
 4090 00f4 9F       		.byte	0x9f
 4091 00f5 26000000 		.4byte	.LVL22
 4092 00f9 36000000 		.4byte	.LVL23
 4093 00fd 0100     		.2byte	0x1
 4094 00ff 51       		.byte	0x51
 4095 0100 36000000 		.4byte	.LVL23
 4096 0104 44000000 		.4byte	.LFE121
 4097 0108 0400     		.2byte	0x4
 4098 010a F3       		.byte	0xf3
 4099 010b 01       		.uleb128 0x1
 4100 010c 51       		.byte	0x51
 4101 010d 9F       		.byte	0x9f
 4102 010e 00000000 		.4byte	0
 4103 0112 00000000 		.4byte	0
 4104              	.LLST7:
 4105 0116 12000000 		.4byte	.LVL20
 4106 011a 22000000 		.4byte	.LVL21
 4107 011e 0100     		.2byte	0x1
 4108 0120 53       		.byte	0x53
 4109 0121 26000000 		.4byte	.LVL22
 4110 0125 3D000000 		.4byte	.LVL24-1
 4111 0129 0100     		.2byte	0x1
 4112 012b 53       		.byte	0x53
 4113 012c 00000000 		.4byte	0
 4114 0130 00000000 		.4byte	0
 4115              	.LLST8:
 4116 0134 00000000 		.4byte	.LFB122
 4117 0138 04000000 		.4byte	.LCFI4
 4118 013c 0200     		.2byte	0x2
 4119 013e 7D       		.byte	0x7d
 4120 013f 00       		.sleb128 0
 4121 0140 04000000 		.4byte	.LCFI4
 4122 0144 A8010000 		.4byte	.LFE122
ARM GAS  C:\cygwin\tmp\cczUkFSk.s 			page 74


 4123 0148 0200     		.2byte	0x2
 4124 014a 7D       		.byte	0x7d
 4125 014b 28       		.sleb128 40
 4126 014c 00000000 		.4byte	0
 4127 0150 00000000 		.4byte	0
 4128              	.LLST9:
 4129 0154 00000000 		.4byte	.LVL25
 4130 0158 12000000 		.4byte	.LVL26
 4131 015c 0100     		.2byte	0x1
 4132 015e 50       		.byte	0x50
 4133 015f 12000000 		.4byte	.LVL26
 4134 0163 A8010000 		.4byte	.LFE122
 4135 0167 0400     		.2byte	0x4
 4136 0169 F3       		.byte	0xf3
 4137 016a 01       		.uleb128 0x1
 4138 016b 50       		.byte	0x50
 4139 016c 9F       		.byte	0x9f
 4140 016d 00000000 		.4byte	0
 4141 0171 00000000 		.4byte	0
 4142              	.LLST10:
 4143 0175 00000000 		.4byte	.LFB124
 4144 0179 02000000 		.4byte	.LCFI5
 4145 017d 0200     		.2byte	0x2
 4146 017f 7D       		.byte	0x7d
 4147 0180 00       		.sleb128 0
 4148 0181 02000000 		.4byte	.LCFI5
 4149 0185 04000000 		.4byte	.LCFI6
 4150 0189 0200     		.2byte	0x2
 4151 018b 7D       		.byte	0x7d
 4152 018c 08       		.sleb128 8
 4153 018d 04000000 		.4byte	.LCFI6
 4154 0191 60000000 		.4byte	.LFE124
 4155 0195 0200     		.2byte	0x2
 4156 0197 7D       		.byte	0x7d
 4157 0198 10       		.sleb128 16
 4158 0199 00000000 		.4byte	0
 4159 019d 00000000 		.4byte	0
 4160              		.section	.debug_aranges,"",%progbits
 4161 0000 4C000000 		.4byte	0x4c
 4162 0004 0200     		.2byte	0x2
 4163 0006 00000000 		.4byte	.Ldebug_info0
 4164 000a 04       		.byte	0x4
 4165 000b 00       		.byte	0
 4166 000c 0000     		.2byte	0
 4167 000e 0000     		.2byte	0
 4168 0010 00000000 		.4byte	.LFB123
 4169 0014 24000000 		.4byte	.LFE123-.LFB123
 4170 0018 00000000 		.4byte	.LFB118
 4171 001c 04000000 		.4byte	.LFE118-.LFB118
 4172 0020 00000000 		.4byte	.LFB119
 4173 0024 44000000 		.4byte	.LFE119-.LFB119
 4174 0028 00000000 		.4byte	.LFB120
 4175 002c A8000000 		.4byte	.LFE120-.LFB120
 4176 0030 00000000 		.4byte	.LFB121
 4177 0034 44000000 		.4byte	.LFE121-.LFB121
 4178 0038 00000000 		.4byte	.LFB122
 4179 003c A8010000 		.4byte	.LFE122-.LFB122
ARM GAS  C:\cygwin\tmp\cczUkFSk.s 			page 75


 4180 0040 00000000 		.4byte	.LFB124
 4181 0044 60000000 		.4byte	.LFE124-.LFB124
 4182 0048 00000000 		.4byte	0
 4183 004c 00000000 		.4byte	0
 4184              		.section	.debug_ranges,"",%progbits
 4185              	.Ldebug_ranges0:
 4186 0000 00000000 		.4byte	.LFB123
 4187 0004 24000000 		.4byte	.LFE123
 4188 0008 00000000 		.4byte	.LFB118
 4189 000c 04000000 		.4byte	.LFE118
 4190 0010 00000000 		.4byte	.LFB119
 4191 0014 44000000 		.4byte	.LFE119
 4192 0018 00000000 		.4byte	.LFB120
 4193 001c A8000000 		.4byte	.LFE120
 4194 0020 00000000 		.4byte	.LFB121
 4195 0024 44000000 		.4byte	.LFE121
 4196 0028 00000000 		.4byte	.LFB122
 4197 002c A8010000 		.4byte	.LFE122
 4198 0030 00000000 		.4byte	.LFB124
 4199 0034 60000000 		.4byte	.LFE124
 4200 0038 00000000 		.4byte	0
 4201 003c 00000000 		.4byte	0
 4202              		.section	.debug_line,"",%progbits
 4203              	.Ldebug_line0:
 4204 0000 DF040000 		.section	.debug_str,"MS",%progbits,1
 4204      0200D702 
 4204      00000201 
 4204      FB0E0D00 
 4204      01010101 
 4205              	.LASF51:
 4206 0000 696E7463 		.ascii	"intctx\000"
 4206      747800
 4207              	.LASF70:
 4208 0007 7466756E 		.ascii	"tfunc_t\000"
 4208      635F7400 
 4209              	.LASF1:
 4210 000f 73697A65 		.ascii	"size_t\000"
 4210      5F7400
 4211              	.LASF65:
 4212 0016 7264796D 		.ascii	"rdymsg\000"
 4212      736700
 4213              	.LASF15:
 4214 001d 75696E74 		.ascii	"uint64_t\000"
 4214      36345F74 
 4214      00
 4215              	.LASF128:
 4216 0026 4449525F 		.ascii	"DIR_t\000"
 4216      7400
 4217              	.LASF77:
 4218 002c 4F545950 		.ascii	"OTYPER\000"
 4218      455200
 4219              	.LASF111:
 4220 0033 5350495F 		.ascii	"SPI_ACTIVE\000"
 4220      41435449 
 4220      564500
 4221              	.LASF106:
 4222 003e 696F706F 		.ascii	"ioportmask_t\000"
ARM GAS  C:\cygwin\tmp\cczUkFSk.s 			page 76


 4222      72746D61 
 4222      736B5F74 
 4222      00
 4223              	.LASF119:
 4224 004b 646D6172 		.ascii	"dmarx\000"
 4224      7800
 4225              	.LASF76:
 4226 0051 4D4F4445 		.ascii	"MODER\000"
 4226      5200
 4227              	.LASF16:
 4228 0057 6C6F6E67 		.ascii	"long long unsigned int\000"
 4228      206C6F6E 
 4228      6720756E 
 4228      7369676E 
 4228      65642069 
 4229              	.LASF152:
 4230 006e 4F55545F 		.ascii	"OUT_Y_H\000"
 4230      595F4800 
 4231              	.LASF139:
 4232 0076 61646472 		.ascii	"addr\000"
 4232      00
 4233              	.LASF79:
 4234 007b 50555044 		.ascii	"PUPDR\000"
 4234      5200
 4235              	.LASF66:
 4236 0081 65786974 		.ascii	"exitcode\000"
 4236      636F6465 
 4236      00
 4237              	.LASF104:
 4238 008a 76656374 		.ascii	"vector\000"
 4238      6F7200
 4239              	.LASF114:
 4240 0091 53504944 		.ascii	"SPIDriver\000"
 4240      72697665 
 4240      7200
 4241              	.LASF125:
 4242 009b 7373706F 		.ascii	"ssport\000"
 4242      727400
 4243              	.LASF144:
 4244 00a2 49544D5F 		.ascii	"ITM_RxBuffer\000"
 4244      52784275 
 4244      66666572 
 4244      00
 4245              	.LASF162:
 4246 00af 73706953 		.ascii	"spiSelect\000"
 4246      656C6563 
 4246      7400
 4247              	.LASF29:
 4248 00b9 705F7072 		.ascii	"p_prio\000"
 4248      696F00
 4249              	.LASF126:
 4250 00c0 73737061 		.ascii	"sspad\000"
 4250      6400
 4251              	.LASF6:
 4252 00c6 696E7431 		.ascii	"int16_t\000"
 4252      365F7400 
 4253              	.LASF14:
ARM GAS  C:\cygwin\tmp\cczUkFSk.s 			page 77


 4254 00ce 6C6F6E67 		.ascii	"long long int\000"
 4254      206C6F6E 
 4254      6720696E 
 4254      7400
 4255              	.LASF3:
 4256 00dc 7369676E 		.ascii	"signed char\000"
 4256      65642063 
 4256      68617200 
 4257              	.LASF80:
 4258 00e8 42535252 		.ascii	"BSRR\000"
 4258      00
 4259              	.LASF166:
 4260 00ed 63685379 		.ascii	"chSysInit\000"
 4260      73496E69 
 4260      7400
 4261              	.LASF109:
 4262 00f7 5350495F 		.ascii	"SPI_STOP\000"
 4262      53544F50 
 4262      00
 4263              	.LASF46:
 4264 0100 705F6D70 		.ascii	"p_mpool\000"
 4264      6F6F6C00 
 4265              	.LASF133:
 4266 0108 5F6C3367 		.ascii	"_l3gd_register_setting\000"
 4266      645F7265 
 4266      67697374 
 4266      65725F73 
 4266      65747469 
 4267              	.LASF62:
 4268 011f 6D5F7175 		.ascii	"m_queue\000"
 4268      65756500 
 4269              	.LASF21:
 4270 0127 74736C69 		.ascii	"tslices_t\000"
 4270      6365735F 
 4270      7400
 4271              	.LASF123:
 4272 0131 73706963 		.ascii	"spicallback_t\000"
 4272      616C6C62 
 4272      61636B5F 
 4272      7400
 4273              	.LASF115:
 4274 013f 73746174 		.ascii	"state\000"
 4274      6500
 4275              	.LASF11:
 4276 0145 6C6F6E67 		.ascii	"long int\000"
 4276      20696E74 
 4276      00
 4277              	.LASF19:
 4278 014e 74737461 		.ascii	"tstate_t\000"
 4278      74655F74 
 4278      00
 4279              	.LASF138:
 4280 0157 7370695F 		.ascii	"spi_thread_1\000"
 4280      74687265 
 4280      61645F31 
 4280      00
 4281              	.LASF117:
ARM GAS  C:\cygwin\tmp\cczUkFSk.s 			page 78


 4282 0164 74687265 		.ascii	"thread\000"
 4282      616400
 4283              	.LASF172:
 4284 016b 61737365 		.ascii	"assert_check_led\000"
 4284      72745F63 
 4284      6865636B 
 4284      5F6C6564 
 4284      00
 4285              	.LASF39:
 4286 017c 705F7469 		.ascii	"p_time\000"
 4286      6D6500
 4287              	.LASF31:
 4288 0183 705F6E65 		.ascii	"p_newer\000"
 4288      77657200 
 4289              	.LASF131:
 4290 018b 73656172 		.ascii	"searching_led_position\000"
 4290      6368696E 
 4290      675F6C65 
 4290      645F706F 
 4290      73697469 
 4291              	.LASF124:
 4292 01a2 656E645F 		.ascii	"end_cb\000"
 4292      636200
 4293              	.LASF121:
 4294 01a9 7278646D 		.ascii	"rxdmamode\000"
 4294      616D6F64 
 4294      6500
 4295              	.LASF84:
 4296 01b3 4750494F 		.ascii	"GPIO_TypeDef\000"
 4296      5F547970 
 4296      65446566 
 4296      00
 4297              	.LASF120:
 4298 01c0 646D6174 		.ascii	"dmatx\000"
 4298      7800
 4299              	.LASF151:
 4300 01c6 4F55545F 		.ascii	"OUT_Y_L\000"
 4300      595F4C00 
 4301              	.LASF142:
 4302 01ce 7370695F 		.ascii	"spi_thread_2_wa\000"
 4302      74687265 
 4302      61645F32 
 4302      5F776100 
 4303              	.LASF78:
 4304 01de 4F535045 		.ascii	"OSPEEDR\000"
 4304      45445200 
 4305              	.LASF57:
 4306 01e6 725F6E65 		.ascii	"r_newer\000"
 4306      77657200 
 4307              	.LASF49:
 4308 01ee 72656761 		.ascii	"regarm_t\000"
 4308      726D5F74 
 4308      00
 4309              	.LASF103:
 4310 01f7 73656C66 		.ascii	"selfindex\000"
 4310      696E6465 
 4310      7800
ARM GAS  C:\cygwin\tmp\cczUkFSk.s 			page 79


 4311              	.LASF164:
 4312 0201 73706955 		.ascii	"spiUnselect\000"
 4312      6E73656C 
 4312      65637400 
 4313              	.LASF34:
 4314 020d 705F7374 		.ascii	"p_stklimit\000"
 4314      6B6C696D 
 4314      697400
 4315              	.LASF0:
 4316 0218 756E7369 		.ascii	"unsigned int\000"
 4316      676E6564 
 4316      20696E74 
 4316      00
 4317              	.LASF72:
 4318 0225 43504152 		.ascii	"CPAR\000"
 4318      00
 4319              	.LASF41:
 4320 022a 705F6D73 		.ascii	"p_msgqueue\000"
 4320      67717565 
 4320      756500
 4321              	.LASF134:
 4322 0235 6374726C 		.ascii	"ctrl_reg\000"
 4322      5F726567 
 4322      00
 4323              	.LASF165:
 4324 023e 68616C49 		.ascii	"halInit\000"
 4324      6E697400 
 4325              	.LASF81:
 4326 0246 4C434B52 		.ascii	"LCKR\000"
 4326      00
 4327              	.LASF102:
 4328 024b 69736869 		.ascii	"ishift\000"
 4328      667400
 4329              	.LASF136:
 4330 0252 72656761 		.ascii	"regaddr\000"
 4330      64647200 
 4331              	.LASF141:
 4332 025a 7370695F 		.ascii	"spi_thread_1_wa\000"
 4332      74687265 
 4332      61645F31 
 4332      5F776100 
 4333              	.LASF9:
 4334 026a 73686F72 		.ascii	"short unsigned int\000"
 4334      7420756E 
 4334      7369676E 
 4334      65642069 
 4334      6E7400
 4335              	.LASF23:
 4336 027d 6D73675F 		.ascii	"msg_t\000"
 4336      7400
 4337              	.LASF163:
 4338 0283 4C334744 		.ascii	"L3GD20_Read\000"
 4338      32305F52 
 4338      65616400 
 4339              	.LASF170:
 4340 028f 6D61696E 		.ascii	"main.c\000"
 4340      2E6300
ARM GAS  C:\cygwin\tmp\cczUkFSk.s 			page 80


 4341              	.LASF18:
 4342 0296 746D6F64 		.ascii	"tmode_t\000"
 4342      655F7400 
 4343              	.LASF48:
 4344 029e 54687265 		.ascii	"ThreadsList\000"
 4344      6164734C 
 4344      69737400 
 4345              	.LASF24:
 4346 02aa 6576656E 		.ascii	"eventmask_t\000"
 4346      746D6173 
 4346      6B5F7400 
 4347              	.LASF61:
 4348 02b6 4D757465 		.ascii	"Mutex\000"
 4348      7800
 4349              	.LASF50:
 4350 02bc 73746B61 		.ascii	"stkalign_t\000"
 4350      6C69676E 
 4350      5F7400
 4351              	.LASF156:
 4352 02c7 67526567 		.ascii	"gRegStatus\000"
 4352      53746174 
 4352      757300
 4353              	.LASF168:
 4354 02d2 63685468 		.ascii	"chThdCreateStatic\000"
 4354      64437265 
 4354      61746553 
 4354      74617469 
 4354      6300
 4355              	.LASF26:
 4356 02e4 54687265 		.ascii	"Thread\000"
 4356      616400
 4357              	.LASF97:
 4358 02eb 49325350 		.ascii	"I2SPR\000"
 4358      5200
 4359              	.LASF155:
 4360 02f1 57484F5F 		.ascii	"WHO_AM_I\000"
 4360      414D5F49 
 4360      00
 4361              	.LASF53:
 4362 02fa 73697A65 		.ascii	"sizetype\000"
 4362      74797065 
 4362      00
 4363              	.LASF75:
 4364 0303 636C6561 		.ascii	"clear\000"
 4364      7200
 4365              	.LASF147:
 4366 0309 67537069 		.ascii	"gSpiConfig\000"
 4366      436F6E66 
 4366      696700
 4367              	.LASF135:
 4368 0314 7265675F 		.ascii	"reg_val\000"
 4368      76616C00 
 4369              	.LASF95:
 4370 031c 49325343 		.ascii	"I2SCFGR\000"
 4370      46475200 
 4371              	.LASF8:
 4372 0324 75696E74 		.ascii	"uint16_t\000"
ARM GAS  C:\cygwin\tmp\cczUkFSk.s 			page 81


 4372      31365F74 
 4372      00
 4373              	.LASF32:
 4374 032d 705F6F6C 		.ascii	"p_older\000"
 4374      64657200 
 4375              	.LASF56:
 4376 0335 725F6374 		.ascii	"r_ctx\000"
 4376      7800
 4377              	.LASF47:
 4378 033b 54687265 		.ascii	"ThreadsQueue\000"
 4378      61647351 
 4378      75657565 
 4378      00
 4379              	.LASF122:
 4380 0348 7478646D 		.ascii	"txdmamode\000"
 4380      616D6F64 
 4380      6500
 4381              	.LASF169:
 4382 0352 474E5520 		.ascii	"GNU C 4.7.2\000"
 4382      4320342E 
 4382      372E3200 
 4383              	.LASF59:
 4384 035e 725F6375 		.ascii	"r_current\000"
 4384      7272656E 
 4384      7400
 4385              	.LASF58:
 4386 0368 725F6F6C 		.ascii	"r_older\000"
 4386      64657200 
 4387              	.LASF150:
 4388 0370 4F55545F 		.ascii	"OUT_X_H\000"
 4388      585F4800 
 4389              	.LASF74:
 4390 0378 444D415F 		.ascii	"DMA_Channel_TypeDef\000"
 4390      4368616E 
 4390      6E656C5F 
 4390      54797065 
 4390      44656600 
 4391              	.LASF89:
 4392 038c 43524350 		.ascii	"CRCPR\000"
 4392      5200
 4393              	.LASF82:
 4394 0392 4146524C 		.ascii	"AFRL\000"
 4394      00
 4395              	.LASF93:
 4396 0397 54584352 		.ascii	"TXCRCR\000"
 4396      435200
 4397              	.LASF85:
 4398 039e 52455345 		.ascii	"RESERVED0\000"
 4398      52564544 
 4398      3000
 4399              	.LASF86:
 4400 03a8 52455345 		.ascii	"RESERVED1\000"
 4400      52564544 
 4400      3100
 4401              	.LASF87:
 4402 03b2 52455345 		.ascii	"RESERVED2\000"
 4402      52564544 
ARM GAS  C:\cygwin\tmp\cczUkFSk.s 			page 82


 4402      3200
 4403              	.LASF88:
 4404 03bc 52455345 		.ascii	"RESERVED3\000"
 4404      52564544 
 4404      3300
 4405              	.LASF90:
 4406 03c6 52455345 		.ascii	"RESERVED4\000"
 4406      52564544 
 4406      3400
 4407              	.LASF28:
 4408 03d0 705F7072 		.ascii	"p_prev\000"
 4408      657600
 4409              	.LASF94:
 4410 03d7 52455345 		.ascii	"RESERVED6\000"
 4410      52564544 
 4410      3600
 4411              	.LASF96:
 4412 03e1 52455345 		.ascii	"RESERVED7\000"
 4412      52564544 
 4412      3700
 4413              	.LASF98:
 4414 03eb 52455345 		.ascii	"RESERVED8\000"
 4414      52564544 
 4414      3800
 4415              	.LASF22:
 4416 03f5 74707269 		.ascii	"tprio_t\000"
 4416      6F5F7400 
 4417              	.LASF118:
 4418 03fd 6D757465 		.ascii	"mutex\000"
 4418      7800
 4419              	.LASF17:
 4420 0403 5F426F6F 		.ascii	"_Bool\000"
 4420      6C00
 4421              	.LASF10:
 4422 0409 696E7433 		.ascii	"int32_t\000"
 4422      325F7400 
 4423              	.LASF5:
 4424 0411 756E7369 		.ascii	"unsigned char\000"
 4424      676E6564 
 4424      20636861 
 4424      7200
 4425              	.LASF105:
 4426 041f 73746D33 		.ascii	"stm32_dma_stream_t\000"
 4426      325F646D 
 4426      615F7374 
 4426      7265616D 
 4426      5F7400
 4427              	.LASF145:
 4428 0432 53504944 		.ascii	"SPID1\000"
 4428      3100
 4429              	.LASF44:
 4430 0438 705F6D74 		.ascii	"p_mtxlist\000"
 4430      786C6973 
 4430      7400
 4431              	.LASF7:
 4432 0442 73686F72 		.ascii	"short int\000"
 4432      7420696E 
ARM GAS  C:\cygwin\tmp\cczUkFSk.s 			page 83


 4432      7400
 4433              	.LASF35:
 4434 044c 705F7374 		.ascii	"p_state\000"
 4434      61746500 
 4435              	.LASF38:
 4436 0454 705F7072 		.ascii	"p_preempt\000"
 4436      65656D70 
 4436      7400
 4437              	.LASF130:
 4438 045e 70726576 		.ascii	"prev_pos\000"
 4438      5F706F73 
 4438      00
 4439              	.LASF55:
 4440 0467 725F7072 		.ascii	"r_prio\000"
 4440      696F00
 4441              	.LASF68:
 4442 046e 65776D61 		.ascii	"ewmask\000"
 4442      736B00
 4443              	.LASF27:
 4444 0475 705F6E65 		.ascii	"p_next\000"
 4444      787400
 4445              	.LASF36:
 4446 047c 705F666C 		.ascii	"p_flags\000"
 4446      61677300 
 4447              	.LASF100:
 4448 0484 6368616E 		.ascii	"channel\000"
 4448      6E656C00 
 4449              	.LASF43:
 4450 048c 705F6570 		.ascii	"p_epending\000"
 4450      656E6469 
 4450      6E6700
 4451              	.LASF101:
 4452 0497 69666372 		.ascii	"ifcr\000"
 4452      00
 4453              	.LASF160:
 4454 049c 4C334744 		.ascii	"L3GD20_Write\000"
 4454      32305F57 
 4454      72697465 
 4454      00
 4455              	.LASF12:
 4456 04a9 75696E74 		.ascii	"uint32_t\000"
 4456      33325F74 
 4456      00
 4457              	.LASF54:
 4458 04b2 725F7175 		.ascii	"r_queue\000"
 4458      65756500 
 4459              	.LASF20:
 4460 04ba 74726566 		.ascii	"trefs_t\000"
 4460      735F7400 
 4461              	.LASF13:
 4462 04c2 6C6F6E67 		.ascii	"long unsigned int\000"
 4462      20756E73 
 4462      69676E65 
 4462      6420696E 
 4462      7400
 4463              	.LASF99:
 4464 04d4 5350495F 		.ascii	"SPI_TypeDef\000"
ARM GAS  C:\cygwin\tmp\cczUkFSk.s 			page 84


 4464      54797065 
 4464      44656600 
 4465              	.LASF69:
 4466 04e0 63686172 		.ascii	"char\000"
 4466      00
 4467              	.LASF112:
 4468 04e5 5350495F 		.ascii	"SPI_COMPLETE\000"
 4468      434F4D50 
 4468      4C455445 
 4468      00
 4469              	.LASF171:
 4470 04f2 433A5C55 		.ascii	"C:\\Users\\TaisikHam\\Documents\\GitHub\\testgit\\m"
 4470      73657273 
 4470      5C546169 
 4470      73696B48 
 4470      616D5C44 
 4471 051f 61626C5C 		.ascii	"abl\\ChibiOS\\testhal\\STM32F30x\\TS_SPI\000"
 4471      43686962 
 4471      694F535C 
 4471      74657374 
 4471      68616C5C 
 4472              	.LASF116:
 4473 0544 636F6E66 		.ascii	"config\000"
 4473      696700
 4474              	.LASF132:
 4475 054b 63686563 		.ascii	"checking_coord\000"
 4475      6B696E67 
 4475      5F636F6F 
 4475      726400
 4476              	.LASF137:
 4477 055a 7370695F 		.ascii	"spi_thread_2\000"
 4477      74687265 
 4477      61645F32 
 4477      00
 4478              	.LASF113:
 4479 0567 73706973 		.ascii	"spistate_t\000"
 4479      74617465 
 4479      5F7400
 4480              	.LASF64:
 4481 0572 6D5F6E65 		.ascii	"m_next\000"
 4481      787400
 4482              	.LASF25:
 4483 0579 73797374 		.ascii	"systime_t\000"
 4483      696D655F 
 4483      7400
 4484              	.LASF45:
 4485 0583 705F7265 		.ascii	"p_realprio\000"
 4485      616C7072 
 4485      696F00
 4486              	.LASF158:
 4487 058e 73706952 		.ascii	"spiReleaseBus\000"
 4487      656C6561 
 4487      73654275 
 4487      7300
 4488              	.LASF129:
 4489 059c 6375725F 		.ascii	"cur_pos\000"
 4489      706F7300 
ARM GAS  C:\cygwin\tmp\cczUkFSk.s 			page 85


 4490              	.LASF107:
 4491 05a4 696F706F 		.ascii	"ioportid_t\000"
 4491      72746964 
 4491      5F7400
 4492              	.LASF52:
 4493 05af 636F6E74 		.ascii	"context\000"
 4493      65787400 
 4494              	.LASF161:
 4495 05b7 73706953 		.ascii	"spiStart\000"
 4495      74617274 
 4495      00
 4496              	.LASF92:
 4497 05c0 52455345 		.ascii	"RESERVED5\000"
 4497      52564544 
 4497      3500
 4498              	.LASF2:
 4499 05ca 696E7438 		.ascii	"int8_t\000"
 4499      5F7400
 4500              	.LASF110:
 4501 05d1 5350495F 		.ascii	"SPI_READY\000"
 4501      52454144 
 4501      5900
 4502              	.LASF108:
 4503 05db 5350495F 		.ascii	"SPI_UNINIT\000"
 4503      554E494E 
 4503      495400
 4504              	.LASF148:
 4505 05e6 72784275 		.ascii	"rxBuf\000"
 4505      6600
 4506              	.LASF167:
 4507 05ec 4C334744 		.ascii	"L3GD20_Init\000"
 4507      32305F49 
 4507      6E697400 
 4508              	.LASF159:
 4509 05f8 63685468 		.ascii	"chThdSleep\000"
 4509      64536C65 
 4509      657000
 4510              	.LASF37:
 4511 0603 705F7265 		.ascii	"p_refs\000"
 4511      667300
 4512              	.LASF60:
 4513 060a 52656164 		.ascii	"ReadyList\000"
 4513      794C6973 
 4513      7400
 4514              	.LASF71:
 4515 0614 434E4454 		.ascii	"CNDTR\000"
 4515      5200
 4516              	.LASF73:
 4517 061a 434D4152 		.ascii	"CMAR\000"
 4517      00
 4518              	.LASF91:
 4519 061f 52584352 		.ascii	"RXCRCR\000"
 4519      435200
 4520              	.LASF143:
 4521 0626 726C6973 		.ascii	"rlist\000"
 4521      7400
 4522              	.LASF4:
ARM GAS  C:\cygwin\tmp\cczUkFSk.s 			page 86


 4523 062c 75696E74 		.ascii	"uint8_t\000"
 4523      385F7400 
 4524              	.LASF149:
 4525 0634 4F55545F 		.ascii	"OUT_X_L\000"
 4525      585F4C00 
 4526              	.LASF154:
 4527 063c 4F55545F 		.ascii	"OUT_Z_H\000"
 4527      5A5F4800 
 4528              	.LASF153:
 4529 0644 4F55545F 		.ascii	"OUT_Z_L\000"
 4529      5A5F4C00 
 4530              	.LASF67:
 4531 064c 77746F62 		.ascii	"wtobjp\000"
 4531      6A7000
 4532              	.LASF33:
 4533 0653 705F6E61 		.ascii	"p_name\000"
 4533      6D6500
 4534              	.LASF140:
 4535 065a 67526567 		.ascii	"gRegTable\000"
 4535      5461626C 
 4535      6500
 4536              	.LASF157:
 4537 0664 73706941 		.ascii	"spiAcquireBus\000"
 4537      63717569 
 4537      72654275 
 4537      7300
 4538              	.LASF127:
 4539 0672 53504943 		.ascii	"SPIConfig\000"
 4539      6F6E6669 
 4539      6700
 4540              	.LASF42:
 4541 067c 705F6D73 		.ascii	"p_msg\000"
 4541      6700
 4542              	.LASF173:
 4543 0682 6D61696E 		.ascii	"main\000"
 4543      00
 4544              	.LASF83:
 4545 0687 41465248 		.ascii	"AFRH\000"
 4545      00
 4546              	.LASF146:
 4547 068c 67537069 		.ascii	"gSpiDriver\000"
 4547      44726976 
 4547      657200
 4548              	.LASF63:
 4549 0697 6D5F6F77 		.ascii	"m_owner\000"
 4549      6E657200 
 4550              	.LASF30:
 4551 069f 705F6374 		.ascii	"p_ctx\000"
 4551      7800
 4552              	.LASF40:
 4553 06a5 705F7761 		.ascii	"p_waiting\000"
 4553      6974696E 
 4553      6700
 4554              		.ident	"GCC: (GNU) 4.7.2"
ARM GAS  C:\cygwin\tmp\cczUkFSk.s 			page 87


DEFINED SYMBOLS
                            *ABS*:00000000 main.c
C:\cygwin\tmp\cczUkFSk.s:19     .text.spi_thread_2:00000000 $t
C:\cygwin\tmp\cczUkFSk.s:24     .text.spi_thread_2:00000000 spi_thread_2
C:\cygwin\tmp\cczUkFSk.s:56     .text.spi_thread_2:00000018 $d
C:\cygwin\tmp\cczUkFSk.s:63     .text.assert_check_led:00000000 $t
C:\cygwin\tmp\cczUkFSk.s:69     .text.assert_check_led:00000000 assert_check_led
C:\cygwin\tmp\cczUkFSk.s:84     .text.searching_led_position:00000000 $t
C:\cygwin\tmp\cczUkFSk.s:90     .text.searching_led_position:00000000 searching_led_position
C:\cygwin\tmp\cczUkFSk.s:150    .text.searching_led_position:0000003c $d
C:\cygwin\tmp\cczUkFSk.s:156    .text.checking_coord:00000000 $t
C:\cygwin\tmp\cczUkFSk.s:162    .text.checking_coord:00000000 checking_coord
C:\cygwin\tmp\cczUkFSk.s:285    .text.checking_coord:000000a4 $d
C:\cygwin\tmp\cczUkFSk.s:290    .text._l3gd_register_setting:00000000 $t
C:\cygwin\tmp\cczUkFSk.s:296    .text._l3gd_register_setting:00000000 _l3gd_register_setting
C:\cygwin\tmp\cczUkFSk.s:357    .text._l3gd_register_setting:00000040 $d
C:\cygwin\tmp\cczUkFSk.s:362    .text.spi_thread_1:00000000 $t
C:\cygwin\tmp\cczUkFSk.s:367    .text.spi_thread_1:00000000 spi_thread_1
C:\cygwin\tmp\cczUkFSk.s:708    .bss.OUT_Y_H:00000000 .LANCHOR10
C:\cygwin\tmp\cczUkFSk.s:841    .bss.OUT_X_H:00000000 .LANCHOR8
C:\cygwin\tmp\cczUkFSk.s:727    .bss.OUT_Z_L:00000000 .LANCHOR11
C:\cygwin\tmp\cczUkFSk.s:791    .bss.OUT_X_L:00000000 .LANCHOR7
C:\cygwin\tmp\cczUkFSk.s:804    .bss.OUT_Y_L:00000000 .LANCHOR9
C:\cygwin\tmp\cczUkFSk.s:714    .bss.OUT_Z_H:00000000 .LANCHOR12
C:\cygwin\tmp\cczUkFSk.s:683    .bss.llx:00000000 .LANCHOR13
C:\cygwin\tmp\cczUkFSk.s:759    .bss.lhx:00000000 .LANCHOR14
C:\cygwin\tmp\cczUkFSk.s:689    .bss.lly:00000000 .LANCHOR15
C:\cygwin\tmp\cczUkFSk.s:785    .bss.gX:00000000 .LANCHOR2
C:\cygwin\tmp\cczUkFSk.s:810    .bss.lhy:00000000 .LANCHOR16
C:\cygwin\tmp\cczUkFSk.s:765    .bss.llz:00000000 .LANCHOR18
C:\cygwin\tmp\cczUkFSk.s:778    .bss.gY:00000000 .LANCHOR17
C:\cygwin\tmp\cczUkFSk.s:583    .text.spi_thread_1:00000170 $d
C:\cygwin\tmp\cczUkFSk.s:601    .text.startup.main:00000000 $t
C:\cygwin\tmp\cczUkFSk.s:607    .text.startup.main:00000000 main
C:\cygwin\tmp\cczUkFSk.s:835    .bss.gSpiConfig:00000000 .LANCHOR4
C:\cygwin\tmp\cczUkFSk.s:702    .bss.spi_thread_1_wa:00000000 .LANCHOR21
C:\cygwin\tmp\cczUkFSk.s:721    .bss.spi_thread_2_wa:00000000 .LANCHOR22
C:\cygwin\tmp\cczUkFSk.s:742    .rodata.gRegStatus:00000000 gRegStatus
C:\cygwin\tmp\cczUkFSk.s:819    .bss.lhz:00000000 lhz
C:\cygwin\tmp\cczUkFSk.s:768    .bss.llz:00000000 llz
C:\cygwin\tmp\cczUkFSk.s:813    .bss.lhy:00000000 lhy
C:\cygwin\tmp\cczUkFSk.s:692    .bss.lly:00000000 lly
C:\cygwin\tmp\cczUkFSk.s:686    .bss.llx:00000000 llx
C:\cygwin\tmp\cczUkFSk.s:762    .bss.lhx:00000000 lhx
C:\cygwin\tmp\cczUkFSk.s:801    .bss.gZ:00000000 gZ
C:\cygwin\tmp\cczUkFSk.s:781    .bss.gY:00000000 gY
C:\cygwin\tmp\cczUkFSk.s:788    .bss.gX:00000000 gX
C:\cygwin\tmp\cczUkFSk.s:748    .bss.WHO_AM_I:00000000 WHO_AM_I
C:\cygwin\tmp\cczUkFSk.s:717    .bss.OUT_Z_H:00000000 OUT_Z_H
C:\cygwin\tmp\cczUkFSk.s:730    .bss.OUT_Z_L:00000000 OUT_Z_L
C:\cygwin\tmp\cczUkFSk.s:711    .bss.OUT_Y_H:00000000 OUT_Y_H
C:\cygwin\tmp\cczUkFSk.s:807    .bss.OUT_Y_L:00000000 OUT_Y_L
C:\cygwin\tmp\cczUkFSk.s:844    .bss.OUT_X_H:00000000 OUT_X_H
C:\cygwin\tmp\cczUkFSk.s:794    .bss.OUT_X_L:00000000 OUT_X_L
C:\cygwin\tmp\cczUkFSk.s:825    .bss.rxBuf:00000000 rxBuf
C:\cygwin\tmp\cczUkFSk.s:838    .bss.gSpiConfig:00000000 gSpiConfig
C:\cygwin\tmp\cczUkFSk.s:774    .bss.gSpiDriver:00000000 gSpiDriver
ARM GAS  C:\cygwin\tmp\cczUkFSk.s 			page 88


C:\cygwin\tmp\cczUkFSk.s:687    .bss.llx:00000000 $d
C:\cygwin\tmp\cczUkFSk.s:693    .bss.lly:00000000 $d
C:\cygwin\tmp\cczUkFSk.s:698    .data.cur_pos.6469:00000000 cur_pos.6469
C:\cygwin\tmp\cczUkFSk.s:701    .bss.spi_thread_1_wa:00000000 $d
C:\cygwin\tmp\cczUkFSk.s:705    .bss.spi_thread_1_wa:00000000 spi_thread_1_wa
C:\cygwin\tmp\cczUkFSk.s:712    .bss.OUT_Y_H:00000000 $d
C:\cygwin\tmp\cczUkFSk.s:718    .bss.OUT_Z_H:00000000 $d
C:\cygwin\tmp\cczUkFSk.s:720    .bss.spi_thread_2_wa:00000000 $d
C:\cygwin\tmp\cczUkFSk.s:724    .bss.spi_thread_2_wa:00000000 spi_thread_2_wa
C:\cygwin\tmp\cczUkFSk.s:731    .bss.OUT_Z_L:00000000 $d
C:\cygwin\tmp\cczUkFSk.s:736    .bss.addr.6502:00000000 addr.6502
C:\cygwin\tmp\cczUkFSk.s:737    .bss.addr.6502:00000000 $d
C:\cygwin\tmp\cczUkFSk.s:739    .rodata.gRegStatus:00000000 $d
C:\cygwin\tmp\cczUkFSk.s:749    .bss.WHO_AM_I:00000000 $d
C:\cygwin\tmp\cczUkFSk.s:751    .data.gRegTable:00000000 $d
C:\cygwin\tmp\cczUkFSk.s:755    .data.gRegTable:00000000 gRegTable
C:\cygwin\tmp\cczUkFSk.s:763    .bss.lhx:00000000 $d
C:\cygwin\tmp\cczUkFSk.s:769    .bss.llz:00000000 $d
C:\cygwin\tmp\cczUkFSk.s:771    .bss.gSpiDriver:00000000 $d
C:\cygwin\tmp\cczUkFSk.s:777    .bss.gY:00000000 $d
C:\cygwin\tmp\cczUkFSk.s:784    .bss.gX:00000000 $d
C:\cygwin\tmp\cczUkFSk.s:795    .bss.OUT_X_L:00000000 $d
C:\cygwin\tmp\cczUkFSk.s:797    .bss.gZ:00000000 $d
C:\cygwin\tmp\cczUkFSk.s:808    .bss.OUT_Y_L:00000000 $d
C:\cygwin\tmp\cczUkFSk.s:814    .bss.lhy:00000000 $d
C:\cygwin\tmp\cczUkFSk.s:820    .bss.lhz:00000000 $d
C:\cygwin\tmp\cczUkFSk.s:822    .bss.rxBuf:00000000 $d
C:\cygwin\tmp\cczUkFSk.s:831    .bss.prev_pos.6470:00000000 prev_pos.6470
C:\cygwin\tmp\cczUkFSk.s:832    .bss.prev_pos.6470:00000000 $d
C:\cygwin\tmp\cczUkFSk.s:834    .bss.gSpiConfig:00000000 $d
C:\cygwin\tmp\cczUkFSk.s:845    .bss.OUT_X_H:00000000 $d
C:\cygwin\tmp\cczUkFSk.s:847    .rodata.str1.4:00000000 $d
                     .debug_frame:00000010 $d
C:\cygwin\tmp\cczUkFSk.s:62     .text.spi_thread_2:00000024 $t
C:\cygwin\tmp\cczUkFSk.s:155    .text.searching_led_position:00000044 $t
C:\cygwin\tmp\cczUkFSk.s:289    .text.checking_coord:000000a8 $t
C:\cygwin\tmp\cczUkFSk.s:361    .text._l3gd_register_setting:00000044 $t
C:\cygwin\tmp\cczUkFSk.s:600    .text.spi_thread_1:000001a8 $t

UNDEFINED SYMBOLS
spiAcquireBus
spiReleaseBus
rlist
SPID1
chThdSleep
L3GD20_Write
spiStart
spiSelect
L3GD20_Read
spiUnselect
halInit
chSysInit
L3GD20_Init
chThdCreateStatic
