ARM GAS  C:\cygwin\tmp\ccQw3d66.s 			page 1


   1              		.syntax unified
   2              		.cpu cortex-m4
   3              		.fpu softvfp
   4              		.eabi_attribute 20, 1
   5              		.eabi_attribute 21, 1
   6              		.eabi_attribute 23, 3
   7              		.eabi_attribute 24, 1
   8              		.eabi_attribute 25, 1
   9              		.eabi_attribute 26, 1
  10              		.eabi_attribute 30, 2
  11              		.eabi_attribute 34, 1
  12              		.eabi_attribute 18, 4
  13              		.thumb
  14              		.file	"pal_lld.c"
  15              		.text
  16              	.Ltext0:
  17              		.cfi_sections	.debug_frame
  18              		.section	.text._pal_lld_init,"ax",%progbits
  19              		.align	2
  20              		.p2align 4,,15
  21              		.global	_pal_lld_init
  22              		.thumb
  23              		.thumb_func
  24              		.type	_pal_lld_init, %function
  25              	_pal_lld_init:
  26              	.LFB119:
  27              		.file 1 "../../../os/hal/platforms/STM32/GPIOv2/pal_lld.c"
  28              		.loc 1 110 0
  29              		.cfi_startproc
  30              		@ args = 0, pretend = 0, frame = 0
  31              		@ frame_needed = 0, uses_anonymous_args = 0
  32              		@ link register save eliminated.
  33              	.LVL0:
  34              		.loc 1 121 0
  35 0000 4FF48053 		mov	r3, #4096
  36 0004 C4F20203 		movt	r3, 16386
  37 0008 5A69     		ldr	r2, [r3, #20]
  38 000a 42F4FC02 		orr	r2, r2, #8257536
  39 000e 5A61     		str	r2, [r3, #20]
  40              	.LVL1:
  41              	.LBB14:
  42              	.LBB15:
  43              		.loc 1 85 0
  44 0010 4168     		ldr	r1, [r0, #4]
  45 0012 4FF09042 		mov	r2, #1207959552
  46              	.LBE15:
  47              	.LBE14:
  48              	.LBB17:
  49              	.LBB18:
  50 0016 4FF48063 		mov	r3, #1024
  51              	.LBE18:
  52              	.LBE17:
  53              	.LBB21:
  54              	.LBB16:
  55 001a 5160     		str	r1, [r2, #4]
  56              		.loc 1 86 0
  57 001c 8168     		ldr	r1, [r0, #8]
ARM GAS  C:\cygwin\tmp\ccQw3d66.s 			page 2


  58 001e 9160     		str	r1, [r2, #8]
  59              		.loc 1 87 0
  60 0020 C168     		ldr	r1, [r0, #12]
  61 0022 D160     		str	r1, [r2, #12]
  62              		.loc 1 88 0
  63 0024 0169     		ldr	r1, [r0, #16]
  64 0026 5161     		str	r1, [r2, #20]
  65              		.loc 1 89 0
  66 0028 4169     		ldr	r1, [r0, #20]
  67 002a 1162     		str	r1, [r2, #32]
  68              		.loc 1 90 0
  69 002c 8169     		ldr	r1, [r0, #24]
  70 002e 5162     		str	r1, [r2, #36]
  71              		.loc 1 91 0
  72 0030 0168     		ldr	r1, [r0, #0]
  73 0032 1160     		str	r1, [r2, #0]
  74              	.LVL2:
  75              	.LBE16:
  76              	.LBE21:
  77              	.LBB22:
  78              	.LBB19:
  79              		.loc 1 85 0
  80 0034 016A     		ldr	r1, [r0, #32]
  81 0036 C4F60003 		movt	r3, 18432
  82              	.LBE19:
  83              	.LBE22:
  84              	.LBB23:
  85              	.LBB24:
  86 003a 4FF40062 		mov	r2, #2048
  87              	.LBE24:
  88              	.LBE23:
  89              	.LBB27:
  90              	.LBB20:
  91 003e 5960     		str	r1, [r3, #4]
  92              		.loc 1 86 0
  93 0040 416A     		ldr	r1, [r0, #36]
  94 0042 9960     		str	r1, [r3, #8]
  95              		.loc 1 87 0
  96 0044 816A     		ldr	r1, [r0, #40]
  97 0046 D960     		str	r1, [r3, #12]
  98              		.loc 1 88 0
  99 0048 C16A     		ldr	r1, [r0, #44]
 100 004a 5961     		str	r1, [r3, #20]
 101              		.loc 1 89 0
 102 004c 016B     		ldr	r1, [r0, #48]
 103 004e 1962     		str	r1, [r3, #32]
 104              		.loc 1 90 0
 105 0050 416B     		ldr	r1, [r0, #52]
 106 0052 5962     		str	r1, [r3, #36]
 107              		.loc 1 91 0
 108 0054 C169     		ldr	r1, [r0, #28]
 109 0056 1960     		str	r1, [r3, #0]
 110              	.LVL3:
 111              	.LBE20:
 112              	.LBE27:
 113              	.LBB28:
 114              	.LBB25:
ARM GAS  C:\cygwin\tmp\ccQw3d66.s 			page 3


 115              		.loc 1 85 0
 116 0058 C4F60002 		movt	r2, 18432
 117 005c C36B     		ldr	r3, [r0, #60]
 118 005e 5360     		str	r3, [r2, #4]
 119              		.loc 1 86 0
 120 0060 036C     		ldr	r3, [r0, #64]
 121 0062 9360     		str	r3, [r2, #8]
 122              		.loc 1 87 0
 123 0064 436C     		ldr	r3, [r0, #68]
 124 0066 D360     		str	r3, [r2, #12]
 125              		.loc 1 88 0
 126 0068 836C     		ldr	r3, [r0, #72]
 127 006a 5361     		str	r3, [r2, #20]
 128              		.loc 1 89 0
 129 006c C36C     		ldr	r3, [r0, #76]
 130 006e 1362     		str	r3, [r2, #32]
 131              		.loc 1 90 0
 132 0070 036D     		ldr	r3, [r0, #80]
 133 0072 5362     		str	r3, [r2, #36]
 134              		.loc 1 91 0
 135 0074 816B     		ldr	r1, [r0, #56]
 136              	.LBE25:
 137              	.LBE28:
 138              	.LBB29:
 139              	.LBB30:
 140              		.loc 1 85 0
 141 0076 4FF44063 		mov	r3, #3072
 142              	.LBE30:
 143              	.LBE29:
 144              	.LBB33:
 145              	.LBB26:
 146              		.loc 1 91 0
 147 007a 1160     		str	r1, [r2, #0]
 148              	.LVL4:
 149              	.LBE26:
 150              	.LBE33:
 151              	.LBB34:
 152              	.LBB31:
 153              		.loc 1 85 0
 154 007c 816D     		ldr	r1, [r0, #88]
 155 007e C4F60003 		movt	r3, 18432
 156              	.LBE31:
 157              	.LBE34:
 158              	.LBB35:
 159              	.LBB36:
 160 0082 4FF48052 		mov	r2, #4096
 161              	.LBE36:
 162              	.LBE35:
 163              	.LBB39:
 164              	.LBB32:
 165 0086 5960     		str	r1, [r3, #4]
 166              		.loc 1 86 0
 167 0088 C16D     		ldr	r1, [r0, #92]
 168 008a 9960     		str	r1, [r3, #8]
 169              		.loc 1 87 0
 170 008c 016E     		ldr	r1, [r0, #96]
 171 008e D960     		str	r1, [r3, #12]
ARM GAS  C:\cygwin\tmp\ccQw3d66.s 			page 4


 172              		.loc 1 88 0
 173 0090 416E     		ldr	r1, [r0, #100]
 174 0092 5961     		str	r1, [r3, #20]
 175              		.loc 1 89 0
 176 0094 816E     		ldr	r1, [r0, #104]
 177 0096 1962     		str	r1, [r3, #32]
 178              		.loc 1 90 0
 179 0098 C16E     		ldr	r1, [r0, #108]
 180 009a 5962     		str	r1, [r3, #36]
 181              		.loc 1 91 0
 182 009c 416D     		ldr	r1, [r0, #84]
 183 009e 1960     		str	r1, [r3, #0]
 184              	.LVL5:
 185              	.LBE32:
 186              	.LBE39:
 187              	.LBB40:
 188              	.LBB37:
 189              		.loc 1 85 0
 190 00a0 C4F60002 		movt	r2, 18432
 191 00a4 436F     		ldr	r3, [r0, #116]
 192 00a6 5360     		str	r3, [r2, #4]
 193              		.loc 1 86 0
 194 00a8 836F     		ldr	r3, [r0, #120]
 195 00aa 9360     		str	r3, [r2, #8]
 196              		.loc 1 87 0
 197 00ac C36F     		ldr	r3, [r0, #124]
 198 00ae D360     		str	r3, [r2, #12]
 199              		.loc 1 88 0
 200 00b0 D0F88030 		ldr	r3, [r0, #128]
 201 00b4 5361     		str	r3, [r2, #20]
 202              		.loc 1 89 0
 203 00b6 D0F88430 		ldr	r3, [r0, #132]
 204 00ba 1362     		str	r3, [r2, #32]
 205              		.loc 1 90 0
 206 00bc D0F88830 		ldr	r3, [r0, #136]
 207 00c0 5362     		str	r3, [r2, #36]
 208              		.loc 1 91 0
 209 00c2 016F     		ldr	r1, [r0, #112]
 210              	.LBE37:
 211              	.LBE40:
 212              	.LBB41:
 213              	.LBB42:
 214              		.loc 1 85 0
 215 00c4 4FF4A053 		mov	r3, #5120
 216              	.LBE42:
 217              	.LBE41:
 218              	.LBB44:
 219              	.LBB38:
 220              		.loc 1 91 0
 221 00c8 1160     		str	r1, [r2, #0]
 222              	.LVL6:
 223              	.LBE38:
 224              	.LBE44:
 225              	.LBB45:
 226              	.LBB43:
 227              		.loc 1 85 0
 228 00ca D0F89020 		ldr	r2, [r0, #144]
ARM GAS  C:\cygwin\tmp\ccQw3d66.s 			page 5


 229 00ce C4F60003 		movt	r3, 18432
 230 00d2 5A60     		str	r2, [r3, #4]
 231              		.loc 1 86 0
 232 00d4 D0F89420 		ldr	r2, [r0, #148]
 233 00d8 9A60     		str	r2, [r3, #8]
 234              		.loc 1 87 0
 235 00da D0F89820 		ldr	r2, [r0, #152]
 236 00de DA60     		str	r2, [r3, #12]
 237              		.loc 1 88 0
 238 00e0 D0F89C20 		ldr	r2, [r0, #156]
 239 00e4 5A61     		str	r2, [r3, #20]
 240              		.loc 1 89 0
 241 00e6 D0F8A020 		ldr	r2, [r0, #160]
 242 00ea 1A62     		str	r2, [r3, #32]
 243              		.loc 1 90 0
 244 00ec D0F8A420 		ldr	r2, [r0, #164]
 245 00f0 5A62     		str	r2, [r3, #36]
 246              		.loc 1 91 0
 247 00f2 D0F88C20 		ldr	r2, [r0, #140]
 248 00f6 1A60     		str	r2, [r3, #0]
 249 00f8 7047     		bx	lr
 250              	.LBE43:
 251              	.LBE45:
 252              		.cfi_endproc
 253              	.LFE119:
 254              		.size	_pal_lld_init, .-_pal_lld_init
 255 00fa 00BFAFF3 		.section	.text._pal_lld_setgroupmode,"ax",%progbits
 255      0080
 256              		.align	2
 257              		.p2align 4,,15
 258              		.global	_pal_lld_setgroupmode
 259              		.thumb
 260              		.thumb_func
 261              		.type	_pal_lld_setgroupmode, %function
 262              	_pal_lld_setgroupmode:
 263              	.LFB120:
 264              		.loc 1 168 0
 265              		.cfi_startproc
 266              		@ args = 0, pretend = 0, frame = 0
 267              		@ frame_needed = 0, uses_anonymous_args = 0
 268              		@ link register save eliminated.
 269              	.LVL7:
 270 0000 2DE9F00F 		push	{r4, r5, r6, r7, r8, r9, sl, fp}
 271              	.LCFI0:
 272              		.cfi_def_cfa_offset 32
 273              		.cfi_offset 4, -32
 274              		.cfi_offset 5, -28
 275              		.cfi_offset 6, -24
 276              		.cfi_offset 7, -20
 277              		.cfi_offset 8, -16
 278              		.cfi_offset 9, -12
 279              		.cfi_offset 10, -8
 280              		.cfi_offset 11, -4
 281              		.loc 1 175 0
 282 0004 0023     		movs	r3, #0
 283              		.loc 1 170 0
 284 0006 02F00307 		and	r7, r2, #3
ARM GAS  C:\cygwin\tmp\ccQw3d66.s 			page 6


 285              	.LVL8:
 286              		.loc 1 171 0
 287 000a C2F38006 		ubfx	r6, r2, #2, #1
 288              	.LVL9:
 289              		.loc 1 172 0
 290 000e C2F3C105 		ubfx	r5, r2, #3, #2
 291              	.LVL10:
 292              		.loc 1 173 0
 293 0012 C2F34114 		ubfx	r4, r2, #5, #2
 294              	.LVL11:
 295              	.LBB46:
 296              		.loc 1 182 0
 297 0016 4FF00F09 		mov	r9, #15
 298              	.LBE46:
 299              		.loc 1 174 0
 300 001a C2F3C312 		ubfx	r2, r2, #7, #4
 301              	.LVL12:
 302              	.LBB47:
 303              		.loc 1 190 0
 304 001e 4FF0010A 		mov	sl, #1
 305 0022 04E0     		b	.L7
 306              	.LVL13:
 307              	.L12:
 308              	.LBE47:
 309              		.loc 1 200 0
 310 0024 7600     		lsls	r6, r6, #1
 311              	.LVL14:
 312              		.loc 1 201 0
 313 0026 AD00     		lsls	r5, r5, #2
 314              	.LVL15:
 315              		.loc 1 202 0
 316 0028 A400     		lsls	r4, r4, #2
 317              	.LVL16:
 318              		.loc 1 203 0
 319 002a BF00     		lsls	r7, r7, #2
 320              	.LVL17:
 321              		.loc 1 204 0
 322 002c 0133     		adds	r3, r3, #1
 323              	.LVL18:
 324              	.L7:
 325              	.LBB48:
 326              		.loc 1 181 0
 327 002e 03F0070C 		and	ip, r3, #7
 328 0032 4FEA8C0C 		lsl	ip, ip, #2
 329              	.LBE48:
 330              		.loc 1 178 0
 331 0036 11F0010F 		tst	r1, #1
 332              	.LBB49:
 333              		.loc 1 181 0
 334 003a 02FA0CF8 		lsl	r8, r2, ip
 335              	.LVL19:
 336              		.loc 1 182 0
 337 003e 09FA0CFC 		lsl	ip, r9, ip
 338              	.LVL20:
 339              	.LBE49:
 340              		.loc 1 178 0
 341 0042 3CD0     		beq	.L3
ARM GAS  C:\cygwin\tmp\ccQw3d66.s 			page 7


 342              	.LVL21:
 343              	.LBB50:
 344              		.loc 1 184 0
 345 0044 072B     		cmp	r3, #7
 346              		.loc 1 185 0
 347 0046 95BF     		itete	ls
 348 0048 D0F820B0 		ldrls	fp, [r0, #32]
 349              		.loc 1 187 0
 350 004c D0F824B0 		ldrhi	fp, [r0, #36]
 351              		.loc 1 185 0
 352 0050 2BEA0C0C 		bicls	ip, fp, ip
 353              	.LVL22:
 354              		.loc 1 187 0
 355 0054 2BEA0C0C 		bichi	ip, fp, ip
 356              		.loc 1 185 0
 357 0058 95BF     		itete	ls
 358 005a 4CEA0808 		orrls	r8, ip, r8
 359              	.LVL23:
 360              		.loc 1 187 0
 361 005e 4CEA0808 		orrhi	r8, ip, r8
 362              		.loc 1 185 0
 363 0062 C0F82080 		strls	r8, [r0, #32]
 364              		.loc 1 187 0
 365 0066 C0F82480 		strhi	r8, [r0, #36]
 366              		.loc 1 191 0
 367 006a D0F804C0 		ldr	ip, [r0, #4]
 368              		.loc 1 190 0
 369 006e 0AFA03F8 		lsl	r8, sl, r3
 370              		.loc 1 191 0
 371 0072 2CEA080C 		bic	ip, ip, r8
 372 0076 4CEA060C 		orr	ip, ip, r6
 373 007a C0F804C0 		str	ip, [r0, #4]
 374              	.LVL24:
 375              		.loc 1 192 0
 376 007e 4FF0030B 		mov	fp, #3
 377              		.loc 1 166 0
 378 0082 4FEA430C 		lsl	ip, r3, #1
 379              		.loc 1 193 0
 380 0086 D0F80880 		ldr	r8, [r0, #8]
 381              		.loc 1 192 0
 382 008a 0BFA0CFC 		lsl	ip, fp, ip
 383              	.LVL25:
 384              		.loc 1 193 0
 385 008e 6FEA0C0C 		mvn	ip, ip
 386              	.LVL26:
 387 0092 0CEA0808 		and	r8, ip, r8
 388 0096 48EA0508 		orr	r8, r8, r5
 389 009a C0F80880 		str	r8, [r0, #8]
 390              		.loc 1 194 0
 391 009e D0F80C80 		ldr	r8, [r0, #12]
 392 00a2 0CEA0808 		and	r8, ip, r8
 393 00a6 48EA0408 		orr	r8, r8, r4
 394 00aa C0F80C80 		str	r8, [r0, #12]
 395              		.loc 1 195 0
 396 00ae D0F80080 		ldr	r8, [r0, #0]
 397 00b2 0CEA080C 		and	ip, ip, r8
 398              	.LVL27:
ARM GAS  C:\cygwin\tmp\ccQw3d66.s 			page 8


 399 00b6 4CEA070C 		orr	ip, ip, r7
 400 00ba C0F800C0 		str	ip, [r0, #0]
 401              	.LVL28:
 402              	.L3:
 403              	.LBE50:
 404              		.loc 1 198 0
 405 00be 4908     		lsrs	r1, r1, #1
 406              	.LVL29:
 407 00c0 B0D1     		bne	.L12
 408              		.loc 1 206 0
 409 00c2 BDE8F00F 		pop	{r4, r5, r6, r7, r8, r9, sl, fp}
 410 00c6 7047     		bx	lr
 411              		.cfi_endproc
 412              	.LFE120:
 413              		.size	_pal_lld_setgroupmode, .-_pal_lld_setgroupmode
 414 00c8 AFF30080 		.text
 414      AFF30080 
 415              	.Letext0:
 416              		.file 2 "c:/develop/genist/chibistudio/tools/yagarto-tools/yagarto-20121222/lib/gcc/../../arm-none
 417              		.file 3 "../../../os/hal/platforms/STM32F30x/stm32f30x.h"
 418              		.file 4 "../../../os/hal/platforms/STM32/GPIOv2/pal_lld.h"
 419              		.file 5 "../../../os/ports/common/ARMCMx/CMSIS/include/core_cm4.h"