ARM GAS  C:\cygwin\tmp\ccQw3d66.s 			page 1


   1              		.syntax unified
   2              		.cpu cortex-m4
   3              		.fpu softvfp
   4              		.eabi_attribute 20, 1
   5              		.eabi_attribute 21, 1
   6              		.eabi_attribute 23, 3
   7              		.eabi_attribute 24, 1
   8              		.eabi_attribute 25, 1
   9              		.eabi_attribute 26, 1
  10              		.eabi_attribute 30, 2
  11              		.eabi_attribute 34, 1
  12              		.eabi_attribute 18, 4
  13              		.thumb
  14              		.file	"pal_lld.c"
  15              		.text
  16              	.Ltext0:
  17              		.cfi_sections	.debug_frame
  18              		.section	.text._pal_lld_init,"ax",%progbits
  19              		.align	2
  20              		.p2align 4,,15
  21              		.global	_pal_lld_init
  22              		.thumb
  23              		.thumb_func
  24              		.type	_pal_lld_init, %function
  25              	_pal_lld_init:
  26              	.LFB119:
  27              		.file 1 "../../../os/hal/platforms/STM32/GPIOv2/pal_lld.c"
  28              		.loc 1 110 0
  29              		.cfi_startproc
  30              		@ args = 0, pretend = 0, frame = 0
  31              		@ frame_needed = 0, uses_anonymous_args = 0
  32              		@ link register save eliminated.
  33              	.LVL0:
  34              		.loc 1 121 0
  35 0000 4FF48053 		mov	r3, #4096
  36 0004 C4F20203 		movt	r3, 16386
  37 0008 5A69     		ldr	r2, [r3, #20]
  38 000a 42F4FC02 		orr	r2, r2, #8257536
  39 000e 5A61     		str	r2, [r3, #20]
  40              	.LVL1:
  41              	.LBB14:
  42              	.LBB15:
  43              		.loc 1 85 0
  44 0010 4168     		ldr	r1, [r0, #4]
  45 0012 4FF09042 		mov	r2, #1207959552
  46              	.LBE15:
  47              	.LBE14:
  48              	.LBB17:
  49              	.LBB18:
  50 0016 4FF48063 		mov	r3, #1024
  51              	.LBE18:
  52              	.LBE17:
  53              	.LBB21:
  54              	.LBB16:
  55 001a 5160     		str	r1, [r2, #4]
  56              		.loc 1 86 0
  57 001c 8168     		ldr	r1, [r0, #8]
ARM GAS  C:\cygwin\tmp\ccQw3d66.s 			page 2


  58 001e 9160     		str	r1, [r2, #8]
  59              		.loc 1 87 0
  60 0020 C168     		ldr	r1, [r0, #12]
  61 0022 D160     		str	r1, [r2, #12]
  62              		.loc 1 88 0
  63 0024 0169     		ldr	r1, [r0, #16]
  64 0026 5161     		str	r1, [r2, #20]
  65              		.loc 1 89 0
  66 0028 4169     		ldr	r1, [r0, #20]
  67 002a 1162     		str	r1, [r2, #32]
  68              		.loc 1 90 0
  69 002c 8169     		ldr	r1, [r0, #24]
  70 002e 5162     		str	r1, [r2, #36]
  71              		.loc 1 91 0
  72 0030 0168     		ldr	r1, [r0, #0]
  73 0032 1160     		str	r1, [r2, #0]
  74              	.LVL2:
  75              	.LBE16:
  76              	.LBE21:
  77              	.LBB22:
  78              	.LBB19:
  79              		.loc 1 85 0
  80 0034 016A     		ldr	r1, [r0, #32]
  81 0036 C4F60003 		movt	r3, 18432
  82              	.LBE19:
  83              	.LBE22:
  84              	.LBB23:
  85              	.LBB24:
  86 003a 4FF40062 		mov	r2, #2048
  87              	.LBE24:
  88              	.LBE23:
  89              	.LBB27:
  90              	.LBB20:
  91 003e 5960     		str	r1, [r3, #4]
  92              		.loc 1 86 0
  93 0040 416A     		ldr	r1, [r0, #36]
  94 0042 9960     		str	r1, [r3, #8]
  95              		.loc 1 87 0
  96 0044 816A     		ldr	r1, [r0, #40]
  97 0046 D960     		str	r1, [r3, #12]
  98              		.loc 1 88 0
  99 0048 C16A     		ldr	r1, [r0, #44]
 100 004a 5961     		str	r1, [r3, #20]
 101              		.loc 1 89 0
 102 004c 016B     		ldr	r1, [r0, #48]
 103 004e 1962     		str	r1, [r3, #32]
 104              		.loc 1 90 0
 105 0050 416B     		ldr	r1, [r0, #52]
 106 0052 5962     		str	r1, [r3, #36]
 107              		.loc 1 91 0
 108 0054 C169     		ldr	r1, [r0, #28]
 109 0056 1960     		str	r1, [r3, #0]
 110              	.LVL3:
 111              	.LBE20:
 112              	.LBE27:
 113              	.LBB28:
 114              	.LBB25:
ARM GAS  C:\cygwin\tmp\ccQw3d66.s 			page 3


 115              		.loc 1 85 0
 116 0058 C4F60002 		movt	r2, 18432
 117 005c C36B     		ldr	r3, [r0, #60]
 118 005e 5360     		str	r3, [r2, #4]
 119              		.loc 1 86 0
 120 0060 036C     		ldr	r3, [r0, #64]
 121 0062 9360     		str	r3, [r2, #8]
 122              		.loc 1 87 0
 123 0064 436C     		ldr	r3, [r0, #68]
 124 0066 D360     		str	r3, [r2, #12]
 125              		.loc 1 88 0
 126 0068 836C     		ldr	r3, [r0, #72]
 127 006a 5361     		str	r3, [r2, #20]
 128              		.loc 1 89 0
 129 006c C36C     		ldr	r3, [r0, #76]
 130 006e 1362     		str	r3, [r2, #32]
 131              		.loc 1 90 0
 132 0070 036D     		ldr	r3, [r0, #80]
 133 0072 5362     		str	r3, [r2, #36]
 134              		.loc 1 91 0
 135 0074 816B     		ldr	r1, [r0, #56]
 136              	.LBE25:
 137              	.LBE28:
 138              	.LBB29:
 139              	.LBB30:
 140              		.loc 1 85 0
 141 0076 4FF44063 		mov	r3, #3072
 142              	.LBE30:
 143              	.LBE29:
 144              	.LBB33:
 145              	.LBB26:
 146              		.loc 1 91 0
 147 007a 1160     		str	r1, [r2, #0]
 148              	.LVL4:
 149              	.LBE26:
 150              	.LBE33:
 151              	.LBB34:
 152              	.LBB31:
 153              		.loc 1 85 0
 154 007c 816D     		ldr	r1, [r0, #88]
 155 007e C4F60003 		movt	r3, 18432
 156              	.LBE31:
 157              	.LBE34:
 158              	.LBB35:
 159              	.LBB36:
 160 0082 4FF48052 		mov	r2, #4096
 161              	.LBE36:
 162              	.LBE35:
 163              	.LBB39:
 164              	.LBB32:
 165 0086 5960     		str	r1, [r3, #4]
 166              		.loc 1 86 0
 167 0088 C16D     		ldr	r1, [r0, #92]
 168 008a 9960     		str	r1, [r3, #8]
 169              		.loc 1 87 0
 170 008c 016E     		ldr	r1, [r0, #96]
 171 008e D960     		str	r1, [r3, #12]
ARM GAS  C:\cygwin\tmp\ccQw3d66.s 			page 4


 172              		.loc 1 88 0
 173 0090 416E     		ldr	r1, [r0, #100]
 174 0092 5961     		str	r1, [r3, #20]
 175              		.loc 1 89 0
 176 0094 816E     		ldr	r1, [r0, #104]
 177 0096 1962     		str	r1, [r3, #32]
 178              		.loc 1 90 0
 179 0098 C16E     		ldr	r1, [r0, #108]
 180 009a 5962     		str	r1, [r3, #36]
 181              		.loc 1 91 0
 182 009c 416D     		ldr	r1, [r0, #84]
 183 009e 1960     		str	r1, [r3, #0]
 184              	.LVL5:
 185              	.LBE32:
 186              	.LBE39:
 187              	.LBB40:
 188              	.LBB37:
 189              		.loc 1 85 0
 190 00a0 C4F60002 		movt	r2, 18432
 191 00a4 436F     		ldr	r3, [r0, #116]
 192 00a6 5360     		str	r3, [r2, #4]
 193              		.loc 1 86 0
 194 00a8 836F     		ldr	r3, [r0, #120]
 195 00aa 9360     		str	r3, [r2, #8]
 196              		.loc 1 87 0
 197 00ac C36F     		ldr	r3, [r0, #124]
 198 00ae D360     		str	r3, [r2, #12]
 199              		.loc 1 88 0
 200 00b0 D0F88030 		ldr	r3, [r0, #128]
 201 00b4 5361     		str	r3, [r2, #20]
 202              		.loc 1 89 0
 203 00b6 D0F88430 		ldr	r3, [r0, #132]
 204 00ba 1362     		str	r3, [r2, #32]
 205              		.loc 1 90 0
 206 00bc D0F88830 		ldr	r3, [r0, #136]
 207 00c0 5362     		str	r3, [r2, #36]
 208              		.loc 1 91 0
 209 00c2 016F     		ldr	r1, [r0, #112]
 210              	.LBE37:
 211              	.LBE40:
 212              	.LBB41:
 213              	.LBB42:
 214              		.loc 1 85 0
 215 00c4 4FF4A053 		mov	r3, #5120
 216              	.LBE42:
 217              	.LBE41:
 218              	.LBB44:
 219              	.LBB38:
 220              		.loc 1 91 0
 221 00c8 1160     		str	r1, [r2, #0]
 222              	.LVL6:
 223              	.LBE38:
 224              	.LBE44:
 225              	.LBB45:
 226              	.LBB43:
 227              		.loc 1 85 0
 228 00ca D0F89020 		ldr	r2, [r0, #144]
ARM GAS  C:\cygwin\tmp\ccQw3d66.s 			page 5


 229 00ce C4F60003 		movt	r3, 18432
 230 00d2 5A60     		str	r2, [r3, #4]
 231              		.loc 1 86 0
 232 00d4 D0F89420 		ldr	r2, [r0, #148]
 233 00d8 9A60     		str	r2, [r3, #8]
 234              		.loc 1 87 0
 235 00da D0F89820 		ldr	r2, [r0, #152]
 236 00de DA60     		str	r2, [r3, #12]
 237              		.loc 1 88 0
 238 00e0 D0F89C20 		ldr	r2, [r0, #156]
 239 00e4 5A61     		str	r2, [r3, #20]
 240              		.loc 1 89 0
 241 00e6 D0F8A020 		ldr	r2, [r0, #160]
 242 00ea 1A62     		str	r2, [r3, #32]
 243              		.loc 1 90 0
 244 00ec D0F8A420 		ldr	r2, [r0, #164]
 245 00f0 5A62     		str	r2, [r3, #36]
 246              		.loc 1 91 0
 247 00f2 D0F88C20 		ldr	r2, [r0, #140]
 248 00f6 1A60     		str	r2, [r3, #0]
 249 00f8 7047     		bx	lr
 250              	.LBE43:
 251              	.LBE45:
 252              		.cfi_endproc
 253              	.LFE119:
 254              		.size	_pal_lld_init, .-_pal_lld_init
 255 00fa 00BFAFF3 		.section	.text._pal_lld_setgroupmode,"ax",%progbits
 255      0080
 256              		.align	2
 257              		.p2align 4,,15
 258              		.global	_pal_lld_setgroupmode
 259              		.thumb
 260              		.thumb_func
 261              		.type	_pal_lld_setgroupmode, %function
 262              	_pal_lld_setgroupmode:
 263              	.LFB120:
 264              		.loc 1 168 0
 265              		.cfi_startproc
 266              		@ args = 0, pretend = 0, frame = 0
 267              		@ frame_needed = 0, uses_anonymous_args = 0
 268              		@ link register save eliminated.
 269              	.LVL7:
 270 0000 2DE9F00F 		push	{r4, r5, r6, r7, r8, r9, sl, fp}
 271              	.LCFI0:
 272              		.cfi_def_cfa_offset 32
 273              		.cfi_offset 4, -32
 274              		.cfi_offset 5, -28
 275              		.cfi_offset 6, -24
 276              		.cfi_offset 7, -20
 277              		.cfi_offset 8, -16
 278              		.cfi_offset 9, -12
 279              		.cfi_offset 10, -8
 280              		.cfi_offset 11, -4
 281              		.loc 1 175 0
 282 0004 0023     		movs	r3, #0
 283              		.loc 1 170 0
 284 0006 02F00307 		and	r7, r2, #3
ARM GAS  C:\cygwin\tmp\ccQw3d66.s 			page 6


 285              	.LVL8:
 286              		.loc 1 171 0
 287 000a C2F38006 		ubfx	r6, r2, #2, #1
 288              	.LVL9:
 289              		.loc 1 172 0
 290 000e C2F3C105 		ubfx	r5, r2, #3, #2
 291              	.LVL10:
 292              		.loc 1 173 0
 293 0012 C2F34114 		ubfx	r4, r2, #5, #2
 294              	.LVL11:
 295              	.LBB46:
 296              		.loc 1 182 0
 297 0016 4FF00F09 		mov	r9, #15
 298              	.LBE46:
 299              		.loc 1 174 0
 300 001a C2F3C312 		ubfx	r2, r2, #7, #4
 301              	.LVL12:
 302              	.LBB47:
 303              		.loc 1 190 0
 304 001e 4FF0010A 		mov	sl, #1
 305 0022 04E0     		b	.L7
 306              	.LVL13:
 307              	.L12:
 308              	.LBE47:
 309              		.loc 1 200 0
 310 0024 7600     		lsls	r6, r6, #1
 311              	.LVL14:
 312              		.loc 1 201 0
 313 0026 AD00     		lsls	r5, r5, #2
 314              	.LVL15:
 315              		.loc 1 202 0
 316 0028 A400     		lsls	r4, r4, #2
 317              	.LVL16:
 318              		.loc 1 203 0
 319 002a BF00     		lsls	r7, r7, #2
 320              	.LVL17:
 321              		.loc 1 204 0
 322 002c 0133     		adds	r3, r3, #1
 323              	.LVL18:
 324              	.L7:
 325              	.LBB48:
 326              		.loc 1 181 0
 327 002e 03F0070C 		and	ip, r3, #7
 328 0032 4FEA8C0C 		lsl	ip, ip, #2
 329              	.LBE48:
 330              		.loc 1 178 0
 331 0036 11F0010F 		tst	r1, #1
 332              	.LBB49:
 333              		.loc 1 181 0
 334 003a 02FA0CF8 		lsl	r8, r2, ip
 335              	.LVL19:
 336              		.loc 1 182 0
 337 003e 09FA0CFC 		lsl	ip, r9, ip
 338              	.LVL20:
 339              	.LBE49:
 340              		.loc 1 178 0
 341 0042 3CD0     		beq	.L3
ARM GAS  C:\cygwin\tmp\ccQw3d66.s 			page 7


 342              	.LVL21:
 343              	.LBB50:
 344              		.loc 1 184 0
 345 0044 072B     		cmp	r3, #7
 346              		.loc 1 185 0
 347 0046 95BF     		itete	ls
 348 0048 D0F820B0 		ldrls	fp, [r0, #32]
 349              		.loc 1 187 0
 350 004c D0F824B0 		ldrhi	fp, [r0, #36]
 351              		.loc 1 185 0
 352 0050 2BEA0C0C 		bicls	ip, fp, ip
 353              	.LVL22:
 354              		.loc 1 187 0
 355 0054 2BEA0C0C 		bichi	ip, fp, ip
 356              		.loc 1 185 0
 357 0058 95BF     		itete	ls
 358 005a 4CEA0808 		orrls	r8, ip, r8
 359              	.LVL23:
 360              		.loc 1 187 0
 361 005e 4CEA0808 		orrhi	r8, ip, r8
 362              		.loc 1 185 0
 363 0062 C0F82080 		strls	r8, [r0, #32]
 364              		.loc 1 187 0
 365 0066 C0F82480 		strhi	r8, [r0, #36]
 366              		.loc 1 191 0
 367 006a D0F804C0 		ldr	ip, [r0, #4]
 368              		.loc 1 190 0
 369 006e 0AFA03F8 		lsl	r8, sl, r3
 370              		.loc 1 191 0
 371 0072 2CEA080C 		bic	ip, ip, r8
 372 0076 4CEA060C 		orr	ip, ip, r6
 373 007a C0F804C0 		str	ip, [r0, #4]
 374              	.LVL24:
 375              		.loc 1 192 0
 376 007e 4FF0030B 		mov	fp, #3
 377              		.loc 1 166 0
 378 0082 4FEA430C 		lsl	ip, r3, #1
 379              		.loc 1 193 0
 380 0086 D0F80880 		ldr	r8, [r0, #8]
 381              		.loc 1 192 0
 382 008a 0BFA0CFC 		lsl	ip, fp, ip
 383              	.LVL25:
 384              		.loc 1 193 0
 385 008e 6FEA0C0C 		mvn	ip, ip
 386              	.LVL26:
 387 0092 0CEA0808 		and	r8, ip, r8
 388 0096 48EA0508 		orr	r8, r8, r5
 389 009a C0F80880 		str	r8, [r0, #8]
 390              		.loc 1 194 0
 391 009e D0F80C80 		ldr	r8, [r0, #12]
 392 00a2 0CEA0808 		and	r8, ip, r8
 393 00a6 48EA0408 		orr	r8, r8, r4
 394 00aa C0F80C80 		str	r8, [r0, #12]
 395              		.loc 1 195 0
 396 00ae D0F80080 		ldr	r8, [r0, #0]
 397 00b2 0CEA080C 		and	ip, ip, r8
 398              	.LVL27:
ARM GAS  C:\cygwin\tmp\ccQw3d66.s 			page 8


 399 00b6 4CEA070C 		orr	ip, ip, r7
 400 00ba C0F800C0 		str	ip, [r0, #0]
 401              	.LVL28:
 402              	.L3:
 403              	.LBE50:
 404              		.loc 1 198 0
 405 00be 4908     		lsrs	r1, r1, #1
 406              	.LVL29:
 407 00c0 B0D1     		bne	.L12
 408              		.loc 1 206 0
 409 00c2 BDE8F00F 		pop	{r4, r5, r6, r7, r8, r9, sl, fp}
 410 00c6 7047     		bx	lr
 411              		.cfi_endproc
 412              	.LFE120:
 413              		.size	_pal_lld_setgroupmode, .-_pal_lld_setgroupmode
 414 00c8 AFF30080 		.text
 414      AFF30080 
 415              	.Letext0:
 416              		.file 2 "c:/develop/genist/chibistudio/tools/yagarto-tools/yagarto-20121222/lib/gcc/../../arm-none
 417              		.file 3 "../../../os/hal/platforms/STM32F30x/stm32f30x.h"
 418              		.file 4 "../../../os/hal/platforms/STM32/GPIOv2/pal_lld.h"
 419              		.file 5 "../../../os/ports/common/ARMCMx/CMSIS/include/core_cm4.h"
 420              		.section	.debug_info,"",%progbits
 421              	.Ldebug_info0:
 422 0000 A6050000 		.4byte	0x5a6
 423 0004 0200     		.2byte	0x2
 424 0006 00000000 		.4byte	.Ldebug_abbrev0
 425 000a 04       		.byte	0x4
 426 000b 01       		.uleb128 0x1
 427 000c A9010000 		.4byte	.LASF62
 428 0010 01       		.byte	0x1
 429 0011 18010000 		.4byte	.LASF63
 430 0015 B5010000 		.4byte	.LASF64
 431 0019 E0000000 		.4byte	.Ldebug_ranges0+0xe0
 432 001d 00000000 		.4byte	0
 433 0021 00000000 		.4byte	0
 434 0025 00000000 		.4byte	.Ldebug_line0
 435 0029 02       		.uleb128 0x2
 436 002a 04       		.byte	0x4
 437 002b 05       		.byte	0x5
 438 002c 696E7400 		.ascii	"int\000"
 439 0030 03       		.uleb128 0x3
 440 0031 04       		.byte	0x4
 441 0032 07       		.byte	0x7
 442 0033 AB020000 		.4byte	.LASF0
 443 0037 03       		.uleb128 0x3
 444 0038 01       		.byte	0x1
 445 0039 06       		.byte	0x6
 446 003a 6A010000 		.4byte	.LASF1
 447 003e 03       		.uleb128 0x3
 448 003f 01       		.byte	0x1
 449 0040 08       		.byte	0x8
 450 0041 54010000 		.4byte	.LASF2
 451 0045 03       		.uleb128 0x3
 452 0046 02       		.byte	0x2
 453 0047 05       		.byte	0x5
 454 0048 5B000000 		.4byte	.LASF3
ARM GAS  C:\cygwin\tmp\ccQw3d66.s 			page 9


 455 004c 04       		.uleb128 0x4
 456 004d 29020000 		.4byte	.LASF5
 457 0051 02       		.byte	0x2
 458 0052 36       		.byte	0x36
 459 0053 57000000 		.4byte	0x57
 460 0057 03       		.uleb128 0x3
 461 0058 02       		.byte	0x2
 462 0059 07       		.byte	0x7
 463 005a 11020000 		.4byte	.LASF4
 464 005e 04       		.uleb128 0x4
 465 005f 32020000 		.4byte	.LASF6
 466 0063 02       		.byte	0x2
 467 0064 4F       		.byte	0x4f
 468 0065 69000000 		.4byte	0x69
 469 0069 03       		.uleb128 0x3
 470 006a 04       		.byte	0x4
 471 006b 05       		.byte	0x5
 472 006c E0000000 		.4byte	.LASF7
 473 0070 04       		.uleb128 0x4
 474 0071 8D010000 		.4byte	.LASF8
 475 0075 02       		.byte	0x2
 476 0076 50       		.byte	0x50
 477 0077 7B000000 		.4byte	0x7b
 478 007b 03       		.uleb128 0x3
 479 007c 04       		.byte	0x4
 480 007d 07       		.byte	0x7
 481 007e 68020000 		.4byte	.LASF9
 482 0082 03       		.uleb128 0x3
 483 0083 08       		.byte	0x8
 484 0084 05       		.byte	0x5
 485 0085 C4000000 		.4byte	.LASF10
 486 0089 03       		.uleb128 0x3
 487 008a 08       		.byte	0x8
 488 008b 07       		.byte	0x7
 489 008c 76010000 		.4byte	.LASF11
 490 0090 03       		.uleb128 0x3
 491 0091 01       		.byte	0x1
 492 0092 02       		.byte	0x2
 493 0093 44020000 		.4byte	.LASF12
 494 0097 05       		.uleb128 0x5
 495 0098 70000000 		.4byte	0x70
 496 009c 03       		.uleb128 0x3
 497 009d 04       		.byte	0x4
 498 009e 07       		.byte	0x7
 499 009f 6E000000 		.4byte	.LASF13
 500 00a3 03       		.uleb128 0x3
 501 00a4 01       		.byte	0x1
 502 00a5 08       		.byte	0x8
 503 00a6 24020000 		.4byte	.LASF14
 504 00aa 05       		.uleb128 0x5
 505 00ab 5E000000 		.4byte	0x5e
 506 00af 06       		.uleb128 0x6
 507 00b0 04       		.byte	0x4
 508 00b1 03       		.byte	0x3
 509 00b2 4D02     		.2byte	0x24d
 510 00b4 D7000000 		.4byte	0xd7
 511 00b8 07       		.uleb128 0x7
ARM GAS  C:\cygwin\tmp\ccQw3d66.s 			page 10


 512 00b9 73657400 		.ascii	"set\000"
 513 00bd 03       		.byte	0x3
 514 00be 4E02     		.2byte	0x24e
 515 00c0 4C000000 		.4byte	0x4c
 516 00c4 02       		.byte	0x2
 517 00c5 23       		.byte	0x23
 518 00c6 00       		.uleb128 0
 519 00c7 08       		.uleb128 0x8
 520 00c8 12010000 		.4byte	.LASF15
 521 00cc 03       		.byte	0x3
 522 00cd 4F02     		.2byte	0x24f
 523 00cf 4C000000 		.4byte	0x4c
 524 00d3 02       		.byte	0x2
 525 00d4 23       		.byte	0x23
 526 00d5 02       		.uleb128 0x2
 527 00d6 00       		.byte	0
 528 00d7 09       		.uleb128 0x9
 529 00d8 04       		.byte	0x4
 530 00d9 03       		.byte	0x3
 531 00da 4B02     		.2byte	0x24b
 532 00dc F5000000 		.4byte	0xf5
 533 00e0 0A       		.uleb128 0xa
 534 00e1 5700     		.ascii	"W\000"
 535 00e3 03       		.byte	0x3
 536 00e4 4C02     		.2byte	0x24c
 537 00e6 70000000 		.4byte	0x70
 538 00ea 0A       		.uleb128 0xa
 539 00eb 4800     		.ascii	"H\000"
 540 00ed 03       		.byte	0x3
 541 00ee 5002     		.2byte	0x250
 542 00f0 AF000000 		.4byte	0xaf
 543 00f4 00       		.byte	0
 544 00f5 06       		.uleb128 0x6
 545 00f6 28       		.byte	0x28
 546 00f7 03       		.byte	0x3
 547 00f8 4302     		.2byte	0x243
 548 00fa 95010000 		.4byte	0x195
 549 00fe 08       		.uleb128 0x8
 550 00ff 03010000 		.4byte	.LASF16
 551 0103 03       		.byte	0x3
 552 0104 4502     		.2byte	0x245
 553 0106 97000000 		.4byte	0x97
 554 010a 02       		.byte	0x2
 555 010b 23       		.byte	0x23
 556 010c 00       		.uleb128 0
 557 010d 08       		.uleb128 0x8
 558 010e AE000000 		.4byte	.LASF17
 559 0112 03       		.byte	0x3
 560 0113 4602     		.2byte	0x246
 561 0115 97000000 		.4byte	0x97
 562 0119 02       		.byte	0x2
 563 011a 23       		.byte	0x23
 564 011b 04       		.uleb128 0x4
 565 011c 08       		.uleb128 0x8
 566 011d 60020000 		.4byte	.LASF18
 567 0121 03       		.byte	0x3
 568 0122 4702     		.2byte	0x247
ARM GAS  C:\cygwin\tmp\ccQw3d66.s 			page 11


 569 0124 97000000 		.4byte	0x97
 570 0128 02       		.byte	0x2
 571 0129 23       		.byte	0x23
 572 012a 08       		.uleb128 0x8
 573 012b 08       		.uleb128 0x8
 574 012c D2000000 		.4byte	.LASF19
 575 0130 03       		.byte	0x3
 576 0131 4802     		.2byte	0x248
 577 0133 97000000 		.4byte	0x97
 578 0137 02       		.byte	0x2
 579 0138 23       		.byte	0x23
 580 0139 0C       		.uleb128 0xc
 581 013a 07       		.uleb128 0x7
 582 013b 49445200 		.ascii	"IDR\000"
 583 013f 03       		.byte	0x3
 584 0140 4902     		.2byte	0x249
 585 0142 97000000 		.4byte	0x97
 586 0146 02       		.byte	0x2
 587 0147 23       		.byte	0x23
 588 0148 10       		.uleb128 0x10
 589 0149 07       		.uleb128 0x7
 590 014a 4F445200 		.ascii	"ODR\000"
 591 014e 03       		.byte	0x3
 592 014f 4A02     		.2byte	0x24a
 593 0151 97000000 		.4byte	0x97
 594 0155 02       		.byte	0x2
 595 0156 23       		.byte	0x23
 596 0157 14       		.uleb128 0x14
 597 0158 08       		.uleb128 0x8
 598 0159 C2020000 		.4byte	.LASF20
 599 015d 03       		.byte	0x3
 600 015e 5102     		.2byte	0x251
 601 0160 95010000 		.4byte	0x195
 602 0164 02       		.byte	0x2
 603 0165 23       		.byte	0x23
 604 0166 18       		.uleb128 0x18
 605 0167 08       		.uleb128 0x8
 606 0168 BD020000 		.4byte	.LASF21
 607 016c 03       		.byte	0x3
 608 016d 5202     		.2byte	0x252
 609 016f 97000000 		.4byte	0x97
 610 0173 02       		.byte	0x2
 611 0174 23       		.byte	0x23
 612 0175 1C       		.uleb128 0x1c
 613 0176 08       		.uleb128 0x8
 614 0177 0C020000 		.4byte	.LASF22
 615 017b 03       		.byte	0x3
 616 017c 5302     		.2byte	0x253
 617 017e 97000000 		.4byte	0x97
 618 0182 02       		.byte	0x2
 619 0183 23       		.byte	0x23
 620 0184 20       		.uleb128 0x20
 621 0185 08       		.uleb128 0x8
 622 0186 07020000 		.4byte	.LASF23
 623 018a 03       		.byte	0x3
 624 018b 5402     		.2byte	0x254
 625 018d 97000000 		.4byte	0x97
ARM GAS  C:\cygwin\tmp\ccQw3d66.s 			page 12


 626 0191 02       		.byte	0x2
 627 0192 23       		.byte	0x23
 628 0193 24       		.uleb128 0x24
 629 0194 00       		.byte	0
 630 0195 05       		.uleb128 0x5
 631 0196 D7000000 		.4byte	0xd7
 632 019a 0B       		.uleb128 0xb
 633 019b 00000000 		.4byte	.LASF24
 634 019f 03       		.byte	0x3
 635 01a0 5502     		.2byte	0x255
 636 01a2 F5000000 		.4byte	0xf5
 637 01a6 06       		.uleb128 0x6
 638 01a7 34       		.byte	0x34
 639 01a8 03       		.byte	0x3
 640 01a9 9B02     		.2byte	0x29b
 641 01ab 72020000 		.4byte	0x272
 642 01af 07       		.uleb128 0x7
 643 01b0 435200   		.ascii	"CR\000"
 644 01b3 03       		.byte	0x3
 645 01b4 9D02     		.2byte	0x29d
 646 01b6 97000000 		.4byte	0x97
 647 01ba 02       		.byte	0x2
 648 01bb 23       		.byte	0x23
 649 01bc 00       		.uleb128 0
 650 01bd 08       		.uleb128 0x8
 651 01be B8020000 		.4byte	.LASF25
 652 01c2 03       		.byte	0x3
 653 01c3 9E02     		.2byte	0x29e
 654 01c5 97000000 		.4byte	0x97
 655 01c9 02       		.byte	0x2
 656 01ca 23       		.byte	0x23
 657 01cb 04       		.uleb128 0x4
 658 01cc 07       		.uleb128 0x7
 659 01cd 43495200 		.ascii	"CIR\000"
 660 01d1 03       		.byte	0x3
 661 01d2 9F02     		.2byte	0x29f
 662 01d4 97000000 		.4byte	0x97
 663 01d8 02       		.byte	0x2
 664 01d9 23       		.byte	0x23
 665 01da 08       		.uleb128 0x8
 666 01db 08       		.uleb128 0x8
 667 01dc 09010000 		.4byte	.LASF26
 668 01e0 03       		.byte	0x3
 669 01e1 A002     		.2byte	0x2a0
 670 01e3 97000000 		.4byte	0x97
 671 01e7 02       		.byte	0x2
 672 01e8 23       		.byte	0x23
 673 01e9 0C       		.uleb128 0xc
 674 01ea 08       		.uleb128 0x8
 675 01eb 2A000000 		.4byte	.LASF27
 676 01ef 03       		.byte	0x3
 677 01f0 A102     		.2byte	0x2a1
 678 01f2 97000000 		.4byte	0x97
 679 01f6 02       		.byte	0x2
 680 01f7 23       		.byte	0x23
 681 01f8 10       		.uleb128 0x10
 682 01f9 08       		.uleb128 0x8
ARM GAS  C:\cygwin\tmp\ccQw3d66.s 			page 13


 683 01fa FC000000 		.4byte	.LASF28
 684 01fe 03       		.byte	0x3
 685 01ff A202     		.2byte	0x2a2
 686 0201 97000000 		.4byte	0x97
 687 0205 02       		.byte	0x2
 688 0206 23       		.byte	0x23
 689 0207 14       		.uleb128 0x14
 690 0208 08       		.uleb128 0x8
 691 0209 62010000 		.4byte	.LASF29
 692 020d 03       		.byte	0x3
 693 020e A302     		.2byte	0x2a3
 694 0210 97000000 		.4byte	0x97
 695 0214 02       		.byte	0x2
 696 0215 23       		.byte	0x23
 697 0216 18       		.uleb128 0x18
 698 0217 08       		.uleb128 0x8
 699 0218 99000000 		.4byte	.LASF30
 700 021c 03       		.byte	0x3
 701 021d A402     		.2byte	0x2a4
 702 021f 97000000 		.4byte	0x97
 703 0223 02       		.byte	0x2
 704 0224 23       		.byte	0x23
 705 0225 1C       		.uleb128 0x1c
 706 0226 08       		.uleb128 0x8
 707 0227 77000000 		.4byte	.LASF31
 708 022b 03       		.byte	0x3
 709 022c A502     		.2byte	0x2a5
 710 022e 97000000 		.4byte	0x97
 711 0232 02       		.byte	0x2
 712 0233 23       		.byte	0x23
 713 0234 20       		.uleb128 0x20
 714 0235 07       		.uleb128 0x7
 715 0236 43535200 		.ascii	"CSR\000"
 716 023a 03       		.byte	0x3
 717 023b A602     		.2byte	0x2a6
 718 023d 97000000 		.4byte	0x97
 719 0241 02       		.byte	0x2
 720 0242 23       		.byte	0x23
 721 0243 24       		.uleb128 0x24
 722 0244 08       		.uleb128 0x8
 723 0245 BC000000 		.4byte	.LASF32
 724 0249 03       		.byte	0x3
 725 024a A702     		.2byte	0x2a7
 726 024c 97000000 		.4byte	0x97
 727 0250 02       		.byte	0x2
 728 0251 23       		.byte	0x23
 729 0252 28       		.uleb128 0x28
 730 0253 08       		.uleb128 0x8
 731 0254 9D010000 		.4byte	.LASF33
 732 0258 03       		.byte	0x3
 733 0259 A802     		.2byte	0x2a8
 734 025b 97000000 		.4byte	0x97
 735 025f 02       		.byte	0x2
 736 0260 23       		.byte	0x23
 737 0261 2C       		.uleb128 0x2c
 738 0262 08       		.uleb128 0x8
 739 0263 A3010000 		.4byte	.LASF34
ARM GAS  C:\cygwin\tmp\ccQw3d66.s 			page 14


 740 0267 03       		.byte	0x3
 741 0268 A902     		.2byte	0x2a9
 742 026a 97000000 		.4byte	0x97
 743 026e 02       		.byte	0x2
 744 026f 23       		.byte	0x23
 745 0270 30       		.uleb128 0x30
 746 0271 00       		.byte	0
 747 0272 0B       		.uleb128 0xb
 748 0273 F0000000 		.4byte	.LASF35
 749 0277 03       		.byte	0x3
 750 0278 AA02     		.2byte	0x2aa
 751 027a A6010000 		.4byte	0x1a6
 752 027e 0C       		.uleb128 0xc
 753 027f 1C       		.byte	0x1c
 754 0280 04       		.byte	0x4
 755 0281 A9       		.byte	0xa9
 756 0282 E9020000 		.4byte	0x2e9
 757 0286 0D       		.uleb128 0xd
 758 0287 8F020000 		.4byte	.LASF36
 759 028b 04       		.byte	0x4
 760 028c AB       		.byte	0xab
 761 028d 70000000 		.4byte	0x70
 762 0291 02       		.byte	0x2
 763 0292 23       		.byte	0x23
 764 0293 00       		.uleb128 0
 765 0294 0D       		.uleb128 0xd
 766 0295 96010000 		.4byte	.LASF37
 767 0299 04       		.byte	0x4
 768 029a AD       		.byte	0xad
 769 029b 70000000 		.4byte	0x70
 770 029f 02       		.byte	0x2
 771 02a0 23       		.byte	0x23
 772 02a1 04       		.uleb128 0x4
 773 02a2 0D       		.uleb128 0xd
 774 02a3 D8000000 		.4byte	.LASF38
 775 02a7 04       		.byte	0x4
 776 02a8 AF       		.byte	0xaf
 777 02a9 70000000 		.4byte	0x70
 778 02ad 02       		.byte	0x2
 779 02ae 23       		.byte	0x23
 780 02af 08       		.uleb128 0x8
 781 02b0 0D       		.uleb128 0xd
 782 02b1 7F020000 		.4byte	.LASF39
 783 02b5 04       		.byte	0x4
 784 02b6 B1       		.byte	0xb1
 785 02b7 70000000 		.4byte	0x70
 786 02bb 02       		.byte	0x2
 787 02bc 23       		.byte	0x23
 788 02bd 0C       		.uleb128 0xc
 789 02be 0E       		.uleb128 0xe
 790 02bf 6F647200 		.ascii	"odr\000"
 791 02c3 04       		.byte	0x4
 792 02c4 B3       		.byte	0xb3
 793 02c5 70000000 		.4byte	0x70
 794 02c9 02       		.byte	0x2
 795 02ca 23       		.byte	0x23
 796 02cb 10       		.uleb128 0x10
ARM GAS  C:\cygwin\tmp\ccQw3d66.s 			page 15


 797 02cc 0D       		.uleb128 0xd
 798 02cd 8A020000 		.4byte	.LASF40
 799 02d1 04       		.byte	0x4
 800 02d2 B5       		.byte	0xb5
 801 02d3 70000000 		.4byte	0x70
 802 02d7 02       		.byte	0x2
 803 02d8 23       		.byte	0x23
 804 02d9 14       		.uleb128 0x14
 805 02da 0D       		.uleb128 0xd
 806 02db 85020000 		.4byte	.LASF41
 807 02df 04       		.byte	0x4
 808 02e0 B7       		.byte	0xb7
 809 02e1 70000000 		.4byte	0x70
 810 02e5 02       		.byte	0x2
 811 02e6 23       		.byte	0x23
 812 02e7 18       		.uleb128 0x18
 813 02e8 00       		.byte	0
 814 02e9 04       		.uleb128 0x4
 815 02ea 41000000 		.4byte	.LASF42
 816 02ee 04       		.byte	0x4
 817 02ef B8       		.byte	0xb8
 818 02f0 7E020000 		.4byte	0x27e
 819 02f4 0C       		.uleb128 0xc
 820 02f5 A8       		.byte	0xa8
 821 02f6 04       		.byte	0x4
 822 02f7 C1       		.byte	0xc1
 823 02f8 52030000 		.4byte	0x352
 824 02fc 0D       		.uleb128 0xd
 825 02fd B5000000 		.4byte	.LASF43
 826 0301 04       		.byte	0x4
 827 0302 C3       		.byte	0xc3
 828 0303 E9020000 		.4byte	0x2e9
 829 0307 02       		.byte	0x2
 830 0308 23       		.byte	0x23
 831 0309 00       		.uleb128 0
 832 030a 0D       		.uleb128 0xd
 833 030b 82000000 		.4byte	.LASF44
 834 030f 04       		.byte	0x4
 835 0310 C5       		.byte	0xc5
 836 0311 E9020000 		.4byte	0x2e9
 837 0315 02       		.byte	0x2
 838 0316 23       		.byte	0x23
 839 0317 1C       		.uleb128 0x1c
 840 0318 0D       		.uleb128 0xd
 841 0319 0D000000 		.4byte	.LASF45
 842 031d 04       		.byte	0x4
 843 031e C7       		.byte	0xc7
 844 031f E9020000 		.4byte	0x2e9
 845 0323 02       		.byte	0x2
 846 0324 23       		.byte	0x23
 847 0325 38       		.uleb128 0x38
 848 0326 0D       		.uleb128 0xd
 849 0327 E9000000 		.4byte	.LASF46
 850 032b 04       		.byte	0x4
 851 032c C9       		.byte	0xc9
 852 032d E9020000 		.4byte	0x2e9
 853 0331 02       		.byte	0x2
ARM GAS  C:\cygwin\tmp\ccQw3d66.s 			page 16


 854 0332 23       		.byte	0x23
 855 0333 54       		.uleb128 0x54
 856 0334 0D       		.uleb128 0xd
 857 0335 54020000 		.4byte	.LASF47
 858 0339 04       		.byte	0x4
 859 033a CC       		.byte	0xcc
 860 033b E9020000 		.4byte	0x2e9
 861 033f 02       		.byte	0x2
 862 0340 23       		.byte	0x23
 863 0341 70       		.uleb128 0x70
 864 0342 0D       		.uleb128 0xd
 865 0343 54000000 		.4byte	.LASF48
 866 0347 04       		.byte	0x4
 867 0348 D0       		.byte	0xd0
 868 0349 E9020000 		.4byte	0x2e9
 869 034d 03       		.byte	0x3
 870 034e 23       		.byte	0x23
 871 034f 8C01     		.uleb128 0x8c
 872 0351 00       		.byte	0
 873 0352 04       		.uleb128 0x4
 874 0353 3A020000 		.4byte	.LASF49
 875 0357 04       		.byte	0x4
 876 0358 DE       		.byte	0xde
 877 0359 F4020000 		.4byte	0x2f4
 878 035d 04       		.uleb128 0x4
 879 035e A1000000 		.4byte	.LASF50
 880 0362 04       		.byte	0x4
 881 0363 EE       		.byte	0xee
 882 0364 70000000 		.4byte	0x70
 883 0368 04       		.uleb128 0x4
 884 0369 90000000 		.4byte	.LASF51
 885 036d 04       		.byte	0x4
 886 036e F3       		.byte	0xf3
 887 036f 70000000 		.4byte	0x70
 888 0373 04       		.uleb128 0x4
 889 0374 49010000 		.4byte	.LASF52
 890 0378 04       		.byte	0x4
 891 0379 FB       		.byte	0xfb
 892 037a 7E030000 		.4byte	0x37e
 893 037e 0F       		.uleb128 0xf
 894 037f 04       		.byte	0x4
 895 0380 9A010000 		.4byte	0x19a
 896 0384 10       		.uleb128 0x10
 897 0385 65000000 		.4byte	.LASF65
 898 0389 01       		.byte	0x1
 899 038a 53       		.byte	0x53
 900 038b 01       		.byte	0x1
 901 038c 01       		.byte	0x1
 902 038d A8030000 		.4byte	0x3a8
 903 0391 11       		.uleb128 0x11
 904 0392 7C000000 		.4byte	.LASF53
 905 0396 01       		.byte	0x1
 906 0397 53       		.byte	0x53
 907 0398 7E030000 		.4byte	0x37e
 908 039c 11       		.uleb128 0x11
 909 039d 89000000 		.4byte	.LASF54
 910 03a1 01       		.byte	0x1
ARM GAS  C:\cygwin\tmp\ccQw3d66.s 			page 17


 911 03a2 53       		.byte	0x53
 912 03a3 A8030000 		.4byte	0x3a8
 913 03a7 00       		.byte	0
 914 03a8 0F       		.uleb128 0xf
 915 03a9 04       		.byte	0x4
 916 03aa AE030000 		.4byte	0x3ae
 917 03ae 12       		.uleb128 0x12
 918 03af E9020000 		.4byte	0x2e9
 919 03b3 13       		.uleb128 0x13
 920 03b4 01       		.byte	0x1
 921 03b5 33000000 		.4byte	.LASF55
 922 03b9 01       		.byte	0x1
 923 03ba 6E       		.byte	0x6e
 924 03bb 01       		.byte	0x1
 925 03bc 00000000 		.4byte	.LFB119
 926 03c0 FA000000 		.4byte	.LFE119
 927 03c4 02       		.byte	0x2
 928 03c5 7D       		.byte	0x7d
 929 03c6 00       		.sleb128 0
 930 03c7 01       		.byte	0x1
 931 03c8 BB040000 		.4byte	0x4bb
 932 03cc 14       		.uleb128 0x14
 933 03cd 89000000 		.4byte	.LASF54
 934 03d1 01       		.byte	0x1
 935 03d2 6E       		.byte	0x6e
 936 03d3 BB040000 		.4byte	0x4bb
 937 03d7 01       		.byte	0x1
 938 03d8 50       		.byte	0x50
 939 03d9 15       		.uleb128 0x15
 940 03da 84030000 		.4byte	0x384
 941 03de 10000000 		.4byte	.LBB14
 942 03e2 00000000 		.4byte	.Ldebug_ranges0+0
 943 03e6 01       		.byte	0x1
 944 03e7 82       		.byte	0x82
 945 03e8 FD030000 		.4byte	0x3fd
 946 03ec 16       		.uleb128 0x16
 947 03ed 9C030000 		.4byte	0x39c
 948 03f1 01       		.byte	0x1
 949 03f2 50       		.byte	0x50
 950 03f3 17       		.uleb128 0x17
 951 03f4 91030000 		.4byte	0x391
 952 03f8 00000048 		.4byte	0x48000000
 953 03fc 00       		.byte	0
 954 03fd 15       		.uleb128 0x15
 955 03fe 84030000 		.4byte	0x384
 956 0402 16000000 		.4byte	.LBB17
 957 0406 18000000 		.4byte	.Ldebug_ranges0+0x18
 958 040a 01       		.byte	0x1
 959 040b 83       		.byte	0x83
 960 040c 23040000 		.4byte	0x423
 961 0410 16       		.uleb128 0x16
 962 0411 9C030000 		.4byte	0x39c
 963 0415 03       		.byte	0x3
 964 0416 70       		.byte	0x70
 965 0417 1C       		.sleb128 28
 966 0418 9F       		.byte	0x9f
 967 0419 17       		.uleb128 0x17
ARM GAS  C:\cygwin\tmp\ccQw3d66.s 			page 18


 968 041a 91030000 		.4byte	0x391
 969 041e 00040048 		.4byte	0x48000400
 970 0422 00       		.byte	0
 971 0423 15       		.uleb128 0x15
 972 0424 84030000 		.4byte	0x384
 973 0428 3A000000 		.4byte	.LBB23
 974 042c 38000000 		.4byte	.Ldebug_ranges0+0x38
 975 0430 01       		.byte	0x1
 976 0431 84       		.byte	0x84
 977 0432 49040000 		.4byte	0x449
 978 0436 16       		.uleb128 0x16
 979 0437 9C030000 		.4byte	0x39c
 980 043b 03       		.byte	0x3
 981 043c 70       		.byte	0x70
 982 043d 38       		.sleb128 56
 983 043e 9F       		.byte	0x9f
 984 043f 17       		.uleb128 0x17
 985 0440 91030000 		.4byte	0x391
 986 0444 00080048 		.4byte	0x48000800
 987 0448 00       		.byte	0
 988 0449 15       		.uleb128 0x15
 989 044a 84030000 		.4byte	0x384
 990 044e 76000000 		.4byte	.LBB29
 991 0452 58000000 		.4byte	.Ldebug_ranges0+0x58
 992 0456 01       		.byte	0x1
 993 0457 85       		.byte	0x85
 994 0458 70040000 		.4byte	0x470
 995 045c 16       		.uleb128 0x16
 996 045d 9C030000 		.4byte	0x39c
 997 0461 04       		.byte	0x4
 998 0462 70       		.byte	0x70
 999 0463 D400     		.sleb128 84
 1000 0465 9F       		.byte	0x9f
 1001 0466 17       		.uleb128 0x17
 1002 0467 91030000 		.4byte	0x391
 1003 046b 000C0048 		.4byte	0x48000c00
 1004 046f 00       		.byte	0
 1005 0470 15       		.uleb128 0x15
 1006 0471 84030000 		.4byte	0x384
 1007 0475 82000000 		.4byte	.LBB35
 1008 0479 78000000 		.4byte	.Ldebug_ranges0+0x78
 1009 047d 01       		.byte	0x1
 1010 047e 87       		.byte	0x87
 1011 047f 97040000 		.4byte	0x497
 1012 0483 16       		.uleb128 0x16
 1013 0484 9C030000 		.4byte	0x39c
 1014 0488 04       		.byte	0x4
 1015 0489 70       		.byte	0x70
 1016 048a F000     		.sleb128 112
 1017 048c 9F       		.byte	0x9f
 1018 048d 17       		.uleb128 0x17
 1019 048e 91030000 		.4byte	0x391
 1020 0492 00100048 		.4byte	0x48001000
 1021 0496 00       		.byte	0
 1022 0497 18       		.uleb128 0x18
 1023 0498 84030000 		.4byte	0x384
 1024 049c C4000000 		.4byte	.LBB41
ARM GAS  C:\cygwin\tmp\ccQw3d66.s 			page 19


 1025 04a0 98000000 		.4byte	.Ldebug_ranges0+0x98
 1026 04a4 01       		.byte	0x1
 1027 04a5 8A       		.byte	0x8a
 1028 04a6 16       		.uleb128 0x16
 1029 04a7 9C030000 		.4byte	0x39c
 1030 04ab 04       		.byte	0x4
 1031 04ac 70       		.byte	0x70
 1032 04ad 8C01     		.sleb128 140
 1033 04af 9F       		.byte	0x9f
 1034 04b0 17       		.uleb128 0x17
 1035 04b1 91030000 		.4byte	0x391
 1036 04b5 00140048 		.4byte	0x48001400
 1037 04b9 00       		.byte	0
 1038 04ba 00       		.byte	0
 1039 04bb 0F       		.uleb128 0xf
 1040 04bc 04       		.byte	0x4
 1041 04bd C1040000 		.4byte	0x4c1
 1042 04c1 12       		.uleb128 0x12
 1043 04c2 52030000 		.4byte	0x352
 1044 04c6 19       		.uleb128 0x19
 1045 04c7 01       		.byte	0x1
 1046 04c8 14000000 		.4byte	.LASF56
 1047 04cc 01       		.byte	0x1
 1048 04cd A6       		.byte	0xa6
 1049 04ce 01       		.byte	0x1
 1050 04cf 00000000 		.4byte	.LFB120
 1051 04d3 C8000000 		.4byte	.LFE120
 1052 04d7 00000000 		.4byte	.LLST0
 1053 04db 01       		.byte	0x1
 1054 04dc 9B050000 		.4byte	0x59b
 1055 04e0 14       		.uleb128 0x14
 1056 04e1 4F020000 		.4byte	.LASF57
 1057 04e5 01       		.byte	0x1
 1058 04e6 A6       		.byte	0xa6
 1059 04e7 73030000 		.4byte	0x373
 1060 04eb 01       		.byte	0x1
 1061 04ec 50       		.byte	0x50
 1062 04ed 1A       		.uleb128 0x1a
 1063 04ee 7A020000 		.4byte	.LASF58
 1064 04f2 01       		.byte	0x1
 1065 04f3 A7       		.byte	0xa7
 1066 04f4 5D030000 		.4byte	0x35d
 1067 04f8 20000000 		.4byte	.LLST1
 1068 04fc 1A       		.uleb128 0x1a
 1069 04fd 4A020000 		.4byte	.LASF59
 1070 0501 01       		.byte	0x1
 1071 0502 A8       		.byte	0xa8
 1072 0503 68030000 		.4byte	0x368
 1073 0507 4D000000 		.4byte	.LLST2
 1074 050b 1B       		.uleb128 0x1b
 1075 050c 8F020000 		.4byte	.LASF36
 1076 0510 01       		.byte	0x1
 1077 0511 AA       		.byte	0xaa
 1078 0512 70000000 		.4byte	0x70
 1079 0516 01       		.byte	0x1
 1080 0517 57       		.byte	0x57
 1081 0518 1B       		.uleb128 0x1b
ARM GAS  C:\cygwin\tmp\ccQw3d66.s 			page 20


 1082 0519 96010000 		.4byte	.LASF37
 1083 051d 01       		.byte	0x1
 1084 051e AB       		.byte	0xab
 1085 051f 70000000 		.4byte	0x70
 1086 0523 01       		.byte	0x1
 1087 0524 56       		.byte	0x56
 1088 0525 1B       		.uleb128 0x1b
 1089 0526 D8000000 		.4byte	.LASF38
 1090 052a 01       		.byte	0x1
 1091 052b AC       		.byte	0xac
 1092 052c 70000000 		.4byte	0x70
 1093 0530 01       		.byte	0x1
 1094 0531 55       		.byte	0x55
 1095 0532 1B       		.uleb128 0x1b
 1096 0533 7F020000 		.4byte	.LASF39
 1097 0537 01       		.byte	0x1
 1098 0538 AD       		.byte	0xad
 1099 0539 70000000 		.4byte	0x70
 1100 053d 01       		.byte	0x1
 1101 053e 54       		.byte	0x54
 1102 053f 1B       		.uleb128 0x1b
 1103 0540 5B020000 		.4byte	.LASF60
 1104 0544 01       		.byte	0x1
 1105 0545 AE       		.byte	0xae
 1106 0546 70000000 		.4byte	0x70
 1107 054a 01       		.byte	0x1
 1108 054b 52       		.byte	0x52
 1109 054c 1C       		.uleb128 0x1c
 1110 054d 62697400 		.ascii	"bit\000"
 1111 0551 01       		.byte	0x1
 1112 0552 AF       		.byte	0xaf
 1113 0553 70000000 		.4byte	0x70
 1114 0557 6E000000 		.4byte	.LLST3
 1115 055b 1D       		.uleb128 0x1d
 1116 055c B0000000 		.4byte	.Ldebug_ranges0+0xb0
 1117 0560 1E       		.uleb128 0x1e
 1118 0561 A2020000 		.4byte	.LASF61
 1119 0565 01       		.byte	0x1
 1120 0566 B3       		.byte	0xb3
 1121 0567 70000000 		.4byte	0x70
 1122 056b 8D000000 		.4byte	.LLST4
 1123 056f 1C       		.uleb128 0x1c
 1124 0570 6D3100   		.ascii	"m1\000"
 1125 0573 01       		.byte	0x1
 1126 0574 B3       		.byte	0xb3
 1127 0575 70000000 		.4byte	0x70
 1128 0579 C8000000 		.4byte	.LLST5
 1129 057d 1C       		.uleb128 0x1c
 1130 057e 6D3200   		.ascii	"m2\000"
 1131 0581 01       		.byte	0x1
 1132 0582 B3       		.byte	0xb3
 1133 0583 70000000 		.4byte	0x70
 1134 0587 DF000000 		.4byte	.LLST6
 1135 058b 1C       		.uleb128 0x1c
 1136 058c 6D3400   		.ascii	"m4\000"
 1137 058f 01       		.byte	0x1
 1138 0590 B3       		.byte	0xb3
ARM GAS  C:\cygwin\tmp\ccQw3d66.s 			page 21


 1139 0591 70000000 		.4byte	0x70
 1140 0595 22010000 		.4byte	.LLST7
 1141 0599 00       		.byte	0
 1142 059a 00       		.byte	0
 1143 059b 1F       		.uleb128 0x1f
 1144 059c 95020000 		.4byte	.LASF66
 1145 05a0 05       		.byte	0x5
 1146 05a1 9806     		.2byte	0x698
 1147 05a3 AA000000 		.4byte	0xaa
 1148 05a7 01       		.byte	0x1
 1149 05a8 01       		.byte	0x1
 1150 05a9 00       		.byte	0
 1151              		.section	.debug_abbrev,"",%progbits
 1152              	.Ldebug_abbrev0:
 1153 0000 01       		.uleb128 0x1
 1154 0001 11       		.uleb128 0x11
 1155 0002 01       		.byte	0x1
 1156 0003 25       		.uleb128 0x25
 1157 0004 0E       		.uleb128 0xe
 1158 0005 13       		.uleb128 0x13
 1159 0006 0B       		.uleb128 0xb
 1160 0007 03       		.uleb128 0x3
 1161 0008 0E       		.uleb128 0xe
 1162 0009 1B       		.uleb128 0x1b
 1163 000a 0E       		.uleb128 0xe
 1164 000b 55       		.uleb128 0x55
 1165 000c 06       		.uleb128 0x6
 1166 000d 11       		.uleb128 0x11
 1167 000e 01       		.uleb128 0x1
 1168 000f 52       		.uleb128 0x52
 1169 0010 01       		.uleb128 0x1
 1170 0011 10       		.uleb128 0x10
 1171 0012 06       		.uleb128 0x6
 1172 0013 00       		.byte	0
 1173 0014 00       		.byte	0
 1174 0015 02       		.uleb128 0x2
 1175 0016 24       		.uleb128 0x24
 1176 0017 00       		.byte	0
 1177 0018 0B       		.uleb128 0xb
 1178 0019 0B       		.uleb128 0xb
 1179 001a 3E       		.uleb128 0x3e
 1180 001b 0B       		.uleb128 0xb
 1181 001c 03       		.uleb128 0x3
 1182 001d 08       		.uleb128 0x8
 1183 001e 00       		.byte	0
 1184 001f 00       		.byte	0
 1185 0020 03       		.uleb128 0x3
 1186 0021 24       		.uleb128 0x24
 1187 0022 00       		.byte	0
 1188 0023 0B       		.uleb128 0xb
 1189 0024 0B       		.uleb128 0xb
 1190 0025 3E       		.uleb128 0x3e
 1191 0026 0B       		.uleb128 0xb
 1192 0027 03       		.uleb128 0x3
 1193 0028 0E       		.uleb128 0xe
 1194 0029 00       		.byte	0
 1195 002a 00       		.byte	0
ARM GAS  C:\cygwin\tmp\ccQw3d66.s 			page 22


 1196 002b 04       		.uleb128 0x4
 1197 002c 16       		.uleb128 0x16
 1198 002d 00       		.byte	0
 1199 002e 03       		.uleb128 0x3
 1200 002f 0E       		.uleb128 0xe
 1201 0030 3A       		.uleb128 0x3a
 1202 0031 0B       		.uleb128 0xb
 1203 0032 3B       		.uleb128 0x3b
 1204 0033 0B       		.uleb128 0xb
 1205 0034 49       		.uleb128 0x49
 1206 0035 13       		.uleb128 0x13
 1207 0036 00       		.byte	0
 1208 0037 00       		.byte	0
 1209 0038 05       		.uleb128 0x5
 1210 0039 35       		.uleb128 0x35
 1211 003a 00       		.byte	0
 1212 003b 49       		.uleb128 0x49
 1213 003c 13       		.uleb128 0x13
 1214 003d 00       		.byte	0
 1215 003e 00       		.byte	0
 1216 003f 06       		.uleb128 0x6
 1217 0040 13       		.uleb128 0x13
 1218 0041 01       		.byte	0x1
 1219 0042 0B       		.uleb128 0xb
 1220 0043 0B       		.uleb128 0xb
 1221 0044 3A       		.uleb128 0x3a
 1222 0045 0B       		.uleb128 0xb
 1223 0046 3B       		.uleb128 0x3b
 1224 0047 05       		.uleb128 0x5
 1225 0048 01       		.uleb128 0x1
 1226 0049 13       		.uleb128 0x13
 1227 004a 00       		.byte	0
 1228 004b 00       		.byte	0
 1229 004c 07       		.uleb128 0x7
 1230 004d 0D       		.uleb128 0xd
 1231 004e 00       		.byte	0
 1232 004f 03       		.uleb128 0x3
 1233 0050 08       		.uleb128 0x8
 1234 0051 3A       		.uleb128 0x3a
 1235 0052 0B       		.uleb128 0xb
 1236 0053 3B       		.uleb128 0x3b
 1237 0054 05       		.uleb128 0x5
 1238 0055 49       		.uleb128 0x49
 1239 0056 13       		.uleb128 0x13
 1240 0057 38       		.uleb128 0x38
 1241 0058 0A       		.uleb128 0xa
 1242 0059 00       		.byte	0
 1243 005a 00       		.byte	0
 1244 005b 08       		.uleb128 0x8
 1245 005c 0D       		.uleb128 0xd
 1246 005d 00       		.byte	0
 1247 005e 03       		.uleb128 0x3
 1248 005f 0E       		.uleb128 0xe
 1249 0060 3A       		.uleb128 0x3a
 1250 0061 0B       		.uleb128 0xb
 1251 0062 3B       		.uleb128 0x3b
 1252 0063 05       		.uleb128 0x5
ARM GAS  C:\cygwin\tmp\ccQw3d66.s 			page 23


 1253 0064 49       		.uleb128 0x49
 1254 0065 13       		.uleb128 0x13
 1255 0066 38       		.uleb128 0x38
 1256 0067 0A       		.uleb128 0xa
 1257 0068 00       		.byte	0
 1258 0069 00       		.byte	0
 1259 006a 09       		.uleb128 0x9
 1260 006b 17       		.uleb128 0x17
 1261 006c 01       		.byte	0x1
 1262 006d 0B       		.uleb128 0xb
 1263 006e 0B       		.uleb128 0xb
 1264 006f 3A       		.uleb128 0x3a
 1265 0070 0B       		.uleb128 0xb
 1266 0071 3B       		.uleb128 0x3b
 1267 0072 05       		.uleb128 0x5
 1268 0073 01       		.uleb128 0x1
 1269 0074 13       		.uleb128 0x13
 1270 0075 00       		.byte	0
 1271 0076 00       		.byte	0
 1272 0077 0A       		.uleb128 0xa
 1273 0078 0D       		.uleb128 0xd
 1274 0079 00       		.byte	0
 1275 007a 03       		.uleb128 0x3
 1276 007b 08       		.uleb128 0x8
 1277 007c 3A       		.uleb128 0x3a
 1278 007d 0B       		.uleb128 0xb
 1279 007e 3B       		.uleb128 0x3b
 1280 007f 05       		.uleb128 0x5
 1281 0080 49       		.uleb128 0x49
 1282 0081 13       		.uleb128 0x13
 1283 0082 00       		.byte	0
 1284 0083 00       		.byte	0
 1285 0084 0B       		.uleb128 0xb
 1286 0085 16       		.uleb128 0x16
 1287 0086 00       		.byte	0
 1288 0087 03       		.uleb128 0x3
 1289 0088 0E       		.uleb128 0xe
 1290 0089 3A       		.uleb128 0x3a
 1291 008a 0B       		.uleb128 0xb
 1292 008b 3B       		.uleb128 0x3b
 1293 008c 05       		.uleb128 0x5
 1294 008d 49       		.uleb128 0x49
 1295 008e 13       		.uleb128 0x13
 1296 008f 00       		.byte	0
 1297 0090 00       		.byte	0
 1298 0091 0C       		.uleb128 0xc
 1299 0092 13       		.uleb128 0x13
 1300 0093 01       		.byte	0x1
 1301 0094 0B       		.uleb128 0xb
 1302 0095 0B       		.uleb128 0xb
 1303 0096 3A       		.uleb128 0x3a
 1304 0097 0B       		.uleb128 0xb
 1305 0098 3B       		.uleb128 0x3b
 1306 0099 0B       		.uleb128 0xb
 1307 009a 01       		.uleb128 0x1
 1308 009b 13       		.uleb128 0x13
 1309 009c 00       		.byte	0
ARM GAS  C:\cygwin\tmp\ccQw3d66.s 			page 24


 1310 009d 00       		.byte	0
 1311 009e 0D       		.uleb128 0xd
 1312 009f 0D       		.uleb128 0xd
 1313 00a0 00       		.byte	0
 1314 00a1 03       		.uleb128 0x3
 1315 00a2 0E       		.uleb128 0xe
 1316 00a3 3A       		.uleb128 0x3a
 1317 00a4 0B       		.uleb128 0xb
 1318 00a5 3B       		.uleb128 0x3b
 1319 00a6 0B       		.uleb128 0xb
 1320 00a7 49       		.uleb128 0x49
 1321 00a8 13       		.uleb128 0x13
 1322 00a9 38       		.uleb128 0x38
 1323 00aa 0A       		.uleb128 0xa
 1324 00ab 00       		.byte	0
 1325 00ac 00       		.byte	0
 1326 00ad 0E       		.uleb128 0xe
 1327 00ae 0D       		.uleb128 0xd
 1328 00af 00       		.byte	0
 1329 00b0 03       		.uleb128 0x3
 1330 00b1 08       		.uleb128 0x8
 1331 00b2 3A       		.uleb128 0x3a
 1332 00b3 0B       		.uleb128 0xb
 1333 00b4 3B       		.uleb128 0x3b
 1334 00b5 0B       		.uleb128 0xb
 1335 00b6 49       		.uleb128 0x49
 1336 00b7 13       		.uleb128 0x13
 1337 00b8 38       		.uleb128 0x38
 1338 00b9 0A       		.uleb128 0xa
 1339 00ba 00       		.byte	0
 1340 00bb 00       		.byte	0
 1341 00bc 0F       		.uleb128 0xf
 1342 00bd 0F       		.uleb128 0xf
 1343 00be 00       		.byte	0
 1344 00bf 0B       		.uleb128 0xb
 1345 00c0 0B       		.uleb128 0xb
 1346 00c1 49       		.uleb128 0x49
 1347 00c2 13       		.uleb128 0x13
 1348 00c3 00       		.byte	0
 1349 00c4 00       		.byte	0
 1350 00c5 10       		.uleb128 0x10
 1351 00c6 2E       		.uleb128 0x2e
 1352 00c7 01       		.byte	0x1
 1353 00c8 03       		.uleb128 0x3
 1354 00c9 0E       		.uleb128 0xe
 1355 00ca 3A       		.uleb128 0x3a
 1356 00cb 0B       		.uleb128 0xb
 1357 00cc 3B       		.uleb128 0x3b
 1358 00cd 0B       		.uleb128 0xb
 1359 00ce 27       		.uleb128 0x27
 1360 00cf 0C       		.uleb128 0xc
 1361 00d0 20       		.uleb128 0x20
 1362 00d1 0B       		.uleb128 0xb
 1363 00d2 01       		.uleb128 0x1
 1364 00d3 13       		.uleb128 0x13
 1365 00d4 00       		.byte	0
 1366 00d5 00       		.byte	0
ARM GAS  C:\cygwin\tmp\ccQw3d66.s 			page 25


 1367 00d6 11       		.uleb128 0x11
 1368 00d7 05       		.uleb128 0x5
 1369 00d8 00       		.byte	0
 1370 00d9 03       		.uleb128 0x3
 1371 00da 0E       		.uleb128 0xe
 1372 00db 3A       		.uleb128 0x3a
 1373 00dc 0B       		.uleb128 0xb
 1374 00dd 3B       		.uleb128 0x3b
 1375 00de 0B       		.uleb128 0xb
 1376 00df 49       		.uleb128 0x49
 1377 00e0 13       		.uleb128 0x13
 1378 00e1 00       		.byte	0
 1379 00e2 00       		.byte	0
 1380 00e3 12       		.uleb128 0x12
 1381 00e4 26       		.uleb128 0x26
 1382 00e5 00       		.byte	0
 1383 00e6 49       		.uleb128 0x49
 1384 00e7 13       		.uleb128 0x13
 1385 00e8 00       		.byte	0
 1386 00e9 00       		.byte	0
 1387 00ea 13       		.uleb128 0x13
 1388 00eb 2E       		.uleb128 0x2e
 1389 00ec 01       		.byte	0x1
 1390 00ed 3F       		.uleb128 0x3f
 1391 00ee 0C       		.uleb128 0xc
 1392 00ef 03       		.uleb128 0x3
 1393 00f0 0E       		.uleb128 0xe
 1394 00f1 3A       		.uleb128 0x3a
 1395 00f2 0B       		.uleb128 0xb
 1396 00f3 3B       		.uleb128 0x3b
 1397 00f4 0B       		.uleb128 0xb
 1398 00f5 27       		.uleb128 0x27
 1399 00f6 0C       		.uleb128 0xc
 1400 00f7 11       		.uleb128 0x11
 1401 00f8 01       		.uleb128 0x1
 1402 00f9 12       		.uleb128 0x12
 1403 00fa 01       		.uleb128 0x1
 1404 00fb 40       		.uleb128 0x40
 1405 00fc 0A       		.uleb128 0xa
 1406 00fd 9742     		.uleb128 0x2117
 1407 00ff 0C       		.uleb128 0xc
 1408 0100 01       		.uleb128 0x1
 1409 0101 13       		.uleb128 0x13
 1410 0102 00       		.byte	0
 1411 0103 00       		.byte	0
 1412 0104 14       		.uleb128 0x14
 1413 0105 05       		.uleb128 0x5
 1414 0106 00       		.byte	0
 1415 0107 03       		.uleb128 0x3
 1416 0108 0E       		.uleb128 0xe
 1417 0109 3A       		.uleb128 0x3a
 1418 010a 0B       		.uleb128 0xb
 1419 010b 3B       		.uleb128 0x3b
 1420 010c 0B       		.uleb128 0xb
 1421 010d 49       		.uleb128 0x49
 1422 010e 13       		.uleb128 0x13
 1423 010f 02       		.uleb128 0x2
ARM GAS  C:\cygwin\tmp\ccQw3d66.s 			page 26


 1424 0110 0A       		.uleb128 0xa
 1425 0111 00       		.byte	0
 1426 0112 00       		.byte	0
 1427 0113 15       		.uleb128 0x15
 1428 0114 1D       		.uleb128 0x1d
 1429 0115 01       		.byte	0x1
 1430 0116 31       		.uleb128 0x31
 1431 0117 13       		.uleb128 0x13
 1432 0118 52       		.uleb128 0x52
 1433 0119 01       		.uleb128 0x1
 1434 011a 55       		.uleb128 0x55
 1435 011b 06       		.uleb128 0x6
 1436 011c 58       		.uleb128 0x58
 1437 011d 0B       		.uleb128 0xb
 1438 011e 59       		.uleb128 0x59
 1439 011f 0B       		.uleb128 0xb
 1440 0120 01       		.uleb128 0x1
 1441 0121 13       		.uleb128 0x13
 1442 0122 00       		.byte	0
 1443 0123 00       		.byte	0
 1444 0124 16       		.uleb128 0x16
 1445 0125 05       		.uleb128 0x5
 1446 0126 00       		.byte	0
 1447 0127 31       		.uleb128 0x31
 1448 0128 13       		.uleb128 0x13
 1449 0129 02       		.uleb128 0x2
 1450 012a 0A       		.uleb128 0xa
 1451 012b 00       		.byte	0
 1452 012c 00       		.byte	0
 1453 012d 17       		.uleb128 0x17
 1454 012e 05       		.uleb128 0x5
 1455 012f 00       		.byte	0
 1456 0130 31       		.uleb128 0x31
 1457 0131 13       		.uleb128 0x13
 1458 0132 1C       		.uleb128 0x1c
 1459 0133 06       		.uleb128 0x6
 1460 0134 00       		.byte	0
 1461 0135 00       		.byte	0
 1462 0136 18       		.uleb128 0x18
 1463 0137 1D       		.uleb128 0x1d
 1464 0138 01       		.byte	0x1
 1465 0139 31       		.uleb128 0x31
 1466 013a 13       		.uleb128 0x13
 1467 013b 52       		.uleb128 0x52
 1468 013c 01       		.uleb128 0x1
 1469 013d 55       		.uleb128 0x55
 1470 013e 06       		.uleb128 0x6
 1471 013f 58       		.uleb128 0x58
 1472 0140 0B       		.uleb128 0xb
 1473 0141 59       		.uleb128 0x59
 1474 0142 0B       		.uleb128 0xb
 1475 0143 00       		.byte	0
 1476 0144 00       		.byte	0
 1477 0145 19       		.uleb128 0x19
 1478 0146 2E       		.uleb128 0x2e
 1479 0147 01       		.byte	0x1
 1480 0148 3F       		.uleb128 0x3f
ARM GAS  C:\cygwin\tmp\ccQw3d66.s 			page 27


 1481 0149 0C       		.uleb128 0xc
 1482 014a 03       		.uleb128 0x3
 1483 014b 0E       		.uleb128 0xe
 1484 014c 3A       		.uleb128 0x3a
 1485 014d 0B       		.uleb128 0xb
 1486 014e 3B       		.uleb128 0x3b
 1487 014f 0B       		.uleb128 0xb
 1488 0150 27       		.uleb128 0x27
 1489 0151 0C       		.uleb128 0xc
 1490 0152 11       		.uleb128 0x11
 1491 0153 01       		.uleb128 0x1
 1492 0154 12       		.uleb128 0x12
 1493 0155 01       		.uleb128 0x1
 1494 0156 40       		.uleb128 0x40
 1495 0157 06       		.uleb128 0x6
 1496 0158 9742     		.uleb128 0x2117
 1497 015a 0C       		.uleb128 0xc
 1498 015b 01       		.uleb128 0x1
 1499 015c 13       		.uleb128 0x13
 1500 015d 00       		.byte	0
 1501 015e 00       		.byte	0
 1502 015f 1A       		.uleb128 0x1a
 1503 0160 05       		.uleb128 0x5
 1504 0161 00       		.byte	0
 1505 0162 03       		.uleb128 0x3
 1506 0163 0E       		.uleb128 0xe
 1507 0164 3A       		.uleb128 0x3a
 1508 0165 0B       		.uleb128 0xb
 1509 0166 3B       		.uleb128 0x3b
 1510 0167 0B       		.uleb128 0xb
 1511 0168 49       		.uleb128 0x49
 1512 0169 13       		.uleb128 0x13
 1513 016a 02       		.uleb128 0x2
 1514 016b 06       		.uleb128 0x6
 1515 016c 00       		.byte	0
 1516 016d 00       		.byte	0
 1517 016e 1B       		.uleb128 0x1b
 1518 016f 34       		.uleb128 0x34
 1519 0170 00       		.byte	0
 1520 0171 03       		.uleb128 0x3
 1521 0172 0E       		.uleb128 0xe
 1522 0173 3A       		.uleb128 0x3a
 1523 0174 0B       		.uleb128 0xb
 1524 0175 3B       		.uleb128 0x3b
 1525 0176 0B       		.uleb128 0xb
 1526 0177 49       		.uleb128 0x49
 1527 0178 13       		.uleb128 0x13
 1528 0179 02       		.uleb128 0x2
 1529 017a 0A       		.uleb128 0xa
 1530 017b 00       		.byte	0
 1531 017c 00       		.byte	0
 1532 017d 1C       		.uleb128 0x1c
 1533 017e 34       		.uleb128 0x34
 1534 017f 00       		.byte	0
 1535 0180 03       		.uleb128 0x3
 1536 0181 08       		.uleb128 0x8
 1537 0182 3A       		.uleb128 0x3a
ARM GAS  C:\cygwin\tmp\ccQw3d66.s 			page 28


 1538 0183 0B       		.uleb128 0xb
 1539 0184 3B       		.uleb128 0x3b
 1540 0185 0B       		.uleb128 0xb
 1541 0186 49       		.uleb128 0x49
 1542 0187 13       		.uleb128 0x13
 1543 0188 02       		.uleb128 0x2
 1544 0189 06       		.uleb128 0x6
 1545 018a 00       		.byte	0
 1546 018b 00       		.byte	0
 1547 018c 1D       		.uleb128 0x1d
 1548 018d 0B       		.uleb128 0xb
 1549 018e 01       		.byte	0x1
 1550 018f 55       		.uleb128 0x55
 1551 0190 06       		.uleb128 0x6
 1552 0191 00       		.byte	0
 1553 0192 00       		.byte	0
 1554 0193 1E       		.uleb128 0x1e
 1555 0194 34       		.uleb128 0x34
 1556 0195 00       		.byte	0
 1557 0196 03       		.uleb128 0x3
 1558 0197 0E       		.uleb128 0xe
 1559 0198 3A       		.uleb128 0x3a
 1560 0199 0B       		.uleb128 0xb
 1561 019a 3B       		.uleb128 0x3b
 1562 019b 0B       		.uleb128 0xb
 1563 019c 49       		.uleb128 0x49
 1564 019d 13       		.uleb128 0x13
 1565 019e 02       		.uleb128 0x2
 1566 019f 06       		.uleb128 0x6
 1567 01a0 00       		.byte	0
 1568 01a1 00       		.byte	0
 1569 01a2 1F       		.uleb128 0x1f
 1570 01a3 34       		.uleb128 0x34
 1571 01a4 00       		.byte	0
 1572 01a5 03       		.uleb128 0x3
 1573 01a6 0E       		.uleb128 0xe
 1574 01a7 3A       		.uleb128 0x3a
 1575 01a8 0B       		.uleb128 0xb
 1576 01a9 3B       		.uleb128 0x3b
 1577 01aa 05       		.uleb128 0x5
 1578 01ab 49       		.uleb128 0x49
 1579 01ac 13       		.uleb128 0x13
 1580 01ad 3F       		.uleb128 0x3f
 1581 01ae 0C       		.uleb128 0xc
 1582 01af 3C       		.uleb128 0x3c
 1583 01b0 0C       		.uleb128 0xc
 1584 01b1 00       		.byte	0
 1585 01b2 00       		.byte	0
 1586 01b3 00       		.byte	0
 1587              		.section	.debug_loc,"",%progbits
 1588              	.Ldebug_loc0:
 1589              	.LLST0:
 1590 0000 00000000 		.4byte	.LFB120
 1591 0004 04000000 		.4byte	.LCFI0
 1592 0008 0200     		.2byte	0x2
 1593 000a 7D       		.byte	0x7d
 1594 000b 00       		.sleb128 0
ARM GAS  C:\cygwin\tmp\ccQw3d66.s 			page 29


 1595 000c 04000000 		.4byte	.LCFI0
 1596 0010 C8000000 		.4byte	.LFE120
 1597 0014 0200     		.2byte	0x2
 1598 0016 7D       		.byte	0x7d
 1599 0017 20       		.sleb128 32
 1600 0018 00000000 		.4byte	0
 1601 001c 00000000 		.4byte	0
 1602              	.LLST1:
 1603 0020 00000000 		.4byte	.LVL7
 1604 0024 BE000000 		.4byte	.LVL28
 1605 0028 0100     		.2byte	0x1
 1606 002a 51       		.byte	0x51
 1607 002b BE000000 		.4byte	.LVL28
 1608 002f C0000000 		.4byte	.LVL29
 1609 0033 0500     		.2byte	0x5
 1610 0035 71       		.byte	0x71
 1611 0036 00       		.sleb128 0
 1612 0037 31       		.byte	0x31
 1613 0038 25       		.byte	0x25
 1614 0039 9F       		.byte	0x9f
 1615 003a C0000000 		.4byte	.LVL29
 1616 003e C8000000 		.4byte	.LFE120
 1617 0042 0100     		.2byte	0x1
 1618 0044 51       		.byte	0x51
 1619 0045 00000000 		.4byte	0
 1620 0049 00000000 		.4byte	0
 1621              	.LLST2:
 1622 004d 00000000 		.4byte	.LVL7
 1623 0051 1E000000 		.4byte	.LVL12
 1624 0055 0100     		.2byte	0x1
 1625 0057 52       		.byte	0x52
 1626 0058 1E000000 		.4byte	.LVL12
 1627 005c C8000000 		.4byte	.LFE120
 1628 0060 0400     		.2byte	0x4
 1629 0062 F3       		.byte	0xf3
 1630 0063 01       		.uleb128 0x1
 1631 0064 52       		.byte	0x52
 1632 0065 9F       		.byte	0x9f
 1633 0066 00000000 		.4byte	0
 1634 006a 00000000 		.4byte	0
 1635              	.LLST3:
 1636 006e 1E000000 		.4byte	.LVL12
 1637 0072 24000000 		.4byte	.LVL13
 1638 0076 0200     		.2byte	0x2
 1639 0078 30       		.byte	0x30
 1640 0079 9F       		.byte	0x9f
 1641 007a 24000000 		.4byte	.LVL13
 1642 007e C8000000 		.4byte	.LFE120
 1643 0082 0100     		.2byte	0x1
 1644 0084 53       		.byte	0x53
 1645 0085 00000000 		.4byte	0
 1646 0089 00000000 		.4byte	0
 1647              	.LLST4:
 1648 008d 24000000 		.4byte	.LVL13
 1649 0091 2E000000 		.4byte	.LVL18
 1650 0095 0A00     		.2byte	0xa
 1651 0097 72       		.byte	0x72
ARM GAS  C:\cygwin\tmp\ccQw3d66.s 			page 30


 1652 0098 00       		.sleb128 0
 1653 0099 73       		.byte	0x73
 1654 009a 00       		.sleb128 0
 1655 009b 37       		.byte	0x37
 1656 009c 1A       		.byte	0x1a
 1657 009d 32       		.byte	0x32
 1658 009e 24       		.byte	0x24
 1659 009f 24       		.byte	0x24
 1660 00a0 9F       		.byte	0x9f
 1661 00a1 3E000000 		.4byte	.LVL19
 1662 00a5 5E000000 		.4byte	.LVL23
 1663 00a9 0100     		.2byte	0x1
 1664 00ab 58       		.byte	0x58
 1665 00ac 5E000000 		.4byte	.LVL23
 1666 00b0 C8000000 		.4byte	.LFE120
 1667 00b4 0A00     		.2byte	0xa
 1668 00b6 72       		.byte	0x72
 1669 00b7 00       		.sleb128 0
 1670 00b8 73       		.byte	0x73
 1671 00b9 00       		.sleb128 0
 1672 00ba 37       		.byte	0x37
 1673 00bb 1A       		.byte	0x1a
 1674 00bc 32       		.byte	0x32
 1675 00bd 24       		.byte	0x24
 1676 00be 24       		.byte	0x24
 1677 00bf 9F       		.byte	0x9f
 1678 00c0 00000000 		.4byte	0
 1679 00c4 00000000 		.4byte	0
 1680              	.LLST5:
 1681 00c8 44000000 		.4byte	.LVL21
 1682 00cc BE000000 		.4byte	.LVL28
 1683 00d0 0500     		.2byte	0x5
 1684 00d2 31       		.byte	0x31
 1685 00d3 73       		.byte	0x73
 1686 00d4 00       		.sleb128 0
 1687 00d5 24       		.byte	0x24
 1688 00d6 9F       		.byte	0x9f
 1689 00d7 00000000 		.4byte	0
 1690 00db 00000000 		.4byte	0
 1691              	.LLST6:
 1692 00df 7E000000 		.4byte	.LVL24
 1693 00e3 8E000000 		.4byte	.LVL25
 1694 00e7 0700     		.2byte	0x7
 1695 00e9 33       		.byte	0x33
 1696 00ea 73       		.byte	0x73
 1697 00eb 00       		.sleb128 0
 1698 00ec 31       		.byte	0x31
 1699 00ed 24       		.byte	0x24
 1700 00ee 24       		.byte	0x24
 1701 00ef 9F       		.byte	0x9f
 1702 00f0 8E000000 		.4byte	.LVL25
 1703 00f4 92000000 		.4byte	.LVL26
 1704 00f8 0100     		.2byte	0x1
 1705 00fa 5C       		.byte	0x5c
 1706 00fb 92000000 		.4byte	.LVL26
 1707 00ff B6000000 		.4byte	.LVL27
 1708 0103 0400     		.2byte	0x4
ARM GAS  C:\cygwin\tmp\ccQw3d66.s 			page 31


 1709 0105 7C       		.byte	0x7c
 1710 0106 00       		.sleb128 0
 1711 0107 20       		.byte	0x20
 1712 0108 9F       		.byte	0x9f
 1713 0109 B6000000 		.4byte	.LVL27
 1714 010d BE000000 		.4byte	.LVL28
 1715 0111 0700     		.2byte	0x7
 1716 0113 33       		.byte	0x33
 1717 0114 73       		.byte	0x73
 1718 0115 00       		.sleb128 0
 1719 0116 31       		.byte	0x31
 1720 0117 24       		.byte	0x24
 1721 0118 24       		.byte	0x24
 1722 0119 9F       		.byte	0x9f
 1723 011a 00000000 		.4byte	0
 1724 011e 00000000 		.4byte	0
 1725              	.LLST7:
 1726 0122 24000000 		.4byte	.LVL13
 1727 0126 2E000000 		.4byte	.LVL18
 1728 012a 0A00     		.2byte	0xa
 1729 012c 79       		.byte	0x79
 1730 012d 00       		.sleb128 0
 1731 012e 73       		.byte	0x73
 1732 012f 00       		.sleb128 0
 1733 0130 37       		.byte	0x37
 1734 0131 1A       		.byte	0x1a
 1735 0132 32       		.byte	0x32
 1736 0133 24       		.byte	0x24
 1737 0134 24       		.byte	0x24
 1738 0135 9F       		.byte	0x9f
 1739 0136 42000000 		.4byte	.LVL20
 1740 013a 54000000 		.4byte	.LVL22
 1741 013e 0100     		.2byte	0x1
 1742 0140 5C       		.byte	0x5c
 1743 0141 54000000 		.4byte	.LVL22
 1744 0145 C8000000 		.4byte	.LFE120
 1745 0149 0A00     		.2byte	0xa
 1746 014b 79       		.byte	0x79
 1747 014c 00       		.sleb128 0
 1748 014d 73       		.byte	0x73
 1749 014e 00       		.sleb128 0
 1750 014f 37       		.byte	0x37
 1751 0150 1A       		.byte	0x1a
 1752 0151 32       		.byte	0x32
 1753 0152 24       		.byte	0x24
 1754 0153 24       		.byte	0x24
 1755 0154 9F       		.byte	0x9f
 1756 0155 00000000 		.4byte	0
 1757 0159 00000000 		.4byte	0
 1758              		.section	.debug_aranges,"",%progbits
 1759 0000 24000000 		.4byte	0x24
 1760 0004 0200     		.2byte	0x2
 1761 0006 00000000 		.4byte	.Ldebug_info0
 1762 000a 04       		.byte	0x4
 1763 000b 00       		.byte	0
 1764 000c 0000     		.2byte	0
 1765 000e 0000     		.2byte	0
ARM GAS  C:\cygwin\tmp\ccQw3d66.s 			page 32


 1766 0010 00000000 		.4byte	.LFB119
 1767 0014 FA000000 		.4byte	.LFE119-.LFB119
 1768 0018 00000000 		.4byte	.LFB120
 1769 001c C8000000 		.4byte	.LFE120-.LFB120
 1770 0020 00000000 		.4byte	0
 1771 0024 00000000 		.4byte	0
 1772              		.section	.debug_ranges,"",%progbits
 1773              	.Ldebug_ranges0:
 1774 0000 10000000 		.4byte	.LBB14
 1775 0004 16000000 		.4byte	.LBE14
 1776 0008 1A000000 		.4byte	.LBB21
 1777 000c 34000000 		.4byte	.LBE21
 1778 0010 00000000 		.4byte	0
 1779 0014 00000000 		.4byte	0
 1780 0018 16000000 		.4byte	.LBB17
 1781 001c 1A000000 		.4byte	.LBE17
 1782 0020 34000000 		.4byte	.LBB22
 1783 0024 3A000000 		.4byte	.LBE22
 1784 0028 3E000000 		.4byte	.LBB27
 1785 002c 58000000 		.4byte	.LBE27
 1786 0030 00000000 		.4byte	0
 1787 0034 00000000 		.4byte	0
 1788 0038 3A000000 		.4byte	.LBB23
 1789 003c 3E000000 		.4byte	.LBE23
 1790 0040 58000000 		.4byte	.LBB28
 1791 0044 76000000 		.4byte	.LBE28
 1792 0048 7A000000 		.4byte	.LBB33
 1793 004c 7C000000 		.4byte	.LBE33
 1794 0050 00000000 		.4byte	0
 1795 0054 00000000 		.4byte	0
 1796 0058 76000000 		.4byte	.LBB29
 1797 005c 7A000000 		.4byte	.LBE29
 1798 0060 7C000000 		.4byte	.LBB34
 1799 0064 82000000 		.4byte	.LBE34
 1800 0068 86000000 		.4byte	.LBB39
 1801 006c A0000000 		.4byte	.LBE39
 1802 0070 00000000 		.4byte	0
 1803 0074 00000000 		.4byte	0
 1804 0078 82000000 		.4byte	.LBB35
 1805 007c 86000000 		.4byte	.LBE35
 1806 0080 A0000000 		.4byte	.LBB40
 1807 0084 C4000000 		.4byte	.LBE40
 1808 0088 C8000000 		.4byte	.LBB44
 1809 008c CA000000 		.4byte	.LBE44
 1810 0090 00000000 		.4byte	0
 1811 0094 00000000 		.4byte	0
 1812 0098 C4000000 		.4byte	.LBB41
 1813 009c C8000000 		.4byte	.LBE41
 1814 00a0 CA000000 		.4byte	.LBB45
 1815 00a4 FA000000 		.4byte	.LBE45
 1816 00a8 00000000 		.4byte	0
 1817 00ac 00000000 		.4byte	0
 1818 00b0 16000000 		.4byte	.LBB46
 1819 00b4 1A000000 		.4byte	.LBE46
 1820 00b8 1E000000 		.4byte	.LBB47
 1821 00bc 24000000 		.4byte	.LBE47
 1822 00c0 2E000000 		.4byte	.LBB48
ARM GAS  C:\cygwin\tmp\ccQw3d66.s 			page 33


 1823 00c4 36000000 		.4byte	.LBE48
 1824 00c8 3A000000 		.4byte	.LBB49
 1825 00cc 42000000 		.4byte	.LBE49
 1826 00d0 44000000 		.4byte	.LBB50
 1827 00d4 BE000000 		.4byte	.LBE50
 1828 00d8 00000000 		.4byte	0
 1829 00dc 00000000 		.4byte	0
 1830 00e0 00000000 		.4byte	.LFB119
 1831 00e4 FA000000 		.4byte	.LFE119
 1832 00e8 00000000 		.4byte	.LFB120
 1833 00ec C8000000 		.4byte	.LFE120
 1834 00f0 00000000 		.4byte	0
 1835 00f4 00000000 		.4byte	0
 1836              		.section	.debug_line,"",%progbits
 1837              	.Ldebug_line0:
 1838 0000 D6010000 		.section	.debug_str,"MS",%progbits,1
 1838      02003A01 
 1838      00000201 
 1838      FB0E0D00 
 1838      01010101 
 1839              	.LASF24:
 1840 0000 4750494F 		.ascii	"GPIO_TypeDef\000"
 1840      5F547970 
 1840      65446566 
 1840      00
 1841              	.LASF45:
 1842 000d 50434461 		.ascii	"PCData\000"
 1842      746100
 1843              	.LASF56:
 1844 0014 5F70616C 		.ascii	"_pal_lld_setgroupmode\000"
 1844      5F6C6C64 
 1844      5F736574 
 1844      67726F75 
 1844      706D6F64 
 1845              	.LASF27:
 1846 002a 41504231 		.ascii	"APB1RSTR\000"
 1846      52535452 
 1846      00
 1847              	.LASF55:
 1848 0033 5F70616C 		.ascii	"_pal_lld_init\000"
 1848      5F6C6C64 
 1848      5F696E69 
 1848      7400
 1849              	.LASF42:
 1850 0041 73746D33 		.ascii	"stm32_gpio_setup_t\000"
 1850      325F6770 
 1850      696F5F73 
 1850      65747570 
 1850      5F7400
 1851              	.LASF48:
 1852 0054 50464461 		.ascii	"PFData\000"
 1852      746100
 1853              	.LASF3:
 1854 005b 73686F72 		.ascii	"short int\000"
 1854      7420696E 
 1854      7400
 1855              	.LASF65:
ARM GAS  C:\cygwin\tmp\ccQw3d66.s 			page 34


 1856 0065 696E6974 		.ascii	"initgpio\000"
 1856      6770696F 
 1856      00
 1857              	.LASF13:
 1858 006e 73697A65 		.ascii	"sizetype\000"
 1858      74797065 
 1858      00
 1859              	.LASF31:
 1860 0077 42444352 		.ascii	"BDCR\000"
 1860      00
 1861              	.LASF53:
 1862 007c 6770696F 		.ascii	"gpiop\000"
 1862      7000
 1863              	.LASF44:
 1864 0082 50424461 		.ascii	"PBData\000"
 1864      746100
 1865              	.LASF54:
 1866 0089 636F6E66 		.ascii	"config\000"
 1866      696700
 1867              	.LASF51:
 1868 0090 696F6D6F 		.ascii	"iomode_t\000"
 1868      64655F74 
 1868      00
 1869              	.LASF30:
 1870 0099 41504231 		.ascii	"APB1ENR\000"
 1870      454E5200 
 1871              	.LASF50:
 1872 00a1 696F706F 		.ascii	"ioportmask_t\000"
 1872      72746D61 
 1872      736B5F74 
 1872      00
 1873              	.LASF17:
 1874 00ae 4F545950 		.ascii	"OTYPER\000"
 1874      455200
 1875              	.LASF43:
 1876 00b5 50414461 		.ascii	"PAData\000"
 1876      746100
 1877              	.LASF32:
 1878 00bc 41484252 		.ascii	"AHBRSTR\000"
 1878      53545200 
 1879              	.LASF10:
 1880 00c4 6C6F6E67 		.ascii	"long long int\000"
 1880      206C6F6E 
 1880      6720696E 
 1880      7400
 1881              	.LASF19:
 1882 00d2 50555044 		.ascii	"PUPDR\000"
 1882      5200
 1883              	.LASF38:
 1884 00d8 6F737065 		.ascii	"ospeedr\000"
 1884      65647200 
 1885              	.LASF7:
 1886 00e0 6C6F6E67 		.ascii	"long int\000"
 1886      20696E74 
 1886      00
 1887              	.LASF46:
 1888 00e9 50444461 		.ascii	"PDData\000"
ARM GAS  C:\cygwin\tmp\ccQw3d66.s 			page 35


 1888      746100
 1889              	.LASF35:
 1890 00f0 5243435F 		.ascii	"RCC_TypeDef\000"
 1890      54797065 
 1890      44656600 
 1891              	.LASF28:
 1892 00fc 41484245 		.ascii	"AHBENR\000"
 1892      4E5200
 1893              	.LASF16:
 1894 0103 4D4F4445 		.ascii	"MODER\000"
 1894      5200
 1895              	.LASF26:
 1896 0109 41504232 		.ascii	"APB2RSTR\000"
 1896      52535452 
 1896      00
 1897              	.LASF15:
 1898 0112 636C6561 		.ascii	"clear\000"
 1898      7200
 1899              	.LASF63:
 1900 0118 2E2E2F2E 		.ascii	"../../../os/hal/platforms/STM32/GPIOv2/pal_lld.c\000"
 1900      2E2F2E2E 
 1900      2F6F732F 
 1900      68616C2F 
 1900      706C6174 
 1901              	.LASF52:
 1902 0149 696F706F 		.ascii	"ioportid_t\000"
 1902      72746964 
 1902      5F7400
 1903              	.LASF2:
 1904 0154 756E7369 		.ascii	"unsigned char\000"
 1904      676E6564 
 1904      20636861 
 1904      7200
 1905              	.LASF29:
 1906 0162 41504232 		.ascii	"APB2ENR\000"
 1906      454E5200 
 1907              	.LASF1:
 1908 016a 7369676E 		.ascii	"signed char\000"
 1908      65642063 
 1908      68617200 
 1909              	.LASF11:
 1910 0176 6C6F6E67 		.ascii	"long long unsigned int\000"
 1910      206C6F6E 
 1910      6720756E 
 1910      7369676E 
 1910      65642069 
 1911              	.LASF8:
 1912 018d 75696E74 		.ascii	"uint32_t\000"
 1912      33325F74 
 1912      00
 1913              	.LASF37:
 1914 0196 6F747970 		.ascii	"otyper\000"
 1914      657200
 1915              	.LASF33:
 1916 019d 43464752 		.ascii	"CFGR2\000"
 1916      3200
 1917              	.LASF34:
ARM GAS  C:\cygwin\tmp\ccQw3d66.s 			page 36


 1918 01a3 43464752 		.ascii	"CFGR3\000"
 1918      3300
 1919              	.LASF62:
 1920 01a9 474E5520 		.ascii	"GNU C 4.7.2\000"
 1920      4320342E 
 1920      372E3200 
 1921              	.LASF64:
 1922 01b5 433A5C55 		.ascii	"C:\\Users\\TaisikHam\\Documents\\GitHub\\testgit\\m"
 1922      73657273 
 1922      5C546169 
 1922      73696B48 
 1922      616D5C44 
 1923 01e2 61626C5C 		.ascii	"abl\\ChibiOS\\testhal\\STM32F30x\\TS_SPI\000"
 1923      43686962 
 1923      694F535C 
 1923      74657374 
 1923      68616C5C 
 1924              	.LASF23:
 1925 0207 41465248 		.ascii	"AFRH\000"
 1925      00
 1926              	.LASF22:
 1927 020c 4146524C 		.ascii	"AFRL\000"
 1927      00
 1928              	.LASF4:
 1929 0211 73686F72 		.ascii	"short unsigned int\000"
 1929      7420756E 
 1929      7369676E 
 1929      65642069 
 1929      6E7400
 1930              	.LASF14:
 1931 0224 63686172 		.ascii	"char\000"
 1931      00
 1932              	.LASF5:
 1933 0229 75696E74 		.ascii	"uint16_t\000"
 1933      31365F74 
 1933      00
 1934              	.LASF6:
 1935 0232 696E7433 		.ascii	"int32_t\000"
 1935      325F7400 
 1936              	.LASF49:
 1937 023a 50414C43 		.ascii	"PALConfig\000"
 1937      6F6E6669 
 1937      6700
 1938              	.LASF12:
 1939 0244 5F426F6F 		.ascii	"_Bool\000"
 1939      6C00
 1940              	.LASF59:
 1941 024a 6D6F6465 		.ascii	"mode\000"
 1941      00
 1942              	.LASF57:
 1943 024f 706F7274 		.ascii	"port\000"
 1943      00
 1944              	.LASF47:
 1945 0254 50454461 		.ascii	"PEData\000"
 1945      746100
 1946              	.LASF60:
 1947 025b 616C7472 		.ascii	"altr\000"
ARM GAS  C:\cygwin\tmp\ccQw3d66.s 			page 37


 1947      00
 1948              	.LASF18:
 1949 0260 4F535045 		.ascii	"OSPEEDR\000"
 1949      45445200 
 1950              	.LASF9:
 1951 0268 6C6F6E67 		.ascii	"long unsigned int\000"
 1951      20756E73 
 1951      69676E65 
 1951      6420696E 
 1951      7400
 1952              	.LASF58:
 1953 027a 6D61736B 		.ascii	"mask\000"
 1953      00
 1954              	.LASF39:
 1955 027f 70757064 		.ascii	"pupdr\000"
 1955      7200
 1956              	.LASF41:
 1957 0285 61667268 		.ascii	"afrh\000"
 1957      00
 1958              	.LASF40:
 1959 028a 6166726C 		.ascii	"afrl\000"
 1959      00
 1960              	.LASF36:
 1961 028f 6D6F6465 		.ascii	"moder\000"
 1961      7200
 1962              	.LASF66:
 1963 0295 49544D5F 		.ascii	"ITM_RxBuffer\000"
 1963      52784275 
 1963      66666572 
 1963      00
 1964              	.LASF61:
 1965 02a2 616C7472 		.ascii	"altrmask\000"
 1965      6D61736B 
 1965      00
 1966              	.LASF0:
 1967 02ab 756E7369 		.ascii	"unsigned int\000"
 1967      676E6564 
 1967      20696E74 
 1967      00
 1968              	.LASF25:
 1969 02b8 43464752 		.ascii	"CFGR\000"
 1969      00
 1970              	.LASF21:
 1971 02bd 4C434B52 		.ascii	"LCKR\000"
 1971      00
 1972              	.LASF20:
 1973 02c2 42535252 		.ascii	"BSRR\000"
 1973      00
 1974              		.ident	"GCC: (GNU) 4.7.2"
ARM GAS  C:\cygwin\tmp\ccQw3d66.s 			page 38


DEFINED SYMBOLS
                            *ABS*:00000000 pal_lld.c
C:\cygwin\tmp\ccQw3d66.s:19     .text._pal_lld_init:00000000 $t
C:\cygwin\tmp\ccQw3d66.s:25     .text._pal_lld_init:00000000 _pal_lld_init
C:\cygwin\tmp\ccQw3d66.s:256    .text._pal_lld_setgroupmode:00000000 $t
C:\cygwin\tmp\ccQw3d66.s:262    .text._pal_lld_setgroupmode:00000000 _pal_lld_setgroupmode
                     .debug_frame:00000010 $d

NO UNDEFINED SYMBOLS
