ARM GAS  C:\Users\TaisikHam\AppData\Local\Temp\ccO5hARh.s 			page 1


   1              		.syntax unified
   2              		.cpu cortex-m4
   3              		.fpu softvfp
   4              		.eabi_attribute 20, 1
   5              		.eabi_attribute 21, 1
   6              		.eabi_attribute 23, 3
   7              		.eabi_attribute 24, 1
   8              		.eabi_attribute 25, 1
   9              		.eabi_attribute 26, 1
  10              		.eabi_attribute 30, 2
  11              		.eabi_attribute 34, 1
  12              		.eabi_attribute 18, 4
  13              		.thumb
  14              		.file	"serial_lld.c"
  15              		.text
  16              	.Ltext0:
  17              		.cfi_sections	.debug_frame
  18              		.section	.text.notify1,"ax",%progbits
  19              		.align	2
  20              		.p2align 4,,15
  21              		.thumb
  22              		.thumb_func
  23              		.type	notify1, %function
  24              	notify1:
  25              	.LFB122:
  26              		.file 1 "../../../os/hal/platforms/STM32/USARTv2/serial_lld.c"
  27              		.loc 1 198 0
  28              		.cfi_startproc
  29              		@ args = 0, pretend = 0, frame = 0
  30              		@ frame_needed = 0, uses_anonymous_args = 0
  31              		@ link register save eliminated.
  32              	.LVL0:
  33              		.loc 1 201 0
  34 0000 4FF46053 		mov	r3, #14336
  35 0004 C4F20103 		movt	r3, 16385
  36 0008 1A68     		ldr	r2, [r3, #0]
  37 000a 42F08002 		orr	r2, r2, #128
  38 000e 1A60     		str	r2, [r3, #0]
  39 0010 7047     		bx	lr
  40              		.cfi_endproc
  41              	.LFE122:
  42              		.size	notify1, .-notify1
  43 0012 00BFAFF3 		.section	.text.notify2,"ax",%progbits
  43      0080AFF3 
  43      0080AFF3 
  43      0080
  44              		.align	2
  45              		.p2align 4,,15
  46              		.thumb
  47              		.thumb_func
  48              		.type	notify2, %function
  49              	notify2:
  50              	.LFB123:
  51              		.loc 1 206 0
  52              		.cfi_startproc
  53              		@ args = 0, pretend = 0, frame = 0
  54              		@ frame_needed = 0, uses_anonymous_args = 0
ARM GAS  C:\Users\TaisikHam\AppData\Local\Temp\ccO5hARh.s 			page 2


  55              		@ link register save eliminated.
  56              	.LVL1:
  57              		.loc 1 209 0
  58 0000 4FF48843 		mov	r3, #17408
  59 0004 C4F20003 		movt	r3, 16384
  60 0008 1A68     		ldr	r2, [r3, #0]
  61 000a 42F08002 		orr	r2, r2, #128
  62 000e 1A60     		str	r2, [r3, #0]
  63 0010 7047     		bx	lr
  64              		.cfi_endproc
  65              	.LFE123:
  66              		.size	notify2, .-notify2
  67              		.section	.text.notify3,"ax",%progbits
  68              		.align	2
  69              		.p2align 4,,15
  70              		.thumb
  71              		.thumb_func
  72              		.type	notify3, %function
  73              	notify3:
  74              	.LFB124:
  75              		.loc 1 214 0
  76              		.cfi_startproc
  77              		@ args = 0, pretend = 0, frame = 0
  78              		@ frame_needed = 0, uses_anonymous_args = 0
  79              		@ link register save eliminated.
  80              	.LVL2:
  81              		.loc 1 217 0
  82 0000 4FF49043 		mov	r3, #18432
  83 0004 C4F20003 		movt	r3, 16384
  84 0008 1A68     		ldr	r2, [r3, #0]
  85 000a 42F08002 		orr	r2, r2, #128
  86 000e 1A60     		str	r2, [r3, #0]
  87 0010 7047     		bx	lr
  88              		.cfi_endproc
  89              	.LFE124:
  90              		.size	notify3, .-notify3
  91              		.section	.text.notify4,"ax",%progbits
  92              		.align	2
  93              		.p2align 4,,15
  94              		.thumb
  95              		.thumb_func
  96              		.type	notify4, %function
  97              	notify4:
  98              	.LFB125:
  99              		.loc 1 222 0
 100              		.cfi_startproc
 101              		@ args = 0, pretend = 0, frame = 0
 102              		@ frame_needed = 0, uses_anonymous_args = 0
 103              		@ link register save eliminated.
 104              	.LVL3:
 105              		.loc 1 225 0
 106 0000 4FF49843 		mov	r3, #19456
 107 0004 C4F20003 		movt	r3, 16384
 108 0008 1A68     		ldr	r2, [r3, #0]
 109 000a 42F08002 		orr	r2, r2, #128
 110 000e 1A60     		str	r2, [r3, #0]
 111 0010 7047     		bx	lr
ARM GAS  C:\Users\TaisikHam\AppData\Local\Temp\ccO5hARh.s 			page 3


 112              		.cfi_endproc
 113              	.LFE125:
 114              		.size	notify4, .-notify4
 115              		.section	.text.serve_interrupt,"ax",%progbits
 116              		.align	2
 117              		.p2align 4,,15
 118              		.thumb
 119              		.thumb_func
 120              		.type	serve_interrupt, %function
 121              	serve_interrupt:
 122              	.LFB121:
 123              		.loc 1 151 0
 124              		.cfi_startproc
 125              		@ args = 0, pretend = 0, frame = 0
 126              		@ frame_needed = 0, uses_anonymous_args = 0
 127              	.LVL4:
 128 0000 2DE9F041 		push	{r4, r5, r6, r7, r8, lr}
 129              	.LCFI0:
 130              		.cfi_def_cfa_offset 24
 131              		.cfi_offset 4, -24
 132              		.cfi_offset 5, -20
 133              		.cfi_offset 6, -16
 134              		.cfi_offset 7, -12
 135              		.cfi_offset 8, -8
 136              		.cfi_offset 14, -4
 137              		.loc 1 152 0
 138 0004 456F     		ldr	r5, [r0, #116]
 139              	.LVL5:
 140              		.loc 1 153 0
 141 0006 2F68     		ldr	r7, [r5, #0]
 142              	.LVL6:
 143              		.loc 1 157 0
 144 0008 EC69     		ldr	r4, [r5, #28]
 145              	.LVL7:
 146              		.loc 1 161 0
 147 000a 2307     		lsls	r3, r4, #28
 148              		.loc 1 151 0
 149 000c 0646     		mov	r6, r0
 150              		.loc 1 158 0
 151 000e 2C62     		str	r4, [r5, #32]
 152              		.loc 1 161 0
 153 0010 3CD1     		bne	.L46
 154              	.LVL8:
 155              	.L6:
 156              		.loc 1 164 0
 157 0012 E305     		lsls	r3, r4, #23
 158              	.LVL9:
 159 0014 2AD4     		bmi	.L47
 160              	.LVL10:
 161              	.L11:
 162              		.loc 1 170 0
 163 0016 A006     		lsls	r0, r4, #26
 164 0018 18D4     		bmi	.L48
 165              	.LVL11:
 166              	.L12:
 167              		.loc 1 176 0
 168 001a 3906     		lsls	r1, r7, #24
ARM GAS  C:\Users\TaisikHam\AppData\Local\Temp\ccO5hARh.s 			page 4


 169 001c 01D5     		bpl	.L13
 170              		.loc 1 176 0 is_stmt 0 discriminator 1
 171 001e 2206     		lsls	r2, r4, #24
 172 0020 56D4     		bmi	.L49
 173              	.LVL12:
 174              	.L13:
 175              		.loc 1 189 0 is_stmt 1
 176 0022 6306     		lsls	r3, r4, #25
 177              	.LVL13:
 178 0024 10D5     		bpl	.L5
 179              	.LBB19:
 180              		.loc 1 190 0
 181 0026 2023     		movs	r3, #32
 182              	.LVL14:
 183              	@ 190 "../../../os/hal/platforms/STM32/USARTv2/serial_lld.c" 1
 184 0028 83F31188 		msr     BASEPRI, r3
 185              	@ 0 "" 2
 186              	.LVL15:
 187              		.thumb
 188              	.LBE19:
 189 002c FFF7FEFF 		bl	dbg_check_lock_from_isr
 190              	.LVL16:
 191              		.loc 1 191 0
 192 0030 301D     		adds	r0, r6, #4
 193 0032 1021     		movs	r1, #16
 194 0034 FFF7FEFF 		bl	chEvtBroadcastFlagsI
 195              	.LVL17:
 196              		.loc 1 192 0
 197 0038 FFF7FEFF 		bl	dbg_check_unlock_from_isr
 198              	.LVL18:
 199              	.LBB20:
 200 003c 0023     		movs	r3, #0
 201              	.LVL19:
 202              	@ 192 "../../../os/hal/platforms/STM32/USARTv2/serial_lld.c" 1
 203 003e 83F31188 		msr     BASEPRI, r3
 204              	@ 0 "" 2
 205              	.LVL20:
 206              		.thumb
 207              	.LBE20:
 208              		.loc 1 193 0
 209 0042 27F04007 		bic	r7, r7, #64
 210              	.LVL21:
 211 0046 2F60     		str	r7, [r5, #0]
 212              	.L5:
 213 0048 BDE8F081 		pop	{r4, r5, r6, r7, r8, pc}
 214              	.LVL22:
 215              	.L48:
 216              	.LBB21:
 217              		.loc 1 171 0
 218 004c 2023     		movs	r3, #32
 219              	.LVL23:
 220              	@ 171 "../../../os/hal/platforms/STM32/USARTv2/serial_lld.c" 1
 221 004e 83F31188 		msr     BASEPRI, r3
 222              	@ 0 "" 2
 223              	.LVL24:
 224              		.thumb
 225              	.LBE21:
ARM GAS  C:\Users\TaisikHam\AppData\Local\Temp\ccO5hARh.s 			page 5


 226 0052 FFF7FEFF 		bl	dbg_check_lock_from_isr
 227              	.LVL25:
 228              		.loc 1 172 0
 229 0056 A98C     		ldrh	r1, [r5, #36]
 230 0058 3046     		mov	r0, r6
 231 005a C9B2     		uxtb	r1, r1
 232 005c FFF7FEFF 		bl	sdIncomingDataI
 233              	.LVL26:
 234              		.loc 1 173 0
 235 0060 FFF7FEFF 		bl	dbg_check_unlock_from_isr
 236              	.LVL27:
 237              	.LBB22:
 238 0064 0023     		movs	r3, #0
 239              	@ 173 "../../../os/hal/platforms/STM32/USARTv2/serial_lld.c" 1
 240 0066 83F31188 		msr     BASEPRI, r3
 241              	@ 0 "" 2
 242              	.LVL28:
 243              		.thumb
 244 006a D6E7     		b	.L12
 245              	.LVL29:
 246              	.L47:
 247              	.LBE22:
 248              	.LBB23:
 249              		.loc 1 165 0
 250 006c 2023     		movs	r3, #32
 251              	.LVL30:
 252              	@ 165 "../../../os/hal/platforms/STM32/USARTv2/serial_lld.c" 1
 253 006e 83F31188 		msr     BASEPRI, r3
 254              	@ 0 "" 2
 255              	.LVL31:
 256              		.thumb
 257              	.LBE23:
 258 0072 FFF7FEFF 		bl	dbg_check_lock_from_isr
 259              	.LVL32:
 260              		.loc 1 166 0
 261 0076 301D     		adds	r0, r6, #4
 262 0078 4FF40071 		mov	r1, #512
 263 007c FFF7FEFF 		bl	chEvtBroadcastFlagsI
 264              	.LVL33:
 265              		.loc 1 167 0
 266 0080 FFF7FEFF 		bl	dbg_check_unlock_from_isr
 267              	.LVL34:
 268              	.LBB24:
 269 0084 0023     		movs	r3, #0
 270              	@ 167 "../../../os/hal/platforms/STM32/USARTv2/serial_lld.c" 1
 271 0086 83F31188 		msr     BASEPRI, r3
 272              	@ 0 "" 2
 273              	.LVL35:
 274              		.thumb
 275 008a C4E7     		b	.L11
 276              	.LVL36:
 277              	.L46:
 278              	.LBE24:
 279              	.LBB25:
 280              	.LBB26:
 281              		.loc 1 134 0
 282 008c 14F0080F 		tst	r4, #8
ARM GAS  C:\Users\TaisikHam\AppData\Local\Temp\ccO5hARh.s 			page 6


 283 0090 0CBF     		ite	eq
 284 0092 4FF00008 		moveq	r8, #0
 285 0096 4FF08008 		movne	r8, #128
 286              	.LVL37:
 287              		.loc 1 135 0
 288 009a E007     		lsls	r0, r4, #31
 289              	.LVL38:
 290              		.loc 1 136 0
 291 009c 48BF     		it	mi
 292 009e 48F02008 		orrmi	r8, r8, #32
 293              	.LVL39:
 294              		.loc 1 137 0
 295 00a2 A107     		lsls	r1, r4, #30
 296              		.loc 1 138 0
 297 00a4 48BF     		it	mi
 298 00a6 48F04008 		orrmi	r8, r8, #64
 299              	.LVL40:
 300              		.loc 1 139 0
 301 00aa 6207     		lsls	r2, r4, #29
 302              		.loc 1 140 0
 303 00ac 48BF     		it	mi
 304 00ae 48F48078 		orrmi	r8, r8, #256
 305              	.LVL41:
 306              	.LBB27:
 307              		.loc 1 141 0
 308 00b2 2023     		movs	r3, #32
 309              	.LVL42:
 310              	@ 141 "../../../os/hal/platforms/STM32/USARTv2/serial_lld.c" 1
 311 00b4 83F31188 		msr     BASEPRI, r3
 312              	@ 0 "" 2
 313              	.LVL43:
 314              		.thumb
 315              	.LBE27:
 316 00b8 FFF7FEFF 		bl	dbg_check_lock_from_isr
 317              	.LVL44:
 318              		.loc 1 142 0
 319 00bc 301D     		adds	r0, r6, #4
 320 00be 4146     		mov	r1, r8
 321 00c0 FFF7FEFF 		bl	chEvtBroadcastFlagsI
 322              	.LVL45:
 323              		.loc 1 143 0
 324 00c4 FFF7FEFF 		bl	dbg_check_unlock_from_isr
 325              	.LVL46:
 326              	.LBB28:
 327 00c8 0023     		movs	r3, #0
 328              	@ 143 "../../../os/hal/platforms/STM32/USARTv2/serial_lld.c" 1
 329 00ca 83F31188 		msr     BASEPRI, r3
 330              	@ 0 "" 2
 331              	.LVL47:
 332              		.thumb
 333 00ce A0E7     		b	.L6
 334              	.LVL48:
 335              	.L49:
 336              	.LBE28:
 337              	.LBE26:
 338              	.LBE25:
 339              	.LBB29:
ARM GAS  C:\Users\TaisikHam\AppData\Local\Temp\ccO5hARh.s 			page 7


 340              	.LBB30:
 341              		.loc 1 178 0
 342 00d0 2023     		movs	r3, #32
 343              	.LVL49:
 344              	@ 178 "../../../os/hal/platforms/STM32/USARTv2/serial_lld.c" 1
 345 00d2 83F31188 		msr     BASEPRI, r3
 346              	@ 0 "" 2
 347              	.LVL50:
 348              		.thumb
 349              	.LBE30:
 350 00d6 FFF7FEFF 		bl	dbg_check_lock_from_isr
 351              	.LVL51:
 352              		.loc 1 179 0
 353 00da 06F13000 		add	r0, r6, #48
 354 00de FFF7FEFF 		bl	chOQGetI
 355              	.LVL52:
 356              		.loc 1 180 0
 357 00e2 0028     		cmp	r0, #0
 358              		.loc 1 185 0
 359 00e4 A4BF     		itt	ge
 360 00e6 80B2     		uxthge	r0, r0
 361              	.LVL53:
 362 00e8 2885     		strhge	r0, [r5, #40]	@ movhi
 363              		.loc 1 180 0
 364 00ea 05DB     		blt	.L50
 365              	.L15:
 366              		.loc 1 186 0
 367 00ec FFF7FEFF 		bl	dbg_check_unlock_from_isr
 368              	.LVL54:
 369              	.LBB31:
 370 00f0 0023     		movs	r3, #0
 371              	@ 186 "../../../os/hal/platforms/STM32/USARTv2/serial_lld.c" 1
 372 00f2 83F31188 		msr     BASEPRI, r3
 373              	@ 0 "" 2
 374              	.LVL55:
 375              		.thumb
 376 00f6 94E7     		b	.L13
 377              	.LVL56:
 378              	.L50:
 379              	.LBE31:
 380              		.loc 1 181 0
 381 00f8 301D     		adds	r0, r6, #4
 382 00fa 0821     		movs	r1, #8
 383 00fc FFF7FEFF 		bl	chEvtBroadcastFlagsI
 384              	.LVL57:
 385              		.loc 1 182 0
 386 0100 27F0C003 		bic	r3, r7, #192
 387 0104 43F04003 		orr	r3, r3, #64
 388 0108 2B60     		str	r3, [r5, #0]
 389 010a EFE7     		b	.L15
 390              	.LBE29:
 391              		.cfi_endproc
 392              	.LFE121:
 393              		.size	serve_interrupt, .-serve_interrupt
 394 010c AFF30080 		.section	.text.VectorD4,"ax",%progbits
 395              		.align	2
 396              		.p2align 4,,15
ARM GAS  C:\Users\TaisikHam\AppData\Local\Temp\ccO5hARh.s 			page 8


 397              		.global	VectorD4
 398              		.thumb
 399              		.thumb_func
 400              		.type	VectorD4, %function
 401              	VectorD4:
 402              	.LFB126:
 403              		.loc 1 258 0
 404              		.cfi_startproc
 405              		@ args = 0, pretend = 0, frame = 0
 406              		@ frame_needed = 0, uses_anonymous_args = 0
 407 0000 08B5     		push	{r3, lr}
 408              	.LCFI1:
 409              		.cfi_def_cfa_offset 8
 410              		.cfi_offset 3, -8
 411              		.cfi_offset 14, -4
 412              		.loc 1 260 0
 413 0002 FFF7FEFF 		bl	dbg_check_enter_isr
 414              	.LVL58:
 415              		.loc 1 262 0
 416 0006 40F20000 		movw	r0, #:lower16:.LANCHOR0
 417 000a C0F20000 		movt	r0, #:upper16:.LANCHOR0
 418 000e FFF7FEFF 		bl	serve_interrupt
 419              	.LVL59:
 420              		.loc 1 264 0
 421 0012 FFF7FEFF 		bl	dbg_check_leave_isr
 422              	.LVL60:
 423              		.loc 1 265 0
 424 0016 BDE80840 		pop	{r3, lr}
 425              		.loc 1 264 0
 426 001a FFF7FEBF 		b	_port_irq_epilogue
 427              	.LVL61:
 428              		.cfi_endproc
 429              	.LFE126:
 430              		.size	VectorD4, .-VectorD4
 431 001e 00BF     		.section	.text.VectorD8,"ax",%progbits
 432              		.align	2
 433              		.p2align 4,,15
 434              		.global	VectorD8
 435              		.thumb
 436              		.thumb_func
 437              		.type	VectorD8, %function
 438              	VectorD8:
 439              	.LFB127:
 440              		.loc 1 277 0
 441              		.cfi_startproc
 442              		@ args = 0, pretend = 0, frame = 0
 443              		@ frame_needed = 0, uses_anonymous_args = 0
 444 0000 08B5     		push	{r3, lr}
 445              	.LCFI2:
 446              		.cfi_def_cfa_offset 8
 447              		.cfi_offset 3, -8
 448              		.cfi_offset 14, -4
 449              		.loc 1 279 0
 450 0002 FFF7FEFF 		bl	dbg_check_enter_isr
 451              	.LVL62:
 452              		.loc 1 281 0
 453 0006 40F20000 		movw	r0, #:lower16:.LANCHOR1
ARM GAS  C:\Users\TaisikHam\AppData\Local\Temp\ccO5hARh.s 			page 9


 454 000a C0F20000 		movt	r0, #:upper16:.LANCHOR1
 455 000e FFF7FEFF 		bl	serve_interrupt
 456              	.LVL63:
 457              		.loc 1 283 0
 458 0012 FFF7FEFF 		bl	dbg_check_leave_isr
 459              	.LVL64:
 460              		.loc 1 284 0
 461 0016 BDE80840 		pop	{r3, lr}
 462              		.loc 1 283 0
 463 001a FFF7FEBF 		b	_port_irq_epilogue
 464              	.LVL65:
 465              		.cfi_endproc
 466              	.LFE127:
 467              		.size	VectorD8, .-VectorD8
 468 001e 00BF     		.section	.text.VectorDC,"ax",%progbits
 469              		.align	2
 470              		.p2align 4,,15
 471              		.global	VectorDC
 472              		.thumb
 473              		.thumb_func
 474              		.type	VectorDC, %function
 475              	VectorDC:
 476              	.LFB128:
 477              		.loc 1 296 0
 478              		.cfi_startproc
 479              		@ args = 0, pretend = 0, frame = 0
 480              		@ frame_needed = 0, uses_anonymous_args = 0
 481 0000 08B5     		push	{r3, lr}
 482              	.LCFI3:
 483              		.cfi_def_cfa_offset 8
 484              		.cfi_offset 3, -8
 485              		.cfi_offset 14, -4
 486              		.loc 1 298 0
 487 0002 FFF7FEFF 		bl	dbg_check_enter_isr
 488              	.LVL66:
 489              		.loc 1 300 0
 490 0006 40F20000 		movw	r0, #:lower16:.LANCHOR2
 491 000a C0F20000 		movt	r0, #:upper16:.LANCHOR2
 492 000e FFF7FEFF 		bl	serve_interrupt
 493              	.LVL67:
 494              		.loc 1 302 0
 495 0012 FFF7FEFF 		bl	dbg_check_leave_isr
 496              	.LVL68:
 497              		.loc 1 303 0
 498 0016 BDE80840 		pop	{r3, lr}
 499              		.loc 1 302 0
 500 001a FFF7FEBF 		b	_port_irq_epilogue
 501              	.LVL69:
 502              		.cfi_endproc
 503              	.LFE128:
 504              		.size	VectorDC, .-VectorDC
 505 001e 00BF     		.section	.text.Vector110,"ax",%progbits
 506              		.align	2
 507              		.p2align 4,,15
 508              		.global	Vector110
 509              		.thumb
 510              		.thumb_func
ARM GAS  C:\Users\TaisikHam\AppData\Local\Temp\ccO5hARh.s 			page 10


 511              		.type	Vector110, %function
 512              	Vector110:
 513              	.LFB129:
 514              		.loc 1 315 0
 515              		.cfi_startproc
 516              		@ args = 0, pretend = 0, frame = 0
 517              		@ frame_needed = 0, uses_anonymous_args = 0
 518 0000 08B5     		push	{r3, lr}
 519              	.LCFI4:
 520              		.cfi_def_cfa_offset 8
 521              		.cfi_offset 3, -8
 522              		.cfi_offset 14, -4
 523              		.loc 1 317 0
 524 0002 FFF7FEFF 		bl	dbg_check_enter_isr
 525              	.LVL70:
 526              		.loc 1 319 0
 527 0006 40F20000 		movw	r0, #:lower16:.LANCHOR3
 528 000a C0F20000 		movt	r0, #:upper16:.LANCHOR3
 529 000e FFF7FEFF 		bl	serve_interrupt
 530              	.LVL71:
 531              		.loc 1 321 0
 532 0012 FFF7FEFF 		bl	dbg_check_leave_isr
 533              	.LVL72:
 534              		.loc 1 322 0
 535 0016 BDE80840 		pop	{r3, lr}
 536              		.loc 1 321 0
 537 001a FFF7FEBF 		b	_port_irq_epilogue
 538              	.LVL73:
 539              		.cfi_endproc
 540              	.LFE129:
 541              		.size	Vector110, .-Vector110
 542 001e 00BF     		.section	.text.sd_lld_init,"ax",%progbits
 543              		.align	2
 544              		.p2align 4,,15
 545              		.global	sd_lld_init
 546              		.thumb
 547              		.thumb_func
 548              		.type	sd_lld_init, %function
 549              	sd_lld_init:
 550              	.LFB130:
 551              		.loc 1 372 0
 552              		.cfi_startproc
 553              		@ args = 0, pretend = 0, frame = 0
 554              		@ frame_needed = 0, uses_anonymous_args = 0
 555 0000 F8B5     		push	{r3, r4, r5, r6, r7, lr}
 556              	.LCFI5:
 557              		.cfi_def_cfa_offset 24
 558              		.cfi_offset 3, -24
 559              		.cfi_offset 4, -20
 560              		.cfi_offset 5, -16
 561              		.cfi_offset 6, -12
 562              		.cfi_offset 7, -8
 563              		.cfi_offset 14, -4
 564              		.loc 1 375 0
 565 0002 40F20004 		movw	r4, #:lower16:.LANCHOR0
 566 0006 C0F20004 		movt	r4, #:upper16:.LANCHOR0
 567 000a 40F20002 		movw	r2, #:lower16:notify1
ARM GAS  C:\Users\TaisikHam\AppData\Local\Temp\ccO5hARh.s 			page 11


 568 000e 2046     		mov	r0, r4
 569 0010 0021     		movs	r1, #0
 570 0012 C0F20002 		movt	r2, #:upper16:notify1
 571              		.loc 1 381 0
 572 0016 40F20007 		movw	r7, #:lower16:.LANCHOR1
 573              		.loc 1 375 0
 574 001a FFF7FEFF 		bl	sdObjectInit
 575              	.LVL74:
 576              		.loc 1 381 0
 577 001e C0F20007 		movt	r7, #:upper16:.LANCHOR1
 578              		.loc 1 376 0
 579 0022 4FF46053 		mov	r3, #14336
 580              		.loc 1 377 0
 581 0026 4FF4A245 		mov	r5, #20736
 582              		.loc 1 381 0
 583 002a 40F20002 		movw	r2, #:lower16:notify2
 584              		.loc 1 377 0
 585 002e C0F22525 		movt	r5, 549
 586              		.loc 1 376 0
 587 0032 C4F20103 		movt	r3, 16385
 588              		.loc 1 381 0
 589 0036 3846     		mov	r0, r7
 590 0038 0021     		movs	r1, #0
 591 003a C0F20002 		movt	r2, #:upper16:notify2
 592              		.loc 1 387 0
 593 003e 40F20006 		movw	r6, #:lower16:.LANCHOR2
 594 0042 C0F20006 		movt	r6, #:upper16:.LANCHOR2
 595              		.loc 1 376 0
 596 0046 6367     		str	r3, [r4, #116]
 597              		.loc 1 377 0
 598 0048 A567     		str	r5, [r4, #120]
 599              		.loc 1 381 0
 600 004a FFF7FEFF 		bl	sdObjectInit
 601              	.LVL75:
 602              		.loc 1 382 0
 603 004e 4FF48843 		mov	r3, #17408
 604              		.loc 1 387 0
 605 0052 40F20002 		movw	r2, #:lower16:notify3
 606              		.loc 1 382 0
 607 0056 C4F20003 		movt	r3, 16384
 608              		.loc 1 387 0
 609 005a 3046     		mov	r0, r6
 610 005c 0021     		movs	r1, #0
 611 005e C0F20002 		movt	r2, #:upper16:notify3
 612              		.loc 1 393 0
 613 0062 40F20004 		movw	r4, #:lower16:.LANCHOR3
 614 0066 C0F20004 		movt	r4, #:upper16:.LANCHOR3
 615              		.loc 1 382 0
 616 006a 7B67     		str	r3, [r7, #116]
 617              		.loc 1 383 0
 618 006c BD67     		str	r5, [r7, #120]
 619              		.loc 1 387 0
 620 006e FFF7FEFF 		bl	sdObjectInit
 621              	.LVL76:
 622              		.loc 1 388 0
 623 0072 4FF49043 		mov	r3, #18432
 624              		.loc 1 393 0
ARM GAS  C:\Users\TaisikHam\AppData\Local\Temp\ccO5hARh.s 			page 12


 625 0076 40F20002 		movw	r2, #:lower16:notify4
 626              		.loc 1 388 0
 627 007a C4F20003 		movt	r3, 16384
 628              		.loc 1 393 0
 629 007e 2046     		mov	r0, r4
 630 0080 0021     		movs	r1, #0
 631 0082 C0F20002 		movt	r2, #:upper16:notify4
 632              		.loc 1 388 0
 633 0086 7367     		str	r3, [r6, #116]
 634              		.loc 1 389 0
 635 0088 B567     		str	r5, [r6, #120]
 636              		.loc 1 393 0
 637 008a FFF7FEFF 		bl	sdObjectInit
 638              	.LVL77:
 639              		.loc 1 394 0
 640 008e 4FF49843 		mov	r3, #19456
 641 0092 C4F20003 		movt	r3, 16384
 642 0096 6367     		str	r3, [r4, #116]
 643              		.loc 1 395 0
 644 0098 A567     		str	r5, [r4, #120]
 645 009a F8BD     		pop	{r3, r4, r5, r6, r7, pc}
 646              		.cfi_endproc
 647              	.LFE130:
 648              		.size	sd_lld_init, .-sd_lld_init
 649              		.section	.text.sd_lld_start,"ax",%progbits
 650              		.align	2
 651              		.p2align 4,,15
 652              		.global	sd_lld_start
 653              		.thumb
 654              		.thumb_func
 655              		.type	sd_lld_start, %function
 656              	sd_lld_start:
 657              	.LFB131:
 658              		.loc 1 421 0
 659              		.cfi_startproc
 660              		@ args = 0, pretend = 0, frame = 0
 661              		@ frame_needed = 0, uses_anonymous_args = 0
 662              	.LVL78:
 663 0000 F8B5     		push	{r3, r4, r5, r6, r7, lr}
 664              	.LCFI6:
 665              		.cfi_def_cfa_offset 24
 666              		.cfi_offset 3, -24
 667              		.cfi_offset 4, -20
 668              		.cfi_offset 5, -16
 669              		.cfi_offset 6, -12
 670              		.cfi_offset 7, -8
 671              		.cfi_offset 14, -4
 672              		.loc 1 426 0
 673 0002 037A     		ldrb	r3, [r0, #8]	@ zero_extendqisi2
 674              		.loc 1 424 0
 675 0004 314D     		ldr	r5, .L69
 676 0006 0029     		cmp	r1, #0
 677 0008 18BF     		it	ne
 678 000a 0D46     		movne	r5, r1
 679              	.LVL79:
 680              		.loc 1 426 0
 681 000c 012B     		cmp	r3, #1
ARM GAS  C:\Users\TaisikHam\AppData\Local\Temp\ccO5hARh.s 			page 13


 682              		.loc 1 421 0
 683 000e 0446     		mov	r4, r0
 684              		.loc 1 426 0
 685 0010 1BD0     		beq	.L65
 686              	.LVL80:
 687              	.L59:
 688              	.LBB32:
 689              	.LBB33:
 690              		.loc 1 106 0
 691 0012 AA88     		ldrh	r2, [r5, #4]
 692              		.loc 1 100 0
 693 0014 A76F     		ldr	r7, [r4, #120]
 694 0016 2E68     		ldr	r6, [r5, #0]
 695              		.loc 1 103 0
 696 0018 E888     		ldrh	r0, [r5, #6]
 697              		.loc 1 104 0
 698 001a 2989     		ldrh	r1, [r5, #8]
 699              		.loc 1 97 0
 700 001c 636F     		ldr	r3, [r4, #116]
 701              	.LVL81:
 702              		.loc 1 106 0
 703 001e 42F49672 		orr	r2, r2, #300
 704              		.loc 1 100 0
 705 0022 B7FBF6F4 		udiv	r4, r7, r6
 706              	.LVL82:
 707              		.loc 1 103 0
 708 0026 40F04000 		orr	r0, r0, #64
 709              		.loc 1 104 0
 710 002a 41F00101 		orr	r1, r1, #1
 711              		.loc 1 106 0
 712 002e 42F00102 		orr	r2, r2, #1
 713 0032 92B2     		uxth	r2, r2
 714              		.loc 1 100 0
 715 0034 A4B2     		uxth	r4, r4
 716              		.loc 1 103 0
 717 0036 80B2     		uxth	r0, r0
 718              		.loc 1 104 0
 719 0038 89B2     		uxth	r1, r1
 720              		.loc 1 100 0
 721 003a 9C81     		strh	r4, [r3, #12]	@ movhi
 722              		.loc 1 103 0
 723 003c 5860     		str	r0, [r3, #4]
 724              		.loc 1 104 0
 725 003e 9960     		str	r1, [r3, #8]
 726              		.loc 1 105 0
 727 0040 1A60     		str	r2, [r3, #0]
 728              		.loc 1 108 0
 729 0042 4FF0FF32 		mov	r2, #-1
 730 0046 1A62     		str	r2, [r3, #32]
 731 0048 F8BD     		pop	{r3, r4, r5, r6, r7, pc}
 732              	.LVL83:
 733              	.L65:
 734              	.LBE33:
 735              	.LBE32:
 736              		.loc 1 428 0
 737 004a 214B     		ldr	r3, .L69+4
 738 004c 9842     		cmp	r0, r3
ARM GAS  C:\Users\TaisikHam\AppData\Local\Temp\ccO5hARh.s 			page 14


 739 004e 15D0     		beq	.L66
 740              		.loc 1 435 0
 741 0050 204B     		ldr	r3, .L69+8
 742 0052 9842     		cmp	r0, r3
 743 0054 1FD0     		beq	.L67
 744              		.loc 1 442 0
 745 0056 204B     		ldr	r3, .L69+12
 746 0058 9842     		cmp	r0, r3
 747 005a 29D0     		beq	.L68
 748              		.loc 1 449 0
 749 005c 1F4B     		ldr	r3, .L69+16
 750 005e 9842     		cmp	r0, r3
 751 0060 D7D1     		bne	.L59
 752              		.loc 1 450 0
 753 0062 4FF48053 		mov	r3, #4096
 754 0066 C4F20203 		movt	r3, 16386
 755              		.loc 1 451 0
 756 006a 3420     		movs	r0, #52
 757              	.LVL84:
 758              		.loc 1 450 0
 759 006c DA69     		ldr	r2, [r3, #28]
 760 006e 42F40022 		orr	r2, r2, #524288
 761 0072 DA61     		str	r2, [r3, #28]
 762              		.loc 1 451 0
 763 0074 C021     		movs	r1, #192
 764 0076 FFF7FEFF 		bl	nvicEnableVector
 765              	.LVL85:
 766 007a CAE7     		b	.L59
 767              	.LVL86:
 768              	.L66:
 769              		.loc 1 429 0
 770 007c 4FF48053 		mov	r3, #4096
 771 0080 C4F20203 		movt	r3, 16386
 772              		.loc 1 430 0
 773 0084 2520     		movs	r0, #37
 774              	.LVL87:
 775              		.loc 1 429 0
 776 0086 9A69     		ldr	r2, [r3, #24]
 777 0088 42F48042 		orr	r2, r2, #16384
 778 008c 9A61     		str	r2, [r3, #24]
 779              		.loc 1 430 0
 780 008e C021     		movs	r1, #192
 781 0090 FFF7FEFF 		bl	nvicEnableVector
 782              	.LVL88:
 783 0094 BDE7     		b	.L59
 784              	.LVL89:
 785              	.L67:
 786              		.loc 1 436 0
 787 0096 4FF48053 		mov	r3, #4096
 788 009a C4F20203 		movt	r3, 16386
 789              		.loc 1 437 0
 790 009e 2620     		movs	r0, #38
 791              	.LVL90:
 792              		.loc 1 436 0
 793 00a0 DA69     		ldr	r2, [r3, #28]
 794 00a2 42F40032 		orr	r2, r2, #131072
 795 00a6 DA61     		str	r2, [r3, #28]
ARM GAS  C:\Users\TaisikHam\AppData\Local\Temp\ccO5hARh.s 			page 15


 796              		.loc 1 437 0
 797 00a8 C021     		movs	r1, #192
 798 00aa FFF7FEFF 		bl	nvicEnableVector
 799              	.LVL91:
 800 00ae B0E7     		b	.L59
 801              	.LVL92:
 802              	.L68:
 803              		.loc 1 443 0
 804 00b0 4FF48053 		mov	r3, #4096
 805 00b4 C4F20203 		movt	r3, 16386
 806              		.loc 1 444 0
 807 00b8 2720     		movs	r0, #39
 808              	.LVL93:
 809              		.loc 1 443 0
 810 00ba DA69     		ldr	r2, [r3, #28]
 811 00bc 42F48022 		orr	r2, r2, #262144
 812 00c0 DA61     		str	r2, [r3, #28]
 813              		.loc 1 444 0
 814 00c2 C021     		movs	r1, #192
 815 00c4 FFF7FEFF 		bl	nvicEnableVector
 816              	.LVL94:
 817 00c8 A3E7     		b	.L59
 818              	.L70:
 819 00ca 00BF     		.align	2
 820              	.L69:
 821 00cc 00000000 		.word	.LANCHOR4
 822 00d0 00000000 		.word	.LANCHOR0
 823 00d4 00000000 		.word	.LANCHOR1
 824 00d8 00000000 		.word	.LANCHOR2
 825 00dc 00000000 		.word	.LANCHOR3
 826              		.cfi_endproc
 827              	.LFE131:
 828              		.size	sd_lld_start, .-sd_lld_start
 829              		.section	.text.sd_lld_stop,"ax",%progbits
 830              		.align	2
 831              		.p2align 4,,15
 832              		.global	sd_lld_stop
 833              		.thumb
 834              		.thumb_func
 835              		.type	sd_lld_stop, %function
 836              	sd_lld_stop:
 837              	.LFB132:
 838              		.loc 1 482 0
 839              		.cfi_startproc
 840              		@ args = 0, pretend = 0, frame = 0
 841              		@ frame_needed = 0, uses_anonymous_args = 0
 842              		@ link register save eliminated.
 843              	.LVL95:
 844              		.loc 1 484 0
 845 0000 037A     		ldrb	r3, [r0, #8]	@ zero_extendqisi2
 846 0002 022B     		cmp	r3, #2
 847 0004 00D0     		beq	.L78
 848              	.L71:
 849 0006 7047     		bx	lr
 850              	.L78:
 851              		.loc 1 485 0
 852 0008 436F     		ldr	r3, [r0, #116]
ARM GAS  C:\Users\TaisikHam\AppData\Local\Temp\ccO5hARh.s 			page 16


 853              	.LVL96:
 854              	.LBB34:
 855              	.LBB35:
 856              		.loc 1 119 0
 857 000a 0022     		movs	r2, #0
 858 000c 1A60     		str	r2, [r3, #0]
 859              		.loc 1 120 0
 860 000e 5A60     		str	r2, [r3, #4]
 861              		.loc 1 121 0
 862 0010 9A60     		str	r2, [r3, #8]
 863              	.LBE35:
 864              	.LBE34:
 865              		.loc 1 487 0
 866 0012 1C4B     		ldr	r3, .L82
 867              	.LVL97:
 868 0014 9842     		cmp	r0, r3
 869 0016 13D0     		beq	.L79
 870              		.loc 1 494 0
 871 0018 1B4B     		ldr	r3, .L82+4
 872 001a 9842     		cmp	r0, r3
 873 001c 1BD0     		beq	.L80
 874              		.loc 1 501 0
 875 001e 1B4B     		ldr	r3, .L82+8
 876 0020 9842     		cmp	r0, r3
 877 0022 23D0     		beq	.L81
 878              		.loc 1 508 0
 879 0024 1A4B     		ldr	r3, .L82+12
 880 0026 9842     		cmp	r0, r3
 881 0028 EDD1     		bne	.L71
 882              		.loc 1 509 0
 883 002a 4FF48053 		mov	r3, #4096
 884 002e C4F20203 		movt	r3, 16386
 885              		.loc 1 510 0
 886 0032 3420     		movs	r0, #52
 887              	.LVL98:
 888              		.loc 1 509 0
 889 0034 DA69     		ldr	r2, [r3, #28]
 890 0036 22F40022 		bic	r2, r2, #524288
 891 003a DA61     		str	r2, [r3, #28]
 892              		.loc 1 529 0
 893              		.loc 1 510 0
 894 003c FFF7FEBF 		b	nvicDisableVector
 895              	.LVL99:
 896              	.L79:
 897              		.loc 1 488 0
 898 0040 4FF48053 		mov	r3, #4096
 899 0044 C4F20203 		movt	r3, 16386
 900              		.loc 1 489 0
 901 0048 2520     		movs	r0, #37
 902              	.LVL100:
 903              		.loc 1 488 0
 904 004a 9A69     		ldr	r2, [r3, #24]
 905 004c 22F48042 		bic	r2, r2, #16384
 906 0050 9A61     		str	r2, [r3, #24]
 907              		.loc 1 529 0
 908              		.loc 1 489 0
 909 0052 FFF7FEBF 		b	nvicDisableVector
ARM GAS  C:\Users\TaisikHam\AppData\Local\Temp\ccO5hARh.s 			page 17


 910              	.LVL101:
 911              	.L80:
 912              		.loc 1 495 0
 913 0056 4FF48053 		mov	r3, #4096
 914 005a C4F20203 		movt	r3, 16386
 915              		.loc 1 496 0
 916 005e 2620     		movs	r0, #38
 917              	.LVL102:
 918              		.loc 1 495 0
 919 0060 DA69     		ldr	r2, [r3, #28]
 920 0062 22F40032 		bic	r2, r2, #131072
 921 0066 DA61     		str	r2, [r3, #28]
 922              		.loc 1 529 0
 923              		.loc 1 496 0
 924 0068 FFF7FEBF 		b	nvicDisableVector
 925              	.LVL103:
 926              	.L81:
 927              		.loc 1 502 0
 928 006c 4FF48053 		mov	r3, #4096
 929 0070 C4F20203 		movt	r3, 16386
 930              		.loc 1 503 0
 931 0074 2720     		movs	r0, #39
 932              	.LVL104:
 933              		.loc 1 502 0
 934 0076 DA69     		ldr	r2, [r3, #28]
 935 0078 22F48022 		bic	r2, r2, #262144
 936 007c DA61     		str	r2, [r3, #28]
 937              		.loc 1 529 0
 938              		.loc 1 503 0
 939 007e FFF7FEBF 		b	nvicDisableVector
 940              	.LVL105:
 941              	.L83:
 942 0082 00BF     		.align	2
 943              	.L82:
 944 0084 00000000 		.word	.LANCHOR0
 945 0088 00000000 		.word	.LANCHOR1
 946 008c 00000000 		.word	.LANCHOR2
 947 0090 00000000 		.word	.LANCHOR3
 948              		.cfi_endproc
 949              	.LFE132:
 950              		.size	sd_lld_stop, .-sd_lld_stop
 951              		.global	SD4
 952              		.global	SD3
 953              		.global	SD2
 954              		.global	SD1
 955 0094 AFF30080 		.section	.rodata.default_config,"a",%progbits
 955      AFF30080 
 955      AFF30080 
 956              		.align	2
 957              		.set	.LANCHOR4,. + 0
 958              		.type	default_config, %object
 959              		.size	default_config, 12
 960              	default_config:
 961 0000 00960000 		.word	38400
 962 0004 0000     		.short	0
 963 0006 0040     		.short	16384
 964 0008 0000     		.short	0
ARM GAS  C:\Users\TaisikHam\AppData\Local\Temp\ccO5hARh.s 			page 18


 965 000a 0000     		.space	2
 966              		.section	.bss.SD1,"aw",%nobits
 967              		.align	2
 968              		.set	.LANCHOR0,. + 0
 969              		.type	SD1, %object
 970              		.size	SD1, 124
 971              	SD1:
 972 0000 00000000 		.space	124
 972      00000000 
 972      00000000 
 972      00000000 
 972      00000000 
 973              		.section	.bss.SD2,"aw",%nobits
 974              		.align	2
 975              		.set	.LANCHOR1,. + 0
 976              		.type	SD2, %object
 977              		.size	SD2, 124
 978              	SD2:
 979 0000 00000000 		.space	124
 979      00000000 
 979      00000000 
 979      00000000 
 979      00000000 
 980              		.section	.bss.SD3,"aw",%nobits
 981              		.align	2
 982              		.set	.LANCHOR2,. + 0
 983              		.type	SD3, %object
 984              		.size	SD3, 124
 985              	SD3:
 986 0000 00000000 		.space	124
 986      00000000 
 986      00000000 
 986      00000000 
 986      00000000 
 987              		.section	.bss.SD4,"aw",%nobits
 988              		.align	2
 989              		.set	.LANCHOR3,. + 0
 990              		.type	SD4, %object
 991              		.size	SD4, 124
 992              	SD4:
 993 0000 00000000 		.space	124
 993      00000000 
 993      00000000 
 993      00000000 
 993      00000000 
 994              		.text
 995              	.Letext0:
 996              		.file 2 "c:\\develop\\genist\\chibistudio\\tools\\yagarto-tools\\yagarto-20121222\\bin\\../lib/gcc
 997              		.file 3 "c:/develop/genist/chibistudio/tools/yagarto-tools/yagarto-20121222/lib/gcc/../../arm-none
 998              		.file 4 "../../../os/ports/GCC/ARMCMx/chtypes.h"
 999              		.file 5 "../../../os/kernel/include/chlists.h"
 1000              		.file 6 "../../../os/kernel/include/chthreads.h"
 1001              		.file 7 "../../../os/ports/GCC/ARMCMx/chcore_v7m.h"
 1002              		.file 8 "../../../os/kernel/include/chmtx.h"
 1003              		.file 9 "../../../os/kernel/include/chevents.h"
 1004              		.file 10 "../../../os/kernel/include/chqueues.h"
 1005              		.file 11 "../../../os/hal/platforms/STM32F30x/stm32f30x.h"
ARM GAS  C:\Users\TaisikHam\AppData\Local\Temp\ccO5hARh.s 			page 19


 1006              		.file 12 "../../../os/hal/include/serial.h"
 1007              		.file 13 "../../../os/hal/platforms/STM32/USARTv2/serial_lld.h"
 1008              		.file 14 "../../../os/kernel/include/chdebug.h"
 1009              		.file 15 "../../../os/ports/common/ARMCMx/nvic.h"
 1010              		.file 16 "../../../os/ports/common/ARMCMx/CMSIS/include/core_cm4.h"
 1011              		.section	.debug_info,"",%progbits
 1012              	.Ldebug_info0:
 1013 0000 53120000 		.4byte	0x1253
 1014 0004 0200     		.2byte	0x2
 1015 0006 00000000 		.4byte	.Ldebug_abbrev0
 1016 000a 04       		.byte	0x4
 1017 000b 01       		.uleb128 0x1
 1018 000c 34030000 		.4byte	.LASF150
 1019 0010 01       		.byte	0x1
 1020 0011 78020000 		.4byte	.LASF151
 1021 0015 16010000 		.4byte	.LASF152
 1022 0019 00000000 		.4byte	.Ldebug_ranges0+0
 1023 001d 00000000 		.4byte	0
 1024 0021 00000000 		.4byte	0
 1025 0025 00000000 		.4byte	.Ldebug_line0
 1026 0029 02       		.uleb128 0x2
 1027 002a 04       		.byte	0x4
 1028 002b 05       		.byte	0x5
 1029 002c 696E7400 		.ascii	"int\000"
 1030 0030 03       		.uleb128 0x3
 1031 0031 11000000 		.4byte	.LASF2
 1032 0035 02       		.byte	0x2
 1033 0036 D5       		.byte	0xd5
 1034 0037 3B000000 		.4byte	0x3b
 1035 003b 04       		.uleb128 0x4
 1036 003c 04       		.byte	0x4
 1037 003d 07       		.byte	0x7
 1038 003e B8010000 		.4byte	.LASF0
 1039 0042 04       		.uleb128 0x4
 1040 0043 01       		.byte	0x1
 1041 0044 06       		.byte	0x6
 1042 0045 96000000 		.4byte	.LASF1
 1043 0049 03       		.uleb128 0x3
 1044 004a C4050000 		.4byte	.LASF3
 1045 004e 03       		.byte	0x3
 1046 004f 2A       		.byte	0x2a
 1047 0050 54000000 		.4byte	0x54
 1048 0054 04       		.uleb128 0x4
 1049 0055 01       		.byte	0x1
 1050 0056 08       		.byte	0x8
 1051 0057 D3030000 		.4byte	.LASF4
 1052 005b 04       		.uleb128 0x4
 1053 005c 02       		.byte	0x2
 1054 005d 05       		.byte	0x5
 1055 005e 15040000 		.4byte	.LASF5
 1056 0062 03       		.uleb128 0x3
 1057 0063 C5010000 		.4byte	.LASF6
 1058 0067 03       		.byte	0x3
 1059 0068 36       		.byte	0x36
 1060 0069 6D000000 		.4byte	0x6d
 1061 006d 04       		.uleb128 0x4
 1062 006e 02       		.byte	0x2
ARM GAS  C:\Users\TaisikHam\AppData\Local\Temp\ccO5hARh.s 			page 20


 1063 006f 07       		.byte	0x7
 1064 0070 07020000 		.4byte	.LASF7
 1065 0074 03       		.uleb128 0x3
 1066 0075 CB030000 		.4byte	.LASF8
 1067 0079 03       		.byte	0x3
 1068 007a 4F       		.byte	0x4f
 1069 007b 7F000000 		.4byte	0x7f
 1070 007f 04       		.uleb128 0x4
 1071 0080 04       		.byte	0x4
 1072 0081 05       		.byte	0x5
 1073 0082 E2000000 		.4byte	.LASF9
 1074 0086 03       		.uleb128 0x3
 1075 0087 86040000 		.4byte	.LASF10
 1076 008b 03       		.byte	0x3
 1077 008c 50       		.byte	0x50
 1078 008d 91000000 		.4byte	0x91
 1079 0091 04       		.uleb128 0x4
 1080 0092 04       		.byte	0x4
 1081 0093 07       		.byte	0x7
 1082 0094 B8040000 		.4byte	.LASF11
 1083 0098 04       		.uleb128 0x4
 1084 0099 08       		.byte	0x8
 1085 009a 05       		.byte	0x5
 1086 009b 88000000 		.4byte	.LASF12
 1087 009f 03       		.uleb128 0x3
 1088 00a0 1F000000 		.4byte	.LASF13
 1089 00a4 03       		.byte	0x3
 1090 00a5 78       		.byte	0x78
 1091 00a6 AA000000 		.4byte	0xaa
 1092 00aa 04       		.uleb128 0x4
 1093 00ab 08       		.byte	0x8
 1094 00ac 07       		.byte	0x7
 1095 00ad 3E000000 		.4byte	.LASF14
 1096 00b1 04       		.uleb128 0x4
 1097 00b2 01       		.byte	0x1
 1098 00b3 02       		.byte	0x2
 1099 00b4 C5030000 		.4byte	.LASF15
 1100 00b8 03       		.uleb128 0x3
 1101 00b9 4F020000 		.4byte	.LASF16
 1102 00bd 04       		.byte	0x4
 1103 00be 25       		.byte	0x25
 1104 00bf 49000000 		.4byte	0x49
 1105 00c3 03       		.uleb128 0x3
 1106 00c4 F4000000 		.4byte	.LASF17
 1107 00c8 04       		.byte	0x4
 1108 00c9 26       		.byte	0x26
 1109 00ca 49000000 		.4byte	0x49
 1110 00ce 03       		.uleb128 0x3
 1111 00cf 7E030000 		.4byte	.LASF18
 1112 00d3 04       		.byte	0x4
 1113 00d4 27       		.byte	0x27
 1114 00d5 49000000 		.4byte	0x49
 1115 00d9 03       		.uleb128 0x3
 1116 00da B7000000 		.4byte	.LASF19
 1117 00de 04       		.byte	0x4
 1118 00df 28       		.byte	0x28
 1119 00e0 49000000 		.4byte	0x49
ARM GAS  C:\Users\TaisikHam\AppData\Local\Temp\ccO5hARh.s 			page 21


 1120 00e4 03       		.uleb128 0x3
 1121 00e5 B5030000 		.4byte	.LASF20
 1122 00e9 04       		.byte	0x4
 1123 00ea 29       		.byte	0x29
 1124 00eb 86000000 		.4byte	0x86
 1125 00ef 03       		.uleb128 0x3
 1126 00f0 1A020000 		.4byte	.LASF21
 1127 00f4 04       		.byte	0x4
 1128 00f5 2A       		.byte	0x2a
 1129 00f6 74000000 		.4byte	0x74
 1130 00fa 03       		.uleb128 0x3
 1131 00fb 63020000 		.4byte	.LASF22
 1132 00ff 04       		.byte	0x4
 1133 0100 2C       		.byte	0x2c
 1134 0101 86000000 		.4byte	0x86
 1135 0105 03       		.uleb128 0x3
 1136 0106 6F050000 		.4byte	.LASF23
 1137 010a 04       		.byte	0x4
 1138 010b 2D       		.byte	0x2d
 1139 010c 86000000 		.4byte	0x86
 1140 0110 03       		.uleb128 0x3
 1141 0111 F2040000 		.4byte	.LASF24
 1142 0115 04       		.byte	0x4
 1143 0116 2E       		.byte	0x2e
 1144 0117 86000000 		.4byte	0x86
 1145 011b 03       		.uleb128 0x3
 1146 011c 50040000 		.4byte	.LASF25
 1147 0120 05       		.byte	0x5
 1148 0121 23       		.byte	0x23
 1149 0122 26010000 		.4byte	0x126
 1150 0126 05       		.uleb128 0x5
 1151 0127 50040000 		.4byte	.LASF25
 1152 012b 4C       		.byte	0x4c
 1153 012c 06       		.byte	0x6
 1154 012d 57       		.byte	0x57
 1155 012e 59020000 		.4byte	0x259
 1156 0132 06       		.uleb128 0x6
 1157 0133 10030000 		.4byte	.LASF26
 1158 0137 06       		.byte	0x6
 1159 0138 58       		.byte	0x58
 1160 0139 7E020000 		.4byte	0x27e
 1161 013d 02       		.byte	0x2
 1162 013e 23       		.byte	0x23
 1163 013f 00       		.uleb128 0
 1164 0140 06       		.uleb128 0x6
 1165 0141 AE030000 		.4byte	.LASF27
 1166 0145 06       		.byte	0x6
 1167 0146 5A       		.byte	0x5a
 1168 0147 7E020000 		.4byte	0x27e
 1169 014b 02       		.byte	0x2
 1170 014c 23       		.byte	0x23
 1171 014d 04       		.uleb128 0x4
 1172 014e 06       		.uleb128 0x6
 1173 014f EF050000 		.4byte	.LASF28
 1174 0153 06       		.byte	0x6
 1175 0154 5C       		.byte	0x5c
 1176 0155 E4000000 		.4byte	0xe4
ARM GAS  C:\Users\TaisikHam\AppData\Local\Temp\ccO5hARh.s 			page 22


 1177 0159 02       		.byte	0x2
 1178 015a 23       		.byte	0x23
 1179 015b 08       		.uleb128 0x8
 1180 015c 06       		.uleb128 0x6
 1181 015d 46060000 		.4byte	.LASF29
 1182 0161 06       		.byte	0x6
 1183 0162 5D       		.byte	0x5d
 1184 0163 57030000 		.4byte	0x357
 1185 0167 02       		.byte	0x2
 1186 0168 23       		.byte	0x23
 1187 0169 0C       		.uleb128 0xc
 1188 016a 06       		.uleb128 0x6
 1189 016b 88010000 		.4byte	.LASF30
 1190 016f 06       		.byte	0x6
 1191 0170 5F       		.byte	0x5f
 1192 0171 7E020000 		.4byte	0x27e
 1193 0175 02       		.byte	0x2
 1194 0176 23       		.byte	0x23
 1195 0177 10       		.uleb128 0x10
 1196 0178 06       		.uleb128 0x6
 1197 0179 17030000 		.4byte	.LASF31
 1198 017d 06       		.byte	0x6
 1199 017e 60       		.byte	0x60
 1200 017f 7E020000 		.4byte	0x27e
 1201 0183 02       		.byte	0x2
 1202 0184 23       		.byte	0x23
 1203 0185 14       		.uleb128 0x14
 1204 0186 06       		.uleb128 0x6
 1205 0187 81050000 		.4byte	.LASF32
 1206 018b 06       		.byte	0x6
 1207 018c 67       		.byte	0x67
 1208 018d 84040000 		.4byte	0x484
 1209 0191 02       		.byte	0x2
 1210 0192 23       		.byte	0x23
 1211 0193 18       		.uleb128 0x18
 1212 0194 06       		.uleb128 0x6
 1213 0195 07050000 		.4byte	.LASF33
 1214 0199 06       		.byte	0x6
 1215 019a 6D       		.byte	0x6d
 1216 019b 96040000 		.4byte	0x496
 1217 019f 02       		.byte	0x2
 1218 01a0 23       		.byte	0x23
 1219 01a1 1C       		.uleb128 0x1c
 1220 01a2 06       		.uleb128 0x6
 1221 01a3 03040000 		.4byte	.LASF34
 1222 01a7 06       		.byte	0x6
 1223 01a8 72       		.byte	0x72
 1224 01a9 C3000000 		.4byte	0xc3
 1225 01ad 02       		.byte	0x2
 1226 01ae 23       		.byte	0x23
 1227 01af 20       		.uleb128 0x20
 1228 01b0 06       		.uleb128 0x6
 1229 01b1 30040000 		.4byte	.LASF35
 1230 01b5 06       		.byte	0x6
 1231 01b6 76       		.byte	0x76
 1232 01b7 B8000000 		.4byte	0xb8
 1233 01bb 02       		.byte	0x2
ARM GAS  C:\Users\TaisikHam\AppData\Local\Temp\ccO5hARh.s 			page 23


 1234 01bc 23       		.byte	0x23
 1235 01bd 21       		.uleb128 0x21
 1236 01be 06       		.uleb128 0x6
 1237 01bf 06010000 		.4byte	.LASF36
 1238 01c3 06       		.byte	0x6
 1239 01c4 7B       		.byte	0x7b
 1240 01c5 CE000000 		.4byte	0xce
 1241 01c9 02       		.byte	0x2
 1242 01ca 23       		.byte	0x23
 1243 01cb 22       		.uleb128 0x22
 1244 01cc 06       		.uleb128 0x6
 1245 01cd 1F040000 		.4byte	.LASF37
 1246 01d1 06       		.byte	0x6
 1247 01d2 81       		.byte	0x81
 1248 01d3 D9000000 		.4byte	0xd9
 1249 01d7 02       		.byte	0x2
 1250 01d8 23       		.byte	0x23
 1251 01d9 23       		.uleb128 0x23
 1252 01da 06       		.uleb128 0x6
 1253 01db 63010000 		.4byte	.LASF38
 1254 01df 06       		.byte	0x6
 1255 01e0 88       		.byte	0x88
 1256 01e1 86030000 		.4byte	0x386
 1257 01e5 02       		.byte	0x2
 1258 01e6 23       		.byte	0x23
 1259 01e7 24       		.uleb128 0x24
 1260 01e8 07       		.uleb128 0x7
 1261 01e9 705F7500 		.ascii	"p_u\000"
 1262 01ed 06       		.byte	0x6
 1263 01ee AD       		.byte	0xad
 1264 01ef 4F040000 		.4byte	0x44f
 1265 01f3 02       		.byte	0x2
 1266 01f4 23       		.byte	0x23
 1267 01f5 28       		.uleb128 0x28
 1268 01f6 06       		.uleb128 0x6
 1269 01f7 4C060000 		.4byte	.LASF39
 1270 01fb 06       		.byte	0x6
 1271 01fc B2       		.byte	0xb2
 1272 01fd A6020000 		.4byte	0x2a6
 1273 0201 02       		.byte	0x2
 1274 0202 23       		.byte	0x23
 1275 0203 2C       		.uleb128 0x2c
 1276 0204 06       		.uleb128 0x6
 1277 0205 E5010000 		.4byte	.LASF40
 1278 0209 06       		.byte	0x6
 1279 020a B8       		.byte	0xb8
 1280 020b 84020000 		.4byte	0x284
 1281 020f 02       		.byte	0x2
 1282 0210 23       		.byte	0x23
 1283 0211 30       		.uleb128 0x30
 1284 0212 06       		.uleb128 0x6
 1285 0213 B2050000 		.4byte	.LASF41
 1286 0217 06       		.byte	0x6
 1287 0218 BC       		.byte	0xbc
 1288 0219 EF000000 		.4byte	0xef
 1289 021d 02       		.byte	0x2
 1290 021e 23       		.byte	0x23
ARM GAS  C:\Users\TaisikHam\AppData\Local\Temp\ccO5hARh.s 			page 24


 1291 021f 38       		.uleb128 0x38
 1292 0220 06       		.uleb128 0x6
 1293 0221 67040000 		.4byte	.LASF42
 1294 0225 06       		.byte	0x6
 1295 0226 C2       		.byte	0xc2
 1296 0227 FA000000 		.4byte	0xfa
 1297 022b 02       		.byte	0x2
 1298 022c 23       		.byte	0x23
 1299 022d 3C       		.uleb128 0x3c
 1300 022e 06       		.uleb128 0x6
 1301 022f 0B040000 		.4byte	.LASF43
 1302 0233 06       		.byte	0x6
 1303 0234 C9       		.byte	0xc9
 1304 0235 9C040000 		.4byte	0x49c
 1305 0239 02       		.byte	0x2
 1306 023a 23       		.byte	0x23
 1307 023b 40       		.uleb128 0x40
 1308 023c 06       		.uleb128 0x6
 1309 023d FC040000 		.4byte	.LASF44
 1310 0241 06       		.byte	0x6
 1311 0242 CD       		.byte	0xcd
 1312 0243 E4000000 		.4byte	0xe4
 1313 0247 02       		.byte	0x2
 1314 0248 23       		.byte	0x23
 1315 0249 44       		.uleb128 0x44
 1316 024a 06       		.uleb128 0x6
 1317 024b A7000000 		.4byte	.LASF45
 1318 024f 06       		.byte	0x6
 1319 0250 D3       		.byte	0xd3
 1320 0251 BC020000 		.4byte	0x2bc
 1321 0255 02       		.byte	0x2
 1322 0256 23       		.byte	0x23
 1323 0257 48       		.uleb128 0x48
 1324 0258 00       		.byte	0
 1325 0259 08       		.uleb128 0x8
 1326 025a 08       		.byte	0x8
 1327 025b 05       		.byte	0x5
 1328 025c 5A       		.byte	0x5a
 1329 025d 7E020000 		.4byte	0x27e
 1330 0261 06       		.uleb128 0x6
 1331 0262 10030000 		.4byte	.LASF26
 1332 0266 05       		.byte	0x5
 1333 0267 5B       		.byte	0x5b
 1334 0268 7E020000 		.4byte	0x27e
 1335 026c 02       		.byte	0x2
 1336 026d 23       		.byte	0x23
 1337 026e 00       		.uleb128 0
 1338 026f 06       		.uleb128 0x6
 1339 0270 AE030000 		.4byte	.LASF27
 1340 0274 05       		.byte	0x5
 1341 0275 5D       		.byte	0x5d
 1342 0276 7E020000 		.4byte	0x27e
 1343 027a 02       		.byte	0x2
 1344 027b 23       		.byte	0x23
 1345 027c 04       		.uleb128 0x4
 1346 027d 00       		.byte	0
 1347 027e 09       		.uleb128 0x9
ARM GAS  C:\Users\TaisikHam\AppData\Local\Temp\ccO5hARh.s 			page 25


 1348 027f 04       		.byte	0x4
 1349 0280 1B010000 		.4byte	0x11b
 1350 0284 03       		.uleb128 0x3
 1351 0285 1F030000 		.4byte	.LASF46
 1352 0289 05       		.byte	0x5
 1353 028a 5F       		.byte	0x5f
 1354 028b 59020000 		.4byte	0x259
 1355 028f 08       		.uleb128 0x8
 1356 0290 04       		.byte	0x4
 1357 0291 05       		.byte	0x5
 1358 0292 64       		.byte	0x64
 1359 0293 A6020000 		.4byte	0x2a6
 1360 0297 06       		.uleb128 0x6
 1361 0298 10030000 		.4byte	.LASF26
 1362 029c 05       		.byte	0x5
 1363 029d 66       		.byte	0x66
 1364 029e 7E020000 		.4byte	0x27e
 1365 02a2 02       		.byte	0x2
 1366 02a3 23       		.byte	0x23
 1367 02a4 00       		.uleb128 0
 1368 02a5 00       		.byte	0
 1369 02a6 03       		.uleb128 0x3
 1370 02a7 57020000 		.4byte	.LASF47
 1371 02ab 05       		.byte	0x5
 1372 02ac 69       		.byte	0x69
 1373 02ad 8F020000 		.4byte	0x28f
 1374 02b1 03       		.uleb128 0x3
 1375 02b2 90010000 		.4byte	.LASF48
 1376 02b6 07       		.byte	0x7
 1377 02b7 DE       		.byte	0xde
 1378 02b8 BC020000 		.4byte	0x2bc
 1379 02bc 0A       		.uleb128 0xa
 1380 02bd 04       		.byte	0x4
 1381 02be 03       		.uleb128 0x3
 1382 02bf CD020000 		.4byte	.LASF49
 1383 02c3 07       		.byte	0x7
 1384 02c4 E4       		.byte	0xe4
 1385 02c5 9F000000 		.4byte	0x9f
 1386 02c9 0B       		.uleb128 0xb
 1387 02ca 5F050000 		.4byte	.LASF50
 1388 02ce 24       		.byte	0x24
 1389 02cf 07       		.byte	0x7
 1390 02d0 0501     		.2byte	0x105
 1391 02d2 57030000 		.4byte	0x357
 1392 02d6 0C       		.uleb128 0xc
 1393 02d7 723400   		.ascii	"r4\000"
 1394 02da 07       		.byte	0x7
 1395 02db 1801     		.2byte	0x118
 1396 02dd B1020000 		.4byte	0x2b1
 1397 02e1 02       		.byte	0x2
 1398 02e2 23       		.byte	0x23
 1399 02e3 00       		.uleb128 0
 1400 02e4 0C       		.uleb128 0xc
 1401 02e5 723500   		.ascii	"r5\000"
 1402 02e8 07       		.byte	0x7
 1403 02e9 1901     		.2byte	0x119
 1404 02eb B1020000 		.4byte	0x2b1
ARM GAS  C:\Users\TaisikHam\AppData\Local\Temp\ccO5hARh.s 			page 26


 1405 02ef 02       		.byte	0x2
 1406 02f0 23       		.byte	0x23
 1407 02f1 04       		.uleb128 0x4
 1408 02f2 0C       		.uleb128 0xc
 1409 02f3 723600   		.ascii	"r6\000"
 1410 02f6 07       		.byte	0x7
 1411 02f7 1A01     		.2byte	0x11a
 1412 02f9 B1020000 		.4byte	0x2b1
 1413 02fd 02       		.byte	0x2
 1414 02fe 23       		.byte	0x23
 1415 02ff 08       		.uleb128 0x8
 1416 0300 0C       		.uleb128 0xc
 1417 0301 723700   		.ascii	"r7\000"
 1418 0304 07       		.byte	0x7
 1419 0305 1B01     		.2byte	0x11b
 1420 0307 B1020000 		.4byte	0x2b1
 1421 030b 02       		.byte	0x2
 1422 030c 23       		.byte	0x23
 1423 030d 0C       		.uleb128 0xc
 1424 030e 0C       		.uleb128 0xc
 1425 030f 723800   		.ascii	"r8\000"
 1426 0312 07       		.byte	0x7
 1427 0313 1C01     		.2byte	0x11c
 1428 0315 B1020000 		.4byte	0x2b1
 1429 0319 02       		.byte	0x2
 1430 031a 23       		.byte	0x23
 1431 031b 10       		.uleb128 0x10
 1432 031c 0C       		.uleb128 0xc
 1433 031d 723900   		.ascii	"r9\000"
 1434 0320 07       		.byte	0x7
 1435 0321 1D01     		.2byte	0x11d
 1436 0323 B1020000 		.4byte	0x2b1
 1437 0327 02       		.byte	0x2
 1438 0328 23       		.byte	0x23
 1439 0329 14       		.uleb128 0x14
 1440 032a 0C       		.uleb128 0xc
 1441 032b 72313000 		.ascii	"r10\000"
 1442 032f 07       		.byte	0x7
 1443 0330 1E01     		.2byte	0x11e
 1444 0332 B1020000 		.4byte	0x2b1
 1445 0336 02       		.byte	0x2
 1446 0337 23       		.byte	0x23
 1447 0338 18       		.uleb128 0x18
 1448 0339 0C       		.uleb128 0xc
 1449 033a 72313100 		.ascii	"r11\000"
 1450 033e 07       		.byte	0x7
 1451 033f 1F01     		.2byte	0x11f
 1452 0341 B1020000 		.4byte	0x2b1
 1453 0345 02       		.byte	0x2
 1454 0346 23       		.byte	0x23
 1455 0347 1C       		.uleb128 0x1c
 1456 0348 0C       		.uleb128 0xc
 1457 0349 6C7200   		.ascii	"lr\000"
 1458 034c 07       		.byte	0x7
 1459 034d 2001     		.2byte	0x120
 1460 034f B1020000 		.4byte	0x2b1
 1461 0353 02       		.byte	0x2
ARM GAS  C:\Users\TaisikHam\AppData\Local\Temp\ccO5hARh.s 			page 27


 1462 0354 23       		.byte	0x23
 1463 0355 20       		.uleb128 0x20
 1464 0356 00       		.byte	0
 1465 0357 0B       		.uleb128 0xb
 1466 0358 29050000 		.4byte	.LASF51
 1467 035c 04       		.byte	0x4
 1468 035d 07       		.byte	0x7
 1469 035e 2A01     		.2byte	0x12a
 1470 0360 74030000 		.4byte	0x374
 1471 0364 0C       		.uleb128 0xc
 1472 0365 72313300 		.ascii	"r13\000"
 1473 0369 07       		.byte	0x7
 1474 036a 2B01     		.2byte	0x12b
 1475 036c 74030000 		.4byte	0x374
 1476 0370 02       		.byte	0x2
 1477 0371 23       		.byte	0x23
 1478 0372 00       		.uleb128 0
 1479 0373 00       		.byte	0
 1480 0374 09       		.uleb128 0x9
 1481 0375 04       		.byte	0x4
 1482 0376 C9020000 		.4byte	0x2c9
 1483 037a 0D       		.uleb128 0xd
 1484 037b 86000000 		.4byte	0x86
 1485 037f 04       		.uleb128 0x4
 1486 0380 04       		.byte	0x4
 1487 0381 07       		.byte	0x7
 1488 0382 F7020000 		.4byte	.LASF52
 1489 0386 0D       		.uleb128 0xd
 1490 0387 10010000 		.4byte	0x110
 1491 038b 05       		.uleb128 0x5
 1492 038c 0A030000 		.4byte	.LASF53
 1493 0390 10       		.byte	0x10
 1494 0391 08       		.byte	0x8
 1495 0392 25       		.byte	0x25
 1496 0393 C2030000 		.4byte	0x3c2
 1497 0397 06       		.uleb128 0x6
 1498 0398 AF000000 		.4byte	.LASF54
 1499 039c 08       		.byte	0x8
 1500 039d 26       		.byte	0x26
 1501 039e 84020000 		.4byte	0x284
 1502 03a2 02       		.byte	0x2
 1503 03a3 23       		.byte	0x23
 1504 03a4 00       		.uleb128 0
 1505 03a5 06       		.uleb128 0x6
 1506 03a6 3E060000 		.4byte	.LASF55
 1507 03aa 08       		.byte	0x8
 1508 03ab 28       		.byte	0x28
 1509 03ac 7E020000 		.4byte	0x27e
 1510 03b0 02       		.byte	0x2
 1511 03b1 23       		.byte	0x23
 1512 03b2 08       		.uleb128 0x8
 1513 03b3 06       		.uleb128 0x6
 1514 03b4 EB040000 		.4byte	.LASF56
 1515 03b8 08       		.byte	0x8
 1516 03b9 2A       		.byte	0x2a
 1517 03ba C2030000 		.4byte	0x3c2
 1518 03be 02       		.byte	0x2
ARM GAS  C:\Users\TaisikHam\AppData\Local\Temp\ccO5hARh.s 			page 28


 1519 03bf 23       		.byte	0x23
 1520 03c0 0C       		.uleb128 0xc
 1521 03c1 00       		.byte	0
 1522 03c2 09       		.uleb128 0x9
 1523 03c3 04       		.byte	0x4
 1524 03c4 8B030000 		.4byte	0x38b
 1525 03c8 03       		.uleb128 0x3
 1526 03c9 0A030000 		.4byte	.LASF53
 1527 03cd 08       		.byte	0x8
 1528 03ce 2C       		.byte	0x2c
 1529 03cf 8B030000 		.4byte	0x38b
 1530 03d3 03       		.uleb128 0x3
 1531 03d4 F6050000 		.4byte	.LASF57
 1532 03d8 09       		.byte	0x9
 1533 03d9 25       		.byte	0x25
 1534 03da DE030000 		.4byte	0x3de
 1535 03de 05       		.uleb128 0x5
 1536 03df F6050000 		.4byte	.LASF57
 1537 03e3 10       		.byte	0x10
 1538 03e4 09       		.byte	0x9
 1539 03e5 2A       		.byte	0x2a
 1540 03e6 23040000 		.4byte	0x423
 1541 03ea 06       		.uleb128 0x6
 1542 03eb 38040000 		.4byte	.LASF58
 1543 03ef 09       		.byte	0x9
 1544 03f0 2B       		.byte	0x2b
 1545 03f1 23040000 		.4byte	0x423
 1546 03f5 02       		.byte	0x2
 1547 03f6 23       		.byte	0x23
 1548 03f7 00       		.uleb128 0
 1549 03f8 06       		.uleb128 0x6
 1550 03f9 EE030000 		.4byte	.LASF59
 1551 03fd 09       		.byte	0x9
 1552 03fe 2E       		.byte	0x2e
 1553 03ff 7E020000 		.4byte	0x27e
 1554 0403 02       		.byte	0x2
 1555 0404 23       		.byte	0x23
 1556 0405 04       		.uleb128 0x4
 1557 0406 06       		.uleb128 0x6
 1558 0407 49030000 		.4byte	.LASF60
 1559 040b 09       		.byte	0x9
 1560 040c 30       		.byte	0x30
 1561 040d FA000000 		.4byte	0xfa
 1562 0411 02       		.byte	0x2
 1563 0412 23       		.byte	0x23
 1564 0413 08       		.uleb128 0x8
 1565 0414 06       		.uleb128 0x6
 1566 0415 FA030000 		.4byte	.LASF61
 1567 0419 09       		.byte	0x9
 1568 041a 33       		.byte	0x33
 1569 041b 05010000 		.4byte	0x105
 1570 041f 02       		.byte	0x2
 1571 0420 23       		.byte	0x23
 1572 0421 0C       		.uleb128 0xc
 1573 0422 00       		.byte	0
 1574 0423 09       		.uleb128 0x9
 1575 0424 04       		.byte	0x4
ARM GAS  C:\Users\TaisikHam\AppData\Local\Temp\ccO5hARh.s 			page 29


 1576 0425 D3030000 		.4byte	0x3d3
 1577 0429 05       		.uleb128 0x5
 1578 042a A6010000 		.4byte	.LASF62
 1579 042e 04       		.byte	0x4
 1580 042f 09       		.byte	0x9
 1581 0430 3A       		.byte	0x3a
 1582 0431 44040000 		.4byte	0x444
 1583 0435 06       		.uleb128 0x6
 1584 0436 88050000 		.4byte	.LASF63
 1585 043a 09       		.byte	0x9
 1586 043b 3B       		.byte	0x3b
 1587 043c 23040000 		.4byte	0x423
 1588 0440 02       		.byte	0x2
 1589 0441 23       		.byte	0x23
 1590 0442 00       		.uleb128 0
 1591 0443 00       		.byte	0
 1592 0444 03       		.uleb128 0x3
 1593 0445 A6010000 		.4byte	.LASF62
 1594 0449 09       		.byte	0x9
 1595 044a 3E       		.byte	0x3e
 1596 044b 29040000 		.4byte	0x429
 1597 044f 0E       		.uleb128 0xe
 1598 0450 04       		.byte	0x4
 1599 0451 06       		.byte	0x6
 1600 0452 8F       		.byte	0x8f
 1601 0453 84040000 		.4byte	0x484
 1602 0457 0F       		.uleb128 0xf
 1603 0458 18000000 		.4byte	.LASF64
 1604 045c 06       		.byte	0x6
 1605 045d 96       		.byte	0x96
 1606 045e EF000000 		.4byte	0xef
 1607 0462 0F       		.uleb128 0xf
 1608 0463 55000000 		.4byte	.LASF65
 1609 0467 06       		.byte	0x6
 1610 0468 9D       		.byte	0x9d
 1611 0469 EF000000 		.4byte	0xef
 1612 046d 0F       		.uleb128 0xf
 1613 046e 04060000 		.4byte	.LASF66
 1614 0472 06       		.byte	0x6
 1615 0473 A4       		.byte	0xa4
 1616 0474 BC020000 		.4byte	0x2bc
 1617 0478 0F       		.uleb128 0xf
 1618 0479 29040000 		.4byte	.LASF67
 1619 047d 06       		.byte	0x6
 1620 047e AB       		.byte	0xab
 1621 047f FA000000 		.4byte	0xfa
 1622 0483 00       		.byte	0
 1623 0484 09       		.uleb128 0x9
 1624 0485 04       		.byte	0x4
 1625 0486 8A040000 		.4byte	0x48a
 1626 048a 10       		.uleb128 0x10
 1627 048b 8F040000 		.4byte	0x48f
 1628 048f 04       		.uleb128 0x4
 1629 0490 01       		.byte	0x1
 1630 0491 08       		.byte	0x8
 1631 0492 CF040000 		.4byte	.LASF68
 1632 0496 09       		.uleb128 0x9
ARM GAS  C:\Users\TaisikHam\AppData\Local\Temp\ccO5hARh.s 			page 30


 1633 0497 04       		.byte	0x4
 1634 0498 BE020000 		.4byte	0x2be
 1635 049c 09       		.uleb128 0x9
 1636 049d 04       		.byte	0x4
 1637 049e C8030000 		.4byte	0x3c8
 1638 04a2 09       		.uleb128 0x9
 1639 04a3 04       		.byte	0x4
 1640 04a4 A8040000 		.4byte	0x4a8
 1641 04a8 11       		.uleb128 0x11
 1642 04a9 01       		.byte	0x1
 1643 04aa EF000000 		.4byte	0xef
 1644 04ae B8040000 		.4byte	0x4b8
 1645 04b2 12       		.uleb128 0x12
 1646 04b3 BC020000 		.4byte	0x2bc
 1647 04b7 00       		.byte	0
 1648 04b8 03       		.uleb128 0x3
 1649 04b9 C0020000 		.4byte	.LASF69
 1650 04bd 0A       		.byte	0xa
 1651 04be 30       		.byte	0x30
 1652 04bf C3040000 		.4byte	0x4c3
 1653 04c3 05       		.uleb128 0x5
 1654 04c4 C0020000 		.4byte	.LASF69
 1655 04c8 24       		.byte	0x24
 1656 04c9 0A       		.byte	0xa
 1657 04ca 3E       		.byte	0x3e
 1658 04cb 40050000 		.4byte	0x540
 1659 04cf 06       		.uleb128 0x6
 1660 04d0 7E000000 		.4byte	.LASF70
 1661 04d4 0A       		.byte	0xa
 1662 04d5 3F       		.byte	0x3f
 1663 04d6 84020000 		.4byte	0x284
 1664 04da 02       		.byte	0x2
 1665 04db 23       		.byte	0x23
 1666 04dc 00       		.uleb128 0
 1667 04dd 06       		.uleb128 0x6
 1668 04de 00030000 		.4byte	.LASF71
 1669 04e2 0A       		.byte	0xa
 1670 04e3 40       		.byte	0x40
 1671 04e4 30000000 		.4byte	0x30
 1672 04e8 02       		.byte	0x2
 1673 04e9 23       		.byte	0x23
 1674 04ea 08       		.uleb128 0x8
 1675 04eb 06       		.uleb128 0x6
 1676 04ec 0D010000 		.4byte	.LASF72
 1677 04f0 0A       		.byte	0xa
 1678 04f1 41       		.byte	0x41
 1679 04f2 63050000 		.4byte	0x563
 1680 04f6 02       		.byte	0x2
 1681 04f7 23       		.byte	0x23
 1682 04f8 0C       		.uleb128 0xc
 1683 04f9 06       		.uleb128 0x6
 1684 04fa 7B050000 		.4byte	.LASF73
 1685 04fe 0A       		.byte	0xa
 1686 04ff 42       		.byte	0x42
 1687 0500 63050000 		.4byte	0x563
 1688 0504 02       		.byte	0x2
 1689 0505 23       		.byte	0x23
ARM GAS  C:\Users\TaisikHam\AppData\Local\Temp\ccO5hARh.s 			page 31


 1690 0506 10       		.uleb128 0x10
 1691 0507 06       		.uleb128 0x6
 1692 0508 5B010000 		.4byte	.LASF74
 1693 050c 0A       		.byte	0xa
 1694 050d 44       		.byte	0x44
 1695 050e 63050000 		.4byte	0x563
 1696 0512 02       		.byte	0x2
 1697 0513 23       		.byte	0x23
 1698 0514 14       		.uleb128 0x14
 1699 0515 06       		.uleb128 0x6
 1700 0516 BD030000 		.4byte	.LASF75
 1701 051a 0A       		.byte	0xa
 1702 051b 45       		.byte	0x45
 1703 051c 63050000 		.4byte	0x563
 1704 0520 02       		.byte	0x2
 1705 0521 23       		.byte	0x23
 1706 0522 18       		.uleb128 0x18
 1707 0523 06       		.uleb128 0x6
 1708 0524 95050000 		.4byte	.LASF76
 1709 0528 0A       		.byte	0xa
 1710 0529 46       		.byte	0x46
 1711 052a 40050000 		.4byte	0x540
 1712 052e 02       		.byte	0x2
 1713 052f 23       		.byte	0x23
 1714 0530 1C       		.uleb128 0x1c
 1715 0531 06       		.uleb128 0x6
 1716 0532 37060000 		.4byte	.LASF77
 1717 0536 0A       		.byte	0xa
 1718 0537 47       		.byte	0x47
 1719 0538 BC020000 		.4byte	0x2bc
 1720 053c 02       		.byte	0x2
 1721 053d 23       		.byte	0x23
 1722 053e 20       		.uleb128 0x20
 1723 053f 00       		.byte	0
 1724 0540 03       		.uleb128 0x3
 1725 0541 B6020000 		.4byte	.LASF78
 1726 0545 0A       		.byte	0xa
 1727 0546 33       		.byte	0x33
 1728 0547 4B050000 		.4byte	0x54b
 1729 054b 09       		.uleb128 0x9
 1730 054c 04       		.byte	0x4
 1731 054d 51050000 		.4byte	0x551
 1732 0551 13       		.uleb128 0x13
 1733 0552 01       		.byte	0x1
 1734 0553 5D050000 		.4byte	0x55d
 1735 0557 12       		.uleb128 0x12
 1736 0558 5D050000 		.4byte	0x55d
 1737 055c 00       		.byte	0
 1738 055d 09       		.uleb128 0x9
 1739 055e 04       		.byte	0x4
 1740 055f B8040000 		.4byte	0x4b8
 1741 0563 09       		.uleb128 0x9
 1742 0564 04       		.byte	0x4
 1743 0565 49000000 		.4byte	0x49
 1744 0569 03       		.uleb128 0x3
 1745 056a CC050000 		.4byte	.LASF79
 1746 056e 0A       		.byte	0xa
ARM GAS  C:\Users\TaisikHam\AppData\Local\Temp\ccO5hARh.s 			page 32


 1747 056f 7B       		.byte	0x7b
 1748 0570 B8040000 		.4byte	0x4b8
 1749 0574 03       		.uleb128 0x3
 1750 0575 28000000 		.4byte	.LASF80
 1751 0579 0A       		.byte	0xa
 1752 057a EE       		.byte	0xee
 1753 057b B8040000 		.4byte	0x4b8
 1754 057f 11       		.uleb128 0x11
 1755 0580 01       		.byte	0x1
 1756 0581 30000000 		.4byte	0x30
 1757 0585 99050000 		.4byte	0x599
 1758 0589 12       		.uleb128 0x12
 1759 058a BC020000 		.4byte	0x2bc
 1760 058e 12       		.uleb128 0x12
 1761 058f 99050000 		.4byte	0x599
 1762 0593 12       		.uleb128 0x12
 1763 0594 30000000 		.4byte	0x30
 1764 0598 00       		.byte	0
 1765 0599 09       		.uleb128 0x9
 1766 059a 04       		.byte	0x4
 1767 059b 9F050000 		.4byte	0x59f
 1768 059f 10       		.uleb128 0x10
 1769 05a0 49000000 		.4byte	0x49
 1770 05a4 09       		.uleb128 0x9
 1771 05a5 04       		.byte	0x4
 1772 05a6 7F050000 		.4byte	0x57f
 1773 05aa 11       		.uleb128 0x11
 1774 05ab 01       		.byte	0x1
 1775 05ac 30000000 		.4byte	0x30
 1776 05b0 C4050000 		.4byte	0x5c4
 1777 05b4 12       		.uleb128 0x12
 1778 05b5 BC020000 		.4byte	0x2bc
 1779 05b9 12       		.uleb128 0x12
 1780 05ba 63050000 		.4byte	0x563
 1781 05be 12       		.uleb128 0x12
 1782 05bf 30000000 		.4byte	0x30
 1783 05c3 00       		.byte	0
 1784 05c4 09       		.uleb128 0x9
 1785 05c5 04       		.byte	0x4
 1786 05c6 AA050000 		.4byte	0x5aa
 1787 05ca 11       		.uleb128 0x11
 1788 05cb 01       		.byte	0x1
 1789 05cc EF000000 		.4byte	0xef
 1790 05d0 DF050000 		.4byte	0x5df
 1791 05d4 12       		.uleb128 0x12
 1792 05d5 BC020000 		.4byte	0x2bc
 1793 05d9 12       		.uleb128 0x12
 1794 05da 49000000 		.4byte	0x49
 1795 05de 00       		.byte	0
 1796 05df 09       		.uleb128 0x9
 1797 05e0 04       		.byte	0x4
 1798 05e1 CA050000 		.4byte	0x5ca
 1799 05e5 0D       		.uleb128 0xd
 1800 05e6 62000000 		.4byte	0x62
 1801 05ea 0D       		.uleb128 0xd
 1802 05eb 74000000 		.4byte	0x74
 1803 05ef 14       		.uleb128 0x14
ARM GAS  C:\Users\TaisikHam\AppData\Local\Temp\ccO5hARh.s 			page 33


 1804 05f0 34       		.byte	0x34
 1805 05f1 0B       		.byte	0xb
 1806 05f2 9B02     		.2byte	0x29b
 1807 05f4 BB060000 		.4byte	0x6bb
 1808 05f8 0C       		.uleb128 0xc
 1809 05f9 435200   		.ascii	"CR\000"
 1810 05fc 0B       		.byte	0xb
 1811 05fd 9D02     		.2byte	0x29d
 1812 05ff 7A030000 		.4byte	0x37a
 1813 0603 02       		.byte	0x2
 1814 0604 23       		.byte	0x23
 1815 0605 00       		.uleb128 0
 1816 0606 15       		.uleb128 0x15
 1817 0607 17060000 		.4byte	.LASF81
 1818 060b 0B       		.byte	0xb
 1819 060c 9E02     		.2byte	0x29e
 1820 060e 7A030000 		.4byte	0x37a
 1821 0612 02       		.byte	0x2
 1822 0613 23       		.byte	0x23
 1823 0614 04       		.uleb128 0x4
 1824 0615 0C       		.uleb128 0xc
 1825 0616 43495200 		.ascii	"CIR\000"
 1826 061a 0B       		.byte	0xb
 1827 061b 9F02     		.2byte	0x29f
 1828 061d 7A030000 		.4byte	0x37a
 1829 0621 02       		.byte	0x2
 1830 0622 23       		.byte	0x23
 1831 0623 08       		.uleb128 0x8
 1832 0624 15       		.uleb128 0x15
 1833 0625 EB000000 		.4byte	.LASF82
 1834 0629 0B       		.byte	0xb
 1835 062a A002     		.2byte	0x2a0
 1836 062c 7A030000 		.4byte	0x37a
 1837 0630 02       		.byte	0x2
 1838 0631 23       		.byte	0x23
 1839 0632 0C       		.uleb128 0xc
 1840 0633 15       		.uleb128 0x15
 1841 0634 40030000 		.4byte	.LASF83
 1842 0638 0B       		.byte	0xb
 1843 0639 A102     		.2byte	0x2a1
 1844 063b 7A030000 		.4byte	0x37a
 1845 063f 02       		.byte	0x2
 1846 0640 23       		.byte	0x23
 1847 0641 10       		.uleb128 0x10
 1848 0642 15       		.uleb128 0x15
 1849 0643 56060000 		.4byte	.LASF84
 1850 0647 0B       		.byte	0xb
 1851 0648 A202     		.2byte	0x2a2
 1852 064a 7A030000 		.4byte	0x37a
 1853 064e 02       		.byte	0x2
 1854 064f 23       		.byte	0x23
 1855 0650 14       		.uleb128 0x14
 1856 0651 15       		.uleb128 0x15
 1857 0652 48040000 		.4byte	.LASF85
 1858 0656 0B       		.byte	0xb
 1859 0657 A302     		.2byte	0x2a3
 1860 0659 7A030000 		.4byte	0x37a
ARM GAS  C:\Users\TaisikHam\AppData\Local\Temp\ccO5hARh.s 			page 34


 1861 065d 02       		.byte	0x2
 1862 065e 23       		.byte	0x23
 1863 065f 18       		.uleb128 0x18
 1864 0660 15       		.uleb128 0x15
 1865 0661 21050000 		.4byte	.LASF86
 1866 0665 0B       		.byte	0xb
 1867 0666 A402     		.2byte	0x2a4
 1868 0668 7A030000 		.4byte	0x37a
 1869 066c 02       		.byte	0x2
 1870 066d 23       		.byte	0x23
 1871 066e 1C       		.uleb128 0x1c
 1872 066f 15       		.uleb128 0x15
 1873 0670 90050000 		.4byte	.LASF87
 1874 0674 0B       		.byte	0xb
 1875 0675 A502     		.2byte	0x2a5
 1876 0677 7A030000 		.4byte	0x37a
 1877 067b 02       		.byte	0x2
 1878 067c 23       		.byte	0x23
 1879 067d 20       		.uleb128 0x20
 1880 067e 0C       		.uleb128 0xc
 1881 067f 43535200 		.ascii	"CSR\000"
 1882 0683 0B       		.byte	0xb
 1883 0684 A602     		.2byte	0x2a6
 1884 0686 7A030000 		.4byte	0x37a
 1885 068a 02       		.byte	0x2
 1886 068b 23       		.byte	0x23
 1887 068c 24       		.uleb128 0x24
 1888 068d 15       		.uleb128 0x15
 1889 068e 2C030000 		.4byte	.LASF88
 1890 0692 0B       		.byte	0xb
 1891 0693 A702     		.2byte	0x2a7
 1892 0695 7A030000 		.4byte	0x37a
 1893 0699 02       		.byte	0x2
 1894 069a 23       		.byte	0x23
 1895 069b 28       		.uleb128 0x28
 1896 069c 15       		.uleb128 0x15
 1897 069d B8050000 		.4byte	.LASF89
 1898 06a1 0B       		.byte	0xb
 1899 06a2 A802     		.2byte	0x2a8
 1900 06a4 7A030000 		.4byte	0x37a
 1901 06a8 02       		.byte	0x2
 1902 06a9 23       		.byte	0x23
 1903 06aa 2C       		.uleb128 0x2c
 1904 06ab 15       		.uleb128 0x15
 1905 06ac BE050000 		.4byte	.LASF90
 1906 06b0 0B       		.byte	0xb
 1907 06b1 A902     		.2byte	0x2a9
 1908 06b3 7A030000 		.4byte	0x37a
 1909 06b7 02       		.byte	0x2
 1910 06b8 23       		.byte	0x23
 1911 06b9 30       		.uleb128 0x30
 1912 06ba 00       		.byte	0
 1913 06bb 16       		.uleb128 0x16
 1914 06bc C1000000 		.4byte	.LASF91
 1915 06c0 0B       		.byte	0xb
 1916 06c1 AA02     		.2byte	0x2aa
 1917 06c3 EF050000 		.4byte	0x5ef
ARM GAS  C:\Users\TaisikHam\AppData\Local\Temp\ccO5hARh.s 			page 35


 1918 06c7 14       		.uleb128 0x14
 1919 06c8 2C       		.byte	0x2c
 1920 06c9 0B       		.byte	0xb
 1921 06ca 3103     		.2byte	0x331
 1922 06cc C1070000 		.4byte	0x7c1
 1923 06d0 0C       		.uleb128 0xc
 1924 06d1 43523100 		.ascii	"CR1\000"
 1925 06d5 0B       		.byte	0xb
 1926 06d6 3303     		.2byte	0x333
 1927 06d8 7A030000 		.4byte	0x37a
 1928 06dc 02       		.byte	0x2
 1929 06dd 23       		.byte	0x23
 1930 06de 00       		.uleb128 0
 1931 06df 0C       		.uleb128 0xc
 1932 06e0 43523200 		.ascii	"CR2\000"
 1933 06e4 0B       		.byte	0xb
 1934 06e5 3403     		.2byte	0x334
 1935 06e7 7A030000 		.4byte	0x37a
 1936 06eb 02       		.byte	0x2
 1937 06ec 23       		.byte	0x23
 1938 06ed 04       		.uleb128 0x4
 1939 06ee 0C       		.uleb128 0xc
 1940 06ef 43523300 		.ascii	"CR3\000"
 1941 06f3 0B       		.byte	0xb
 1942 06f4 3503     		.2byte	0x335
 1943 06f6 7A030000 		.4byte	0x37a
 1944 06fa 02       		.byte	0x2
 1945 06fb 23       		.byte	0x23
 1946 06fc 08       		.uleb128 0x8
 1947 06fd 0C       		.uleb128 0xc
 1948 06fe 42525200 		.ascii	"BRR\000"
 1949 0702 0B       		.byte	0xb
 1950 0703 3603     		.2byte	0x336
 1951 0705 E5050000 		.4byte	0x5e5
 1952 0709 02       		.byte	0x2
 1953 070a 23       		.byte	0x23
 1954 070b 0C       		.uleb128 0xc
 1955 070c 15       		.uleb128 0x15
 1956 070d 86030000 		.4byte	.LASF92
 1957 0711 0B       		.byte	0xb
 1958 0712 3703     		.2byte	0x337
 1959 0714 62000000 		.4byte	0x62
 1960 0718 02       		.byte	0x2
 1961 0719 23       		.byte	0x23
 1962 071a 0E       		.uleb128 0xe
 1963 071b 15       		.uleb128 0x15
 1964 071c A2000000 		.4byte	.LASF93
 1965 0720 0B       		.byte	0xb
 1966 0721 3803     		.2byte	0x338
 1967 0723 E5050000 		.4byte	0x5e5
 1968 0727 02       		.byte	0x2
 1969 0728 23       		.byte	0x23
 1970 0729 10       		.uleb128 0x10
 1971 072a 15       		.uleb128 0x15
 1972 072b 90030000 		.4byte	.LASF94
 1973 072f 0B       		.byte	0xb
 1974 0730 3903     		.2byte	0x339
ARM GAS  C:\Users\TaisikHam\AppData\Local\Temp\ccO5hARh.s 			page 36


 1975 0732 62000000 		.4byte	0x62
 1976 0736 02       		.byte	0x2
 1977 0737 23       		.byte	0x23
 1978 0738 12       		.uleb128 0x12
 1979 0739 15       		.uleb128 0x15
 1980 073a 1C050000 		.4byte	.LASF95
 1981 073e 0B       		.byte	0xb
 1982 073f 3A03     		.2byte	0x33a
 1983 0741 7A030000 		.4byte	0x37a
 1984 0745 02       		.byte	0x2
 1985 0746 23       		.byte	0x23
 1986 0747 14       		.uleb128 0x14
 1987 0748 0C       		.uleb128 0xc
 1988 0749 52515200 		.ascii	"RQR\000"
 1989 074d 0B       		.byte	0xb
 1990 074e 3B03     		.2byte	0x33b
 1991 0750 E5050000 		.4byte	0x5e5
 1992 0754 02       		.byte	0x2
 1993 0755 23       		.byte	0x23
 1994 0756 18       		.uleb128 0x18
 1995 0757 15       		.uleb128 0x15
 1996 0758 9A030000 		.4byte	.LASF96
 1997 075c 0B       		.byte	0xb
 1998 075d 3C03     		.2byte	0x33c
 1999 075f 62000000 		.4byte	0x62
 2000 0763 02       		.byte	0x2
 2001 0764 23       		.byte	0x23
 2002 0765 1A       		.uleb128 0x1a
 2003 0766 0C       		.uleb128 0xc
 2004 0767 49535200 		.ascii	"ISR\000"
 2005 076b 0B       		.byte	0xb
 2006 076c 3D03     		.2byte	0x33d
 2007 076e 7A030000 		.4byte	0x37a
 2008 0772 02       		.byte	0x2
 2009 0773 23       		.byte	0x23
 2010 0774 1C       		.uleb128 0x1c
 2011 0775 0C       		.uleb128 0xc
 2012 0776 49435200 		.ascii	"ICR\000"
 2013 077a 0B       		.byte	0xb
 2014 077b 3E03     		.2byte	0x33e
 2015 077d 7A030000 		.4byte	0x37a
 2016 0781 02       		.byte	0x2
 2017 0782 23       		.byte	0x23
 2018 0783 20       		.uleb128 0x20
 2019 0784 0C       		.uleb128 0xc
 2020 0785 52445200 		.ascii	"RDR\000"
 2021 0789 0B       		.byte	0xb
 2022 078a 3F03     		.2byte	0x33f
 2023 078c E5050000 		.4byte	0x5e5
 2024 0790 02       		.byte	0x2
 2025 0791 23       		.byte	0x23
 2026 0792 24       		.uleb128 0x24
 2027 0793 15       		.uleb128 0x15
 2028 0794 A4030000 		.4byte	.LASF97
 2029 0798 0B       		.byte	0xb
 2030 0799 4003     		.2byte	0x340
 2031 079b 62000000 		.4byte	0x62
ARM GAS  C:\Users\TaisikHam\AppData\Local\Temp\ccO5hARh.s 			page 37


 2032 079f 02       		.byte	0x2
 2033 07a0 23       		.byte	0x23
 2034 07a1 26       		.uleb128 0x26
 2035 07a2 0C       		.uleb128 0xc
 2036 07a3 54445200 		.ascii	"TDR\000"
 2037 07a7 0B       		.byte	0xb
 2038 07a8 4103     		.2byte	0x341
 2039 07aa E5050000 		.4byte	0x5e5
 2040 07ae 02       		.byte	0x2
 2041 07af 23       		.byte	0x23
 2042 07b0 28       		.uleb128 0x28
 2043 07b1 15       		.uleb128 0x15
 2044 07b2 7C040000 		.4byte	.LASF98
 2045 07b6 0B       		.byte	0xb
 2046 07b7 4203     		.2byte	0x342
 2047 07b9 62000000 		.4byte	0x62
 2048 07bd 02       		.byte	0x2
 2049 07be 23       		.byte	0x23
 2050 07bf 2A       		.uleb128 0x2a
 2051 07c0 00       		.byte	0
 2052 07c1 16       		.uleb128 0x16
 2053 07c2 3A020000 		.4byte	.LASF99
 2054 07c6 0B       		.byte	0xb
 2055 07c7 4303     		.2byte	0x343
 2056 07c9 C7060000 		.4byte	0x6c7
 2057 07cd 11       		.uleb128 0x11
 2058 07ce 01       		.byte	0x1
 2059 07cf EF000000 		.4byte	0xef
 2060 07d3 E7070000 		.4byte	0x7e7
 2061 07d7 12       		.uleb128 0x12
 2062 07d8 BC020000 		.4byte	0x2bc
 2063 07dc 12       		.uleb128 0x12
 2064 07dd 49000000 		.4byte	0x49
 2065 07e1 12       		.uleb128 0x12
 2066 07e2 10010000 		.4byte	0x110
 2067 07e6 00       		.byte	0
 2068 07e7 09       		.uleb128 0x9
 2069 07e8 04       		.byte	0x4
 2070 07e9 CD070000 		.4byte	0x7cd
 2071 07ed 11       		.uleb128 0x11
 2072 07ee 01       		.byte	0x1
 2073 07ef EF000000 		.4byte	0xef
 2074 07f3 02080000 		.4byte	0x802
 2075 07f7 12       		.uleb128 0x12
 2076 07f8 BC020000 		.4byte	0x2bc
 2077 07fc 12       		.uleb128 0x12
 2078 07fd 10010000 		.4byte	0x110
 2079 0801 00       		.byte	0
 2080 0802 09       		.uleb128 0x9
 2081 0803 04       		.byte	0x4
 2082 0804 ED070000 		.4byte	0x7ed
 2083 0808 11       		.uleb128 0x11
 2084 0809 01       		.byte	0x1
 2085 080a 30000000 		.4byte	0x30
 2086 080e 27080000 		.4byte	0x827
 2087 0812 12       		.uleb128 0x12
 2088 0813 BC020000 		.4byte	0x2bc
ARM GAS  C:\Users\TaisikHam\AppData\Local\Temp\ccO5hARh.s 			page 38


 2089 0817 12       		.uleb128 0x12
 2090 0818 99050000 		.4byte	0x599
 2091 081c 12       		.uleb128 0x12
 2092 081d 30000000 		.4byte	0x30
 2093 0821 12       		.uleb128 0x12
 2094 0822 10010000 		.4byte	0x110
 2095 0826 00       		.byte	0
 2096 0827 09       		.uleb128 0x9
 2097 0828 04       		.byte	0x4
 2098 0829 08080000 		.4byte	0x808
 2099 082d 11       		.uleb128 0x11
 2100 082e 01       		.byte	0x1
 2101 082f 30000000 		.4byte	0x30
 2102 0833 4C080000 		.4byte	0x84c
 2103 0837 12       		.uleb128 0x12
 2104 0838 BC020000 		.4byte	0x2bc
 2105 083c 12       		.uleb128 0x12
 2106 083d 63050000 		.4byte	0x563
 2107 0841 12       		.uleb128 0x12
 2108 0842 30000000 		.4byte	0x30
 2109 0846 12       		.uleb128 0x12
 2110 0847 10010000 		.4byte	0x110
 2111 084b 00       		.byte	0
 2112 084c 09       		.uleb128 0x9
 2113 084d 04       		.byte	0x4
 2114 084e 2D080000 		.4byte	0x82d
 2115 0852 17       		.uleb128 0x17
 2116 0853 01       		.byte	0x1
 2117 0854 0C       		.byte	0xc
 2118 0855 5D       		.byte	0x5d
 2119 0856 6D080000 		.4byte	0x86d
 2120 085a 18       		.uleb128 0x18
 2121 085b 72040000 		.4byte	.LASF100
 2122 085f 00       		.sleb128 0
 2123 0860 18       		.uleb128 0x18
 2124 0861 40040000 		.4byte	.LASF101
 2125 0865 01       		.sleb128 1
 2126 0866 18       		.uleb128 0x18
 2127 0867 66050000 		.4byte	.LASF102
 2128 086b 02       		.sleb128 2
 2129 086c 00       		.byte	0
 2130 086d 03       		.uleb128 0x3
 2131 086e 8F040000 		.4byte	.LASF103
 2132 0872 0C       		.byte	0xc
 2133 0873 61       		.byte	0x61
 2134 0874 52080000 		.4byte	0x852
 2135 0878 03       		.uleb128 0x3
 2136 0879 99040000 		.4byte	.LASF104
 2137 087d 0C       		.byte	0xc
 2138 087e 66       		.byte	0x66
 2139 087f 83080000 		.4byte	0x883
 2140 0883 05       		.uleb128 0x5
 2141 0884 99040000 		.4byte	.LASF104
 2142 0888 7C       		.byte	0x7c
 2143 0889 0C       		.byte	0xc
 2144 088a 80       		.byte	0x80
 2145 088b 0C090000 		.4byte	0x90c
ARM GAS  C:\Users\TaisikHam\AppData\Local\Temp\ccO5hARh.s 			page 39


 2146 088f 07       		.uleb128 0x7
 2147 0890 766D7400 		.ascii	"vmt\000"
 2148 0894 0C       		.byte	0xc
 2149 0895 82       		.byte	0x82
 2150 0896 D5090000 		.4byte	0x9d5
 2151 089a 02       		.byte	0x2
 2152 089b 23       		.byte	0x23
 2153 089c 00       		.uleb128 0
 2154 089d 06       		.uleb128 0x6
 2155 089e 01020000 		.4byte	.LASF105
 2156 08a2 0C       		.byte	0xc
 2157 08a3 83       		.byte	0x83
 2158 08a4 44040000 		.4byte	0x444
 2159 08a8 02       		.byte	0x2
 2160 08a9 23       		.byte	0x23
 2161 08aa 04       		.uleb128 0x4
 2162 08ab 06       		.uleb128 0x6
 2163 08ac DC000000 		.4byte	.LASF106
 2164 08b0 0C       		.byte	0xc
 2165 08b1 83       		.byte	0x83
 2166 08b2 6D080000 		.4byte	0x86d
 2167 08b6 02       		.byte	0x2
 2168 08b7 23       		.byte	0x23
 2169 08b8 08       		.uleb128 0x8
 2170 08b9 06       		.uleb128 0x6
 2171 08ba DE010000 		.4byte	.LASF107
 2172 08be 0C       		.byte	0xc
 2173 08bf 83       		.byte	0x83
 2174 08c0 69050000 		.4byte	0x569
 2175 08c4 02       		.byte	0x2
 2176 08c5 23       		.byte	0x23
 2177 08c6 0C       		.uleb128 0xc
 2178 08c7 06       		.uleb128 0x6
 2179 08c8 20020000 		.4byte	.LASF108
 2180 08cc 0C       		.byte	0xc
 2181 08cd 83       		.byte	0x83
 2182 08ce 74050000 		.4byte	0x574
 2183 08d2 02       		.byte	0x2
 2184 08d3 23       		.byte	0x23
 2185 08d4 30       		.uleb128 0x30
 2186 08d5 07       		.uleb128 0x7
 2187 08d6 696200   		.ascii	"ib\000"
 2188 08d9 0C       		.byte	0xc
 2189 08da 83       		.byte	0x83
 2190 08db E0090000 		.4byte	0x9e0
 2191 08df 02       		.byte	0x2
 2192 08e0 23       		.byte	0x23
 2193 08e1 54       		.uleb128 0x54
 2194 08e2 07       		.uleb128 0x7
 2195 08e3 6F6200   		.ascii	"ob\000"
 2196 08e6 0C       		.byte	0xc
 2197 08e7 83       		.byte	0x83
 2198 08e8 E0090000 		.4byte	0x9e0
 2199 08ec 02       		.byte	0x2
 2200 08ed 23       		.byte	0x23
 2201 08ee 64       		.uleb128 0x64
 2202 08ef 06       		.uleb128 0x6
ARM GAS  C:\Users\TaisikHam\AppData\Local\Temp\ccO5hARh.s 			page 40


 2203 08f0 B2010000 		.4byte	.LASF109
 2204 08f4 0C       		.byte	0xc
 2205 08f5 83       		.byte	0x83
 2206 08f6 F0090000 		.4byte	0x9f0
 2207 08fa 02       		.byte	0x2
 2208 08fb 23       		.byte	0x23
 2209 08fc 74       		.uleb128 0x74
 2210 08fd 06       		.uleb128 0x6
 2211 08fe 1C060000 		.4byte	.LASF110
 2212 0902 0C       		.byte	0xc
 2213 0903 83       		.byte	0x83
 2214 0904 86000000 		.4byte	0x86
 2215 0908 02       		.byte	0x2
 2216 0909 23       		.byte	0x23
 2217 090a 78       		.uleb128 0x78
 2218 090b 00       		.byte	0
 2219 090c 08       		.uleb128 0x8
 2220 090d 0C       		.byte	0xc
 2221 090e 0D       		.byte	0xd
 2222 090f DB       		.byte	0xdb
 2223 0910 4D090000 		.4byte	0x94d
 2224 0914 06       		.uleb128 0x6
 2225 0915 7F010000 		.4byte	.LASF111
 2226 0919 0D       		.byte	0xd
 2227 091a DF       		.byte	0xdf
 2228 091b 86000000 		.4byte	0x86
 2229 091f 02       		.byte	0x2
 2230 0920 23       		.byte	0x23
 2231 0921 00       		.uleb128 0
 2232 0922 06       		.uleb128 0x6
 2233 0923 22060000 		.4byte	.LASF112
 2234 0927 0D       		.byte	0xd
 2235 0928 E4       		.byte	0xe4
 2236 0929 62000000 		.4byte	0x62
 2237 092d 02       		.byte	0x2
 2238 092e 23       		.byte	0x23
 2239 092f 04       		.uleb128 0x4
 2240 0930 06       		.uleb128 0x6
 2241 0931 29060000 		.4byte	.LASF113
 2242 0935 0D       		.byte	0xd
 2243 0936 E8       		.byte	0xe8
 2244 0937 62000000 		.4byte	0x62
 2245 093b 02       		.byte	0x2
 2246 093c 23       		.byte	0x23
 2247 093d 06       		.uleb128 0x6
 2248 093e 06       		.uleb128 0x6
 2249 093f 30060000 		.4byte	.LASF114
 2250 0943 0D       		.byte	0xd
 2251 0944 EC       		.byte	0xec
 2252 0945 62000000 		.4byte	0x62
 2253 0949 02       		.byte	0x2
 2254 094a 23       		.byte	0x23
 2255 094b 08       		.uleb128 0x8
 2256 094c 00       		.byte	0
 2257 094d 03       		.uleb128 0x3
 2258 094e 51030000 		.4byte	.LASF115
 2259 0952 0D       		.byte	0xd
ARM GAS  C:\Users\TaisikHam\AppData\Local\Temp\ccO5hARh.s 			page 41


 2260 0953 ED       		.byte	0xed
 2261 0954 0C090000 		.4byte	0x90c
 2262 0958 05       		.uleb128 0x5
 2263 0959 CE010000 		.4byte	.LASF116
 2264 095d 20       		.byte	0x20
 2265 095e 0C       		.byte	0xc
 2266 095f 75       		.byte	0x75
 2267 0960 D5090000 		.4byte	0x9d5
 2268 0964 06       		.uleb128 0x6
 2269 0965 E1020000 		.4byte	.LASF117
 2270 0969 0C       		.byte	0xc
 2271 096a 76       		.byte	0x76
 2272 096b A4050000 		.4byte	0x5a4
 2273 096f 02       		.byte	0x2
 2274 0970 23       		.byte	0x23
 2275 0971 00       		.uleb128 0
 2276 0972 06       		.uleb128 0x6
 2277 0973 CA040000 		.4byte	.LASF118
 2278 0977 0C       		.byte	0xc
 2279 0978 76       		.byte	0x76
 2280 0979 C4050000 		.4byte	0x5c4
 2281 097d 02       		.byte	0x2
 2282 097e 23       		.byte	0x23
 2283 097f 04       		.uleb128 0x4
 2284 0980 07       		.uleb128 0x7
 2285 0981 70757400 		.ascii	"put\000"
 2286 0985 0C       		.byte	0xc
 2287 0986 76       		.byte	0x76
 2288 0987 DF050000 		.4byte	0x5df
 2289 098b 02       		.byte	0x2
 2290 098c 23       		.byte	0x23
 2291 098d 08       		.uleb128 0x8
 2292 098e 07       		.uleb128 0x7
 2293 098f 67657400 		.ascii	"get\000"
 2294 0993 0C       		.byte	0xc
 2295 0994 76       		.byte	0x76
 2296 0995 A2040000 		.4byte	0x4a2
 2297 0999 02       		.byte	0x2
 2298 099a 23       		.byte	0x23
 2299 099b 0C       		.uleb128 0xc
 2300 099c 06       		.uleb128 0x6
 2301 099d E7020000 		.4byte	.LASF119
 2302 09a1 0C       		.byte	0xc
 2303 09a2 76       		.byte	0x76
 2304 09a3 E7070000 		.4byte	0x7e7
 2305 09a7 02       		.byte	0x2
 2306 09a8 23       		.byte	0x23
 2307 09a9 10       		.uleb128 0x10
 2308 09aa 06       		.uleb128 0x6
 2309 09ab FC010000 		.4byte	.LASF120
 2310 09af 0C       		.byte	0xc
 2311 09b0 76       		.byte	0x76
 2312 09b1 02080000 		.4byte	0x802
 2313 09b5 02       		.byte	0x2
 2314 09b6 23       		.byte	0x23
 2315 09b7 14       		.uleb128 0x14
 2316 09b8 06       		.uleb128 0x6
ARM GAS  C:\Users\TaisikHam\AppData\Local\Temp\ccO5hARh.s 			page 42


 2317 09b9 48020000 		.4byte	.LASF121
 2318 09bd 0C       		.byte	0xc
 2319 09be 76       		.byte	0x76
 2320 09bf 27080000 		.4byte	0x827
 2321 09c3 02       		.byte	0x2
 2322 09c4 23       		.byte	0x23
 2323 09c5 18       		.uleb128 0x18
 2324 09c6 06       		.uleb128 0x6
 2325 09c7 78000000 		.4byte	.LASF122
 2326 09cb 0C       		.byte	0xc
 2327 09cc 76       		.byte	0x76
 2328 09cd 4C080000 		.4byte	0x84c
 2329 09d1 02       		.byte	0x2
 2330 09d2 23       		.byte	0x23
 2331 09d3 1C       		.uleb128 0x1c
 2332 09d4 00       		.byte	0
 2333 09d5 09       		.uleb128 0x9
 2334 09d6 04       		.byte	0x4
 2335 09d7 DB090000 		.4byte	0x9db
 2336 09db 10       		.uleb128 0x10
 2337 09dc 58090000 		.4byte	0x958
 2338 09e0 19       		.uleb128 0x19
 2339 09e1 49000000 		.4byte	0x49
 2340 09e5 F0090000 		.4byte	0x9f0
 2341 09e9 1A       		.uleb128 0x1a
 2342 09ea 7F030000 		.4byte	0x37f
 2343 09ee 0F       		.byte	0xf
 2344 09ef 00       		.byte	0
 2345 09f0 09       		.uleb128 0x9
 2346 09f1 04       		.byte	0x4
 2347 09f2 C1070000 		.4byte	0x7c1
 2348 09f6 1B       		.uleb128 0x1b
 2349 09f7 EC020000 		.4byte	.LASF124
 2350 09fb 01       		.byte	0x1
 2351 09fc 60       		.byte	0x60
 2352 09fd 01       		.byte	0x1
 2353 09fe 01       		.byte	0x1
 2354 09ff 230A0000 		.4byte	0xa23
 2355 0a03 1C       		.uleb128 0x1c
 2356 0a04 73647000 		.ascii	"sdp\000"
 2357 0a08 01       		.byte	0x1
 2358 0a09 60       		.byte	0x60
 2359 0a0a 230A0000 		.4byte	0xa23
 2360 0a0e 1D       		.uleb128 0x1d
 2361 0a0f E4040000 		.4byte	.LASF123
 2362 0a13 01       		.byte	0x1
 2363 0a14 60       		.byte	0x60
 2364 0a15 290A0000 		.4byte	0xa29
 2365 0a19 1E       		.uleb128 0x1e
 2366 0a1a 7500     		.ascii	"u\000"
 2367 0a1c 01       		.byte	0x1
 2368 0a1d 61       		.byte	0x61
 2369 0a1e F0090000 		.4byte	0x9f0
 2370 0a22 00       		.byte	0
 2371 0a23 09       		.uleb128 0x9
 2372 0a24 04       		.byte	0x4
 2373 0a25 78080000 		.4byte	0x878
ARM GAS  C:\Users\TaisikHam\AppData\Local\Temp\ccO5hARh.s 			page 43


 2374 0a29 09       		.uleb128 0x9
 2375 0a2a 04       		.byte	0x4
 2376 0a2b 2F0A0000 		.4byte	0xa2f
 2377 0a2f 10       		.uleb128 0x10
 2378 0a30 4D090000 		.4byte	0x94d
 2379 0a34 1B       		.uleb128 0x1b
 2380 0a35 99010000 		.4byte	.LASF125
 2381 0a39 01       		.byte	0x1
 2382 0a3a 75       		.byte	0x75
 2383 0a3b 01       		.byte	0x1
 2384 0a3c 01       		.byte	0x1
 2385 0a3d 4B0A0000 		.4byte	0xa4b
 2386 0a41 1C       		.uleb128 0x1c
 2387 0a42 7500     		.ascii	"u\000"
 2388 0a44 01       		.byte	0x1
 2389 0a45 75       		.byte	0x75
 2390 0a46 F0090000 		.4byte	0x9f0
 2391 0a4a 00       		.byte	0
 2392 0a4b 1F       		.uleb128 0x1f
 2393 0a4c 5E030000 		.4byte	.LASF126
 2394 0a50 01       		.byte	0x1
 2395 0a51 C6       		.byte	0xc6
 2396 0a52 01       		.byte	0x1
 2397 0a53 00000000 		.4byte	.LFB122
 2398 0a57 12000000 		.4byte	.LFE122
 2399 0a5b 02       		.byte	0x2
 2400 0a5c 7D       		.byte	0x7d
 2401 0a5d 00       		.sleb128 0
 2402 0a5e 01       		.byte	0x1
 2403 0a5f 700A0000 		.4byte	0xa70
 2404 0a63 20       		.uleb128 0x20
 2405 0a64 717000   		.ascii	"qp\000"
 2406 0a67 01       		.byte	0x1
 2407 0a68 C6       		.byte	0xc6
 2408 0a69 5D050000 		.4byte	0x55d
 2409 0a6d 01       		.byte	0x1
 2410 0a6e 50       		.byte	0x50
 2411 0a6f 00       		.byte	0
 2412 0a70 1F       		.uleb128 0x1f
 2413 0a71 66030000 		.4byte	.LASF127
 2414 0a75 01       		.byte	0x1
 2415 0a76 CE       		.byte	0xce
 2416 0a77 01       		.byte	0x1
 2417 0a78 00000000 		.4byte	.LFB123
 2418 0a7c 12000000 		.4byte	.LFE123
 2419 0a80 02       		.byte	0x2
 2420 0a81 7D       		.byte	0x7d
 2421 0a82 00       		.sleb128 0
 2422 0a83 01       		.byte	0x1
 2423 0a84 950A0000 		.4byte	0xa95
 2424 0a88 20       		.uleb128 0x20
 2425 0a89 717000   		.ascii	"qp\000"
 2426 0a8c 01       		.byte	0x1
 2427 0a8d CE       		.byte	0xce
 2428 0a8e 5D050000 		.4byte	0x55d
 2429 0a92 01       		.byte	0x1
 2430 0a93 50       		.byte	0x50
ARM GAS  C:\Users\TaisikHam\AppData\Local\Temp\ccO5hARh.s 			page 44


 2431 0a94 00       		.byte	0
 2432 0a95 1F       		.uleb128 0x1f
 2433 0a96 6E030000 		.4byte	.LASF128
 2434 0a9a 01       		.byte	0x1
 2435 0a9b D6       		.byte	0xd6
 2436 0a9c 01       		.byte	0x1
 2437 0a9d 00000000 		.4byte	.LFB124
 2438 0aa1 12000000 		.4byte	.LFE124
 2439 0aa5 02       		.byte	0x2
 2440 0aa6 7D       		.byte	0x7d
 2441 0aa7 00       		.sleb128 0
 2442 0aa8 01       		.byte	0x1
 2443 0aa9 BA0A0000 		.4byte	0xaba
 2444 0aad 20       		.uleb128 0x20
 2445 0aae 717000   		.ascii	"qp\000"
 2446 0ab1 01       		.byte	0x1
 2447 0ab2 D6       		.byte	0xd6
 2448 0ab3 5D050000 		.4byte	0x55d
 2449 0ab7 01       		.byte	0x1
 2450 0ab8 50       		.byte	0x50
 2451 0ab9 00       		.byte	0
 2452 0aba 1F       		.uleb128 0x1f
 2453 0abb 76030000 		.4byte	.LASF129
 2454 0abf 01       		.byte	0x1
 2455 0ac0 DE       		.byte	0xde
 2456 0ac1 01       		.byte	0x1
 2457 0ac2 00000000 		.4byte	.LFB125
 2458 0ac6 12000000 		.4byte	.LFE125
 2459 0aca 02       		.byte	0x2
 2460 0acb 7D       		.byte	0x7d
 2461 0acc 00       		.sleb128 0
 2462 0acd 01       		.byte	0x1
 2463 0ace DF0A0000 		.4byte	0xadf
 2464 0ad2 20       		.uleb128 0x20
 2465 0ad3 717000   		.ascii	"qp\000"
 2466 0ad6 01       		.byte	0x1
 2467 0ad7 DE       		.byte	0xde
 2468 0ad8 5D050000 		.4byte	0x55d
 2469 0adc 01       		.byte	0x1
 2470 0add 50       		.byte	0x50
 2471 0ade 00       		.byte	0
 2472 0adf 1B       		.uleb128 0x1b
 2473 0ae0 34000000 		.4byte	.LASF130
 2474 0ae4 01       		.byte	0x1
 2475 0ae5 82       		.byte	0x82
 2476 0ae6 01       		.byte	0x1
 2477 0ae7 01       		.byte	0x1
 2478 0ae8 2C0B0000 		.4byte	0xb2c
 2479 0aec 1C       		.uleb128 0x1c
 2480 0aed 73647000 		.ascii	"sdp\000"
 2481 0af1 01       		.byte	0x1
 2482 0af2 82       		.byte	0x82
 2483 0af3 230A0000 		.4byte	0xa23
 2484 0af7 1C       		.uleb128 0x1c
 2485 0af8 69737200 		.ascii	"isr\000"
 2486 0afc 01       		.byte	0x1
 2487 0afd 82       		.byte	0x82
ARM GAS  C:\Users\TaisikHam\AppData\Local\Temp\ccO5hARh.s 			page 45


 2488 0afe 86000000 		.4byte	0x86
 2489 0b02 1E       		.uleb128 0x1e
 2490 0b03 73747300 		.ascii	"sts\000"
 2491 0b07 01       		.byte	0x1
 2492 0b08 83       		.byte	0x83
 2493 0b09 05010000 		.4byte	0x105
 2494 0b0d 21       		.uleb128 0x21
 2495 0b0e 1E0B0000 		.4byte	0xb1e
 2496 0b12 1E       		.uleb128 0x1e
 2497 0b13 746D7000 		.ascii	"tmp\000"
 2498 0b17 01       		.byte	0x1
 2499 0b18 8D       		.byte	0x8d
 2500 0b19 86000000 		.4byte	0x86
 2501 0b1d 00       		.byte	0
 2502 0b1e 22       		.uleb128 0x22
 2503 0b1f 1E       		.uleb128 0x1e
 2504 0b20 746D7000 		.ascii	"tmp\000"
 2505 0b24 01       		.byte	0x1
 2506 0b25 8F       		.byte	0x8f
 2507 0b26 86000000 		.4byte	0x86
 2508 0b2a 00       		.byte	0
 2509 0b2b 00       		.byte	0
 2510 0b2c 23       		.uleb128 0x23
 2511 0b2d 57040000 		.4byte	.LASF131
 2512 0b31 01       		.byte	0x1
 2513 0b32 97       		.byte	0x97
 2514 0b33 01       		.byte	0x1
 2515 0b34 00000000 		.4byte	.LFB121
 2516 0b38 0C010000 		.4byte	.LFE121
 2517 0b3c 00000000 		.4byte	.LLST0
 2518 0b40 01       		.byte	0x1
 2519 0b41 CB0D0000 		.4byte	0xdcb
 2520 0b45 24       		.uleb128 0x24
 2521 0b46 73647000 		.ascii	"sdp\000"
 2522 0b4a 01       		.byte	0x1
 2523 0b4b 97       		.byte	0x97
 2524 0b4c 230A0000 		.4byte	0xa23
 2525 0b50 20000000 		.4byte	.LLST1
 2526 0b54 25       		.uleb128 0x25
 2527 0b55 7500     		.ascii	"u\000"
 2528 0b57 01       		.byte	0x1
 2529 0b58 98       		.byte	0x98
 2530 0b59 F0090000 		.4byte	0x9f0
 2531 0b5d 01       		.byte	0x1
 2532 0b5e 55       		.byte	0x55
 2533 0b5f 26       		.uleb128 0x26
 2534 0b60 63723100 		.ascii	"cr1\000"
 2535 0b64 01       		.byte	0x1
 2536 0b65 99       		.byte	0x99
 2537 0b66 86000000 		.4byte	0x86
 2538 0b6a 54000000 		.4byte	.LLST2
 2539 0b6e 25       		.uleb128 0x25
 2540 0b6f 69737200 		.ascii	"isr\000"
 2541 0b73 01       		.byte	0x1
 2542 0b74 9A       		.byte	0x9a
 2543 0b75 86000000 		.4byte	0x86
 2544 0b79 01       		.byte	0x1
ARM GAS  C:\Users\TaisikHam\AppData\Local\Temp\ccO5hARh.s 			page 46


 2545 0b7a 54       		.byte	0x54
 2546 0b7b 27       		.uleb128 0x27
 2547 0b7c 26000000 		.4byte	.LBB19
 2548 0b80 2C000000 		.4byte	.LBE19
 2549 0b84 980B0000 		.4byte	0xb98
 2550 0b88 26       		.uleb128 0x26
 2551 0b89 746D7000 		.ascii	"tmp\000"
 2552 0b8d 01       		.byte	0x1
 2553 0b8e BE       		.byte	0xbe
 2554 0b8f 86000000 		.4byte	0x86
 2555 0b93 72000000 		.4byte	.LLST3
 2556 0b97 00       		.byte	0
 2557 0b98 27       		.uleb128 0x27
 2558 0b99 3C000000 		.4byte	.LBB20
 2559 0b9d 42000000 		.4byte	.LBE20
 2560 0ba1 B50B0000 		.4byte	0xbb5
 2561 0ba5 26       		.uleb128 0x26
 2562 0ba6 746D7000 		.ascii	"tmp\000"
 2563 0baa 01       		.byte	0x1
 2564 0bab C0       		.byte	0xc0
 2565 0bac 86000000 		.4byte	0x86
 2566 0bb0 85000000 		.4byte	.LLST4
 2567 0bb4 00       		.byte	0
 2568 0bb5 27       		.uleb128 0x27
 2569 0bb6 4C000000 		.4byte	.LBB21
 2570 0bba 52000000 		.4byte	.LBE21
 2571 0bbe D20B0000 		.4byte	0xbd2
 2572 0bc2 26       		.uleb128 0x26
 2573 0bc3 746D7000 		.ascii	"tmp\000"
 2574 0bc7 01       		.byte	0x1
 2575 0bc8 AB       		.byte	0xab
 2576 0bc9 86000000 		.4byte	0x86
 2577 0bcd 98000000 		.4byte	.LLST5
 2578 0bd1 00       		.byte	0
 2579 0bd2 27       		.uleb128 0x27
 2580 0bd3 64000000 		.4byte	.LBB22
 2581 0bd7 6C000000 		.4byte	.LBE22
 2582 0bdb EF0B0000 		.4byte	0xbef
 2583 0bdf 26       		.uleb128 0x26
 2584 0be0 746D7000 		.ascii	"tmp\000"
 2585 0be4 01       		.byte	0x1
 2586 0be5 AD       		.byte	0xad
 2587 0be6 86000000 		.4byte	0x86
 2588 0bea AB000000 		.4byte	.LLST6
 2589 0bee 00       		.byte	0
 2590 0bef 27       		.uleb128 0x27
 2591 0bf0 6C000000 		.4byte	.LBB23
 2592 0bf4 72000000 		.4byte	.LBE23
 2593 0bf8 0C0C0000 		.4byte	0xc0c
 2594 0bfc 26       		.uleb128 0x26
 2595 0bfd 746D7000 		.ascii	"tmp\000"
 2596 0c01 01       		.byte	0x1
 2597 0c02 A5       		.byte	0xa5
 2598 0c03 86000000 		.4byte	0x86
 2599 0c07 D4000000 		.4byte	.LLST7
 2600 0c0b 00       		.byte	0
 2601 0c0c 27       		.uleb128 0x27
ARM GAS  C:\Users\TaisikHam\AppData\Local\Temp\ccO5hARh.s 			page 47


 2602 0c0d 84000000 		.4byte	.LBB24
 2603 0c11 8C000000 		.4byte	.LBE24
 2604 0c15 290C0000 		.4byte	0xc29
 2605 0c19 26       		.uleb128 0x26
 2606 0c1a 746D7000 		.ascii	"tmp\000"
 2607 0c1e 01       		.byte	0x1
 2608 0c1f A7       		.byte	0xa7
 2609 0c20 86000000 		.4byte	0x86
 2610 0c24 E7000000 		.4byte	.LLST8
 2611 0c28 00       		.byte	0
 2612 0c29 28       		.uleb128 0x28
 2613 0c2a DF0A0000 		.4byte	0xadf
 2614 0c2e 8C000000 		.4byte	.LBB25
 2615 0c32 D0000000 		.4byte	.LBE25
 2616 0c36 01       		.byte	0x1
 2617 0c37 A2       		.byte	0xa2
 2618 0c38 BC0C0000 		.4byte	0xcbc
 2619 0c3c 29       		.uleb128 0x29
 2620 0c3d F70A0000 		.4byte	0xaf7
 2621 0c41 1B010000 		.4byte	.LLST9
 2622 0c45 29       		.uleb128 0x29
 2623 0c46 EC0A0000 		.4byte	0xaec
 2624 0c4a 2E010000 		.4byte	.LLST10
 2625 0c4e 2A       		.uleb128 0x2a
 2626 0c4f 8C000000 		.4byte	.LBB26
 2627 0c53 D0000000 		.4byte	.LBE26
 2628 0c57 2B       		.uleb128 0x2b
 2629 0c58 020B0000 		.4byte	0xb02
 2630 0c5c 4C010000 		.4byte	.LLST11
 2631 0c60 27       		.uleb128 0x27
 2632 0c61 B2000000 		.4byte	.LBB27
 2633 0c65 B8000000 		.4byte	.LBE27
 2634 0c69 770C0000 		.4byte	0xc77
 2635 0c6d 2B       		.uleb128 0x2b
 2636 0c6e 120B0000 		.4byte	0xb12
 2637 0c72 6B010000 		.4byte	.LLST12
 2638 0c76 00       		.byte	0
 2639 0c77 27       		.uleb128 0x27
 2640 0c78 C8000000 		.4byte	.LBB28
 2641 0c7c D0000000 		.4byte	.LBE28
 2642 0c80 8E0C0000 		.4byte	0xc8e
 2643 0c84 2B       		.uleb128 0x2b
 2644 0c85 1F0B0000 		.4byte	0xb1f
 2645 0c89 7E010000 		.4byte	.LLST13
 2646 0c8d 00       		.byte	0
 2647 0c8e 2C       		.uleb128 0x2c
 2648 0c8f BC000000 		.4byte	.LVL44
 2649 0c93 81110000 		.4byte	0x1181
 2650 0c97 2D       		.uleb128 0x2d
 2651 0c98 C4000000 		.4byte	.LVL45
 2652 0c9c 8B110000 		.4byte	0x118b
 2653 0ca0 B10C0000 		.4byte	0xcb1
 2654 0ca4 2E       		.uleb128 0x2e
 2655 0ca5 01       		.byte	0x1
 2656 0ca6 51       		.byte	0x51
 2657 0ca7 02       		.byte	0x2
 2658 0ca8 78       		.byte	0x78
ARM GAS  C:\Users\TaisikHam\AppData\Local\Temp\ccO5hARh.s 			page 48


 2659 0ca9 00       		.sleb128 0
 2660 0caa 2E       		.uleb128 0x2e
 2661 0cab 01       		.byte	0x1
 2662 0cac 50       		.byte	0x50
 2663 0cad 02       		.byte	0x2
 2664 0cae 76       		.byte	0x76
 2665 0caf 04       		.sleb128 4
 2666 0cb0 00       		.byte	0
 2667 0cb1 2C       		.uleb128 0x2c
 2668 0cb2 C8000000 		.4byte	.LVL46
 2669 0cb6 AA110000 		.4byte	0x11aa
 2670 0cba 00       		.byte	0
 2671 0cbb 00       		.byte	0
 2672 0cbc 27       		.uleb128 0x27
 2673 0cbd D0000000 		.4byte	.LBB29
 2674 0cc1 0C010000 		.4byte	.LBE29
 2675 0cc5 4C0D0000 		.4byte	0xd4c
 2676 0cc9 26       		.uleb128 0x26
 2677 0cca 6200     		.ascii	"b\000"
 2678 0ccc 01       		.byte	0x1
 2679 0ccd B1       		.byte	0xb1
 2680 0cce EF000000 		.4byte	0xef
 2681 0cd2 9C010000 		.4byte	.LLST14
 2682 0cd6 27       		.uleb128 0x27
 2683 0cd7 D0000000 		.4byte	.LBB30
 2684 0cdb D6000000 		.4byte	.LBE30
 2685 0cdf F30C0000 		.4byte	0xcf3
 2686 0ce3 26       		.uleb128 0x26
 2687 0ce4 746D7000 		.ascii	"tmp\000"
 2688 0ce8 01       		.byte	0x1
 2689 0ce9 B2       		.byte	0xb2
 2690 0cea 86000000 		.4byte	0x86
 2691 0cee AF010000 		.4byte	.LLST15
 2692 0cf2 00       		.byte	0
 2693 0cf3 27       		.uleb128 0x27
 2694 0cf4 F0000000 		.4byte	.LBB31
 2695 0cf8 F8000000 		.4byte	.LBE31
 2696 0cfc 100D0000 		.4byte	0xd10
 2697 0d00 26       		.uleb128 0x26
 2698 0d01 746D7000 		.ascii	"tmp\000"
 2699 0d05 01       		.byte	0x1
 2700 0d06 BA       		.byte	0xba
 2701 0d07 86000000 		.4byte	0x86
 2702 0d0b C2010000 		.4byte	.LLST16
 2703 0d0f 00       		.byte	0
 2704 0d10 2C       		.uleb128 0x2c
 2705 0d11 DA000000 		.4byte	.LVL51
 2706 0d15 81110000 		.4byte	0x1181
 2707 0d19 2D       		.uleb128 0x2d
 2708 0d1a E2000000 		.4byte	.LVL52
 2709 0d1e B4110000 		.4byte	0x11b4
 2710 0d22 2D0D0000 		.4byte	0xd2d
 2711 0d26 2E       		.uleb128 0x2e
 2712 0d27 01       		.byte	0x1
 2713 0d28 50       		.byte	0x50
 2714 0d29 02       		.byte	0x2
 2715 0d2a 76       		.byte	0x76
ARM GAS  C:\Users\TaisikHam\AppData\Local\Temp\ccO5hARh.s 			page 49


 2716 0d2b 30       		.sleb128 48
 2717 0d2c 00       		.byte	0
 2718 0d2d 2C       		.uleb128 0x2c
 2719 0d2e F0000000 		.4byte	.LVL54
 2720 0d32 AA110000 		.4byte	0x11aa
 2721 0d36 2F       		.uleb128 0x2f
 2722 0d37 00010000 		.4byte	.LVL57
 2723 0d3b 8B110000 		.4byte	0x118b
 2724 0d3f 2E       		.uleb128 0x2e
 2725 0d40 01       		.byte	0x1
 2726 0d41 51       		.byte	0x51
 2727 0d42 01       		.byte	0x1
 2728 0d43 38       		.byte	0x38
 2729 0d44 2E       		.uleb128 0x2e
 2730 0d45 01       		.byte	0x1
 2731 0d46 50       		.byte	0x50
 2732 0d47 02       		.byte	0x2
 2733 0d48 76       		.byte	0x76
 2734 0d49 04       		.sleb128 4
 2735 0d4a 00       		.byte	0
 2736 0d4b 00       		.byte	0
 2737 0d4c 2C       		.uleb128 0x2c
 2738 0d4d 30000000 		.4byte	.LVL16
 2739 0d51 81110000 		.4byte	0x1181
 2740 0d55 2D       		.uleb128 0x2d
 2741 0d56 38000000 		.4byte	.LVL17
 2742 0d5a 8B110000 		.4byte	0x118b
 2743 0d5e 6E0D0000 		.4byte	0xd6e
 2744 0d62 2E       		.uleb128 0x2e
 2745 0d63 01       		.byte	0x1
 2746 0d64 51       		.byte	0x51
 2747 0d65 01       		.byte	0x1
 2748 0d66 40       		.byte	0x40
 2749 0d67 2E       		.uleb128 0x2e
 2750 0d68 01       		.byte	0x1
 2751 0d69 50       		.byte	0x50
 2752 0d6a 02       		.byte	0x2
 2753 0d6b 76       		.byte	0x76
 2754 0d6c 04       		.sleb128 4
 2755 0d6d 00       		.byte	0
 2756 0d6e 2C       		.uleb128 0x2c
 2757 0d6f 3C000000 		.4byte	.LVL18
 2758 0d73 AA110000 		.4byte	0x11aa
 2759 0d77 2C       		.uleb128 0x2c
 2760 0d78 56000000 		.4byte	.LVL25
 2761 0d7c 81110000 		.4byte	0x1181
 2762 0d80 2D       		.uleb128 0x2d
 2763 0d81 60000000 		.4byte	.LVL26
 2764 0d85 D3110000 		.4byte	0x11d3
 2765 0d89 940D0000 		.4byte	0xd94
 2766 0d8d 2E       		.uleb128 0x2e
 2767 0d8e 01       		.byte	0x1
 2768 0d8f 50       		.byte	0x50
 2769 0d90 02       		.byte	0x2
 2770 0d91 76       		.byte	0x76
 2771 0d92 00       		.sleb128 0
 2772 0d93 00       		.byte	0
ARM GAS  C:\Users\TaisikHam\AppData\Local\Temp\ccO5hARh.s 			page 50


 2773 0d94 2C       		.uleb128 0x2c
 2774 0d95 64000000 		.4byte	.LVL27
 2775 0d99 AA110000 		.4byte	0x11aa
 2776 0d9d 2C       		.uleb128 0x2c
 2777 0d9e 76000000 		.4byte	.LVL32
 2778 0da2 81110000 		.4byte	0x1181
 2779 0da6 2D       		.uleb128 0x2d
 2780 0da7 80000000 		.4byte	.LVL33
 2781 0dab 8B110000 		.4byte	0x118b
 2782 0daf C10D0000 		.4byte	0xdc1
 2783 0db3 2E       		.uleb128 0x2e
 2784 0db4 01       		.byte	0x1
 2785 0db5 51       		.byte	0x51
 2786 0db6 03       		.byte	0x3
 2787 0db7 0A       		.byte	0xa
 2788 0db8 0002     		.2byte	0x200
 2789 0dba 2E       		.uleb128 0x2e
 2790 0dbb 01       		.byte	0x1
 2791 0dbc 50       		.byte	0x50
 2792 0dbd 02       		.byte	0x2
 2793 0dbe 76       		.byte	0x76
 2794 0dbf 04       		.sleb128 4
 2795 0dc0 00       		.byte	0
 2796 0dc1 2C       		.uleb128 0x2c
 2797 0dc2 84000000 		.4byte	.LVL34
 2798 0dc6 AA110000 		.4byte	0x11aa
 2799 0dca 00       		.byte	0
 2800 0dcb 30       		.uleb128 0x30
 2801 0dcc 01       		.byte	0x1
 2802 0dcd 6F020000 		.4byte	.LASF132
 2803 0dd1 01       		.byte	0x1
 2804 0dd2 0201     		.2byte	0x102
 2805 0dd4 01       		.byte	0x1
 2806 0dd5 00000000 		.4byte	.LFB126
 2807 0dd9 1E000000 		.4byte	.LFE126
 2808 0ddd E0010000 		.4byte	.LLST17
 2809 0de1 01       		.byte	0x1
 2810 0de2 1A0E0000 		.4byte	0xe1a
 2811 0de6 2C       		.uleb128 0x2c
 2812 0de7 06000000 		.4byte	.LVL58
 2813 0deb ED110000 		.4byte	0x11ed
 2814 0def 2D       		.uleb128 0x2d
 2815 0df0 12000000 		.4byte	.LVL59
 2816 0df4 2C0B0000 		.4byte	0xb2c
 2817 0df8 060E0000 		.4byte	0xe06
 2818 0dfc 2E       		.uleb128 0x2e
 2819 0dfd 01       		.byte	0x1
 2820 0dfe 50       		.byte	0x50
 2821 0dff 05       		.byte	0x5
 2822 0e00 03       		.byte	0x3
 2823 0e01 00000000 		.4byte	.LANCHOR0
 2824 0e05 00       		.byte	0
 2825 0e06 2C       		.uleb128 0x2c
 2826 0e07 16000000 		.4byte	.LVL60
 2827 0e0b F7110000 		.4byte	0x11f7
 2828 0e0f 31       		.uleb128 0x31
 2829 0e10 1E000000 		.4byte	.LVL61
ARM GAS  C:\Users\TaisikHam\AppData\Local\Temp\ccO5hARh.s 			page 51


 2830 0e14 01       		.byte	0x1
 2831 0e15 01120000 		.4byte	0x1201
 2832 0e19 00       		.byte	0
 2833 0e1a 30       		.uleb128 0x30
 2834 0e1b 01       		.byte	0x1
 2835 0e1c AD020000 		.4byte	.LASF133
 2836 0e20 01       		.byte	0x1
 2837 0e21 1501     		.2byte	0x115
 2838 0e23 01       		.byte	0x1
 2839 0e24 00000000 		.4byte	.LFB127
 2840 0e28 1E000000 		.4byte	.LFE127
 2841 0e2c 00020000 		.4byte	.LLST18
 2842 0e30 01       		.byte	0x1
 2843 0e31 690E0000 		.4byte	0xe69
 2844 0e35 2C       		.uleb128 0x2c
 2845 0e36 06000000 		.4byte	.LVL62
 2846 0e3a ED110000 		.4byte	0x11ed
 2847 0e3e 2D       		.uleb128 0x2d
 2848 0e3f 12000000 		.4byte	.LVL63
 2849 0e43 2C0B0000 		.4byte	0xb2c
 2850 0e47 550E0000 		.4byte	0xe55
 2851 0e4b 2E       		.uleb128 0x2e
 2852 0e4c 01       		.byte	0x1
 2853 0e4d 50       		.byte	0x50
 2854 0e4e 05       		.byte	0x5
 2855 0e4f 03       		.byte	0x3
 2856 0e50 00000000 		.4byte	.LANCHOR1
 2857 0e54 00       		.byte	0
 2858 0e55 2C       		.uleb128 0x2c
 2859 0e56 16000000 		.4byte	.LVL64
 2860 0e5a F7110000 		.4byte	0x11f7
 2861 0e5e 31       		.uleb128 0x31
 2862 0e5f 1E000000 		.4byte	.LVL65
 2863 0e63 01       		.byte	0x1
 2864 0e64 01120000 		.4byte	0x1201
 2865 0e68 00       		.byte	0
 2866 0e69 30       		.uleb128 0x30
 2867 0e6a 01       		.byte	0x1
 2868 0e6b D8020000 		.4byte	.LASF134
 2869 0e6f 01       		.byte	0x1
 2870 0e70 2801     		.2byte	0x128
 2871 0e72 01       		.byte	0x1
 2872 0e73 00000000 		.4byte	.LFB128
 2873 0e77 1E000000 		.4byte	.LFE128
 2874 0e7b 20020000 		.4byte	.LLST19
 2875 0e7f 01       		.byte	0x1
 2876 0e80 B80E0000 		.4byte	0xeb8
 2877 0e84 2C       		.uleb128 0x2c
 2878 0e85 06000000 		.4byte	.LVL66
 2879 0e89 ED110000 		.4byte	0x11ed
 2880 0e8d 2D       		.uleb128 0x2d
 2881 0e8e 12000000 		.4byte	.LVL67
 2882 0e92 2C0B0000 		.4byte	0xb2c
 2883 0e96 A40E0000 		.4byte	0xea4
 2884 0e9a 2E       		.uleb128 0x2e
 2885 0e9b 01       		.byte	0x1
 2886 0e9c 50       		.byte	0x50
ARM GAS  C:\Users\TaisikHam\AppData\Local\Temp\ccO5hARh.s 			page 52


 2887 0e9d 05       		.byte	0x5
 2888 0e9e 03       		.byte	0x3
 2889 0e9f 00000000 		.4byte	.LANCHOR2
 2890 0ea3 00       		.byte	0
 2891 0ea4 2C       		.uleb128 0x2c
 2892 0ea5 16000000 		.4byte	.LVL68
 2893 0ea9 F7110000 		.4byte	0x11f7
 2894 0ead 31       		.uleb128 0x31
 2895 0eae 1E000000 		.4byte	.LVL69
 2896 0eb2 01       		.byte	0x1
 2897 0eb3 01120000 		.4byte	0x1201
 2898 0eb7 00       		.byte	0
 2899 0eb8 30       		.uleb128 0x30
 2900 0eb9 01       		.byte	0x1
 2901 0eba 12050000 		.4byte	.LASF135
 2902 0ebe 01       		.byte	0x1
 2903 0ebf 3B01     		.2byte	0x13b
 2904 0ec1 01       		.byte	0x1
 2905 0ec2 00000000 		.4byte	.LFB129
 2906 0ec6 1E000000 		.4byte	.LFE129
 2907 0eca 40020000 		.4byte	.LLST20
 2908 0ece 01       		.byte	0x1
 2909 0ecf 070F0000 		.4byte	0xf07
 2910 0ed3 2C       		.uleb128 0x2c
 2911 0ed4 06000000 		.4byte	.LVL70
 2912 0ed8 ED110000 		.4byte	0x11ed
 2913 0edc 2D       		.uleb128 0x2d
 2914 0edd 12000000 		.4byte	.LVL71
 2915 0ee1 2C0B0000 		.4byte	0xb2c
 2916 0ee5 F30E0000 		.4byte	0xef3
 2917 0ee9 2E       		.uleb128 0x2e
 2918 0eea 01       		.byte	0x1
 2919 0eeb 50       		.byte	0x50
 2920 0eec 05       		.byte	0x5
 2921 0eed 03       		.byte	0x3
 2922 0eee 00000000 		.4byte	.LANCHOR3
 2923 0ef2 00       		.byte	0
 2924 0ef3 2C       		.uleb128 0x2c
 2925 0ef4 16000000 		.4byte	.LVL72
 2926 0ef8 F7110000 		.4byte	0x11f7
 2927 0efc 31       		.uleb128 0x31
 2928 0efd 1E000000 		.4byte	.LVL73
 2929 0f01 01       		.byte	0x1
 2930 0f02 01120000 		.4byte	0x1201
 2931 0f06 00       		.byte	0
 2932 0f07 30       		.uleb128 0x30
 2933 0f08 01       		.byte	0x1
 2934 0f09 F0010000 		.4byte	.LASF136
 2935 0f0d 01       		.byte	0x1
 2936 0f0e 7401     		.2byte	0x174
 2937 0f10 01       		.byte	0x1
 2938 0f11 00000000 		.4byte	.LFB130
 2939 0f15 9C000000 		.4byte	.LFE130
 2940 0f19 60020000 		.4byte	.LLST21
 2941 0f1d 01       		.byte	0x1
 2942 0f1e A70F0000 		.4byte	0xfa7
 2943 0f22 2D       		.uleb128 0x2d
ARM GAS  C:\Users\TaisikHam\AppData\Local\Temp\ccO5hARh.s 			page 53


 2944 0f23 1E000000 		.4byte	.LVL74
 2945 0f27 0C120000 		.4byte	0x120c
 2946 0f2b 440F0000 		.4byte	0xf44
 2947 0f2f 2E       		.uleb128 0x2e
 2948 0f30 01       		.byte	0x1
 2949 0f31 52       		.byte	0x52
 2950 0f32 05       		.byte	0x5
 2951 0f33 03       		.byte	0x3
 2952 0f34 00000000 		.4byte	notify1
 2953 0f38 2E       		.uleb128 0x2e
 2954 0f39 01       		.byte	0x1
 2955 0f3a 51       		.byte	0x51
 2956 0f3b 01       		.byte	0x1
 2957 0f3c 30       		.byte	0x30
 2958 0f3d 2E       		.uleb128 0x2e
 2959 0f3e 01       		.byte	0x1
 2960 0f3f 50       		.byte	0x50
 2961 0f40 02       		.byte	0x2
 2962 0f41 74       		.byte	0x74
 2963 0f42 00       		.sleb128 0
 2964 0f43 00       		.byte	0
 2965 0f44 2D       		.uleb128 0x2d
 2966 0f45 4E000000 		.4byte	.LVL75
 2967 0f49 0C120000 		.4byte	0x120c
 2968 0f4d 660F0000 		.4byte	0xf66
 2969 0f51 2E       		.uleb128 0x2e
 2970 0f52 01       		.byte	0x1
 2971 0f53 52       		.byte	0x52
 2972 0f54 05       		.byte	0x5
 2973 0f55 03       		.byte	0x3
 2974 0f56 00000000 		.4byte	notify2
 2975 0f5a 2E       		.uleb128 0x2e
 2976 0f5b 01       		.byte	0x1
 2977 0f5c 51       		.byte	0x51
 2978 0f5d 01       		.byte	0x1
 2979 0f5e 30       		.byte	0x30
 2980 0f5f 2E       		.uleb128 0x2e
 2981 0f60 01       		.byte	0x1
 2982 0f61 50       		.byte	0x50
 2983 0f62 02       		.byte	0x2
 2984 0f63 77       		.byte	0x77
 2985 0f64 00       		.sleb128 0
 2986 0f65 00       		.byte	0
 2987 0f66 2D       		.uleb128 0x2d
 2988 0f67 72000000 		.4byte	.LVL76
 2989 0f6b 0C120000 		.4byte	0x120c
 2990 0f6f 880F0000 		.4byte	0xf88
 2991 0f73 2E       		.uleb128 0x2e
 2992 0f74 01       		.byte	0x1
 2993 0f75 52       		.byte	0x52
 2994 0f76 05       		.byte	0x5
 2995 0f77 03       		.byte	0x3
 2996 0f78 00000000 		.4byte	notify3
 2997 0f7c 2E       		.uleb128 0x2e
 2998 0f7d 01       		.byte	0x1
 2999 0f7e 51       		.byte	0x51
 3000 0f7f 01       		.byte	0x1
ARM GAS  C:\Users\TaisikHam\AppData\Local\Temp\ccO5hARh.s 			page 54


 3001 0f80 30       		.byte	0x30
 3002 0f81 2E       		.uleb128 0x2e
 3003 0f82 01       		.byte	0x1
 3004 0f83 50       		.byte	0x50
 3005 0f84 02       		.byte	0x2
 3006 0f85 76       		.byte	0x76
 3007 0f86 00       		.sleb128 0
 3008 0f87 00       		.byte	0
 3009 0f88 2F       		.uleb128 0x2f
 3010 0f89 8E000000 		.4byte	.LVL77
 3011 0f8d 0C120000 		.4byte	0x120c
 3012 0f91 2E       		.uleb128 0x2e
 3013 0f92 01       		.byte	0x1
 3014 0f93 52       		.byte	0x52
 3015 0f94 05       		.byte	0x5
 3016 0f95 03       		.byte	0x3
 3017 0f96 00000000 		.4byte	notify4
 3018 0f9a 2E       		.uleb128 0x2e
 3019 0f9b 01       		.byte	0x1
 3020 0f9c 51       		.byte	0x51
 3021 0f9d 01       		.byte	0x1
 3022 0f9e 30       		.byte	0x30
 3023 0f9f 2E       		.uleb128 0x2e
 3024 0fa0 01       		.byte	0x1
 3025 0fa1 50       		.byte	0x50
 3026 0fa2 02       		.byte	0x2
 3027 0fa3 74       		.byte	0x74
 3028 0fa4 00       		.sleb128 0
 3029 0fa5 00       		.byte	0
 3030 0fa6 00       		.byte	0
 3031 0fa7 30       		.uleb128 0x30
 3032 0fa8 01       		.byte	0x1
 3033 0fa9 E1030000 		.4byte	.LASF137
 3034 0fad 01       		.byte	0x1
 3035 0fae A501     		.2byte	0x1a5
 3036 0fb0 01       		.byte	0x1
 3037 0fb1 00000000 		.4byte	.LFB131
 3038 0fb5 E0000000 		.4byte	.LFE131
 3039 0fb9 80020000 		.4byte	.LLST22
 3040 0fbd 01       		.byte	0x1
 3041 0fbe 81100000 		.4byte	0x1081
 3042 0fc2 32       		.uleb128 0x32
 3043 0fc3 73647000 		.ascii	"sdp\000"
 3044 0fc7 01       		.byte	0x1
 3045 0fc8 A501     		.2byte	0x1a5
 3046 0fca 230A0000 		.4byte	0xa23
 3047 0fce A0020000 		.4byte	.LLST23
 3048 0fd2 33       		.uleb128 0x33
 3049 0fd3 E4040000 		.4byte	.LASF123
 3050 0fd7 01       		.byte	0x1
 3051 0fd8 A501     		.2byte	0x1a5
 3052 0fda 290A0000 		.4byte	0xa29
 3053 0fde 24030000 		.4byte	.LLST24
 3054 0fe2 34       		.uleb128 0x34
 3055 0fe3 F6090000 		.4byte	0x9f6
 3056 0fe7 12000000 		.4byte	.LBB32
 3057 0feb 4A000000 		.4byte	.LBE32
ARM GAS  C:\Users\TaisikHam\AppData\Local\Temp\ccO5hARh.s 			page 55


 3058 0fef 01       		.byte	0x1
 3059 0ff0 D601     		.2byte	0x1d6
 3060 0ff2 1C100000 		.4byte	0x101c
 3061 0ff6 29       		.uleb128 0x29
 3062 0ff7 0E0A0000 		.4byte	0xa0e
 3063 0ffb 42030000 		.4byte	.LLST25
 3064 0fff 29       		.uleb128 0x29
 3065 1000 030A0000 		.4byte	0xa03
 3066 1004 55030000 		.4byte	.LLST26
 3067 1008 2A       		.uleb128 0x2a
 3068 1009 12000000 		.4byte	.LBB33
 3069 100d 4A000000 		.4byte	.LBE33
 3070 1011 2B       		.uleb128 0x2b
 3071 1012 190A0000 		.4byte	0xa19
 3072 1016 76030000 		.4byte	.LLST27
 3073 101a 00       		.byte	0
 3074 101b 00       		.byte	0
 3075 101c 2D       		.uleb128 0x2d
 3076 101d 7A000000 		.4byte	.LVL85
 3077 1021 2B120000 		.4byte	0x122b
 3078 1025 36100000 		.4byte	0x1036
 3079 1029 2E       		.uleb128 0x2e
 3080 102a 01       		.byte	0x1
 3081 102b 51       		.byte	0x51
 3082 102c 02       		.byte	0x2
 3083 102d 08       		.byte	0x8
 3084 102e C0       		.byte	0xc0
 3085 102f 2E       		.uleb128 0x2e
 3086 1030 01       		.byte	0x1
 3087 1031 50       		.byte	0x50
 3088 1032 02       		.byte	0x2
 3089 1033 08       		.byte	0x8
 3090 1034 34       		.byte	0x34
 3091 1035 00       		.byte	0
 3092 1036 2D       		.uleb128 0x2d
 3093 1037 94000000 		.4byte	.LVL88
 3094 103b 2B120000 		.4byte	0x122b
 3095 103f 50100000 		.4byte	0x1050
 3096 1043 2E       		.uleb128 0x2e
 3097 1044 01       		.byte	0x1
 3098 1045 51       		.byte	0x51
 3099 1046 02       		.byte	0x2
 3100 1047 08       		.byte	0x8
 3101 1048 C0       		.byte	0xc0
 3102 1049 2E       		.uleb128 0x2e
 3103 104a 01       		.byte	0x1
 3104 104b 50       		.byte	0x50
 3105 104c 02       		.byte	0x2
 3106 104d 08       		.byte	0x8
 3107 104e 25       		.byte	0x25
 3108 104f 00       		.byte	0
 3109 1050 2D       		.uleb128 0x2d
 3110 1051 AE000000 		.4byte	.LVL91
 3111 1055 2B120000 		.4byte	0x122b
 3112 1059 6A100000 		.4byte	0x106a
 3113 105d 2E       		.uleb128 0x2e
 3114 105e 01       		.byte	0x1
ARM GAS  C:\Users\TaisikHam\AppData\Local\Temp\ccO5hARh.s 			page 56


 3115 105f 51       		.byte	0x51
 3116 1060 02       		.byte	0x2
 3117 1061 08       		.byte	0x8
 3118 1062 C0       		.byte	0xc0
 3119 1063 2E       		.uleb128 0x2e
 3120 1064 01       		.byte	0x1
 3121 1065 50       		.byte	0x50
 3122 1066 02       		.byte	0x2
 3123 1067 08       		.byte	0x8
 3124 1068 26       		.byte	0x26
 3125 1069 00       		.byte	0
 3126 106a 2F       		.uleb128 0x2f
 3127 106b C8000000 		.4byte	.LVL94
 3128 106f 2B120000 		.4byte	0x122b
 3129 1073 2E       		.uleb128 0x2e
 3130 1074 01       		.byte	0x1
 3131 1075 51       		.byte	0x51
 3132 1076 02       		.byte	0x2
 3133 1077 08       		.byte	0x8
 3134 1078 C0       		.byte	0xc0
 3135 1079 2E       		.uleb128 0x2e
 3136 107a 01       		.byte	0x1
 3137 107b 50       		.byte	0x50
 3138 107c 02       		.byte	0x2
 3139 107d 08       		.byte	0x8
 3140 107e 27       		.byte	0x27
 3141 107f 00       		.byte	0
 3142 1080 00       		.byte	0
 3143 1081 35       		.uleb128 0x35
 3144 1082 01       		.byte	0x1
 3145 1083 0B060000 		.4byte	.LASF138
 3146 1087 01       		.byte	0x1
 3147 1088 E201     		.2byte	0x1e2
 3148 108a 01       		.byte	0x1
 3149 108b 00000000 		.4byte	.LFB132
 3150 108f 94000000 		.4byte	.LFE132
 3151 1093 02       		.byte	0x2
 3152 1094 7D       		.byte	0x7d
 3153 1095 00       		.sleb128 0
 3154 1096 01       		.byte	0x1
 3155 1097 1A110000 		.4byte	0x111a
 3156 109b 32       		.uleb128 0x32
 3157 109c 73647000 		.ascii	"sdp\000"
 3158 10a0 01       		.byte	0x1
 3159 10a1 E201     		.2byte	0x1e2
 3160 10a3 230A0000 		.4byte	0xa23
 3161 10a7 89030000 		.4byte	.LLST28
 3162 10ab 34       		.uleb128 0x34
 3163 10ac 340A0000 		.4byte	0xa34
 3164 10b0 0A000000 		.4byte	.LBB34
 3165 10b4 12000000 		.4byte	.LBE34
 3166 10b8 01       		.byte	0x1
 3167 10b9 E501     		.2byte	0x1e5
 3168 10bb C9100000 		.4byte	0x10c9
 3169 10bf 29       		.uleb128 0x29
 3170 10c0 410A0000 		.4byte	0xa41
 3171 10c4 F5030000 		.4byte	.LLST29
ARM GAS  C:\Users\TaisikHam\AppData\Local\Temp\ccO5hARh.s 			page 57


 3172 10c8 00       		.byte	0
 3173 10c9 36       		.uleb128 0x36
 3174 10ca 40000000 		.4byte	.LVL99
 3175 10ce 01       		.byte	0x1
 3176 10cf 45120000 		.4byte	0x1245
 3177 10d3 DE100000 		.4byte	0x10de
 3178 10d7 2E       		.uleb128 0x2e
 3179 10d8 01       		.byte	0x1
 3180 10d9 50       		.byte	0x50
 3181 10da 02       		.byte	0x2
 3182 10db 08       		.byte	0x8
 3183 10dc 34       		.byte	0x34
 3184 10dd 00       		.byte	0
 3185 10de 36       		.uleb128 0x36
 3186 10df 56000000 		.4byte	.LVL101
 3187 10e3 01       		.byte	0x1
 3188 10e4 45120000 		.4byte	0x1245
 3189 10e8 F3100000 		.4byte	0x10f3
 3190 10ec 2E       		.uleb128 0x2e
 3191 10ed 01       		.byte	0x1
 3192 10ee 50       		.byte	0x50
 3193 10ef 02       		.byte	0x2
 3194 10f0 08       		.byte	0x8
 3195 10f1 25       		.byte	0x25
 3196 10f2 00       		.byte	0
 3197 10f3 36       		.uleb128 0x36
 3198 10f4 6C000000 		.4byte	.LVL103
 3199 10f8 01       		.byte	0x1
 3200 10f9 45120000 		.4byte	0x1245
 3201 10fd 08110000 		.4byte	0x1108
 3202 1101 2E       		.uleb128 0x2e
 3203 1102 01       		.byte	0x1
 3204 1103 50       		.byte	0x50
 3205 1104 02       		.byte	0x2
 3206 1105 08       		.byte	0x8
 3207 1106 26       		.byte	0x26
 3208 1107 00       		.byte	0
 3209 1108 37       		.uleb128 0x37
 3210 1109 82000000 		.4byte	.LVL105
 3211 110d 01       		.byte	0x1
 3212 110e 45120000 		.4byte	0x1245
 3213 1112 2E       		.uleb128 0x2e
 3214 1113 01       		.byte	0x1
 3215 1114 50       		.byte	0x50
 3216 1115 02       		.byte	0x2
 3217 1116 08       		.byte	0x8
 3218 1117 27       		.byte	0x27
 3219 1118 00       		.byte	0
 3220 1119 00       		.byte	0
 3221 111a 38       		.uleb128 0x38
 3222 111b CD000000 		.4byte	.LASF139
 3223 111f 01       		.byte	0x1
 3224 1120 4D       		.byte	0x4d
 3225 1121 2F0A0000 		.4byte	0xa2f
 3226 1125 05       		.byte	0x5
 3227 1126 03       		.byte	0x3
 3228 1127 00000000 		.4byte	default_config
ARM GAS  C:\Users\TaisikHam\AppData\Local\Temp\ccO5hARh.s 			page 58


 3229 112b 39       		.uleb128 0x39
 3230 112c 5E000000 		.4byte	.LASF140
 3231 1130 10       		.byte	0x10
 3232 1131 9806     		.2byte	0x698
 3233 1133 EA050000 		.4byte	0x5ea
 3234 1137 01       		.byte	0x1
 3235 1138 01       		.byte	0x1
 3236 1139 3A       		.uleb128 0x3a
 3237 113a 53443100 		.ascii	"SD1\000"
 3238 113e 01       		.byte	0x1
 3239 113f 2C       		.byte	0x2c
 3240 1140 78080000 		.4byte	0x878
 3241 1144 01       		.byte	0x1
 3242 1145 05       		.byte	0x5
 3243 1146 03       		.byte	0x3
 3244 1147 00000000 		.4byte	SD1
 3245 114b 3A       		.uleb128 0x3a
 3246 114c 53443200 		.ascii	"SD2\000"
 3247 1150 01       		.byte	0x1
 3248 1151 31       		.byte	0x31
 3249 1152 78080000 		.4byte	0x878
 3250 1156 01       		.byte	0x1
 3251 1157 05       		.byte	0x5
 3252 1158 03       		.byte	0x3
 3253 1159 00000000 		.4byte	SD2
 3254 115d 3A       		.uleb128 0x3a
 3255 115e 53443300 		.ascii	"SD3\000"
 3256 1162 01       		.byte	0x1
 3257 1163 36       		.byte	0x36
 3258 1164 78080000 		.4byte	0x878
 3259 1168 01       		.byte	0x1
 3260 1169 05       		.byte	0x5
 3261 116a 03       		.byte	0x3
 3262 116b 00000000 		.4byte	SD3
 3263 116f 3A       		.uleb128 0x3a
 3264 1170 53443400 		.ascii	"SD4\000"
 3265 1174 01       		.byte	0x1
 3266 1175 3B       		.byte	0x3b
 3267 1176 78080000 		.4byte	0x878
 3268 117a 01       		.byte	0x1
 3269 117b 05       		.byte	0x5
 3270 117c 03       		.byte	0x3
 3271 117d 00000000 		.4byte	SD4
 3272 1181 3B       		.uleb128 0x3b
 3273 1182 01       		.byte	0x1
 3274 1183 D7050000 		.4byte	.LASF141
 3275 1187 0E       		.byte	0xe
 3276 1188 E2       		.byte	0xe2
 3277 1189 01       		.byte	0x1
 3278 118a 01       		.byte	0x1
 3279 118b 3C       		.uleb128 0x3c
 3280 118c 01       		.byte	0x1
 3281 118d 6A010000 		.4byte	.LASF143
 3282 1191 09       		.byte	0x9
 3283 1192 B3       		.byte	0xb3
 3284 1193 01       		.byte	0x1
 3285 1194 01       		.byte	0x1
ARM GAS  C:\Users\TaisikHam\AppData\Local\Temp\ccO5hARh.s 			page 59


 3286 1195 A4110000 		.4byte	0x11a4
 3287 1199 12       		.uleb128 0x12
 3288 119a A4110000 		.4byte	0x11a4
 3289 119e 12       		.uleb128 0x12
 3290 119f 05010000 		.4byte	0x105
 3291 11a3 00       		.byte	0
 3292 11a4 09       		.uleb128 0x9
 3293 11a5 04       		.byte	0x4
 3294 11a6 44040000 		.4byte	0x444
 3295 11aa 3B       		.uleb128 0x3b
 3296 11ab 01       		.byte	0x1
 3297 11ac 31050000 		.4byte	.LASF142
 3298 11b0 0E       		.byte	0xe
 3299 11b1 E3       		.byte	0xe3
 3300 11b2 01       		.byte	0x1
 3301 11b3 01       		.byte	0x1
 3302 11b4 3D       		.uleb128 0x3d
 3303 11b5 01       		.byte	0x1
 3304 11b6 FD000000 		.4byte	.LASF153
 3305 11ba 0A       		.byte	0xa
 3306 11bb 6701     		.2byte	0x167
 3307 11bd 01       		.byte	0x1
 3308 11be EF000000 		.4byte	0xef
 3309 11c2 01       		.byte	0x1
 3310 11c3 CD110000 		.4byte	0x11cd
 3311 11c7 12       		.uleb128 0x12
 3312 11c8 CD110000 		.4byte	0x11cd
 3313 11cc 00       		.byte	0
 3314 11cd 09       		.uleb128 0x9
 3315 11ce 04       		.byte	0x4
 3316 11cf 74050000 		.4byte	0x574
 3317 11d3 3E       		.uleb128 0x3e
 3318 11d4 01       		.byte	0x1
 3319 11d5 D4040000 		.4byte	.LASF144
 3320 11d9 0C       		.byte	0xc
 3321 11da 3401     		.2byte	0x134
 3322 11dc 01       		.byte	0x1
 3323 11dd 01       		.byte	0x1
 3324 11de ED110000 		.4byte	0x11ed
 3325 11e2 12       		.uleb128 0x12
 3326 11e3 230A0000 		.4byte	0xa23
 3327 11e7 12       		.uleb128 0x12
 3328 11e8 49000000 		.4byte	0x49
 3329 11ec 00       		.byte	0
 3330 11ed 3B       		.uleb128 0x3b
 3331 11ee 01       		.byte	0x1
 3332 11ef 9E050000 		.4byte	.LASF145
 3333 11f3 0E       		.byte	0xe
 3334 11f4 E4       		.byte	0xe4
 3335 11f5 01       		.byte	0x1
 3336 11f6 01       		.byte	0x1
 3337 11f7 3B       		.uleb128 0x3b
 3338 11f8 01       		.byte	0x1
 3339 11f9 4B050000 		.4byte	.LASF146
 3340 11fd 0E       		.byte	0xe
 3341 11fe E5       		.byte	0xe5
 3342 11ff 01       		.byte	0x1
ARM GAS  C:\Users\TaisikHam\AppData\Local\Temp\ccO5hARh.s 			page 60


 3343 1200 01       		.byte	0x1
 3344 1201 3F       		.uleb128 0x3f
 3345 1202 01       		.byte	0x1
 3346 1203 27020000 		.4byte	.LASF147
 3347 1207 07       		.byte	0x7
 3348 1208 FC01     		.2byte	0x1fc
 3349 120a 01       		.byte	0x1
 3350 120b 01       		.byte	0x1
 3351 120c 3E       		.uleb128 0x3e
 3352 120d 01       		.byte	0x1
 3353 120e 6B000000 		.4byte	.LASF148
 3354 1212 0C       		.byte	0xc
 3355 1213 3101     		.2byte	0x131
 3356 1215 01       		.byte	0x1
 3357 1216 01       		.byte	0x1
 3358 1217 2B120000 		.4byte	0x122b
 3359 121b 12       		.uleb128 0x12
 3360 121c 230A0000 		.4byte	0xa23
 3361 1220 12       		.uleb128 0x12
 3362 1221 40050000 		.4byte	0x540
 3363 1225 12       		.uleb128 0x12
 3364 1226 40050000 		.4byte	0x540
 3365 122a 00       		.byte	0
 3366 122b 3E       		.uleb128 0x3e
 3367 122c 01       		.byte	0x1
 3368 122d 00000000 		.4byte	.LASF149
 3369 1231 0F       		.byte	0xf
 3370 1232 1C01     		.2byte	0x11c
 3371 1234 01       		.byte	0x1
 3372 1235 01       		.byte	0x1
 3373 1236 45120000 		.4byte	0x1245
 3374 123a 12       		.uleb128 0x12
 3375 123b 86000000 		.4byte	0x86
 3376 123f 12       		.uleb128 0x12
 3377 1240 86000000 		.4byte	0x86
 3378 1244 00       		.byte	0
 3379 1245 40       		.uleb128 0x40
 3380 1246 01       		.byte	0x1
 3381 1247 A6040000 		.4byte	.LASF154
 3382 124b 0F       		.byte	0xf
 3383 124c 1D01     		.2byte	0x11d
 3384 124e 01       		.byte	0x1
 3385 124f 01       		.byte	0x1
 3386 1250 12       		.uleb128 0x12
 3387 1251 86000000 		.4byte	0x86
 3388 1255 00       		.byte	0
 3389 1256 00       		.byte	0
 3390              		.section	.debug_abbrev,"",%progbits
 3391              	.Ldebug_abbrev0:
 3392 0000 01       		.uleb128 0x1
 3393 0001 11       		.uleb128 0x11
 3394 0002 01       		.byte	0x1
 3395 0003 25       		.uleb128 0x25
 3396 0004 0E       		.uleb128 0xe
 3397 0005 13       		.uleb128 0x13
 3398 0006 0B       		.uleb128 0xb
 3399 0007 03       		.uleb128 0x3
ARM GAS  C:\Users\TaisikHam\AppData\Local\Temp\ccO5hARh.s 			page 61


 3400 0008 0E       		.uleb128 0xe
 3401 0009 1B       		.uleb128 0x1b
 3402 000a 0E       		.uleb128 0xe
 3403 000b 55       		.uleb128 0x55
 3404 000c 06       		.uleb128 0x6
 3405 000d 11       		.uleb128 0x11
 3406 000e 01       		.uleb128 0x1
 3407 000f 52       		.uleb128 0x52
 3408 0010 01       		.uleb128 0x1
 3409 0011 10       		.uleb128 0x10
 3410 0012 06       		.uleb128 0x6
 3411 0013 00       		.byte	0
 3412 0014 00       		.byte	0
 3413 0015 02       		.uleb128 0x2
 3414 0016 24       		.uleb128 0x24
 3415 0017 00       		.byte	0
 3416 0018 0B       		.uleb128 0xb
 3417 0019 0B       		.uleb128 0xb
 3418 001a 3E       		.uleb128 0x3e
 3419 001b 0B       		.uleb128 0xb
 3420 001c 03       		.uleb128 0x3
 3421 001d 08       		.uleb128 0x8
 3422 001e 00       		.byte	0
 3423 001f 00       		.byte	0
 3424 0020 03       		.uleb128 0x3
 3425 0021 16       		.uleb128 0x16
 3426 0022 00       		.byte	0
 3427 0023 03       		.uleb128 0x3
 3428 0024 0E       		.uleb128 0xe
 3429 0025 3A       		.uleb128 0x3a
 3430 0026 0B       		.uleb128 0xb
 3431 0027 3B       		.uleb128 0x3b
 3432 0028 0B       		.uleb128 0xb
 3433 0029 49       		.uleb128 0x49
 3434 002a 13       		.uleb128 0x13
 3435 002b 00       		.byte	0
 3436 002c 00       		.byte	0
 3437 002d 04       		.uleb128 0x4
 3438 002e 24       		.uleb128 0x24
 3439 002f 00       		.byte	0
 3440 0030 0B       		.uleb128 0xb
 3441 0031 0B       		.uleb128 0xb
 3442 0032 3E       		.uleb128 0x3e
 3443 0033 0B       		.uleb128 0xb
 3444 0034 03       		.uleb128 0x3
 3445 0035 0E       		.uleb128 0xe
 3446 0036 00       		.byte	0
 3447 0037 00       		.byte	0
 3448 0038 05       		.uleb128 0x5
 3449 0039 13       		.uleb128 0x13
 3450 003a 01       		.byte	0x1
 3451 003b 03       		.uleb128 0x3
 3452 003c 0E       		.uleb128 0xe
 3453 003d 0B       		.uleb128 0xb
 3454 003e 0B       		.uleb128 0xb
 3455 003f 3A       		.uleb128 0x3a
 3456 0040 0B       		.uleb128 0xb
ARM GAS  C:\Users\TaisikHam\AppData\Local\Temp\ccO5hARh.s 			page 62


 3457 0041 3B       		.uleb128 0x3b
 3458 0042 0B       		.uleb128 0xb
 3459 0043 01       		.uleb128 0x1
 3460 0044 13       		.uleb128 0x13
 3461 0045 00       		.byte	0
 3462 0046 00       		.byte	0
 3463 0047 06       		.uleb128 0x6
 3464 0048 0D       		.uleb128 0xd
 3465 0049 00       		.byte	0
 3466 004a 03       		.uleb128 0x3
 3467 004b 0E       		.uleb128 0xe
 3468 004c 3A       		.uleb128 0x3a
 3469 004d 0B       		.uleb128 0xb
 3470 004e 3B       		.uleb128 0x3b
 3471 004f 0B       		.uleb128 0xb
 3472 0050 49       		.uleb128 0x49
 3473 0051 13       		.uleb128 0x13
 3474 0052 38       		.uleb128 0x38
 3475 0053 0A       		.uleb128 0xa
 3476 0054 00       		.byte	0
 3477 0055 00       		.byte	0
 3478 0056 07       		.uleb128 0x7
 3479 0057 0D       		.uleb128 0xd
 3480 0058 00       		.byte	0
 3481 0059 03       		.uleb128 0x3
 3482 005a 08       		.uleb128 0x8
 3483 005b 3A       		.uleb128 0x3a
 3484 005c 0B       		.uleb128 0xb
 3485 005d 3B       		.uleb128 0x3b
 3486 005e 0B       		.uleb128 0xb
 3487 005f 49       		.uleb128 0x49
 3488 0060 13       		.uleb128 0x13
 3489 0061 38       		.uleb128 0x38
 3490 0062 0A       		.uleb128 0xa
 3491 0063 00       		.byte	0
 3492 0064 00       		.byte	0
 3493 0065 08       		.uleb128 0x8
 3494 0066 13       		.uleb128 0x13
 3495 0067 01       		.byte	0x1
 3496 0068 0B       		.uleb128 0xb
 3497 0069 0B       		.uleb128 0xb
 3498 006a 3A       		.uleb128 0x3a
 3499 006b 0B       		.uleb128 0xb
 3500 006c 3B       		.uleb128 0x3b
 3501 006d 0B       		.uleb128 0xb
 3502 006e 01       		.uleb128 0x1
 3503 006f 13       		.uleb128 0x13
 3504 0070 00       		.byte	0
 3505 0071 00       		.byte	0
 3506 0072 09       		.uleb128 0x9
 3507 0073 0F       		.uleb128 0xf
 3508 0074 00       		.byte	0
 3509 0075 0B       		.uleb128 0xb
 3510 0076 0B       		.uleb128 0xb
 3511 0077 49       		.uleb128 0x49
 3512 0078 13       		.uleb128 0x13
 3513 0079 00       		.byte	0
ARM GAS  C:\Users\TaisikHam\AppData\Local\Temp\ccO5hARh.s 			page 63


 3514 007a 00       		.byte	0
 3515 007b 0A       		.uleb128 0xa
 3516 007c 0F       		.uleb128 0xf
 3517 007d 00       		.byte	0
 3518 007e 0B       		.uleb128 0xb
 3519 007f 0B       		.uleb128 0xb
 3520 0080 00       		.byte	0
 3521 0081 00       		.byte	0
 3522 0082 0B       		.uleb128 0xb
 3523 0083 13       		.uleb128 0x13
 3524 0084 01       		.byte	0x1
 3525 0085 03       		.uleb128 0x3
 3526 0086 0E       		.uleb128 0xe
 3527 0087 0B       		.uleb128 0xb
 3528 0088 0B       		.uleb128 0xb
 3529 0089 3A       		.uleb128 0x3a
 3530 008a 0B       		.uleb128 0xb
 3531 008b 3B       		.uleb128 0x3b
 3532 008c 05       		.uleb128 0x5
 3533 008d 01       		.uleb128 0x1
 3534 008e 13       		.uleb128 0x13
 3535 008f 00       		.byte	0
 3536 0090 00       		.byte	0
 3537 0091 0C       		.uleb128 0xc
 3538 0092 0D       		.uleb128 0xd
 3539 0093 00       		.byte	0
 3540 0094 03       		.uleb128 0x3
 3541 0095 08       		.uleb128 0x8
 3542 0096 3A       		.uleb128 0x3a
 3543 0097 0B       		.uleb128 0xb
 3544 0098 3B       		.uleb128 0x3b
 3545 0099 05       		.uleb128 0x5
 3546 009a 49       		.uleb128 0x49
 3547 009b 13       		.uleb128 0x13
 3548 009c 38       		.uleb128 0x38
 3549 009d 0A       		.uleb128 0xa
 3550 009e 00       		.byte	0
 3551 009f 00       		.byte	0
 3552 00a0 0D       		.uleb128 0xd
 3553 00a1 35       		.uleb128 0x35
 3554 00a2 00       		.byte	0
 3555 00a3 49       		.uleb128 0x49
 3556 00a4 13       		.uleb128 0x13
 3557 00a5 00       		.byte	0
 3558 00a6 00       		.byte	0
 3559 00a7 0E       		.uleb128 0xe
 3560 00a8 17       		.uleb128 0x17
 3561 00a9 01       		.byte	0x1
 3562 00aa 0B       		.uleb128 0xb
 3563 00ab 0B       		.uleb128 0xb
 3564 00ac 3A       		.uleb128 0x3a
 3565 00ad 0B       		.uleb128 0xb
 3566 00ae 3B       		.uleb128 0x3b
 3567 00af 0B       		.uleb128 0xb
 3568 00b0 01       		.uleb128 0x1
 3569 00b1 13       		.uleb128 0x13
 3570 00b2 00       		.byte	0
ARM GAS  C:\Users\TaisikHam\AppData\Local\Temp\ccO5hARh.s 			page 64


 3571 00b3 00       		.byte	0
 3572 00b4 0F       		.uleb128 0xf
 3573 00b5 0D       		.uleb128 0xd
 3574 00b6 00       		.byte	0
 3575 00b7 03       		.uleb128 0x3
 3576 00b8 0E       		.uleb128 0xe
 3577 00b9 3A       		.uleb128 0x3a
 3578 00ba 0B       		.uleb128 0xb
 3579 00bb 3B       		.uleb128 0x3b
 3580 00bc 0B       		.uleb128 0xb
 3581 00bd 49       		.uleb128 0x49
 3582 00be 13       		.uleb128 0x13
 3583 00bf 00       		.byte	0
 3584 00c0 00       		.byte	0
 3585 00c1 10       		.uleb128 0x10
 3586 00c2 26       		.uleb128 0x26
 3587 00c3 00       		.byte	0
 3588 00c4 49       		.uleb128 0x49
 3589 00c5 13       		.uleb128 0x13
 3590 00c6 00       		.byte	0
 3591 00c7 00       		.byte	0
 3592 00c8 11       		.uleb128 0x11
 3593 00c9 15       		.uleb128 0x15
 3594 00ca 01       		.byte	0x1
 3595 00cb 27       		.uleb128 0x27
 3596 00cc 0C       		.uleb128 0xc
 3597 00cd 49       		.uleb128 0x49
 3598 00ce 13       		.uleb128 0x13
 3599 00cf 01       		.uleb128 0x1
 3600 00d0 13       		.uleb128 0x13
 3601 00d1 00       		.byte	0
 3602 00d2 00       		.byte	0
 3603 00d3 12       		.uleb128 0x12
 3604 00d4 05       		.uleb128 0x5
 3605 00d5 00       		.byte	0
 3606 00d6 49       		.uleb128 0x49
 3607 00d7 13       		.uleb128 0x13
 3608 00d8 00       		.byte	0
 3609 00d9 00       		.byte	0
 3610 00da 13       		.uleb128 0x13
 3611 00db 15       		.uleb128 0x15
 3612 00dc 01       		.byte	0x1
 3613 00dd 27       		.uleb128 0x27
 3614 00de 0C       		.uleb128 0xc
 3615 00df 01       		.uleb128 0x1
 3616 00e0 13       		.uleb128 0x13
 3617 00e1 00       		.byte	0
 3618 00e2 00       		.byte	0
 3619 00e3 14       		.uleb128 0x14
 3620 00e4 13       		.uleb128 0x13
 3621 00e5 01       		.byte	0x1
 3622 00e6 0B       		.uleb128 0xb
 3623 00e7 0B       		.uleb128 0xb
 3624 00e8 3A       		.uleb128 0x3a
 3625 00e9 0B       		.uleb128 0xb
 3626 00ea 3B       		.uleb128 0x3b
 3627 00eb 05       		.uleb128 0x5
ARM GAS  C:\Users\TaisikHam\AppData\Local\Temp\ccO5hARh.s 			page 65


 3628 00ec 01       		.uleb128 0x1
 3629 00ed 13       		.uleb128 0x13
 3630 00ee 00       		.byte	0
 3631 00ef 00       		.byte	0
 3632 00f0 15       		.uleb128 0x15
 3633 00f1 0D       		.uleb128 0xd
 3634 00f2 00       		.byte	0
 3635 00f3 03       		.uleb128 0x3
 3636 00f4 0E       		.uleb128 0xe
 3637 00f5 3A       		.uleb128 0x3a
 3638 00f6 0B       		.uleb128 0xb
 3639 00f7 3B       		.uleb128 0x3b
 3640 00f8 05       		.uleb128 0x5
 3641 00f9 49       		.uleb128 0x49
 3642 00fa 13       		.uleb128 0x13
 3643 00fb 38       		.uleb128 0x38
 3644 00fc 0A       		.uleb128 0xa
 3645 00fd 00       		.byte	0
 3646 00fe 00       		.byte	0
 3647 00ff 16       		.uleb128 0x16
 3648 0100 16       		.uleb128 0x16
 3649 0101 00       		.byte	0
 3650 0102 03       		.uleb128 0x3
 3651 0103 0E       		.uleb128 0xe
 3652 0104 3A       		.uleb128 0x3a
 3653 0105 0B       		.uleb128 0xb
 3654 0106 3B       		.uleb128 0x3b
 3655 0107 05       		.uleb128 0x5
 3656 0108 49       		.uleb128 0x49
 3657 0109 13       		.uleb128 0x13
 3658 010a 00       		.byte	0
 3659 010b 00       		.byte	0
 3660 010c 17       		.uleb128 0x17
 3661 010d 04       		.uleb128 0x4
 3662 010e 01       		.byte	0x1
 3663 010f 0B       		.uleb128 0xb
 3664 0110 0B       		.uleb128 0xb
 3665 0111 3A       		.uleb128 0x3a
 3666 0112 0B       		.uleb128 0xb
 3667 0113 3B       		.uleb128 0x3b
 3668 0114 0B       		.uleb128 0xb
 3669 0115 01       		.uleb128 0x1
 3670 0116 13       		.uleb128 0x13
 3671 0117 00       		.byte	0
 3672 0118 00       		.byte	0
 3673 0119 18       		.uleb128 0x18
 3674 011a 28       		.uleb128 0x28
 3675 011b 00       		.byte	0
 3676 011c 03       		.uleb128 0x3
 3677 011d 0E       		.uleb128 0xe
 3678 011e 1C       		.uleb128 0x1c
 3679 011f 0D       		.uleb128 0xd
 3680 0120 00       		.byte	0
 3681 0121 00       		.byte	0
 3682 0122 19       		.uleb128 0x19
 3683 0123 01       		.uleb128 0x1
 3684 0124 01       		.byte	0x1
ARM GAS  C:\Users\TaisikHam\AppData\Local\Temp\ccO5hARh.s 			page 66


 3685 0125 49       		.uleb128 0x49
 3686 0126 13       		.uleb128 0x13
 3687 0127 01       		.uleb128 0x1
 3688 0128 13       		.uleb128 0x13
 3689 0129 00       		.byte	0
 3690 012a 00       		.byte	0
 3691 012b 1A       		.uleb128 0x1a
 3692 012c 21       		.uleb128 0x21
 3693 012d 00       		.byte	0
 3694 012e 49       		.uleb128 0x49
 3695 012f 13       		.uleb128 0x13
 3696 0130 2F       		.uleb128 0x2f
 3697 0131 0B       		.uleb128 0xb
 3698 0132 00       		.byte	0
 3699 0133 00       		.byte	0
 3700 0134 1B       		.uleb128 0x1b
 3701 0135 2E       		.uleb128 0x2e
 3702 0136 01       		.byte	0x1
 3703 0137 03       		.uleb128 0x3
 3704 0138 0E       		.uleb128 0xe
 3705 0139 3A       		.uleb128 0x3a
 3706 013a 0B       		.uleb128 0xb
 3707 013b 3B       		.uleb128 0x3b
 3708 013c 0B       		.uleb128 0xb
 3709 013d 27       		.uleb128 0x27
 3710 013e 0C       		.uleb128 0xc
 3711 013f 20       		.uleb128 0x20
 3712 0140 0B       		.uleb128 0xb
 3713 0141 01       		.uleb128 0x1
 3714 0142 13       		.uleb128 0x13
 3715 0143 00       		.byte	0
 3716 0144 00       		.byte	0
 3717 0145 1C       		.uleb128 0x1c
 3718 0146 05       		.uleb128 0x5
 3719 0147 00       		.byte	0
 3720 0148 03       		.uleb128 0x3
 3721 0149 08       		.uleb128 0x8
 3722 014a 3A       		.uleb128 0x3a
 3723 014b 0B       		.uleb128 0xb
 3724 014c 3B       		.uleb128 0x3b
 3725 014d 0B       		.uleb128 0xb
 3726 014e 49       		.uleb128 0x49
 3727 014f 13       		.uleb128 0x13
 3728 0150 00       		.byte	0
 3729 0151 00       		.byte	0
 3730 0152 1D       		.uleb128 0x1d
 3731 0153 05       		.uleb128 0x5
 3732 0154 00       		.byte	0
 3733 0155 03       		.uleb128 0x3
 3734 0156 0E       		.uleb128 0xe
 3735 0157 3A       		.uleb128 0x3a
 3736 0158 0B       		.uleb128 0xb
 3737 0159 3B       		.uleb128 0x3b
 3738 015a 0B       		.uleb128 0xb
 3739 015b 49       		.uleb128 0x49
 3740 015c 13       		.uleb128 0x13
 3741 015d 00       		.byte	0
ARM GAS  C:\Users\TaisikHam\AppData\Local\Temp\ccO5hARh.s 			page 67


 3742 015e 00       		.byte	0
 3743 015f 1E       		.uleb128 0x1e
 3744 0160 34       		.uleb128 0x34
 3745 0161 00       		.byte	0
 3746 0162 03       		.uleb128 0x3
 3747 0163 08       		.uleb128 0x8
 3748 0164 3A       		.uleb128 0x3a
 3749 0165 0B       		.uleb128 0xb
 3750 0166 3B       		.uleb128 0x3b
 3751 0167 0B       		.uleb128 0xb
 3752 0168 49       		.uleb128 0x49
 3753 0169 13       		.uleb128 0x13
 3754 016a 00       		.byte	0
 3755 016b 00       		.byte	0
 3756 016c 1F       		.uleb128 0x1f
 3757 016d 2E       		.uleb128 0x2e
 3758 016e 01       		.byte	0x1
 3759 016f 03       		.uleb128 0x3
 3760 0170 0E       		.uleb128 0xe
 3761 0171 3A       		.uleb128 0x3a
 3762 0172 0B       		.uleb128 0xb
 3763 0173 3B       		.uleb128 0x3b
 3764 0174 0B       		.uleb128 0xb
 3765 0175 27       		.uleb128 0x27
 3766 0176 0C       		.uleb128 0xc
 3767 0177 11       		.uleb128 0x11
 3768 0178 01       		.uleb128 0x1
 3769 0179 12       		.uleb128 0x12
 3770 017a 01       		.uleb128 0x1
 3771 017b 40       		.uleb128 0x40
 3772 017c 0A       		.uleb128 0xa
 3773 017d 9742     		.uleb128 0x2117
 3774 017f 0C       		.uleb128 0xc
 3775 0180 01       		.uleb128 0x1
 3776 0181 13       		.uleb128 0x13
 3777 0182 00       		.byte	0
 3778 0183 00       		.byte	0
 3779 0184 20       		.uleb128 0x20
 3780 0185 05       		.uleb128 0x5
 3781 0186 00       		.byte	0
 3782 0187 03       		.uleb128 0x3
 3783 0188 08       		.uleb128 0x8
 3784 0189 3A       		.uleb128 0x3a
 3785 018a 0B       		.uleb128 0xb
 3786 018b 3B       		.uleb128 0x3b
 3787 018c 0B       		.uleb128 0xb
 3788 018d 49       		.uleb128 0x49
 3789 018e 13       		.uleb128 0x13
 3790 018f 02       		.uleb128 0x2
 3791 0190 0A       		.uleb128 0xa
 3792 0191 00       		.byte	0
 3793 0192 00       		.byte	0
 3794 0193 21       		.uleb128 0x21
 3795 0194 0B       		.uleb128 0xb
 3796 0195 01       		.byte	0x1
 3797 0196 01       		.uleb128 0x1
 3798 0197 13       		.uleb128 0x13
ARM GAS  C:\Users\TaisikHam\AppData\Local\Temp\ccO5hARh.s 			page 68


 3799 0198 00       		.byte	0
 3800 0199 00       		.byte	0
 3801 019a 22       		.uleb128 0x22
 3802 019b 0B       		.uleb128 0xb
 3803 019c 01       		.byte	0x1
 3804 019d 00       		.byte	0
 3805 019e 00       		.byte	0
 3806 019f 23       		.uleb128 0x23
 3807 01a0 2E       		.uleb128 0x2e
 3808 01a1 01       		.byte	0x1
 3809 01a2 03       		.uleb128 0x3
 3810 01a3 0E       		.uleb128 0xe
 3811 01a4 3A       		.uleb128 0x3a
 3812 01a5 0B       		.uleb128 0xb
 3813 01a6 3B       		.uleb128 0x3b
 3814 01a7 0B       		.uleb128 0xb
 3815 01a8 27       		.uleb128 0x27
 3816 01a9 0C       		.uleb128 0xc
 3817 01aa 11       		.uleb128 0x11
 3818 01ab 01       		.uleb128 0x1
 3819 01ac 12       		.uleb128 0x12
 3820 01ad 01       		.uleb128 0x1
 3821 01ae 40       		.uleb128 0x40
 3822 01af 06       		.uleb128 0x6
 3823 01b0 9742     		.uleb128 0x2117
 3824 01b2 0C       		.uleb128 0xc
 3825 01b3 01       		.uleb128 0x1
 3826 01b4 13       		.uleb128 0x13
 3827 01b5 00       		.byte	0
 3828 01b6 00       		.byte	0
 3829 01b7 24       		.uleb128 0x24
 3830 01b8 05       		.uleb128 0x5
 3831 01b9 00       		.byte	0
 3832 01ba 03       		.uleb128 0x3
 3833 01bb 08       		.uleb128 0x8
 3834 01bc 3A       		.uleb128 0x3a
 3835 01bd 0B       		.uleb128 0xb
 3836 01be 3B       		.uleb128 0x3b
 3837 01bf 0B       		.uleb128 0xb
 3838 01c0 49       		.uleb128 0x49
 3839 01c1 13       		.uleb128 0x13
 3840 01c2 02       		.uleb128 0x2
 3841 01c3 06       		.uleb128 0x6
 3842 01c4 00       		.byte	0
 3843 01c5 00       		.byte	0
 3844 01c6 25       		.uleb128 0x25
 3845 01c7 34       		.uleb128 0x34
 3846 01c8 00       		.byte	0
 3847 01c9 03       		.uleb128 0x3
 3848 01ca 08       		.uleb128 0x8
 3849 01cb 3A       		.uleb128 0x3a
 3850 01cc 0B       		.uleb128 0xb
 3851 01cd 3B       		.uleb128 0x3b
 3852 01ce 0B       		.uleb128 0xb
 3853 01cf 49       		.uleb128 0x49
 3854 01d0 13       		.uleb128 0x13
 3855 01d1 02       		.uleb128 0x2
ARM GAS  C:\Users\TaisikHam\AppData\Local\Temp\ccO5hARh.s 			page 69


 3856 01d2 0A       		.uleb128 0xa
 3857 01d3 00       		.byte	0
 3858 01d4 00       		.byte	0
 3859 01d5 26       		.uleb128 0x26
 3860 01d6 34       		.uleb128 0x34
 3861 01d7 00       		.byte	0
 3862 01d8 03       		.uleb128 0x3
 3863 01d9 08       		.uleb128 0x8
 3864 01da 3A       		.uleb128 0x3a
 3865 01db 0B       		.uleb128 0xb
 3866 01dc 3B       		.uleb128 0x3b
 3867 01dd 0B       		.uleb128 0xb
 3868 01de 49       		.uleb128 0x49
 3869 01df 13       		.uleb128 0x13
 3870 01e0 02       		.uleb128 0x2
 3871 01e1 06       		.uleb128 0x6
 3872 01e2 00       		.byte	0
 3873 01e3 00       		.byte	0
 3874 01e4 27       		.uleb128 0x27
 3875 01e5 0B       		.uleb128 0xb
 3876 01e6 01       		.byte	0x1
 3877 01e7 11       		.uleb128 0x11
 3878 01e8 01       		.uleb128 0x1
 3879 01e9 12       		.uleb128 0x12
 3880 01ea 01       		.uleb128 0x1
 3881 01eb 01       		.uleb128 0x1
 3882 01ec 13       		.uleb128 0x13
 3883 01ed 00       		.byte	0
 3884 01ee 00       		.byte	0
 3885 01ef 28       		.uleb128 0x28
 3886 01f0 1D       		.uleb128 0x1d
 3887 01f1 01       		.byte	0x1
 3888 01f2 31       		.uleb128 0x31
 3889 01f3 13       		.uleb128 0x13
 3890 01f4 11       		.uleb128 0x11
 3891 01f5 01       		.uleb128 0x1
 3892 01f6 12       		.uleb128 0x12
 3893 01f7 01       		.uleb128 0x1
 3894 01f8 58       		.uleb128 0x58
 3895 01f9 0B       		.uleb128 0xb
 3896 01fa 59       		.uleb128 0x59
 3897 01fb 0B       		.uleb128 0xb
 3898 01fc 01       		.uleb128 0x1
 3899 01fd 13       		.uleb128 0x13
 3900 01fe 00       		.byte	0
 3901 01ff 00       		.byte	0
 3902 0200 29       		.uleb128 0x29
 3903 0201 05       		.uleb128 0x5
 3904 0202 00       		.byte	0
 3905 0203 31       		.uleb128 0x31
 3906 0204 13       		.uleb128 0x13
 3907 0205 02       		.uleb128 0x2
 3908 0206 06       		.uleb128 0x6
 3909 0207 00       		.byte	0
 3910 0208 00       		.byte	0
 3911 0209 2A       		.uleb128 0x2a
 3912 020a 0B       		.uleb128 0xb
ARM GAS  C:\Users\TaisikHam\AppData\Local\Temp\ccO5hARh.s 			page 70


 3913 020b 01       		.byte	0x1
 3914 020c 11       		.uleb128 0x11
 3915 020d 01       		.uleb128 0x1
 3916 020e 12       		.uleb128 0x12
 3917 020f 01       		.uleb128 0x1
 3918 0210 00       		.byte	0
 3919 0211 00       		.byte	0
 3920 0212 2B       		.uleb128 0x2b
 3921 0213 34       		.uleb128 0x34
 3922 0214 00       		.byte	0
 3923 0215 31       		.uleb128 0x31
 3924 0216 13       		.uleb128 0x13
 3925 0217 02       		.uleb128 0x2
 3926 0218 06       		.uleb128 0x6
 3927 0219 00       		.byte	0
 3928 021a 00       		.byte	0
 3929 021b 2C       		.uleb128 0x2c
 3930 021c 898201   		.uleb128 0x4109
 3931 021f 00       		.byte	0
 3932 0220 11       		.uleb128 0x11
 3933 0221 01       		.uleb128 0x1
 3934 0222 31       		.uleb128 0x31
 3935 0223 13       		.uleb128 0x13
 3936 0224 00       		.byte	0
 3937 0225 00       		.byte	0
 3938 0226 2D       		.uleb128 0x2d
 3939 0227 898201   		.uleb128 0x4109
 3940 022a 01       		.byte	0x1
 3941 022b 11       		.uleb128 0x11
 3942 022c 01       		.uleb128 0x1
 3943 022d 31       		.uleb128 0x31
 3944 022e 13       		.uleb128 0x13
 3945 022f 01       		.uleb128 0x1
 3946 0230 13       		.uleb128 0x13
 3947 0231 00       		.byte	0
 3948 0232 00       		.byte	0
 3949 0233 2E       		.uleb128 0x2e
 3950 0234 8A8201   		.uleb128 0x410a
 3951 0237 00       		.byte	0
 3952 0238 02       		.uleb128 0x2
 3953 0239 0A       		.uleb128 0xa
 3954 023a 9142     		.uleb128 0x2111
 3955 023c 0A       		.uleb128 0xa
 3956 023d 00       		.byte	0
 3957 023e 00       		.byte	0
 3958 023f 2F       		.uleb128 0x2f
 3959 0240 898201   		.uleb128 0x4109
 3960 0243 01       		.byte	0x1
 3961 0244 11       		.uleb128 0x11
 3962 0245 01       		.uleb128 0x1
 3963 0246 31       		.uleb128 0x31
 3964 0247 13       		.uleb128 0x13
 3965 0248 00       		.byte	0
 3966 0249 00       		.byte	0
 3967 024a 30       		.uleb128 0x30
 3968 024b 2E       		.uleb128 0x2e
 3969 024c 01       		.byte	0x1
ARM GAS  C:\Users\TaisikHam\AppData\Local\Temp\ccO5hARh.s 			page 71


 3970 024d 3F       		.uleb128 0x3f
 3971 024e 0C       		.uleb128 0xc
 3972 024f 03       		.uleb128 0x3
 3973 0250 0E       		.uleb128 0xe
 3974 0251 3A       		.uleb128 0x3a
 3975 0252 0B       		.uleb128 0xb
 3976 0253 3B       		.uleb128 0x3b
 3977 0254 05       		.uleb128 0x5
 3978 0255 27       		.uleb128 0x27
 3979 0256 0C       		.uleb128 0xc
 3980 0257 11       		.uleb128 0x11
 3981 0258 01       		.uleb128 0x1
 3982 0259 12       		.uleb128 0x12
 3983 025a 01       		.uleb128 0x1
 3984 025b 40       		.uleb128 0x40
 3985 025c 06       		.uleb128 0x6
 3986 025d 9742     		.uleb128 0x2117
 3987 025f 0C       		.uleb128 0xc
 3988 0260 01       		.uleb128 0x1
 3989 0261 13       		.uleb128 0x13
 3990 0262 00       		.byte	0
 3991 0263 00       		.byte	0
 3992 0264 31       		.uleb128 0x31
 3993 0265 898201   		.uleb128 0x4109
 3994 0268 00       		.byte	0
 3995 0269 11       		.uleb128 0x11
 3996 026a 01       		.uleb128 0x1
 3997 026b 9542     		.uleb128 0x2115
 3998 026d 0C       		.uleb128 0xc
 3999 026e 31       		.uleb128 0x31
 4000 026f 13       		.uleb128 0x13
 4001 0270 00       		.byte	0
 4002 0271 00       		.byte	0
 4003 0272 32       		.uleb128 0x32
 4004 0273 05       		.uleb128 0x5
 4005 0274 00       		.byte	0
 4006 0275 03       		.uleb128 0x3
 4007 0276 08       		.uleb128 0x8
 4008 0277 3A       		.uleb128 0x3a
 4009 0278 0B       		.uleb128 0xb
 4010 0279 3B       		.uleb128 0x3b
 4011 027a 05       		.uleb128 0x5
 4012 027b 49       		.uleb128 0x49
 4013 027c 13       		.uleb128 0x13
 4014 027d 02       		.uleb128 0x2
 4015 027e 06       		.uleb128 0x6
 4016 027f 00       		.byte	0
 4017 0280 00       		.byte	0
 4018 0281 33       		.uleb128 0x33
 4019 0282 05       		.uleb128 0x5
 4020 0283 00       		.byte	0
 4021 0284 03       		.uleb128 0x3
 4022 0285 0E       		.uleb128 0xe
 4023 0286 3A       		.uleb128 0x3a
 4024 0287 0B       		.uleb128 0xb
 4025 0288 3B       		.uleb128 0x3b
 4026 0289 05       		.uleb128 0x5
ARM GAS  C:\Users\TaisikHam\AppData\Local\Temp\ccO5hARh.s 			page 72


 4027 028a 49       		.uleb128 0x49
 4028 028b 13       		.uleb128 0x13
 4029 028c 02       		.uleb128 0x2
 4030 028d 06       		.uleb128 0x6
 4031 028e 00       		.byte	0
 4032 028f 00       		.byte	0
 4033 0290 34       		.uleb128 0x34
 4034 0291 1D       		.uleb128 0x1d
 4035 0292 01       		.byte	0x1
 4036 0293 31       		.uleb128 0x31
 4037 0294 13       		.uleb128 0x13
 4038 0295 11       		.uleb128 0x11
 4039 0296 01       		.uleb128 0x1
 4040 0297 12       		.uleb128 0x12
 4041 0298 01       		.uleb128 0x1
 4042 0299 58       		.uleb128 0x58
 4043 029a 0B       		.uleb128 0xb
 4044 029b 59       		.uleb128 0x59
 4045 029c 05       		.uleb128 0x5
 4046 029d 01       		.uleb128 0x1
 4047 029e 13       		.uleb128 0x13
 4048 029f 00       		.byte	0
 4049 02a0 00       		.byte	0
 4050 02a1 35       		.uleb128 0x35
 4051 02a2 2E       		.uleb128 0x2e
 4052 02a3 01       		.byte	0x1
 4053 02a4 3F       		.uleb128 0x3f
 4054 02a5 0C       		.uleb128 0xc
 4055 02a6 03       		.uleb128 0x3
 4056 02a7 0E       		.uleb128 0xe
 4057 02a8 3A       		.uleb128 0x3a
 4058 02a9 0B       		.uleb128 0xb
 4059 02aa 3B       		.uleb128 0x3b
 4060 02ab 05       		.uleb128 0x5
 4061 02ac 27       		.uleb128 0x27
 4062 02ad 0C       		.uleb128 0xc
 4063 02ae 11       		.uleb128 0x11
 4064 02af 01       		.uleb128 0x1
 4065 02b0 12       		.uleb128 0x12
 4066 02b1 01       		.uleb128 0x1
 4067 02b2 40       		.uleb128 0x40
 4068 02b3 0A       		.uleb128 0xa
 4069 02b4 9742     		.uleb128 0x2117
 4070 02b6 0C       		.uleb128 0xc
 4071 02b7 01       		.uleb128 0x1
 4072 02b8 13       		.uleb128 0x13
 4073 02b9 00       		.byte	0
 4074 02ba 00       		.byte	0
 4075 02bb 36       		.uleb128 0x36
 4076 02bc 898201   		.uleb128 0x4109
 4077 02bf 01       		.byte	0x1
 4078 02c0 11       		.uleb128 0x11
 4079 02c1 01       		.uleb128 0x1
 4080 02c2 9542     		.uleb128 0x2115
 4081 02c4 0C       		.uleb128 0xc
 4082 02c5 31       		.uleb128 0x31
 4083 02c6 13       		.uleb128 0x13
ARM GAS  C:\Users\TaisikHam\AppData\Local\Temp\ccO5hARh.s 			page 73


 4084 02c7 01       		.uleb128 0x1
 4085 02c8 13       		.uleb128 0x13
 4086 02c9 00       		.byte	0
 4087 02ca 00       		.byte	0
 4088 02cb 37       		.uleb128 0x37
 4089 02cc 898201   		.uleb128 0x4109
 4090 02cf 01       		.byte	0x1
 4091 02d0 11       		.uleb128 0x11
 4092 02d1 01       		.uleb128 0x1
 4093 02d2 9542     		.uleb128 0x2115
 4094 02d4 0C       		.uleb128 0xc
 4095 02d5 31       		.uleb128 0x31
 4096 02d6 13       		.uleb128 0x13
 4097 02d7 00       		.byte	0
 4098 02d8 00       		.byte	0
 4099 02d9 38       		.uleb128 0x38
 4100 02da 34       		.uleb128 0x34
 4101 02db 00       		.byte	0
 4102 02dc 03       		.uleb128 0x3
 4103 02dd 0E       		.uleb128 0xe
 4104 02de 3A       		.uleb128 0x3a
 4105 02df 0B       		.uleb128 0xb
 4106 02e0 3B       		.uleb128 0x3b
 4107 02e1 0B       		.uleb128 0xb
 4108 02e2 49       		.uleb128 0x49
 4109 02e3 13       		.uleb128 0x13
 4110 02e4 02       		.uleb128 0x2
 4111 02e5 0A       		.uleb128 0xa
 4112 02e6 00       		.byte	0
 4113 02e7 00       		.byte	0
 4114 02e8 39       		.uleb128 0x39
 4115 02e9 34       		.uleb128 0x34
 4116 02ea 00       		.byte	0
 4117 02eb 03       		.uleb128 0x3
 4118 02ec 0E       		.uleb128 0xe
 4119 02ed 3A       		.uleb128 0x3a
 4120 02ee 0B       		.uleb128 0xb
 4121 02ef 3B       		.uleb128 0x3b
 4122 02f0 05       		.uleb128 0x5
 4123 02f1 49       		.uleb128 0x49
 4124 02f2 13       		.uleb128 0x13
 4125 02f3 3F       		.uleb128 0x3f
 4126 02f4 0C       		.uleb128 0xc
 4127 02f5 3C       		.uleb128 0x3c
 4128 02f6 0C       		.uleb128 0xc
 4129 02f7 00       		.byte	0
 4130 02f8 00       		.byte	0
 4131 02f9 3A       		.uleb128 0x3a
 4132 02fa 34       		.uleb128 0x34
 4133 02fb 00       		.byte	0
 4134 02fc 03       		.uleb128 0x3
 4135 02fd 08       		.uleb128 0x8
 4136 02fe 3A       		.uleb128 0x3a
 4137 02ff 0B       		.uleb128 0xb
 4138 0300 3B       		.uleb128 0x3b
 4139 0301 0B       		.uleb128 0xb
 4140 0302 49       		.uleb128 0x49
ARM GAS  C:\Users\TaisikHam\AppData\Local\Temp\ccO5hARh.s 			page 74


 4141 0303 13       		.uleb128 0x13
 4142 0304 3F       		.uleb128 0x3f
 4143 0305 0C       		.uleb128 0xc
 4144 0306 02       		.uleb128 0x2
 4145 0307 0A       		.uleb128 0xa
 4146 0308 00       		.byte	0
 4147 0309 00       		.byte	0
 4148 030a 3B       		.uleb128 0x3b
 4149 030b 2E       		.uleb128 0x2e
 4150 030c 00       		.byte	0
 4151 030d 3F       		.uleb128 0x3f
 4152 030e 0C       		.uleb128 0xc
 4153 030f 03       		.uleb128 0x3
 4154 0310 0E       		.uleb128 0xe
 4155 0311 3A       		.uleb128 0x3a
 4156 0312 0B       		.uleb128 0xb
 4157 0313 3B       		.uleb128 0x3b
 4158 0314 0B       		.uleb128 0xb
 4159 0315 27       		.uleb128 0x27
 4160 0316 0C       		.uleb128 0xc
 4161 0317 3C       		.uleb128 0x3c
 4162 0318 0C       		.uleb128 0xc
 4163 0319 00       		.byte	0
 4164 031a 00       		.byte	0
 4165 031b 3C       		.uleb128 0x3c
 4166 031c 2E       		.uleb128 0x2e
 4167 031d 01       		.byte	0x1
 4168 031e 3F       		.uleb128 0x3f
 4169 031f 0C       		.uleb128 0xc
 4170 0320 03       		.uleb128 0x3
 4171 0321 0E       		.uleb128 0xe
 4172 0322 3A       		.uleb128 0x3a
 4173 0323 0B       		.uleb128 0xb
 4174 0324 3B       		.uleb128 0x3b
 4175 0325 0B       		.uleb128 0xb
 4176 0326 27       		.uleb128 0x27
 4177 0327 0C       		.uleb128 0xc
 4178 0328 3C       		.uleb128 0x3c
 4179 0329 0C       		.uleb128 0xc
 4180 032a 01       		.uleb128 0x1
 4181 032b 13       		.uleb128 0x13
 4182 032c 00       		.byte	0
 4183 032d 00       		.byte	0
 4184 032e 3D       		.uleb128 0x3d
 4185 032f 2E       		.uleb128 0x2e
 4186 0330 01       		.byte	0x1
 4187 0331 3F       		.uleb128 0x3f
 4188 0332 0C       		.uleb128 0xc
 4189 0333 03       		.uleb128 0x3
 4190 0334 0E       		.uleb128 0xe
 4191 0335 3A       		.uleb128 0x3a
 4192 0336 0B       		.uleb128 0xb
 4193 0337 3B       		.uleb128 0x3b
 4194 0338 05       		.uleb128 0x5
 4195 0339 27       		.uleb128 0x27
 4196 033a 0C       		.uleb128 0xc
 4197 033b 49       		.uleb128 0x49
ARM GAS  C:\Users\TaisikHam\AppData\Local\Temp\ccO5hARh.s 			page 75


 4198 033c 13       		.uleb128 0x13
 4199 033d 3C       		.uleb128 0x3c
 4200 033e 0C       		.uleb128 0xc
 4201 033f 01       		.uleb128 0x1
 4202 0340 13       		.uleb128 0x13
 4203 0341 00       		.byte	0
 4204 0342 00       		.byte	0
 4205 0343 3E       		.uleb128 0x3e
 4206 0344 2E       		.uleb128 0x2e
 4207 0345 01       		.byte	0x1
 4208 0346 3F       		.uleb128 0x3f
 4209 0347 0C       		.uleb128 0xc
 4210 0348 03       		.uleb128 0x3
 4211 0349 0E       		.uleb128 0xe
 4212 034a 3A       		.uleb128 0x3a
 4213 034b 0B       		.uleb128 0xb
 4214 034c 3B       		.uleb128 0x3b
 4215 034d 05       		.uleb128 0x5
 4216 034e 27       		.uleb128 0x27
 4217 034f 0C       		.uleb128 0xc
 4218 0350 3C       		.uleb128 0x3c
 4219 0351 0C       		.uleb128 0xc
 4220 0352 01       		.uleb128 0x1
 4221 0353 13       		.uleb128 0x13
 4222 0354 00       		.byte	0
 4223 0355 00       		.byte	0
 4224 0356 3F       		.uleb128 0x3f
 4225 0357 2E       		.uleb128 0x2e
 4226 0358 00       		.byte	0
 4227 0359 3F       		.uleb128 0x3f
 4228 035a 0C       		.uleb128 0xc
 4229 035b 03       		.uleb128 0x3
 4230 035c 0E       		.uleb128 0xe
 4231 035d 3A       		.uleb128 0x3a
 4232 035e 0B       		.uleb128 0xb
 4233 035f 3B       		.uleb128 0x3b
 4234 0360 05       		.uleb128 0x5
 4235 0361 27       		.uleb128 0x27
 4236 0362 0C       		.uleb128 0xc
 4237 0363 3C       		.uleb128 0x3c
 4238 0364 0C       		.uleb128 0xc
 4239 0365 00       		.byte	0
 4240 0366 00       		.byte	0
 4241 0367 40       		.uleb128 0x40
 4242 0368 2E       		.uleb128 0x2e
 4243 0369 01       		.byte	0x1
 4244 036a 3F       		.uleb128 0x3f
 4245 036b 0C       		.uleb128 0xc
 4246 036c 03       		.uleb128 0x3
 4247 036d 0E       		.uleb128 0xe
 4248 036e 3A       		.uleb128 0x3a
 4249 036f 0B       		.uleb128 0xb
 4250 0370 3B       		.uleb128 0x3b
 4251 0371 05       		.uleb128 0x5
 4252 0372 27       		.uleb128 0x27
 4253 0373 0C       		.uleb128 0xc
 4254 0374 3C       		.uleb128 0x3c
ARM GAS  C:\Users\TaisikHam\AppData\Local\Temp\ccO5hARh.s 			page 76


 4255 0375 0C       		.uleb128 0xc
 4256 0376 00       		.byte	0
 4257 0377 00       		.byte	0
 4258 0378 00       		.byte	0
 4259              		.section	.debug_loc,"",%progbits
 4260              	.Ldebug_loc0:
 4261              	.LLST0:
 4262 0000 00000000 		.4byte	.LFB121
 4263 0004 04000000 		.4byte	.LCFI0
 4264 0008 0200     		.2byte	0x2
 4265 000a 7D       		.byte	0x7d
 4266 000b 00       		.sleb128 0
 4267 000c 04000000 		.4byte	.LCFI0
 4268 0010 0C010000 		.4byte	.LFE121
 4269 0014 0200     		.2byte	0x2
 4270 0016 7D       		.byte	0x7d
 4271 0017 18       		.sleb128 24
 4272 0018 00000000 		.4byte	0
 4273 001c 00000000 		.4byte	0
 4274              	.LLST1:
 4275 0020 00000000 		.4byte	.LVL4
 4276 0024 12000000 		.4byte	.LVL8
 4277 0028 0100     		.2byte	0x1
 4278 002a 50       		.byte	0x50
 4279 002b 12000000 		.4byte	.LVL8
 4280 002f 8C000000 		.4byte	.LVL36
 4281 0033 0100     		.2byte	0x1
 4282 0035 56       		.byte	0x56
 4283 0036 8C000000 		.4byte	.LVL36
 4284 003a 9C000000 		.4byte	.LVL38
 4285 003e 0100     		.2byte	0x1
 4286 0040 50       		.byte	0x50
 4287 0041 9C000000 		.4byte	.LVL38
 4288 0045 0C010000 		.4byte	.LFE121
 4289 0049 0100     		.2byte	0x1
 4290 004b 56       		.byte	0x56
 4291 004c 00000000 		.4byte	0
 4292 0050 00000000 		.4byte	0
 4293              	.LLST2:
 4294 0054 08000000 		.4byte	.LVL6
 4295 0058 46000000 		.4byte	.LVL21
 4296 005c 0100     		.2byte	0x1
 4297 005e 57       		.byte	0x57
 4298 005f 4C000000 		.4byte	.LVL22
 4299 0063 0C010000 		.4byte	.LFE121
 4300 0067 0100     		.2byte	0x1
 4301 0069 57       		.byte	0x57
 4302 006a 00000000 		.4byte	0
 4303 006e 00000000 		.4byte	0
 4304              	.LLST3:
 4305 0072 2C000000 		.4byte	.LVL15
 4306 0076 2F000000 		.4byte	.LVL16-1
 4307 007a 0100     		.2byte	0x1
 4308 007c 53       		.byte	0x53
 4309 007d 00000000 		.4byte	0
 4310 0081 00000000 		.4byte	0
 4311              	.LLST4:
ARM GAS  C:\Users\TaisikHam\AppData\Local\Temp\ccO5hARh.s 			page 77


 4312 0085 42000000 		.4byte	.LVL20
 4313 0089 4C000000 		.4byte	.LVL22
 4314 008d 0100     		.2byte	0x1
 4315 008f 53       		.byte	0x53
 4316 0090 00000000 		.4byte	0
 4317 0094 00000000 		.4byte	0
 4318              	.LLST5:
 4319 0098 52000000 		.4byte	.LVL24
 4320 009c 55000000 		.4byte	.LVL25-1
 4321 00a0 0100     		.2byte	0x1
 4322 00a2 53       		.byte	0x53
 4323 00a3 00000000 		.4byte	0
 4324 00a7 00000000 		.4byte	0
 4325              	.LLST6:
 4326 00ab 1A000000 		.4byte	.LVL11
 4327 00af 24000000 		.4byte	.LVL13
 4328 00b3 0100     		.2byte	0x1
 4329 00b5 53       		.byte	0x53
 4330 00b6 6A000000 		.4byte	.LVL28
 4331 00ba 6C000000 		.4byte	.LVL29
 4332 00be 0100     		.2byte	0x1
 4333 00c0 53       		.byte	0x53
 4334 00c1 D0000000 		.4byte	.LVL48
 4335 00c5 D2000000 		.4byte	.LVL49
 4336 00c9 0100     		.2byte	0x1
 4337 00cb 53       		.byte	0x53
 4338 00cc 00000000 		.4byte	0
 4339 00d0 00000000 		.4byte	0
 4340              	.LLST7:
 4341 00d4 72000000 		.4byte	.LVL31
 4342 00d8 75000000 		.4byte	.LVL32-1
 4343 00dc 0100     		.2byte	0x1
 4344 00de 53       		.byte	0x53
 4345 00df 00000000 		.4byte	0
 4346 00e3 00000000 		.4byte	0
 4347              	.LLST8:
 4348 00e7 16000000 		.4byte	.LVL10
 4349 00eb 24000000 		.4byte	.LVL13
 4350 00ef 0100     		.2byte	0x1
 4351 00f1 53       		.byte	0x53
 4352 00f2 4C000000 		.4byte	.LVL22
 4353 00f6 4E000000 		.4byte	.LVL23
 4354 00fa 0100     		.2byte	0x1
 4355 00fc 53       		.byte	0x53
 4356 00fd 8A000000 		.4byte	.LVL35
 4357 0101 8C000000 		.4byte	.LVL36
 4358 0105 0100     		.2byte	0x1
 4359 0107 53       		.byte	0x53
 4360 0108 D0000000 		.4byte	.LVL48
 4361 010c D2000000 		.4byte	.LVL49
 4362 0110 0100     		.2byte	0x1
 4363 0112 53       		.byte	0x53
 4364 0113 00000000 		.4byte	0
 4365 0117 00000000 		.4byte	0
 4366              	.LLST9:
 4367 011b 8C000000 		.4byte	.LVL36
 4368 011f D0000000 		.4byte	.LVL48
ARM GAS  C:\Users\TaisikHam\AppData\Local\Temp\ccO5hARh.s 			page 78


 4369 0123 0100     		.2byte	0x1
 4370 0125 54       		.byte	0x54
 4371 0126 00000000 		.4byte	0
 4372 012a 00000000 		.4byte	0
 4373              	.LLST10:
 4374 012e 8C000000 		.4byte	.LVL36
 4375 0132 9C000000 		.4byte	.LVL38
 4376 0136 0100     		.2byte	0x1
 4377 0138 50       		.byte	0x50
 4378 0139 9C000000 		.4byte	.LVL38
 4379 013d D0000000 		.4byte	.LVL48
 4380 0141 0100     		.2byte	0x1
 4381 0143 56       		.byte	0x56
 4382 0144 00000000 		.4byte	0
 4383 0148 00000000 		.4byte	0
 4384              	.LLST11:
 4385 014c 8C000000 		.4byte	.LVL36
 4386 0150 9A000000 		.4byte	.LVL37
 4387 0154 0200     		.2byte	0x2
 4388 0156 30       		.byte	0x30
 4389 0157 9F       		.byte	0x9f
 4390 0158 9A000000 		.4byte	.LVL37
 4391 015c D0000000 		.4byte	.LVL48
 4392 0160 0100     		.2byte	0x1
 4393 0162 58       		.byte	0x58
 4394 0163 00000000 		.4byte	0
 4395 0167 00000000 		.4byte	0
 4396              	.LLST12:
 4397 016b B8000000 		.4byte	.LVL43
 4398 016f BB000000 		.4byte	.LVL44-1
 4399 0173 0100     		.2byte	0x1
 4400 0175 53       		.byte	0x53
 4401 0176 00000000 		.4byte	0
 4402 017a 00000000 		.4byte	0
 4403              	.LLST13:
 4404 017e 12000000 		.4byte	.LVL8
 4405 0182 14000000 		.4byte	.LVL9
 4406 0186 0100     		.2byte	0x1
 4407 0188 53       		.byte	0x53
 4408 0189 CE000000 		.4byte	.LVL47
 4409 018d D0000000 		.4byte	.LVL48
 4410 0191 0100     		.2byte	0x1
 4411 0193 53       		.byte	0x53
 4412 0194 00000000 		.4byte	0
 4413 0198 00000000 		.4byte	0
 4414              	.LLST14:
 4415 019c E2000000 		.4byte	.LVL52
 4416 01a0 E8000000 		.4byte	.LVL53
 4417 01a4 0100     		.2byte	0x1
 4418 01a6 50       		.byte	0x50
 4419 01a7 00000000 		.4byte	0
 4420 01ab 00000000 		.4byte	0
 4421              	.LLST15:
 4422 01af D6000000 		.4byte	.LVL50
 4423 01b3 D9000000 		.4byte	.LVL51-1
 4424 01b7 0100     		.2byte	0x1
 4425 01b9 53       		.byte	0x53
ARM GAS  C:\Users\TaisikHam\AppData\Local\Temp\ccO5hARh.s 			page 79


 4426 01ba 00000000 		.4byte	0
 4427 01be 00000000 		.4byte	0
 4428              	.LLST16:
 4429 01c2 22000000 		.4byte	.LVL12
 4430 01c6 24000000 		.4byte	.LVL13
 4431 01ca 0100     		.2byte	0x1
 4432 01cc 53       		.byte	0x53
 4433 01cd F6000000 		.4byte	.LVL55
 4434 01d1 F8000000 		.4byte	.LVL56
 4435 01d5 0100     		.2byte	0x1
 4436 01d7 53       		.byte	0x53
 4437 01d8 00000000 		.4byte	0
 4438 01dc 00000000 		.4byte	0
 4439              	.LLST17:
 4440 01e0 00000000 		.4byte	.LFB126
 4441 01e4 02000000 		.4byte	.LCFI1
 4442 01e8 0200     		.2byte	0x2
 4443 01ea 7D       		.byte	0x7d
 4444 01eb 00       		.sleb128 0
 4445 01ec 02000000 		.4byte	.LCFI1
 4446 01f0 1E000000 		.4byte	.LFE126
 4447 01f4 0200     		.2byte	0x2
 4448 01f6 7D       		.byte	0x7d
 4449 01f7 08       		.sleb128 8
 4450 01f8 00000000 		.4byte	0
 4451 01fc 00000000 		.4byte	0
 4452              	.LLST18:
 4453 0200 00000000 		.4byte	.LFB127
 4454 0204 02000000 		.4byte	.LCFI2
 4455 0208 0200     		.2byte	0x2
 4456 020a 7D       		.byte	0x7d
 4457 020b 00       		.sleb128 0
 4458 020c 02000000 		.4byte	.LCFI2
 4459 0210 1E000000 		.4byte	.LFE127
 4460 0214 0200     		.2byte	0x2
 4461 0216 7D       		.byte	0x7d
 4462 0217 08       		.sleb128 8
 4463 0218 00000000 		.4byte	0
 4464 021c 00000000 		.4byte	0
 4465              	.LLST19:
 4466 0220 00000000 		.4byte	.LFB128
 4467 0224 02000000 		.4byte	.LCFI3
 4468 0228 0200     		.2byte	0x2
 4469 022a 7D       		.byte	0x7d
 4470 022b 00       		.sleb128 0
 4471 022c 02000000 		.4byte	.LCFI3
 4472 0230 1E000000 		.4byte	.LFE128
 4473 0234 0200     		.2byte	0x2
 4474 0236 7D       		.byte	0x7d
 4475 0237 08       		.sleb128 8
 4476 0238 00000000 		.4byte	0
 4477 023c 00000000 		.4byte	0
 4478              	.LLST20:
 4479 0240 00000000 		.4byte	.LFB129
 4480 0244 02000000 		.4byte	.LCFI4
 4481 0248 0200     		.2byte	0x2
 4482 024a 7D       		.byte	0x7d
ARM GAS  C:\Users\TaisikHam\AppData\Local\Temp\ccO5hARh.s 			page 80


 4483 024b 00       		.sleb128 0
 4484 024c 02000000 		.4byte	.LCFI4
 4485 0250 1E000000 		.4byte	.LFE129
 4486 0254 0200     		.2byte	0x2
 4487 0256 7D       		.byte	0x7d
 4488 0257 08       		.sleb128 8
 4489 0258 00000000 		.4byte	0
 4490 025c 00000000 		.4byte	0
 4491              	.LLST21:
 4492 0260 00000000 		.4byte	.LFB130
 4493 0264 02000000 		.4byte	.LCFI5
 4494 0268 0200     		.2byte	0x2
 4495 026a 7D       		.byte	0x7d
 4496 026b 00       		.sleb128 0
 4497 026c 02000000 		.4byte	.LCFI5
 4498 0270 9C000000 		.4byte	.LFE130
 4499 0274 0200     		.2byte	0x2
 4500 0276 7D       		.byte	0x7d
 4501 0277 18       		.sleb128 24
 4502 0278 00000000 		.4byte	0
 4503 027c 00000000 		.4byte	0
 4504              	.LLST22:
 4505 0280 00000000 		.4byte	.LFB131
 4506 0284 02000000 		.4byte	.LCFI6
 4507 0288 0200     		.2byte	0x2
 4508 028a 7D       		.byte	0x7d
 4509 028b 00       		.sleb128 0
 4510 028c 02000000 		.4byte	.LCFI6
 4511 0290 E0000000 		.4byte	.LFE131
 4512 0294 0200     		.2byte	0x2
 4513 0296 7D       		.byte	0x7d
 4514 0297 18       		.sleb128 24
 4515 0298 00000000 		.4byte	0
 4516 029c 00000000 		.4byte	0
 4517              	.LLST23:
 4518 02a0 00000000 		.4byte	.LVL78
 4519 02a4 12000000 		.4byte	.LVL80
 4520 02a8 0100     		.2byte	0x1
 4521 02aa 50       		.byte	0x50
 4522 02ab 12000000 		.4byte	.LVL80
 4523 02af 26000000 		.4byte	.LVL82
 4524 02b3 0100     		.2byte	0x1
 4525 02b5 54       		.byte	0x54
 4526 02b6 26000000 		.4byte	.LVL82
 4527 02ba 4A000000 		.4byte	.LVL83
 4528 02be 0400     		.2byte	0x4
 4529 02c0 F3       		.byte	0xf3
 4530 02c1 01       		.uleb128 0x1
 4531 02c2 50       		.byte	0x50
 4532 02c3 9F       		.byte	0x9f
 4533 02c4 4A000000 		.4byte	.LVL83
 4534 02c8 6C000000 		.4byte	.LVL84
 4535 02cc 0100     		.2byte	0x1
 4536 02ce 50       		.byte	0x50
 4537 02cf 6C000000 		.4byte	.LVL84
 4538 02d3 7C000000 		.4byte	.LVL86
 4539 02d7 0100     		.2byte	0x1
ARM GAS  C:\Users\TaisikHam\AppData\Local\Temp\ccO5hARh.s 			page 81


 4540 02d9 54       		.byte	0x54
 4541 02da 7C000000 		.4byte	.LVL86
 4542 02de 86000000 		.4byte	.LVL87
 4543 02e2 0100     		.2byte	0x1
 4544 02e4 50       		.byte	0x50
 4545 02e5 86000000 		.4byte	.LVL87
 4546 02e9 96000000 		.4byte	.LVL89
 4547 02ed 0100     		.2byte	0x1
 4548 02ef 54       		.byte	0x54
 4549 02f0 96000000 		.4byte	.LVL89
 4550 02f4 A0000000 		.4byte	.LVL90
 4551 02f8 0100     		.2byte	0x1
 4552 02fa 50       		.byte	0x50
 4553 02fb A0000000 		.4byte	.LVL90
 4554 02ff B0000000 		.4byte	.LVL92
 4555 0303 0100     		.2byte	0x1
 4556 0305 54       		.byte	0x54
 4557 0306 B0000000 		.4byte	.LVL92
 4558 030a BA000000 		.4byte	.LVL93
 4559 030e 0100     		.2byte	0x1
 4560 0310 50       		.byte	0x50
 4561 0311 BA000000 		.4byte	.LVL93
 4562 0315 E0000000 		.4byte	.LFE131
 4563 0319 0100     		.2byte	0x1
 4564 031b 54       		.byte	0x54
 4565 031c 00000000 		.4byte	0
 4566 0320 00000000 		.4byte	0
 4567              	.LLST24:
 4568 0324 00000000 		.4byte	.LVL78
 4569 0328 0C000000 		.4byte	.LVL79
 4570 032c 0100     		.2byte	0x1
 4571 032e 51       		.byte	0x51
 4572 032f 0C000000 		.4byte	.LVL79
 4573 0333 E0000000 		.4byte	.LFE131
 4574 0337 0100     		.2byte	0x1
 4575 0339 55       		.byte	0x55
 4576 033a 00000000 		.4byte	0
 4577 033e 00000000 		.4byte	0
 4578              	.LLST25:
 4579 0342 12000000 		.4byte	.LVL80
 4580 0346 4A000000 		.4byte	.LVL83
 4581 034a 0100     		.2byte	0x1
 4582 034c 55       		.byte	0x55
 4583 034d 00000000 		.4byte	0
 4584 0351 00000000 		.4byte	0
 4585              	.LLST26:
 4586 0355 12000000 		.4byte	.LVL80
 4587 0359 26000000 		.4byte	.LVL82
 4588 035d 0100     		.2byte	0x1
 4589 035f 54       		.byte	0x54
 4590 0360 26000000 		.4byte	.LVL82
 4591 0364 4A000000 		.4byte	.LVL83
 4592 0368 0400     		.2byte	0x4
 4593 036a F3       		.byte	0xf3
 4594 036b 01       		.uleb128 0x1
 4595 036c 50       		.byte	0x50
 4596 036d 9F       		.byte	0x9f
ARM GAS  C:\Users\TaisikHam\AppData\Local\Temp\ccO5hARh.s 			page 82


 4597 036e 00000000 		.4byte	0
 4598 0372 00000000 		.4byte	0
 4599              	.LLST27:
 4600 0376 1E000000 		.4byte	.LVL81
 4601 037a 4A000000 		.4byte	.LVL83
 4602 037e 0100     		.2byte	0x1
 4603 0380 53       		.byte	0x53
 4604 0381 00000000 		.4byte	0
 4605 0385 00000000 		.4byte	0
 4606              	.LLST28:
 4607 0389 00000000 		.4byte	.LVL95
 4608 038d 34000000 		.4byte	.LVL98
 4609 0391 0100     		.2byte	0x1
 4610 0393 50       		.byte	0x50
 4611 0394 34000000 		.4byte	.LVL98
 4612 0398 40000000 		.4byte	.LVL99
 4613 039c 0400     		.2byte	0x4
 4614 039e F3       		.byte	0xf3
 4615 039f 01       		.uleb128 0x1
 4616 03a0 50       		.byte	0x50
 4617 03a1 9F       		.byte	0x9f
 4618 03a2 40000000 		.4byte	.LVL99
 4619 03a6 4A000000 		.4byte	.LVL100
 4620 03aa 0100     		.2byte	0x1
 4621 03ac 50       		.byte	0x50
 4622 03ad 4A000000 		.4byte	.LVL100
 4623 03b1 56000000 		.4byte	.LVL101
 4624 03b5 0400     		.2byte	0x4
 4625 03b7 F3       		.byte	0xf3
 4626 03b8 01       		.uleb128 0x1
 4627 03b9 50       		.byte	0x50
 4628 03ba 9F       		.byte	0x9f
 4629 03bb 56000000 		.4byte	.LVL101
 4630 03bf 60000000 		.4byte	.LVL102
 4631 03c3 0100     		.2byte	0x1
 4632 03c5 50       		.byte	0x50
 4633 03c6 60000000 		.4byte	.LVL102
 4634 03ca 6C000000 		.4byte	.LVL103
 4635 03ce 0400     		.2byte	0x4
 4636 03d0 F3       		.byte	0xf3
 4637 03d1 01       		.uleb128 0x1
 4638 03d2 50       		.byte	0x50
 4639 03d3 9F       		.byte	0x9f
 4640 03d4 6C000000 		.4byte	.LVL103
 4641 03d8 76000000 		.4byte	.LVL104
 4642 03dc 0100     		.2byte	0x1
 4643 03de 50       		.byte	0x50
 4644 03df 76000000 		.4byte	.LVL104
 4645 03e3 94000000 		.4byte	.LFE132
 4646 03e7 0400     		.2byte	0x4
 4647 03e9 F3       		.byte	0xf3
 4648 03ea 01       		.uleb128 0x1
 4649 03eb 50       		.byte	0x50
 4650 03ec 9F       		.byte	0x9f
 4651 03ed 00000000 		.4byte	0
 4652 03f1 00000000 		.4byte	0
 4653              	.LLST29:
ARM GAS  C:\Users\TaisikHam\AppData\Local\Temp\ccO5hARh.s 			page 83


 4654 03f5 0A000000 		.4byte	.LVL96
 4655 03f9 14000000 		.4byte	.LVL97
 4656 03fd 0100     		.2byte	0x1
 4657 03ff 53       		.byte	0x53
 4658 0400 14000000 		.4byte	.LVL97
 4659 0404 34000000 		.4byte	.LVL98
 4660 0408 0300     		.2byte	0x3
 4661 040a 70       		.byte	0x70
 4662 040b F400     		.sleb128 116
 4663 040d 34000000 		.4byte	.LVL98
 4664 0411 3F000000 		.4byte	.LVL99-1
 4665 0415 0500     		.2byte	0x5
 4666 0417 F3       		.byte	0xf3
 4667 0418 01       		.uleb128 0x1
 4668 0419 50       		.byte	0x50
 4669 041a 23       		.byte	0x23
 4670 041b 74       		.uleb128 0x74
 4671 041c 40000000 		.4byte	.LVL99
 4672 0420 4A000000 		.4byte	.LVL100
 4673 0424 0300     		.2byte	0x3
 4674 0426 70       		.byte	0x70
 4675 0427 F400     		.sleb128 116
 4676 0429 4A000000 		.4byte	.LVL100
 4677 042d 55000000 		.4byte	.LVL101-1
 4678 0431 0500     		.2byte	0x5
 4679 0433 F3       		.byte	0xf3
 4680 0434 01       		.uleb128 0x1
 4681 0435 50       		.byte	0x50
 4682 0436 23       		.byte	0x23
 4683 0437 74       		.uleb128 0x74
 4684 0438 56000000 		.4byte	.LVL101
 4685 043c 60000000 		.4byte	.LVL102
 4686 0440 0300     		.2byte	0x3
 4687 0442 70       		.byte	0x70
 4688 0443 F400     		.sleb128 116
 4689 0445 60000000 		.4byte	.LVL102
 4690 0449 6B000000 		.4byte	.LVL103-1
 4691 044d 0500     		.2byte	0x5
 4692 044f F3       		.byte	0xf3
 4693 0450 01       		.uleb128 0x1
 4694 0451 50       		.byte	0x50
 4695 0452 23       		.byte	0x23
 4696 0453 74       		.uleb128 0x74
 4697 0454 6C000000 		.4byte	.LVL103
 4698 0458 76000000 		.4byte	.LVL104
 4699 045c 0300     		.2byte	0x3
 4700 045e 70       		.byte	0x70
 4701 045f F400     		.sleb128 116
 4702 0461 76000000 		.4byte	.LVL104
 4703 0465 81000000 		.4byte	.LVL105-1
 4704 0469 0500     		.2byte	0x5
 4705 046b F3       		.byte	0xf3
 4706 046c 01       		.uleb128 0x1
 4707 046d 50       		.byte	0x50
 4708 046e 23       		.byte	0x23
 4709 046f 74       		.uleb128 0x74
 4710 0470 00000000 		.4byte	0
ARM GAS  C:\Users\TaisikHam\AppData\Local\Temp\ccO5hARh.s 			page 84


 4711 0474 00000000 		.4byte	0
 4712              		.section	.debug_aranges,"",%progbits
 4713 0000 74000000 		.4byte	0x74
 4714 0004 0200     		.2byte	0x2
 4715 0006 00000000 		.4byte	.Ldebug_info0
 4716 000a 04       		.byte	0x4
 4717 000b 00       		.byte	0
 4718 000c 0000     		.2byte	0
 4719 000e 0000     		.2byte	0
 4720 0010 00000000 		.4byte	.LFB122
 4721 0014 12000000 		.4byte	.LFE122-.LFB122
 4722 0018 00000000 		.4byte	.LFB123
 4723 001c 12000000 		.4byte	.LFE123-.LFB123
 4724 0020 00000000 		.4byte	.LFB124
 4725 0024 12000000 		.4byte	.LFE124-.LFB124
 4726 0028 00000000 		.4byte	.LFB125
 4727 002c 12000000 		.4byte	.LFE125-.LFB125
 4728 0030 00000000 		.4byte	.LFB121
 4729 0034 0C010000 		.4byte	.LFE121-.LFB121
 4730 0038 00000000 		.4byte	.LFB126
 4731 003c 1E000000 		.4byte	.LFE126-.LFB126
 4732 0040 00000000 		.4byte	.LFB127
 4733 0044 1E000000 		.4byte	.LFE127-.LFB127
 4734 0048 00000000 		.4byte	.LFB128
 4735 004c 1E000000 		.4byte	.LFE128-.LFB128
 4736 0050 00000000 		.4byte	.LFB129
 4737 0054 1E000000 		.4byte	.LFE129-.LFB129
 4738 0058 00000000 		.4byte	.LFB130
 4739 005c 9C000000 		.4byte	.LFE130-.LFB130
 4740 0060 00000000 		.4byte	.LFB131
 4741 0064 E0000000 		.4byte	.LFE131-.LFB131
 4742 0068 00000000 		.4byte	.LFB132
 4743 006c 94000000 		.4byte	.LFE132-.LFB132
 4744 0070 00000000 		.4byte	0
 4745 0074 00000000 		.4byte	0
 4746              		.section	.debug_ranges,"",%progbits
 4747              	.Ldebug_ranges0:
 4748 0000 00000000 		.4byte	.LFB122
 4749 0004 12000000 		.4byte	.LFE122
 4750 0008 00000000 		.4byte	.LFB123
 4751 000c 12000000 		.4byte	.LFE123
 4752 0010 00000000 		.4byte	.LFB124
 4753 0014 12000000 		.4byte	.LFE124
 4754 0018 00000000 		.4byte	.LFB125
 4755 001c 12000000 		.4byte	.LFE125
 4756 0020 00000000 		.4byte	.LFB121
 4757 0024 0C010000 		.4byte	.LFE121
 4758 0028 00000000 		.4byte	.LFB126
 4759 002c 1E000000 		.4byte	.LFE126
 4760 0030 00000000 		.4byte	.LFB127
 4761 0034 1E000000 		.4byte	.LFE127
 4762 0038 00000000 		.4byte	.LFB128
 4763 003c 1E000000 		.4byte	.LFE128
 4764 0040 00000000 		.4byte	.LFB129
 4765 0044 1E000000 		.4byte	.LFE129
 4766 0048 00000000 		.4byte	.LFB130
 4767 004c 9C000000 		.4byte	.LFE130
ARM GAS  C:\Users\TaisikHam\AppData\Local\Temp\ccO5hARh.s 			page 85


 4768 0050 00000000 		.4byte	.LFB131
 4769 0054 E0000000 		.4byte	.LFE131
 4770 0058 00000000 		.4byte	.LFB132
 4771 005c 94000000 		.4byte	.LFE132
 4772 0060 00000000 		.4byte	0
 4773 0064 00000000 		.4byte	0
 4774              		.section	.debug_line,"",%progbits
 4775              	.Ldebug_line0:
 4776 0000 5D040000 		.section	.debug_str,"MS",%progbits,1
 4776      0200AE02 
 4776      00000201 
 4776      FB0E0D00 
 4776      01010101 
 4777              	.LASF149:
 4778 0000 6E766963 		.ascii	"nvicEnableVector\000"
 4778      456E6162 
 4778      6C655665 
 4778      63746F72 
 4778      00
 4779              	.LASF2:
 4780 0011 73697A65 		.ascii	"size_t\000"
 4780      5F7400
 4781              	.LASF64:
 4782 0018 7264796D 		.ascii	"rdymsg\000"
 4782      736700
 4783              	.LASF13:
 4784 001f 75696E74 		.ascii	"uint64_t\000"
 4784      36345F74 
 4784      00
 4785              	.LASF80:
 4786 0028 4F757470 		.ascii	"OutputQueue\000"
 4786      75745175 
 4786      65756500 
 4787              	.LASF130:
 4788 0034 7365745F 		.ascii	"set_error\000"
 4788      6572726F 
 4788      7200
 4789              	.LASF14:
 4790 003e 6C6F6E67 		.ascii	"long long unsigned int\000"
 4790      206C6F6E 
 4790      6720756E 
 4790      7369676E 
 4790      65642069 
 4791              	.LASF65:
 4792 0055 65786974 		.ascii	"exitcode\000"
 4792      636F6465 
 4792      00
 4793              	.LASF140:
 4794 005e 49544D5F 		.ascii	"ITM_RxBuffer\000"
 4794      52784275 
 4794      66666572 
 4794      00
 4795              	.LASF148:
 4796 006b 73644F62 		.ascii	"sdObjectInit\000"
 4796      6A656374 
 4796      496E6974 
 4796      00
ARM GAS  C:\Users\TaisikHam\AppData\Local\Temp\ccO5hARh.s 			page 86


 4797              	.LASF122:
 4798 0078 72656164 		.ascii	"readt\000"
 4798      7400
 4799              	.LASF70:
 4800 007e 715F7761 		.ascii	"q_waiting\000"
 4800      6974696E 
 4800      6700
 4801              	.LASF12:
 4802 0088 6C6F6E67 		.ascii	"long long int\000"
 4802      206C6F6E 
 4802      6720696E 
 4802      7400
 4803              	.LASF1:
 4804 0096 7369676E 		.ascii	"signed char\000"
 4804      65642063 
 4804      68617200 
 4805              	.LASF93:
 4806 00a2 47545052 		.ascii	"GTPR\000"
 4806      00
 4807              	.LASF45:
 4808 00a7 705F6D70 		.ascii	"p_mpool\000"
 4808      6F6F6C00 
 4809              	.LASF54:
 4810 00af 6D5F7175 		.ascii	"m_queue\000"
 4810      65756500 
 4811              	.LASF19:
 4812 00b7 74736C69 		.ascii	"tslices_t\000"
 4812      6365735F 
 4812      7400
 4813              	.LASF91:
 4814 00c1 5243435F 		.ascii	"RCC_TypeDef\000"
 4814      54797065 
 4814      44656600 
 4815              	.LASF139:
 4816 00cd 64656661 		.ascii	"default_config\000"
 4816      756C745F 
 4816      636F6E66 
 4816      696700
 4817              	.LASF106:
 4818 00dc 73746174 		.ascii	"state\000"
 4818      6500
 4819              	.LASF9:
 4820 00e2 6C6F6E67 		.ascii	"long int\000"
 4820      20696E74 
 4820      00
 4821              	.LASF82:
 4822 00eb 41504232 		.ascii	"APB2RSTR\000"
 4822      52535452 
 4822      00
 4823              	.LASF17:
 4824 00f4 74737461 		.ascii	"tstate_t\000"
 4824      74655F74 
 4824      00
 4825              	.LASF153:
 4826 00fd 63684F51 		.ascii	"chOQGetI\000"
 4826      47657449 
 4826      00
ARM GAS  C:\Users\TaisikHam\AppData\Local\Temp\ccO5hARh.s 			page 87


 4827              	.LASF36:
 4828 0106 705F7265 		.ascii	"p_refs\000"
 4828      667300
 4829              	.LASF72:
 4830 010d 715F6275 		.ascii	"q_buffer\000"
 4830      66666572 
 4830      00
 4831              	.LASF152:
 4832 0116 633A5C55 		.ascii	"c:\\Users\\TaisikHam\\Documents\\GitHub\\ChibiOS\\t"
 4832      73657273 
 4832      5C546169 
 4832      73696B48 
 4832      616D5C44 
 4833 0143 65737468 		.ascii	"esthal\\STM32F30x\\TS_SPI\000"
 4833      616C5C53 
 4833      544D3332 
 4833      46333078 
 4833      5C54535F 
 4834              	.LASF74:
 4835 015b 715F7772 		.ascii	"q_wrptr\000"
 4835      70747200 
 4836              	.LASF38:
 4837 0163 705F7469 		.ascii	"p_time\000"
 4837      6D6500
 4838              	.LASF143:
 4839 016a 63684576 		.ascii	"chEvtBroadcastFlagsI\000"
 4839      7442726F 
 4839      61646361 
 4839      7374466C 
 4839      61677349 
 4840              	.LASF111:
 4841 017f 73635F73 		.ascii	"sc_speed\000"
 4841      70656564 
 4841      00
 4842              	.LASF30:
 4843 0188 705F6E65 		.ascii	"p_newer\000"
 4843      77657200 
 4844              	.LASF48:
 4845 0190 72656761 		.ascii	"regarm_t\000"
 4845      726D5F74 
 4845      00
 4846              	.LASF125:
 4847 0199 75736172 		.ascii	"usart_deinit\000"
 4847      745F6465 
 4847      696E6974 
 4847      00
 4848              	.LASF62:
 4849 01a6 4576656E 		.ascii	"EventSource\000"
 4849      74536F75 
 4849      72636500 
 4850              	.LASF109:
 4851 01b2 75736172 		.ascii	"usart\000"
 4851      7400
 4852              	.LASF0:
 4853 01b8 756E7369 		.ascii	"unsigned int\000"
 4853      676E6564 
 4853      20696E74 
ARM GAS  C:\Users\TaisikHam\AppData\Local\Temp\ccO5hARh.s 			page 88


 4853      00
 4854              	.LASF6:
 4855 01c5 75696E74 		.ascii	"uint16_t\000"
 4855      31365F74 
 4855      00
 4856              	.LASF116:
 4857 01ce 53657269 		.ascii	"SerialDriverVMT\000"
 4857      616C4472 
 4857      69766572 
 4857      564D5400 
 4858              	.LASF107:
 4859 01de 69717565 		.ascii	"iqueue\000"
 4859      756500
 4860              	.LASF40:
 4861 01e5 705F6D73 		.ascii	"p_msgqueue\000"
 4861      67717565 
 4861      756500
 4862              	.LASF136:
 4863 01f0 73645F6C 		.ascii	"sd_lld_init\000"
 4863      6C645F69 
 4863      6E697400 
 4864              	.LASF120:
 4865 01fc 67657474 		.ascii	"gett\000"
 4865      00
 4866              	.LASF105:
 4867 0201 6576656E 		.ascii	"event\000"
 4867      7400
 4868              	.LASF7:
 4869 0207 73686F72 		.ascii	"short unsigned int\000"
 4869      7420756E 
 4869      7369676E 
 4869      65642069 
 4869      6E7400
 4870              	.LASF21:
 4871 021a 6D73675F 		.ascii	"msg_t\000"
 4871      7400
 4872              	.LASF108:
 4873 0220 6F717565 		.ascii	"oqueue\000"
 4873      756500
 4874              	.LASF147:
 4875 0227 5F706F72 		.ascii	"_port_irq_epilogue\000"
 4875      745F6972 
 4875      715F6570 
 4875      696C6F67 
 4875      756500
 4876              	.LASF99:
 4877 023a 55534152 		.ascii	"USART_TypeDef\000"
 4877      545F5479 
 4877      70654465 
 4877      6600
 4878              	.LASF121:
 4879 0248 77726974 		.ascii	"writet\000"
 4879      657400
 4880              	.LASF16:
 4881 024f 746D6F64 		.ascii	"tmode_t\000"
 4881      655F7400 
 4882              	.LASF47:
ARM GAS  C:\Users\TaisikHam\AppData\Local\Temp\ccO5hARh.s 			page 89


 4883 0257 54687265 		.ascii	"ThreadsList\000"
 4883      6164734C 
 4883      69737400 
 4884              	.LASF22:
 4885 0263 6576656E 		.ascii	"eventmask_t\000"
 4885      746D6173 
 4885      6B5F7400 
 4886              	.LASF132:
 4887 026f 56656374 		.ascii	"VectorD4\000"
 4887      6F724434 
 4887      00
 4888              	.LASF151:
 4889 0278 2E2E2F2E 		.ascii	"../../../os/hal/platforms/STM32/USARTv2/serial_lld."
 4889      2E2F2E2E 
 4889      2F6F732F 
 4889      68616C2F 
 4889      706C6174 
 4890 02ab 6300     		.ascii	"c\000"
 4891              	.LASF133:
 4892 02ad 56656374 		.ascii	"VectorD8\000"
 4892      6F724438 
 4892      00
 4893              	.LASF78:
 4894 02b6 716E6F74 		.ascii	"qnotify_t\000"
 4894      6966795F 
 4894      7400
 4895              	.LASF69:
 4896 02c0 47656E65 		.ascii	"GenericQueue\000"
 4896      72696351 
 4896      75657565 
 4896      00
 4897              	.LASF49:
 4898 02cd 73746B61 		.ascii	"stkalign_t\000"
 4898      6C69676E 
 4898      5F7400
 4899              	.LASF134:
 4900 02d8 56656374 		.ascii	"VectorDC\000"
 4900      6F724443 
 4900      00
 4901              	.LASF117:
 4902 02e1 77726974 		.ascii	"write\000"
 4902      6500
 4903              	.LASF119:
 4904 02e7 70757474 		.ascii	"putt\000"
 4904      00
 4905              	.LASF124:
 4906 02ec 75736172 		.ascii	"usart_init\000"
 4906      745F696E 
 4906      697400
 4907              	.LASF52:
 4908 02f7 73697A65 		.ascii	"sizetype\000"
 4908      74797065 
 4908      00
 4909              	.LASF71:
 4910 0300 715F636F 		.ascii	"q_counter\000"
 4910      756E7465 
 4910      7200
ARM GAS  C:\Users\TaisikHam\AppData\Local\Temp\ccO5hARh.s 			page 90


 4911              	.LASF53:
 4912 030a 4D757465 		.ascii	"Mutex\000"
 4912      7800
 4913              	.LASF26:
 4914 0310 705F6E65 		.ascii	"p_next\000"
 4914      787400
 4915              	.LASF31:
 4916 0317 705F6F6C 		.ascii	"p_older\000"
 4916      64657200 
 4917              	.LASF46:
 4918 031f 54687265 		.ascii	"ThreadsQueue\000"
 4918      61647351 
 4918      75657565 
 4918      00
 4919              	.LASF88:
 4920 032c 41484252 		.ascii	"AHBRSTR\000"
 4920      53545200 
 4921              	.LASF150:
 4922 0334 474E5520 		.ascii	"GNU C 4.7.2\000"
 4922      4320342E 
 4922      372E3200 
 4923              	.LASF83:
 4924 0340 41504231 		.ascii	"APB1RSTR\000"
 4924      52535452 
 4924      00
 4925              	.LASF60:
 4926 0349 656C5F6D 		.ascii	"el_mask\000"
 4926      61736B00 
 4927              	.LASF115:
 4928 0351 53657269 		.ascii	"SerialConfig\000"
 4928      616C436F 
 4928      6E666967 
 4928      00
 4929              	.LASF126:
 4930 035e 6E6F7469 		.ascii	"notify1\000"
 4930      66793100 
 4931              	.LASF127:
 4932 0366 6E6F7469 		.ascii	"notify2\000"
 4932      66793200 
 4933              	.LASF128:
 4934 036e 6E6F7469 		.ascii	"notify3\000"
 4934      66793300 
 4935              	.LASF129:
 4936 0376 6E6F7469 		.ascii	"notify4\000"
 4936      66793400 
 4937              	.LASF18:
 4938 037e 74726566 		.ascii	"trefs_t\000"
 4938      735F7400 
 4939              	.LASF92:
 4940 0386 52455345 		.ascii	"RESERVED1\000"
 4940      52564544 
 4940      3100
 4941              	.LASF94:
 4942 0390 52455345 		.ascii	"RESERVED2\000"
 4942      52564544 
 4942      3200
 4943              	.LASF96:
ARM GAS  C:\Users\TaisikHam\AppData\Local\Temp\ccO5hARh.s 			page 91


 4944 039a 52455345 		.ascii	"RESERVED3\000"
 4944      52564544 
 4944      3300
 4945              	.LASF97:
 4946 03a4 52455345 		.ascii	"RESERVED4\000"
 4946      52564544 
 4946      3400
 4947              	.LASF27:
 4948 03ae 705F7072 		.ascii	"p_prev\000"
 4948      657600
 4949              	.LASF20:
 4950 03b5 74707269 		.ascii	"tprio_t\000"
 4950      6F5F7400 
 4951              	.LASF75:
 4952 03bd 715F7264 		.ascii	"q_rdptr\000"
 4952      70747200 
 4953              	.LASF15:
 4954 03c5 5F426F6F 		.ascii	"_Bool\000"
 4954      6C00
 4955              	.LASF8:
 4956 03cb 696E7433 		.ascii	"int32_t\000"
 4956      325F7400 
 4957              	.LASF4:
 4958 03d3 756E7369 		.ascii	"unsigned char\000"
 4958      676E6564 
 4958      20636861 
 4958      7200
 4959              	.LASF137:
 4960 03e1 73645F6C 		.ascii	"sd_lld_start\000"
 4960      6C645F73 
 4960      74617274 
 4960      00
 4961              	.LASF59:
 4962 03ee 656C5F6C 		.ascii	"el_listener\000"
 4962      69737465 
 4962      6E657200 
 4963              	.LASF61:
 4964 03fa 656C5F66 		.ascii	"el_flags\000"
 4964      6C616773 
 4964      00
 4965              	.LASF34:
 4966 0403 705F7374 		.ascii	"p_state\000"
 4966      61746500 
 4967              	.LASF43:
 4968 040b 705F6D74 		.ascii	"p_mtxlist\000"
 4968      786C6973 
 4968      7400
 4969              	.LASF5:
 4970 0415 73686F72 		.ascii	"short int\000"
 4970      7420696E 
 4970      7400
 4971              	.LASF37:
 4972 041f 705F7072 		.ascii	"p_preempt\000"
 4972      65656D70 
 4972      7400
 4973              	.LASF67:
 4974 0429 65776D61 		.ascii	"ewmask\000"
ARM GAS  C:\Users\TaisikHam\AppData\Local\Temp\ccO5hARh.s 			page 92


 4974      736B00
 4975              	.LASF35:
 4976 0430 705F666C 		.ascii	"p_flags\000"
 4976      61677300 
 4977              	.LASF58:
 4978 0438 656C5F6E 		.ascii	"el_next\000"
 4978      65787400 
 4979              	.LASF101:
 4980 0440 53445F53 		.ascii	"SD_STOP\000"
 4980      544F5000 
 4981              	.LASF85:
 4982 0448 41504232 		.ascii	"APB2ENR\000"
 4982      454E5200 
 4983              	.LASF25:
 4984 0450 54687265 		.ascii	"Thread\000"
 4984      616400
 4985              	.LASF131:
 4986 0457 73657276 		.ascii	"serve_interrupt\000"
 4986      655F696E 
 4986      74657272 
 4986      75707400 
 4987              	.LASF42:
 4988 0467 705F6570 		.ascii	"p_epending\000"
 4988      656E6469 
 4988      6E6700
 4989              	.LASF100:
 4990 0472 53445F55 		.ascii	"SD_UNINIT\000"
 4990      4E494E49 
 4990      5400
 4991              	.LASF98:
 4992 047c 52455345 		.ascii	"RESERVED5\000"
 4992      52564544 
 4992      3500
 4993              	.LASF10:
 4994 0486 75696E74 		.ascii	"uint32_t\000"
 4994      33325F74 
 4994      00
 4995              	.LASF103:
 4996 048f 73647374 		.ascii	"sdstate_t\000"
 4996      6174655F 
 4996      7400
 4997              	.LASF104:
 4998 0499 53657269 		.ascii	"SerialDriver\000"
 4998      616C4472 
 4998      69766572 
 4998      00
 4999              	.LASF154:
 5000 04a6 6E766963 		.ascii	"nvicDisableVector\000"
 5000      44697361 
 5000      626C6556 
 5000      6563746F 
 5000      7200
 5001              	.LASF11:
 5002 04b8 6C6F6E67 		.ascii	"long unsigned int\000"
 5002      20756E73 
 5002      69676E65 
 5002      6420696E 
ARM GAS  C:\Users\TaisikHam\AppData\Local\Temp\ccO5hARh.s 			page 93


 5002      7400
 5003              	.LASF118:
 5004 04ca 72656164 		.ascii	"read\000"
 5004      00
 5005              	.LASF68:
 5006 04cf 63686172 		.ascii	"char\000"
 5006      00
 5007              	.LASF144:
 5008 04d4 7364496E 		.ascii	"sdIncomingDataI\000"
 5008      636F6D69 
 5008      6E674461 
 5008      74614900 
 5009              	.LASF123:
 5010 04e4 636F6E66 		.ascii	"config\000"
 5010      696700
 5011              	.LASF56:
 5012 04eb 6D5F6E65 		.ascii	"m_next\000"
 5012      787400
 5013              	.LASF24:
 5014 04f2 73797374 		.ascii	"systime_t\000"
 5014      696D655F 
 5014      7400
 5015              	.LASF44:
 5016 04fc 705F7265 		.ascii	"p_realprio\000"
 5016      616C7072 
 5016      696F00
 5017              	.LASF33:
 5018 0507 705F7374 		.ascii	"p_stklimit\000"
 5018      6B6C696D 
 5018      697400
 5019              	.LASF135:
 5020 0512 56656374 		.ascii	"Vector110\000"
 5020      6F723131 
 5020      3000
 5021              	.LASF95:
 5022 051c 52544F52 		.ascii	"RTOR\000"
 5022      00
 5023              	.LASF86:
 5024 0521 41504231 		.ascii	"APB1ENR\000"
 5024      454E5200 
 5025              	.LASF51:
 5026 0529 636F6E74 		.ascii	"context\000"
 5026      65787400 
 5027              	.LASF142:
 5028 0531 6462675F 		.ascii	"dbg_check_unlock_from_isr\000"
 5028      63686563 
 5028      6B5F756E 
 5028      6C6F636B 
 5028      5F66726F 
 5029              	.LASF146:
 5030 054b 6462675F 		.ascii	"dbg_check_leave_isr\000"
 5030      63686563 
 5030      6B5F6C65 
 5030      6176655F 
 5030      69737200 
 5031              	.LASF50:
 5032 055f 696E7463 		.ascii	"intctx\000"
ARM GAS  C:\Users\TaisikHam\AppData\Local\Temp\ccO5hARh.s 			page 94


 5032      747800
 5033              	.LASF102:
 5034 0566 53445F52 		.ascii	"SD_READY\000"
 5034      45414459 
 5034      00
 5035              	.LASF23:
 5036 056f 666C6167 		.ascii	"flagsmask_t\000"
 5036      736D6173 
 5036      6B5F7400 
 5037              	.LASF73:
 5038 057b 715F746F 		.ascii	"q_top\000"
 5038      7000
 5039              	.LASF32:
 5040 0581 705F6E61 		.ascii	"p_name\000"
 5040      6D6500
 5041              	.LASF63:
 5042 0588 65735F6E 		.ascii	"es_next\000"
 5042      65787400 
 5043              	.LASF87:
 5044 0590 42444352 		.ascii	"BDCR\000"
 5044      00
 5045              	.LASF76:
 5046 0595 715F6E6F 		.ascii	"q_notify\000"
 5046      74696679 
 5046      00
 5047              	.LASF145:
 5048 059e 6462675F 		.ascii	"dbg_check_enter_isr\000"
 5048      63686563 
 5048      6B5F656E 
 5048      7465725F 
 5048      69737200 
 5049              	.LASF41:
 5050 05b2 705F6D73 		.ascii	"p_msg\000"
 5050      6700
 5051              	.LASF89:
 5052 05b8 43464752 		.ascii	"CFGR2\000"
 5052      3200
 5053              	.LASF90:
 5054 05be 43464752 		.ascii	"CFGR3\000"
 5054      3300
 5055              	.LASF3:
 5056 05c4 75696E74 		.ascii	"uint8_t\000"
 5056      385F7400 
 5057              	.LASF79:
 5058 05cc 496E7075 		.ascii	"InputQueue\000"
 5058      74517565 
 5058      756500
 5059              	.LASF141:
 5060 05d7 6462675F 		.ascii	"dbg_check_lock_from_isr\000"
 5060      63686563 
 5060      6B5F6C6F 
 5060      636B5F66 
 5060      726F6D5F 
 5061              	.LASF28:
 5062 05ef 705F7072 		.ascii	"p_prio\000"
 5062      696F00
 5063              	.LASF57:
ARM GAS  C:\Users\TaisikHam\AppData\Local\Temp\ccO5hARh.s 			page 95


 5064 05f6 4576656E 		.ascii	"EventListener\000"
 5064      744C6973 
 5064      74656E65 
 5064      7200
 5065              	.LASF66:
 5066 0604 77746F62 		.ascii	"wtobjp\000"
 5066      6A7000
 5067              	.LASF138:
 5068 060b 73645F6C 		.ascii	"sd_lld_stop\000"
 5068      6C645F73 
 5068      746F7000 
 5069              	.LASF81:
 5070 0617 43464752 		.ascii	"CFGR\000"
 5070      00
 5071              	.LASF110:
 5072 061c 636C6F63 		.ascii	"clock\000"
 5072      6B00
 5073              	.LASF112:
 5074 0622 73635F63 		.ascii	"sc_cr1\000"
 5074      723100
 5075              	.LASF113:
 5076 0629 73635F63 		.ascii	"sc_cr2\000"
 5076      723200
 5077              	.LASF114:
 5078 0630 73635F63 		.ascii	"sc_cr3\000"
 5078      723300
 5079              	.LASF77:
 5080 0637 715F6C69 		.ascii	"q_link\000"
 5080      6E6B00
 5081              	.LASF55:
 5082 063e 6D5F6F77 		.ascii	"m_owner\000"
 5082      6E657200 
 5083              	.LASF29:
 5084 0646 705F6374 		.ascii	"p_ctx\000"
 5084      7800
 5085              	.LASF39:
 5086 064c 705F7761 		.ascii	"p_waiting\000"
 5086      6974696E 
 5086      6700
 5087              	.LASF84:
 5088 0656 41484245 		.ascii	"AHBENR\000"
 5088      4E5200
 5089              		.ident	"GCC: (GNU) 4.7.2"
ARM GAS  C:\Users\TaisikHam\AppData\Local\Temp\ccO5hARh.s 			page 96


DEFINED SYMBOLS
                            *ABS*:00000000 serial_lld.c
C:\Users\TaisikHam\AppData\Local\Temp\ccO5hARh.s:19     .text.notify1:00000000 $t
C:\Users\TaisikHam\AppData\Local\Temp\ccO5hARh.s:24     .text.notify1:00000000 notify1
C:\Users\TaisikHam\AppData\Local\Temp\ccO5hARh.s:44     .text.notify2:00000000 $t
C:\Users\TaisikHam\AppData\Local\Temp\ccO5hARh.s:49     .text.notify2:00000000 notify2
C:\Users\TaisikHam\AppData\Local\Temp\ccO5hARh.s:68     .text.notify3:00000000 $t
C:\Users\TaisikHam\AppData\Local\Temp\ccO5hARh.s:73     .text.notify3:00000000 notify3
C:\Users\TaisikHam\AppData\Local\Temp\ccO5hARh.s:92     .text.notify4:00000000 $t
C:\Users\TaisikHam\AppData\Local\Temp\ccO5hARh.s:97     .text.notify4:00000000 notify4
C:\Users\TaisikHam\AppData\Local\Temp\ccO5hARh.s:116    .text.serve_interrupt:00000000 $t
C:\Users\TaisikHam\AppData\Local\Temp\ccO5hARh.s:121    .text.serve_interrupt:00000000 serve_interrupt
C:\Users\TaisikHam\AppData\Local\Temp\ccO5hARh.s:395    .text.VectorD4:00000000 $t
C:\Users\TaisikHam\AppData\Local\Temp\ccO5hARh.s:401    .text.VectorD4:00000000 VectorD4
C:\Users\TaisikHam\AppData\Local\Temp\ccO5hARh.s:968    .bss.SD1:00000000 .LANCHOR0
C:\Users\TaisikHam\AppData\Local\Temp\ccO5hARh.s:432    .text.VectorD8:00000000 $t
C:\Users\TaisikHam\AppData\Local\Temp\ccO5hARh.s:438    .text.VectorD8:00000000 VectorD8
C:\Users\TaisikHam\AppData\Local\Temp\ccO5hARh.s:975    .bss.SD2:00000000 .LANCHOR1
C:\Users\TaisikHam\AppData\Local\Temp\ccO5hARh.s:469    .text.VectorDC:00000000 $t
C:\Users\TaisikHam\AppData\Local\Temp\ccO5hARh.s:475    .text.VectorDC:00000000 VectorDC
C:\Users\TaisikHam\AppData\Local\Temp\ccO5hARh.s:982    .bss.SD3:00000000 .LANCHOR2
C:\Users\TaisikHam\AppData\Local\Temp\ccO5hARh.s:506    .text.Vector110:00000000 $t
C:\Users\TaisikHam\AppData\Local\Temp\ccO5hARh.s:512    .text.Vector110:00000000 Vector110
C:\Users\TaisikHam\AppData\Local\Temp\ccO5hARh.s:989    .bss.SD4:00000000 .LANCHOR3
C:\Users\TaisikHam\AppData\Local\Temp\ccO5hARh.s:543    .text.sd_lld_init:00000000 $t
C:\Users\TaisikHam\AppData\Local\Temp\ccO5hARh.s:549    .text.sd_lld_init:00000000 sd_lld_init
C:\Users\TaisikHam\AppData\Local\Temp\ccO5hARh.s:650    .text.sd_lld_start:00000000 $t
C:\Users\TaisikHam\AppData\Local\Temp\ccO5hARh.s:656    .text.sd_lld_start:00000000 sd_lld_start
C:\Users\TaisikHam\AppData\Local\Temp\ccO5hARh.s:821    .text.sd_lld_start:000000cc $d
C:\Users\TaisikHam\AppData\Local\Temp\ccO5hARh.s:830    .text.sd_lld_stop:00000000 $t
C:\Users\TaisikHam\AppData\Local\Temp\ccO5hARh.s:836    .text.sd_lld_stop:00000000 sd_lld_stop
C:\Users\TaisikHam\AppData\Local\Temp\ccO5hARh.s:944    .text.sd_lld_stop:00000084 $d
C:\Users\TaisikHam\AppData\Local\Temp\ccO5hARh.s:992    .bss.SD4:00000000 SD4
C:\Users\TaisikHam\AppData\Local\Temp\ccO5hARh.s:985    .bss.SD3:00000000 SD3
C:\Users\TaisikHam\AppData\Local\Temp\ccO5hARh.s:978    .bss.SD2:00000000 SD2
C:\Users\TaisikHam\AppData\Local\Temp\ccO5hARh.s:971    .bss.SD1:00000000 SD1
C:\Users\TaisikHam\AppData\Local\Temp\ccO5hARh.s:956    .rodata.default_config:00000000 $d
C:\Users\TaisikHam\AppData\Local\Temp\ccO5hARh.s:960    .rodata.default_config:00000000 default_config
C:\Users\TaisikHam\AppData\Local\Temp\ccO5hARh.s:967    .bss.SD1:00000000 $d
C:\Users\TaisikHam\AppData\Local\Temp\ccO5hARh.s:974    .bss.SD2:00000000 $d
C:\Users\TaisikHam\AppData\Local\Temp\ccO5hARh.s:981    .bss.SD3:00000000 $d
C:\Users\TaisikHam\AppData\Local\Temp\ccO5hARh.s:988    .bss.SD4:00000000 $d
                     .debug_frame:00000010 $d
C:\Users\TaisikHam\AppData\Local\Temp\ccO5hARh.s:955    .text.sd_lld_stop:00000094 $t

UNDEFINED SYMBOLS
dbg_check_lock_from_isr
chEvtBroadcastFlagsI
dbg_check_unlock_from_isr
sdIncomingDataI
chOQGetI
dbg_check_enter_isr
dbg_check_leave_isr
_port_irq_epilogue
sdObjectInit
nvicEnableVector
nvicDisableVector
ARM GAS  C:\Users\TaisikHam\AppData\Local\Temp\ccO5hARh.s 			page 97


