ARM GAS  C:\Users\TaisikHam\AppData\Local\Temp\ccO5hARh.s 			page 1


   1              		.syntax unified
   2              		.cpu cortex-m4
   3              		.fpu softvfp
   4              		.eabi_attribute 20, 1
   5              		.eabi_attribute 21, 1
   6              		.eabi_attribute 23, 3
   7              		.eabi_attribute 24, 1
   8              		.eabi_attribute 25, 1
   9              		.eabi_attribute 26, 1
  10              		.eabi_attribute 30, 2
  11              		.eabi_attribute 34, 1
  12              		.eabi_attribute 18, 4
  13              		.thumb
  14              		.file	"serial_lld.c"
  15              		.text
  16              	.Ltext0:
  17              		.cfi_sections	.debug_frame
  18              		.section	.text.notify1,"ax",%progbits
  19              		.align	2
  20              		.p2align 4,,15
  21              		.thumb
  22              		.thumb_func
  23              		.type	notify1, %function
  24              	notify1:
  25              	.LFB122:
  26              		.file 1 "../../../os/hal/platforms/STM32/USARTv2/serial_lld.c"
  27              		.loc 1 198 0
  28              		.cfi_startproc
  29              		@ args = 0, pretend = 0, frame = 0
  30              		@ frame_needed = 0, uses_anonymous_args = 0
  31              		@ link register save eliminated.
  32              	.LVL0:
  33              		.loc 1 201 0
  34 0000 4FF46053 		mov	r3, #14336
  35 0004 C4F20103 		movt	r3, 16385
  36 0008 1A68     		ldr	r2, [r3, #0]
  37 000a 42F08002 		orr	r2, r2, #128
  38 000e 1A60     		str	r2, [r3, #0]
  39 0010 7047     		bx	lr
  40              		.cfi_endproc
  41              	.LFE122:
  42              		.size	notify1, .-notify1
  43 0012 00BFAFF3 		.section	.text.notify2,"ax",%progbits
  43      0080AFF3 
  43      0080AFF3 
  43      0080
  44              		.align	2
  45              		.p2align 4,,15
  46              		.thumb
  47              		.thumb_func
  48              		.type	notify2, %function
  49              	notify2:
  50              	.LFB123:
  51              		.loc 1 206 0
  52              		.cfi_startproc
  53              		@ args = 0, pretend = 0, frame = 0
  54              		@ frame_needed = 0, uses_anonymous_args = 0
ARM GAS  C:\Users\TaisikHam\AppData\Local\Temp\ccO5hARh.s 			page 2


  55              		@ link register save eliminated.
  56              	.LVL1:
  57              		.loc 1 209 0
  58 0000 4FF48843 		mov	r3, #17408
  59 0004 C4F20003 		movt	r3, 16384
  60 0008 1A68     		ldr	r2, [r3, #0]
  61 000a 42F08002 		orr	r2, r2, #128
  62 000e 1A60     		str	r2, [r3, #0]
  63 0010 7047     		bx	lr
  64              		.cfi_endproc
  65              	.LFE123:
  66              		.size	notify2, .-notify2
  67              		.section	.text.notify3,"ax",%progbits
  68              		.align	2
  69              		.p2align 4,,15
  70              		.thumb
  71              		.thumb_func
  72              		.type	notify3, %function
  73              	notify3:
  74              	.LFB124:
  75              		.loc 1 214 0
  76              		.cfi_startproc
  77              		@ args = 0, pretend = 0, frame = 0
  78              		@ frame_needed = 0, uses_anonymous_args = 0
  79              		@ link register save eliminated.
  80              	.LVL2:
  81              		.loc 1 217 0
  82 0000 4FF49043 		mov	r3, #18432
  83 0004 C4F20003 		movt	r3, 16384
  84 0008 1A68     		ldr	r2, [r3, #0]
  85 000a 42F08002 		orr	r2, r2, #128
  86 000e 1A60     		str	r2, [r3, #0]
  87 0010 7047     		bx	lr
  88              		.cfi_endproc
  89              	.LFE124:
  90              		.size	notify3, .-notify3
  91              		.section	.text.notify4,"ax",%progbits
  92              		.align	2
  93              		.p2align 4,,15
  94              		.thumb
  95              		.thumb_func
  96              		.type	notify4, %function
  97              	notify4:
  98              	.LFB125:
  99              		.loc 1 222 0
 100              		.cfi_startproc
 101              		@ args = 0, pretend = 0, frame = 0
 102              		@ frame_needed = 0, uses_anonymous_args = 0
 103              		@ link register save eliminated.
 104              	.LVL3:
 105              		.loc 1 225 0
 106 0000 4FF49843 		mov	r3, #19456
 107 0004 C4F20003 		movt	r3, 16384
 108 0008 1A68     		ldr	r2, [r3, #0]
 109 000a 42F08002 		orr	r2, r2, #128
 110 000e 1A60     		str	r2, [r3, #0]
 111 0010 7047     		bx	lr
ARM GAS  C:\Users\TaisikHam\AppData\Local\Temp\ccO5hARh.s 			page 3


 112              		.cfi_endproc
 113              	.LFE125:
 114              		.size	notify4, .-notify4
 115              		.section	.text.serve_interrupt,"ax",%progbits
 116              		.align	2
 117              		.p2align 4,,15
 118              		.thumb
 119              		.thumb_func
 120              		.type	serve_interrupt, %function
 121              	serve_interrupt:
 122              	.LFB121:
 123              		.loc 1 151 0
 124              		.cfi_startproc
 125              		@ args = 0, pretend = 0, frame = 0
 126              		@ frame_needed = 0, uses_anonymous_args = 0
 127              	.LVL4:
 128 0000 2DE9F041 		push	{r4, r5, r6, r7, r8, lr}
 129              	.LCFI0:
 130              		.cfi_def_cfa_offset 24
 131              		.cfi_offset 4, -24
 132              		.cfi_offset 5, -20
 133              		.cfi_offset 6, -16
 134              		.cfi_offset 7, -12
 135              		.cfi_offset 8, -8
 136              		.cfi_offset 14, -4
 137              		.loc 1 152 0
 138 0004 456F     		ldr	r5, [r0, #116]
 139              	.LVL5:
 140              		.loc 1 153 0
 141 0006 2F68     		ldr	r7, [r5, #0]
 142              	.LVL6:
 143              		.loc 1 157 0
 144 0008 EC69     		ldr	r4, [r5, #28]
 145              	.LVL7:
 146              		.loc 1 161 0
 147 000a 2307     		lsls	r3, r4, #28
 148              		.loc 1 151 0
 149 000c 0646     		mov	r6, r0
 150              		.loc 1 158 0
 151 000e 2C62     		str	r4, [r5, #32]
 152              		.loc 1 161 0
 153 0010 3CD1     		bne	.L46
 154              	.LVL8:
 155              	.L6:
 156              		.loc 1 164 0
 157 0012 E305     		lsls	r3, r4, #23
 158              	.LVL9:
 159 0014 2AD4     		bmi	.L47
 160              	.LVL10:
 161              	.L11:
 162              		.loc 1 170 0
 163 0016 A006     		lsls	r0, r4, #26
 164 0018 18D4     		bmi	.L48
 165              	.LVL11:
 166              	.L12:
 167              		.loc 1 176 0
 168 001a 3906     		lsls	r1, r7, #24
ARM GAS  C:\Users\TaisikHam\AppData\Local\Temp\ccO5hARh.s 			page 4


 169 001c 01D5     		bpl	.L13
 170              		.loc 1 176 0 is_stmt 0 discriminator 1
 171 001e 2206     		lsls	r2, r4, #24
 172 0020 56D4     		bmi	.L49
 173              	.LVL12:
 174              	.L13:
 175              		.loc 1 189 0 is_stmt 1
 176 0022 6306     		lsls	r3, r4, #25
 177              	.LVL13:
 178 0024 10D5     		bpl	.L5
 179              	.LBB19:
 180              		.loc 1 190 0
 181 0026 2023     		movs	r3, #32
 182              	.LVL14:
 183              	@ 190 "../../../os/hal/platforms/STM32/USARTv2/serial_lld.c" 1
 184 0028 83F31188 		msr     BASEPRI, r3
 185              	@ 0 "" 2
 186              	.LVL15:
 187              		.thumb
 188              	.LBE19:
 189 002c FFF7FEFF 		bl	dbg_check_lock_from_isr
 190              	.LVL16:
 191              		.loc 1 191 0
 192 0030 301D     		adds	r0, r6, #4
 193 0032 1021     		movs	r1, #16
 194 0034 FFF7FEFF 		bl	chEvtBroadcastFlagsI
 195              	.LVL17:
 196              		.loc 1 192 0
 197 0038 FFF7FEFF 		bl	dbg_check_unlock_from_isr
 198              	.LVL18:
 199              	.LBB20:
 200 003c 0023     		movs	r3, #0
 201              	.LVL19:
 202              	@ 192 "../../../os/hal/platforms/STM32/USARTv2/serial_lld.c" 1
 203 003e 83F31188 		msr     BASEPRI, r3
 204              	@ 0 "" 2
 205              	.LVL20:
 206              		.thumb
 207              	.LBE20:
 208              		.loc 1 193 0
 209 0042 27F04007 		bic	r7, r7, #64
 210              	.LVL21:
 211 0046 2F60     		str	r7, [r5, #0]
 212              	.L5:
 213 0048 BDE8F081 		pop	{r4, r5, r6, r7, r8, pc}
 214              	.LVL22:
 215              	.L48:
 216              	.LBB21:
 217              		.loc 1 171 0
 218 004c 2023     		movs	r3, #32
 219              	.LVL23:
 220              	@ 171 "../../../os/hal/platforms/STM32/USARTv2/serial_lld.c" 1
 221 004e 83F31188 		msr     BASEPRI, r3
 222              	@ 0 "" 2
 223              	.LVL24:
 224              		.thumb
 225              	.LBE21:
ARM GAS  C:\Users\TaisikHam\AppData\Local\Temp\ccO5hARh.s 			page 5


 226 0052 FFF7FEFF 		bl	dbg_check_lock_from_isr
 227              	.LVL25:
 228              		.loc 1 172 0
 229 0056 A98C     		ldrh	r1, [r5, #36]
 230 0058 3046     		mov	r0, r6
 231 005a C9B2     		uxtb	r1, r1
 232 005c FFF7FEFF 		bl	sdIncomingDataI
 233              	.LVL26:
 234              		.loc 1 173 0
 235 0060 FFF7FEFF 		bl	dbg_check_unlock_from_isr
 236              	.LVL27:
 237              	.LBB22:
 238 0064 0023     		movs	r3, #0
 239              	@ 173 "../../../os/hal/platforms/STM32/USARTv2/serial_lld.c" 1
 240 0066 83F31188 		msr     BASEPRI, r3
 241              	@ 0 "" 2
 242              	.LVL28:
 243              		.thumb
 244 006a D6E7     		b	.L12
 245              	.LVL29:
 246              	.L47:
 247              	.LBE22:
 248              	.LBB23:
 249              		.loc 1 165 0
 250 006c 2023     		movs	r3, #32
 251              	.LVL30:
 252              	@ 165 "../../../os/hal/platforms/STM32/USARTv2/serial_lld.c" 1
 253 006e 83F31188 		msr     BASEPRI, r3
 254              	@ 0 "" 2
 255              	.LVL31:
 256              		.thumb
 257              	.LBE23:
 258 0072 FFF7FEFF 		bl	dbg_check_lock_from_isr
 259              	.LVL32:
 260              		.loc 1 166 0
 261 0076 301D     		adds	r0, r6, #4
 262 0078 4FF40071 		mov	r1, #512
 263 007c FFF7FEFF 		bl	chEvtBroadcastFlagsI
 264              	.LVL33:
 265              		.loc 1 167 0
 266 0080 FFF7FEFF 		bl	dbg_check_unlock_from_isr
 267              	.LVL34:
 268              	.LBB24:
 269 0084 0023     		movs	r3, #0
 270              	@ 167 "../../../os/hal/platforms/STM32/USARTv2/serial_lld.c" 1
 271 0086 83F31188 		msr     BASEPRI, r3
 272              	@ 0 "" 2
 273              	.LVL35:
 274              		.thumb
 275 008a C4E7     		b	.L11
 276              	.LVL36:
 277              	.L46:
 278              	.LBE24:
 279              	.LBB25:
 280              	.LBB26:
 281              		.loc 1 134 0
 282 008c 14F0080F 		tst	r4, #8
ARM GAS  C:\Users\TaisikHam\AppData\Local\Temp\ccO5hARh.s 			page 6


 283 0090 0CBF     		ite	eq
 284 0092 4FF00008 		moveq	r8, #0
 285 0096 4FF08008 		movne	r8, #128
 286              	.LVL37:
 287              		.loc 1 135 0
 288 009a E007     		lsls	r0, r4, #31
 289              	.LVL38:
 290              		.loc 1 136 0
 291 009c 48BF     		it	mi
 292 009e 48F02008 		orrmi	r8, r8, #32
 293              	.LVL39:
 294              		.loc 1 137 0
 295 00a2 A107     		lsls	r1, r4, #30
 296              		.loc 1 138 0
 297 00a4 48BF     		it	mi
 298 00a6 48F04008 		orrmi	r8, r8, #64
 299              	.LVL40:
 300              		.loc 1 139 0
 301 00aa 6207     		lsls	r2, r4, #29
 302              		.loc 1 140 0
 303 00ac 48BF     		it	mi
 304 00ae 48F48078 		orrmi	r8, r8, #256
 305              	.LVL41:
 306              	.LBB27:
 307              		.loc 1 141 0
 308 00b2 2023     		movs	r3, #32
 309              	.LVL42:
 310              	@ 141 "../../../os/hal/platforms/STM32/USARTv2/serial_lld.c" 1
 311 00b4 83F31188 		msr     BASEPRI, r3
 312              	@ 0 "" 2
 313              	.LVL43:
 314              		.thumb
 315              	.LBE27:
 316 00b8 FFF7FEFF 		bl	dbg_check_lock_from_isr
 317              	.LVL44:
 318              		.loc 1 142 0
 319 00bc 301D     		adds	r0, r6, #4
 320 00be 4146     		mov	r1, r8
 321 00c0 FFF7FEFF 		bl	chEvtBroadcastFlagsI
 322              	.LVL45:
 323              		.loc 1 143 0
 324 00c4 FFF7FEFF 		bl	dbg_check_unlock_from_isr
 325              	.LVL46:
 326              	.LBB28:
 327 00c8 0023     		movs	r3, #0
 328              	@ 143 "../../../os/hal/platforms/STM32/USARTv2/serial_lld.c" 1
 329 00ca 83F31188 		msr     BASEPRI, r3
 330              	@ 0 "" 2
 331              	.LVL47:
 332              		.thumb
 333 00ce A0E7     		b	.L6
 334              	.LVL48:
 335              	.L49:
 336              	.LBE28:
 337              	.LBE26:
 338              	.LBE25:
 339              	.LBB29:
ARM GAS  C:\Users\TaisikHam\AppData\Local\Temp\ccO5hARh.s 			page 7


 340              	.LBB30:
 341              		.loc 1 178 0
 342 00d0 2023     		movs	r3, #32
 343              	.LVL49:
 344              	@ 178 "../../../os/hal/platforms/STM32/USARTv2/serial_lld.c" 1
 345 00d2 83F31188 		msr     BASEPRI, r3
 346              	@ 0 "" 2
 347              	.LVL50:
 348              		.thumb
 349              	.LBE30:
 350 00d6 FFF7FEFF 		bl	dbg_check_lock_from_isr
 351              	.LVL51:
 352              		.loc 1 179 0
 353 00da 06F13000 		add	r0, r6, #48
 354 00de FFF7FEFF 		bl	chOQGetI
 355              	.LVL52:
 356              		.loc 1 180 0
 357 00e2 0028     		cmp	r0, #0
 358              		.loc 1 185 0
 359 00e4 A4BF     		itt	ge
 360 00e6 80B2     		uxthge	r0, r0
 361              	.LVL53:
 362 00e8 2885     		strhge	r0, [r5, #40]	@ movhi
 363              		.loc 1 180 0
 364 00ea 05DB     		blt	.L50
 365              	.L15:
 366              		.loc 1 186 0
 367 00ec FFF7FEFF 		bl	dbg_check_unlock_from_isr
 368              	.LVL54:
 369              	.LBB31:
 370 00f0 0023     		movs	r3, #0
 371              	@ 186 "../../../os/hal/platforms/STM32/USARTv2/serial_lld.c" 1
 372 00f2 83F31188 		msr     BASEPRI, r3
 373              	@ 0 "" 2
 374              	.LVL55:
 375              		.thumb
 376 00f6 94E7     		b	.L13
 377              	.LVL56:
 378              	.L50:
 379              	.LBE31:
 380              		.loc 1 181 0
 381 00f8 301D     		adds	r0, r6, #4
 382 00fa 0821     		movs	r1, #8
 383 00fc FFF7FEFF 		bl	chEvtBroadcastFlagsI
 384              	.LVL57:
 385              		.loc 1 182 0
 386 0100 27F0C003 		bic	r3, r7, #192
 387 0104 43F04003 		orr	r3, r3, #64
 388 0108 2B60     		str	r3, [r5, #0]
 389 010a EFE7     		b	.L15
 390              	.LBE29:
 391              		.cfi_endproc
 392              	.LFE121:
 393              		.size	serve_interrupt, .-serve_interrupt
 394 010c AFF30080 		.section	.text.VectorD4,"ax",%progbits
 395              		.align	2
 396              		.p2align 4,,15
ARM GAS  C:\Users\TaisikHam\AppData\Local\Temp\ccO5hARh.s 			page 8


 397              		.global	VectorD4
 398              		.thumb
 399              		.thumb_func
 400              		.type	VectorD4, %function
 401              	VectorD4:
 402              	.LFB126:
 403              		.loc 1 258 0
 404              		.cfi_startproc
 405              		@ args = 0, pretend = 0, frame = 0
 406              		@ frame_needed = 0, uses_anonymous_args = 0
 407 0000 08B5     		push	{r3, lr}
 408              	.LCFI1:
 409              		.cfi_def_cfa_offset 8
 410              		.cfi_offset 3, -8
 411              		.cfi_offset 14, -4
 412              		.loc 1 260 0
 413 0002 FFF7FEFF 		bl	dbg_check_enter_isr
 414              	.LVL58:
 415              		.loc 1 262 0
 416 0006 40F20000 		movw	r0, #:lower16:.LANCHOR0
 417 000a C0F20000 		movt	r0, #:upper16:.LANCHOR0
 418 000e FFF7FEFF 		bl	serve_interrupt
 419              	.LVL59:
 420              		.loc 1 264 0
 421 0012 FFF7FEFF 		bl	dbg_check_leave_isr
 422              	.LVL60:
 423              		.loc 1 265 0
 424 0016 BDE80840 		pop	{r3, lr}
 425              		.loc 1 264 0
 426 001a FFF7FEBF 		b	_port_irq_epilogue
 427              	.LVL61:
 428              		.cfi_endproc
 429              	.LFE126:
 430              		.size	VectorD4, .-VectorD4
 431 001e 00BF     		.section	.text.VectorD8,"ax",%progbits
 432              		.align	2
 433              		.p2align 4,,15
 434              		.global	VectorD8
 435              		.thumb
 436              		.thumb_func
 437              		.type	VectorD8, %function
 438              	VectorD8:
 439              	.LFB127:
 440              		.loc 1 277 0
 441              		.cfi_startproc
 442              		@ args = 0, pretend = 0, frame = 0
 443              		@ frame_needed = 0, uses_anonymous_args = 0
 444 0000 08B5     		push	{r3, lr}
 445              	.LCFI2:
 446              		.cfi_def_cfa_offset 8
 447              		.cfi_offset 3, -8
 448              		.cfi_offset 14, -4
 449              		.loc 1 279 0
 450 0002 FFF7FEFF 		bl	dbg_check_enter_isr
 451              	.LVL62:
 452              		.loc 1 281 0
 453 0006 40F20000 		movw	r0, #:lower16:.LANCHOR1
ARM GAS  C:\Users\TaisikHam\AppData\Local\Temp\ccO5hARh.s 			page 9


 454 000a C0F20000 		movt	r0, #:upper16:.LANCHOR1
 455 000e FFF7FEFF 		bl	serve_interrupt
 456              	.LVL63:
 457              		.loc 1 283 0
 458 0012 FFF7FEFF 		bl	dbg_check_leave_isr
 459              	.LVL64:
 460              		.loc 1 284 0
 461 0016 BDE80840 		pop	{r3, lr}
 462              		.loc 1 283 0
 463 001a FFF7FEBF 		b	_port_irq_epilogue
 464              	.LVL65:
 465              		.cfi_endproc
 466              	.LFE127:
 467              		.size	VectorD8, .-VectorD8
 468 001e 00BF     		.section	.text.VectorDC,"ax",%progbits
 469              		.align	2
 470              		.p2align 4,,15
 471              		.global	VectorDC
 472              		.thumb
 473              		.thumb_func
 474              		.type	VectorDC, %function
 475              	VectorDC:
 476              	.LFB128:
 477              		.loc 1 296 0
 478              		.cfi_startproc
 479              		@ args = 0, pretend = 0, frame = 0
 480              		@ frame_needed = 0, uses_anonymous_args = 0
 481 0000 08B5     		push	{r3, lr}
 482              	.LCFI3:
 483              		.cfi_def_cfa_offset 8
 484              		.cfi_offset 3, -8
 485              		.cfi_offset 14, -4
 486              		.loc 1 298 0
 487 0002 FFF7FEFF 		bl	dbg_check_enter_isr
 488              	.LVL66:
 489              		.loc 1 300 0
 490 0006 40F20000 		movw	r0, #:lower16:.LANCHOR2
 491 000a C0F20000 		movt	r0, #:upper16:.LANCHOR2
 492 000e FFF7FEFF 		bl	serve_interrupt
 493              	.LVL67:
 494              		.loc 1 302 0
 495 0012 FFF7FEFF 		bl	dbg_check_leave_isr
 496              	.LVL68:
 497              		.loc 1 303 0
 498 0016 BDE80840 		pop	{r3, lr}
 499              		.loc 1 302 0
 500 001a FFF7FEBF 		b	_port_irq_epilogue
 501              	.LVL69:
 502              		.cfi_endproc
 503              	.LFE128:
 504              		.size	VectorDC, .-VectorDC
 505 001e 00BF     		.section	.text.Vector110,"ax",%progbits
 506              		.align	2
 507              		.p2align 4,,15
 508              		.global	Vector110
 509              		.thumb
 510              		.thumb_func
ARM GAS  C:\Users\TaisikHam\AppData\Local\Temp\ccO5hARh.s 			page 10


 511              		.type	Vector110, %function
 512              	Vector110:
 513              	.LFB129:
 514              		.loc 1 315 0
 515              		.cfi_startproc
 516              		@ args = 0, pretend = 0, frame = 0
 517              		@ frame_needed = 0, uses_anonymous_args = 0
 518 0000 08B5     		push	{r3, lr}
 519              	.LCFI4:
 520              		.cfi_def_cfa_offset 8
 521              		.cfi_offset 3, -8
 522              		.cfi_offset 14, -4
 523              		.loc 1 317 0
 524 0002 FFF7FEFF 		bl	dbg_check_enter_isr
 525              	.LVL70:
 526              		.loc 1 319 0
 527 0006 40F20000 		movw	r0, #:lower16:.LANCHOR3
 528 000a C0F20000 		movt	r0, #:upper16:.LANCHOR3
 529 000e FFF7FEFF 		bl	serve_interrupt
 530              	.LVL71:
 531              		.loc 1 321 0
 532 0012 FFF7FEFF 		bl	dbg_check_leave_isr
 533              	.LVL72:
 534              		.loc 1 322 0
 535 0016 BDE80840 		pop	{r3, lr}
 536              		.loc 1 321 0
 537 001a FFF7FEBF 		b	_port_irq_epilogue
 538              	.LVL73:
 539              		.cfi_endproc
 540              	.LFE129:
 541              		.size	Vector110, .-Vector110
 542 001e 00BF     		.section	.text.sd_lld_init,"ax",%progbits
 543              		.align	2
 544              		.p2align 4,,15
 545              		.global	sd_lld_init
 546              		.thumb
 547              		.thumb_func
 548              		.type	sd_lld_init, %function
 549              	sd_lld_init:
 550              	.LFB130:
 551              		.loc 1 372 0
 552              		.cfi_startproc
 553              		@ args = 0, pretend = 0, frame = 0
 554              		@ frame_needed = 0, uses_anonymous_args = 0
 555 0000 F8B5     		push	{r3, r4, r5, r6, r7, lr}
 556              	.LCFI5:
 557              		.cfi_def_cfa_offset 24
 558              		.cfi_offset 3, -24
 559              		.cfi_offset 4, -20
 560              		.cfi_offset 5, -16
 561              		.cfi_offset 6, -12
 562              		.cfi_offset 7, -8
 563              		.cfi_offset 14, -4
 564              		.loc 1 375 0
 565 0002 40F20004 		movw	r4, #:lower16:.LANCHOR0
 566 0006 C0F20004 		movt	r4, #:upper16:.LANCHOR0
 567 000a 40F20002 		movw	r2, #:lower16:notify1
ARM GAS  C:\Users\TaisikHam\AppData\Local\Temp\ccO5hARh.s 			page 11


 568 000e 2046     		mov	r0, r4
 569 0010 0021     		movs	r1, #0
 570 0012 C0F20002 		movt	r2, #:upper16:notify1
 571              		.loc 1 381 0
 572 0016 40F20007 		movw	r7, #:lower16:.LANCHOR1
 573              		.loc 1 375 0
 574 001a FFF7FEFF 		bl	sdObjectInit
 575              	.LVL74:
 576              		.loc 1 381 0
 577 001e C0F20007 		movt	r7, #:upper16:.LANCHOR1
 578              		.loc 1 376 0
 579 0022 4FF46053 		mov	r3, #14336
 580              		.loc 1 377 0
 581 0026 4FF4A245 		mov	r5, #20736
 582              		.loc 1 381 0
 583 002a 40F20002 		movw	r2, #:lower16:notify2
 584              		.loc 1 377 0
 585 002e C0F22525 		movt	r5, 549
 586              		.loc 1 376 0
 587 0032 C4F20103 		movt	r3, 16385
 588              		.loc 1 381 0
 589 0036 3846     		mov	r0, r7
 590 0038 0021     		movs	r1, #0
 591 003a C0F20002 		movt	r2, #:upper16:notify2
 592              		.loc 1 387 0
 593 003e 40F20006 		movw	r6, #:lower16:.LANCHOR2
 594 0042 C0F20006 		movt	r6, #:upper16:.LANCHOR2
 595              		.loc 1 376 0
 596 0046 6367     		str	r3, [r4, #116]
 597              		.loc 1 377 0
 598 0048 A567     		str	r5, [r4, #120]
 599              		.loc 1 381 0
 600 004a FFF7FEFF 		bl	sdObjectInit
 601              	.LVL75:
 602              		.loc 1 382 0
 603 004e 4FF48843 		mov	r3, #17408
 604              		.loc 1 387 0
 605 0052 40F20002 		movw	r2, #:lower16:notify3
 606              		.loc 1 382 0
 607 0056 C4F20003 		movt	r3, 16384
 608              		.loc 1 387 0
 609 005a 3046     		mov	r0, r6
 610 005c 0021     		movs	r1, #0
 611 005e C0F20002 		movt	r2, #:upper16:notify3
 612              		.loc 1 393 0
 613 0062 40F20004 		movw	r4, #:lower16:.LANCHOR3
 614 0066 C0F20004 		movt	r4, #:upper16:.LANCHOR3
 615              		.loc 1 382 0
 616 006a 7B67     		str	r3, [r7, #116]
 617              		.loc 1 383 0
 618 006c BD67     		str	r5, [r7, #120]
 619              		.loc 1 387 0
 620 006e FFF7FEFF 		bl	sdObjectInit
 621              	.LVL76:
 622              		.loc 1 388 0
 623 0072 4FF49043 		mov	r3, #18432
 624              		.loc 1 393 0
ARM GAS  C:\Users\TaisikHam\AppData\Local\Temp\ccO5hARh.s 			page 12


 625 0076 40F20002 		movw	r2, #:lower16:notify4
 626              		.loc 1 388 0
 627 007a C4F20003 		movt	r3, 16384
 628              		.loc 1 393 0
 629 007e 2046     		mov	r0, r4
 630 0080 0021     		movs	r1, #0
 631 0082 C0F20002 		movt	r2, #:upper16:notify4
 632              		.loc 1 388 0
 633 0086 7367     		str	r3, [r6, #116]
 634              		.loc 1 389 0
 635 0088 B567     		str	r5, [r6, #120]
 636              		.loc 1 393 0
 637 008a FFF7FEFF 		bl	sdObjectInit
 638              	.LVL77:
 639              		.loc 1 394 0
 640 008e 4FF49843 		mov	r3, #19456
 641 0092 C4F20003 		movt	r3, 16384
 642 0096 6367     		str	r3, [r4, #116]
 643              		.loc 1 395 0
 644 0098 A567     		str	r5, [r4, #120]
 645 009a F8BD     		pop	{r3, r4, r5, r6, r7, pc}
 646              		.cfi_endproc
 647              	.LFE130:
 648              		.size	sd_lld_init, .-sd_lld_init
 649              		.section	.text.sd_lld_start,"ax",%progbits
 650              		.align	2
 651              		.p2align 4,,15
 652              		.global	sd_lld_start
 653              		.thumb
 654              		.thumb_func
 655              		.type	sd_lld_start, %function
 656              	sd_lld_start:
 657              	.LFB131:
 658              		.loc 1 421 0
 659              		.cfi_startproc
 660              		@ args = 0, pretend = 0, frame = 0
 661              		@ frame_needed = 0, uses_anonymous_args = 0
 662              	.LVL78:
 663 0000 F8B5     		push	{r3, r4, r5, r6, r7, lr}
 664              	.LCFI6:
 665              		.cfi_def_cfa_offset 24
 666              		.cfi_offset 3, -24
 667              		.cfi_offset 4, -20
 668              		.cfi_offset 5, -16
 669              		.cfi_offset 6, -12
 670              		.cfi_offset 7, -8
 671              		.cfi_offset 14, -4
 672              		.loc 1 426 0
 673 0002 037A     		ldrb	r3, [r0, #8]	@ zero_extendqisi2
 674              		.loc 1 424 0
 675 0004 314D     		ldr	r5, .L69
 676 0006 0029     		cmp	r1, #0
 677 0008 18BF     		it	ne
 678 000a 0D46     		movne	r5, r1
 679              	.LVL79:
 680              		.loc 1 426 0
 681 000c 012B     		cmp	r3, #1
ARM GAS  C:\Users\TaisikHam\AppData\Local\Temp\ccO5hARh.s 			page 13


 682              		.loc 1 421 0
 683 000e 0446     		mov	r4, r0
 684              		.loc 1 426 0
 685 0010 1BD0     		beq	.L65
 686              	.LVL80:
 687              	.L59:
 688              	.LBB32:
 689              	.LBB33:
 690              		.loc 1 106 0
 691 0012 AA88     		ldrh	r2, [r5, #4]
 692              		.loc 1 100 0
 693 0014 A76F     		ldr	r7, [r4, #120]
 694 0016 2E68     		ldr	r6, [r5, #0]
 695              		.loc 1 103 0
 696 0018 E888     		ldrh	r0, [r5, #6]
 697              		.loc 1 104 0
 698 001a 2989     		ldrh	r1, [r5, #8]
 699              		.loc 1 97 0
 700 001c 636F     		ldr	r3, [r4, #116]
 701              	.LVL81:
 702              		.loc 1 106 0
 703 001e 42F49672 		orr	r2, r2, #300
 704              		.loc 1 100 0
 705 0022 B7FBF6F4 		udiv	r4, r7, r6
 706              	.LVL82:
 707              		.loc 1 103 0
 708 0026 40F04000 		orr	r0, r0, #64
 709              		.loc 1 104 0
 710 002a 41F00101 		orr	r1, r1, #1
 711              		.loc 1 106 0
 712 002e 42F00102 		orr	r2, r2, #1
 713 0032 92B2     		uxth	r2, r2
 714              		.loc 1 100 0
 715 0034 A4B2     		uxth	r4, r4
 716              		.loc 1 103 0
 717 0036 80B2     		uxth	r0, r0
 718              		.loc 1 104 0
 719 0038 89B2     		uxth	r1, r1
 720              		.loc 1 100 0
 721 003a 9C81     		strh	r4, [r3, #12]	@ movhi
 722              		.loc 1 103 0
 723 003c 5860     		str	r0, [r3, #4]
 724              		.loc 1 104 0
 725 003e 9960     		str	r1, [r3, #8]
 726              		.loc 1 105 0
 727 0040 1A60     		str	r2, [r3, #0]
 728              		.loc 1 108 0
 729 0042 4FF0FF32 		mov	r2, #-1
 730 0046 1A62     		str	r2, [r3, #32]
 731 0048 F8BD     		pop	{r3, r4, r5, r6, r7, pc}
 732              	.LVL83:
 733              	.L65:
 734              	.LBE33:
 735              	.LBE32:
 736              		.loc 1 428 0
 737 004a 214B     		ldr	r3, .L69+4
 738 004c 9842     		cmp	r0, r3
ARM GAS  C:\Users\TaisikHam\AppData\Local\Temp\ccO5hARh.s 			page 14


 739 004e 15D0     		beq	.L66
 740              		.loc 1 435 0
 741 0050 204B     		ldr	r3, .L69+8
 742 0052 9842     		cmp	r0, r3
 743 0054 1FD0     		beq	.L67
 744              		.loc 1 442 0
 745 0056 204B     		ldr	r3, .L69+12
 746 0058 9842     		cmp	r0, r3
 747 005a 29D0     		beq	.L68
 748              		.loc 1 449 0
 749 005c 1F4B     		ldr	r3, .L69+16
 750 005e 9842     		cmp	r0, r3
 751 0060 D7D1     		bne	.L59
 752              		.loc 1 450 0
 753 0062 4FF48053 		mov	r3, #4096
 754 0066 C4F20203 		movt	r3, 16386
 755              		.loc 1 451 0
 756 006a 3420     		movs	r0, #52
 757              	.LVL84:
 758              		.loc 1 450 0
 759 006c DA69     		ldr	r2, [r3, #28]
 760 006e 42F40022 		orr	r2, r2, #524288
 761 0072 DA61     		str	r2, [r3, #28]
 762              		.loc 1 451 0
 763 0074 C021     		movs	r1, #192
 764 0076 FFF7FEFF 		bl	nvicEnableVector
 765              	.LVL85:
 766 007a CAE7     		b	.L59
 767              	.LVL86:
 768              	.L66:
 769              		.loc 1 429 0
 770 007c 4FF48053 		mov	r3, #4096
 771 0080 C4F20203 		movt	r3, 16386
 772              		.loc 1 430 0
 773 0084 2520     		movs	r0, #37
 774              	.LVL87:
 775              		.loc 1 429 0
 776 0086 9A69     		ldr	r2, [r3, #24]
 777 0088 42F48042 		orr	r2, r2, #16384
 778 008c 9A61     		str	r2, [r3, #24]
 779              		.loc 1 430 0
 780 008e C021     		movs	r1, #192
 781 0090 FFF7FEFF 		bl	nvicEnableVector
 782              	.LVL88:
 783 0094 BDE7     		b	.L59
 784              	.LVL89:
 785              	.L67:
 786              		.loc 1 436 0
 787 0096 4FF48053 		mov	r3, #4096
 788 009a C4F20203 		movt	r3, 16386
 789              		.loc 1 437 0
 790 009e 2620     		movs	r0, #38
 791              	.LVL90:
 792              		.loc 1 436 0
 793 00a0 DA69     		ldr	r2, [r3, #28]
 794 00a2 42F40032 		orr	r2, r2, #131072
 795 00a6 DA61     		str	r2, [r3, #28]
ARM GAS  C:\Users\TaisikHam\AppData\Local\Temp\ccO5hARh.s 			page 15


 796              		.loc 1 437 0
 797 00a8 C021     		movs	r1, #192
 798 00aa FFF7FEFF 		bl	nvicEnableVector
 799              	.LVL91:
 800 00ae B0E7     		b	.L59
 801              	.LVL92:
 802              	.L68:
 803              		.loc 1 443 0
 804 00b0 4FF48053 		mov	r3, #4096
 805 00b4 C4F20203 		movt	r3, 16386
 806              		.loc 1 444 0
 807 00b8 2720     		movs	r0, #39
 808              	.LVL93:
 809              		.loc 1 443 0
 810 00ba DA69     		ldr	r2, [r3, #28]
 811 00bc 42F48022 		orr	r2, r2, #262144
 812 00c0 DA61     		str	r2, [r3, #28]
 813              		.loc 1 444 0
 814 00c2 C021     		movs	r1, #192
 815 00c4 FFF7FEFF 		bl	nvicEnableVector
 816              	.LVL94:
 817 00c8 A3E7     		b	.L59
 818              	.L70:
 819 00ca 00BF     		.align	2
 820              	.L69:
 821 00cc 00000000 		.word	.LANCHOR4
 822 00d0 00000000 		.word	.LANCHOR0
 823 00d4 00000000 		.word	.LANCHOR1
 824 00d8 00000000 		.word	.LANCHOR2
 825 00dc 00000000 		.word	.LANCHOR3
 826              		.cfi_endproc
 827              	.LFE131:
 828              		.size	sd_lld_start, .-sd_lld_start
 829              		.section	.text.sd_lld_stop,"ax",%progbits
 830              		.align	2
 831              		.p2align 4,,15
 832              		.global	sd_lld_stop
 833              		.thumb
 834              		.thumb_func
 835              		.type	sd_lld_stop, %function
 836              	sd_lld_stop:
 837              	.LFB132:
 838              		.loc 1 482 0
 839              		.cfi_startproc
 840              		@ args = 0, pretend = 0, frame = 0
 841              		@ frame_needed = 0, uses_anonymous_args = 0
 842              		@ link register save eliminated.
 843              	.LVL95:
 844              		.loc 1 484 0
 845 0000 037A     		ldrb	r3, [r0, #8]	@ zero_extendqisi2
 846 0002 022B     		cmp	r3, #2
 847 0004 00D0     		beq	.L78
 848              	.L71:
 849 0006 7047     		bx	lr
 850              	.L78:
 851              		.loc 1 485 0
 852 0008 436F     		ldr	r3, [r0, #116]
ARM GAS  C:\Users\TaisikHam\AppData\Local\Temp\ccO5hARh.s 			page 16


 853              	.LVL96:
 854              	.LBB34:
 855              	.LBB35:
 856              		.loc 1 119 0
 857 000a 0022     		movs	r2, #0
 858 000c 1A60     		str	r2, [r3, #0]
 859              		.loc 1 120 0
 860 000e 5A60     		str	r2, [r3, #4]
 861              		.loc 1 121 0
 862 0010 9A60     		str	r2, [r3, #8]
 863              	.LBE35:
 864              	.LBE34:
 865              		.loc 1 487 0
 866 0012 1C4B     		ldr	r3, .L82
 867              	.LVL97:
 868 0014 9842     		cmp	r0, r3
 869 0016 13D0     		beq	.L79
 870              		.loc 1 494 0
 871 0018 1B4B     		ldr	r3, .L82+4
 872 001a 9842     		cmp	r0, r3
 873 001c 1BD0     		beq	.L80
 874              		.loc 1 501 0
 875 001e 1B4B     		ldr	r3, .L82+8
 876 0020 9842     		cmp	r0, r3
 877 0022 23D0     		beq	.L81
 878              		.loc 1 508 0
 879 0024 1A4B     		ldr	r3, .L82+12
 880 0026 9842     		cmp	r0, r3
 881 0028 EDD1     		bne	.L71
 882              		.loc 1 509 0
 883 002a 4FF48053 		mov	r3, #4096
 884 002e C4F20203 		movt	r3, 16386
 885              		.loc 1 510 0
 886 0032 3420     		movs	r0, #52
 887              	.LVL98:
 888              		.loc 1 509 0
 889 0034 DA69     		ldr	r2, [r3, #28]
 890 0036 22F40022 		bic	r2, r2, #524288
 891 003a DA61     		str	r2, [r3, #28]
 892              		.loc 1 529 0
 893              		.loc 1 510 0
 894 003c FFF7FEBF 		b	nvicDisableVector
 895              	.LVL99:
 896              	.L79:
 897              		.loc 1 488 0
 898 0040 4FF48053 		mov	r3, #4096
 899 0044 C4F20203 		movt	r3, 16386
 900              		.loc 1 489 0
 901 0048 2520     		movs	r0, #37
 902              	.LVL100:
 903              		.loc 1 488 0
 904 004a 9A69     		ldr	r2, [r3, #24]
 905 004c 22F48042 		bic	r2, r2, #16384
 906 0050 9A61     		str	r2, [r3, #24]
 907              		.loc 1 529 0
 908              		.loc 1 489 0
 909 0052 FFF7FEBF 		b	nvicDisableVector
ARM GAS  C:\Users\TaisikHam\AppData\Local\Temp\ccO5hARh.s 			page 17


 910              	.LVL101:
 911              	.L80:
 912              		.loc 1 495 0
 913 0056 4FF48053 		mov	r3, #4096
 914 005a C4F20203 		movt	r3, 16386
 915              		.loc 1 496 0
 916 005e 2620     		movs	r0, #38
 917              	.LVL102:
 918              		.loc 1 495 0
 919 0060 DA69     		ldr	r2, [r3, #28]
 920 0062 22F40032 		bic	r2, r2, #131072
 921 0066 DA61     		str	r2, [r3, #28]
 922              		.loc 1 529 0
 923              		.loc 1 496 0
 924 0068 FFF7FEBF 		b	nvicDisableVector
 925              	.LVL103:
 926              	.L81:
 927              		.loc 1 502 0
 928 006c 4FF48053 		mov	r3, #4096
 929 0070 C4F20203 		movt	r3, 16386
 930              		.loc 1 503 0
 931 0074 2720     		movs	r0, #39
 932              	.LVL104:
 933              		.loc 1 502 0
 934 0076 DA69     		ldr	r2, [r3, #28]
 935 0078 22F48022 		bic	r2, r2, #262144
 936 007c DA61     		str	r2, [r3, #28]
 937              		.loc 1 529 0
 938              		.loc 1 503 0
 939 007e FFF7FEBF 		b	nvicDisableVector
 940              	.LVL105:
 941              	.L83:
 942 0082 00BF     		.align	2
 943              	.L82:
 944 0084 00000000 		.word	.LANCHOR0
 945 0088 00000000 		.word	.LANCHOR1
 946 008c 00000000 		.word	.LANCHOR2
 947 0090 00000000 		.word	.LANCHOR3
 948              		.cfi_endproc
 949              	.LFE132:
 950              		.size	sd_lld_stop, .-sd_lld_stop
 951              		.global	SD4
 952              		.global	SD3
 953              		.global	SD2
 954              		.global	SD1
 955 0094 AFF30080 		.section	.rodata.default_config,"a",%progbits
 955      AFF30080 
 955      AFF30080 
 956              		.align	2
 957              		.set	.LANCHOR4,. + 0
 958              		.type	default_config, %object
 959              		.size	default_config, 12
 960              	default_config:
 961 0000 00960000 		.word	38400
 962 0004 0000     		.short	0
 963 0006 0040     		.short	16384
 964 0008 0000     		.short	0
ARM GAS  C:\Users\TaisikHam\AppData\Local\Temp\ccO5hARh.s 			page 18


 965 000a 0000     		.space	2
 966              		.section	.bss.SD1,"aw",%nobits
 967              		.align	2
 968              		.set	.LANCHOR0,. + 0
 969              		.type	SD1, %object
 970              		.size	SD1, 124
 971              	SD1:
 972 0000 00000000 		.space	124
 972      00000000 
 972      00000000 
 972      00000000 
 972      00000000 
 973              		.section	.bss.SD2,"aw",%nobits
 974              		.align	2
 975              		.set	.LANCHOR1,. + 0
 976              		.type	SD2, %object
 977              		.size	SD2, 124
 978              	SD2:
 979 0000 00000000 		.space	124
 979      00000000 
 979      00000000 
 979      00000000 
 979      00000000 
 980              		.section	.bss.SD3,"aw",%nobits
 981              		.align	2
 982              		.set	.LANCHOR2,. + 0
 983              		.type	SD3, %object
 984              		.size	SD3, 124
 985              	SD3:
 986 0000 00000000 		.space	124
 986      00000000 
 986      00000000 
 986      00000000 
 986      00000000 
 987              		.section	.bss.SD4,"aw",%nobits
 988              		.align	2
 989              		.set	.LANCHOR3,. + 0
 990              		.type	SD4, %object
 991              		.size	SD4, 124
 992              	SD4:
 993 0000 00000000 		.space	124
 993      00000000 
 993      00000000 
 993      00000000 
 993      00000000 
 994              		.text
 995              	.Letext0:
 996              		.file 2 "c:\\develop\\genist\\chibistudio\\tools\\yagarto-tools\\yagarto-20121222\\bin\\../lib/gcc
 997              		.file 3 "c:/develop/genist/chibistudio/tools/yagarto-tools/yagarto-20121222/lib/gcc/../../arm-none
 998              		.file 4 "../../../os/ports/GCC/ARMCMx/chtypes.h"
 999              		.file 5 "../../../os/kernel/include/chlists.h"
 1000              		.file 6 "../../../os/kernel/include/chthreads.h"
 1001              		.file 7 "../../../os/ports/GCC/ARMCMx/chcore_v7m.h"
 1002              		.file 8 "../../../os/kernel/include/chmtx.h"
 1003              		.file 9 "../../../os/kernel/include/chevents.h"
 1004              		.file 10 "../../../os/kernel/include/chqueues.h"
 1005              		.file 11 "../../../os/hal/platforms/STM32F30x/stm32f30x.h"
ARM GAS  C:\Users\TaisikHam\AppData\Local\Temp\ccO5hARh.s 			page 19


 1006              		.file 12 "../../../os/hal/include/serial.h"
 1007              		.file 13 "../../../os/hal/platforms/STM32/USARTv2/serial_lld.h"
 1008              		.file 14 "../../../os/kernel/include/chdebug.h"
 1009              		.file 15 "../../../os/ports/common/ARMCMx/nvic.h"
 1010              		.file 16 "../../../os/ports/common/ARMCMx/CMSIS/include/core_cm4.h"