ARM GAS  C:\cygwin\tmp\cc5Nnx4h.s 			page 1


   1              		.syntax unified
   2              		.cpu cortex-m4
   3              		.fpu softvfp
   4              		.eabi_attribute 20, 1
   5              		.eabi_attribute 21, 1
   6              		.eabi_attribute 23, 3
   7              		.eabi_attribute 24, 1
   8              		.eabi_attribute 25, 1
   9              		.eabi_attribute 26, 1
  10              		.eabi_attribute 30, 2
  11              		.eabi_attribute 34, 1
  12              		.eabi_attribute 18, 4
  13              		.thumb
  14              		.file	"stm32f30x_gpio.c"
  15              		.text
  16              	.Ltext0:
  17              		.cfi_sections	.debug_frame
  18              		.section	.text.GPIO_DeInit,"ax",%progbits
  19              		.align	2
  20              		.p2align 4,,15
  21              		.global	GPIO_DeInit
  22              		.thumb
  23              		.thumb_func
  24              		.type	GPIO_DeInit, %function
  25              	GPIO_DeInit:
  26              	.LFB111:
  27              		.file 1 "../../../Testhal_wrk/STM32F30x/Gyro/stm32f30x_gpio.c"
  28              		.loc 1 123 0
  29              		.cfi_startproc
  30              		@ args = 0, pretend = 0, frame = 0
  31              		@ frame_needed = 0, uses_anonymous_args = 0
  32              	.LVL0:
  33              		.loc 1 127 0
  34 0000 B0F1904F 		cmp	r0, #1207959552
  35              		.loc 1 123 0
  36 0004 08B5     		push	{r3, lr}
  37              	.LCFI0:
  38              		.cfi_def_cfa_offset 8
  39              		.cfi_offset 3, -8
  40              		.cfi_offset 14, -4
  41              		.loc 1 127 0
  42 0006 2AD0     		beq	.L9
  43              		.loc 1 132 0
  44 0008 4FF48063 		mov	r3, #1024
  45 000c C4F60003 		movt	r3, 18432
  46 0010 9842     		cmp	r0, r3
  47 0012 30D0     		beq	.L10
  48              		.loc 1 137 0
  49 0014 4FF40063 		mov	r3, #2048
  50 0018 C4F60003 		movt	r3, 18432
  51 001c 9842     		cmp	r0, r3
  52 001e 36D0     		beq	.L11
  53              		.loc 1 142 0
  54 0020 4FF44063 		mov	r3, #3072
  55 0024 C4F60003 		movt	r3, 18432
  56 0028 9842     		cmp	r0, r3
  57 002a 3CD0     		beq	.L12
ARM GAS  C:\cygwin\tmp\cc5Nnx4h.s 			page 2


  58              		.loc 1 147 0
  59 002c 4FF48053 		mov	r3, #4096
  60 0030 C4F60003 		movt	r3, 18432
  61 0034 9842     		cmp	r0, r3
  62 0036 42D0     		beq	.L13
  63              		.loc 1 154 0
  64 0038 4FF4A053 		mov	r3, #5120
  65 003c C4F60003 		movt	r3, 18432
  66 0040 9842     		cmp	r0, r3
  67 0042 00D0     		beq	.L14
  68 0044 08BD     		pop	{r3, pc}
  69              	.L14:
  70              		.loc 1 156 0
  71 0046 0121     		movs	r1, #1
  72 0048 4FF48000 		mov	r0, #4194304
  73              	.LVL1:
  74 004c FFF7FEFF 		bl	RCC_AHBPeriphResetCmd
  75              	.LVL2:
  76              		.loc 1 157 0
  77 0050 4FF48000 		mov	r0, #4194304
  78 0054 0021     		movs	r1, #0
  79              		.loc 1 160 0
  80 0056 BDE80840 		pop	{r3, lr}
  81              		.loc 1 157 0
  82 005a FFF7FEBF 		b	RCC_AHBPeriphResetCmd
  83              	.LVL3:
  84              	.L9:
  85              		.loc 1 129 0
  86 005e 0121     		movs	r1, #1
  87 0060 4FF40030 		mov	r0, #131072
  88              	.LVL4:
  89 0064 FFF7FEFF 		bl	RCC_AHBPeriphResetCmd
  90              	.LVL5:
  91              		.loc 1 130 0
  92 0068 4FF40030 		mov	r0, #131072
  93 006c 0021     		movs	r1, #0
  94              		.loc 1 160 0
  95 006e BDE80840 		pop	{r3, lr}
  96              		.loc 1 130 0
  97 0072 FFF7FEBF 		b	RCC_AHBPeriphResetCmd
  98              	.LVL6:
  99              	.L10:
 100              		.loc 1 134 0
 101 0076 0121     		movs	r1, #1
 102 0078 4FF48020 		mov	r0, #262144
 103              	.LVL7:
 104 007c FFF7FEFF 		bl	RCC_AHBPeriphResetCmd
 105              	.LVL8:
 106              		.loc 1 135 0
 107 0080 4FF48020 		mov	r0, #262144
 108 0084 0021     		movs	r1, #0
 109              		.loc 1 160 0
 110 0086 BDE80840 		pop	{r3, lr}
 111              		.loc 1 135 0
 112 008a FFF7FEBF 		b	RCC_AHBPeriphResetCmd
 113              	.LVL9:
 114              	.L11:
ARM GAS  C:\cygwin\tmp\cc5Nnx4h.s 			page 3


 115              		.loc 1 139 0
 116 008e 0121     		movs	r1, #1
 117 0090 4FF40020 		mov	r0, #524288
 118              	.LVL10:
 119 0094 FFF7FEFF 		bl	RCC_AHBPeriphResetCmd
 120              	.LVL11:
 121              		.loc 1 140 0
 122 0098 4FF40020 		mov	r0, #524288
 123 009c 0021     		movs	r1, #0
 124              		.loc 1 160 0
 125 009e BDE80840 		pop	{r3, lr}
 126              		.loc 1 140 0
 127 00a2 FFF7FEBF 		b	RCC_AHBPeriphResetCmd
 128              	.LVL12:
 129              	.L12:
 130              		.loc 1 144 0
 131 00a6 0121     		movs	r1, #1
 132 00a8 4FF48010 		mov	r0, #1048576
 133              	.LVL13:
 134 00ac FFF7FEFF 		bl	RCC_AHBPeriphResetCmd
 135              	.LVL14:
 136              		.loc 1 145 0
 137 00b0 4FF48010 		mov	r0, #1048576
 138 00b4 0021     		movs	r1, #0
 139              		.loc 1 160 0
 140 00b6 BDE80840 		pop	{r3, lr}
 141              		.loc 1 145 0
 142 00ba FFF7FEBF 		b	RCC_AHBPeriphResetCmd
 143              	.LVL15:
 144              	.L13:
 145              		.loc 1 149 0
 146 00be 0121     		movs	r1, #1
 147 00c0 4FF40010 		mov	r0, #2097152
 148              	.LVL16:
 149 00c4 FFF7FEFF 		bl	RCC_AHBPeriphResetCmd
 150              	.LVL17:
 151              		.loc 1 150 0
 152 00c8 4FF40010 		mov	r0, #2097152
 153 00cc 0021     		movs	r1, #0
 154              		.loc 1 160 0
 155 00ce BDE80840 		pop	{r3, lr}
 156              		.loc 1 150 0
 157 00d2 FFF7FEBF 		b	RCC_AHBPeriphResetCmd
 158              	.LVL18:
 159              		.cfi_endproc
 160              	.LFE111:
 161              		.size	GPIO_DeInit, .-GPIO_DeInit
 162 00d6 00BFAFF3 		.section	.text.GPIO_Init,"ax",%progbits
 162      0080AFF3 
 162      0080
 163              		.align	2
 164              		.p2align 4,,15
 165              		.global	GPIO_Init
 166              		.thumb
 167              		.thumb_func
 168              		.type	GPIO_Init, %function
 169              	GPIO_Init:
ARM GAS  C:\cygwin\tmp\cc5Nnx4h.s 			page 4


 170              	.LFB112:
 171              		.loc 1 176 0
 172              		.cfi_startproc
 173              		@ args = 0, pretend = 0, frame = 0
 174              		@ frame_needed = 0, uses_anonymous_args = 0
 175              		@ link register save eliminated.
 176              	.LVL19:
 177 0000 0022     		movs	r2, #0
 178 0002 2DE9F00F 		push	{r4, r5, r6, r7, r8, r9, sl, fp}
 179              	.LCFI1:
 180              		.cfi_def_cfa_offset 32
 181              		.cfi_offset 4, -32
 182              		.cfi_offset 5, -28
 183              		.cfi_offset 6, -24
 184              		.cfi_offset 7, -20
 185              		.cfi_offset 8, -16
 186              		.cfi_offset 9, -12
 187              		.cfi_offset 10, -8
 188              		.cfi_offset 11, -4
 189              		.loc 1 189 0
 190 0006 1346     		mov	r3, r2
 191 0008 0E68     		ldr	r6, [r1, #0]
 192              		.loc 1 191 0
 193 000a 0127     		movs	r7, #1
 194              		.loc 1 220 0
 195 000c 4FF00308 		mov	r8, #3
 196 0010 03E0     		b	.L19
 197              	.LVL20:
 198              	.L16:
 199              		.loc 1 189 0
 200 0012 0133     		adds	r3, r3, #1
 201              	.LVL21:
 202 0014 0232     		adds	r2, r2, #2
 203 0016 102B     		cmp	r3, #16
 204 0018 29D0     		beq	.L21
 205              	.LVL22:
 206              	.L19:
 207              		.loc 1 191 0
 208 001a 07FA03F4 		lsl	r4, r7, r3
 209              	.LVL23:
 210              		.loc 1 194 0
 211 001e 04EA0605 		and	r5, r4, r6
 212              	.LVL24:
 213              		.loc 1 196 0
 214 0022 A542     		cmp	r5, r4
 215 0024 F5D1     		bne	.L16
 216              		.loc 1 198 0
 217 0026 0C79     		ldrb	r4, [r1, #4]	@ zero_extendqisi2
 218              	.LVL25:
 219 0028 04F1FF3C 		add	ip, r4, #-1
 220 002c BCF1010F 		cmp	ip, #1
 221 0030 20D9     		bls	.L17
 222 0032 08FA02FC 		lsl	ip, r8, r2
 223 0036 6FEA0C0C 		mvn	ip, ip
 224              	.LVL26:
 225              	.L18:
 226              		.loc 1 215 0
ARM GAS  C:\cygwin\tmp\cc5Nnx4h.s 			page 5


 227 003a 0568     		ldr	r5, [r0, #0]
 228              		.loc 1 221 0
 229 003c 91F80790 		ldrb	r9, [r1, #7]	@ zero_extendqisi2
 230              		.loc 1 215 0
 231 0040 0CEA0505 		and	r5, ip, r5
 232 0044 0560     		str	r5, [r0, #0]
 233              		.loc 1 217 0
 234 0046 0568     		ldr	r5, [r0, #0]
 235 0048 04FA02F4 		lsl	r4, r4, r2
 236 004c 2C43     		orrs	r4, r4, r5
 237 004e 0460     		str	r4, [r0, #0]
 238              		.loc 1 220 0
 239 0050 C468     		ldr	r4, [r0, #12]
 240 0052 08FA02F5 		lsl	r5, r8, r2
 241 0056 24EA0504 		bic	r4, r4, r5
 242 005a C460     		str	r4, [r0, #12]
 243              		.loc 1 221 0
 244 005c C568     		ldr	r5, [r0, #12]
 245 005e 09FA02F4 		lsl	r4, r9, r2
 246              		.loc 1 189 0
 247 0062 0133     		adds	r3, r3, #1
 248              	.LVL27:
 249              		.loc 1 221 0
 250 0064 2C43     		orrs	r4, r4, r5
 251 0066 0232     		adds	r2, r2, #2
 252              		.loc 1 189 0
 253 0068 102B     		cmp	r3, #16
 254              		.loc 1 221 0
 255 006a C460     		str	r4, [r0, #12]
 256              		.loc 1 189 0
 257 006c D5D1     		bne	.L19
 258              	.LVL28:
 259              	.L21:
 260              		.loc 1 224 0
 261 006e BDE8F00F 		pop	{r4, r5, r6, r7, r8, r9, sl, fp}
 262 0072 7047     		bx	lr
 263              	.LVL29:
 264              	.L17:
 265              		.loc 1 204 0
 266 0074 D0F808B0 		ldr	fp, [r0, #8]
 267              		.loc 1 205 0
 268 0078 91F805A0 		ldrb	sl, [r1, #5]	@ zero_extendqisi2
 269              		.loc 1 212 0
 270 007c 91F80690 		ldrb	r9, [r1, #6]	@ zero_extendqisi2
 271              		.loc 1 204 0
 272 0080 08FA02FC 		lsl	ip, r8, r2
 273 0084 6FEA0C0C 		mvn	ip, ip
 274 0088 0CEA0B0B 		and	fp, ip, fp
 275 008c C0F808B0 		str	fp, [r0, #8]
 276              		.loc 1 205 0
 277 0090 D0F808B0 		ldr	fp, [r0, #8]
 278 0094 0AFA02FA 		lsl	sl, sl, r2
 279 0098 4AEA0B0A 		orr	sl, sl, fp
 280 009c C0F808A0 		str	sl, [r0, #8]
 281              		.loc 1 211 0
 282 00a0 D0F804A0 		ldr	sl, [r0, #4]
 283 00a4 2AEA0505 		bic	r5, sl, r5
ARM GAS  C:\cygwin\tmp\cc5Nnx4h.s 			page 6


 284              	.LVL30:
 285 00a8 4560     		str	r5, [r0, #4]
 286              		.loc 1 212 0
 287 00aa 4568     		ldr	r5, [r0, #4]
 288 00ac 09FA03F9 		lsl	r9, r9, r3
 289              		.loc 1 544 0
 290 00b0 1FFA89F9 		uxth	r9, r9
 291              		.loc 1 212 0
 292 00b4 49EA0505 		orr	r5, r9, r5
 293 00b8 4560     		str	r5, [r0, #4]
 294 00ba BEE7     		b	.L18
 295              		.cfi_endproc
 296              	.LFE112:
 297              		.size	GPIO_Init, .-GPIO_Init
 298 00bc AFF30080 		.section	.text.GPIO_PinLockConfig,"ax",%progbits
 299              		.align	2
 300              		.p2align 4,,15
 301              		.global	GPIO_PinLockConfig
 302              		.thumb
 303              		.thumb_func
 304              		.type	GPIO_PinLockConfig, %function
 305              	GPIO_PinLockConfig:
 306              	.LFB113:
 307              		.loc 1 238 0
 308              		.cfi_startproc
 309              		@ args = 0, pretend = 0, frame = 0
 310              		@ frame_needed = 0, uses_anonymous_args = 0
 311              		@ link register save eliminated.
 312              	.LVL31:
 313              		.loc 1 247 0
 314 0000 41F48033 		orr	r3, r1, #65536
 315              	.LVL32:
 316              		.loc 1 249 0
 317 0004 C361     		str	r3, [r0, #28]
 318              		.loc 1 251 0
 319 0006 C161     		str	r1, [r0, #28]
 320              		.loc 1 253 0
 321 0008 C361     		str	r3, [r0, #28]
 322              		.loc 1 255 0
 323 000a C369     		ldr	r3, [r0, #28]
 324              	.LVL33:
 325              		.loc 1 257 0
 326 000c C369     		ldr	r3, [r0, #28]
 327 000e 7047     		bx	lr
 328              		.cfi_endproc
 329              	.LFE113:
 330              		.size	GPIO_PinLockConfig, .-GPIO_PinLockConfig
 331              		.section	.text.GPIO_ReadInputDataBit,"ax",%progbits
 332              		.align	2
 333              		.p2align 4,,15
 334              		.global	GPIO_ReadInputDataBit
 335              		.thumb
 336              		.thumb_func
 337              		.type	GPIO_ReadInputDataBit, %function
 338              	GPIO_ReadInputDataBit:
 339              	.LFB114:
 340              		.loc 1 286 0
ARM GAS  C:\cygwin\tmp\cc5Nnx4h.s 			page 7


 341              		.cfi_startproc
 342              		@ args = 0, pretend = 0, frame = 0
 343              		@ frame_needed = 0, uses_anonymous_args = 0
 344              		@ link register save eliminated.
 345              	.LVL34:
 346              		.loc 1 295 0
 347 0000 0369     		ldr	r3, [r0, #16]
 348              	.LVL35:
 349 0002 1942     		tst	r1, r3
 350              		.loc 1 304 0
 351 0004 0CBF     		ite	eq
 352 0006 0020     		moveq	r0, #0
 353 0008 0120     		movne	r0, #1
 354              	.LVL36:
 355 000a 7047     		bx	lr
 356              		.cfi_endproc
 357              	.LFE114:
 358              		.size	GPIO_ReadInputDataBit, .-GPIO_ReadInputDataBit
 359 000c AFF30080 		.section	.text.GPIO_ReadInputData,"ax",%progbits
 360              		.align	2
 361              		.p2align 4,,15
 362              		.global	GPIO_ReadInputData
 363              		.thumb
 364              		.thumb_func
 365              		.type	GPIO_ReadInputData, %function
 366              	GPIO_ReadInputData:
 367              	.LFB115:
 368              		.loc 1 312 0
 369              		.cfi_startproc
 370              		@ args = 0, pretend = 0, frame = 0
 371              		@ frame_needed = 0, uses_anonymous_args = 0
 372              		@ link register save eliminated.
 373              	.LVL37:
 374              		.loc 1 318 0
 375 0000 0069     		ldr	r0, [r0, #16]
 376              	.LVL38:
 377              		.loc 1 319 0
 378 0002 80B2     		uxth	r0, r0
 379 0004 7047     		bx	lr
 380              		.cfi_endproc
 381              	.LFE115:
 382              		.size	GPIO_ReadInputData, .-GPIO_ReadInputData
 383 0006 00BFAFF3 		.section	.text.GPIO_ReadOutputDataBit,"ax",%progbits
 383      0080AFF3 
 383      0080
 384              		.align	2
 385              		.p2align 4,,15
 386              		.global	GPIO_ReadOutputDataBit
 387              		.thumb
 388              		.thumb_func
 389              		.type	GPIO_ReadOutputDataBit, %function
 390              	GPIO_ReadOutputDataBit:
 391              	.LFB116:
 392              		.loc 1 331 0
 393              		.cfi_startproc
 394              		@ args = 0, pretend = 0, frame = 0
 395              		@ frame_needed = 0, uses_anonymous_args = 0
ARM GAS  C:\cygwin\tmp\cc5Nnx4h.s 			page 8


 396              		@ link register save eliminated.
 397              	.LVL39:
 398              		.loc 1 340 0
 399 0000 4369     		ldr	r3, [r0, #20]
 400              	.LVL40:
 401 0002 1942     		tst	r1, r3
 402              		.loc 1 349 0
 403 0004 0CBF     		ite	eq
 404 0006 0020     		moveq	r0, #0
 405 0008 0120     		movne	r0, #1
 406              	.LVL41:
 407 000a 7047     		bx	lr
 408              		.cfi_endproc
 409              	.LFE116:
 410              		.size	GPIO_ReadOutputDataBit, .-GPIO_ReadOutputDataBit
 411 000c AFF30080 		.section	.text.GPIO_ReadOutputData,"ax",%progbits
 412              		.align	2
 413              		.p2align 4,,15
 414              		.global	GPIO_ReadOutputData
 415              		.thumb
 416              		.thumb_func
 417              		.type	GPIO_ReadOutputData, %function
 418              	GPIO_ReadOutputData:
 419              	.LFB117:
 420              		.loc 1 357 0
 421              		.cfi_startproc
 422              		@ args = 0, pretend = 0, frame = 0
 423              		@ frame_needed = 0, uses_anonymous_args = 0
 424              		@ link register save eliminated.
 425              	.LVL42:
 426              		.loc 1 363 0
 427 0000 4069     		ldr	r0, [r0, #20]
 428              	.LVL43:
 429              		.loc 1 364 0
 430 0002 80B2     		uxth	r0, r0
 431 0004 7047     		bx	lr
 432              		.cfi_endproc
 433              	.LFE117:
 434              		.size	GPIO_ReadOutputData, .-GPIO_ReadOutputData
 435 0006 00BFAFF3 		.section	.text.GPIO_SetBits,"ax",%progbits
 435      0080AFF3 
 435      0080
 436              		.align	2
 437              		.p2align 4,,15
 438              		.global	GPIO_SetBits
 439              		.thumb
 440              		.thumb_func
 441              		.type	GPIO_SetBits, %function
 442              	GPIO_SetBits:
 443              	.LFB118:
 444              		.loc 1 376 0
 445              		.cfi_startproc
 446              		@ args = 0, pretend = 0, frame = 0
 447              		@ frame_needed = 0, uses_anonymous_args = 0
 448              		@ link register save eliminated.
 449              	.LVL44:
 450              		.loc 1 385 0
ARM GAS  C:\cygwin\tmp\cc5Nnx4h.s 			page 9


 451 0000 0183     		strh	r1, [r0, #24]	@ movhi
 452 0002 7047     		bx	lr
 453              		.cfi_endproc
 454              	.LFE118:
 455              		.size	GPIO_SetBits, .-GPIO_SetBits
 456 0004 AFF30080 		.section	.text.GPIO_ResetBits,"ax",%progbits
 456      AFF30080 
 456      AFF30080 
 457              		.align	2
 458              		.p2align 4,,15
 459              		.global	GPIO_ResetBits
 460              		.thumb
 461              		.thumb_func
 462              		.type	GPIO_ResetBits, %function
 463              	GPIO_ResetBits:
 464              	.LFB119:
 465              		.loc 1 399 0
 466              		.cfi_startproc
 467              		@ args = 0, pretend = 0, frame = 0
 468              		@ frame_needed = 0, uses_anonymous_args = 0
 469              		@ link register save eliminated.
 470              	.LVL45:
 471              		.loc 1 408 0
 472 0000 0183     		strh	r1, [r0, #24]	@ movhi
 473 0002 7047     		bx	lr
 474              		.cfi_endproc
 475              	.LFE119:
 476              		.size	GPIO_ResetBits, .-GPIO_ResetBits
 477 0004 AFF30080 		.section	.text.GPIO_WriteBit,"ax",%progbits
 477      AFF30080 
 477      AFF30080 
 478              		.align	2
 479              		.p2align 4,,15
 480              		.global	GPIO_WriteBit
 481              		.thumb
 482              		.thumb_func
 483              		.type	GPIO_WriteBit, %function
 484              	GPIO_WriteBit:
 485              	.LFB120:
 486              		.loc 1 426 0
 487              		.cfi_startproc
 488              		@ args = 0, pretend = 0, frame = 0
 489              		@ frame_needed = 0, uses_anonymous_args = 0
 490              		@ link register save eliminated.
 491              	.LVL46:
 492              		.loc 1 436 0
 493 0000 8161     		str	r1, [r0, #24]
 494 0002 7047     		bx	lr
 495              		.cfi_endproc
 496              	.LFE120:
 497              		.size	GPIO_WriteBit, .-GPIO_WriteBit
 498 0004 AFF30080 		.section	.text.GPIO_Write,"ax",%progbits
 498      AFF30080 
 498      AFF30080 
 499              		.align	2
 500              		.p2align 4,,15
 501              		.global	GPIO_Write
ARM GAS  C:\cygwin\tmp\cc5Nnx4h.s 			page 10


 502              		.thumb
 503              		.thumb_func
 504              		.type	GPIO_Write, %function
 505              	GPIO_Write:
 506              	.LFB121:
 507              		.loc 1 452 0
 508              		.cfi_startproc
 509              		@ args = 0, pretend = 0, frame = 0
 510              		@ frame_needed = 0, uses_anonymous_args = 0
 511              		@ link register save eliminated.
 512              	.LVL47:
 513              		.loc 1 458 0
 514 0000 4161     		str	r1, [r0, #20]
 515 0002 7047     		bx	lr
 516              		.cfi_endproc
 517              	.LFE121:
 518              		.size	GPIO_Write, .-GPIO_Write
 519 0004 AFF30080 		.section	.text.GPIO_PinAFConfig,"ax",%progbits
 519      AFF30080 
 519      AFF30080 
 520              		.align	2
 521              		.p2align 4,,15
 522              		.global	GPIO_PinAFConfig
 523              		.thumb
 524              		.thumb_func
 525              		.type	GPIO_PinAFConfig, %function
 526              	GPIO_PinAFConfig:
 527              	.LFB122:
 528              		.loc 1 510 0
 529              		.cfi_startproc
 530              		@ args = 0, pretend = 0, frame = 0
 531              		@ frame_needed = 0, uses_anonymous_args = 0
 532              		@ link register save eliminated.
 533              	.LVL48:
 534              		.loc 1 521 0
 535 0000 01F00703 		and	r3, r1, #7
 536 0004 9B00     		lsls	r3, r3, #2
 537              		.loc 1 525 0
 538 0006 0729     		cmp	r1, #7
 539              		.loc 1 510 0
 540 0008 10B4     		push	{r4}
 541              	.LCFI2:
 542              		.cfi_def_cfa_offset 4
 543              		.cfi_offset 4, -4
 544              		.loc 1 521 0
 545 000a 02FA03F2 		lsl	r2, r2, r3
 546              	.LVL49:
 547              		.loc 1 525 0
 548 000e 0BD8     		bhi	.L34
 549              		.loc 1 526 0
 550 0010 016A     		ldr	r1, [r0, #32]
 551              	.LVL50:
 552 0012 0F24     		movs	r4, #15
 553 0014 04FA03F3 		lsl	r3, r4, r3
 554 0018 21EA0303 		bic	r3, r1, r3
 555 001c 0362     		str	r3, [r0, #32]
 556              		.loc 1 536 0
ARM GAS  C:\cygwin\tmp\cc5Nnx4h.s 			page 11


 557 001e 036A     		ldr	r3, [r0, #32]
 558 0020 1A43     		orrs	r2, r2, r3
 559              	.LVL51:
 560              		.loc 1 537 0
 561 0022 0262     		str	r2, [r0, #32]
 562              	.L33:
 563              		.loc 1 544 0
 564 0024 10BC     		pop	{r4}
 565 0026 7047     		bx	lr
 566              	.LVL52:
 567              	.L34:
 568              		.loc 1 528 0
 569 0028 416A     		ldr	r1, [r0, #36]
 570              	.LVL53:
 571 002a 0F24     		movs	r4, #15
 572 002c 04FA03F3 		lsl	r3, r4, r3
 573 0030 21EA0303 		bic	r3, r1, r3
 574 0034 4362     		str	r3, [r0, #36]
 575              		.loc 1 540 0
 576 0036 436A     		ldr	r3, [r0, #36]
 577 0038 1A43     		orrs	r2, r2, r3
 578              	.LVL54:
 579              		.loc 1 541 0
 580 003a 4262     		str	r2, [r0, #36]
 581 003c F2E7     		b	.L33
 582              		.cfi_endproc
 583              	.LFE122:
 584              		.size	GPIO_PinAFConfig, .-GPIO_PinAFConfig
 585 003e 00BF     		.text
 586              	.Letext0:
 587              		.file 2 "c:/develop/genist/chibistudio/tools/yagarto-tools/yagarto-20121222/lib/gcc/../../arm-none
 588              		.file 3 "../../../os/hal/platforms/STM32F30x/stm32f30x.h"
 589              		.file 4 "../../../Testhal_wrk/STM32F30x/Gyro/stm32f30x_gpio.h"
 590              		.file 5 "../../../os/ports/common/ARMCMx/CMSIS/include/core_cm4.h"
 591              		.file 6 "../../../Testhal_wrk/STM32F30x/Gyro/stm32f30x_rcc.h"