ARM GAS  C:\cygwin\tmp\cc5Nnx4h.s 			page 1


   1              		.syntax unified
   2              		.cpu cortex-m4
   3              		.fpu softvfp
   4              		.eabi_attribute 20, 1
   5              		.eabi_attribute 21, 1
   6              		.eabi_attribute 23, 3
   7              		.eabi_attribute 24, 1
   8              		.eabi_attribute 25, 1
   9              		.eabi_attribute 26, 1
  10              		.eabi_attribute 30, 2
  11              		.eabi_attribute 34, 1
  12              		.eabi_attribute 18, 4
  13              		.thumb
  14              		.file	"stm32f30x_gpio.c"
  15              		.text
  16              	.Ltext0:
  17              		.cfi_sections	.debug_frame
  18              		.section	.text.GPIO_DeInit,"ax",%progbits
  19              		.align	2
  20              		.p2align 4,,15
  21              		.global	GPIO_DeInit
  22              		.thumb
  23              		.thumb_func
  24              		.type	GPIO_DeInit, %function
  25              	GPIO_DeInit:
  26              	.LFB111:
  27              		.file 1 "../../../Testhal_wrk/STM32F30x/Gyro/stm32f30x_gpio.c"
  28              		.loc 1 123 0
  29              		.cfi_startproc
  30              		@ args = 0, pretend = 0, frame = 0
  31              		@ frame_needed = 0, uses_anonymous_args = 0
  32              	.LVL0:
  33              		.loc 1 127 0
  34 0000 B0F1904F 		cmp	r0, #1207959552
  35              		.loc 1 123 0
  36 0004 08B5     		push	{r3, lr}
  37              	.LCFI0:
  38              		.cfi_def_cfa_offset 8
  39              		.cfi_offset 3, -8
  40              		.cfi_offset 14, -4
  41              		.loc 1 127 0
  42 0006 2AD0     		beq	.L9
  43              		.loc 1 132 0
  44 0008 4FF48063 		mov	r3, #1024
  45 000c C4F60003 		movt	r3, 18432
  46 0010 9842     		cmp	r0, r3
  47 0012 30D0     		beq	.L10
  48              		.loc 1 137 0
  49 0014 4FF40063 		mov	r3, #2048
  50 0018 C4F60003 		movt	r3, 18432
  51 001c 9842     		cmp	r0, r3
  52 001e 36D0     		beq	.L11
  53              		.loc 1 142 0
  54 0020 4FF44063 		mov	r3, #3072
  55 0024 C4F60003 		movt	r3, 18432
  56 0028 9842     		cmp	r0, r3
  57 002a 3CD0     		beq	.L12
ARM GAS  C:\cygwin\tmp\cc5Nnx4h.s 			page 2


  58              		.loc 1 147 0
  59 002c 4FF48053 		mov	r3, #4096
  60 0030 C4F60003 		movt	r3, 18432
  61 0034 9842     		cmp	r0, r3
  62 0036 42D0     		beq	.L13
  63              		.loc 1 154 0
  64 0038 4FF4A053 		mov	r3, #5120
  65 003c C4F60003 		movt	r3, 18432
  66 0040 9842     		cmp	r0, r3
  67 0042 00D0     		beq	.L14
  68 0044 08BD     		pop	{r3, pc}
  69              	.L14:
  70              		.loc 1 156 0
  71 0046 0121     		movs	r1, #1
  72 0048 4FF48000 		mov	r0, #4194304
  73              	.LVL1:
  74 004c FFF7FEFF 		bl	RCC_AHBPeriphResetCmd
  75              	.LVL2:
  76              		.loc 1 157 0
  77 0050 4FF48000 		mov	r0, #4194304
  78 0054 0021     		movs	r1, #0
  79              		.loc 1 160 0
  80 0056 BDE80840 		pop	{r3, lr}
  81              		.loc 1 157 0
  82 005a FFF7FEBF 		b	RCC_AHBPeriphResetCmd
  83              	.LVL3:
  84              	.L9:
  85              		.loc 1 129 0
  86 005e 0121     		movs	r1, #1
  87 0060 4FF40030 		mov	r0, #131072
  88              	.LVL4:
  89 0064 FFF7FEFF 		bl	RCC_AHBPeriphResetCmd
  90              	.LVL5:
  91              		.loc 1 130 0
  92 0068 4FF40030 		mov	r0, #131072
  93 006c 0021     		movs	r1, #0
  94              		.loc 1 160 0
  95 006e BDE80840 		pop	{r3, lr}
  96              		.loc 1 130 0
  97 0072 FFF7FEBF 		b	RCC_AHBPeriphResetCmd
  98              	.LVL6:
  99              	.L10:
 100              		.loc 1 134 0
 101 0076 0121     		movs	r1, #1
 102 0078 4FF48020 		mov	r0, #262144
 103              	.LVL7:
 104 007c FFF7FEFF 		bl	RCC_AHBPeriphResetCmd
 105              	.LVL8:
 106              		.loc 1 135 0
 107 0080 4FF48020 		mov	r0, #262144
 108 0084 0021     		movs	r1, #0
 109              		.loc 1 160 0
 110 0086 BDE80840 		pop	{r3, lr}
 111              		.loc 1 135 0
 112 008a FFF7FEBF 		b	RCC_AHBPeriphResetCmd
 113              	.LVL9:
 114              	.L11:
ARM GAS  C:\cygwin\tmp\cc5Nnx4h.s 			page 3


 115              		.loc 1 139 0
 116 008e 0121     		movs	r1, #1
 117 0090 4FF40020 		mov	r0, #524288
 118              	.LVL10:
 119 0094 FFF7FEFF 		bl	RCC_AHBPeriphResetCmd
 120              	.LVL11:
 121              		.loc 1 140 0
 122 0098 4FF40020 		mov	r0, #524288
 123 009c 0021     		movs	r1, #0
 124              		.loc 1 160 0
 125 009e BDE80840 		pop	{r3, lr}
 126              		.loc 1 140 0
 127 00a2 FFF7FEBF 		b	RCC_AHBPeriphResetCmd
 128              	.LVL12:
 129              	.L12:
 130              		.loc 1 144 0
 131 00a6 0121     		movs	r1, #1
 132 00a8 4FF48010 		mov	r0, #1048576
 133              	.LVL13:
 134 00ac FFF7FEFF 		bl	RCC_AHBPeriphResetCmd
 135              	.LVL14:
 136              		.loc 1 145 0
 137 00b0 4FF48010 		mov	r0, #1048576
 138 00b4 0021     		movs	r1, #0
 139              		.loc 1 160 0
 140 00b6 BDE80840 		pop	{r3, lr}
 141              		.loc 1 145 0
 142 00ba FFF7FEBF 		b	RCC_AHBPeriphResetCmd
 143              	.LVL15:
 144              	.L13:
 145              		.loc 1 149 0
 146 00be 0121     		movs	r1, #1
 147 00c0 4FF40010 		mov	r0, #2097152
 148              	.LVL16:
 149 00c4 FFF7FEFF 		bl	RCC_AHBPeriphResetCmd
 150              	.LVL17:
 151              		.loc 1 150 0
 152 00c8 4FF40010 		mov	r0, #2097152
 153 00cc 0021     		movs	r1, #0
 154              		.loc 1 160 0
 155 00ce BDE80840 		pop	{r3, lr}
 156              		.loc 1 150 0
 157 00d2 FFF7FEBF 		b	RCC_AHBPeriphResetCmd
 158              	.LVL18:
 159              		.cfi_endproc
 160              	.LFE111:
 161              		.size	GPIO_DeInit, .-GPIO_DeInit
 162 00d6 00BFAFF3 		.section	.text.GPIO_Init,"ax",%progbits
 162      0080AFF3 
 162      0080
 163              		.align	2
 164              		.p2align 4,,15
 165              		.global	GPIO_Init
 166              		.thumb
 167              		.thumb_func
 168              		.type	GPIO_Init, %function
 169              	GPIO_Init:
ARM GAS  C:\cygwin\tmp\cc5Nnx4h.s 			page 4


 170              	.LFB112:
 171              		.loc 1 176 0
 172              		.cfi_startproc
 173              		@ args = 0, pretend = 0, frame = 0
 174              		@ frame_needed = 0, uses_anonymous_args = 0
 175              		@ link register save eliminated.
 176              	.LVL19:
 177 0000 0022     		movs	r2, #0
 178 0002 2DE9F00F 		push	{r4, r5, r6, r7, r8, r9, sl, fp}
 179              	.LCFI1:
 180              		.cfi_def_cfa_offset 32
 181              		.cfi_offset 4, -32
 182              		.cfi_offset 5, -28
 183              		.cfi_offset 6, -24
 184              		.cfi_offset 7, -20
 185              		.cfi_offset 8, -16
 186              		.cfi_offset 9, -12
 187              		.cfi_offset 10, -8
 188              		.cfi_offset 11, -4
 189              		.loc 1 189 0
 190 0006 1346     		mov	r3, r2
 191 0008 0E68     		ldr	r6, [r1, #0]
 192              		.loc 1 191 0
 193 000a 0127     		movs	r7, #1
 194              		.loc 1 220 0
 195 000c 4FF00308 		mov	r8, #3
 196 0010 03E0     		b	.L19
 197              	.LVL20:
 198              	.L16:
 199              		.loc 1 189 0
 200 0012 0133     		adds	r3, r3, #1
 201              	.LVL21:
 202 0014 0232     		adds	r2, r2, #2
 203 0016 102B     		cmp	r3, #16
 204 0018 29D0     		beq	.L21
 205              	.LVL22:
 206              	.L19:
 207              		.loc 1 191 0
 208 001a 07FA03F4 		lsl	r4, r7, r3
 209              	.LVL23:
 210              		.loc 1 194 0
 211 001e 04EA0605 		and	r5, r4, r6
 212              	.LVL24:
 213              		.loc 1 196 0
 214 0022 A542     		cmp	r5, r4
 215 0024 F5D1     		bne	.L16
 216              		.loc 1 198 0
 217 0026 0C79     		ldrb	r4, [r1, #4]	@ zero_extendqisi2
 218              	.LVL25:
 219 0028 04F1FF3C 		add	ip, r4, #-1
 220 002c BCF1010F 		cmp	ip, #1
 221 0030 20D9     		bls	.L17
 222 0032 08FA02FC 		lsl	ip, r8, r2
 223 0036 6FEA0C0C 		mvn	ip, ip
 224              	.LVL26:
 225              	.L18:
 226              		.loc 1 215 0
ARM GAS  C:\cygwin\tmp\cc5Nnx4h.s 			page 5


 227 003a 0568     		ldr	r5, [r0, #0]
 228              		.loc 1 221 0
 229 003c 91F80790 		ldrb	r9, [r1, #7]	@ zero_extendqisi2
 230              		.loc 1 215 0
 231 0040 0CEA0505 		and	r5, ip, r5
 232 0044 0560     		str	r5, [r0, #0]
 233              		.loc 1 217 0
 234 0046 0568     		ldr	r5, [r0, #0]
 235 0048 04FA02F4 		lsl	r4, r4, r2
 236 004c 2C43     		orrs	r4, r4, r5
 237 004e 0460     		str	r4, [r0, #0]
 238              		.loc 1 220 0
 239 0050 C468     		ldr	r4, [r0, #12]
 240 0052 08FA02F5 		lsl	r5, r8, r2
 241 0056 24EA0504 		bic	r4, r4, r5
 242 005a C460     		str	r4, [r0, #12]
 243              		.loc 1 221 0
 244 005c C568     		ldr	r5, [r0, #12]
 245 005e 09FA02F4 		lsl	r4, r9, r2
 246              		.loc 1 189 0
 247 0062 0133     		adds	r3, r3, #1
 248              	.LVL27:
 249              		.loc 1 221 0
 250 0064 2C43     		orrs	r4, r4, r5
 251 0066 0232     		adds	r2, r2, #2
 252              		.loc 1 189 0
 253 0068 102B     		cmp	r3, #16
 254              		.loc 1 221 0
 255 006a C460     		str	r4, [r0, #12]
 256              		.loc 1 189 0
 257 006c D5D1     		bne	.L19
 258              	.LVL28:
 259              	.L21:
 260              		.loc 1 224 0
 261 006e BDE8F00F 		pop	{r4, r5, r6, r7, r8, r9, sl, fp}
 262 0072 7047     		bx	lr
 263              	.LVL29:
 264              	.L17:
 265              		.loc 1 204 0
 266 0074 D0F808B0 		ldr	fp, [r0, #8]
 267              		.loc 1 205 0
 268 0078 91F805A0 		ldrb	sl, [r1, #5]	@ zero_extendqisi2
 269              		.loc 1 212 0
 270 007c 91F80690 		ldrb	r9, [r1, #6]	@ zero_extendqisi2
 271              		.loc 1 204 0
 272 0080 08FA02FC 		lsl	ip, r8, r2
 273 0084 6FEA0C0C 		mvn	ip, ip
 274 0088 0CEA0B0B 		and	fp, ip, fp
 275 008c C0F808B0 		str	fp, [r0, #8]
 276              		.loc 1 205 0
 277 0090 D0F808B0 		ldr	fp, [r0, #8]
 278 0094 0AFA02FA 		lsl	sl, sl, r2
 279 0098 4AEA0B0A 		orr	sl, sl, fp
 280 009c C0F808A0 		str	sl, [r0, #8]
 281              		.loc 1 211 0
 282 00a0 D0F804A0 		ldr	sl, [r0, #4]
 283 00a4 2AEA0505 		bic	r5, sl, r5
ARM GAS  C:\cygwin\tmp\cc5Nnx4h.s 			page 6


 284              	.LVL30:
 285 00a8 4560     		str	r5, [r0, #4]
 286              		.loc 1 212 0
 287 00aa 4568     		ldr	r5, [r0, #4]
 288 00ac 09FA03F9 		lsl	r9, r9, r3
 289              		.loc 1 544 0
 290 00b0 1FFA89F9 		uxth	r9, r9
 291              		.loc 1 212 0
 292 00b4 49EA0505 		orr	r5, r9, r5
 293 00b8 4560     		str	r5, [r0, #4]
 294 00ba BEE7     		b	.L18
 295              		.cfi_endproc
 296              	.LFE112:
 297              		.size	GPIO_Init, .-GPIO_Init
 298 00bc AFF30080 		.section	.text.GPIO_PinLockConfig,"ax",%progbits
 299              		.align	2
 300              		.p2align 4,,15
 301              		.global	GPIO_PinLockConfig
 302              		.thumb
 303              		.thumb_func
 304              		.type	GPIO_PinLockConfig, %function
 305              	GPIO_PinLockConfig:
 306              	.LFB113:
 307              		.loc 1 238 0
 308              		.cfi_startproc
 309              		@ args = 0, pretend = 0, frame = 0
 310              		@ frame_needed = 0, uses_anonymous_args = 0
 311              		@ link register save eliminated.
 312              	.LVL31:
 313              		.loc 1 247 0
 314 0000 41F48033 		orr	r3, r1, #65536
 315              	.LVL32:
 316              		.loc 1 249 0
 317 0004 C361     		str	r3, [r0, #28]
 318              		.loc 1 251 0
 319 0006 C161     		str	r1, [r0, #28]
 320              		.loc 1 253 0
 321 0008 C361     		str	r3, [r0, #28]
 322              		.loc 1 255 0
 323 000a C369     		ldr	r3, [r0, #28]
 324              	.LVL33:
 325              		.loc 1 257 0
 326 000c C369     		ldr	r3, [r0, #28]
 327 000e 7047     		bx	lr
 328              		.cfi_endproc
 329              	.LFE113:
 330              		.size	GPIO_PinLockConfig, .-GPIO_PinLockConfig
 331              		.section	.text.GPIO_ReadInputDataBit,"ax",%progbits
 332              		.align	2
 333              		.p2align 4,,15
 334              		.global	GPIO_ReadInputDataBit
 335              		.thumb
 336              		.thumb_func
 337              		.type	GPIO_ReadInputDataBit, %function
 338              	GPIO_ReadInputDataBit:
 339              	.LFB114:
 340              		.loc 1 286 0
ARM GAS  C:\cygwin\tmp\cc5Nnx4h.s 			page 7


 341              		.cfi_startproc
 342              		@ args = 0, pretend = 0, frame = 0
 343              		@ frame_needed = 0, uses_anonymous_args = 0
 344              		@ link register save eliminated.
 345              	.LVL34:
 346              		.loc 1 295 0
 347 0000 0369     		ldr	r3, [r0, #16]
 348              	.LVL35:
 349 0002 1942     		tst	r1, r3
 350              		.loc 1 304 0
 351 0004 0CBF     		ite	eq
 352 0006 0020     		moveq	r0, #0
 353 0008 0120     		movne	r0, #1
 354              	.LVL36:
 355 000a 7047     		bx	lr
 356              		.cfi_endproc
 357              	.LFE114:
 358              		.size	GPIO_ReadInputDataBit, .-GPIO_ReadInputDataBit
 359 000c AFF30080 		.section	.text.GPIO_ReadInputData,"ax",%progbits
 360              		.align	2
 361              		.p2align 4,,15
 362              		.global	GPIO_ReadInputData
 363              		.thumb
 364              		.thumb_func
 365              		.type	GPIO_ReadInputData, %function
 366              	GPIO_ReadInputData:
 367              	.LFB115:
 368              		.loc 1 312 0
 369              		.cfi_startproc
 370              		@ args = 0, pretend = 0, frame = 0
 371              		@ frame_needed = 0, uses_anonymous_args = 0
 372              		@ link register save eliminated.
 373              	.LVL37:
 374              		.loc 1 318 0
 375 0000 0069     		ldr	r0, [r0, #16]
 376              	.LVL38:
 377              		.loc 1 319 0
 378 0002 80B2     		uxth	r0, r0
 379 0004 7047     		bx	lr
 380              		.cfi_endproc
 381              	.LFE115:
 382              		.size	GPIO_ReadInputData, .-GPIO_ReadInputData
 383 0006 00BFAFF3 		.section	.text.GPIO_ReadOutputDataBit,"ax",%progbits
 383      0080AFF3 
 383      0080
 384              		.align	2
 385              		.p2align 4,,15
 386              		.global	GPIO_ReadOutputDataBit
 387              		.thumb
 388              		.thumb_func
 389              		.type	GPIO_ReadOutputDataBit, %function
 390              	GPIO_ReadOutputDataBit:
 391              	.LFB116:
 392              		.loc 1 331 0
 393              		.cfi_startproc
 394              		@ args = 0, pretend = 0, frame = 0
 395              		@ frame_needed = 0, uses_anonymous_args = 0
ARM GAS  C:\cygwin\tmp\cc5Nnx4h.s 			page 8


 396              		@ link register save eliminated.
 397              	.LVL39:
 398              		.loc 1 340 0
 399 0000 4369     		ldr	r3, [r0, #20]
 400              	.LVL40:
 401 0002 1942     		tst	r1, r3
 402              		.loc 1 349 0
 403 0004 0CBF     		ite	eq
 404 0006 0020     		moveq	r0, #0
 405 0008 0120     		movne	r0, #1
 406              	.LVL41:
 407 000a 7047     		bx	lr
 408              		.cfi_endproc
 409              	.LFE116:
 410              		.size	GPIO_ReadOutputDataBit, .-GPIO_ReadOutputDataBit
 411 000c AFF30080 		.section	.text.GPIO_ReadOutputData,"ax",%progbits
 412              		.align	2
 413              		.p2align 4,,15
 414              		.global	GPIO_ReadOutputData
 415              		.thumb
 416              		.thumb_func
 417              		.type	GPIO_ReadOutputData, %function
 418              	GPIO_ReadOutputData:
 419              	.LFB117:
 420              		.loc 1 357 0
 421              		.cfi_startproc
 422              		@ args = 0, pretend = 0, frame = 0
 423              		@ frame_needed = 0, uses_anonymous_args = 0
 424              		@ link register save eliminated.
 425              	.LVL42:
 426              		.loc 1 363 0
 427 0000 4069     		ldr	r0, [r0, #20]
 428              	.LVL43:
 429              		.loc 1 364 0
 430 0002 80B2     		uxth	r0, r0
 431 0004 7047     		bx	lr
 432              		.cfi_endproc
 433              	.LFE117:
 434              		.size	GPIO_ReadOutputData, .-GPIO_ReadOutputData
 435 0006 00BFAFF3 		.section	.text.GPIO_SetBits,"ax",%progbits
 435      0080AFF3 
 435      0080
 436              		.align	2
 437              		.p2align 4,,15
 438              		.global	GPIO_SetBits
 439              		.thumb
 440              		.thumb_func
 441              		.type	GPIO_SetBits, %function
 442              	GPIO_SetBits:
 443              	.LFB118:
 444              		.loc 1 376 0
 445              		.cfi_startproc
 446              		@ args = 0, pretend = 0, frame = 0
 447              		@ frame_needed = 0, uses_anonymous_args = 0
 448              		@ link register save eliminated.
 449              	.LVL44:
 450              		.loc 1 385 0
ARM GAS  C:\cygwin\tmp\cc5Nnx4h.s 			page 9


 451 0000 0183     		strh	r1, [r0, #24]	@ movhi
 452 0002 7047     		bx	lr
 453              		.cfi_endproc
 454              	.LFE118:
 455              		.size	GPIO_SetBits, .-GPIO_SetBits
 456 0004 AFF30080 		.section	.text.GPIO_ResetBits,"ax",%progbits
 456      AFF30080 
 456      AFF30080 
 457              		.align	2
 458              		.p2align 4,,15
 459              		.global	GPIO_ResetBits
 460              		.thumb
 461              		.thumb_func
 462              		.type	GPIO_ResetBits, %function
 463              	GPIO_ResetBits:
 464              	.LFB119:
 465              		.loc 1 399 0
 466              		.cfi_startproc
 467              		@ args = 0, pretend = 0, frame = 0
 468              		@ frame_needed = 0, uses_anonymous_args = 0
 469              		@ link register save eliminated.
 470              	.LVL45:
 471              		.loc 1 408 0
 472 0000 0183     		strh	r1, [r0, #24]	@ movhi
 473 0002 7047     		bx	lr
 474              		.cfi_endproc
 475              	.LFE119:
 476              		.size	GPIO_ResetBits, .-GPIO_ResetBits
 477 0004 AFF30080 		.section	.text.GPIO_WriteBit,"ax",%progbits
 477      AFF30080 
 477      AFF30080 
 478              		.align	2
 479              		.p2align 4,,15
 480              		.global	GPIO_WriteBit
 481              		.thumb
 482              		.thumb_func
 483              		.type	GPIO_WriteBit, %function
 484              	GPIO_WriteBit:
 485              	.LFB120:
 486              		.loc 1 426 0
 487              		.cfi_startproc
 488              		@ args = 0, pretend = 0, frame = 0
 489              		@ frame_needed = 0, uses_anonymous_args = 0
 490              		@ link register save eliminated.
 491              	.LVL46:
 492              		.loc 1 436 0
 493 0000 8161     		str	r1, [r0, #24]
 494 0002 7047     		bx	lr
 495              		.cfi_endproc
 496              	.LFE120:
 497              		.size	GPIO_WriteBit, .-GPIO_WriteBit
 498 0004 AFF30080 		.section	.text.GPIO_Write,"ax",%progbits
 498      AFF30080 
 498      AFF30080 
 499              		.align	2
 500              		.p2align 4,,15
 501              		.global	GPIO_Write
ARM GAS  C:\cygwin\tmp\cc5Nnx4h.s 			page 10


 502              		.thumb
 503              		.thumb_func
 504              		.type	GPIO_Write, %function
 505              	GPIO_Write:
 506              	.LFB121:
 507              		.loc 1 452 0
 508              		.cfi_startproc
 509              		@ args = 0, pretend = 0, frame = 0
 510              		@ frame_needed = 0, uses_anonymous_args = 0
 511              		@ link register save eliminated.
 512              	.LVL47:
 513              		.loc 1 458 0
 514 0000 4161     		str	r1, [r0, #20]
 515 0002 7047     		bx	lr
 516              		.cfi_endproc
 517              	.LFE121:
 518              		.size	GPIO_Write, .-GPIO_Write
 519 0004 AFF30080 		.section	.text.GPIO_PinAFConfig,"ax",%progbits
 519      AFF30080 
 519      AFF30080 
 520              		.align	2
 521              		.p2align 4,,15
 522              		.global	GPIO_PinAFConfig
 523              		.thumb
 524              		.thumb_func
 525              		.type	GPIO_PinAFConfig, %function
 526              	GPIO_PinAFConfig:
 527              	.LFB122:
 528              		.loc 1 510 0
 529              		.cfi_startproc
 530              		@ args = 0, pretend = 0, frame = 0
 531              		@ frame_needed = 0, uses_anonymous_args = 0
 532              		@ link register save eliminated.
 533              	.LVL48:
 534              		.loc 1 521 0
 535 0000 01F00703 		and	r3, r1, #7
 536 0004 9B00     		lsls	r3, r3, #2
 537              		.loc 1 525 0
 538 0006 0729     		cmp	r1, #7
 539              		.loc 1 510 0
 540 0008 10B4     		push	{r4}
 541              	.LCFI2:
 542              		.cfi_def_cfa_offset 4
 543              		.cfi_offset 4, -4
 544              		.loc 1 521 0
 545 000a 02FA03F2 		lsl	r2, r2, r3
 546              	.LVL49:
 547              		.loc 1 525 0
 548 000e 0BD8     		bhi	.L34
 549              		.loc 1 526 0
 550 0010 016A     		ldr	r1, [r0, #32]
 551              	.LVL50:
 552 0012 0F24     		movs	r4, #15
 553 0014 04FA03F3 		lsl	r3, r4, r3
 554 0018 21EA0303 		bic	r3, r1, r3
 555 001c 0362     		str	r3, [r0, #32]
 556              		.loc 1 536 0
ARM GAS  C:\cygwin\tmp\cc5Nnx4h.s 			page 11


 557 001e 036A     		ldr	r3, [r0, #32]
 558 0020 1A43     		orrs	r2, r2, r3
 559              	.LVL51:
 560              		.loc 1 537 0
 561 0022 0262     		str	r2, [r0, #32]
 562              	.L33:
 563              		.loc 1 544 0
 564 0024 10BC     		pop	{r4}
 565 0026 7047     		bx	lr
 566              	.LVL52:
 567              	.L34:
 568              		.loc 1 528 0
 569 0028 416A     		ldr	r1, [r0, #36]
 570              	.LVL53:
 571 002a 0F24     		movs	r4, #15
 572 002c 04FA03F3 		lsl	r3, r4, r3
 573 0030 21EA0303 		bic	r3, r1, r3
 574 0034 4362     		str	r3, [r0, #36]
 575              		.loc 1 540 0
 576 0036 436A     		ldr	r3, [r0, #36]
 577 0038 1A43     		orrs	r2, r2, r3
 578              	.LVL54:
 579              		.loc 1 541 0
 580 003a 4262     		str	r2, [r0, #36]
 581 003c F2E7     		b	.L33
 582              		.cfi_endproc
 583              	.LFE122:
 584              		.size	GPIO_PinAFConfig, .-GPIO_PinAFConfig
 585 003e 00BF     		.text
 586              	.Letext0:
 587              		.file 2 "c:/develop/genist/chibistudio/tools/yagarto-tools/yagarto-20121222/lib/gcc/../../arm-none
 588              		.file 3 "../../../os/hal/platforms/STM32F30x/stm32f30x.h"
 589              		.file 4 "../../../Testhal_wrk/STM32F30x/Gyro/stm32f30x_gpio.h"
 590              		.file 5 "../../../os/ports/common/ARMCMx/CMSIS/include/core_cm4.h"
 591              		.file 6 "../../../Testhal_wrk/STM32F30x/Gyro/stm32f30x_rcc.h"
 592              		.section	.debug_info,"",%progbits
 593              	.Ldebug_info0:
 594 0000 59070000 		.4byte	0x759
 595 0004 0200     		.2byte	0x2
 596 0006 00000000 		.4byte	.Ldebug_abbrev0
 597 000a 04       		.byte	0x4
 598 000b 01       		.uleb128 0x1
 599 000c 5B030000 		.4byte	.LASF75
 600 0010 01       		.byte	0x1
 601 0011 8F030000 		.4byte	.LASF76
 602 0015 BB010000 		.4byte	.LASF77
 603 0019 00000000 		.4byte	.Ldebug_ranges0+0
 604 001d 00000000 		.4byte	0
 605 0021 00000000 		.4byte	0
 606 0025 00000000 		.4byte	.Ldebug_line0
 607 0029 02       		.uleb128 0x2
 608 002a 01       		.byte	0x1
 609 002b 06       		.byte	0x6
 610 002c 30020000 		.4byte	.LASF0
 611 0030 03       		.uleb128 0x3
 612 0031 78030000 		.4byte	.LASF3
 613 0035 02       		.byte	0x2
ARM GAS  C:\cygwin\tmp\cc5Nnx4h.s 			page 12


 614 0036 2A       		.byte	0x2a
 615 0037 3B000000 		.4byte	0x3b
 616 003b 02       		.uleb128 0x2
 617 003c 01       		.byte	0x1
 618 003d 08       		.byte	0x8
 619 003e 00020000 		.4byte	.LASF1
 620 0042 02       		.uleb128 0x2
 621 0043 02       		.byte	0x2
 622 0044 05       		.byte	0x5
 623 0045 65000000 		.4byte	.LASF2
 624 0049 03       		.uleb128 0x3
 625 004a 7A020000 		.4byte	.LASF4
 626 004e 02       		.byte	0x2
 627 004f 36       		.byte	0x36
 628 0050 54000000 		.4byte	0x54
 629 0054 02       		.uleb128 0x2
 630 0055 02       		.byte	0x2
 631 0056 07       		.byte	0x7
 632 0057 EE020000 		.4byte	.LASF5
 633 005b 03       		.uleb128 0x3
 634 005c D3020000 		.4byte	.LASF6
 635 0060 02       		.byte	0x2
 636 0061 4F       		.byte	0x4f
 637 0062 66000000 		.4byte	0x66
 638 0066 02       		.uleb128 0x2
 639 0067 04       		.byte	0x4
 640 0068 05       		.byte	0x5
 641 0069 53010000 		.4byte	.LASF7
 642 006d 03       		.uleb128 0x3
 643 006e 53020000 		.4byte	.LASF8
 644 0072 02       		.byte	0x2
 645 0073 50       		.byte	0x50
 646 0074 78000000 		.4byte	0x78
 647 0078 02       		.uleb128 0x2
 648 0079 04       		.byte	0x4
 649 007a 07       		.byte	0x7
 650 007b 8B020000 		.4byte	.LASF9
 651 007f 02       		.uleb128 0x2
 652 0080 08       		.byte	0x8
 653 0081 05       		.byte	0x5
 654 0082 31010000 		.4byte	.LASF10
 655 0086 02       		.uleb128 0x2
 656 0087 08       		.byte	0x8
 657 0088 07       		.byte	0x7
 658 0089 3C020000 		.4byte	.LASF11
 659 008d 04       		.uleb128 0x4
 660 008e 04       		.byte	0x4
 661 008f 05       		.byte	0x5
 662 0090 696E7400 		.ascii	"int\000"
 663 0094 02       		.uleb128 0x2
 664 0095 04       		.byte	0x4
 665 0096 07       		.byte	0x7
 666 0097 6D020000 		.4byte	.LASF12
 667 009b 02       		.uleb128 0x2
 668 009c 04       		.byte	0x4
 669 009d 07       		.byte	0x7
 670 009e 6F000000 		.4byte	.LASF13
ARM GAS  C:\cygwin\tmp\cc5Nnx4h.s 			page 13


 671 00a2 05       		.uleb128 0x5
 672 00a3 6D000000 		.4byte	0x6d
 673 00a7 05       		.uleb128 0x5
 674 00a8 5B000000 		.4byte	0x5b
 675 00ac 06       		.uleb128 0x6
 676 00ad 01       		.byte	0x1
 677 00ae 03       		.byte	0x3
 678 00af 2401     		.2byte	0x124
 679 00b1 C2000000 		.4byte	0xc2
 680 00b5 07       		.uleb128 0x7
 681 00b6 CB020000 		.4byte	.LASF14
 682 00ba 00       		.sleb128 0
 683 00bb 07       		.uleb128 0x7
 684 00bc E6000000 		.4byte	.LASF15
 685 00c0 01       		.sleb128 1
 686 00c1 00       		.byte	0
 687 00c2 08       		.uleb128 0x8
 688 00c3 45030000 		.4byte	.LASF16
 689 00c7 03       		.byte	0x3
 690 00c8 2401     		.2byte	0x124
 691 00ca AC000000 		.4byte	0xac
 692 00ce 09       		.uleb128 0x9
 693 00cf 04       		.byte	0x4
 694 00d0 03       		.byte	0x3
 695 00d1 4D02     		.2byte	0x24d
 696 00d3 F6000000 		.4byte	0xf6
 697 00d7 0A       		.uleb128 0xa
 698 00d8 73657400 		.ascii	"set\000"
 699 00dc 03       		.byte	0x3
 700 00dd 4E02     		.2byte	0x24e
 701 00df 49000000 		.4byte	0x49
 702 00e3 02       		.byte	0x2
 703 00e4 23       		.byte	0x23
 704 00e5 00       		.uleb128 0
 705 00e6 0B       		.uleb128 0xb
 706 00e7 80010000 		.4byte	.LASF17
 707 00eb 03       		.byte	0x3
 708 00ec 4F02     		.2byte	0x24f
 709 00ee 49000000 		.4byte	0x49
 710 00f2 02       		.byte	0x2
 711 00f3 23       		.byte	0x23
 712 00f4 02       		.uleb128 0x2
 713 00f5 00       		.byte	0
 714 00f6 0C       		.uleb128 0xc
 715 00f7 04       		.byte	0x4
 716 00f8 03       		.byte	0x3
 717 00f9 4B02     		.2byte	0x24b
 718 00fb 14010000 		.4byte	0x114
 719 00ff 0D       		.uleb128 0xd
 720 0100 5700     		.ascii	"W\000"
 721 0102 03       		.byte	0x3
 722 0103 4C02     		.2byte	0x24c
 723 0105 6D000000 		.4byte	0x6d
 724 0109 0D       		.uleb128 0xd
 725 010a 4800     		.ascii	"H\000"
 726 010c 03       		.byte	0x3
 727 010d 5002     		.2byte	0x250
ARM GAS  C:\cygwin\tmp\cc5Nnx4h.s 			page 14


 728 010f CE000000 		.4byte	0xce
 729 0113 00       		.byte	0
 730 0114 09       		.uleb128 0x9
 731 0115 28       		.byte	0x28
 732 0116 03       		.byte	0x3
 733 0117 4302     		.2byte	0x243
 734 0119 B4010000 		.4byte	0x1b4
 735 011d 0B       		.uleb128 0xb
 736 011e 7A010000 		.4byte	.LASF18
 737 0122 03       		.byte	0x3
 738 0123 4502     		.2byte	0x245
 739 0125 A2000000 		.4byte	0xa2
 740 0129 02       		.byte	0x2
 741 012a 23       		.byte	0x23
 742 012b 00       		.uleb128 0
 743 012c 0B       		.uleb128 0xb
 744 012d 2A010000 		.4byte	.LASF19
 745 0131 03       		.byte	0x3
 746 0132 4602     		.2byte	0x246
 747 0134 A2000000 		.4byte	0xa2
 748 0138 02       		.byte	0x2
 749 0139 23       		.byte	0x23
 750 013a 04       		.uleb128 0x4
 751 013b 0B       		.uleb128 0xb
 752 013c 17030000 		.4byte	.LASF20
 753 0140 03       		.byte	0x3
 754 0141 4702     		.2byte	0x247
 755 0143 A2000000 		.4byte	0xa2
 756 0147 02       		.byte	0x2
 757 0148 23       		.byte	0x23
 758 0149 08       		.uleb128 0x8
 759 014a 0B       		.uleb128 0xb
 760 014b 4D010000 		.4byte	.LASF21
 761 014f 03       		.byte	0x3
 762 0150 4802     		.2byte	0x248
 763 0152 A2000000 		.4byte	0xa2
 764 0156 02       		.byte	0x2
 765 0157 23       		.byte	0x23
 766 0158 0C       		.uleb128 0xc
 767 0159 0A       		.uleb128 0xa
 768 015a 49445200 		.ascii	"IDR\000"
 769 015e 03       		.byte	0x3
 770 015f 4902     		.2byte	0x249
 771 0161 A2000000 		.4byte	0xa2
 772 0165 02       		.byte	0x2
 773 0166 23       		.byte	0x23
 774 0167 10       		.uleb128 0x10
 775 0168 0A       		.uleb128 0xa
 776 0169 4F445200 		.ascii	"ODR\000"
 777 016d 03       		.byte	0x3
 778 016e 4A02     		.2byte	0x24a
 779 0170 A2000000 		.4byte	0xa2
 780 0174 02       		.byte	0x2
 781 0175 23       		.byte	0x23
 782 0176 14       		.uleb128 0x14
 783 0177 0B       		.uleb128 0xb
 784 0178 75010000 		.4byte	.LASF22
ARM GAS  C:\cygwin\tmp\cc5Nnx4h.s 			page 15


 785 017c 03       		.byte	0x3
 786 017d 5102     		.2byte	0x251
 787 017f B4010000 		.4byte	0x1b4
 788 0183 02       		.byte	0x2
 789 0184 23       		.byte	0x23
 790 0185 18       		.uleb128 0x18
 791 0186 0B       		.uleb128 0xb
 792 0187 1E010000 		.4byte	.LASF23
 793 018b 03       		.byte	0x3
 794 018c 5202     		.2byte	0x252
 795 018e A2000000 		.4byte	0xa2
 796 0192 02       		.byte	0x2
 797 0193 23       		.byte	0x23
 798 0194 1C       		.uleb128 0x1c
 799 0195 0B       		.uleb128 0xb
 800 0196 A2020000 		.4byte	.LASF24
 801 019a 03       		.byte	0x3
 802 019b 5302     		.2byte	0x253
 803 019d A2000000 		.4byte	0xa2
 804 01a1 02       		.byte	0x2
 805 01a2 23       		.byte	0x23
 806 01a3 20       		.uleb128 0x20
 807 01a4 0B       		.uleb128 0xb
 808 01a5 9D020000 		.4byte	.LASF25
 809 01a9 03       		.byte	0x3
 810 01aa 5402     		.2byte	0x254
 811 01ac A2000000 		.4byte	0xa2
 812 01b0 02       		.byte	0x2
 813 01b1 23       		.byte	0x23
 814 01b2 24       		.uleb128 0x24
 815 01b3 00       		.byte	0
 816 01b4 05       		.uleb128 0x5
 817 01b5 F6000000 		.4byte	0xf6
 818 01b9 08       		.uleb128 0x8
 819 01ba 00000000 		.4byte	.LASF26
 820 01be 03       		.byte	0x3
 821 01bf 5502     		.2byte	0x255
 822 01c1 14010000 		.4byte	0x114
 823 01c5 0E       		.uleb128 0xe
 824 01c6 01       		.byte	0x1
 825 01c7 04       		.byte	0x4
 826 01c8 40       		.byte	0x40
 827 01c9 E6010000 		.4byte	0x1e6
 828 01cd 07       		.uleb128 0x7
 829 01ce 5C010000 		.4byte	.LASF27
 830 01d2 00       		.sleb128 0
 831 01d3 07       		.uleb128 0x7
 832 01d4 3F010000 		.4byte	.LASF28
 833 01d8 01       		.sleb128 1
 834 01d9 07       		.uleb128 0x7
 835 01da CC000000 		.4byte	.LASF29
 836 01de 02       		.sleb128 2
 837 01df 07       		.uleb128 0x7
 838 01e0 02010000 		.4byte	.LASF30
 839 01e4 03       		.sleb128 3
 840 01e5 00       		.byte	0
 841 01e6 03       		.uleb128 0x3
ARM GAS  C:\cygwin\tmp\cc5Nnx4h.s 			page 16


 842 01e7 39000000 		.4byte	.LASF31
 843 01eb 04       		.byte	0x4
 844 01ec 45       		.byte	0x45
 845 01ed C5010000 		.4byte	0x1c5
 846 01f1 0E       		.uleb128 0xe
 847 01f2 01       		.byte	0x1
 848 01f3 04       		.byte	0x4
 849 01f4 51       		.byte	0x51
 850 01f5 06020000 		.4byte	0x206
 851 01f9 07       		.uleb128 0x7
 852 01fa AD010000 		.4byte	.LASF32
 853 01fe 00       		.sleb128 0
 854 01ff 07       		.uleb128 0x7
 855 0200 7F000000 		.4byte	.LASF33
 856 0204 01       		.sleb128 1
 857 0205 00       		.byte	0
 858 0206 03       		.uleb128 0x3
 859 0207 A5000000 		.4byte	.LASF34
 860 020b 04       		.byte	0x4
 861 020c 54       		.byte	0x54
 862 020d F1010000 		.4byte	0x1f1
 863 0211 0E       		.uleb128 0xe
 864 0212 01       		.byte	0x1
 865 0213 04       		.byte	0x4
 866 0214 60       		.byte	0x60
 867 0215 2C020000 		.4byte	0x22c
 868 0219 07       		.uleb128 0x7
 869 021a 20020000 		.4byte	.LASF35
 870 021e 01       		.sleb128 1
 871 021f 07       		.uleb128 0x7
 872 0220 9C010000 		.4byte	.LASF36
 873 0224 02       		.sleb128 2
 874 0225 07       		.uleb128 0x7
 875 0226 67030000 		.4byte	.LASF37
 876 022a 03       		.sleb128 3
 877 022b 00       		.byte	0
 878 022c 03       		.uleb128 0x3
 879 022d 33030000 		.4byte	.LASF38
 880 0231 04       		.byte	0x4
 881 0232 64       		.byte	0x64
 882 0233 11020000 		.4byte	0x211
 883 0237 0E       		.uleb128 0xe
 884 0238 01       		.byte	0x1
 885 0239 04       		.byte	0x4
 886 023a 70       		.byte	0x70
 887 023b 52020000 		.4byte	0x252
 888 023f 07       		.uleb128 0x7
 889 0240 BA020000 		.4byte	.LASF39
 890 0244 00       		.sleb128 0
 891 0245 07       		.uleb128 0x7
 892 0246 D5030000 		.4byte	.LASF40
 893 024a 01       		.sleb128 1
 894 024b 07       		.uleb128 0x7
 895 024c 80030000 		.4byte	.LASF41
 896 0250 02       		.sleb128 2
 897 0251 00       		.byte	0
 898 0252 03       		.uleb128 0x3
ARM GAS  C:\cygwin\tmp\cc5Nnx4h.s 			page 17


 899 0253 C4030000 		.4byte	.LASF42
 900 0257 04       		.byte	0x4
 901 0258 74       		.byte	0x74
 902 0259 37020000 		.4byte	0x237
 903 025d 0E       		.uleb128 0xe
 904 025e 01       		.byte	0x1
 905 025f 04       		.byte	0x4
 906 0260 80       		.byte	0x80
 907 0261 72020000 		.4byte	0x272
 908 0265 07       		.uleb128 0x7
 909 0266 8D000000 		.4byte	.LASF43
 910 026a 00       		.sleb128 0
 911 026b 07       		.uleb128 0x7
 912 026c 1D000000 		.4byte	.LASF44
 913 0270 01       		.sleb128 1
 914 0271 00       		.byte	0
 915 0272 03       		.uleb128 0x3
 916 0273 29030000 		.4byte	.LASF45
 917 0277 04       		.byte	0x4
 918 0278 83       		.byte	0x83
 919 0279 5D020000 		.4byte	0x25d
 920 027d 0F       		.uleb128 0xf
 921 027e 08       		.byte	0x8
 922 027f 04       		.byte	0x4
 923 0280 8D       		.byte	0x8d
 924 0281 CC020000 		.4byte	0x2cc
 925 0285 10       		.uleb128 0x10
 926 0286 14000000 		.4byte	.LASF46
 927 028a 04       		.byte	0x4
 928 028b 8F       		.byte	0x8f
 929 028c 6D000000 		.4byte	0x6d
 930 0290 02       		.byte	0x2
 931 0291 23       		.byte	0x23
 932 0292 00       		.uleb128 0
 933 0293 10       		.uleb128 0x10
 934 0294 1F030000 		.4byte	.LASF47
 935 0298 04       		.byte	0x4
 936 0299 92       		.byte	0x92
 937 029a E6010000 		.4byte	0x1e6
 938 029e 02       		.byte	0x2
 939 029f 23       		.byte	0x23
 940 02a0 04       		.uleb128 0x4
 941 02a1 10       		.uleb128 0x10
 942 02a2 ED000000 		.4byte	.LASF48
 943 02a6 04       		.byte	0x4
 944 02a7 95       		.byte	0x95
 945 02a8 2C020000 		.4byte	0x22c
 946 02ac 02       		.byte	0x2
 947 02ad 23       		.byte	0x23
 948 02ae 05       		.uleb128 0x5
 949 02af 10       		.uleb128 0x10
 950 02b0 C1000000 		.4byte	.LASF49
 951 02b4 04       		.byte	0x4
 952 02b5 98       		.byte	0x98
 953 02b6 06020000 		.4byte	0x206
 954 02ba 02       		.byte	0x2
 955 02bb 23       		.byte	0x23
ARM GAS  C:\cygwin\tmp\cc5Nnx4h.s 			page 18


 956 02bc 06       		.uleb128 0x6
 957 02bd 10       		.uleb128 0x10
 958 02be 16020000 		.4byte	.LASF50
 959 02c2 04       		.byte	0x4
 960 02c3 9B       		.byte	0x9b
 961 02c4 52020000 		.4byte	0x252
 962 02c8 02       		.byte	0x2
 963 02c9 23       		.byte	0x23
 964 02ca 07       		.uleb128 0x7
 965 02cb 00       		.byte	0
 966 02cc 03       		.uleb128 0x3
 967 02cd 5C020000 		.4byte	.LASF51
 968 02d1 04       		.byte	0x4
 969 02d2 9D       		.byte	0x9d
 970 02d3 7D020000 		.4byte	0x27d
 971 02d7 11       		.uleb128 0x11
 972 02d8 01       		.byte	0x1
 973 02d9 69010000 		.4byte	.LASF52
 974 02dd 01       		.byte	0x1
 975 02de 7A       		.byte	0x7a
 976 02df 01       		.byte	0x1
 977 02e0 00000000 		.4byte	.LFB111
 978 02e4 D6000000 		.4byte	.LFE111
 979 02e8 00000000 		.4byte	.LLST0
 980 02ec 01       		.byte	0x1
 981 02ed 3B040000 		.4byte	0x43b
 982 02f1 12       		.uleb128 0x12
 983 02f2 55030000 		.4byte	.LASF54
 984 02f6 01       		.byte	0x1
 985 02f7 7A       		.byte	0x7a
 986 02f8 3B040000 		.4byte	0x43b
 987 02fc 20000000 		.4byte	.LLST1
 988 0300 13       		.uleb128 0x13
 989 0301 50000000 		.4byte	.LVL2
 990 0305 46070000 		.4byte	0x746
 991 0309 1A030000 		.4byte	0x31a
 992 030d 14       		.uleb128 0x14
 993 030e 01       		.byte	0x1
 994 030f 51       		.byte	0x51
 995 0310 01       		.byte	0x1
 996 0311 31       		.byte	0x31
 997 0312 14       		.uleb128 0x14
 998 0313 01       		.byte	0x1
 999 0314 50       		.byte	0x50
 1000 0315 03       		.byte	0x3
 1001 0316 40       		.byte	0x40
 1002 0317 42       		.byte	0x42
 1003 0318 24       		.byte	0x24
 1004 0319 00       		.byte	0
 1005 031a 15       		.uleb128 0x15
 1006 031b 5E000000 		.4byte	.LVL3
 1007 031f 01       		.byte	0x1
 1008 0320 46070000 		.4byte	0x746
 1009 0324 35030000 		.4byte	0x335
 1010 0328 14       		.uleb128 0x14
 1011 0329 01       		.byte	0x1
 1012 032a 51       		.byte	0x51
ARM GAS  C:\cygwin\tmp\cc5Nnx4h.s 			page 19


 1013 032b 01       		.byte	0x1
 1014 032c 30       		.byte	0x30
 1015 032d 14       		.uleb128 0x14
 1016 032e 01       		.byte	0x1
 1017 032f 50       		.byte	0x50
 1018 0330 03       		.byte	0x3
 1019 0331 40       		.byte	0x40
 1020 0332 42       		.byte	0x42
 1021 0333 24       		.byte	0x24
 1022 0334 00       		.byte	0
 1023 0335 13       		.uleb128 0x13
 1024 0336 68000000 		.4byte	.LVL5
 1025 033a 46070000 		.4byte	0x746
 1026 033e 4F030000 		.4byte	0x34f
 1027 0342 14       		.uleb128 0x14
 1028 0343 01       		.byte	0x1
 1029 0344 51       		.byte	0x51
 1030 0345 01       		.byte	0x1
 1031 0346 31       		.byte	0x31
 1032 0347 14       		.uleb128 0x14
 1033 0348 01       		.byte	0x1
 1034 0349 50       		.byte	0x50
 1035 034a 03       		.byte	0x3
 1036 034b 40       		.byte	0x40
 1037 034c 3D       		.byte	0x3d
 1038 034d 24       		.byte	0x24
 1039 034e 00       		.byte	0
 1040 034f 15       		.uleb128 0x15
 1041 0350 76000000 		.4byte	.LVL6
 1042 0354 01       		.byte	0x1
 1043 0355 46070000 		.4byte	0x746
 1044 0359 6A030000 		.4byte	0x36a
 1045 035d 14       		.uleb128 0x14
 1046 035e 01       		.byte	0x1
 1047 035f 51       		.byte	0x51
 1048 0360 01       		.byte	0x1
 1049 0361 30       		.byte	0x30
 1050 0362 14       		.uleb128 0x14
 1051 0363 01       		.byte	0x1
 1052 0364 50       		.byte	0x50
 1053 0365 03       		.byte	0x3
 1054 0366 40       		.byte	0x40
 1055 0367 3D       		.byte	0x3d
 1056 0368 24       		.byte	0x24
 1057 0369 00       		.byte	0
 1058 036a 13       		.uleb128 0x13
 1059 036b 80000000 		.4byte	.LVL8
 1060 036f 46070000 		.4byte	0x746
 1061 0373 84030000 		.4byte	0x384
 1062 0377 14       		.uleb128 0x14
 1063 0378 01       		.byte	0x1
 1064 0379 51       		.byte	0x51
 1065 037a 01       		.byte	0x1
 1066 037b 31       		.byte	0x31
 1067 037c 14       		.uleb128 0x14
 1068 037d 01       		.byte	0x1
 1069 037e 50       		.byte	0x50
ARM GAS  C:\cygwin\tmp\cc5Nnx4h.s 			page 20


 1070 037f 03       		.byte	0x3
 1071 0380 40       		.byte	0x40
 1072 0381 3E       		.byte	0x3e
 1073 0382 24       		.byte	0x24
 1074 0383 00       		.byte	0
 1075 0384 15       		.uleb128 0x15
 1076 0385 8E000000 		.4byte	.LVL9
 1077 0389 01       		.byte	0x1
 1078 038a 46070000 		.4byte	0x746
 1079 038e 9F030000 		.4byte	0x39f
 1080 0392 14       		.uleb128 0x14
 1081 0393 01       		.byte	0x1
 1082 0394 51       		.byte	0x51
 1083 0395 01       		.byte	0x1
 1084 0396 30       		.byte	0x30
 1085 0397 14       		.uleb128 0x14
 1086 0398 01       		.byte	0x1
 1087 0399 50       		.byte	0x50
 1088 039a 03       		.byte	0x3
 1089 039b 40       		.byte	0x40
 1090 039c 3E       		.byte	0x3e
 1091 039d 24       		.byte	0x24
 1092 039e 00       		.byte	0
 1093 039f 13       		.uleb128 0x13
 1094 03a0 98000000 		.4byte	.LVL11
 1095 03a4 46070000 		.4byte	0x746
 1096 03a8 B9030000 		.4byte	0x3b9
 1097 03ac 14       		.uleb128 0x14
 1098 03ad 01       		.byte	0x1
 1099 03ae 51       		.byte	0x51
 1100 03af 01       		.byte	0x1
 1101 03b0 31       		.byte	0x31
 1102 03b1 14       		.uleb128 0x14
 1103 03b2 01       		.byte	0x1
 1104 03b3 50       		.byte	0x50
 1105 03b4 03       		.byte	0x3
 1106 03b5 40       		.byte	0x40
 1107 03b6 3F       		.byte	0x3f
 1108 03b7 24       		.byte	0x24
 1109 03b8 00       		.byte	0
 1110 03b9 15       		.uleb128 0x15
 1111 03ba A6000000 		.4byte	.LVL12
 1112 03be 01       		.byte	0x1
 1113 03bf 46070000 		.4byte	0x746
 1114 03c3 D4030000 		.4byte	0x3d4
 1115 03c7 14       		.uleb128 0x14
 1116 03c8 01       		.byte	0x1
 1117 03c9 51       		.byte	0x51
 1118 03ca 01       		.byte	0x1
 1119 03cb 30       		.byte	0x30
 1120 03cc 14       		.uleb128 0x14
 1121 03cd 01       		.byte	0x1
 1122 03ce 50       		.byte	0x50
 1123 03cf 03       		.byte	0x3
 1124 03d0 40       		.byte	0x40
 1125 03d1 3F       		.byte	0x3f
 1126 03d2 24       		.byte	0x24
ARM GAS  C:\cygwin\tmp\cc5Nnx4h.s 			page 21


 1127 03d3 00       		.byte	0
 1128 03d4 13       		.uleb128 0x13
 1129 03d5 B0000000 		.4byte	.LVL14
 1130 03d9 46070000 		.4byte	0x746
 1131 03dd EE030000 		.4byte	0x3ee
 1132 03e1 14       		.uleb128 0x14
 1133 03e2 01       		.byte	0x1
 1134 03e3 51       		.byte	0x51
 1135 03e4 01       		.byte	0x1
 1136 03e5 31       		.byte	0x31
 1137 03e6 14       		.uleb128 0x14
 1138 03e7 01       		.byte	0x1
 1139 03e8 50       		.byte	0x50
 1140 03e9 03       		.byte	0x3
 1141 03ea 40       		.byte	0x40
 1142 03eb 40       		.byte	0x40
 1143 03ec 24       		.byte	0x24
 1144 03ed 00       		.byte	0
 1145 03ee 15       		.uleb128 0x15
 1146 03ef BE000000 		.4byte	.LVL15
 1147 03f3 01       		.byte	0x1
 1148 03f4 46070000 		.4byte	0x746
 1149 03f8 09040000 		.4byte	0x409
 1150 03fc 14       		.uleb128 0x14
 1151 03fd 01       		.byte	0x1
 1152 03fe 51       		.byte	0x51
 1153 03ff 01       		.byte	0x1
 1154 0400 30       		.byte	0x30
 1155 0401 14       		.uleb128 0x14
 1156 0402 01       		.byte	0x1
 1157 0403 50       		.byte	0x50
 1158 0404 03       		.byte	0x3
 1159 0405 40       		.byte	0x40
 1160 0406 40       		.byte	0x40
 1161 0407 24       		.byte	0x24
 1162 0408 00       		.byte	0
 1163 0409 13       		.uleb128 0x13
 1164 040a C8000000 		.4byte	.LVL17
 1165 040e 46070000 		.4byte	0x746
 1166 0412 23040000 		.4byte	0x423
 1167 0416 14       		.uleb128 0x14
 1168 0417 01       		.byte	0x1
 1169 0418 51       		.byte	0x51
 1170 0419 01       		.byte	0x1
 1171 041a 31       		.byte	0x31
 1172 041b 14       		.uleb128 0x14
 1173 041c 01       		.byte	0x1
 1174 041d 50       		.byte	0x50
 1175 041e 03       		.byte	0x3
 1176 041f 40       		.byte	0x40
 1177 0420 41       		.byte	0x41
 1178 0421 24       		.byte	0x24
 1179 0422 00       		.byte	0
 1180 0423 16       		.uleb128 0x16
 1181 0424 D6000000 		.4byte	.LVL18
 1182 0428 01       		.byte	0x1
 1183 0429 46070000 		.4byte	0x746
ARM GAS  C:\cygwin\tmp\cc5Nnx4h.s 			page 22


 1184 042d 14       		.uleb128 0x14
 1185 042e 01       		.byte	0x1
 1186 042f 51       		.byte	0x51
 1187 0430 01       		.byte	0x1
 1188 0431 30       		.byte	0x30
 1189 0432 14       		.uleb128 0x14
 1190 0433 01       		.byte	0x1
 1191 0434 50       		.byte	0x50
 1192 0435 03       		.byte	0x3
 1193 0436 40       		.byte	0x40
 1194 0437 41       		.byte	0x41
 1195 0438 24       		.byte	0x24
 1196 0439 00       		.byte	0
 1197 043a 00       		.byte	0
 1198 043b 17       		.uleb128 0x17
 1199 043c 04       		.byte	0x4
 1200 043d B9010000 		.4byte	0x1b9
 1201 0441 11       		.uleb128 0x11
 1202 0442 01       		.byte	0x1
 1203 0443 F8000000 		.4byte	.LASF53
 1204 0447 01       		.byte	0x1
 1205 0448 AF       		.byte	0xaf
 1206 0449 01       		.byte	0x1
 1207 044a 00000000 		.4byte	.LFB112
 1208 044e BC000000 		.4byte	.LFE112
 1209 0452 BE000000 		.4byte	.LLST2
 1210 0456 01       		.byte	0x1
 1211 0457 A3040000 		.4byte	0x4a3
 1212 045b 18       		.uleb128 0x18
 1213 045c 55030000 		.4byte	.LASF54
 1214 0460 01       		.byte	0x1
 1215 0461 AF       		.byte	0xaf
 1216 0462 3B040000 		.4byte	0x43b
 1217 0466 01       		.byte	0x1
 1218 0467 50       		.byte	0x50
 1219 0468 18       		.uleb128 0x18
 1220 0469 26040000 		.4byte	.LASF55
 1221 046d 01       		.byte	0x1
 1222 046e AF       		.byte	0xaf
 1223 046f A3040000 		.4byte	0x4a3
 1224 0473 01       		.byte	0x1
 1225 0474 51       		.byte	0x51
 1226 0475 19       		.uleb128 0x19
 1227 0476 0D000000 		.4byte	.LASF56
 1228 047a 01       		.byte	0x1
 1229 047b B1       		.byte	0xb1
 1230 047c 6D000000 		.4byte	0x6d
 1231 0480 DE000000 		.4byte	.LLST3
 1232 0484 1A       		.uleb128 0x1a
 1233 0485 706F7300 		.ascii	"pos\000"
 1234 0489 01       		.byte	0x1
 1235 048a B1       		.byte	0xb1
 1236 048b 6D000000 		.4byte	0x6d
 1237 048f 08010000 		.4byte	.LLST4
 1238 0493 19       		.uleb128 0x19
 1239 0494 01030000 		.4byte	.LASF57
 1240 0498 01       		.byte	0x1
ARM GAS  C:\cygwin\tmp\cc5Nnx4h.s 			page 23


 1241 0499 B1       		.byte	0xb1
 1242 049a 6D000000 		.4byte	0x6d
 1243 049e 62010000 		.4byte	.LLST5
 1244 04a2 00       		.byte	0
 1245 04a3 17       		.uleb128 0x17
 1246 04a4 04       		.byte	0x4
 1247 04a5 CC020000 		.4byte	0x2cc
 1248 04a9 1B       		.uleb128 0x1b
 1249 04aa 01       		.byte	0x1
 1250 04ab DB020000 		.4byte	.LASF58
 1251 04af 01       		.byte	0x1
 1252 04b0 ED       		.byte	0xed
 1253 04b1 01       		.byte	0x1
 1254 04b2 00000000 		.4byte	.LFB113
 1255 04b6 10000000 		.4byte	.LFE113
 1256 04ba 02       		.byte	0x2
 1257 04bb 7D       		.byte	0x7d
 1258 04bc 00       		.sleb128 0
 1259 04bd 01       		.byte	0x1
 1260 04be EC040000 		.4byte	0x4ec
 1261 04c2 18       		.uleb128 0x18
 1262 04c3 55030000 		.4byte	.LASF54
 1263 04c7 01       		.byte	0x1
 1264 04c8 ED       		.byte	0xed
 1265 04c9 3B040000 		.4byte	0x43b
 1266 04cd 01       		.byte	0x1
 1267 04ce 50       		.byte	0x50
 1268 04cf 18       		.uleb128 0x18
 1269 04d0 14000000 		.4byte	.LASF46
 1270 04d4 01       		.byte	0x1
 1271 04d5 ED       		.byte	0xed
 1272 04d6 49000000 		.4byte	0x49
 1273 04da 01       		.byte	0x1
 1274 04db 51       		.byte	0x51
 1275 04dc 1A       		.uleb128 0x1a
 1276 04dd 746D7000 		.ascii	"tmp\000"
 1277 04e1 01       		.byte	0x1
 1278 04e2 EF       		.byte	0xef
 1279 04e3 6D000000 		.4byte	0x6d
 1280 04e7 D0010000 		.4byte	.LLST6
 1281 04eb 00       		.byte	0
 1282 04ec 1C       		.uleb128 0x1c
 1283 04ed 01       		.byte	0x1
 1284 04ee 86010000 		.4byte	.LASF60
 1285 04f2 01       		.byte	0x1
 1286 04f3 1D01     		.2byte	0x11d
 1287 04f5 01       		.byte	0x1
 1288 04f6 30000000 		.4byte	0x30
 1289 04fa 00000000 		.4byte	.LFB114
 1290 04fe 0C000000 		.4byte	.LFE114
 1291 0502 02       		.byte	0x2
 1292 0503 7D       		.byte	0x7d
 1293 0504 00       		.sleb128 0
 1294 0505 01       		.byte	0x1
 1295 0506 39050000 		.4byte	0x539
 1296 050a 1D       		.uleb128 0x1d
 1297 050b 55030000 		.4byte	.LASF54
ARM GAS  C:\cygwin\tmp\cc5Nnx4h.s 			page 24


 1298 050f 01       		.byte	0x1
 1299 0510 1D01     		.2byte	0x11d
 1300 0512 3B040000 		.4byte	0x43b
 1301 0516 F1010000 		.4byte	.LLST7
 1302 051a 1E       		.uleb128 0x1e
 1303 051b 14000000 		.4byte	.LASF46
 1304 051f 01       		.byte	0x1
 1305 0520 1D01     		.2byte	0x11d
 1306 0522 49000000 		.4byte	0x49
 1307 0526 01       		.byte	0x1
 1308 0527 51       		.byte	0x51
 1309 0528 1F       		.uleb128 0x1f
 1310 0529 B7000000 		.4byte	.LASF59
 1311 052d 01       		.byte	0x1
 1312 052e 1F01     		.2byte	0x11f
 1313 0530 30000000 		.4byte	0x30
 1314 0534 12020000 		.4byte	.LLST8
 1315 0538 00       		.byte	0
 1316 0539 1C       		.uleb128 0x1c
 1317 053a 01       		.byte	0x1
 1318 053b A7020000 		.4byte	.LASF61
 1319 053f 01       		.byte	0x1
 1320 0540 3701     		.2byte	0x137
 1321 0542 01       		.byte	0x1
 1322 0543 49000000 		.4byte	0x49
 1323 0547 00000000 		.4byte	.LFB115
 1324 054b 06000000 		.4byte	.LFE115
 1325 054f 02       		.byte	0x2
 1326 0550 7D       		.byte	0x7d
 1327 0551 00       		.sleb128 0
 1328 0552 01       		.byte	0x1
 1329 0553 68050000 		.4byte	0x568
 1330 0557 1D       		.uleb128 0x1d
 1331 0558 55030000 		.4byte	.LASF54
 1332 055c 01       		.byte	0x1
 1333 055d 3701     		.2byte	0x137
 1334 055f 3B040000 		.4byte	0x43b
 1335 0563 3C020000 		.4byte	.LLST9
 1336 0567 00       		.byte	0
 1337 0568 1C       		.uleb128 0x1c
 1338 0569 01       		.byte	0x1
 1339 056a 0F040000 		.4byte	.LASF62
 1340 056e 01       		.byte	0x1
 1341 056f 4A01     		.2byte	0x14a
 1342 0571 01       		.byte	0x1
 1343 0572 30000000 		.4byte	0x30
 1344 0576 00000000 		.4byte	.LFB116
 1345 057a 0C000000 		.4byte	.LFE116
 1346 057e 02       		.byte	0x2
 1347 057f 7D       		.byte	0x7d
 1348 0580 00       		.sleb128 0
 1349 0581 01       		.byte	0x1
 1350 0582 B5050000 		.4byte	0x5b5
 1351 0586 1D       		.uleb128 0x1d
 1352 0587 55030000 		.4byte	.LASF54
 1353 058b 01       		.byte	0x1
 1354 058c 4A01     		.2byte	0x14a
ARM GAS  C:\cygwin\tmp\cc5Nnx4h.s 			page 25


 1355 058e 3B040000 		.4byte	0x43b
 1356 0592 5D020000 		.4byte	.LLST10
 1357 0596 1E       		.uleb128 0x1e
 1358 0597 14000000 		.4byte	.LASF46
 1359 059b 01       		.byte	0x1
 1360 059c 4A01     		.2byte	0x14a
 1361 059e 49000000 		.4byte	0x49
 1362 05a2 01       		.byte	0x1
 1363 05a3 51       		.byte	0x51
 1364 05a4 1F       		.uleb128 0x1f
 1365 05a5 B7000000 		.4byte	.LASF59
 1366 05a9 01       		.byte	0x1
 1367 05aa 4C01     		.2byte	0x14c
 1368 05ac 30000000 		.4byte	0x30
 1369 05b0 7E020000 		.4byte	.LLST11
 1370 05b4 00       		.byte	0
 1371 05b5 1C       		.uleb128 0x1c
 1372 05b6 01       		.byte	0x1
 1373 05b7 25000000 		.4byte	.LASF63
 1374 05bb 01       		.byte	0x1
 1375 05bc 6401     		.2byte	0x164
 1376 05be 01       		.byte	0x1
 1377 05bf 49000000 		.4byte	0x49
 1378 05c3 00000000 		.4byte	.LFB117
 1379 05c7 06000000 		.4byte	.LFE117
 1380 05cb 02       		.byte	0x2
 1381 05cc 7D       		.byte	0x7d
 1382 05cd 00       		.sleb128 0
 1383 05ce 01       		.byte	0x1
 1384 05cf E4050000 		.4byte	0x5e4
 1385 05d3 1D       		.uleb128 0x1d
 1386 05d4 55030000 		.4byte	.LASF54
 1387 05d8 01       		.byte	0x1
 1388 05d9 6401     		.2byte	0x164
 1389 05db 3B040000 		.4byte	0x43b
 1390 05df A8020000 		.4byte	.LLST12
 1391 05e3 00       		.byte	0
 1392 05e4 20       		.uleb128 0x20
 1393 05e5 01       		.byte	0x1
 1394 05e6 D9000000 		.4byte	.LASF64
 1395 05ea 01       		.byte	0x1
 1396 05eb 7701     		.2byte	0x177
 1397 05ed 01       		.byte	0x1
 1398 05ee 00000000 		.4byte	.LFB118
 1399 05f2 04000000 		.4byte	.LFE118
 1400 05f6 02       		.byte	0x2
 1401 05f7 7D       		.byte	0x7d
 1402 05f8 00       		.sleb128 0
 1403 05f9 01       		.byte	0x1
 1404 05fa 1B060000 		.4byte	0x61b
 1405 05fe 1E       		.uleb128 0x1e
 1406 05ff 55030000 		.4byte	.LASF54
 1407 0603 01       		.byte	0x1
 1408 0604 7701     		.2byte	0x177
 1409 0606 3B040000 		.4byte	0x43b
 1410 060a 01       		.byte	0x1
 1411 060b 50       		.byte	0x50
ARM GAS  C:\cygwin\tmp\cc5Nnx4h.s 			page 26


 1412 060c 1E       		.uleb128 0x1e
 1413 060d 14000000 		.4byte	.LASF46
 1414 0611 01       		.byte	0x1
 1415 0612 7701     		.2byte	0x177
 1416 0614 49000000 		.4byte	0x49
 1417 0618 01       		.byte	0x1
 1418 0619 51       		.byte	0x51
 1419 061a 00       		.byte	0
 1420 061b 20       		.uleb128 0x20
 1421 061c 01       		.byte	0x1
 1422 061d 0F010000 		.4byte	.LASF65
 1423 0621 01       		.byte	0x1
 1424 0622 8E01     		.2byte	0x18e
 1425 0624 01       		.byte	0x1
 1426 0625 00000000 		.4byte	.LFB119
 1427 0629 04000000 		.4byte	.LFE119
 1428 062d 02       		.byte	0x2
 1429 062e 7D       		.byte	0x7d
 1430 062f 00       		.sleb128 0
 1431 0630 01       		.byte	0x1
 1432 0631 52060000 		.4byte	0x652
 1433 0635 1E       		.uleb128 0x1e
 1434 0636 55030000 		.4byte	.LASF54
 1435 063a 01       		.byte	0x1
 1436 063b 8E01     		.2byte	0x18e
 1437 063d 3B040000 		.4byte	0x43b
 1438 0641 01       		.byte	0x1
 1439 0642 50       		.byte	0x50
 1440 0643 1E       		.uleb128 0x1e
 1441 0644 14000000 		.4byte	.LASF46
 1442 0648 01       		.byte	0x1
 1443 0649 8E01     		.2byte	0x18e
 1444 064b 49000000 		.4byte	0x49
 1445 064f 01       		.byte	0x1
 1446 0650 51       		.byte	0x51
 1447 0651 00       		.byte	0
 1448 0652 20       		.uleb128 0x20
 1449 0653 01       		.byte	0x1
 1450 0654 97000000 		.4byte	.LASF66
 1451 0658 01       		.byte	0x1
 1452 0659 A901     		.2byte	0x1a9
 1453 065b 01       		.byte	0x1
 1454 065c 00000000 		.4byte	.LFB120
 1455 0660 04000000 		.4byte	.LFE120
 1456 0664 02       		.byte	0x2
 1457 0665 7D       		.byte	0x7d
 1458 0666 00       		.sleb128 0
 1459 0667 01       		.byte	0x1
 1460 0668 97060000 		.4byte	0x697
 1461 066c 1E       		.uleb128 0x1e
 1462 066d 55030000 		.4byte	.LASF54
 1463 0671 01       		.byte	0x1
 1464 0672 A901     		.2byte	0x1a9
 1465 0674 3B040000 		.4byte	0x43b
 1466 0678 01       		.byte	0x1
 1467 0679 50       		.byte	0x50
 1468 067a 1E       		.uleb128 0x1e
ARM GAS  C:\cygwin\tmp\cc5Nnx4h.s 			page 27


 1469 067b 14000000 		.4byte	.LASF46
 1470 067f 01       		.byte	0x1
 1471 0680 A901     		.2byte	0x1a9
 1472 0682 49000000 		.4byte	0x49
 1473 0686 01       		.byte	0x1
 1474 0687 51       		.byte	0x51
 1475 0688 1E       		.uleb128 0x1e
 1476 0689 78000000 		.4byte	.LASF67
 1477 068d 01       		.byte	0x1
 1478 068e A901     		.2byte	0x1a9
 1479 0690 72020000 		.4byte	0x272
 1480 0694 01       		.byte	0x1
 1481 0695 52       		.byte	0x52
 1482 0696 00       		.byte	0
 1483 0697 20       		.uleb128 0x20
 1484 0698 01       		.byte	0x1
 1485 0699 0C030000 		.4byte	.LASF68
 1486 069d 01       		.byte	0x1
 1487 069e C301     		.2byte	0x1c3
 1488 06a0 01       		.byte	0x1
 1489 06a1 00000000 		.4byte	.LFB121
 1490 06a5 04000000 		.4byte	.LFE121
 1491 06a9 02       		.byte	0x2
 1492 06aa 7D       		.byte	0x7d
 1493 06ab 00       		.sleb128 0
 1494 06ac 01       		.byte	0x1
 1495 06ad CE060000 		.4byte	0x6ce
 1496 06b1 1E       		.uleb128 0x1e
 1497 06b2 55030000 		.4byte	.LASF54
 1498 06b6 01       		.byte	0x1
 1499 06b7 C301     		.2byte	0x1c3
 1500 06b9 3B040000 		.4byte	0x43b
 1501 06bd 01       		.byte	0x1
 1502 06be 50       		.byte	0x50
 1503 06bf 1E       		.uleb128 0x1e
 1504 06c0 83020000 		.4byte	.LASF69
 1505 06c4 01       		.byte	0x1
 1506 06c5 C301     		.2byte	0x1c3
 1507 06c7 49000000 		.4byte	0x49
 1508 06cb 01       		.byte	0x1
 1509 06cc 51       		.byte	0x51
 1510 06cd 00       		.byte	0
 1511 06ce 21       		.uleb128 0x21
 1512 06cf 01       		.byte	0x1
 1513 06d0 E2030000 		.4byte	.LASF70
 1514 06d4 01       		.byte	0x1
 1515 06d5 FD01     		.2byte	0x1fd
 1516 06d7 01       		.byte	0x1
 1517 06d8 00000000 		.4byte	.LFB122
 1518 06dc 3E000000 		.4byte	.LFE122
 1519 06e0 C9020000 		.4byte	.LLST13
 1520 06e4 01       		.byte	0x1
 1521 06e5 38070000 		.4byte	0x738
 1522 06e9 1E       		.uleb128 0x1e
 1523 06ea 55030000 		.4byte	.LASF54
 1524 06ee 01       		.byte	0x1
 1525 06ef FD01     		.2byte	0x1fd
ARM GAS  C:\cygwin\tmp\cc5Nnx4h.s 			page 28


 1526 06f1 3B040000 		.4byte	0x43b
 1527 06f5 01       		.byte	0x1
 1528 06f6 50       		.byte	0x50
 1529 06f7 1D       		.uleb128 0x1d
 1530 06f8 00040000 		.4byte	.LASF71
 1531 06fc 01       		.byte	0x1
 1532 06fd FD01     		.2byte	0x1fd
 1533 06ff 49000000 		.4byte	0x49
 1534 0703 E9020000 		.4byte	.LLST14
 1535 0707 1D       		.uleb128 0x1d
 1536 0708 0E020000 		.4byte	.LASF72
 1537 070c 01       		.byte	0x1
 1538 070d FD01     		.2byte	0x1fd
 1539 070f 30000000 		.4byte	0x30
 1540 0713 23030000 		.4byte	.LLST15
 1541 0717 1F       		.uleb128 0x1f
 1542 0718 60000000 		.4byte	.LASF73
 1543 071c 01       		.byte	0x1
 1544 071d FF01     		.2byte	0x1ff
 1545 071f 6D000000 		.4byte	0x6d
 1546 0723 44030000 		.4byte	.LLST16
 1547 0727 1F       		.uleb128 0x1f
 1548 0728 23010000 		.4byte	.LASF74
 1549 072c 01       		.byte	0x1
 1550 072d 0002     		.2byte	0x200
 1551 072f 6D000000 		.4byte	0x6d
 1552 0733 6E030000 		.4byte	.LLST17
 1553 0737 00       		.byte	0
 1554 0738 22       		.uleb128 0x22
 1555 0739 F3030000 		.4byte	.LASF78
 1556 073d 05       		.byte	0x5
 1557 073e 9806     		.2byte	0x698
 1558 0740 A7000000 		.4byte	0xa7
 1559 0744 01       		.byte	0x1
 1560 0745 01       		.byte	0x1
 1561 0746 23       		.uleb128 0x23
 1562 0747 01       		.byte	0x1
 1563 0748 4A000000 		.4byte	.LASF79
 1564 074c 06       		.byte	0x6
 1565 074d 5D02     		.2byte	0x25d
 1566 074f 01       		.byte	0x1
 1567 0750 01       		.byte	0x1
 1568 0751 24       		.uleb128 0x24
 1569 0752 6D000000 		.4byte	0x6d
 1570 0756 24       		.uleb128 0x24
 1571 0757 C2000000 		.4byte	0xc2
 1572 075b 00       		.byte	0
 1573 075c 00       		.byte	0
 1574              		.section	.debug_abbrev,"",%progbits
 1575              	.Ldebug_abbrev0:
 1576 0000 01       		.uleb128 0x1
 1577 0001 11       		.uleb128 0x11
 1578 0002 01       		.byte	0x1
 1579 0003 25       		.uleb128 0x25
 1580 0004 0E       		.uleb128 0xe
 1581 0005 13       		.uleb128 0x13
 1582 0006 0B       		.uleb128 0xb
ARM GAS  C:\cygwin\tmp\cc5Nnx4h.s 			page 29


 1583 0007 03       		.uleb128 0x3
 1584 0008 0E       		.uleb128 0xe
 1585 0009 1B       		.uleb128 0x1b
 1586 000a 0E       		.uleb128 0xe
 1587 000b 55       		.uleb128 0x55
 1588 000c 06       		.uleb128 0x6
 1589 000d 11       		.uleb128 0x11
 1590 000e 01       		.uleb128 0x1
 1591 000f 52       		.uleb128 0x52
 1592 0010 01       		.uleb128 0x1
 1593 0011 10       		.uleb128 0x10
 1594 0012 06       		.uleb128 0x6
 1595 0013 00       		.byte	0
 1596 0014 00       		.byte	0
 1597 0015 02       		.uleb128 0x2
 1598 0016 24       		.uleb128 0x24
 1599 0017 00       		.byte	0
 1600 0018 0B       		.uleb128 0xb
 1601 0019 0B       		.uleb128 0xb
 1602 001a 3E       		.uleb128 0x3e
 1603 001b 0B       		.uleb128 0xb
 1604 001c 03       		.uleb128 0x3
 1605 001d 0E       		.uleb128 0xe
 1606 001e 00       		.byte	0
 1607 001f 00       		.byte	0
 1608 0020 03       		.uleb128 0x3
 1609 0021 16       		.uleb128 0x16
 1610 0022 00       		.byte	0
 1611 0023 03       		.uleb128 0x3
 1612 0024 0E       		.uleb128 0xe
 1613 0025 3A       		.uleb128 0x3a
 1614 0026 0B       		.uleb128 0xb
 1615 0027 3B       		.uleb128 0x3b
 1616 0028 0B       		.uleb128 0xb
 1617 0029 49       		.uleb128 0x49
 1618 002a 13       		.uleb128 0x13
 1619 002b 00       		.byte	0
 1620 002c 00       		.byte	0
 1621 002d 04       		.uleb128 0x4
 1622 002e 24       		.uleb128 0x24
 1623 002f 00       		.byte	0
 1624 0030 0B       		.uleb128 0xb
 1625 0031 0B       		.uleb128 0xb
 1626 0032 3E       		.uleb128 0x3e
 1627 0033 0B       		.uleb128 0xb
 1628 0034 03       		.uleb128 0x3
 1629 0035 08       		.uleb128 0x8
 1630 0036 00       		.byte	0
 1631 0037 00       		.byte	0
 1632 0038 05       		.uleb128 0x5
 1633 0039 35       		.uleb128 0x35
 1634 003a 00       		.byte	0
 1635 003b 49       		.uleb128 0x49
 1636 003c 13       		.uleb128 0x13
 1637 003d 00       		.byte	0
 1638 003e 00       		.byte	0
 1639 003f 06       		.uleb128 0x6
ARM GAS  C:\cygwin\tmp\cc5Nnx4h.s 			page 30


 1640 0040 04       		.uleb128 0x4
 1641 0041 01       		.byte	0x1
 1642 0042 0B       		.uleb128 0xb
 1643 0043 0B       		.uleb128 0xb
 1644 0044 3A       		.uleb128 0x3a
 1645 0045 0B       		.uleb128 0xb
 1646 0046 3B       		.uleb128 0x3b
 1647 0047 05       		.uleb128 0x5
 1648 0048 01       		.uleb128 0x1
 1649 0049 13       		.uleb128 0x13
 1650 004a 00       		.byte	0
 1651 004b 00       		.byte	0
 1652 004c 07       		.uleb128 0x7
 1653 004d 28       		.uleb128 0x28
 1654 004e 00       		.byte	0
 1655 004f 03       		.uleb128 0x3
 1656 0050 0E       		.uleb128 0xe
 1657 0051 1C       		.uleb128 0x1c
 1658 0052 0D       		.uleb128 0xd
 1659 0053 00       		.byte	0
 1660 0054 00       		.byte	0
 1661 0055 08       		.uleb128 0x8
 1662 0056 16       		.uleb128 0x16
 1663 0057 00       		.byte	0
 1664 0058 03       		.uleb128 0x3
 1665 0059 0E       		.uleb128 0xe
 1666 005a 3A       		.uleb128 0x3a
 1667 005b 0B       		.uleb128 0xb
 1668 005c 3B       		.uleb128 0x3b
 1669 005d 05       		.uleb128 0x5
 1670 005e 49       		.uleb128 0x49
 1671 005f 13       		.uleb128 0x13
 1672 0060 00       		.byte	0
 1673 0061 00       		.byte	0
 1674 0062 09       		.uleb128 0x9
 1675 0063 13       		.uleb128 0x13
 1676 0064 01       		.byte	0x1
 1677 0065 0B       		.uleb128 0xb
 1678 0066 0B       		.uleb128 0xb
 1679 0067 3A       		.uleb128 0x3a
 1680 0068 0B       		.uleb128 0xb
 1681 0069 3B       		.uleb128 0x3b
 1682 006a 05       		.uleb128 0x5
 1683 006b 01       		.uleb128 0x1
 1684 006c 13       		.uleb128 0x13
 1685 006d 00       		.byte	0
 1686 006e 00       		.byte	0
 1687 006f 0A       		.uleb128 0xa
 1688 0070 0D       		.uleb128 0xd
 1689 0071 00       		.byte	0
 1690 0072 03       		.uleb128 0x3
 1691 0073 08       		.uleb128 0x8
 1692 0074 3A       		.uleb128 0x3a
 1693 0075 0B       		.uleb128 0xb
 1694 0076 3B       		.uleb128 0x3b
 1695 0077 05       		.uleb128 0x5
 1696 0078 49       		.uleb128 0x49
ARM GAS  C:\cygwin\tmp\cc5Nnx4h.s 			page 31


 1697 0079 13       		.uleb128 0x13
 1698 007a 38       		.uleb128 0x38
 1699 007b 0A       		.uleb128 0xa
 1700 007c 00       		.byte	0
 1701 007d 00       		.byte	0
 1702 007e 0B       		.uleb128 0xb
 1703 007f 0D       		.uleb128 0xd
 1704 0080 00       		.byte	0
 1705 0081 03       		.uleb128 0x3
 1706 0082 0E       		.uleb128 0xe
 1707 0083 3A       		.uleb128 0x3a
 1708 0084 0B       		.uleb128 0xb
 1709 0085 3B       		.uleb128 0x3b
 1710 0086 05       		.uleb128 0x5
 1711 0087 49       		.uleb128 0x49
 1712 0088 13       		.uleb128 0x13
 1713 0089 38       		.uleb128 0x38
 1714 008a 0A       		.uleb128 0xa
 1715 008b 00       		.byte	0
 1716 008c 00       		.byte	0
 1717 008d 0C       		.uleb128 0xc
 1718 008e 17       		.uleb128 0x17
 1719 008f 01       		.byte	0x1
 1720 0090 0B       		.uleb128 0xb
 1721 0091 0B       		.uleb128 0xb
 1722 0092 3A       		.uleb128 0x3a
 1723 0093 0B       		.uleb128 0xb
 1724 0094 3B       		.uleb128 0x3b
 1725 0095 05       		.uleb128 0x5
 1726 0096 01       		.uleb128 0x1
 1727 0097 13       		.uleb128 0x13
 1728 0098 00       		.byte	0
 1729 0099 00       		.byte	0
 1730 009a 0D       		.uleb128 0xd
 1731 009b 0D       		.uleb128 0xd
 1732 009c 00       		.byte	0
 1733 009d 03       		.uleb128 0x3
 1734 009e 08       		.uleb128 0x8
 1735 009f 3A       		.uleb128 0x3a
 1736 00a0 0B       		.uleb128 0xb
 1737 00a1 3B       		.uleb128 0x3b
 1738 00a2 05       		.uleb128 0x5
 1739 00a3 49       		.uleb128 0x49
 1740 00a4 13       		.uleb128 0x13
 1741 00a5 00       		.byte	0
 1742 00a6 00       		.byte	0
 1743 00a7 0E       		.uleb128 0xe
 1744 00a8 04       		.uleb128 0x4
 1745 00a9 01       		.byte	0x1
 1746 00aa 0B       		.uleb128 0xb
 1747 00ab 0B       		.uleb128 0xb
 1748 00ac 3A       		.uleb128 0x3a
 1749 00ad 0B       		.uleb128 0xb
 1750 00ae 3B       		.uleb128 0x3b
 1751 00af 0B       		.uleb128 0xb
 1752 00b0 01       		.uleb128 0x1
 1753 00b1 13       		.uleb128 0x13
ARM GAS  C:\cygwin\tmp\cc5Nnx4h.s 			page 32


 1754 00b2 00       		.byte	0
 1755 00b3 00       		.byte	0
 1756 00b4 0F       		.uleb128 0xf
 1757 00b5 13       		.uleb128 0x13
 1758 00b6 01       		.byte	0x1
 1759 00b7 0B       		.uleb128 0xb
 1760 00b8 0B       		.uleb128 0xb
 1761 00b9 3A       		.uleb128 0x3a
 1762 00ba 0B       		.uleb128 0xb
 1763 00bb 3B       		.uleb128 0x3b
 1764 00bc 0B       		.uleb128 0xb
 1765 00bd 01       		.uleb128 0x1
 1766 00be 13       		.uleb128 0x13
 1767 00bf 00       		.byte	0
 1768 00c0 00       		.byte	0
 1769 00c1 10       		.uleb128 0x10
 1770 00c2 0D       		.uleb128 0xd
 1771 00c3 00       		.byte	0
 1772 00c4 03       		.uleb128 0x3
 1773 00c5 0E       		.uleb128 0xe
 1774 00c6 3A       		.uleb128 0x3a
 1775 00c7 0B       		.uleb128 0xb
 1776 00c8 3B       		.uleb128 0x3b
 1777 00c9 0B       		.uleb128 0xb
 1778 00ca 49       		.uleb128 0x49
 1779 00cb 13       		.uleb128 0x13
 1780 00cc 38       		.uleb128 0x38
 1781 00cd 0A       		.uleb128 0xa
 1782 00ce 00       		.byte	0
 1783 00cf 00       		.byte	0
 1784 00d0 11       		.uleb128 0x11
 1785 00d1 2E       		.uleb128 0x2e
 1786 00d2 01       		.byte	0x1
 1787 00d3 3F       		.uleb128 0x3f
 1788 00d4 0C       		.uleb128 0xc
 1789 00d5 03       		.uleb128 0x3
 1790 00d6 0E       		.uleb128 0xe
 1791 00d7 3A       		.uleb128 0x3a
 1792 00d8 0B       		.uleb128 0xb
 1793 00d9 3B       		.uleb128 0x3b
 1794 00da 0B       		.uleb128 0xb
 1795 00db 27       		.uleb128 0x27
 1796 00dc 0C       		.uleb128 0xc
 1797 00dd 11       		.uleb128 0x11
 1798 00de 01       		.uleb128 0x1
 1799 00df 12       		.uleb128 0x12
 1800 00e0 01       		.uleb128 0x1
 1801 00e1 40       		.uleb128 0x40
 1802 00e2 06       		.uleb128 0x6
 1803 00e3 9742     		.uleb128 0x2117
 1804 00e5 0C       		.uleb128 0xc
 1805 00e6 01       		.uleb128 0x1
 1806 00e7 13       		.uleb128 0x13
 1807 00e8 00       		.byte	0
 1808 00e9 00       		.byte	0
 1809 00ea 12       		.uleb128 0x12
 1810 00eb 05       		.uleb128 0x5
ARM GAS  C:\cygwin\tmp\cc5Nnx4h.s 			page 33


 1811 00ec 00       		.byte	0
 1812 00ed 03       		.uleb128 0x3
 1813 00ee 0E       		.uleb128 0xe
 1814 00ef 3A       		.uleb128 0x3a
 1815 00f0 0B       		.uleb128 0xb
 1816 00f1 3B       		.uleb128 0x3b
 1817 00f2 0B       		.uleb128 0xb
 1818 00f3 49       		.uleb128 0x49
 1819 00f4 13       		.uleb128 0x13
 1820 00f5 02       		.uleb128 0x2
 1821 00f6 06       		.uleb128 0x6
 1822 00f7 00       		.byte	0
 1823 00f8 00       		.byte	0
 1824 00f9 13       		.uleb128 0x13
 1825 00fa 898201   		.uleb128 0x4109
 1826 00fd 01       		.byte	0x1
 1827 00fe 11       		.uleb128 0x11
 1828 00ff 01       		.uleb128 0x1
 1829 0100 31       		.uleb128 0x31
 1830 0101 13       		.uleb128 0x13
 1831 0102 01       		.uleb128 0x1
 1832 0103 13       		.uleb128 0x13
 1833 0104 00       		.byte	0
 1834 0105 00       		.byte	0
 1835 0106 14       		.uleb128 0x14
 1836 0107 8A8201   		.uleb128 0x410a
 1837 010a 00       		.byte	0
 1838 010b 02       		.uleb128 0x2
 1839 010c 0A       		.uleb128 0xa
 1840 010d 9142     		.uleb128 0x2111
 1841 010f 0A       		.uleb128 0xa
 1842 0110 00       		.byte	0
 1843 0111 00       		.byte	0
 1844 0112 15       		.uleb128 0x15
 1845 0113 898201   		.uleb128 0x4109
 1846 0116 01       		.byte	0x1
 1847 0117 11       		.uleb128 0x11
 1848 0118 01       		.uleb128 0x1
 1849 0119 9542     		.uleb128 0x2115
 1850 011b 0C       		.uleb128 0xc
 1851 011c 31       		.uleb128 0x31
 1852 011d 13       		.uleb128 0x13
 1853 011e 01       		.uleb128 0x1
 1854 011f 13       		.uleb128 0x13
 1855 0120 00       		.byte	0
 1856 0121 00       		.byte	0
 1857 0122 16       		.uleb128 0x16
 1858 0123 898201   		.uleb128 0x4109
 1859 0126 01       		.byte	0x1
 1860 0127 11       		.uleb128 0x11
 1861 0128 01       		.uleb128 0x1
 1862 0129 9542     		.uleb128 0x2115
 1863 012b 0C       		.uleb128 0xc
 1864 012c 31       		.uleb128 0x31
 1865 012d 13       		.uleb128 0x13
 1866 012e 00       		.byte	0
 1867 012f 00       		.byte	0
ARM GAS  C:\cygwin\tmp\cc5Nnx4h.s 			page 34


 1868 0130 17       		.uleb128 0x17
 1869 0131 0F       		.uleb128 0xf
 1870 0132 00       		.byte	0
 1871 0133 0B       		.uleb128 0xb
 1872 0134 0B       		.uleb128 0xb
 1873 0135 49       		.uleb128 0x49
 1874 0136 13       		.uleb128 0x13
 1875 0137 00       		.byte	0
 1876 0138 00       		.byte	0
 1877 0139 18       		.uleb128 0x18
 1878 013a 05       		.uleb128 0x5
 1879 013b 00       		.byte	0
 1880 013c 03       		.uleb128 0x3
 1881 013d 0E       		.uleb128 0xe
 1882 013e 3A       		.uleb128 0x3a
 1883 013f 0B       		.uleb128 0xb
 1884 0140 3B       		.uleb128 0x3b
 1885 0141 0B       		.uleb128 0xb
 1886 0142 49       		.uleb128 0x49
 1887 0143 13       		.uleb128 0x13
 1888 0144 02       		.uleb128 0x2
 1889 0145 0A       		.uleb128 0xa
 1890 0146 00       		.byte	0
 1891 0147 00       		.byte	0
 1892 0148 19       		.uleb128 0x19
 1893 0149 34       		.uleb128 0x34
 1894 014a 00       		.byte	0
 1895 014b 03       		.uleb128 0x3
 1896 014c 0E       		.uleb128 0xe
 1897 014d 3A       		.uleb128 0x3a
 1898 014e 0B       		.uleb128 0xb
 1899 014f 3B       		.uleb128 0x3b
 1900 0150 0B       		.uleb128 0xb
 1901 0151 49       		.uleb128 0x49
 1902 0152 13       		.uleb128 0x13
 1903 0153 02       		.uleb128 0x2
 1904 0154 06       		.uleb128 0x6
 1905 0155 00       		.byte	0
 1906 0156 00       		.byte	0
 1907 0157 1A       		.uleb128 0x1a
 1908 0158 34       		.uleb128 0x34
 1909 0159 00       		.byte	0
 1910 015a 03       		.uleb128 0x3
 1911 015b 08       		.uleb128 0x8
 1912 015c 3A       		.uleb128 0x3a
 1913 015d 0B       		.uleb128 0xb
 1914 015e 3B       		.uleb128 0x3b
 1915 015f 0B       		.uleb128 0xb
 1916 0160 49       		.uleb128 0x49
 1917 0161 13       		.uleb128 0x13
 1918 0162 02       		.uleb128 0x2
 1919 0163 06       		.uleb128 0x6
 1920 0164 00       		.byte	0
 1921 0165 00       		.byte	0
 1922 0166 1B       		.uleb128 0x1b
 1923 0167 2E       		.uleb128 0x2e
 1924 0168 01       		.byte	0x1
ARM GAS  C:\cygwin\tmp\cc5Nnx4h.s 			page 35


 1925 0169 3F       		.uleb128 0x3f
 1926 016a 0C       		.uleb128 0xc
 1927 016b 03       		.uleb128 0x3
 1928 016c 0E       		.uleb128 0xe
 1929 016d 3A       		.uleb128 0x3a
 1930 016e 0B       		.uleb128 0xb
 1931 016f 3B       		.uleb128 0x3b
 1932 0170 0B       		.uleb128 0xb
 1933 0171 27       		.uleb128 0x27
 1934 0172 0C       		.uleb128 0xc
 1935 0173 11       		.uleb128 0x11
 1936 0174 01       		.uleb128 0x1
 1937 0175 12       		.uleb128 0x12
 1938 0176 01       		.uleb128 0x1
 1939 0177 40       		.uleb128 0x40
 1940 0178 0A       		.uleb128 0xa
 1941 0179 9742     		.uleb128 0x2117
 1942 017b 0C       		.uleb128 0xc
 1943 017c 01       		.uleb128 0x1
 1944 017d 13       		.uleb128 0x13
 1945 017e 00       		.byte	0
 1946 017f 00       		.byte	0
 1947 0180 1C       		.uleb128 0x1c
 1948 0181 2E       		.uleb128 0x2e
 1949 0182 01       		.byte	0x1
 1950 0183 3F       		.uleb128 0x3f
 1951 0184 0C       		.uleb128 0xc
 1952 0185 03       		.uleb128 0x3
 1953 0186 0E       		.uleb128 0xe
 1954 0187 3A       		.uleb128 0x3a
 1955 0188 0B       		.uleb128 0xb
 1956 0189 3B       		.uleb128 0x3b
 1957 018a 05       		.uleb128 0x5
 1958 018b 27       		.uleb128 0x27
 1959 018c 0C       		.uleb128 0xc
 1960 018d 49       		.uleb128 0x49
 1961 018e 13       		.uleb128 0x13
 1962 018f 11       		.uleb128 0x11
 1963 0190 01       		.uleb128 0x1
 1964 0191 12       		.uleb128 0x12
 1965 0192 01       		.uleb128 0x1
 1966 0193 40       		.uleb128 0x40
 1967 0194 0A       		.uleb128 0xa
 1968 0195 9742     		.uleb128 0x2117
 1969 0197 0C       		.uleb128 0xc
 1970 0198 01       		.uleb128 0x1
 1971 0199 13       		.uleb128 0x13
 1972 019a 00       		.byte	0
 1973 019b 00       		.byte	0
 1974 019c 1D       		.uleb128 0x1d
 1975 019d 05       		.uleb128 0x5
 1976 019e 00       		.byte	0
 1977 019f 03       		.uleb128 0x3
 1978 01a0 0E       		.uleb128 0xe
 1979 01a1 3A       		.uleb128 0x3a
 1980 01a2 0B       		.uleb128 0xb
 1981 01a3 3B       		.uleb128 0x3b
ARM GAS  C:\cygwin\tmp\cc5Nnx4h.s 			page 36


 1982 01a4 05       		.uleb128 0x5
 1983 01a5 49       		.uleb128 0x49
 1984 01a6 13       		.uleb128 0x13
 1985 01a7 02       		.uleb128 0x2
 1986 01a8 06       		.uleb128 0x6
 1987 01a9 00       		.byte	0
 1988 01aa 00       		.byte	0
 1989 01ab 1E       		.uleb128 0x1e
 1990 01ac 05       		.uleb128 0x5
 1991 01ad 00       		.byte	0
 1992 01ae 03       		.uleb128 0x3
 1993 01af 0E       		.uleb128 0xe
 1994 01b0 3A       		.uleb128 0x3a
 1995 01b1 0B       		.uleb128 0xb
 1996 01b2 3B       		.uleb128 0x3b
 1997 01b3 05       		.uleb128 0x5
 1998 01b4 49       		.uleb128 0x49
 1999 01b5 13       		.uleb128 0x13
 2000 01b6 02       		.uleb128 0x2
 2001 01b7 0A       		.uleb128 0xa
 2002 01b8 00       		.byte	0
 2003 01b9 00       		.byte	0
 2004 01ba 1F       		.uleb128 0x1f
 2005 01bb 34       		.uleb128 0x34
 2006 01bc 00       		.byte	0
 2007 01bd 03       		.uleb128 0x3
 2008 01be 0E       		.uleb128 0xe
 2009 01bf 3A       		.uleb128 0x3a
 2010 01c0 0B       		.uleb128 0xb
 2011 01c1 3B       		.uleb128 0x3b
 2012 01c2 05       		.uleb128 0x5
 2013 01c3 49       		.uleb128 0x49
 2014 01c4 13       		.uleb128 0x13
 2015 01c5 02       		.uleb128 0x2
 2016 01c6 06       		.uleb128 0x6
 2017 01c7 00       		.byte	0
 2018 01c8 00       		.byte	0
 2019 01c9 20       		.uleb128 0x20
 2020 01ca 2E       		.uleb128 0x2e
 2021 01cb 01       		.byte	0x1
 2022 01cc 3F       		.uleb128 0x3f
 2023 01cd 0C       		.uleb128 0xc
 2024 01ce 03       		.uleb128 0x3
 2025 01cf 0E       		.uleb128 0xe
 2026 01d0 3A       		.uleb128 0x3a
 2027 01d1 0B       		.uleb128 0xb
 2028 01d2 3B       		.uleb128 0x3b
 2029 01d3 05       		.uleb128 0x5
 2030 01d4 27       		.uleb128 0x27
 2031 01d5 0C       		.uleb128 0xc
 2032 01d6 11       		.uleb128 0x11
 2033 01d7 01       		.uleb128 0x1
 2034 01d8 12       		.uleb128 0x12
 2035 01d9 01       		.uleb128 0x1
 2036 01da 40       		.uleb128 0x40
 2037 01db 0A       		.uleb128 0xa
 2038 01dc 9742     		.uleb128 0x2117
ARM GAS  C:\cygwin\tmp\cc5Nnx4h.s 			page 37


 2039 01de 0C       		.uleb128 0xc
 2040 01df 01       		.uleb128 0x1
 2041 01e0 13       		.uleb128 0x13
 2042 01e1 00       		.byte	0
 2043 01e2 00       		.byte	0
 2044 01e3 21       		.uleb128 0x21
 2045 01e4 2E       		.uleb128 0x2e
 2046 01e5 01       		.byte	0x1
 2047 01e6 3F       		.uleb128 0x3f
 2048 01e7 0C       		.uleb128 0xc
 2049 01e8 03       		.uleb128 0x3
 2050 01e9 0E       		.uleb128 0xe
 2051 01ea 3A       		.uleb128 0x3a
 2052 01eb 0B       		.uleb128 0xb
 2053 01ec 3B       		.uleb128 0x3b
 2054 01ed 05       		.uleb128 0x5
 2055 01ee 27       		.uleb128 0x27
 2056 01ef 0C       		.uleb128 0xc
 2057 01f0 11       		.uleb128 0x11
 2058 01f1 01       		.uleb128 0x1
 2059 01f2 12       		.uleb128 0x12
 2060 01f3 01       		.uleb128 0x1
 2061 01f4 40       		.uleb128 0x40
 2062 01f5 06       		.uleb128 0x6
 2063 01f6 9742     		.uleb128 0x2117
 2064 01f8 0C       		.uleb128 0xc
 2065 01f9 01       		.uleb128 0x1
 2066 01fa 13       		.uleb128 0x13
 2067 01fb 00       		.byte	0
 2068 01fc 00       		.byte	0
 2069 01fd 22       		.uleb128 0x22
 2070 01fe 34       		.uleb128 0x34
 2071 01ff 00       		.byte	0
 2072 0200 03       		.uleb128 0x3
 2073 0201 0E       		.uleb128 0xe
 2074 0202 3A       		.uleb128 0x3a
 2075 0203 0B       		.uleb128 0xb
 2076 0204 3B       		.uleb128 0x3b
 2077 0205 05       		.uleb128 0x5
 2078 0206 49       		.uleb128 0x49
 2079 0207 13       		.uleb128 0x13
 2080 0208 3F       		.uleb128 0x3f
 2081 0209 0C       		.uleb128 0xc
 2082 020a 3C       		.uleb128 0x3c
 2083 020b 0C       		.uleb128 0xc
 2084 020c 00       		.byte	0
 2085 020d 00       		.byte	0
 2086 020e 23       		.uleb128 0x23
 2087 020f 2E       		.uleb128 0x2e
 2088 0210 01       		.byte	0x1
 2089 0211 3F       		.uleb128 0x3f
 2090 0212 0C       		.uleb128 0xc
 2091 0213 03       		.uleb128 0x3
 2092 0214 0E       		.uleb128 0xe
 2093 0215 3A       		.uleb128 0x3a
 2094 0216 0B       		.uleb128 0xb
 2095 0217 3B       		.uleb128 0x3b
ARM GAS  C:\cygwin\tmp\cc5Nnx4h.s 			page 38


 2096 0218 05       		.uleb128 0x5
 2097 0219 27       		.uleb128 0x27
 2098 021a 0C       		.uleb128 0xc
 2099 021b 3C       		.uleb128 0x3c
 2100 021c 0C       		.uleb128 0xc
 2101 021d 00       		.byte	0
 2102 021e 00       		.byte	0
 2103 021f 24       		.uleb128 0x24
 2104 0220 05       		.uleb128 0x5
 2105 0221 00       		.byte	0
 2106 0222 49       		.uleb128 0x49
 2107 0223 13       		.uleb128 0x13
 2108 0224 00       		.byte	0
 2109 0225 00       		.byte	0
 2110 0226 00       		.byte	0
 2111              		.section	.debug_loc,"",%progbits
 2112              	.Ldebug_loc0:
 2113              	.LLST0:
 2114 0000 00000000 		.4byte	.LFB111
 2115 0004 06000000 		.4byte	.LCFI0
 2116 0008 0200     		.2byte	0x2
 2117 000a 7D       		.byte	0x7d
 2118 000b 00       		.sleb128 0
 2119 000c 06000000 		.4byte	.LCFI0
 2120 0010 D6000000 		.4byte	.LFE111
 2121 0014 0200     		.2byte	0x2
 2122 0016 7D       		.byte	0x7d
 2123 0017 08       		.sleb128 8
 2124 0018 00000000 		.4byte	0
 2125 001c 00000000 		.4byte	0
 2126              	.LLST1:
 2127 0020 00000000 		.4byte	.LVL0
 2128 0024 4C000000 		.4byte	.LVL1
 2129 0028 0100     		.2byte	0x1
 2130 002a 50       		.byte	0x50
 2131 002b 4C000000 		.4byte	.LVL1
 2132 002f 5E000000 		.4byte	.LVL3
 2133 0033 0400     		.2byte	0x4
 2134 0035 F3       		.byte	0xf3
 2135 0036 01       		.uleb128 0x1
 2136 0037 50       		.byte	0x50
 2137 0038 9F       		.byte	0x9f
 2138 0039 5E000000 		.4byte	.LVL3
 2139 003d 64000000 		.4byte	.LVL4
 2140 0041 0100     		.2byte	0x1
 2141 0043 50       		.byte	0x50
 2142 0044 64000000 		.4byte	.LVL4
 2143 0048 76000000 		.4byte	.LVL6
 2144 004c 0400     		.2byte	0x4
 2145 004e F3       		.byte	0xf3
 2146 004f 01       		.uleb128 0x1
 2147 0050 50       		.byte	0x50
 2148 0051 9F       		.byte	0x9f
 2149 0052 76000000 		.4byte	.LVL6
 2150 0056 7C000000 		.4byte	.LVL7
 2151 005a 0100     		.2byte	0x1
 2152 005c 50       		.byte	0x50
ARM GAS  C:\cygwin\tmp\cc5Nnx4h.s 			page 39


 2153 005d 7C000000 		.4byte	.LVL7
 2154 0061 8E000000 		.4byte	.LVL9
 2155 0065 0400     		.2byte	0x4
 2156 0067 F3       		.byte	0xf3
 2157 0068 01       		.uleb128 0x1
 2158 0069 50       		.byte	0x50
 2159 006a 9F       		.byte	0x9f
 2160 006b 8E000000 		.4byte	.LVL9
 2161 006f 94000000 		.4byte	.LVL10
 2162 0073 0100     		.2byte	0x1
 2163 0075 50       		.byte	0x50
 2164 0076 94000000 		.4byte	.LVL10
 2165 007a A6000000 		.4byte	.LVL12
 2166 007e 0400     		.2byte	0x4
 2167 0080 F3       		.byte	0xf3
 2168 0081 01       		.uleb128 0x1
 2169 0082 50       		.byte	0x50
 2170 0083 9F       		.byte	0x9f
 2171 0084 A6000000 		.4byte	.LVL12
 2172 0088 AC000000 		.4byte	.LVL13
 2173 008c 0100     		.2byte	0x1
 2174 008e 50       		.byte	0x50
 2175 008f AC000000 		.4byte	.LVL13
 2176 0093 BE000000 		.4byte	.LVL15
 2177 0097 0400     		.2byte	0x4
 2178 0099 F3       		.byte	0xf3
 2179 009a 01       		.uleb128 0x1
 2180 009b 50       		.byte	0x50
 2181 009c 9F       		.byte	0x9f
 2182 009d BE000000 		.4byte	.LVL15
 2183 00a1 C4000000 		.4byte	.LVL16
 2184 00a5 0100     		.2byte	0x1
 2185 00a7 50       		.byte	0x50
 2186 00a8 C4000000 		.4byte	.LVL16
 2187 00ac D6000000 		.4byte	.LFE111
 2188 00b0 0400     		.2byte	0x4
 2189 00b2 F3       		.byte	0xf3
 2190 00b3 01       		.uleb128 0x1
 2191 00b4 50       		.byte	0x50
 2192 00b5 9F       		.byte	0x9f
 2193 00b6 00000000 		.4byte	0
 2194 00ba 00000000 		.4byte	0
 2195              	.LLST2:
 2196 00be 00000000 		.4byte	.LFB112
 2197 00c2 06000000 		.4byte	.LCFI1
 2198 00c6 0200     		.2byte	0x2
 2199 00c8 7D       		.byte	0x7d
 2200 00c9 00       		.sleb128 0
 2201 00ca 06000000 		.4byte	.LCFI1
 2202 00ce BC000000 		.4byte	.LFE112
 2203 00d2 0200     		.2byte	0x2
 2204 00d4 7D       		.byte	0x7d
 2205 00d5 20       		.sleb128 32
 2206 00d6 00000000 		.4byte	0
 2207 00da 00000000 		.4byte	0
 2208              	.LLST3:
 2209 00de 00000000 		.4byte	.LVL19
ARM GAS  C:\cygwin\tmp\cc5Nnx4h.s 			page 40


 2210 00e2 12000000 		.4byte	.LVL20
 2211 00e6 0200     		.2byte	0x2
 2212 00e8 30       		.byte	0x30
 2213 00e9 9F       		.byte	0x9f
 2214 00ea 14000000 		.4byte	.LVL21
 2215 00ee 1A000000 		.4byte	.LVL22
 2216 00f2 0100     		.2byte	0x1
 2217 00f4 53       		.byte	0x53
 2218 00f5 64000000 		.4byte	.LVL27
 2219 00f9 74000000 		.4byte	.LVL29
 2220 00fd 0100     		.2byte	0x1
 2221 00ff 53       		.byte	0x53
 2222 0100 00000000 		.4byte	0
 2223 0104 00000000 		.4byte	0
 2224              	.LLST4:
 2225 0108 00000000 		.4byte	.LVL19
 2226 010c 12000000 		.4byte	.LVL20
 2227 0110 0200     		.2byte	0x2
 2228 0112 30       		.byte	0x30
 2229 0113 9F       		.byte	0x9f
 2230 0114 12000000 		.4byte	.LVL20
 2231 0118 1A000000 		.4byte	.LVL22
 2232 011c 0100     		.2byte	0x1
 2233 011e 54       		.byte	0x54
 2234 011f 1E000000 		.4byte	.LVL23
 2235 0123 28000000 		.4byte	.LVL25
 2236 0127 0100     		.2byte	0x1
 2237 0129 54       		.byte	0x54
 2238 012a 28000000 		.4byte	.LVL25
 2239 012e 64000000 		.4byte	.LVL27
 2240 0132 0600     		.2byte	0x6
 2241 0134 77       		.byte	0x77
 2242 0135 00       		.sleb128 0
 2243 0136 73       		.byte	0x73
 2244 0137 00       		.sleb128 0
 2245 0138 24       		.byte	0x24
 2246 0139 9F       		.byte	0x9f
 2247 013a 64000000 		.4byte	.LVL27
 2248 013e 6E000000 		.4byte	.LVL28
 2249 0142 0600     		.2byte	0x6
 2250 0144 77       		.byte	0x77
 2251 0145 00       		.sleb128 0
 2252 0146 73       		.byte	0x73
 2253 0147 7F       		.sleb128 -1
 2254 0148 24       		.byte	0x24
 2255 0149 9F       		.byte	0x9f
 2256 014a 74000000 		.4byte	.LVL29
 2257 014e BC000000 		.4byte	.LFE112
 2258 0152 0600     		.2byte	0x6
 2259 0154 77       		.byte	0x77
 2260 0155 00       		.sleb128 0
 2261 0156 73       		.byte	0x73
 2262 0157 00       		.sleb128 0
 2263 0158 24       		.byte	0x24
 2264 0159 9F       		.byte	0x9f
 2265 015a 00000000 		.4byte	0
 2266 015e 00000000 		.4byte	0
ARM GAS  C:\cygwin\tmp\cc5Nnx4h.s 			page 41


 2267              	.LLST5:
 2268 0162 00000000 		.4byte	.LVL19
 2269 0166 12000000 		.4byte	.LVL20
 2270 016a 0200     		.2byte	0x2
 2271 016c 30       		.byte	0x30
 2272 016d 9F       		.byte	0x9f
 2273 016e 12000000 		.4byte	.LVL20
 2274 0172 1A000000 		.4byte	.LVL22
 2275 0176 0100     		.2byte	0x1
 2276 0178 55       		.byte	0x55
 2277 0179 22000000 		.4byte	.LVL24
 2278 017d 3A000000 		.4byte	.LVL26
 2279 0181 0100     		.2byte	0x1
 2280 0183 55       		.byte	0x55
 2281 0184 3A000000 		.4byte	.LVL26
 2282 0188 64000000 		.4byte	.LVL27
 2283 018c 0900     		.2byte	0x9
 2284 018e 77       		.byte	0x77
 2285 018f 00       		.sleb128 0
 2286 0190 73       		.byte	0x73
 2287 0191 00       		.sleb128 0
 2288 0192 24       		.byte	0x24
 2289 0193 76       		.byte	0x76
 2290 0194 00       		.sleb128 0
 2291 0195 1A       		.byte	0x1a
 2292 0196 9F       		.byte	0x9f
 2293 0197 64000000 		.4byte	.LVL27
 2294 019b 6E000000 		.4byte	.LVL28
 2295 019f 0900     		.2byte	0x9
 2296 01a1 77       		.byte	0x77
 2297 01a2 00       		.sleb128 0
 2298 01a3 73       		.byte	0x73
 2299 01a4 7F       		.sleb128 -1
 2300 01a5 24       		.byte	0x24
 2301 01a6 76       		.byte	0x76
 2302 01a7 00       		.sleb128 0
 2303 01a8 1A       		.byte	0x1a
 2304 01a9 9F       		.byte	0x9f
 2305 01aa 74000000 		.4byte	.LVL29
 2306 01ae A8000000 		.4byte	.LVL30
 2307 01b2 0100     		.2byte	0x1
 2308 01b4 55       		.byte	0x55
 2309 01b5 A8000000 		.4byte	.LVL30
 2310 01b9 BC000000 		.4byte	.LFE112
 2311 01bd 0900     		.2byte	0x9
 2312 01bf 77       		.byte	0x77
 2313 01c0 00       		.sleb128 0
 2314 01c1 73       		.byte	0x73
 2315 01c2 00       		.sleb128 0
 2316 01c3 24       		.byte	0x24
 2317 01c4 76       		.byte	0x76
 2318 01c5 00       		.sleb128 0
 2319 01c6 1A       		.byte	0x1a
 2320 01c7 9F       		.byte	0x9f
 2321 01c8 00000000 		.4byte	0
 2322 01cc 00000000 		.4byte	0
 2323              	.LLST6:
ARM GAS  C:\cygwin\tmp\cc5Nnx4h.s 			page 42


 2324 01d0 00000000 		.4byte	.LVL31
 2325 01d4 04000000 		.4byte	.LVL32
 2326 01d8 0400     		.2byte	0x4
 2327 01da 40       		.byte	0x40
 2328 01db 3C       		.byte	0x3c
 2329 01dc 24       		.byte	0x24
 2330 01dd 9F       		.byte	0x9f
 2331 01de 04000000 		.4byte	.LVL32
 2332 01e2 0C000000 		.4byte	.LVL33
 2333 01e6 0100     		.2byte	0x1
 2334 01e8 53       		.byte	0x53
 2335 01e9 00000000 		.4byte	0
 2336 01ed 00000000 		.4byte	0
 2337              	.LLST7:
 2338 01f1 00000000 		.4byte	.LVL34
 2339 01f5 0A000000 		.4byte	.LVL36
 2340 01f9 0100     		.2byte	0x1
 2341 01fb 50       		.byte	0x50
 2342 01fc 0A000000 		.4byte	.LVL36
 2343 0200 0C000000 		.4byte	.LFE114
 2344 0204 0400     		.2byte	0x4
 2345 0206 F3       		.byte	0xf3
 2346 0207 01       		.uleb128 0x1
 2347 0208 50       		.byte	0x50
 2348 0209 9F       		.byte	0x9f
 2349 020a 00000000 		.4byte	0
 2350 020e 00000000 		.4byte	0
 2351              	.LLST8:
 2352 0212 00000000 		.4byte	.LVL34
 2353 0216 02000000 		.4byte	.LVL35
 2354 021a 0200     		.2byte	0x2
 2355 021c 30       		.byte	0x30
 2356 021d 9F       		.byte	0x9f
 2357 021e 02000000 		.4byte	.LVL35
 2358 0222 0C000000 		.4byte	.LFE114
 2359 0226 0C00     		.2byte	0xc
 2360 0228 71       		.byte	0x71
 2361 0229 00       		.sleb128 0
 2362 022a 0A       		.byte	0xa
 2363 022b FFFF     		.2byte	0xffff
 2364 022d 1A       		.byte	0x1a
 2365 022e 73       		.byte	0x73
 2366 022f 00       		.sleb128 0
 2367 0230 1A       		.byte	0x1a
 2368 0231 30       		.byte	0x30
 2369 0232 2E       		.byte	0x2e
 2370 0233 9F       		.byte	0x9f
 2371 0234 00000000 		.4byte	0
 2372 0238 00000000 		.4byte	0
 2373              	.LLST9:
 2374 023c 00000000 		.4byte	.LVL37
 2375 0240 02000000 		.4byte	.LVL38
 2376 0244 0100     		.2byte	0x1
 2377 0246 50       		.byte	0x50
 2378 0247 02000000 		.4byte	.LVL38
 2379 024b 06000000 		.4byte	.LFE115
 2380 024f 0400     		.2byte	0x4
ARM GAS  C:\cygwin\tmp\cc5Nnx4h.s 			page 43


 2381 0251 F3       		.byte	0xf3
 2382 0252 01       		.uleb128 0x1
 2383 0253 50       		.byte	0x50
 2384 0254 9F       		.byte	0x9f
 2385 0255 00000000 		.4byte	0
 2386 0259 00000000 		.4byte	0
 2387              	.LLST10:
 2388 025d 00000000 		.4byte	.LVL39
 2389 0261 0A000000 		.4byte	.LVL41
 2390 0265 0100     		.2byte	0x1
 2391 0267 50       		.byte	0x50
 2392 0268 0A000000 		.4byte	.LVL41
 2393 026c 0C000000 		.4byte	.LFE116
 2394 0270 0400     		.2byte	0x4
 2395 0272 F3       		.byte	0xf3
 2396 0273 01       		.uleb128 0x1
 2397 0274 50       		.byte	0x50
 2398 0275 9F       		.byte	0x9f
 2399 0276 00000000 		.4byte	0
 2400 027a 00000000 		.4byte	0
 2401              	.LLST11:
 2402 027e 00000000 		.4byte	.LVL39
 2403 0282 02000000 		.4byte	.LVL40
 2404 0286 0200     		.2byte	0x2
 2405 0288 30       		.byte	0x30
 2406 0289 9F       		.byte	0x9f
 2407 028a 02000000 		.4byte	.LVL40
 2408 028e 0C000000 		.4byte	.LFE116
 2409 0292 0C00     		.2byte	0xc
 2410 0294 71       		.byte	0x71
 2411 0295 00       		.sleb128 0
 2412 0296 0A       		.byte	0xa
 2413 0297 FFFF     		.2byte	0xffff
 2414 0299 1A       		.byte	0x1a
 2415 029a 73       		.byte	0x73
 2416 029b 00       		.sleb128 0
 2417 029c 1A       		.byte	0x1a
 2418 029d 30       		.byte	0x30
 2419 029e 2E       		.byte	0x2e
 2420 029f 9F       		.byte	0x9f
 2421 02a0 00000000 		.4byte	0
 2422 02a4 00000000 		.4byte	0
 2423              	.LLST12:
 2424 02a8 00000000 		.4byte	.LVL42
 2425 02ac 02000000 		.4byte	.LVL43
 2426 02b0 0100     		.2byte	0x1
 2427 02b2 50       		.byte	0x50
 2428 02b3 02000000 		.4byte	.LVL43
 2429 02b7 06000000 		.4byte	.LFE117
 2430 02bb 0400     		.2byte	0x4
 2431 02bd F3       		.byte	0xf3
 2432 02be 01       		.uleb128 0x1
 2433 02bf 50       		.byte	0x50
 2434 02c0 9F       		.byte	0x9f
 2435 02c1 00000000 		.4byte	0
 2436 02c5 00000000 		.4byte	0
 2437              	.LLST13:
ARM GAS  C:\cygwin\tmp\cc5Nnx4h.s 			page 44


 2438 02c9 00000000 		.4byte	.LFB122
 2439 02cd 0A000000 		.4byte	.LCFI2
 2440 02d1 0200     		.2byte	0x2
 2441 02d3 7D       		.byte	0x7d
 2442 02d4 00       		.sleb128 0
 2443 02d5 0A000000 		.4byte	.LCFI2
 2444 02d9 3E000000 		.4byte	.LFE122
 2445 02dd 0200     		.2byte	0x2
 2446 02df 7D       		.byte	0x7d
 2447 02e0 04       		.sleb128 4
 2448 02e1 00000000 		.4byte	0
 2449 02e5 00000000 		.4byte	0
 2450              	.LLST14:
 2451 02e9 00000000 		.4byte	.LVL48
 2452 02ed 12000000 		.4byte	.LVL50
 2453 02f1 0100     		.2byte	0x1
 2454 02f3 51       		.byte	0x51
 2455 02f4 12000000 		.4byte	.LVL50
 2456 02f8 28000000 		.4byte	.LVL52
 2457 02fc 0400     		.2byte	0x4
 2458 02fe F3       		.byte	0xf3
 2459 02ff 01       		.uleb128 0x1
 2460 0300 51       		.byte	0x51
 2461 0301 9F       		.byte	0x9f
 2462 0302 28000000 		.4byte	.LVL52
 2463 0306 2A000000 		.4byte	.LVL53
 2464 030a 0100     		.2byte	0x1
 2465 030c 51       		.byte	0x51
 2466 030d 2A000000 		.4byte	.LVL53
 2467 0311 3E000000 		.4byte	.LFE122
 2468 0315 0400     		.2byte	0x4
 2469 0317 F3       		.byte	0xf3
 2470 0318 01       		.uleb128 0x1
 2471 0319 51       		.byte	0x51
 2472 031a 9F       		.byte	0x9f
 2473 031b 00000000 		.4byte	0
 2474 031f 00000000 		.4byte	0
 2475              	.LLST15:
 2476 0323 00000000 		.4byte	.LVL48
 2477 0327 0E000000 		.4byte	.LVL49
 2478 032b 0100     		.2byte	0x1
 2479 032d 52       		.byte	0x52
 2480 032e 0E000000 		.4byte	.LVL49
 2481 0332 3E000000 		.4byte	.LFE122
 2482 0336 0400     		.2byte	0x4
 2483 0338 F3       		.byte	0xf3
 2484 0339 01       		.uleb128 0x1
 2485 033a 52       		.byte	0x52
 2486 033b 9F       		.byte	0x9f
 2487 033c 00000000 		.4byte	0
 2488 0340 00000000 		.4byte	0
 2489              	.LLST16:
 2490 0344 00000000 		.4byte	.LVL48
 2491 0348 0E000000 		.4byte	.LVL49
 2492 034c 0200     		.2byte	0x2
 2493 034e 30       		.byte	0x30
 2494 034f 9F       		.byte	0x9f
ARM GAS  C:\cygwin\tmp\cc5Nnx4h.s 			page 45


 2495 0350 0E000000 		.4byte	.LVL49
 2496 0354 22000000 		.4byte	.LVL51
 2497 0358 0100     		.2byte	0x1
 2498 035a 52       		.byte	0x52
 2499 035b 28000000 		.4byte	.LVL52
 2500 035f 3A000000 		.4byte	.LVL54
 2501 0363 0100     		.2byte	0x1
 2502 0365 52       		.byte	0x52
 2503 0366 00000000 		.4byte	0
 2504 036a 00000000 		.4byte	0
 2505              	.LLST17:
 2506 036e 00000000 		.4byte	.LVL48
 2507 0372 22000000 		.4byte	.LVL51
 2508 0376 0200     		.2byte	0x2
 2509 0378 30       		.byte	0x30
 2510 0379 9F       		.byte	0x9f
 2511 037a 22000000 		.4byte	.LVL51
 2512 037e 28000000 		.4byte	.LVL52
 2513 0382 0100     		.2byte	0x1
 2514 0384 52       		.byte	0x52
 2515 0385 28000000 		.4byte	.LVL52
 2516 0389 3A000000 		.4byte	.LVL54
 2517 038d 0200     		.2byte	0x2
 2518 038f 30       		.byte	0x30
 2519 0390 9F       		.byte	0x9f
 2520 0391 3A000000 		.4byte	.LVL54
 2521 0395 3E000000 		.4byte	.LFE122
 2522 0399 0100     		.2byte	0x1
 2523 039b 52       		.byte	0x52
 2524 039c 00000000 		.4byte	0
 2525 03a0 00000000 		.4byte	0
 2526              		.section	.debug_aranges,"",%progbits
 2527 0000 74000000 		.4byte	0x74
 2528 0004 0200     		.2byte	0x2
 2529 0006 00000000 		.4byte	.Ldebug_info0
 2530 000a 04       		.byte	0x4
 2531 000b 00       		.byte	0
 2532 000c 0000     		.2byte	0
 2533 000e 0000     		.2byte	0
 2534 0010 00000000 		.4byte	.LFB111
 2535 0014 D6000000 		.4byte	.LFE111-.LFB111
 2536 0018 00000000 		.4byte	.LFB112
 2537 001c BC000000 		.4byte	.LFE112-.LFB112
 2538 0020 00000000 		.4byte	.LFB113
 2539 0024 10000000 		.4byte	.LFE113-.LFB113
 2540 0028 00000000 		.4byte	.LFB114
 2541 002c 0C000000 		.4byte	.LFE114-.LFB114
 2542 0030 00000000 		.4byte	.LFB115
 2543 0034 06000000 		.4byte	.LFE115-.LFB115
 2544 0038 00000000 		.4byte	.LFB116
 2545 003c 0C000000 		.4byte	.LFE116-.LFB116
 2546 0040 00000000 		.4byte	.LFB117
 2547 0044 06000000 		.4byte	.LFE117-.LFB117
 2548 0048 00000000 		.4byte	.LFB118
 2549 004c 04000000 		.4byte	.LFE118-.LFB118
 2550 0050 00000000 		.4byte	.LFB119
 2551 0054 04000000 		.4byte	.LFE119-.LFB119
ARM GAS  C:\cygwin\tmp\cc5Nnx4h.s 			page 46


 2552 0058 00000000 		.4byte	.LFB120
 2553 005c 04000000 		.4byte	.LFE120-.LFB120
 2554 0060 00000000 		.4byte	.LFB121
 2555 0064 04000000 		.4byte	.LFE121-.LFB121
 2556 0068 00000000 		.4byte	.LFB122
 2557 006c 3E000000 		.4byte	.LFE122-.LFB122
 2558 0070 00000000 		.4byte	0
 2559 0074 00000000 		.4byte	0
 2560              		.section	.debug_ranges,"",%progbits
 2561              	.Ldebug_ranges0:
 2562 0000 00000000 		.4byte	.LFB111
 2563 0004 D6000000 		.4byte	.LFE111
 2564 0008 00000000 		.4byte	.LFB112
 2565 000c BC000000 		.4byte	.LFE112
 2566 0010 00000000 		.4byte	.LFB113
 2567 0014 10000000 		.4byte	.LFE113
 2568 0018 00000000 		.4byte	.LFB114
 2569 001c 0C000000 		.4byte	.LFE114
 2570 0020 00000000 		.4byte	.LFB115
 2571 0024 06000000 		.4byte	.LFE115
 2572 0028 00000000 		.4byte	.LFB116
 2573 002c 0C000000 		.4byte	.LFE116
 2574 0030 00000000 		.4byte	.LFB117
 2575 0034 06000000 		.4byte	.LFE117
 2576 0038 00000000 		.4byte	.LFB118
 2577 003c 04000000 		.4byte	.LFE118
 2578 0040 00000000 		.4byte	.LFB119
 2579 0044 04000000 		.4byte	.LFE119
 2580 0048 00000000 		.4byte	.LFB120
 2581 004c 04000000 		.4byte	.LFE120
 2582 0050 00000000 		.4byte	.LFB121
 2583 0054 04000000 		.4byte	.LFE121
 2584 0058 00000000 		.4byte	.LFB122
 2585 005c 3E000000 		.4byte	.LFE122
 2586 0060 00000000 		.4byte	0
 2587 0064 00000000 		.4byte	0
 2588              		.section	.debug_line,"",%progbits
 2589              	.Ldebug_line0:
 2590 0000 CB020000 		.section	.debug_str,"MS",%progbits,1
 2590      02005801 
 2590      00000201 
 2590      FB0E0D00 
 2590      01010101 
 2591              	.LASF26:
 2592 0000 4750494F 		.ascii	"GPIO_TypeDef\000"
 2592      5F547970 
 2592      65446566 
 2592      00
 2593              	.LASF56:
 2594 000d 70696E70 		.ascii	"pinpos\000"
 2594      6F7300
 2595              	.LASF46:
 2596 0014 4750494F 		.ascii	"GPIO_Pin\000"
 2596      5F50696E 
 2596      00
 2597              	.LASF44:
 2598 001d 4269745F 		.ascii	"Bit_SET\000"
ARM GAS  C:\cygwin\tmp\cc5Nnx4h.s 			page 47


 2598      53455400 
 2599              	.LASF63:
 2600 0025 4750494F 		.ascii	"GPIO_ReadOutputData\000"
 2600      5F526561 
 2600      644F7574 
 2600      70757444 
 2600      61746100 
 2601              	.LASF31:
 2602 0039 4750494F 		.ascii	"GPIOMode_TypeDef\000"
 2602      4D6F6465 
 2602      5F547970 
 2602      65446566 
 2602      00
 2603              	.LASF79:
 2604 004a 5243435F 		.ascii	"RCC_AHBPeriphResetCmd\000"
 2604      41484250 
 2604      65726970 
 2604      68526573 
 2604      6574436D 
 2605              	.LASF73:
 2606 0060 74656D70 		.ascii	"temp\000"
 2606      00
 2607              	.LASF2:
 2608 0065 73686F72 		.ascii	"short int\000"
 2608      7420696E 
 2608      7400
 2609              	.LASF13:
 2610 006f 73697A65 		.ascii	"sizetype\000"
 2610      74797065 
 2610      00
 2611              	.LASF67:
 2612 0078 42697456 		.ascii	"BitVal\000"
 2612      616C00
 2613              	.LASF33:
 2614 007f 4750494F 		.ascii	"GPIO_OType_OD\000"
 2614      5F4F5479 
 2614      70655F4F 
 2614      4400
 2615              	.LASF43:
 2616 008d 4269745F 		.ascii	"Bit_RESET\000"
 2616      52455345 
 2616      5400
 2617              	.LASF66:
 2618 0097 4750494F 		.ascii	"GPIO_WriteBit\000"
 2618      5F577269 
 2618      74654269 
 2618      7400
 2619              	.LASF34:
 2620 00a5 4750494F 		.ascii	"GPIOOType_TypeDef\000"
 2620      4F547970 
 2620      655F5479 
 2620      70654465 
 2620      6600
 2621              	.LASF59:
 2622 00b7 62697473 		.ascii	"bitstatus\000"
 2622      74617475 
 2622      7300
ARM GAS  C:\cygwin\tmp\cc5Nnx4h.s 			page 48


 2623              	.LASF49:
 2624 00c1 4750494F 		.ascii	"GPIO_OType\000"
 2624      5F4F5479 
 2624      706500
 2625              	.LASF29:
 2626 00cc 4750494F 		.ascii	"GPIO_Mode_AF\000"
 2626      5F4D6F64 
 2626      655F4146 
 2626      00
 2627              	.LASF64:
 2628 00d9 4750494F 		.ascii	"GPIO_SetBits\000"
 2628      5F536574 
 2628      42697473 
 2628      00
 2629              	.LASF15:
 2630 00e6 454E4142 		.ascii	"ENABLE\000"
 2630      4C4500
 2631              	.LASF48:
 2632 00ed 4750494F 		.ascii	"GPIO_Speed\000"
 2632      5F537065 
 2632      656400
 2633              	.LASF53:
 2634 00f8 4750494F 		.ascii	"GPIO_Init\000"
 2634      5F496E69 
 2634      7400
 2635              	.LASF30:
 2636 0102 4750494F 		.ascii	"GPIO_Mode_AN\000"
 2636      5F4D6F64 
 2636      655F414E 
 2636      00
 2637              	.LASF65:
 2638 010f 4750494F 		.ascii	"GPIO_ResetBits\000"
 2638      5F526573 
 2638      65744269 
 2638      747300
 2639              	.LASF23:
 2640 011e 4C434B52 		.ascii	"LCKR\000"
 2640      00
 2641              	.LASF74:
 2642 0123 74656D70 		.ascii	"temp_2\000"
 2642      5F3200
 2643              	.LASF19:
 2644 012a 4F545950 		.ascii	"OTYPER\000"
 2644      455200
 2645              	.LASF10:
 2646 0131 6C6F6E67 		.ascii	"long long int\000"
 2646      206C6F6E 
 2646      6720696E 
 2646      7400
 2647              	.LASF28:
 2648 013f 4750494F 		.ascii	"GPIO_Mode_OUT\000"
 2648      5F4D6F64 
 2648      655F4F55 
 2648      5400
 2649              	.LASF21:
 2650 014d 50555044 		.ascii	"PUPDR\000"
 2650      5200
ARM GAS  C:\cygwin\tmp\cc5Nnx4h.s 			page 49


 2651              	.LASF7:
 2652 0153 6C6F6E67 		.ascii	"long int\000"
 2652      20696E74 
 2652      00
 2653              	.LASF27:
 2654 015c 4750494F 		.ascii	"GPIO_Mode_IN\000"
 2654      5F4D6F64 
 2654      655F494E 
 2654      00
 2655              	.LASF52:
 2656 0169 4750494F 		.ascii	"GPIO_DeInit\000"
 2656      5F446549 
 2656      6E697400 
 2657              	.LASF22:
 2658 0175 42535252 		.ascii	"BSRR\000"
 2658      00
 2659              	.LASF18:
 2660 017a 4D4F4445 		.ascii	"MODER\000"
 2660      5200
 2661              	.LASF17:
 2662 0180 636C6561 		.ascii	"clear\000"
 2662      7200
 2663              	.LASF60:
 2664 0186 4750494F 		.ascii	"GPIO_ReadInputDataBit\000"
 2664      5F526561 
 2664      64496E70 
 2664      75744461 
 2664      74614269 
 2665              	.LASF36:
 2666 019c 4750494F 		.ascii	"GPIO_Speed_10MHz\000"
 2666      5F537065 
 2666      65645F31 
 2666      304D487A 
 2666      00
 2667              	.LASF32:
 2668 01ad 4750494F 		.ascii	"GPIO_OType_PP\000"
 2668      5F4F5479 
 2668      70655F50 
 2668      5000
 2669              	.LASF77:
 2670 01bb 433A5C55 		.ascii	"C:\\Users\\TaisikHam\\Documents\\GitHub\\ChibiOS\\t"
 2670      73657273 
 2670      5C546169 
 2670      73696B48 
 2670      616D5C44 
 2671 01e8 65737468 		.ascii	"esthal\\STM32F30x\\TS_SPI\000"
 2671      616C5C53 
 2671      544D3332 
 2671      46333078 
 2671      5C54535F 
 2672              	.LASF1:
 2673 0200 756E7369 		.ascii	"unsigned char\000"
 2673      676E6564 
 2673      20636861 
 2673      7200
 2674              	.LASF72:
 2675 020e 4750494F 		.ascii	"GPIO_AF\000"
ARM GAS  C:\cygwin\tmp\cc5Nnx4h.s 			page 50


 2675      5F414600 
 2676              	.LASF50:
 2677 0216 4750494F 		.ascii	"GPIO_PuPd\000"
 2677      5F507550 
 2677      6400
 2678              	.LASF35:
 2679 0220 4750494F 		.ascii	"GPIO_Speed_2MHz\000"
 2679      5F537065 
 2679      65645F32 
 2679      4D487A00 
 2680              	.LASF0:
 2681 0230 7369676E 		.ascii	"signed char\000"
 2681      65642063 
 2681      68617200 
 2682              	.LASF11:
 2683 023c 6C6F6E67 		.ascii	"long long unsigned int\000"
 2683      206C6F6E 
 2683      6720756E 
 2683      7369676E 
 2683      65642069 
 2684              	.LASF8:
 2685 0253 75696E74 		.ascii	"uint32_t\000"
 2685      33325F74 
 2685      00
 2686              	.LASF51:
 2687 025c 4750494F 		.ascii	"GPIO_InitTypeDef\000"
 2687      5F496E69 
 2687      74547970 
 2687      65446566 
 2687      00
 2688              	.LASF12:
 2689 026d 756E7369 		.ascii	"unsigned int\000"
 2689      676E6564 
 2689      20696E74 
 2689      00
 2690              	.LASF4:
 2691 027a 75696E74 		.ascii	"uint16_t\000"
 2691      31365F74 
 2691      00
 2692              	.LASF69:
 2693 0283 506F7274 		.ascii	"PortVal\000"
 2693      56616C00 
 2694              	.LASF9:
 2695 028b 6C6F6E67 		.ascii	"long unsigned int\000"
 2695      20756E73 
 2695      69676E65 
 2695      6420696E 
 2695      7400
 2696              	.LASF25:
 2697 029d 41465248 		.ascii	"AFRH\000"
 2697      00
 2698              	.LASF24:
 2699 02a2 4146524C 		.ascii	"AFRL\000"
 2699      00
 2700              	.LASF61:
 2701 02a7 4750494F 		.ascii	"GPIO_ReadInputData\000"
 2701      5F526561 
ARM GAS  C:\cygwin\tmp\cc5Nnx4h.s 			page 51


 2701      64496E70 
 2701      75744461 
 2701      746100
 2702              	.LASF39:
 2703 02ba 4750494F 		.ascii	"GPIO_PuPd_NOPULL\000"
 2703      5F507550 
 2703      645F4E4F 
 2703      50554C4C 
 2703      00
 2704              	.LASF14:
 2705 02cb 44495341 		.ascii	"DISABLE\000"
 2705      424C4500 
 2706              	.LASF6:
 2707 02d3 696E7433 		.ascii	"int32_t\000"
 2707      325F7400 
 2708              	.LASF58:
 2709 02db 4750494F 		.ascii	"GPIO_PinLockConfig\000"
 2709      5F50696E 
 2709      4C6F636B 
 2709      436F6E66 
 2709      696700
 2710              	.LASF5:
 2711 02ee 73686F72 		.ascii	"short unsigned int\000"
 2711      7420756E 
 2711      7369676E 
 2711      65642069 
 2711      6E7400
 2712              	.LASF57:
 2713 0301 63757272 		.ascii	"currentpin\000"
 2713      656E7470 
 2713      696E00
 2714              	.LASF68:
 2715 030c 4750494F 		.ascii	"GPIO_Write\000"
 2715      5F577269 
 2715      746500
 2716              	.LASF20:
 2717 0317 4F535045 		.ascii	"OSPEEDR\000"
 2717      45445200 
 2718              	.LASF47:
 2719 031f 4750494F 		.ascii	"GPIO_Mode\000"
 2719      5F4D6F64 
 2719      6500
 2720              	.LASF45:
 2721 0329 42697441 		.ascii	"BitAction\000"
 2721      6374696F 
 2721      6E00
 2722              	.LASF38:
 2723 0333 4750494F 		.ascii	"GPIOSpeed_TypeDef\000"
 2723      53706565 
 2723      645F5479 
 2723      70654465 
 2723      6600
 2724              	.LASF16:
 2725 0345 46756E63 		.ascii	"FunctionalState\000"
 2725      74696F6E 
 2725      616C5374 
 2725      61746500 
ARM GAS  C:\cygwin\tmp\cc5Nnx4h.s 			page 52


 2726              	.LASF54:
 2727 0355 4750494F 		.ascii	"GPIOx\000"
 2727      7800
 2728              	.LASF75:
 2729 035b 474E5520 		.ascii	"GNU C 4.7.2\000"
 2729      4320342E 
 2729      372E3200 
 2730              	.LASF37:
 2731 0367 4750494F 		.ascii	"GPIO_Speed_50MHz\000"
 2731      5F537065 
 2731      65645F35 
 2731      304D487A 
 2731      00
 2732              	.LASF3:
 2733 0378 75696E74 		.ascii	"uint8_t\000"
 2733      385F7400 
 2734              	.LASF41:
 2735 0380 4750494F 		.ascii	"GPIO_PuPd_DOWN\000"
 2735      5F507550 
 2735      645F444F 
 2735      574E00
 2736              	.LASF76:
 2737 038f 2E2E2F2E 		.ascii	"../../../Testhal_wrk/STM32F30x/Gyro/stm32f30x_gpio."
 2737      2E2F2E2E 
 2737      2F546573 
 2737      7468616C 
 2737      5F77726B 
 2738 03c2 6300     		.ascii	"c\000"
 2739              	.LASF42:
 2740 03c4 4750494F 		.ascii	"GPIOPuPd_TypeDef\000"
 2740      50755064 
 2740      5F547970 
 2740      65446566 
 2740      00
 2741              	.LASF40:
 2742 03d5 4750494F 		.ascii	"GPIO_PuPd_UP\000"
 2742      5F507550 
 2742      645F5550 
 2742      00
 2743              	.LASF70:
 2744 03e2 4750494F 		.ascii	"GPIO_PinAFConfig\000"
 2744      5F50696E 
 2744      4146436F 
 2744      6E666967 
 2744      00
 2745              	.LASF78:
 2746 03f3 49544D5F 		.ascii	"ITM_RxBuffer\000"
 2746      52784275 
 2746      66666572 
 2746      00
 2747              	.LASF71:
 2748 0400 4750494F 		.ascii	"GPIO_PinSource\000"
 2748      5F50696E 
 2748      536F7572 
 2748      636500
 2749              	.LASF62:
 2750 040f 4750494F 		.ascii	"GPIO_ReadOutputDataBit\000"
ARM GAS  C:\cygwin\tmp\cc5Nnx4h.s 			page 53


 2750      5F526561 
 2750      644F7574 
 2750      70757444 
 2750      61746142 
 2751              	.LASF55:
 2752 0426 4750494F 		.ascii	"GPIO_InitStruct\000"
 2752      5F496E69 
 2752      74537472 
 2752      75637400 
 2753              		.ident	"GCC: (GNU) 4.7.2"
ARM GAS  C:\cygwin\tmp\cc5Nnx4h.s 			page 54


DEFINED SYMBOLS
                            *ABS*:00000000 stm32f30x_gpio.c
C:\cygwin\tmp\cc5Nnx4h.s:19     .text.GPIO_DeInit:00000000 $t
C:\cygwin\tmp\cc5Nnx4h.s:25     .text.GPIO_DeInit:00000000 GPIO_DeInit
C:\cygwin\tmp\cc5Nnx4h.s:163    .text.GPIO_Init:00000000 $t
C:\cygwin\tmp\cc5Nnx4h.s:169    .text.GPIO_Init:00000000 GPIO_Init
C:\cygwin\tmp\cc5Nnx4h.s:299    .text.GPIO_PinLockConfig:00000000 $t
C:\cygwin\tmp\cc5Nnx4h.s:305    .text.GPIO_PinLockConfig:00000000 GPIO_PinLockConfig
C:\cygwin\tmp\cc5Nnx4h.s:332    .text.GPIO_ReadInputDataBit:00000000 $t
C:\cygwin\tmp\cc5Nnx4h.s:338    .text.GPIO_ReadInputDataBit:00000000 GPIO_ReadInputDataBit
C:\cygwin\tmp\cc5Nnx4h.s:360    .text.GPIO_ReadInputData:00000000 $t
C:\cygwin\tmp\cc5Nnx4h.s:366    .text.GPIO_ReadInputData:00000000 GPIO_ReadInputData
C:\cygwin\tmp\cc5Nnx4h.s:384    .text.GPIO_ReadOutputDataBit:00000000 $t
C:\cygwin\tmp\cc5Nnx4h.s:390    .text.GPIO_ReadOutputDataBit:00000000 GPIO_ReadOutputDataBit
C:\cygwin\tmp\cc5Nnx4h.s:412    .text.GPIO_ReadOutputData:00000000 $t
C:\cygwin\tmp\cc5Nnx4h.s:418    .text.GPIO_ReadOutputData:00000000 GPIO_ReadOutputData
C:\cygwin\tmp\cc5Nnx4h.s:436    .text.GPIO_SetBits:00000000 $t
C:\cygwin\tmp\cc5Nnx4h.s:442    .text.GPIO_SetBits:00000000 GPIO_SetBits
C:\cygwin\tmp\cc5Nnx4h.s:457    .text.GPIO_ResetBits:00000000 $t
C:\cygwin\tmp\cc5Nnx4h.s:463    .text.GPIO_ResetBits:00000000 GPIO_ResetBits
C:\cygwin\tmp\cc5Nnx4h.s:478    .text.GPIO_WriteBit:00000000 $t
C:\cygwin\tmp\cc5Nnx4h.s:484    .text.GPIO_WriteBit:00000000 GPIO_WriteBit
C:\cygwin\tmp\cc5Nnx4h.s:499    .text.GPIO_Write:00000000 $t
C:\cygwin\tmp\cc5Nnx4h.s:505    .text.GPIO_Write:00000000 GPIO_Write
C:\cygwin\tmp\cc5Nnx4h.s:520    .text.GPIO_PinAFConfig:00000000 $t
C:\cygwin\tmp\cc5Nnx4h.s:526    .text.GPIO_PinAFConfig:00000000 GPIO_PinAFConfig
                     .debug_frame:00000010 $d

UNDEFINED SYMBOLS
RCC_AHBPeriphResetCmd
