ARM GAS  C:\cygwin\tmp\ccu7kmZb.s 			page 1


   1              		.syntax unified
   2              		.cpu cortex-m4
   3              		.fpu softvfp
   4              		.eabi_attribute 20, 1
   5              		.eabi_attribute 21, 1
   6              		.eabi_attribute 23, 3
   7              		.eabi_attribute 24, 1
   8              		.eabi_attribute 25, 1
   9              		.eabi_attribute 26, 1
  10              		.eabi_attribute 30, 2
  11              		.eabi_attribute 34, 1
  12              		.eabi_attribute 18, 4
  13              		.thumb
  14              		.file	"testqueues.c"
  15              		.text
  16              	.Ltext0:
  17              		.cfi_sections	.debug_frame
  18              		.section	.text.notify,"ax",%progbits
  19              		.align	2
  20              		.p2align 4,,15
  21              		.thumb
  22              		.thumb_func
  23              		.type	notify, %function
  24              	notify:
  25              	.LFB7:
  26              		.file 1 "../../../test/testqueues.c"
  27              		.loc 1 61 0
  28              		.cfi_startproc
  29              		@ args = 0, pretend = 0, frame = 0
  30              		@ frame_needed = 0, uses_anonymous_args = 0
  31              		@ link register save eliminated.
  32              	.LVL0:
  33 0000 7047     		bx	lr
  34              		.cfi_endproc
  35              	.LFE7:
  36              		.size	notify, .-notify
  37 0002 00BFAFF3 		.section	.text.thread2,"ax",%progbits
  37      0080AFF3 
  37      0080AFF3 
  37      0080
  38              		.align	2
  39              		.p2align 4,,15
  40              		.thumb
  41              		.thumb_func
  42              		.type	thread2, %function
  43              	thread2:
  44              	.LFB12:
  45              		.loc 1 174 0
  46              		.cfi_startproc
  47              		@ args = 0, pretend = 0, frame = 0
  48              		@ frame_needed = 0, uses_anonymous_args = 0
  49              	.LVL1:
  50              		.loc 1 177 0
  51 0000 40F20000 		movw	r0, #:lower16:.LANCHOR0
  52              	.LVL2:
  53              		.loc 1 174 0
  54 0004 08B5     		push	{r3, lr}
ARM GAS  C:\cygwin\tmp\ccu7kmZb.s 			page 2


  55              	.LCFI0:
  56              		.cfi_def_cfa_offset 8
  57              		.cfi_offset 3, -8
  58              		.cfi_offset 14, -4
  59              		.loc 1 177 0
  60 0006 0021     		movs	r1, #0
  61 0008 C822     		movs	r2, #200
  62 000a C0F20000 		movt	r0, #:upper16:.LANCHOR0
  63 000e FFF7FEFF 		bl	chOQPutTimeout
  64              	.LVL3:
  65              		.loc 1 179 0
  66 0012 0020     		movs	r0, #0
  67 0014 08BD     		pop	{r3, pc}
  68              		.cfi_endproc
  69              	.LFE12:
  70              		.size	thread2, .-thread2
  71 0016 00BFAFF3 		.section	.text.queues2_setup,"ax",%progbits
  71      0080AFF3 
  71      0080
  72              		.align	2
  73              		.p2align 4,,15
  74              		.thumb
  75              		.thumb_func
  76              		.type	queues2_setup, %function
  77              	queues2_setup:
  78              	.LFB11:
  79              		.loc 1 169 0
  80              		.cfi_startproc
  81              		@ args = 0, pretend = 0, frame = 0
  82              		@ frame_needed = 0, uses_anonymous_args = 0
  83 0000 00B5     		push	{lr}
  84              	.LCFI1:
  85              		.cfi_def_cfa_offset 4
  86              		.cfi_offset 14, -4
  87              		.loc 1 171 0
  88 0002 40F20003 		movw	r3, #:lower16:wa
  89 0006 C0F20003 		movt	r3, #:upper16:wa
  90              		.loc 1 169 0
  91 000a 83B0     		sub	sp, sp, #12
  92              	.LCFI2:
  93              		.cfi_def_cfa_offset 16
  94              		.loc 1 171 0
  95 000c 1968     		ldr	r1, [r3, #0]
  96 000e 0023     		movs	r3, #0
  97 0010 0093     		str	r3, [sp, #0]
  98 0012 40F20000 		movw	r0, #:lower16:.LANCHOR0
  99 0016 40F20003 		movw	r3, #:lower16:notify
 100 001a C0F20000 		movt	r0, #:upper16:.LANCHOR0
 101 001e 0422     		movs	r2, #4
 102 0020 C0F20003 		movt	r3, #:upper16:notify
 103 0024 FFF7FEFF 		bl	chOQInit
 104              	.LVL4:
 105              		.loc 1 172 0
 106 0028 03B0     		add	sp, sp, #12
 107 002a 00BD     		pop	{pc}
 108              		.cfi_endproc
 109              	.LFE11:
ARM GAS  C:\cygwin\tmp\ccu7kmZb.s 			page 3


 110              		.size	queues2_setup, .-queues2_setup
 111 002c AFF30080 		.section	.text.thread1,"ax",%progbits
 112              		.align	2
 113              		.p2align 4,,15
 114              		.thumb
 115              		.thumb_func
 116              		.type	thread1, %function
 117              	thread1:
 118              	.LFB9:
 119              		.loc 1 87 0
 120              		.cfi_startproc
 121              		@ args = 0, pretend = 0, frame = 0
 122              		@ frame_needed = 0, uses_anonymous_args = 0
 123              	.LVL5:
 124              		.loc 1 90 0
 125 0000 40F20000 		movw	r0, #:lower16:.LANCHOR1
 126              	.LVL6:
 127              		.loc 1 87 0
 128 0004 08B5     		push	{r3, lr}
 129              	.LCFI3:
 130              		.cfi_def_cfa_offset 8
 131              		.cfi_offset 3, -8
 132              		.cfi_offset 14, -4
 133              		.loc 1 90 0
 134 0006 C821     		movs	r1, #200
 135 0008 C0F20000 		movt	r0, #:upper16:.LANCHOR1
 136 000c FFF7FEFF 		bl	chIQGetTimeout
 137              	.LVL7:
 138              		.loc 1 92 0
 139 0010 0020     		movs	r0, #0
 140 0012 08BD     		pop	{r3, pc}
 141              		.cfi_endproc
 142              	.LFE9:
 143              		.size	thread1, .-thread1
 144 0014 AFF30080 		.section	.text.queues1_setup,"ax",%progbits
 144      AFF30080 
 144      AFF30080 
 145              		.align	2
 146              		.p2align 4,,15
 147              		.thumb
 148              		.thumb_func
 149              		.type	queues1_setup, %function
 150              	queues1_setup:
 151              	.LFB8:
 152              		.loc 1 82 0
 153              		.cfi_startproc
 154              		@ args = 0, pretend = 0, frame = 0
 155              		@ frame_needed = 0, uses_anonymous_args = 0
 156 0000 00B5     		push	{lr}
 157              	.LCFI4:
 158              		.cfi_def_cfa_offset 4
 159              		.cfi_offset 14, -4
 160              		.loc 1 84 0
 161 0002 40F20003 		movw	r3, #:lower16:wa
 162 0006 C0F20003 		movt	r3, #:upper16:wa
 163              		.loc 1 82 0
 164 000a 83B0     		sub	sp, sp, #12
ARM GAS  C:\cygwin\tmp\ccu7kmZb.s 			page 4


 165              	.LCFI5:
 166              		.cfi_def_cfa_offset 16
 167              		.loc 1 84 0
 168 000c 1968     		ldr	r1, [r3, #0]
 169 000e 0023     		movs	r3, #0
 170 0010 0093     		str	r3, [sp, #0]
 171 0012 40F20000 		movw	r0, #:lower16:.LANCHOR1
 172 0016 40F20003 		movw	r3, #:lower16:notify
 173 001a C0F20000 		movt	r0, #:upper16:.LANCHOR1
 174 001e 0422     		movs	r2, #4
 175 0020 C0F20003 		movt	r3, #:upper16:notify
 176 0024 FFF7FEFF 		bl	chIQInit
 177              	.LVL8:
 178              		.loc 1 85 0
 179 0028 03B0     		add	sp, sp, #12
 180 002a 00BD     		pop	{pc}
 181              		.cfi_endproc
 182              	.LFE8:
 183              		.size	queues1_setup, .-queues1_setup
 184 002c AFF30080 		.section	.text.queues2_execute,"ax",%progbits
 185              		.align	2
 186              		.p2align 4,,15
 187              		.thumb
 188              		.thumb_func
 189              		.type	queues2_execute, %function
 190              	queues2_execute:
 191              	.LFB13:
 192              		.loc 1 181 0
 193              		.cfi_startproc
 194              		@ args = 0, pretend = 0, frame = 0
 195              		@ frame_needed = 0, uses_anonymous_args = 0
 196 0000 2DE9F041 		push	{r4, r5, r6, r7, r8, lr}
 197              	.LCFI6:
 198              		.cfi_def_cfa_offset 24
 199              		.cfi_offset 4, -24
 200              		.cfi_offset 5, -20
 201              		.cfi_offset 6, -16
 202              		.cfi_offset 7, -12
 203              		.cfi_offset 8, -8
 204              		.cfi_offset 14, -4
 205              	.LBB96:
 206              		.loc 1 186 0
 207 0004 2023     		movs	r3, #32
 208              	.LVL9:
 209              	.LBE96:
 210              		.loc 1 181 0
 211 0006 82B0     		sub	sp, sp, #8
 212              	.LCFI7:
 213              		.cfi_def_cfa_offset 32
 214              	.LBB97:
 215              		.loc 1 186 0
 216              	@ 186 "../../../test/testqueues.c" 1
 217 0008 83F31188 		msr     BASEPRI, r3
 218              	@ 0 "" 2
 219              	.LVL10:
 220              		.thumb
 221              	.LBE97:
ARM GAS  C:\cygwin\tmp\ccu7kmZb.s 			page 5


 222 000c FFF7FEFF 		bl	dbg_check_lock
 223              	.LVL11:
 224 0010 AE4B     		ldr	r3, .L34
 225 0012 5969     		ldr	r1, [r3, #20]
 226 0014 9A69     		ldr	r2, [r3, #24]
 227 0016 9142     		cmp	r1, r2
 228 0018 00F03B81 		beq	.L30
 229 001c 0021     		movs	r1, #0
 230              	.L7:
 231              		.loc 1 186 0 is_stmt 0 discriminator 4
 232 001e 0120     		movs	r0, #1
 233 0020 FFF7FEFF 		bl	_test_assert
 234              	.LVL12:
 235 0024 0446     		mov	r4, r0
 236 0026 0028     		cmp	r0, #0
 237 0028 40F02B81 		bne	.L27
 238              	.LBB98:
 239              	.LBB99:
 240              		.loc 1 186 0
 241 002c FFF7FEFF 		bl	dbg_check_unlock
 242              	.LVL13:
 243              	.LBB100:
 244 0030 2346     		mov	r3, r4
 245              	.LVL14:
 246              	@ 186 "../../../test/testqueues.c" 1
 247 0032 83F31188 		msr     BASEPRI, r3
 248              	@ 0 "" 2
 249              	.LVL15:
 250              		.thumb
 251 0036 4124     		movs	r4, #65
 252              	.LVL16:
 253              	.L10:
 254              	.LBE100:
 255              		.loc 1 190 0 is_stmt 1
 256 0038 A44D     		ldr	r5, .L34
 257 003a 2146     		mov	r1, r4
 258 003c 0134     		adds	r4, r4, #1
 259 003e 2846     		mov	r0, r5
 260 0040 4FF0FF32 		mov	r2, #-1
 261 0044 E4B2     		uxtb	r4, r4
 262 0046 FFF7FEFF 		bl	chOQPutTimeout
 263              	.LVL17:
 264              		.loc 1 189 0
 265 004a 452C     		cmp	r4, #69
 266 004c F4D1     		bne	.L10
 267              	.LBB101:
 268              		.loc 1 191 0
 269 004e 2023     		movs	r3, #32
 270              	.LVL18:
 271              	@ 191 "../../../test/testqueues.c" 1
 272 0050 83F31188 		msr     BASEPRI, r3
 273              	@ 0 "" 2
 274              	.LVL19:
 275              		.thumb
 276              	.LBE101:
 277 0054 FFF7FEFF 		bl	dbg_check_lock
 278              	.LVL20:
ARM GAS  C:\cygwin\tmp\ccu7kmZb.s 			page 6


 279 0058 A968     		ldr	r1, [r5, #8]
 280 005a 0220     		movs	r0, #2
 281 005c D1F10101 		rsbs	r1, r1, #1
 282 0060 38BF     		it	cc
 283 0062 0021     		movcc	r1, #0
 284 0064 FFF7FEFF 		bl	_test_assert
 285              	.LVL21:
 286 0068 0446     		mov	r4, r0
 287 006a 0028     		cmp	r0, #0
 288 006c 40F00981 		bne	.L27
 289 0070 FFF7FEFF 		bl	dbg_check_unlock
 290              	.LVL22:
 291              	.LBB102:
 292 0074 2346     		mov	r3, r4
 293              	.LVL23:
 294              	@ 191 "../../../test/testqueues.c" 1
 295 0076 83F31188 		msr     BASEPRI, r3
 296              	@ 0 "" 2
 297              	.LVL24:
 298              		.thumb
 299 007a 0424     		movs	r4, #4
 300              	.LVL25:
 301              	.L12:
 302              	.LBE102:
 303              	.LBB103:
 304              	.LBB104:
 305              		.loc 1 197 0
 306 007c 2023     		movs	r3, #32
 307              	.LVL26:
 308              	@ 197 "../../../test/testqueues.c" 1
 309 007e 83F31188 		msr     BASEPRI, r3
 310              	@ 0 "" 2
 311              	.LVL27:
 312              		.thumb
 313              	.LBE104:
 314              		.loc 1 198 0
 315 0082 924D     		ldr	r5, .L34
 316              		.loc 1 197 0
 317 0084 FFF7FEFF 		bl	dbg_check_lock
 318              	.LVL28:
 319              		.loc 1 198 0
 320 0088 2846     		mov	r0, r5
 321 008a FFF7FEFF 		bl	chOQGetI
 322              	.LVL29:
 323 008e 0646     		mov	r6, r0
 324              	.LVL30:
 325              		.loc 1 199 0
 326 0090 FFF7FEFF 		bl	dbg_check_unlock
 327              	.LVL31:
 328              	.LBB105:
 329 0094 0023     		movs	r3, #0
 330              	.LVL32:
 331              	@ 199 "../../../test/testqueues.c" 1
 332 0096 83F31188 		msr     BASEPRI, r3
 333              	@ 0 "" 2
 334              	.LVL33:
 335              		.thumb
ARM GAS  C:\cygwin\tmp\ccu7kmZb.s 			page 7


 336              	.LBE105:
 337              		.loc 1 200 0
 338 009a F0B2     		uxtb	r0, r6
 339 009c FFF7FEFF 		bl	test_emit_token
 340              	.LVL34:
 341              	.LBE103:
 342              		.loc 1 194 0
 343 00a0 013C     		subs	r4, r4, #1
 344 00a2 EBD1     		bne	.L12
 345              	.LBB106:
 346              		.loc 1 202 0
 347 00a4 2023     		movs	r3, #32
 348              	.LVL35:
 349              	@ 202 "../../../test/testqueues.c" 1
 350 00a6 83F31188 		msr     BASEPRI, r3
 351              	@ 0 "" 2
 352              	.LVL36:
 353              		.thumb
 354              	.LBE106:
 355 00aa FFF7FEFF 		bl	dbg_check_lock
 356              	.LVL37:
 357 00ae 6A69     		ldr	r2, [r5, #20]
 358 00b0 AB69     		ldr	r3, [r5, #24]
 359 00b2 9A42     		cmp	r2, r3
 360 00b4 18BF     		it	ne
 361 00b6 2146     		movne	r1, r4
 362 00b8 00F0F080 		beq	.L31
 363              	.L13:
 364 00bc 0320     		movs	r0, #3
 365 00be FFF7FEFF 		bl	_test_assert
 366              	.LVL38:
 367 00c2 0446     		mov	r4, r0
 368 00c4 0028     		cmp	r0, #0
 369 00c6 40F0DC80 		bne	.L27
 370 00ca FFF7FEFF 		bl	dbg_check_unlock
 371              	.LVL39:
 372              	.LBB107:
 373 00ce 2346     		mov	r3, r4
 374              	.LVL40:
 375              	@ 202 "../../../test/testqueues.c" 1
 376 00d0 83F31188 		msr     BASEPRI, r3
 377              	@ 0 "" 2
 378              	.LVL41:
 379              		.thumb
 380              	.LBE107:
 381              		.loc 1 203 0
 382 00d4 0420     		movs	r0, #4
 383 00d6 7E49     		ldr	r1, .L34+4
 384 00d8 FFF7FEFF 		bl	_test_assert_sequence
 385              	.LVL42:
 386 00dc 0446     		mov	r4, r0
 387 00de 0028     		cmp	r0, #0
 388 00e0 40F0D480 		bne	.L6
 389              	.LBB108:
 390              		.loc 1 204 0
 391 00e4 2023     		movs	r3, #32
 392              	.LVL43:
ARM GAS  C:\cygwin\tmp\ccu7kmZb.s 			page 8


 393              	@ 204 "../../../test/testqueues.c" 1
 394 00e6 83F31188 		msr     BASEPRI, r3
 395              	@ 0 "" 2
 396              	.LVL44:
 397              		.thumb
 398              	.LBE108:
 399 00ea 784D     		ldr	r5, .L34
 400 00ec FFF7FEFF 		bl	dbg_check_lock
 401              	.LVL45:
 402 00f0 2846     		mov	r0, r5
 403 00f2 FFF7FEFF 		bl	chOQGetI
 404              	.LVL46:
 405 00f6 0330     		adds	r0, r0, #3
 406 00f8 14BF     		ite	ne
 407 00fa 0021     		movne	r1, #0
 408 00fc 0121     		moveq	r1, #1
 409 00fe 0520     		movs	r0, #5
 410 0100 FFF7FEFF 		bl	_test_assert
 411              	.LVL47:
 412 0104 0646     		mov	r6, r0
 413              	.LVL48:
 414 0106 0028     		cmp	r0, #0
 415 0108 40F0CD80 		bne	.L28
 416 010c FFF7FEFF 		bl	dbg_check_unlock
 417              	.LVL49:
 418              	.LBB109:
 419 0110 3346     		mov	r3, r6
 420              	.LVL50:
 421              	@ 204 "../../../test/testqueues.c" 1
 422 0112 83F31188 		msr     BASEPRI, r3
 423              	@ 0 "" 2
 424              	.LVL51:
 425              		.thumb
 426              	.LBE109:
 427              		.loc 1 207 0
 428 0116 6F4C     		ldr	r4, .L34+8
 429 0118 6668     		ldr	r6, [r4, #4]
 430 011a 0822     		movs	r2, #8
 431 011c 3146     		mov	r1, r6
 432 011e 2846     		mov	r0, r5
 433 0120 FFF7FEFF 		bl	chOQWriteTimeout
 434              	.LVL52:
 435              		.loc 1 208 0
 436 0124 B0F1040C 		subs	ip, r0, #4
 437 0128 DCF10001 		rsbs	r1, ip, #0
 438 012c 51EB0C01 		adcs	r1, r1, ip
 439 0130 0620     		movs	r0, #6
 440              	.LVL53:
 441 0132 FFF7FEFF 		bl	_test_assert
 442              	.LVL54:
 443 0136 0746     		mov	r7, r0
 444 0138 0028     		cmp	r0, #0
 445 013a 40F0A780 		bne	.L6
 446              	.LBB110:
 447              		.loc 1 209 0
 448 013e 2023     		movs	r3, #32
 449              	.LVL55:
ARM GAS  C:\cygwin\tmp\ccu7kmZb.s 			page 9


 450              	@ 209 "../../../test/testqueues.c" 1
 451 0140 83F31188 		msr     BASEPRI, r3
 452              	@ 0 "" 2
 453              	.LVL56:
 454              		.thumb
 455              	.LBE110:
 456 0144 FFF7FEFF 		bl	dbg_check_lock
 457              	.LVL57:
 458 0148 A968     		ldr	r1, [r5, #8]
 459 014a 0720     		movs	r0, #7
 460 014c D1F10101 		rsbs	r1, r1, #1
 461 0150 38BF     		it	cc
 462 0152 0021     		movcc	r1, #0
 463 0154 FFF7FEFF 		bl	_test_assert
 464              	.LVL58:
 465 0158 8046     		mov	r8, r0
 466 015a 0028     		cmp	r0, #0
 467 015c 40F0A980 		bne	.L32
 468 0160 FFF7FEFF 		bl	dbg_check_unlock
 469              	.LVL59:
 470              	.LBB111:
 471 0164 4346     		mov	r3, r8
 472              	.LVL60:
 473              	@ 209 "../../../test/testqueues.c" 1
 474 0166 83F31188 		msr     BASEPRI, r3
 475              	@ 0 "" 2
 476              	.LVL61:
 477              		.thumb
 478              	.LBE111:
 479              		.loc 1 210 0
 480 016a 5B4B     		ldr	r3, .L34+12
 481              	.LVL62:
 482 016c 2068     		ldr	r0, [r4, #0]
 483 016e 9A69     		ldr	r2, [r3, #24]
 484 0170 5A4B     		ldr	r3, .L34+16
 485 0172 9268     		ldr	r2, [r2, #8]
 486 0174 CDF80080 		str	r8, [sp, #0]
 487 0178 0132     		adds	r2, r2, #1
 488 017a 4FF49871 		mov	r1, #304
 489 017e FFF7FEFF 		bl	chThdCreateStatic
 490              	.LVL63:
 491 0182 574A     		ldr	r2, .L34+20
 492              	.LBB112:
 493              		.loc 1 211 0
 494 0184 2023     		movs	r3, #32
 495              	.LVL64:
 496              	.LBE112:
 497              		.loc 1 210 0
 498 0186 1060     		str	r0, [r2, #0]
 499              	.LBB113:
 500              		.loc 1 211 0
 501              	@ 211 "../../../test/testqueues.c" 1
 502 0188 83F31188 		msr     BASEPRI, r3
 503              	@ 0 "" 2
 504              	.LVL65:
 505              		.thumb
 506              	.LBE113:
ARM GAS  C:\cygwin\tmp\ccu7kmZb.s 			page 10


 507 018c FFF7FEFF 		bl	dbg_check_lock
 508              	.LVL66:
 509 0190 2969     		ldr	r1, [r5, #16]
 510 0192 EA68     		ldr	r2, [r5, #12]
 511 0194 AB68     		ldr	r3, [r5, #8]
 512 0196 8A1A     		subs	r2, r1, r2
 513 0198 D11A     		subs	r1, r2, r3
 514 019a 0820     		movs	r0, #8
 515 019c B1F1040E 		subs	lr, r1, #4
 516 01a0 DEF10001 		rsbs	r1, lr, #0
 517 01a4 51EB0E01 		adcs	r1, r1, lr
 518 01a8 FFF7FEFF 		bl	_test_assert
 519              	.LVL67:
 520 01ac 0446     		mov	r4, r0
 521 01ae 0028     		cmp	r0, #0
 522 01b0 40F08580 		bne	.L33
 523 01b4 FFF7FEFF 		bl	dbg_check_unlock
 524              	.LVL68:
 525              	.LBB114:
 526 01b8 2346     		mov	r3, r4
 527              	.LVL69:
 528              	@ 211 "../../../test/testqueues.c" 1
 529 01ba 83F31188 		msr     BASEPRI, r3
 530              	@ 0 "" 2
 531              	.LVL70:
 532              		.thumb
 533              	.LBE114:
 534              		.loc 1 212 0
 535 01be FFF7FEFF 		bl	test_wait_threads
 536              	.LVL71:
 537              	.LBB115:
 538              		.loc 1 215 0
 539 01c2 2023     		movs	r3, #32
 540              	.LVL72:
 541              	@ 215 "../../../test/testqueues.c" 1
 542 01c4 83F31188 		msr     BASEPRI, r3
 543              	@ 0 "" 2
 544              	.LVL73:
 545              		.thumb
 546              	.LBE115:
 547 01c8 FFF7FEFF 		bl	dbg_check_lock
 548              	.LVL74:
 549              		.loc 1 216 0
 550 01cc 2846     		mov	r0, r5
 551 01ce FFF7FEFF 		bl	chOQResetI
 552              	.LVL75:
 553              		.loc 1 217 0
 554 01d2 FFF7FEFF 		bl	dbg_check_unlock
 555              	.LVL76:
 556              	.LBB116:
 557 01d6 2346     		mov	r3, r4
 558              	.LVL77:
 559              	@ 217 "../../../test/testqueues.c" 1
 560 01d8 83F31188 		msr     BASEPRI, r3
 561              	@ 0 "" 2
 562              	.LVL78:
 563              		.thumb
ARM GAS  C:\cygwin\tmp\ccu7kmZb.s 			page 11


 564              	.LBE116:
 565              	.LBB117:
 566              		.loc 1 218 0
 567 01dc 2023     		movs	r3, #32
 568              	.LVL79:
 569              	@ 218 "../../../test/testqueues.c" 1
 570 01de 83F31188 		msr     BASEPRI, r3
 571              	@ 0 "" 2
 572              	.LVL80:
 573              		.thumb
 574              	.LBE117:
 575 01e2 FFF7FEFF 		bl	dbg_check_lock
 576              	.LVL81:
 577 01e6 2969     		ldr	r1, [r5, #16]
 578 01e8 EA68     		ldr	r2, [r5, #12]
 579 01ea AB68     		ldr	r3, [r5, #8]
 580 01ec 891A     		subs	r1, r1, r2
 581 01ee 0920     		movs	r0, #9
 582 01f0 CF1A     		subs	r7, r1, r3
 583 01f2 7942     		rsbs	r1, r7, #0
 584 01f4 7941     		adcs	r1, r1, r7
 585 01f6 FFF7FEFF 		bl	_test_assert
 586              	.LVL82:
 587 01fa 0746     		mov	r7, r0
 588 01fc 0028     		cmp	r0, #0
 589 01fe 52D1     		bne	.L28
 590 0200 FFF7FEFF 		bl	dbg_check_unlock
 591              	.LVL83:
 592              	.LBB118:
 593 0204 3B46     		mov	r3, r7
 594              	.LVL84:
 595              	@ 218 "../../../test/testqueues.c" 1
 596 0206 83F31188 		msr     BASEPRI, r3
 597              	@ 0 "" 2
 598              	.LVL85:
 599              		.thumb
 600              	.LBE118:
 601              		.loc 1 221 0
 602 020a 0222     		movs	r2, #2
 603 020c 3146     		mov	r1, r6
 604 020e 2846     		mov	r0, r5
 605 0210 FFF7FEFF 		bl	chOQWriteTimeout
 606              	.LVL86:
 607              		.loc 1 222 0
 608 0214 0238     		subs	r0, r0, #2
 609              	.LVL87:
 610 0216 4142     		rsbs	r1, r0, #0
 611 0218 4141     		adcs	r1, r1, r0
 612 021a 0A20     		movs	r0, #10
 613              	.LVL88:
 614 021c FFF7FEFF 		bl	_test_assert
 615              	.LVL89:
 616 0220 0346     		mov	r3, r0
 617 0222 0028     		cmp	r0, #0
 618 0224 32D1     		bne	.L6
 619              		.loc 1 223 0
 620 0226 3146     		mov	r1, r6
ARM GAS  C:\cygwin\tmp\ccu7kmZb.s 			page 12


 621 0228 0222     		movs	r2, #2
 622 022a 2846     		mov	r0, r5
 623 022c FFF7FEFF 		bl	chOQWriteTimeout
 624              	.LVL90:
 625              		.loc 1 224 0
 626 0230 821E     		subs	r2, r0, #2
 627 0232 5142     		rsbs	r1, r2, #0
 628 0234 5141     		adcs	r1, r1, r2
 629 0236 0B20     		movs	r0, #11
 630              	.LVL91:
 631 0238 FFF7FEFF 		bl	_test_assert
 632              	.LVL92:
 633 023c 30BB     		cbnz	r0, .L6
 634              	.LBB119:
 635              		.loc 1 225 0
 636 023e 2023     		movs	r3, #32
 637              	.LVL93:
 638              	@ 225 "../../../test/testqueues.c" 1
 639 0240 83F31188 		msr     BASEPRI, r3
 640              	@ 0 "" 2
 641              	.LVL94:
 642              		.thumb
 643              	.LBE119:
 644 0244 FFF7FEFF 		bl	dbg_check_lock
 645              	.LVL95:
 646 0248 A968     		ldr	r1, [r5, #8]
 647 024a 0C20     		movs	r0, #12
 648 024c D1F10101 		rsbs	r1, r1, #1
 649 0250 38BF     		it	cc
 650 0252 0021     		movcc	r1, #0
 651 0254 FFF7FEFF 		bl	_test_assert
 652              	.LVL96:
 653 0258 98B9     		cbnz	r0, .L27
 654 025a FFF7FEFF 		bl	dbg_check_unlock
 655              	.LVL97:
 656              	.LBB120:
 657 025e 0023     		movs	r3, #0
 658              	.LVL98:
 659              	@ 225 "../../../test/testqueues.c" 1
 660 0260 83F31188 		msr     BASEPRI, r3
 661              	@ 0 "" 2
 662              	.LVL99:
 663              		.thumb
 664              	.LBE120:
 665              		.loc 1 228 0
 666 0264 0A22     		movs	r2, #10
 667 0266 1946     		mov	r1, r3
 668 0268 1848     		ldr	r0, .L34
 669 026a FFF7FEFF 		bl	chOQPutTimeout
 670              	.LVL100:
 671 026e B0F1FF33 		subs	r3, r0, #-1
 672 0272 5942     		rsbs	r1, r3, #0
 673 0274 5941     		adcs	r1, r1, r3
 674 0276 0D20     		movs	r0, #13
 675              	.LBE99:
 676              	.LBE98:
 677              		.loc 1 229 0
ARM GAS  C:\cygwin\tmp\ccu7kmZb.s 			page 13


 678 0278 02B0     		add	sp, sp, #8
 679 027a BDE8F041 		pop	{r4, r5, r6, r7, r8, lr}
 680              	.LBB127:
 681              	.LBB125:
 682              		.loc 1 228 0
 683 027e FFF7FEBF 		b	_test_assert
 684              	.LVL101:
 685              	.L27:
 686              		.loc 1 225 0
 687 0282 FFF7FEFF 		bl	dbg_check_unlock
 688              	.LVL102:
 689              	.LBB121:
 690 0286 0023     		movs	r3, #0
 691              	.LVL103:
 692              	@ 225 "../../../test/testqueues.c" 1
 693 0288 83F31188 		msr     BASEPRI, r3
 694              	@ 0 "" 2
 695              	.LVL104:
 696              		.thumb
 697              	.L6:
 698              	.LBE121:
 699              	.LBE125:
 700              	.LBE127:
 701              		.loc 1 229 0
 702 028c 02B0     		add	sp, sp, #8
 703 028e BDE8F081 		pop	{r4, r5, r6, r7, r8, pc}
 704              	.LVL105:
 705              	.L30:
 706              		.loc 1 186 0 discriminator 1
 707 0292 9968     		ldr	r1, [r3, #8]
 708 0294 0031     		adds	r1, r1, #0
 709 0296 18BF     		it	ne
 710 0298 0121     		movne	r1, #1
 711 029a C0E6     		b	.L7
 712              	.LVL106:
 713              	.L31:
 714              	.LBB128:
 715              	.LBB126:
 716              		.loc 1 202 0
 717 029c A968     		ldr	r1, [r5, #8]
 718 029e 0031     		adds	r1, r1, #0
 719 02a0 18BF     		it	ne
 720 02a2 0121     		movne	r1, #1
 721 02a4 0AE7     		b	.L13
 722              	.LVL107:
 723              	.L28:
 724              		.loc 1 218 0
 725 02a6 FFF7FEFF 		bl	dbg_check_unlock
 726              	.LVL108:
 727              	.LBB122:
 728 02aa 2346     		mov	r3, r4
 729              	@ 218 "../../../test/testqueues.c" 1
 730 02ac 83F31188 		msr     BASEPRI, r3
 731              	@ 0 "" 2
 732              	.LVL109:
 733              		.thumb
 734 02b0 ECE7     		b	.L6
ARM GAS  C:\cygwin\tmp\ccu7kmZb.s 			page 14


 735              	.LVL110:
 736              	.L32:
 737              	.LBE122:
 738              		.loc 1 209 0
 739 02b2 FFF7FEFF 		bl	dbg_check_unlock
 740              	.LVL111:
 741              	.LBB123:
 742 02b6 3B46     		mov	r3, r7
 743              	@ 209 "../../../test/testqueues.c" 1
 744 02b8 83F31188 		msr     BASEPRI, r3
 745              	@ 0 "" 2
 746              	.LVL112:
 747              		.thumb
 748 02bc E6E7     		b	.L6
 749              	.LVL113:
 750              	.L33:
 751              	.LBE123:
 752              		.loc 1 211 0
 753 02be FFF7FEFF 		bl	dbg_check_unlock
 754              	.LVL114:
 755              	.LBB124:
 756 02c2 4346     		mov	r3, r8
 757              	@ 211 "../../../test/testqueues.c" 1
 758 02c4 83F31188 		msr     BASEPRI, r3
 759              	@ 0 "" 2
 760              	.LVL115:
 761              		.thumb
 762 02c8 E0E7     		b	.L6
 763              	.L35:
 764 02ca 00BF     		.align	2
 765              	.L34:
 766 02cc 00000000 		.word	.LANCHOR0
 767 02d0 00000000 		.word	.LC0
 768 02d4 00000000 		.word	wa
 769 02d8 00000000 		.word	rlist
 770 02dc 00000000 		.word	thread2
 771 02e0 00000000 		.word	threads
 772              	.LBE124:
 773              	.LBE126:
 774              	.LBE128:
 775              		.cfi_endproc
 776              	.LFE13:
 777              		.size	queues2_execute, .-queues2_execute
 778 02e4 AFF30080 		.section	.text.queues1_execute,"ax",%progbits
 778      AFF30080 
 778      AFF30080 
 779              		.align	2
 780              		.p2align 4,,15
 781              		.thumb
 782              		.thumb_func
 783              		.type	queues1_execute, %function
 784              	queues1_execute:
 785              	.LFB10:
 786              		.loc 1 94 0
 787              		.cfi_startproc
 788              		@ args = 0, pretend = 0, frame = 0
 789              		@ frame_needed = 0, uses_anonymous_args = 0
ARM GAS  C:\cygwin\tmp\ccu7kmZb.s 			page 15


 790 0000 F0B5     		push	{r4, r5, r6, r7, lr}
 791              	.LCFI8:
 792              		.cfi_def_cfa_offset 20
 793              		.cfi_offset 4, -20
 794              		.cfi_offset 5, -16
 795              		.cfi_offset 6, -12
 796              		.cfi_offset 7, -8
 797              		.cfi_offset 14, -4
 798              	.LBB165:
 799              		.loc 1 99 0
 800 0002 2023     		movs	r3, #32
 801              	.LVL116:
 802              	.LBE165:
 803              		.loc 1 94 0
 804 0004 83B0     		sub	sp, sp, #12
 805              	.LCFI9:
 806              		.cfi_def_cfa_offset 32
 807              	.LBB166:
 808              		.loc 1 99 0
 809              	@ 99 "../../../test/testqueues.c" 1
 810 0006 83F31188 		msr     BASEPRI, r3
 811              	@ 0 "" 2
 812              	.LVL117:
 813              		.thumb
 814              	.LBE166:
 815 000a B74C     		ldr	r4, .L55
 816 000c FFF7FEFF 		bl	dbg_check_lock
 817              	.LVL118:
 818 0010 A168     		ldr	r1, [r4, #8]
 819 0012 0120     		movs	r0, #1
 820 0014 D1F10101 		rsbs	r1, r1, #1
 821 0018 38BF     		it	cc
 822 001a 0021     		movcc	r1, #0
 823 001c FFF7FEFF 		bl	_test_assert
 824              	.LVL119:
 825 0020 0546     		mov	r5, r0
 826 0022 0028     		cmp	r0, #0
 827 0024 40F05881 		bne	.L53
 828              	.LBB167:
 829              	.LBB168:
 830 0028 FFF7FEFF 		bl	dbg_check_unlock
 831              	.LVL120:
 832              	.LBB169:
 833 002c 2B46     		mov	r3, r5
 834              	.LVL121:
 835              	@ 99 "../../../test/testqueues.c" 1
 836 002e 83F31188 		msr     BASEPRI, r3
 837              	@ 0 "" 2
 838              	.LVL122:
 839              		.thumb
 840              	.LBE169:
 841              	.LBB170:
 842              		.loc 1 102 0
 843 0032 2023     		movs	r3, #32
 844              	.LVL123:
 845              	@ 102 "../../../test/testqueues.c" 1
 846 0034 83F31188 		msr     BASEPRI, r3
ARM GAS  C:\cygwin\tmp\ccu7kmZb.s 			page 16


 847              	@ 0 "" 2
 848              	.LVL124:
 849              		.thumb
 850              	.LBE170:
 851 0038 FFF7FEFF 		bl	dbg_check_lock
 852              	.LVL125:
 853              		.loc 1 104 0
 854 003c 4121     		movs	r1, #65
 855 003e 2046     		mov	r0, r4
 856 0040 FFF7FEFF 		bl	chIQPutI
 857              	.LVL126:
 858 0044 4221     		movs	r1, #66
 859 0046 2046     		mov	r0, r4
 860 0048 FFF7FEFF 		bl	chIQPutI
 861              	.LVL127:
 862 004c 4321     		movs	r1, #67
 863 004e 2046     		mov	r0, r4
 864 0050 FFF7FEFF 		bl	chIQPutI
 865              	.LVL128:
 866 0054 4421     		movs	r1, #68
 867 0056 2046     		mov	r0, r4
 868 0058 FFF7FEFF 		bl	chIQPutI
 869              	.LVL129:
 870              		.loc 1 105 0
 871 005c FFF7FEFF 		bl	dbg_check_unlock
 872              	.LVL130:
 873              	.LBB171:
 874 0060 2B46     		mov	r3, r5
 875              	.LVL131:
 876              	@ 105 "../../../test/testqueues.c" 1
 877 0062 83F31188 		msr     BASEPRI, r3
 878              	@ 0 "" 2
 879              	.LVL132:
 880              		.thumb
 881              	.LBE171:
 882              	.LBB172:
 883              		.loc 1 106 0
 884 0066 2023     		movs	r3, #32
 885              	.LVL133:
 886              	@ 106 "../../../test/testqueues.c" 1
 887 0068 83F31188 		msr     BASEPRI, r3
 888              	@ 0 "" 2
 889              	.LVL134:
 890              		.thumb
 891              	.LBE172:
 892 006c FFF7FEFF 		bl	dbg_check_lock
 893              	.LVL135:
 894 0070 6269     		ldr	r2, [r4, #20]
 895 0072 A369     		ldr	r3, [r4, #24]
 896 0074 9A42     		cmp	r2, r3
 897 0076 18BF     		it	ne
 898 0078 2946     		movne	r1, r5
 899 007a 00F04781 		beq	.L54
 900              	.L39:
 901 007e 0220     		movs	r0, #2
 902 0080 FFF7FEFF 		bl	_test_assert
 903              	.LVL136:
ARM GAS  C:\cygwin\tmp\ccu7kmZb.s 			page 17


 904 0084 0446     		mov	r4, r0
 905 0086 0028     		cmp	r0, #0
 906 0088 40F02681 		bne	.L53
 907 008c FFF7FEFF 		bl	dbg_check_unlock
 908              	.LVL137:
 909              	.LBB173:
 910 0090 2346     		mov	r3, r4
 911              	.LVL138:
 912              	@ 106 "../../../test/testqueues.c" 1
 913 0092 83F31188 		msr     BASEPRI, r3
 914              	@ 0 "" 2
 915              	.LVL139:
 916              		.thumb
 917              	.LBE173:
 918              	.LBB174:
 919              		.loc 1 107 0
 920 0096 2023     		movs	r3, #32
 921              	.LVL140:
 922              	@ 107 "../../../test/testqueues.c" 1
 923 0098 83F31188 		msr     BASEPRI, r3
 924              	@ 0 "" 2
 925              	.LVL141:
 926              		.thumb
 927              	.LBE174:
 928 009c FFF7FEFF 		bl	dbg_check_lock
 929              	.LVL142:
 930 00a0 2146     		mov	r1, r4
 931 00a2 9148     		ldr	r0, .L55
 932 00a4 FFF7FEFF 		bl	chIQPutI
 933              	.LVL143:
 934 00a8 0430     		adds	r0, r0, #4
 935 00aa 14BF     		ite	ne
 936 00ac 0021     		movne	r1, #0
 937 00ae 0121     		moveq	r1, #1
 938 00b0 0320     		movs	r0, #3
 939 00b2 FFF7FEFF 		bl	_test_assert
 940              	.LVL144:
 941 00b6 0546     		mov	r5, r0
 942 00b8 0028     		cmp	r0, #0
 943 00ba 40F02181 		bne	.L52
 944 00be FFF7FEFF 		bl	dbg_check_unlock
 945              	.LVL145:
 946              	.LBB175:
 947 00c2 2B46     		mov	r3, r5
 948              	.LVL146:
 949              	@ 107 "../../../test/testqueues.c" 1
 950 00c4 83F31188 		msr     BASEPRI, r3
 951              	@ 0 "" 2
 952              	.LVL147:
 953              		.thumb
 954 00c8 0424     		movs	r4, #4
 955              	.LVL148:
 956              	.L42:
 957              	.LBE175:
 958              		.loc 1 111 0
 959 00ca 874D     		ldr	r5, .L55
 960 00cc 4FF0FF31 		mov	r1, #-1
ARM GAS  C:\cygwin\tmp\ccu7kmZb.s 			page 18


 961 00d0 2846     		mov	r0, r5
 962 00d2 FFF7FEFF 		bl	chIQGetTimeout
 963              	.LVL149:
 964 00d6 C0B2     		uxtb	r0, r0
 965 00d8 FFF7FEFF 		bl	test_emit_token
 966              	.LVL150:
 967              		.loc 1 110 0
 968 00dc 013C     		subs	r4, r4, #1
 969 00de F4D1     		bne	.L42
 970              	.LBB176:
 971              		.loc 1 112 0
 972 00e0 2023     		movs	r3, #32
 973              	.LVL151:
 974              	@ 112 "../../../test/testqueues.c" 1
 975 00e2 83F31188 		msr     BASEPRI, r3
 976              	@ 0 "" 2
 977              	.LVL152:
 978              		.thumb
 979              	.LBE176:
 980 00e6 FFF7FEFF 		bl	dbg_check_lock
 981              	.LVL153:
 982 00ea A968     		ldr	r1, [r5, #8]
 983 00ec 0420     		movs	r0, #4
 984 00ee D1F10101 		rsbs	r1, r1, #1
 985 00f2 38BF     		it	cc
 986 00f4 0021     		movcc	r1, #0
 987 00f6 FFF7FEFF 		bl	_test_assert
 988              	.LVL154:
 989 00fa 0028     		cmp	r0, #0
 990 00fc 40F00081 		bne	.L52
 991 0100 FFF7FEFF 		bl	dbg_check_unlock
 992              	.LVL155:
 993              	.LBB177:
 994 0104 2346     		mov	r3, r4
 995              	.LVL156:
 996              	@ 112 "../../../test/testqueues.c" 1
 997 0106 83F31188 		msr     BASEPRI, r3
 998              	@ 0 "" 2
 999              	.LVL157:
 1000              		.thumb
 1001              	.LBE177:
 1002              		.loc 1 113 0
 1003 010a 0520     		movs	r0, #5
 1004 010c 7749     		ldr	r1, .L55+4
 1005 010e FFF7FEFF 		bl	_test_assert_sequence
 1006              	.LVL158:
 1007 0112 0028     		cmp	r0, #0
 1008 0114 40F0E580 		bne	.L36
 1009              	.LBB178:
 1010              		.loc 1 116 0
 1011 0118 2023     		movs	r3, #32
 1012              	.LVL159:
 1013              	@ 116 "../../../test/testqueues.c" 1
 1014 011a 83F31188 		msr     BASEPRI, r3
 1015              	@ 0 "" 2
 1016              	.LVL160:
 1017              		.thumb
ARM GAS  C:\cygwin\tmp\ccu7kmZb.s 			page 19


 1018              	.LBE178:
 1019 011e FFF7FEFF 		bl	dbg_check_lock
 1020              	.LVL161:
 1021              		.loc 1 118 0
 1022 0122 4121     		movs	r1, #65
 1023 0124 2846     		mov	r0, r5
 1024 0126 FFF7FEFF 		bl	chIQPutI
 1025              	.LVL162:
 1026 012a 4221     		movs	r1, #66
 1027 012c 2846     		mov	r0, r5
 1028 012e FFF7FEFF 		bl	chIQPutI
 1029              	.LVL163:
 1030 0132 4321     		movs	r1, #67
 1031 0134 2846     		mov	r0, r5
 1032 0136 FFF7FEFF 		bl	chIQPutI
 1033              	.LVL164:
 1034 013a 4421     		movs	r1, #68
 1035 013c 2846     		mov	r0, r5
 1036 013e FFF7FEFF 		bl	chIQPutI
 1037              	.LVL165:
 1038              		.loc 1 119 0
 1039 0142 FFF7FEFF 		bl	dbg_check_unlock
 1040              	.LVL166:
 1041              	.LBB179:
 1042 0146 2346     		mov	r3, r4
 1043              	.LVL167:
 1044              	@ 119 "../../../test/testqueues.c" 1
 1045 0148 83F31188 		msr     BASEPRI, r3
 1046              	@ 0 "" 2
 1047              	.LVL168:
 1048              		.thumb
 1049              	.LBE179:
 1050              		.loc 1 122 0
 1051 014c 684F     		ldr	r7, .L55+8
 1052 014e 7E68     		ldr	r6, [r7, #4]
 1053 0150 0822     		movs	r2, #8
 1054 0152 3146     		mov	r1, r6
 1055 0154 2846     		mov	r0, r5
 1056 0156 FFF7FEFF 		bl	chIQReadTimeout
 1057              	.LVL169:
 1058              		.loc 1 123 0
 1059 015a B0F1040E 		subs	lr, r0, #4
 1060 015e DEF10001 		rsbs	r1, lr, #0
 1061 0162 51EB0E01 		adcs	r1, r1, lr
 1062 0166 0620     		movs	r0, #6
 1063              	.LVL170:
 1064 0168 FFF7FEFF 		bl	_test_assert
 1065              	.LVL171:
 1066 016c 0028     		cmp	r0, #0
 1067 016e 40F0B880 		bne	.L36
 1068              	.LBB180:
 1069              		.loc 1 124 0
 1070 0172 2023     		movs	r3, #32
 1071              	.LVL172:
 1072              	@ 124 "../../../test/testqueues.c" 1
 1073 0174 83F31188 		msr     BASEPRI, r3
 1074              	@ 0 "" 2
ARM GAS  C:\cygwin\tmp\ccu7kmZb.s 			page 20


 1075              	.LVL173:
 1076              		.thumb
 1077              	.LBE180:
 1078 0178 FFF7FEFF 		bl	dbg_check_lock
 1079              	.LVL174:
 1080 017c A968     		ldr	r1, [r5, #8]
 1081 017e 0720     		movs	r0, #7
 1082 0180 D1F10101 		rsbs	r1, r1, #1
 1083 0184 38BF     		it	cc
 1084 0186 0021     		movcc	r1, #0
 1085 0188 FFF7FEFF 		bl	_test_assert
 1086              	.LVL175:
 1087 018c 0028     		cmp	r0, #0
 1088 018e 40F0B780 		bne	.L52
 1089 0192 FFF7FEFF 		bl	dbg_check_unlock
 1090              	.LVL176:
 1091              	.LBB181:
 1092 0196 2346     		mov	r3, r4
 1093              	.LVL177:
 1094              	@ 124 "../../../test/testqueues.c" 1
 1095 0198 83F31188 		msr     BASEPRI, r3
 1096              	@ 0 "" 2
 1097              	.LVL178:
 1098              		.thumb
 1099              	.LBE181:
 1100              	.LBB182:
 1101              		.loc 1 127 0
 1102 019c 2023     		movs	r3, #32
 1103              	.LVL179:
 1104              	@ 127 "../../../test/testqueues.c" 1
 1105 019e 83F31188 		msr     BASEPRI, r3
 1106              	@ 0 "" 2
 1107              	.LVL180:
 1108              		.thumb
 1109              	.LBE182:
 1110 01a2 FFF7FEFF 		bl	dbg_check_lock
 1111              	.LVL181:
 1112              		.loc 1 129 0
 1113 01a6 4121     		movs	r1, #65
 1114 01a8 2846     		mov	r0, r5
 1115 01aa FFF7FEFF 		bl	chIQPutI
 1116              	.LVL182:
 1117 01ae 4221     		movs	r1, #66
 1118 01b0 2846     		mov	r0, r5
 1119 01b2 FFF7FEFF 		bl	chIQPutI
 1120              	.LVL183:
 1121 01b6 4321     		movs	r1, #67
 1122 01b8 2846     		mov	r0, r5
 1123 01ba FFF7FEFF 		bl	chIQPutI
 1124              	.LVL184:
 1125 01be 4421     		movs	r1, #68
 1126 01c0 2846     		mov	r0, r5
 1127 01c2 FFF7FEFF 		bl	chIQPutI
 1128              	.LVL185:
 1129              		.loc 1 130 0
 1130 01c6 FFF7FEFF 		bl	dbg_check_unlock
 1131              	.LVL186:
ARM GAS  C:\cygwin\tmp\ccu7kmZb.s 			page 21


 1132              	.LBB183:
 1133 01ca 2346     		mov	r3, r4
 1134              	.LVL187:
 1135              	@ 130 "../../../test/testqueues.c" 1
 1136 01cc 83F31188 		msr     BASEPRI, r3
 1137              	@ 0 "" 2
 1138              	.LVL188:
 1139              		.thumb
 1140              	.LBE183:
 1141              		.loc 1 133 0
 1142 01d0 0222     		movs	r2, #2
 1143 01d2 3146     		mov	r1, r6
 1144 01d4 2846     		mov	r0, r5
 1145 01d6 FFF7FEFF 		bl	chIQReadTimeout
 1146              	.LVL189:
 1147              		.loc 1 134 0
 1148 01da 0238     		subs	r0, r0, #2
 1149              	.LVL190:
 1150 01dc 4142     		rsbs	r1, r0, #0
 1151 01de 4141     		adcs	r1, r1, r0
 1152 01e0 0820     		movs	r0, #8
 1153              	.LVL191:
 1154 01e2 FFF7FEFF 		bl	_test_assert
 1155              	.LVL192:
 1156 01e6 0028     		cmp	r0, #0
 1157 01e8 7BD1     		bne	.L36
 1158              		.loc 1 135 0
 1159 01ea 3146     		mov	r1, r6
 1160 01ec 0222     		movs	r2, #2
 1161 01ee 2846     		mov	r0, r5
 1162 01f0 2346     		mov	r3, r4
 1163 01f2 FFF7FEFF 		bl	chIQReadTimeout
 1164              	.LVL193:
 1165              		.loc 1 136 0
 1166 01f6 821E     		subs	r2, r0, #2
 1167 01f8 5142     		rsbs	r1, r2, #0
 1168 01fa 5141     		adcs	r1, r1, r2
 1169 01fc 0920     		movs	r0, #9
 1170              	.LVL194:
 1171 01fe FFF7FEFF 		bl	_test_assert
 1172              	.LVL195:
 1173 0202 0028     		cmp	r0, #0
 1174 0204 6DD1     		bne	.L36
 1175              	.LBB184:
 1176              		.loc 1 137 0
 1177 0206 2023     		movs	r3, #32
 1178              	.LVL196:
 1179              	@ 137 "../../../test/testqueues.c" 1
 1180 0208 83F31188 		msr     BASEPRI, r3
 1181              	@ 0 "" 2
 1182              	.LVL197:
 1183              		.thumb
 1184              	.LBE184:
 1185 020c FFF7FEFF 		bl	dbg_check_lock
 1186              	.LVL198:
 1187 0210 A968     		ldr	r1, [r5, #8]
 1188 0212 0A20     		movs	r0, #10
ARM GAS  C:\cygwin\tmp\ccu7kmZb.s 			page 22


 1189 0214 D1F10101 		rsbs	r1, r1, #1
 1190 0218 38BF     		it	cc
 1191 021a 0021     		movcc	r1, #0
 1192 021c FFF7FEFF 		bl	_test_assert
 1193              	.LVL199:
 1194 0220 0028     		cmp	r0, #0
 1195 0222 6DD1     		bne	.L52
 1196 0224 FFF7FEFF 		bl	dbg_check_unlock
 1197              	.LVL200:
 1198              	.LBB185:
 1199 0228 2346     		mov	r3, r4
 1200              	.LVL201:
 1201              	@ 137 "../../../test/testqueues.c" 1
 1202 022a 83F31188 		msr     BASEPRI, r3
 1203              	@ 0 "" 2
 1204              	.LVL202:
 1205              		.thumb
 1206              	.LBE185:
 1207              	.LBB186:
 1208              		.loc 1 140 0
 1209 022e 2023     		movs	r3, #32
 1210              	.LVL203:
 1211              	@ 140 "../../../test/testqueues.c" 1
 1212 0230 83F31188 		msr     BASEPRI, r3
 1213              	@ 0 "" 2
 1214              	.LVL204:
 1215              		.thumb
 1216              	.LBE186:
 1217 0234 FFF7FEFF 		bl	dbg_check_lock
 1218              	.LVL205:
 1219              		.loc 1 141 0
 1220 0238 2146     		mov	r1, r4
 1221 023a 2846     		mov	r0, r5
 1222 023c FFF7FEFF 		bl	chIQPutI
 1223              	.LVL206:
 1224              		.loc 1 142 0
 1225 0240 2846     		mov	r0, r5
 1226 0242 FFF7FEFF 		bl	chIQResetI
 1227              	.LVL207:
 1228              		.loc 1 143 0
 1229 0246 FFF7FEFF 		bl	dbg_check_unlock
 1230              	.LVL208:
 1231              	.LBB187:
 1232 024a 2346     		mov	r3, r4
 1233              	.LVL209:
 1234              	@ 143 "../../../test/testqueues.c" 1
 1235 024c 83F31188 		msr     BASEPRI, r3
 1236              	@ 0 "" 2
 1237              	.LVL210:
 1238              		.thumb
 1239              	.LBE187:
 1240              	.LBB188:
 1241              		.loc 1 144 0
 1242 0250 2023     		movs	r3, #32
 1243              	.LVL211:
 1244              	@ 144 "../../../test/testqueues.c" 1
 1245 0252 83F31188 		msr     BASEPRI, r3
ARM GAS  C:\cygwin\tmp\ccu7kmZb.s 			page 23


 1246              	@ 0 "" 2
 1247              	.LVL212:
 1248              		.thumb
 1249              	.LBE188:
 1250 0256 FFF7FEFF 		bl	dbg_check_lock
 1251              	.LVL213:
 1252 025a A968     		ldr	r1, [r5, #8]
 1253 025c 0B20     		movs	r0, #11
 1254 025e D1F10101 		rsbs	r1, r1, #1
 1255 0262 38BF     		it	cc
 1256 0264 0021     		movcc	r1, #0
 1257 0266 FFF7FEFF 		bl	_test_assert
 1258              	.LVL214:
 1259 026a 0028     		cmp	r0, #0
 1260 026c 48D1     		bne	.L52
 1261 026e FFF7FEFF 		bl	dbg_check_unlock
 1262              	.LVL215:
 1263              	.LBB189:
 1264 0272 2346     		mov	r3, r4
 1265              	.LVL216:
 1266              	@ 144 "../../../test/testqueues.c" 1
 1267 0274 83F31188 		msr     BASEPRI, r3
 1268              	@ 0 "" 2
 1269              	.LVL217:
 1270              		.thumb
 1271              	.LBE189:
 1272              		.loc 1 145 0
 1273 0278 1E4A     		ldr	r2, .L55+12
 1274 027a 3868     		ldr	r0, [r7, #0]
 1275 027c 9269     		ldr	r2, [r2, #24]
 1276 027e 1E4B     		ldr	r3, .L55+16
 1277              	.LVL218:
 1278 0280 9268     		ldr	r2, [r2, #8]
 1279 0282 0094     		str	r4, [sp, #0]
 1280              	.LVL219:
 1281 0284 0132     		adds	r2, r2, #1
 1282 0286 4FF49871 		mov	r1, #304
 1283 028a FFF7FEFF 		bl	chThdCreateStatic
 1284              	.LVL220:
 1285 028e 1B4A     		ldr	r2, .L55+20
 1286              	.LBB190:
 1287              		.loc 1 146 0
 1288 0290 2023     		movs	r3, #32
 1289              	.LVL221:
 1290              	.LBE190:
 1291              		.loc 1 145 0
 1292 0292 1060     		str	r0, [r2, #0]
 1293              	.LBB191:
 1294              		.loc 1 146 0
 1295              	@ 146 "../../../test/testqueues.c" 1
 1296 0294 83F31188 		msr     BASEPRI, r3
 1297              	@ 0 "" 2
 1298              	.LVL222:
 1299              		.thumb
 1300              	.LBE191:
 1301 0298 FFF7FEFF 		bl	dbg_check_lock
 1302              	.LVL223:
ARM GAS  C:\cygwin\tmp\ccu7kmZb.s 			page 24


 1303 029c A968     		ldr	r1, [r5, #8]
 1304 029e 0C20     		movs	r0, #12
 1305 02a0 D1F10101 		rsbs	r1, r1, #1
 1306 02a4 38BF     		it	cc
 1307 02a6 0021     		movcc	r1, #0
 1308 02a8 FFF7FEFF 		bl	_test_assert
 1309              	.LVL224:
 1310 02ac A0B9     		cbnz	r0, .L53
 1311 02ae FFF7FEFF 		bl	dbg_check_unlock
 1312              	.LVL225:
 1313              	.LBB192:
 1314 02b2 0023     		movs	r3, #0
 1315              	.LVL226:
 1316              	@ 146 "../../../test/testqueues.c" 1
 1317 02b4 83F31188 		msr     BASEPRI, r3
 1318              	@ 0 "" 2
 1319              	.LVL227:
 1320              		.thumb
 1321              	.LBE192:
 1322              		.loc 1 147 0
 1323 02b8 FFF7FEFF 		bl	test_wait_threads
 1324              	.LVL228:
 1325              		.loc 1 150 0
 1326 02bc 0A21     		movs	r1, #10
 1327 02be 0A48     		ldr	r0, .L55
 1328 02c0 FFF7FEFF 		bl	chIQGetTimeout
 1329              	.LVL229:
 1330 02c4 B0F1FF33 		subs	r3, r0, #-1
 1331 02c8 5942     		rsbs	r1, r3, #0
 1332 02ca 5941     		adcs	r1, r1, r3
 1333 02cc 0D20     		movs	r0, #13
 1334              	.LBE168:
 1335              	.LBE167:
 1336              		.loc 1 151 0
 1337 02ce 03B0     		add	sp, sp, #12
 1338 02d0 BDE8F040 		pop	{r4, r5, r6, r7, lr}
 1339              	.LBB197:
 1340              	.LBB195:
 1341              		.loc 1 150 0
 1342 02d4 FFF7FEBF 		b	_test_assert
 1343              	.LVL230:
 1344              	.L53:
 1345              		.loc 1 146 0
 1346 02d8 FFF7FEFF 		bl	dbg_check_unlock
 1347              	.LVL231:
 1348              	.LBB193:
 1349 02dc 0023     		movs	r3, #0
 1350              	.LVL232:
 1351              	@ 146 "../../../test/testqueues.c" 1
 1352 02de 83F31188 		msr     BASEPRI, r3
 1353              	@ 0 "" 2
 1354              	.LVL233:
 1355              		.thumb
 1356              	.L36:
 1357              	.LBE193:
 1358              	.LBE195:
 1359              	.LBE197:
ARM GAS  C:\cygwin\tmp\ccu7kmZb.s 			page 25


 1360              		.loc 1 151 0
 1361 02e2 03B0     		add	sp, sp, #12
 1362 02e4 F0BD     		pop	{r4, r5, r6, r7, pc}
 1363              	.L56:
 1364 02e6 00BF     		.align	2
 1365              	.L55:
 1366 02e8 00000000 		.word	.LANCHOR1
 1367 02ec 00000000 		.word	.LC0
 1368 02f0 00000000 		.word	wa
 1369 02f4 00000000 		.word	rlist
 1370 02f8 00000000 		.word	thread1
 1371 02fc 00000000 		.word	threads
 1372              	.LVL234:
 1373              	.L52:
 1374              	.LBB198:
 1375              	.LBB196:
 1376              		.loc 1 144 0
 1377 0300 FFF7FEFF 		bl	dbg_check_unlock
 1378              	.LVL235:
 1379              	.LBB194:
 1380 0304 2346     		mov	r3, r4
 1381              	@ 144 "../../../test/testqueues.c" 1
 1382 0306 83F31188 		msr     BASEPRI, r3
 1383              	@ 0 "" 2
 1384              	.LVL236:
 1385              		.thumb
 1386 030a EAE7     		b	.L36
 1387              	.LVL237:
 1388              	.L54:
 1389              	.LBE194:
 1390              		.loc 1 106 0
 1391 030c A168     		ldr	r1, [r4, #8]
 1392 030e 0031     		adds	r1, r1, #0
 1393 0310 18BF     		it	ne
 1394 0312 0121     		movne	r1, #1
 1395 0314 B3E6     		b	.L39
 1396              	.LBE196:
 1397              	.LBE198:
 1398              		.cfi_endproc
 1399              	.LFE10:
 1400              		.size	queues1_execute, .-queues1_execute
 1401              		.global	patternqueues
 1402              		.global	testqueues2
 1403              		.global	testqueues1
 1404 0316 00BFAFF3 		.section	.rodata.testqueues1,"a",%progbits
 1404      0080AFF3 
 1404      0080
 1405              		.align	2
 1406              		.type	testqueues1, %object
 1407              		.size	testqueues1, 16
 1408              	testqueues1:
 1409 0000 20000000 		.word	.LC2
 1410 0004 00000000 		.word	queues1_setup
 1411 0008 00000000 		.word	0
 1412 000c 00000000 		.word	queues1_execute
 1413              		.section	.rodata.testqueues2,"a",%progbits
 1414              		.align	2
ARM GAS  C:\cygwin\tmp\ccu7kmZb.s 			page 26


 1415              		.type	testqueues2, %object
 1416              		.size	testqueues2, 16
 1417              	testqueues2:
 1418 0000 08000000 		.word	.LC1
 1419 0004 00000000 		.word	queues2_setup
 1420 0008 00000000 		.word	0
 1421 000c 00000000 		.word	queues2_execute
 1422              		.section	.rodata.str1.4,"aMS",%progbits,1
 1423              		.align	2
 1424              	.LC0:
 1425 0000 41424344 		.ascii	"ABCD\000"
 1425      00
 1426 0005 000000   		.space	3
 1427              	.LC1:
 1428 0008 51756575 		.ascii	"Queues, output queues\000"
 1428      65732C20 
 1428      6F757470 
 1428      75742071 
 1428      75657565 
 1429 001e 0000     		.space	2
 1430              	.LC2:
 1431 0020 51756575 		.ascii	"Queues, input queues\000"
 1431      65732C20 
 1431      696E7075 
 1431      74207175 
 1431      65756573 
 1432 0035 000000   		.section	.rodata.patternqueues,"a",%progbits
 1433              		.align	2
 1434              		.type	patternqueues, %object
 1435              		.size	patternqueues, 12
 1436              	patternqueues:
 1437 0000 00000000 		.word	testqueues1
 1438 0004 00000000 		.word	testqueues2
 1439 0008 00000000 		.word	0
 1440              		.section	.data.oq,"aw",%progbits
 1441              		.align	2
 1442              		.set	.LANCHOR0,. + 0
 1443              		.type	oq, %object
 1444              		.size	oq, 36
 1445              	oq:
 1446 0000 00000000 		.word	oq
 1447 0004 00000000 		.word	oq
 1448 0008 04000000 		.word	4
 1449 000c 30010000 		.word	test+304
 1450 0010 34010000 		.word	test+308
 1451 0014 30010000 		.word	test+304
 1452 0018 30010000 		.word	test+304
 1453 001c 00000000 		.word	notify
 1454 0020 00000000 		.word	0
 1455              		.section	.data.iq,"aw",%progbits
 1456              		.align	2
 1457              		.set	.LANCHOR1,. + 0
 1458              		.type	iq, %object
 1459              		.size	iq, 36
 1460              	iq:
 1461 0000 00000000 		.word	iq
 1462 0004 00000000 		.word	iq
ARM GAS  C:\cygwin\tmp\ccu7kmZb.s 			page 27


 1463 0008 00000000 		.word	0
 1464 000c 00000000 		.word	test
 1465 0010 04000000 		.word	test+4
 1466 0014 00000000 		.word	test
 1467 0018 00000000 		.word	test
 1468 001c 00000000 		.word	notify
 1469 0020 00000000 		.word	0
 1470              		.text
 1471              	.Letext0:
 1472              		.file 2 "c:\\develop\\genist\\chibistudio\\tools\\yagarto-tools\\yagarto-20121222\\bin\\../lib/gcc
 1473              		.file 3 "c:/develop/genist/chibistudio/tools/yagarto-tools/yagarto-20121222/lib/gcc/../../arm-none
 1474              		.file 4 "../../../os/ports/GCC/ARMCMx/chtypes.h"
 1475              		.file 5 "../../../os/kernel/include/chlists.h"
 1476              		.file 6 "../../../os/kernel/include/chthreads.h"
 1477              		.file 7 "../../../os/ports/GCC/ARMCMx/chcore_v7m.h"
 1478              		.file 8 "../../../os/kernel/include/chschd.h"
 1479              		.file 9 "../../../os/kernel/include/chmtx.h"
 1480              		.file 10 "../../../os/kernel/include/chqueues.h"
 1481              		.file 11 "../../../test/test.h"
 1482              		.file 12 "../../../os/kernel/include/chdebug.h"