ARM GAS  C:\cygwin\tmp\ccyJ3soa.s 			page 1


   1              		.syntax unified
   2              		.cpu cortex-m4
   3              		.fpu softvfp
   4              		.eabi_attribute 20, 1
   5              		.eabi_attribute 21, 1
   6              		.eabi_attribute 23, 3
   7              		.eabi_attribute 24, 1
   8              		.eabi_attribute 25, 1
   9              		.eabi_attribute 26, 1
  10              		.eabi_attribute 30, 2
  11              		.eabi_attribute 34, 1
  12              		.eabi_attribute 18, 4
  13              		.thumb
  14              		.file	"testmbox.c"
  15              		.text
  16              	.Ltext0:
  17              		.cfi_sections	.debug_frame
  18              		.section	.text.mbox1_execute,"ax",%progbits
  19              		.align	2
  20              		.p2align 4,,15
  21              		.thumb
  22              		.thumb_func
  23              		.type	mbox1_execute, %function
  24              	mbox1_execute:
  25              	.LFB8:
  26              		.file 1 "../../../test/testmbox.c"
  27              		.loc 1 80 0
  28              		.cfi_startproc
  29              		@ args = 0, pretend = 0, frame = 8
  30              		@ frame_needed = 0, uses_anonymous_args = 0
  31 0000 F0B5     		push	{r4, r5, r6, r7, lr}
  32              	.LCFI0:
  33              		.cfi_def_cfa_offset 20
  34              		.cfi_offset 4, -20
  35              		.cfi_offset 5, -16
  36              		.cfi_offset 6, -12
  37              		.cfi_offset 7, -8
  38              		.cfi_offset 14, -4
  39              		.loc 1 87 0
  40 0002 4A4E     		ldr	r6, .L31
  41 0004 716A     		ldr	r1, [r6, #36]
  42 0006 0120     		movs	r0, #1
  43 0008 4B1F     		subs	r3, r1, #5
  44 000a 5942     		rsbs	r1, r3, #0
  45              		.loc 1 80 0
  46 000c 83B0     		sub	sp, sp, #12
  47              	.LCFI1:
  48              		.cfi_def_cfa_offset 32
  49              		.loc 1 87 0
  50 000e 5941     		adcs	r1, r1, r3
  51 0010 FFF7FEFF 		bl	_test_assert
  52              	.LVL0:
  53 0014 00BB     		cbnz	r0, .L1
  54 0016 4224     		movs	r4, #66
  55              	.L3:
  56              		.loc 1 93 0
  57 0018 444D     		ldr	r5, .L31
ARM GAS  C:\cygwin\tmp\ccyJ3soa.s 			page 2


  58 001a 2146     		mov	r1, r4
  59 001c 2846     		mov	r0, r5
  60 001e 4FF0FF32 		mov	r2, #-1
  61 0022 FFF7FEFF 		bl	chMBPost
  62              	.LVL1:
  63              		.loc 1 94 0
  64 0026 D0F10101 		rsbs	r1, r0, #1
  65 002a 38BF     		it	cc
  66 002c 0021     		movcc	r1, #0
  67 002e 0220     		movs	r0, #2
  68              	.LVL2:
  69 0030 0134     		adds	r4, r4, #1
  70 0032 FFF7FEFF 		bl	_test_assert
  71              	.LVL3:
  72 0036 78B9     		cbnz	r0, .L1
  73              		.loc 1 92 0
  74 0038 462C     		cmp	r4, #70
  75 003a EDD1     		bne	.L3
  76              		.loc 1 96 0
  77 003c 4121     		movs	r1, #65
  78 003e 2846     		mov	r0, r5
  79 0040 4FF0FF32 		mov	r2, #-1
  80 0044 FFF7FEFF 		bl	chMBPostAhead
  81              	.LVL4:
  82              		.loc 1 97 0
  83 0048 D0F10101 		rsbs	r1, r0, #1
  84 004c 38BF     		it	cc
  85 004e 0021     		movcc	r1, #0
  86 0050 0320     		movs	r0, #3
  87              	.LVL5:
  88 0052 FFF7FEFF 		bl	_test_assert
  89              	.LVL6:
  90 0056 08B1     		cbz	r0, .L30
  91              	.LVL7:
  92              	.L1:
  93              		.loc 1 224 0
  94 0058 03B0     		add	sp, sp, #12
  95 005a F0BD     		pop	{r4, r5, r6, r7, pc}
  96              	.LVL8:
  97              	.L30:
  98              		.loc 1 102 0
  99 005c 5821     		movs	r1, #88
 100 005e 0122     		movs	r2, #1
 101 0060 2846     		mov	r0, r5
 102 0062 FFF7FEFF 		bl	chMBPost
 103              	.LVL9:
 104              		.loc 1 103 0
 105 0066 B0F1FF3C 		subs	ip, r0, #-1
 106 006a DCF10001 		rsbs	r1, ip, #0
 107 006e 51EB0C01 		adcs	r1, r1, ip
 108 0072 0420     		movs	r0, #4
 109              	.LVL10:
 110 0074 FFF7FEFF 		bl	_test_assert
 111              	.LVL11:
 112 0078 0446     		mov	r4, r0
 113 007a 0028     		cmp	r0, #0
 114 007c ECD1     		bne	.L1
ARM GAS  C:\cygwin\tmp\ccyJ3soa.s 			page 3


 115              	.LBB2:
 116              		.loc 1 104 0
 117 007e 2023     		movs	r3, #32
 118              	.LVL12:
 119              	@ 104 "../../../test/testmbox.c" 1
 120 0080 83F31188 		msr     BASEPRI, r3
 121              	@ 0 "" 2
 122              	.LVL13:
 123              		.thumb
 124              	.LBE2:
 125 0084 FFF7FEFF 		bl	dbg_check_lock
 126              	.LVL14:
 127              		.loc 1 105 0
 128 0088 5821     		movs	r1, #88
 129 008a 2846     		mov	r0, r5
 130 008c FFF7FEFF 		bl	chMBPostI
 131              	.LVL15:
 132 0090 0746     		mov	r7, r0
 133              	.LVL16:
 134              		.loc 1 106 0
 135 0092 FFF7FEFF 		bl	dbg_check_unlock
 136              	.LVL17:
 137              	.LBB3:
 138 0096 2346     		mov	r3, r4
 139              	.LVL18:
 140              	@ 106 "../../../test/testmbox.c" 1
 141 0098 83F31188 		msr     BASEPRI, r3
 142              	@ 0 "" 2
 143              	.LVL19:
 144              		.thumb
 145              	.LBE3:
 146              		.loc 1 107 0
 147 009c 0520     		movs	r0, #5
 148 009e B7F1FF3E 		subs	lr, r7, #-1
 149 00a2 DEF10001 		rsbs	r1, lr, #0
 150 00a6 51EB0E01 		adcs	r1, r1, lr
 151 00aa FFF7FEFF 		bl	_test_assert
 152              	.LVL20:
 153 00ae 0028     		cmp	r0, #0
 154 00b0 D2D1     		bne	.L1
 155              		.loc 1 108 0
 156 00b2 5821     		movs	r1, #88
 157 00b4 0122     		movs	r2, #1
 158 00b6 2846     		mov	r0, r5
 159 00b8 FFF7FEFF 		bl	chMBPostAhead
 160              	.LVL21:
 161              		.loc 1 109 0
 162 00bc B0F1FF32 		subs	r2, r0, #-1
 163 00c0 5142     		rsbs	r1, r2, #0
 164 00c2 5141     		adcs	r1, r1, r2
 165 00c4 0620     		movs	r0, #6
 166              	.LVL22:
 167 00c6 FFF7FEFF 		bl	_test_assert
 168              	.LVL23:
 169 00ca 0446     		mov	r4, r0
 170 00cc 0028     		cmp	r0, #0
 171 00ce C3D1     		bne	.L1
ARM GAS  C:\cygwin\tmp\ccyJ3soa.s 			page 4


 172              	.LBB4:
 173              		.loc 1 110 0
 174 00d0 2023     		movs	r3, #32
 175              	.LVL24:
 176              	@ 110 "../../../test/testmbox.c" 1
 177 00d2 83F31188 		msr     BASEPRI, r3
 178              	@ 0 "" 2
 179              	.LVL25:
 180              		.thumb
 181              	.LBE4:
 182 00d6 FFF7FEFF 		bl	dbg_check_lock
 183              	.LVL26:
 184              		.loc 1 111 0
 185 00da 5821     		movs	r1, #88
 186 00dc 2846     		mov	r0, r5
 187 00de FFF7FEFF 		bl	chMBPostAheadI
 188              	.LVL27:
 189 00e2 0746     		mov	r7, r0
 190              	.LVL28:
 191              		.loc 1 112 0
 192 00e4 FFF7FEFF 		bl	dbg_check_unlock
 193              	.LVL29:
 194              	.LBB5:
 195 00e8 2346     		mov	r3, r4
 196              	.LVL30:
 197              	@ 112 "../../../test/testmbox.c" 1
 198 00ea 83F31188 		msr     BASEPRI, r3
 199              	@ 0 "" 2
 200              	.LVL31:
 201              		.thumb
 202              	.LBE5:
 203              		.loc 1 113 0
 204 00ee 0720     		movs	r0, #7
 205 00f0 B7F1FF33 		subs	r3, r7, #-1
 206              	.LVL32:
 207 00f4 5942     		rsbs	r1, r3, #0
 208 00f6 5941     		adcs	r1, r1, r3
 209 00f8 FFF7FEFF 		bl	_test_assert
 210              	.LVL33:
 211 00fc 0746     		mov	r7, r0
 212              	.LVL34:
 213 00fe 0028     		cmp	r0, #0
 214 0100 AAD1     		bne	.L1
 215              	.LBB6:
 216              		.loc 1 118 0
 217 0102 2023     		movs	r3, #32
 218              	.LVL35:
 219              	@ 118 "../../../test/testmbox.c" 1
 220 0104 83F31188 		msr     BASEPRI, r3
 221              	@ 0 "" 2
 222              	.LVL36:
 223              		.thumb
 224              	.LBE6:
 225 0108 FFF7FEFF 		bl	dbg_check_lock
 226              	.LVL37:
 227 010c 696A     		ldr	r1, [r5, #36]
 228 010e 0820     		movs	r0, #8
ARM GAS  C:\cygwin\tmp\ccyJ3soa.s 			page 5


 229 0110 D1F10101 		rsbs	r1, r1, #1
 230 0114 38BF     		it	cc
 231 0116 0021     		movcc	r1, #0
 232 0118 FFF7FEFF 		bl	_test_assert
 233              	.LVL38:
 234 011c 0446     		mov	r4, r0
 235 011e 38B1     		cbz	r0, .L4
 236              		.loc 1 118 0 is_stmt 0 discriminator 1
 237 0120 FFF7FEFF 		bl	dbg_check_unlock
 238              	.LVL39:
 239              	.LBB7:
 240 0124 3B46     		mov	r3, r7
 241              	@ 118 "../../../test/testmbox.c" 1
 242 0126 83F31188 		msr     BASEPRI, r3
 243              	@ 0 "" 2
 244              	.LVL40:
 245              		.thumb
 246 012a 95E7     		b	.L1
 247              	.L32:
 248              		.align	2
 249              	.L31:
 250 012c 00000000 		.word	.LANCHOR0
 251              	.LVL41:
 252              	.L4:
 253              	.LBE7:
 254              		.loc 1 118 0 discriminator 2
 255 0130 FFF7FEFF 		bl	dbg_check_unlock
 256              	.LVL42:
 257              	.LBB8:
 258 0134 2346     		mov	r3, r4
 259              	.LVL43:
 260              	@ 118 "../../../test/testmbox.c" 1
 261 0136 83F31188 		msr     BASEPRI, r3
 262              	@ 0 "" 2
 263              	.LVL44:
 264              		.thumb
 265              	.LBE8:
 266              	.LBB9:
 267              		.loc 1 119 0 is_stmt 1 discriminator 2
 268 013a 2023     		movs	r3, #32
 269              	.LVL45:
 270              	@ 119 "../../../test/testmbox.c" 1
 271 013c 83F31188 		msr     BASEPRI, r3
 272              	@ 0 "" 2
 273              	.LVL46:
 274              		.thumb
 275              	.LBE9:
 276 0140 FFF7FEFF 		bl	dbg_check_lock
 277              	.LVL47:
 278 0144 A969     		ldr	r1, [r5, #24]
 279 0146 0920     		movs	r0, #9
 280 0148 B1F1050C 		subs	ip, r1, #5
 281 014c DCF10001 		rsbs	r1, ip, #0
 282 0150 51EB0C01 		adcs	r1, r1, ip
 283 0154 FFF7FEFF 		bl	_test_assert
 284              	.LVL48:
 285 0158 0746     		mov	r7, r0
ARM GAS  C:\cygwin\tmp\ccyJ3soa.s 			page 6


 286 015a 0028     		cmp	r0, #0
 287 015c 40F0B482 		bne	.L27
 288 0160 FFF7FEFF 		bl	dbg_check_unlock
 289              	.LVL49:
 290              	.LBB10:
 291 0164 3B46     		mov	r3, r7
 292              	.LVL50:
 293              	@ 119 "../../../test/testmbox.c" 1
 294 0166 83F31188 		msr     BASEPRI, r3
 295              	@ 0 "" 2
 296              	.LVL51:
 297              		.thumb
 298              	.LBE10:
 299              	.LBB11:
 300              		.loc 1 120 0 discriminator 2
 301 016a 2023     		movs	r3, #32
 302              	.LVL52:
 303              	@ 120 "../../../test/testmbox.c" 1
 304 016c 83F31188 		msr     BASEPRI, r3
 305              	@ 0 "" 2
 306              	.LVL53:
 307              		.thumb
 308              	.LBE11:
 309 0170 FFF7FEFF 		bl	dbg_check_lock
 310              	.LVL54:
 311 0174 E968     		ldr	r1, [r5, #12]
 312 0176 AB68     		ldr	r3, [r5, #8]
 313 0178 0A20     		movs	r0, #10
 314 017a B1EB030E 		subs	lr, r1, r3
 315 017e DEF10001 		rsbs	r1, lr, #0
 316 0182 51EB0E01 		adcs	r1, r1, lr
 317 0186 FFF7FEFF 		bl	_test_assert
 318              	.LVL55:
 319 018a 0028     		cmp	r0, #0
 320 018c 40F09682 		bne	.L21
 321 0190 FFF7FEFF 		bl	dbg_check_unlock
 322              	.LVL56:
 323              	.LBB12:
 324 0194 0023     		movs	r3, #0
 325              	.LVL57:
 326              	@ 120 "../../../test/testmbox.c" 1
 327 0196 83F31188 		msr     BASEPRI, r3
 328              	@ 0 "" 2
 329              	.LVL58:
 330              		.thumb
 331 019a 0525     		movs	r5, #5
 332              	.LVL59:
 333              	.L8:
 334              	.LBE12:
 335              		.loc 1 126 0
 336 019c B84C     		ldr	r4, .L33
 337 019e 01A9     		add	r1, sp, #4
 338 01a0 4FF0FF32 		mov	r2, #-1
 339 01a4 2046     		mov	r0, r4
 340 01a6 FFF7FEFF 		bl	chMBFetch
 341              	.LVL60:
 342              		.loc 1 127 0
ARM GAS  C:\cygwin\tmp\ccyJ3soa.s 			page 7


 343 01aa D0F10101 		rsbs	r1, r0, #1
 344 01ae 38BF     		it	cc
 345 01b0 0021     		movcc	r1, #0
 346 01b2 0B20     		movs	r0, #11
 347              	.LVL61:
 348 01b4 FFF7FEFF 		bl	_test_assert
 349              	.LVL62:
 350 01b8 0028     		cmp	r0, #0
 351 01ba 7FF44DAF 		bne	.L1
 352              		.loc 1 128 0
 353 01be 9DF80400 		ldrb	r0, [sp, #4]	@ zero_extendqisi2
 354 01c2 FFF7FEFF 		bl	test_emit_token
 355              	.LVL63:
 356              		.loc 1 125 0
 357 01c6 013D     		subs	r5, r5, #1
 358 01c8 E8D1     		bne	.L8
 359              		.loc 1 130 0
 360 01ca 0C20     		movs	r0, #12
 361 01cc AD49     		ldr	r1, .L33+4
 362 01ce FFF7FEFF 		bl	_test_assert_sequence
 363              	.LVL64:
 364 01d2 0028     		cmp	r0, #0
 365 01d4 7FF440AF 		bne	.L1
 366              		.loc 1 135 0
 367 01d8 4721     		movs	r1, #71
 368 01da 2046     		mov	r0, r4
 369 01dc 4FF0FF32 		mov	r2, #-1
 370 01e0 FFF7FEFF 		bl	chMBPost
 371              	.LVL65:
 372              		.loc 1 136 0
 373 01e4 D0F10101 		rsbs	r1, r0, #1
 374 01e8 38BF     		it	cc
 375 01ea 0021     		movcc	r1, #0
 376 01ec 0D20     		movs	r0, #13
 377              	.LVL66:
 378 01ee FFF7FEFF 		bl	_test_assert
 379              	.LVL67:
 380 01f2 0028     		cmp	r0, #0
 381 01f4 7FF430AF 		bne	.L1
 382              		.loc 1 137 0
 383 01f8 01A9     		add	r1, sp, #4
 384 01fa 2046     		mov	r0, r4
 385 01fc 4FF0FF32 		mov	r2, #-1
 386 0200 FFF7FEFF 		bl	chMBFetch
 387              	.LVL68:
 388              		.loc 1 138 0
 389 0204 D0F10101 		rsbs	r1, r0, #1
 390 0208 38BF     		it	cc
 391 020a 0021     		movcc	r1, #0
 392 020c 0E20     		movs	r0, #14
 393              	.LVL69:
 394 020e FFF7FEFF 		bl	_test_assert
 395              	.LVL70:
 396 0212 0028     		cmp	r0, #0
 397 0214 7FF420AF 		bne	.L1
 398              		.loc 1 139 0
 399 0218 2168     		ldr	r1, [r4, #0]
ARM GAS  C:\cygwin\tmp\ccyJ3soa.s 			page 8


 400 021a A368     		ldr	r3, [r4, #8]
 401 021c 0F20     		movs	r0, #15
 402 021e CA1A     		subs	r2, r1, r3
 403 0220 5142     		rsbs	r1, r2, #0
 404 0222 5141     		adcs	r1, r1, r2
 405 0224 FFF7FEFF 		bl	_test_assert
 406              	.LVL71:
 407 0228 0028     		cmp	r0, #0
 408 022a 7FF415AF 		bne	.L1
 409              		.loc 1 140 0
 410 022e 2168     		ldr	r1, [r4, #0]
 411 0230 E368     		ldr	r3, [r4, #12]
 412 0232 1020     		movs	r0, #16
 413 0234 CB1A     		subs	r3, r1, r3
 414 0236 5942     		rsbs	r1, r3, #0
 415 0238 5941     		adcs	r1, r1, r3
 416 023a FFF7FEFF 		bl	_test_assert
 417              	.LVL72:
 418 023e 0028     		cmp	r0, #0
 419 0240 7FF40AAF 		bne	.L1
 420              		.loc 1 145 0
 421 0244 01A9     		add	r1, sp, #4
 422 0246 0122     		movs	r2, #1
 423 0248 2046     		mov	r0, r4
 424 024a FFF7FEFF 		bl	chMBFetch
 425              	.LVL73:
 426              		.loc 1 146 0
 427 024e B0F1FF3C 		subs	ip, r0, #-1
 428 0252 DCF10001 		rsbs	r1, ip, #0
 429 0256 51EB0C01 		adcs	r1, r1, ip
 430 025a 1120     		movs	r0, #17
 431              	.LVL74:
 432 025c FFF7FEFF 		bl	_test_assert
 433              	.LVL75:
 434 0260 0028     		cmp	r0, #0
 435 0262 7FF4F9AE 		bne	.L1
 436              	.LBB13:
 437              		.loc 1 147 0
 438 0266 2023     		movs	r3, #32
 439              	.LVL76:
 440              	@ 147 "../../../test/testmbox.c" 1
 441 0268 83F31188 		msr     BASEPRI, r3
 442              	@ 0 "" 2
 443              	.LVL77:
 444              		.thumb
 445              	.LBE13:
 446 026c FFF7FEFF 		bl	dbg_check_lock
 447              	.LVL78:
 448              		.loc 1 148 0
 449 0270 01A9     		add	r1, sp, #4
 450 0272 2046     		mov	r0, r4
 451 0274 FFF7FEFF 		bl	chMBFetchI
 452              	.LVL79:
 453 0278 0746     		mov	r7, r0
 454              	.LVL80:
 455              		.loc 1 149 0
 456 027a FFF7FEFF 		bl	dbg_check_unlock
ARM GAS  C:\cygwin\tmp\ccyJ3soa.s 			page 9


 457              	.LVL81:
 458              	.LBB14:
 459 027e 2B46     		mov	r3, r5
 460              	.LVL82:
 461              	@ 149 "../../../test/testmbox.c" 1
 462 0280 83F31188 		msr     BASEPRI, r3
 463              	@ 0 "" 2
 464              	.LVL83:
 465              		.thumb
 466              	.LBE14:
 467              		.loc 1 150 0
 468 0284 1220     		movs	r0, #18
 469 0286 B7F1FF3E 		subs	lr, r7, #-1
 470 028a DEF10001 		rsbs	r1, lr, #0
 471 028e 51EB0E01 		adcs	r1, r1, lr
 472 0292 FFF7FEFF 		bl	_test_assert
 473              	.LVL84:
 474 0296 0028     		cmp	r0, #0
 475 0298 7FF4DEAE 		bne	.L1
 476              	.LBB15:
 477              		.loc 1 155 0
 478 029c 2023     		movs	r3, #32
 479              	.LVL85:
 480              	@ 155 "../../../test/testmbox.c" 1
 481 029e 83F31188 		msr     BASEPRI, r3
 482              	@ 0 "" 2
 483              	.LVL86:
 484              		.thumb
 485              	.LBE15:
 486 02a2 FFF7FEFF 		bl	dbg_check_lock
 487              	.LVL87:
 488 02a6 616A     		ldr	r1, [r4, #36]
 489 02a8 1320     		movs	r0, #19
 490 02aa 4A1F     		subs	r2, r1, #5
 491 02ac 5142     		rsbs	r1, r2, #0
 492 02ae 5141     		adcs	r1, r1, r2
 493 02b0 FFF7FEFF 		bl	_test_assert
 494              	.LVL88:
 495 02b4 0028     		cmp	r0, #0
 496 02b6 40F00182 		bne	.L21
 497              		.loc 1 155 0 is_stmt 0 discriminator 2
 498 02ba FFF7FEFF 		bl	dbg_check_unlock
 499              	.LVL89:
 500              	.LBB16:
 501 02be 0023     		movs	r3, #0
 502              	.LVL90:
 503              	@ 155 "../../../test/testmbox.c" 1
 504 02c0 83F31188 		msr     BASEPRI, r3
 505              	@ 0 "" 2
 506              	.LVL91:
 507              		.thumb
 508              	.LBE16:
 509              	.LBB17:
 510              		.loc 1 156 0 is_stmt 1 discriminator 2
 511 02c4 2023     		movs	r3, #32
 512              	.LVL92:
 513              	@ 156 "../../../test/testmbox.c" 1
ARM GAS  C:\cygwin\tmp\ccyJ3soa.s 			page 10


 514 02c6 83F31188 		msr     BASEPRI, r3
 515              	@ 0 "" 2
 516              	.LVL93:
 517              		.thumb
 518              	.LBE17:
 519 02ca FFF7FEFF 		bl	dbg_check_lock
 520              	.LVL94:
 521 02ce B169     		ldr	r1, [r6, #24]
 522 02d0 6B4C     		ldr	r4, .L33
 523 02d2 1420     		movs	r0, #20
 524 02d4 D1F10101 		rsbs	r1, r1, #1
 525 02d8 38BF     		it	cc
 526 02da 0021     		movcc	r1, #0
 527 02dc FFF7FEFF 		bl	_test_assert
 528              	.LVL95:
 529 02e0 0546     		mov	r5, r0
 530 02e2 0028     		cmp	r0, #0
 531 02e4 40F0EA81 		bne	.L21
 532 02e8 FFF7FEFF 		bl	dbg_check_unlock
 533              	.LVL96:
 534              	.LBB18:
 535 02ec 2B46     		mov	r3, r5
 536              	.LVL97:
 537              	@ 156 "../../../test/testmbox.c" 1
 538 02ee 83F31188 		msr     BASEPRI, r3
 539              	@ 0 "" 2
 540              	.LVL98:
 541              		.thumb
 542              	.LBE18:
 543              	.LBB19:
 544              		.loc 1 157 0 discriminator 2
 545 02f2 2023     		movs	r3, #32
 546              	.LVL99:
 547              	@ 157 "../../../test/testmbox.c" 1
 548 02f4 83F31188 		msr     BASEPRI, r3
 549              	@ 0 "" 2
 550              	.LVL100:
 551              		.thumb
 552              	.LBE19:
 553 02f8 FFF7FEFF 		bl	dbg_check_lock
 554              	.LVL101:
 555 02fc E168     		ldr	r1, [r4, #12]
 556 02fe A368     		ldr	r3, [r4, #8]
 557 0300 1520     		movs	r0, #21
 558 0302 CB1A     		subs	r3, r1, r3
 559 0304 5942     		rsbs	r1, r3, #0
 560 0306 5941     		adcs	r1, r1, r3
 561 0308 FFF7FEFF 		bl	_test_assert
 562              	.LVL102:
 563 030c 0646     		mov	r6, r0
 564 030e 0028     		cmp	r0, #0
 565 0310 40F0AF80 		bne	.L28
 566 0314 FFF7FEFF 		bl	dbg_check_unlock
 567              	.LVL103:
 568              	.LBB20:
 569 0318 3346     		mov	r3, r6
 570              	.LVL104:
ARM GAS  C:\cygwin\tmp\ccyJ3soa.s 			page 11


 571              	@ 157 "../../../test/testmbox.c" 1
 572 031a 83F31188 		msr     BASEPRI, r3
 573              	@ 0 "" 2
 574              	.LVL105:
 575              		.thumb
 576              	.LBE20:
 577              	.LBB21:
 578              		.loc 1 162 0 discriminator 2
 579 031e 2023     		movs	r3, #32
 580              	.LVL106:
 581              	@ 162 "../../../test/testmbox.c" 1
 582 0320 83F31188 		msr     BASEPRI, r3
 583              	@ 0 "" 2
 584              	.LVL107:
 585              		.thumb
 586              	.LBE21:
 587 0324 FFF7FEFF 		bl	dbg_check_lock
 588              	.LVL108:
 589              		.loc 1 163 0 discriminator 2
 590 0328 4121     		movs	r1, #65
 591 032a 2046     		mov	r0, r4
 592 032c FFF7FEFF 		bl	chMBPostI
 593              	.LVL109:
 594              		.loc 1 164 0 discriminator 2
 595 0330 D0F10101 		rsbs	r1, r0, #1
 596 0334 38BF     		it	cc
 597 0336 0021     		movcc	r1, #0
 598 0338 1620     		movs	r0, #22
 599              	.LVL110:
 600 033a FFF7FEFF 		bl	_test_assert
 601              	.LVL111:
 602 033e 0028     		cmp	r0, #0
 603 0340 7FF48AAE 		bne	.L1
 604              		.loc 1 165 0
 605 0344 4221     		movs	r1, #66
 606 0346 2046     		mov	r0, r4
 607 0348 FFF7FEFF 		bl	chMBPostI
 608              	.LVL112:
 609              		.loc 1 166 0
 610 034c D0F10101 		rsbs	r1, r0, #1
 611 0350 38BF     		it	cc
 612 0352 0021     		movcc	r1, #0
 613 0354 1720     		movs	r0, #23
 614              	.LVL113:
 615 0356 FFF7FEFF 		bl	_test_assert
 616              	.LVL114:
 617 035a 0028     		cmp	r0, #0
 618 035c 7FF47CAE 		bne	.L1
 619              		.loc 1 167 0
 620 0360 4321     		movs	r1, #67
 621 0362 2046     		mov	r0, r4
 622 0364 FFF7FEFF 		bl	chMBPostI
 623              	.LVL115:
 624              		.loc 1 168 0
 625 0368 D0F10101 		rsbs	r1, r0, #1
 626 036c 38BF     		it	cc
 627 036e 0021     		movcc	r1, #0
ARM GAS  C:\cygwin\tmp\ccyJ3soa.s 			page 12


 628 0370 1820     		movs	r0, #24
 629              	.LVL116:
 630 0372 FFF7FEFF 		bl	_test_assert
 631              	.LVL117:
 632 0376 0028     		cmp	r0, #0
 633 0378 7FF46EAE 		bne	.L1
 634              		.loc 1 169 0
 635 037c 4421     		movs	r1, #68
 636 037e 2046     		mov	r0, r4
 637 0380 FFF7FEFF 		bl	chMBPostI
 638              	.LVL118:
 639              		.loc 1 170 0
 640 0384 D0F10101 		rsbs	r1, r0, #1
 641 0388 38BF     		it	cc
 642 038a 0021     		movcc	r1, #0
 643 038c 1920     		movs	r0, #25
 644              	.LVL119:
 645 038e FFF7FEFF 		bl	_test_assert
 646              	.LVL120:
 647 0392 0546     		mov	r5, r0
 648 0394 0028     		cmp	r0, #0
 649 0396 7FF45FAE 		bne	.L1
 650              		.loc 1 171 0
 651 039a 4521     		movs	r1, #69
 652 039c 2046     		mov	r0, r4
 653 039e FFF7FEFF 		bl	chMBPostI
 654              	.LVL121:
 655 03a2 0646     		mov	r6, r0
 656              	.LVL122:
 657              		.loc 1 172 0
 658 03a4 FFF7FEFF 		bl	dbg_check_unlock
 659              	.LVL123:
 660              	.LBB22:
 661 03a8 2B46     		mov	r3, r5
 662              	.LVL124:
 663              	@ 172 "../../../test/testmbox.c" 1
 664 03aa 83F31188 		msr     BASEPRI, r3
 665              	@ 0 "" 2
 666              	.LVL125:
 667              		.thumb
 668              	.LBE22:
 669              		.loc 1 173 0
 670 03ae 1A20     		movs	r0, #26
 671 03b0 D6F10101 		rsbs	r1, r6, #1
 672 03b4 38BF     		it	cc
 673 03b6 0021     		movcc	r1, #0
 674 03b8 FFF7FEFF 		bl	_test_assert
 675              	.LVL126:
 676 03bc 0028     		cmp	r0, #0
 677 03be 7FF44BAE 		bne	.L1
 678              		.loc 1 174 0
 679 03c2 E168     		ldr	r1, [r4, #12]
 680 03c4 A368     		ldr	r3, [r4, #8]
 681 03c6 1B20     		movs	r0, #27
 682 03c8 B1EB030C 		subs	ip, r1, r3
 683 03cc DCF10001 		rsbs	r1, ip, #0
 684 03d0 51EB0C01 		adcs	r1, r1, ip
ARM GAS  C:\cygwin\tmp\ccyJ3soa.s 			page 13


 685 03d4 FFF7FEFF 		bl	_test_assert
 686              	.LVL127:
 687 03d8 0028     		cmp	r0, #0
 688 03da 7FF43DAE 		bne	.L1
 689 03de 0525     		movs	r5, #5
 690              	.L12:
 691              	.LBB23:
 692              		.loc 1 176 0
 693 03e0 2023     		movs	r3, #32
 694              	.LVL128:
 695              	@ 176 "../../../test/testmbox.c" 1
 696 03e2 83F31188 		msr     BASEPRI, r3
 697              	@ 0 "" 2
 698              	.LVL129:
 699              		.thumb
 700              	.LBE23:
 701              		.loc 1 177 0
 702 03e6 264C     		ldr	r4, .L33
 703              		.loc 1 176 0
 704 03e8 FFF7FEFF 		bl	dbg_check_lock
 705              	.LVL130:
 706              		.loc 1 177 0
 707 03ec 01A9     		add	r1, sp, #4
 708 03ee 2046     		mov	r0, r4
 709 03f0 FFF7FEFF 		bl	chMBFetchI
 710              	.LVL131:
 711 03f4 0646     		mov	r6, r0
 712              	.LVL132:
 713              		.loc 1 178 0
 714 03f6 FFF7FEFF 		bl	dbg_check_unlock
 715              	.LVL133:
 716              	.LBB24:
 717 03fa 0023     		movs	r3, #0
 718              	.LVL134:
 719              	@ 178 "../../../test/testmbox.c" 1
 720 03fc 83F31188 		msr     BASEPRI, r3
 721              	@ 0 "" 2
 722              	.LVL135:
 723              		.thumb
 724              	.LBE24:
 725              		.loc 1 179 0
 726 0400 1C20     		movs	r0, #28
 727 0402 B6EB030E 		subs	lr, r6, r3
 728              	.LVL136:
 729 0406 DEF10001 		rsbs	r1, lr, #0
 730 040a 51EB0E01 		adcs	r1, r1, lr
 731 040e FFF7FEFF 		bl	_test_assert
 732              	.LVL137:
 733 0412 0028     		cmp	r0, #0
 734 0414 7FF420AE 		bne	.L1
 735              		.loc 1 180 0
 736 0418 9DF80400 		ldrb	r0, [sp, #4]	@ zero_extendqisi2
 737 041c FFF7FEFF 		bl	test_emit_token
 738              	.LVL138:
 739              		.loc 1 175 0
 740 0420 013D     		subs	r5, r5, #1
 741 0422 DDD1     		bne	.L12
ARM GAS  C:\cygwin\tmp\ccyJ3soa.s 			page 14


 742              		.loc 1 182 0
 743 0424 1D20     		movs	r0, #29
 744 0426 1749     		ldr	r1, .L33+4
 745 0428 FFF7FEFF 		bl	_test_assert_sequence
 746              	.LVL139:
 747 042c 0028     		cmp	r0, #0
 748 042e 7FF413AE 		bne	.L1
 749              	.LBB25:
 750              		.loc 1 183 0
 751 0432 2023     		movs	r3, #32
 752              	.LVL140:
 753              	@ 183 "../../../test/testmbox.c" 1
 754 0434 83F31188 		msr     BASEPRI, r3
 755              	@ 0 "" 2
 756              	.LVL141:
 757              		.thumb
 758              	.LBE25:
 759 0438 FFF7FEFF 		bl	dbg_check_lock
 760              	.LVL142:
 761 043c 616A     		ldr	r1, [r4, #36]
 762 043e 1E20     		movs	r0, #30
 763 0440 4A1F     		subs	r2, r1, #5
 764 0442 5142     		rsbs	r1, r2, #0
 765 0444 5141     		adcs	r1, r1, r2
 766 0446 FFF7FEFF 		bl	_test_assert
 767              	.LVL143:
 768 044a 90B9     		cbnz	r0, .L28
 769              		.loc 1 183 0 is_stmt 0 discriminator 2
 770 044c FFF7FEFF 		bl	dbg_check_unlock
 771              	.LVL144:
 772              	.LBB26:
 773 0450 2B46     		mov	r3, r5
 774              	.LVL145:
 775              	@ 183 "../../../test/testmbox.c" 1
 776 0452 83F31188 		msr     BASEPRI, r3
 777              	@ 0 "" 2
 778              	.LVL146:
 779              		.thumb
 780              	.LBE26:
 781              	.LBB27:
 782              		.loc 1 184 0 is_stmt 1 discriminator 2
 783 0456 2023     		movs	r3, #32
 784              	.LVL147:
 785              	@ 184 "../../../test/testmbox.c" 1
 786 0458 83F31188 		msr     BASEPRI, r3
 787              	@ 0 "" 2
 788              	.LVL148:
 789              		.thumb
 790              	.LBE27:
 791 045c FFF7FEFF 		bl	dbg_check_lock
 792              	.LVL149:
 793 0460 A169     		ldr	r1, [r4, #24]
 794 0462 1F20     		movs	r0, #31
 795 0464 D1F10101 		rsbs	r1, r1, #1
 796 0468 38BF     		it	cc
 797 046a 0021     		movcc	r1, #0
 798 046c FFF7FEFF 		bl	_test_assert
ARM GAS  C:\cygwin\tmp\ccyJ3soa.s 			page 15


 799              	.LVL150:
 800 0470 50B1     		cbz	r0, .L14
 801              	.LVL151:
 802              	.L28:
 803              		.loc 1 184 0 is_stmt 0 discriminator 1
 804 0472 FFF7FEFF 		bl	dbg_check_unlock
 805              	.LVL152:
 806              	.LBB28:
 807 0476 2B46     		mov	r3, r5
 808              	@ 184 "../../../test/testmbox.c" 1
 809 0478 83F31188 		msr     BASEPRI, r3
 810              	@ 0 "" 2
 811              	.LVL153:
 812              		.thumb
 813 047c ECE5     		b	.L1
 814              	.L34:
 815 047e 00BF     		.align	2
 816              	.L33:
 817 0480 00000000 		.word	.LANCHOR0
 818 0484 00000000 		.word	.LC0
 819              	.LVL154:
 820              	.L14:
 821              	.LBE28:
 822              		.loc 1 184 0 discriminator 2
 823 0488 FFF7FEFF 		bl	dbg_check_unlock
 824              	.LVL155:
 825              	.LBB29:
 826 048c 2B46     		mov	r3, r5
 827              	.LVL156:
 828              	@ 184 "../../../test/testmbox.c" 1
 829 048e 83F31188 		msr     BASEPRI, r3
 830              	@ 0 "" 2
 831              	.LVL157:
 832              		.thumb
 833              	.LBE29:
 834              		.loc 1 185 0 is_stmt 1 discriminator 2
 835 0492 E168     		ldr	r1, [r4, #12]
 836 0494 A368     		ldr	r3, [r4, #8]
 837              	.LVL158:
 838 0496 2020     		movs	r0, #32
 839 0498 CB1A     		subs	r3, r1, r3
 840 049a 5942     		rsbs	r1, r3, #0
 841 049c 5941     		adcs	r1, r1, r3
 842 049e FFF7FEFF 		bl	_test_assert
 843              	.LVL159:
 844 04a2 0028     		cmp	r0, #0
 845 04a4 7FF4D8AD 		bne	.L1
 846              	.LBB30:
 847              		.loc 1 187 0
 848 04a8 2023     		movs	r3, #32
 849              	.LVL160:
 850              	@ 187 "../../../test/testmbox.c" 1
 851 04aa 83F31188 		msr     BASEPRI, r3
 852              	@ 0 "" 2
 853              	.LVL161:
 854              		.thumb
 855              	.LBE30:
ARM GAS  C:\cygwin\tmp\ccyJ3soa.s 			page 16


 856 04ae FFF7FEFF 		bl	dbg_check_lock
 857              	.LVL162:
 858              		.loc 1 188 0
 859 04b2 4521     		movs	r1, #69
 860 04b4 2046     		mov	r0, r4
 861 04b6 FFF7FEFF 		bl	chMBPostAheadI
 862              	.LVL163:
 863              		.loc 1 189 0
 864 04ba D0F10101 		rsbs	r1, r0, #1
 865 04be 38BF     		it	cc
 866 04c0 0021     		movcc	r1, #0
 867 04c2 2120     		movs	r0, #33
 868              	.LVL164:
 869 04c4 FFF7FEFF 		bl	_test_assert
 870              	.LVL165:
 871 04c8 0028     		cmp	r0, #0
 872 04ca 7FF4C5AD 		bne	.L1
 873              		.loc 1 190 0
 874 04ce 4421     		movs	r1, #68
 875 04d0 2046     		mov	r0, r4
 876 04d2 FFF7FEFF 		bl	chMBPostAheadI
 877              	.LVL166:
 878              		.loc 1 191 0
 879 04d6 D0F10101 		rsbs	r1, r0, #1
 880 04da 38BF     		it	cc
 881 04dc 0021     		movcc	r1, #0
 882 04de 2220     		movs	r0, #34
 883              	.LVL167:
 884 04e0 FFF7FEFF 		bl	_test_assert
 885              	.LVL168:
 886 04e4 0028     		cmp	r0, #0
 887 04e6 7FF4B7AD 		bne	.L1
 888              		.loc 1 192 0
 889 04ea 4321     		movs	r1, #67
 890 04ec 2046     		mov	r0, r4
 891 04ee FFF7FEFF 		bl	chMBPostAheadI
 892              	.LVL169:
 893              		.loc 1 193 0
 894 04f2 D0F10101 		rsbs	r1, r0, #1
 895 04f6 38BF     		it	cc
 896 04f8 0021     		movcc	r1, #0
 897 04fa 2320     		movs	r0, #35
 898              	.LVL170:
 899 04fc FFF7FEFF 		bl	_test_assert
 900              	.LVL171:
 901 0500 0028     		cmp	r0, #0
 902 0502 7FF4A9AD 		bne	.L1
 903              		.loc 1 194 0
 904 0506 4221     		movs	r1, #66
 905 0508 2046     		mov	r0, r4
 906 050a FFF7FEFF 		bl	chMBPostAheadI
 907              	.LVL172:
 908              		.loc 1 195 0
 909 050e D0F10101 		rsbs	r1, r0, #1
 910 0512 38BF     		it	cc
 911 0514 0021     		movcc	r1, #0
 912 0516 2420     		movs	r0, #36
ARM GAS  C:\cygwin\tmp\ccyJ3soa.s 			page 17


 913              	.LVL173:
 914 0518 FFF7FEFF 		bl	_test_assert
 915              	.LVL174:
 916 051c 0028     		cmp	r0, #0
 917 051e 7FF49BAD 		bne	.L1
 918              		.loc 1 196 0
 919 0522 6C4C     		ldr	r4, .L35
 920 0524 4121     		movs	r1, #65
 921 0526 2046     		mov	r0, r4
 922 0528 FFF7FEFF 		bl	chMBPostAheadI
 923              	.LVL175:
 924 052c 0546     		mov	r5, r0
 925              	.LVL176:
 926              		.loc 1 197 0
 927 052e FFF7FEFF 		bl	dbg_check_unlock
 928              	.LVL177:
 929              	.LBB31:
 930 0532 0023     		movs	r3, #0
 931              	.LVL178:
 932              	@ 197 "../../../test/testmbox.c" 1
 933 0534 83F31188 		msr     BASEPRI, r3
 934              	@ 0 "" 2
 935              	.LVL179:
 936              		.thumb
 937              	.LBE31:
 938              		.loc 1 198 0
 939 0538 2520     		movs	r0, #37
 940 053a B5EB030C 		subs	ip, r5, r3
 941              	.LVL180:
 942 053e DCF10001 		rsbs	r1, ip, #0
 943 0542 51EB0C01 		adcs	r1, r1, ip
 944 0546 FFF7FEFF 		bl	_test_assert
 945              	.LVL181:
 946 054a 0028     		cmp	r0, #0
 947 054c 7FF484AD 		bne	.L1
 948              		.loc 1 199 0
 949 0550 E168     		ldr	r1, [r4, #12]
 950 0552 A368     		ldr	r3, [r4, #8]
 951 0554 2620     		movs	r0, #38
 952 0556 B1EB030E 		subs	lr, r1, r3
 953 055a DEF10001 		rsbs	r1, lr, #0
 954 055e 51EB0E01 		adcs	r1, r1, lr
 955 0562 FFF7FEFF 		bl	_test_assert
 956              	.LVL182:
 957 0566 0028     		cmp	r0, #0
 958 0568 7FF476AD 		bne	.L1
 959 056c 0524     		movs	r4, #5
 960              	.LVL183:
 961              	.L15:
 962              	.LBB32:
 963              		.loc 1 201 0
 964 056e 2023     		movs	r3, #32
 965              	.LVL184:
 966              	@ 201 "../../../test/testmbox.c" 1
 967 0570 83F31188 		msr     BASEPRI, r3
 968              	@ 0 "" 2
 969              	.LVL185:
ARM GAS  C:\cygwin\tmp\ccyJ3soa.s 			page 18


 970              		.thumb
 971              	.LBE32:
 972              		.loc 1 202 0
 973 0574 574D     		ldr	r5, .L35
 974              		.loc 1 201 0
 975 0576 FFF7FEFF 		bl	dbg_check_lock
 976              	.LVL186:
 977              		.loc 1 202 0
 978 057a 01A9     		add	r1, sp, #4
 979 057c 2846     		mov	r0, r5
 980 057e FFF7FEFF 		bl	chMBFetchI
 981              	.LVL187:
 982 0582 0646     		mov	r6, r0
 983              	.LVL188:
 984              		.loc 1 203 0
 985 0584 FFF7FEFF 		bl	dbg_check_unlock
 986              	.LVL189:
 987              	.LBB33:
 988 0588 0023     		movs	r3, #0
 989              	.LVL190:
 990              	@ 203 "../../../test/testmbox.c" 1
 991 058a 83F31188 		msr     BASEPRI, r3
 992              	@ 0 "" 2
 993              	.LVL191:
 994              		.thumb
 995              	.LBE33:
 996              		.loc 1 204 0
 997 058e 2720     		movs	r0, #39
 998 0590 F21A     		subs	r2, r6, r3
 999              	.LVL192:
 1000 0592 5142     		rsbs	r1, r2, #0
 1001 0594 5141     		adcs	r1, r1, r2
 1002 0596 FFF7FEFF 		bl	_test_assert
 1003              	.LVL193:
 1004 059a 0028     		cmp	r0, #0
 1005 059c 7FF45CAD 		bne	.L1
 1006              		.loc 1 205 0
 1007 05a0 9DF80400 		ldrb	r0, [sp, #4]	@ zero_extendqisi2
 1008 05a4 FFF7FEFF 		bl	test_emit_token
 1009              	.LVL194:
 1010              		.loc 1 200 0
 1011 05a8 013C     		subs	r4, r4, #1
 1012 05aa E0D1     		bne	.L15
 1013              		.loc 1 207 0
 1014 05ac 2820     		movs	r0, #40
 1015 05ae 4A49     		ldr	r1, .L35+4
 1016 05b0 FFF7FEFF 		bl	_test_assert_sequence
 1017              	.LVL195:
 1018 05b4 0028     		cmp	r0, #0
 1019 05b6 7FF44FAD 		bne	.L1
 1020              	.LBB34:
 1021              		.loc 1 208 0
 1022 05ba 2023     		movs	r3, #32
 1023              	.LVL196:
 1024              	@ 208 "../../../test/testmbox.c" 1
 1025 05bc 83F31188 		msr     BASEPRI, r3
 1026              	@ 0 "" 2
ARM GAS  C:\cygwin\tmp\ccyJ3soa.s 			page 19


 1027              	.LVL197:
 1028              		.thumb
 1029              	.LBE34:
 1030 05c0 FFF7FEFF 		bl	dbg_check_lock
 1031              	.LVL198:
 1032 05c4 696A     		ldr	r1, [r5, #36]
 1033 05c6 2920     		movs	r0, #41
 1034 05c8 4B1F     		subs	r3, r1, #5
 1035 05ca 5942     		rsbs	r1, r3, #0
 1036 05cc 5941     		adcs	r1, r1, r3
 1037 05ce FFF7FEFF 		bl	_test_assert
 1038              	.LVL199:
 1039 05d2 0028     		cmp	r0, #0
 1040 05d4 78D1     		bne	.L27
 1041              		.loc 1 208 0 is_stmt 0 discriminator 2
 1042 05d6 FFF7FEFF 		bl	dbg_check_unlock
 1043              	.LVL200:
 1044              	.LBB35:
 1045 05da 2346     		mov	r3, r4
 1046              	.LVL201:
 1047              	@ 208 "../../../test/testmbox.c" 1
 1048 05dc 83F31188 		msr     BASEPRI, r3
 1049              	@ 0 "" 2
 1050              	.LVL202:
 1051              		.thumb
 1052              	.LBE35:
 1053              	.LBB36:
 1054              		.loc 1 209 0 is_stmt 1 discriminator 2
 1055 05e0 2023     		movs	r3, #32
 1056              	.LVL203:
 1057              	@ 209 "../../../test/testmbox.c" 1
 1058 05e2 83F31188 		msr     BASEPRI, r3
 1059              	@ 0 "" 2
 1060              	.LVL204:
 1061              		.thumb
 1062              	.LBE36:
 1063 05e6 FFF7FEFF 		bl	dbg_check_lock
 1064              	.LVL205:
 1065 05ea A969     		ldr	r1, [r5, #24]
 1066 05ec 2A20     		movs	r0, #42
 1067 05ee D1F10101 		rsbs	r1, r1, #1
 1068 05f2 38BF     		it	cc
 1069 05f4 0021     		movcc	r1, #0
 1070 05f6 FFF7FEFF 		bl	_test_assert
 1071              	.LVL206:
 1072 05fa 0028     		cmp	r0, #0
 1073 05fc 64D1     		bne	.L27
 1074 05fe FFF7FEFF 		bl	dbg_check_unlock
 1075              	.LVL207:
 1076              	.LBB37:
 1077 0602 2346     		mov	r3, r4
 1078              	.LVL208:
 1079              	@ 209 "../../../test/testmbox.c" 1
 1080 0604 83F31188 		msr     BASEPRI, r3
 1081              	@ 0 "" 2
 1082              	.LVL209:
 1083              		.thumb
ARM GAS  C:\cygwin\tmp\ccyJ3soa.s 			page 20


 1084              	.LBE37:
 1085              		.loc 1 210 0 discriminator 2
 1086 0608 E968     		ldr	r1, [r5, #12]
 1087 060a AB68     		ldr	r3, [r5, #8]
 1088              	.LVL210:
 1089 060c 2B20     		movs	r0, #43
 1090 060e B1EB030C 		subs	ip, r1, r3
 1091 0612 DCF10001 		rsbs	r1, ip, #0
 1092 0616 51EB0C01 		adcs	r1, r1, ip
 1093 061a FFF7FEFF 		bl	_test_assert
 1094              	.LVL211:
 1095 061e 0028     		cmp	r0, #0
 1096 0620 7FF41AAD 		bne	.L1
 1097              		.loc 1 215 0
 1098 0624 2846     		mov	r0, r5
 1099 0626 FFF7FEFF 		bl	chMBReset
 1100              	.LVL212:
 1101              	.LBB38:
 1102              		.loc 1 220 0
 1103 062a 2023     		movs	r3, #32
 1104              	.LVL213:
 1105              	@ 220 "../../../test/testmbox.c" 1
 1106 062c 83F31188 		msr     BASEPRI, r3
 1107              	@ 0 "" 2
 1108              	.LVL214:
 1109              		.thumb
 1110              	.LBE38:
 1111 0630 FFF7FEFF 		bl	dbg_check_lock
 1112              	.LVL215:
 1113 0634 696A     		ldr	r1, [r5, #36]
 1114 0636 2C20     		movs	r0, #44
 1115 0638 B1F1050E 		subs	lr, r1, #5
 1116 063c DEF10001 		rsbs	r1, lr, #0
 1117 0640 51EB0E01 		adcs	r1, r1, lr
 1118 0644 FFF7FEFF 		bl	_test_assert
 1119              	.LVL216:
 1120 0648 0028     		cmp	r0, #0
 1121 064a 3DD1     		bne	.L27
 1122              		.loc 1 220 0 is_stmt 0 discriminator 2
 1123 064c FFF7FEFF 		bl	dbg_check_unlock
 1124              	.LVL217:
 1125              	.LBB39:
 1126 0650 2346     		mov	r3, r4
 1127              	.LVL218:
 1128              	@ 220 "../../../test/testmbox.c" 1
 1129 0652 83F31188 		msr     BASEPRI, r3
 1130              	@ 0 "" 2
 1131              	.LVL219:
 1132              		.thumb
 1133              	.LBE39:
 1134              	.LBB40:
 1135              		.loc 1 221 0 is_stmt 1 discriminator 2
 1136 0656 2023     		movs	r3, #32
 1137              	.LVL220:
 1138              	@ 221 "../../../test/testmbox.c" 1
 1139 0658 83F31188 		msr     BASEPRI, r3
 1140              	@ 0 "" 2
ARM GAS  C:\cygwin\tmp\ccyJ3soa.s 			page 21


 1141              	.LVL221:
 1142              		.thumb
 1143              	.LBE40:
 1144 065c FFF7FEFF 		bl	dbg_check_lock
 1145              	.LVL222:
 1146 0660 A969     		ldr	r1, [r5, #24]
 1147 0662 2D20     		movs	r0, #45
 1148 0664 D1F10101 		rsbs	r1, r1, #1
 1149 0668 38BF     		it	cc
 1150 066a 0021     		movcc	r1, #0
 1151 066c FFF7FEFF 		bl	_test_assert
 1152              	.LVL223:
 1153 0670 50BB     		cbnz	r0, .L27
 1154 0672 FFF7FEFF 		bl	dbg_check_unlock
 1155              	.LVL224:
 1156              	.LBB41:
 1157 0676 2346     		mov	r3, r4
 1158              	.LVL225:
 1159              	@ 221 "../../../test/testmbox.c" 1
 1160 0678 83F31188 		msr     BASEPRI, r3
 1161              	@ 0 "" 2
 1162              	.LVL226:
 1163              		.thumb
 1164              	.LBE41:
 1165              	.LBB42:
 1166              		.loc 1 222 0 discriminator 2
 1167 067c 2023     		movs	r3, #32
 1168              	.LVL227:
 1169              	@ 222 "../../../test/testmbox.c" 1
 1170 067e 83F31188 		msr     BASEPRI, r3
 1171              	@ 0 "" 2
 1172              	.LVL228:
 1173              		.thumb
 1174              	.LBE42:
 1175 0682 FFF7FEFF 		bl	dbg_check_lock
 1176              	.LVL229:
 1177 0686 2968     		ldr	r1, [r5, #0]
 1178 0688 AB68     		ldr	r3, [r5, #8]
 1179 068a 2E20     		movs	r0, #46
 1180 068c CA1A     		subs	r2, r1, r3
 1181 068e 5142     		rsbs	r1, r2, #0
 1182 0690 5141     		adcs	r1, r1, r2
 1183 0692 FFF7FEFF 		bl	_test_assert
 1184              	.LVL230:
 1185 0696 B8B9     		cbnz	r0, .L27
 1186 0698 FFF7FEFF 		bl	dbg_check_unlock
 1187              	.LVL231:
 1188              	.LBB43:
 1189 069c 2346     		mov	r3, r4
 1190              	.LVL232:
 1191              	@ 222 "../../../test/testmbox.c" 1
 1192 069e 83F31188 		msr     BASEPRI, r3
 1193              	@ 0 "" 2
 1194              	.LVL233:
 1195              		.thumb
 1196              	.LBE43:
 1197              	.LBB44:
ARM GAS  C:\cygwin\tmp\ccyJ3soa.s 			page 22


 1198              		.loc 1 223 0 discriminator 2
 1199 06a2 2023     		movs	r3, #32
 1200              	.LVL234:
 1201              	@ 223 "../../../test/testmbox.c" 1
 1202 06a4 83F31188 		msr     BASEPRI, r3
 1203              	@ 0 "" 2
 1204              	.LVL235:
 1205              		.thumb
 1206              	.LBE44:
 1207 06a8 FFF7FEFF 		bl	dbg_check_lock
 1208              	.LVL236:
 1209 06ac 2968     		ldr	r1, [r5, #0]
 1210 06ae EB68     		ldr	r3, [r5, #12]
 1211 06b0 2F20     		movs	r0, #47
 1212 06b2 CB1A     		subs	r3, r1, r3
 1213 06b4 5942     		rsbs	r1, r3, #0
 1214 06b6 5941     		adcs	r1, r1, r3
 1215 06b8 FFF7FEFF 		bl	_test_assert
 1216              	.LVL237:
 1217              	.L21:
 1218 06bc FFF7FEFF 		bl	dbg_check_unlock
 1219              	.LVL238:
 1220              	.LBB45:
 1221 06c0 0023     		movs	r3, #0
 1222              	@ 223 "../../../test/testmbox.c" 1
 1223 06c2 83F31188 		msr     BASEPRI, r3
 1224              	@ 0 "" 2
 1225              	.LVL239:
 1226              		.thumb
 1227 06c6 C7E4     		b	.L1
 1228              	.LVL240:
 1229              	.L27:
 1230              	.LBE45:
 1231              		.loc 1 222 0 discriminator 1
 1232 06c8 FFF7FEFF 		bl	dbg_check_unlock
 1233              	.LVL241:
 1234              	.LBB46:
 1235 06cc 2346     		mov	r3, r4
 1236              	@ 222 "../../../test/testmbox.c" 1
 1237 06ce 83F31188 		msr     BASEPRI, r3
 1238              	@ 0 "" 2
 1239              	.LVL242:
 1240              		.thumb
 1241 06d2 C1E4     		b	.L1
 1242              	.L36:
 1243              		.align	2
 1244              	.L35:
 1245 06d4 00000000 		.word	.LANCHOR0
 1246 06d8 00000000 		.word	.LC0
 1247              	.LBE46:
 1248              		.cfi_endproc
 1249              	.LFE8:
 1250              		.size	mbox1_execute, .-mbox1_execute
 1251 06dc AFF30080 		.section	.text.mbox1_setup,"ax",%progbits
 1252              		.align	2
 1253              		.p2align 4,,15
 1254              		.thumb
ARM GAS  C:\cygwin\tmp\ccyJ3soa.s 			page 23


 1255              		.thumb_func
 1256              		.type	mbox1_setup, %function
 1257              	mbox1_setup:
 1258              	.LFB7:
 1259              		.loc 1 75 0
 1260              		.cfi_startproc
 1261              		@ args = 0, pretend = 0, frame = 0
 1262              		@ frame_needed = 0, uses_anonymous_args = 0
 1263              		@ link register save eliminated.
 1264              		.loc 1 77 0
 1265 0000 40F20000 		movw	r0, #:lower16:.LANCHOR0
 1266 0004 40F20001 		movw	r1, #:lower16:test
 1267 0008 C0F20000 		movt	r0, #:upper16:.LANCHOR0
 1268 000c C0F20001 		movt	r1, #:upper16:test
 1269 0010 0522     		movs	r2, #5
 1270              		.loc 1 78 0
 1271              		.loc 1 77 0
 1272 0012 FFF7FEBF 		b	chMBInit
 1273              	.LVL243:
 1274              		.cfi_endproc
 1275              	.LFE7:
 1276              		.size	mbox1_setup, .-mbox1_setup
 1277              		.global	patternmbox
 1278              		.global	testmbox1
 1279 0016 00BFAFF3 		.section	.data.mb1,"aw",%progbits
 1279      0080AFF3 
 1279      0080
 1280              		.align	2
 1281              		.set	.LANCHOR0,. + 0
 1282              		.type	mb1, %object
 1283              		.size	mb1, 40
 1284              	mb1:
 1285 0000 00000000 		.word	test
 1286 0004 14000000 		.word	test+20
 1287 0008 00000000 		.word	test
 1288 000c 00000000 		.word	test
 1289 0010 10000000 		.word	mb1+16
 1290 0014 10000000 		.word	mb1+16
 1291 0018 00000000 		.word	0
 1292 001c 1C000000 		.word	mb1+28
 1293 0020 1C000000 		.word	mb1+28
 1294 0024 05000000 		.word	5
 1295              		.section	.rodata.patternmbox,"a",%progbits
 1296              		.align	2
 1297              		.type	patternmbox, %object
 1298              		.size	patternmbox, 8
 1299              	patternmbox:
 1300 0000 00000000 		.word	testmbox1
 1301 0004 00000000 		.word	0
 1302              		.section	.rodata.str1.4,"aMS",%progbits,1
 1303              		.align	2
 1304              	.LC0:
 1305 0000 41424344 		.ascii	"ABCDE\000"
 1305      4500
 1306 0006 0000     		.space	2
 1307              	.LC1:
 1308 0008 4D61696C 		.ascii	"Mailboxes, queuing and timeouts\000"
ARM GAS  C:\cygwin\tmp\ccyJ3soa.s 			page 24


 1308      626F7865 
 1308      732C2071 
 1308      75657569 
 1308      6E672061 
 1309              		.section	.rodata.testmbox1,"a",%progbits
 1310              		.align	2
 1311              		.type	testmbox1, %object
 1312              		.size	testmbox1, 16
 1313              	testmbox1:
 1314 0000 08000000 		.word	.LC1
 1315 0004 00000000 		.word	mbox1_setup
 1316 0008 00000000 		.word	0
 1317 000c 00000000 		.word	mbox1_execute
 1318              		.text
 1319              	.Letext0:
 1320              		.file 2 "c:/develop/genist/chibistudio/tools/yagarto-tools/yagarto-20121222/lib/gcc/../../arm-none
 1321              		.file 3 "../../../os/ports/GCC/ARMCMx/chtypes.h"
 1322              		.file 4 "../../../os/kernel/include/chlists.h"
 1323              		.file 5 "../../../os/kernel/include/chthreads.h"
 1324              		.file 6 "../../../os/ports/GCC/ARMCMx/chcore_v7m.h"
 1325              		.file 7 "../../../os/kernel/include/chsem.h"
 1326              		.file 8 "../../../os/kernel/include/chmtx.h"
 1327              		.file 9 "../../../os/kernel/include/chmboxes.h"
 1328              		.file 10 "../../../test/test.h"
 1329              		.file 11 "../../../os/kernel/include/chdebug.h"