ARM GAS  C:\Users\TaisikHam\AppData\Local\Temp\cce7eCj2.s 			page 1


   1              		.syntax unified
   2              		.cpu cortex-m4
   3              		.fpu softvfp
   4              		.eabi_attribute 20, 1
   5              		.eabi_attribute 21, 1
   6              		.eabi_attribute 23, 3
   7              		.eabi_attribute 24, 1
   8              		.eabi_attribute 25, 1
   9              		.eabi_attribute 26, 1
  10              		.eabi_attribute 30, 2
  11              		.eabi_attribute 34, 1
  12              		.eabi_attribute 18, 4
  13              		.thumb
  14              		.file	"test.c"
  15              		.text
  16              	.Ltext0:
  17              		.cfi_sections	.debug_frame
  18              		.section	.text.tmr,"ax",%progbits
  19              		.align	2
  20              		.p2align 4,,15
  21              		.thumb
  22              		.thumb_func
  23              		.type	tmr, %function
  24              	tmr:
  25              	.LFB132:
  26              		.file 1 "../../../test/test.c"
  27              		.loc 1 265 0
  28              		.cfi_startproc
  29              		@ args = 0, pretend = 0, frame = 0
  30              		@ frame_needed = 0, uses_anonymous_args = 0
  31              		@ link register save eliminated.
  32              	.LVL0:
  33              		.loc 1 268 0
  34 0000 40F20003 		movw	r3, #:lower16:.LANCHOR0
  35 0004 C0F20003 		movt	r3, #:upper16:.LANCHOR0
  36 0008 0122     		movs	r2, #1
  37 000a 1A70     		strb	r2, [r3, #0]
  38 000c 7047     		bx	lr
  39              		.cfi_endproc
  40              	.LFE132:
  41              		.size	tmr, .-tmr
  42              		.section	.text.print_line,"ax",%progbits
  43              		.align	2
  44              		.p2align 4,,15
  45              		.thumb
  46              		.thumb_func
  47              		.type	print_line, %function
  48              	print_line:
  49              	.LFB135:
  50              		.loc 1 304 0
  51              		.cfi_startproc
  52              		@ args = 0, pretend = 0, frame = 0
  53              		@ frame_needed = 0, uses_anonymous_args = 0
  54              	.LVL1:
  55 0000 38B5     		push	{r3, r4, r5, lr}
  56              	.LCFI0:
  57              		.cfi_def_cfa_offset 16
ARM GAS  C:\Users\TaisikHam\AppData\Local\Temp\cce7eCj2.s 			page 2


  58              		.cfi_offset 3, -16
  59              		.cfi_offset 4, -12
  60              		.cfi_offset 5, -8
  61              		.cfi_offset 14, -4
  62 0002 084D     		ldr	r5, .L6
  63              		.loc 1 304 0
  64 0004 4C24     		movs	r4, #76
  65              	.LVL2:
  66              	.L3:
  67              		.loc 1 308 0 discriminator 2
  68 0006 2868     		ldr	r0, [r5, #0]
  69 0008 0368     		ldr	r3, [r0, #0]
  70 000a 2D21     		movs	r1, #45
  71 000c 9B68     		ldr	r3, [r3, #8]
  72 000e 9847     		blx	r3
  73              	.LVL3:
  74              		.loc 1 307 0 discriminator 2
  75 0010 013C     		subs	r4, r4, #1
  76 0012 F8D1     		bne	.L3
  77              		.loc 1 309 0
  78 0014 034B     		ldr	r3, .L6
  79 0016 0449     		ldr	r1, .L6+4
  80 0018 1868     		ldr	r0, [r3, #0]
  81 001a 0368     		ldr	r3, [r0, #0]
  82 001c 0222     		movs	r2, #2
  83 001e 1B68     		ldr	r3, [r3, #0]
  84 0020 9847     		blx	r3
  85              	.LVL4:
  86 0022 38BD     		pop	{r3, r4, r5, pc}
  87              	.L7:
  88              		.align	2
  89              	.L6:
  90 0024 00000000 		.word	.LANCHOR1
  91 0028 00000000 		.word	.LC0
  92              		.cfi_endproc
  93              	.LFE135:
  94              		.size	print_line, .-print_line
  95 002c AFF30080 		.section	.text.test_printn,"ax",%progbits
  96              		.align	2
  97              		.p2align 4,,15
  98              		.global	test_printn
  99              		.thumb
 100              		.thumb_func
 101              		.type	test_printn, %function
 102              	test_printn:
 103              	.LFB118:
 104              		.loc 1 95 0
 105              		.cfi_startproc
 106              		@ args = 0, pretend = 0, frame = 16
 107              		@ frame_needed = 0, uses_anonymous_args = 0
 108              	.LVL5:
 109 0000 70B5     		push	{r4, r5, r6, lr}
 110              	.LCFI1:
 111              		.cfi_def_cfa_offset 16
 112              		.cfi_offset 4, -16
 113              		.cfi_offset 5, -12
 114              		.cfi_offset 6, -8
ARM GAS  C:\Users\TaisikHam\AppData\Local\Temp\cce7eCj2.s 			page 3


 115              		.cfi_offset 14, -4
 116 0002 84B0     		sub	sp, sp, #16
 117              	.LCFI2:
 118              		.cfi_def_cfa_offset 32
 119              		.loc 1 98 0
 120 0004 0028     		cmp	r0, #0
 121 0006 26D0     		beq	.L16
 122              	.LBB50:
 123              	.LBB51:
 124              		.loc 1 95 0
 125 0008 0DF10105 		add	r5, sp, #1
 126              	.LBE51:
 127              	.LBE50:
 128              		.loc 1 103 0
 129 000c 4CF6CD46 		movw	r6, #52429
 130              	.LBB54:
 131              	.LBB52:
 132              		.loc 1 95 0
 133 0010 2B46     		mov	r3, r5
 134              	.LBE52:
 135              	.LBE54:
 136              		.loc 1 103 0
 137 0012 CCF6CC46 		movt	r6, 52428
 138              	.LVL6:
 139              	.L11:
 140 0016 A6FB0012 		umull	r1, r2, r6, r0
 141 001a D208     		lsrs	r2, r2, #3
 142 001c 02EB8201 		add	r1, r2, r2, lsl #2
 143 0020 A0EB4101 		sub	r1, r0, r1, lsl #1
 144 0024 3031     		adds	r1, r1, #48
 145 0026 C9B2     		uxtb	r1, r1
 146              		.loc 1 95 0
 147 0028 1C46     		mov	r4, r3
 148              		.loc 1 103 0
 149 002a 03F8011C 		strb	r1, [r3, #-1]
 150              	.LVL7:
 151              		.loc 1 102 0
 152 002e 1046     		mov	r0, r2
 153 0030 0133     		adds	r3, r3, #1
 154              	.LVL8:
 155 0032 002A     		cmp	r2, #0
 156 0034 EFD1     		bne	.L11
 157              		.loc 1 104 0 discriminator 1
 158 0036 6B46     		mov	r3, sp
 159 0038 9C42     		cmp	r4, r3
 160 003a 0AD9     		bls	.L8
 161 003c 094E     		ldr	r6, .L18
 162 003e 02E0     		b	.L14
 163              	.LVL9:
 164              	.L17:
 165 0040 14F8021C 		ldrb	r1, [r4, #-2]	@ zero_extendqisi2
 166 0044 013C     		subs	r4, r4, #1
 167              	.L14:
 168              		.loc 1 105 0
 169 0046 3068     		ldr	r0, [r6, #0]
 170 0048 0368     		ldr	r3, [r0, #0]
 171 004a 9B68     		ldr	r3, [r3, #8]
ARM GAS  C:\Users\TaisikHam\AppData\Local\Temp\cce7eCj2.s 			page 4


 172 004c 9847     		blx	r3
 173              	.LVL10:
 174              		.loc 1 104 0
 175 004e AC42     		cmp	r4, r5
 176 0050 F6D1     		bne	.L17
 177              	.L8:
 178              		.loc 1 107 0
 179 0052 04B0     		add	sp, sp, #16
 180 0054 70BD     		pop	{r4, r5, r6, pc}
 181              	.LVL11:
 182              	.L16:
 183              	.LBB55:
 184              	.LBB53:
 185              		.loc 1 99 0
 186 0056 034B     		ldr	r3, .L18
 187 0058 1868     		ldr	r0, [r3, #0]
 188              	.LVL12:
 189 005a 0368     		ldr	r3, [r0, #0]
 190 005c 3021     		movs	r1, #48
 191 005e 9B68     		ldr	r3, [r3, #8]
 192 0060 9847     		blx	r3
 193              	.LVL13:
 194 0062 F6E7     		b	.L8
 195              	.L19:
 196              		.align	2
 197              	.L18:
 198 0064 00000000 		.word	.LANCHOR1
 199              	.LBE53:
 200              	.LBE55:
 201              		.cfi_endproc
 202              	.LFE118:
 203              		.size	test_printn, .-test_printn
 204 0068 AFF30080 		.section	.text.test_print,"ax",%progbits
 204      AFF30080 
 205              		.align	2
 206              		.p2align 4,,15
 207              		.global	test_print
 208              		.thumb
 209              		.thumb_func
 210              		.type	test_print, %function
 211              	test_print:
 212              	.LFB119:
 213              		.loc 1 114 0
 214              		.cfi_startproc
 215              		@ args = 0, pretend = 0, frame = 0
 216              		@ frame_needed = 0, uses_anonymous_args = 0
 217              	.LVL14:
 218 0000 38B5     		push	{r3, r4, r5, lr}
 219              	.LCFI3:
 220              		.cfi_def_cfa_offset 16
 221              		.cfi_offset 3, -16
 222              		.cfi_offset 4, -12
 223              		.cfi_offset 5, -8
 224              		.cfi_offset 14, -4
 225              		.loc 1 116 0
 226 0002 0178     		ldrb	r1, [r0, #0]	@ zero_extendqisi2
 227 0004 49B1     		cbz	r1, .L20
ARM GAS  C:\Users\TaisikHam\AppData\Local\Temp\cce7eCj2.s 			page 5


 228 0006 054D     		ldr	r5, .L25
 229 0008 0446     		mov	r4, r0
 230              	.LVL15:
 231              	.L22:
 232              		.loc 1 117 0
 233 000a 2868     		ldr	r0, [r5, #0]
 234 000c 0368     		ldr	r3, [r0, #0]
 235 000e 9B68     		ldr	r3, [r3, #8]
 236 0010 9847     		blx	r3
 237              	.LVL16:
 238              		.loc 1 116 0
 239 0012 14F8011F 		ldrb	r1, [r4, #1]!	@ zero_extendqisi2
 240 0016 0029     		cmp	r1, #0
 241 0018 F7D1     		bne	.L22
 242              	.L20:
 243 001a 38BD     		pop	{r3, r4, r5, pc}
 244              	.L26:
 245              		.align	2
 246              	.L25:
 247 001c 00000000 		.word	.LANCHOR1
 248              		.cfi_endproc
 249              	.LFE119:
 250              		.size	test_print, .-test_print
 251              		.section	.text.test_println,"ax",%progbits
 252              		.align	2
 253              		.p2align 4,,15
 254              		.global	test_println
 255              		.thumb
 256              		.thumb_func
 257              		.type	test_println, %function
 258              	test_println:
 259              	.LFB120:
 260              		.loc 1 125 0
 261              		.cfi_startproc
 262              		@ args = 0, pretend = 0, frame = 0
 263              		@ frame_needed = 0, uses_anonymous_args = 0
 264              	.LVL17:
 265 0000 38B5     		push	{r3, r4, r5, lr}
 266              	.LCFI4:
 267              		.cfi_def_cfa_offset 16
 268              		.cfi_offset 3, -16
 269              		.cfi_offset 4, -12
 270              		.cfi_offset 5, -8
 271              		.cfi_offset 14, -4
 272              	.LBB56:
 273              	.LBB57:
 274              		.loc 1 116 0
 275 0002 0178     		ldrb	r1, [r0, #0]	@ zero_extendqisi2
 276 0004 084D     		ldr	r5, .L33
 277 0006 41B1     		cbz	r1, .L30
 278 0008 0446     		mov	r4, r0
 279              	.LVL18:
 280              	.L29:
 281              		.loc 1 117 0
 282 000a 2868     		ldr	r0, [r5, #0]
 283 000c 0368     		ldr	r3, [r0, #0]
 284 000e 9B68     		ldr	r3, [r3, #8]
ARM GAS  C:\Users\TaisikHam\AppData\Local\Temp\cce7eCj2.s 			page 6


 285 0010 9847     		blx	r3
 286              	.LVL19:
 287              		.loc 1 116 0
 288 0012 14F8011F 		ldrb	r1, [r4, #1]!	@ zero_extendqisi2
 289 0016 0029     		cmp	r1, #0
 290 0018 F7D1     		bne	.L29
 291              	.L30:
 292              	.LBE57:
 293              	.LBE56:
 294              		.loc 1 128 0
 295 001a 2868     		ldr	r0, [r5, #0]
 296 001c 0349     		ldr	r1, .L33+4
 297 001e 0368     		ldr	r3, [r0, #0]
 298 0020 0222     		movs	r2, #2
 299 0022 1B68     		ldr	r3, [r3, #0]
 300 0024 9847     		blx	r3
 301              	.LVL20:
 302 0026 38BD     		pop	{r3, r4, r5, pc}
 303              	.L34:
 304              		.align	2
 305              	.L33:
 306 0028 00000000 		.word	.LANCHOR1
 307 002c 00000000 		.word	.LC0
 308              		.cfi_endproc
 309              	.LFE120:
 310              		.size	test_println, .-test_println
 311              		.section	.text.test_emit_token,"ax",%progbits
 312              		.align	2
 313              		.p2align 4,,15
 314              		.global	test_emit_token
 315              		.thumb
 316              		.thumb_func
 317              		.type	test_emit_token, %function
 318              	test_emit_token:
 319              	.LFB123:
 320              		.loc 1 151 0
 321              		.cfi_startproc
 322              		@ args = 0, pretend = 0, frame = 0
 323              		@ frame_needed = 0, uses_anonymous_args = 0
 324              	.LVL21:
 325 0000 10B5     		push	{r4, lr}
 326              	.LCFI5:
 327              		.cfi_def_cfa_offset 8
 328              		.cfi_offset 4, -8
 329              		.cfi_offset 14, -4
 330              	.LBB58:
 331              		.loc 1 153 0
 332 0002 2023     		movs	r3, #32
 333              	.LVL22:
 334              	.LBE58:
 335              		.loc 1 151 0
 336 0004 0446     		mov	r4, r0
 337              	.LBB59:
 338              		.loc 1 153 0
 339              	@ 153 "../../../test/test.c" 1
 340 0006 83F31188 		msr     BASEPRI, r3
 341              	@ 0 "" 2
ARM GAS  C:\Users\TaisikHam\AppData\Local\Temp\cce7eCj2.s 			page 7


 342              	.LVL23:
 343              		.thumb
 344              	.LBE59:
 345 000a FFF7FEFF 		bl	dbg_check_lock
 346              	.LVL24:
 347              		.loc 1 154 0
 348 000e 40F20003 		movw	r3, #:lower16:.LANCHOR2
 349 0012 C0F20003 		movt	r3, #:upper16:.LANCHOR2
 350 0016 1A68     		ldr	r2, [r3, #0]
 351 0018 02F8014B 		strb	r4, [r2], #1
 352 001c 1A60     		str	r2, [r3, #0]
 353              		.loc 1 155 0
 354 001e FFF7FEFF 		bl	dbg_check_unlock
 355              	.LVL25:
 356              	.LBB60:
 357 0022 0023     		movs	r3, #0
 358              	.LVL26:
 359              	@ 155 "../../../test/test.c" 1
 360 0024 83F31188 		msr     BASEPRI, r3
 361              	@ 0 "" 2
 362              	.LVL27:
 363              		.thumb
 364 0028 10BD     		pop	{r4, pc}
 365              	.LBE60:
 366              		.cfi_endproc
 367              	.LFE123:
 368              		.size	test_emit_token, .-test_emit_token
 369 002a 00BFAFF3 		.section	.text._test_fail,"ax",%progbits
 369      0080
 370              		.align	2
 371              		.p2align 4,,15
 372              		.global	_test_fail
 373              		.thumb
 374              		.thumb_func
 375              		.type	_test_fail, %function
 376              	_test_fail:
 377              	.LFB124:
 378              		.loc 1 161 0
 379              		.cfi_startproc
 380              		@ args = 0, pretend = 0, frame = 0
 381              		@ frame_needed = 0, uses_anonymous_args = 0
 382              		@ link register save eliminated.
 383              	.LVL28:
 384 0000 10B4     		push	{r4}
 385              	.LCFI6:
 386              		.cfi_def_cfa_offset 4
 387              		.cfi_offset 4, -4
 388              		.loc 1 163 0
 389 0002 40F20001 		movw	r1, #:lower16:.LANCHOR3
 390              		.loc 1 164 0
 391 0006 40F20002 		movw	r2, #:lower16:.LANCHOR4
 392              		.loc 1 165 0
 393 000a 40F20004 		movw	r4, #:lower16:.LANCHOR5
 394              		.loc 1 163 0
 395 000e C0F20001 		movt	r1, #:upper16:.LANCHOR3
 396              		.loc 1 164 0
 397 0012 C0F20002 		movt	r2, #:upper16:.LANCHOR4
ARM GAS  C:\Users\TaisikHam\AppData\Local\Temp\cce7eCj2.s 			page 8


 398              		.loc 1 165 0
 399 0016 C0F20004 		movt	r4, #:upper16:.LANCHOR5
 400              		.loc 1 163 0
 401 001a 0123     		movs	r3, #1
 402              		.loc 1 165 0
 403 001c 2060     		str	r0, [r4, #0]
 404              		.loc 1 163 0
 405 001e 0B70     		strb	r3, [r1, #0]
 406              		.loc 1 164 0
 407 0020 1370     		strb	r3, [r2, #0]
 408              		.loc 1 167 0
 409 0022 1846     		mov	r0, r3
 410              	.LVL29:
 411 0024 10BC     		pop	{r4}
 412 0026 7047     		bx	lr
 413              		.cfi_endproc
 414              	.LFE124:
 415              		.size	_test_fail, .-_test_fail
 416 0028 AFF30080 		.section	.text._test_assert,"ax",%progbits
 416      AFF30080 
 417              		.align	2
 418              		.p2align 4,,15
 419              		.global	_test_assert
 420              		.thumb
 421              		.thumb_func
 422              		.type	_test_assert, %function
 423              	_test_assert:
 424              	.LFB125:
 425              		.loc 1 169 0
 426              		.cfi_startproc
 427              		@ args = 0, pretend = 0, frame = 0
 428              		@ frame_needed = 0, uses_anonymous_args = 0
 429              		@ link register save eliminated.
 430              	.LVL30:
 431              		.loc 1 171 0
 432 0000 41B9     		cbnz	r1, .L39
 433              	.LVL31:
 434              	.LBB61:
 435              	.LBB62:
 436              		.loc 1 163 0
 437 0002 054A     		ldr	r2, .L40
 438 0004 0123     		movs	r3, #1
 439 0006 1370     		strb	r3, [r2, #0]
 440              		.loc 1 164 0
 441 0008 044A     		ldr	r2, .L40+4
 442 000a 1370     		strb	r3, [r2, #0]
 443              		.loc 1 165 0
 444 000c 044A     		ldr	r2, .L40+8
 445 000e 1060     		str	r0, [r2, #0]
 446              	.LBE62:
 447              	.LBE61:
 448              		.loc 1 172 0
 449 0010 1846     		mov	r0, r3
 450              	.LVL32:
 451 0012 7047     		bx	lr
 452              	.LVL33:
 453              	.L39:
ARM GAS  C:\Users\TaisikHam\AppData\Local\Temp\cce7eCj2.s 			page 9


 454              		.loc 1 173 0
 455 0014 0020     		movs	r0, #0
 456              	.LVL34:
 457              		.loc 1 174 0
 458 0016 7047     		bx	lr
 459              	.L41:
 460              		.align	2
 461              	.L40:
 462 0018 00000000 		.word	.LANCHOR3
 463 001c 00000000 		.word	.LANCHOR4
 464 0020 00000000 		.word	.LANCHOR5
 465              		.cfi_endproc
 466              	.LFE125:
 467              		.size	_test_assert, .-_test_assert
 468 0024 AFF30080 		.section	.text._test_assert_sequence,"ax",%progbits
 468      AFF30080 
 468      AFF30080 
 469              		.align	2
 470              		.p2align 4,,15
 471              		.global	_test_assert_sequence
 472              		.thumb
 473              		.thumb_func
 474              		.type	_test_assert_sequence, %function
 475              	_test_assert_sequence:
 476              	.LFB126:
 477              		.loc 1 176 0
 478              		.cfi_startproc
 479              		@ args = 0, pretend = 0, frame = 0
 480              		@ frame_needed = 0, uses_anonymous_args = 0
 481              		@ link register save eliminated.
 482              	.LVL35:
 483 0000 F0B4     		push	{r4, r5, r6, r7}
 484              	.LCFI7:
 485              		.cfi_def_cfa_offset 16
 486              		.cfi_offset 4, -16
 487              		.cfi_offset 5, -12
 488              		.cfi_offset 6, -8
 489              		.cfi_offset 7, -4
 490 0002 0F4E     		ldr	r6, .L49
 491              		.loc 1 177 0
 492 0004 0F4F     		ldr	r7, .L49+4
 493 0006 3568     		ldr	r5, [r6, #0]
 494 0008 3B46     		mov	r3, r7
 495              		.loc 1 178 0
 496 000a 04E0     		b	.L43
 497              	.LVL36:
 498              	.L45:
 499              		.loc 1 179 0
 500 000c 11F8014B 		ldrb	r4, [r1], #1	@ zero_extendqisi2
 501              	.LVL37:
 502 0010 1278     		ldrb	r2, [r2, #0]	@ zero_extendqisi2
 503 0012 A242     		cmp	r2, r4
 504 0014 09D1     		bne	.L48
 505              	.L43:
 506              		.loc 1 178 0 discriminator 1
 507 0016 9D42     		cmp	r5, r3
 508 0018 1A46     		mov	r2, r3
ARM GAS  C:\Users\TaisikHam\AppData\Local\Temp\cce7eCj2.s 			page 10


 509 001a 03F10103 		add	r3, r3, #1
 510 001e F5D8     		bhi	.L45
 511              		.loc 1 182 0
 512 0020 0B78     		ldrb	r3, [r1, #0]	@ zero_extendqisi2
 513 0022 13B9     		cbnz	r3, .L48
 514              	.LBB63:
 515              	.LBB64:
 516              		.loc 1 136 0
 517 0024 3760     		str	r7, [r6, #0]
 518              	.LBE64:
 519              	.LBE63:
 520              		.loc 1 185 0
 521 0026 1846     		mov	r0, r3
 522              	.LVL38:
 523 0028 07E0     		b	.L44
 524              	.LVL39:
 525              	.L48:
 526              	.LBB65:
 527              	.LBB66:
 528              		.loc 1 163 0
 529 002a 074A     		ldr	r2, .L49+8
 530 002c 0123     		movs	r3, #1
 531 002e 1370     		strb	r3, [r2, #0]
 532              		.loc 1 164 0
 533 0030 064A     		ldr	r2, .L49+12
 534 0032 1370     		strb	r3, [r2, #0]
 535              		.loc 1 165 0
 536 0034 064A     		ldr	r2, .L49+16
 537 0036 1060     		str	r0, [r2, #0]
 538              	.LBE66:
 539              	.LBE65:
 540              		.loc 1 183 0
 541 0038 1846     		mov	r0, r3
 542              	.LVL40:
 543              	.L44:
 544              		.loc 1 186 0
 545 003a F0BC     		pop	{r4, r5, r6, r7}
 546 003c 7047     		bx	lr
 547              	.L50:
 548 003e 00BF     		.align	2
 549              	.L49:
 550 0040 00000000 		.word	.LANCHOR2
 551 0044 00000000 		.word	.LANCHOR6
 552 0048 00000000 		.word	.LANCHOR3
 553 004c 00000000 		.word	.LANCHOR4
 554 0050 00000000 		.word	.LANCHOR5
 555              		.cfi_endproc
 556              	.LFE126:
 557              		.size	_test_assert_sequence, .-_test_assert_sequence
 558 0054 AFF30080 		.section	.text._test_assert_time_window,"ax",%progbits
 558      AFF30080 
 558      AFF30080 
 559              		.align	2
 560              		.p2align 4,,15
 561              		.global	_test_assert_time_window
 562              		.thumb
 563              		.thumb_func
ARM GAS  C:\Users\TaisikHam\AppData\Local\Temp\cce7eCj2.s 			page 11


 564              		.type	_test_assert_time_window, %function
 565              	_test_assert_time_window:
 566              	.LFB127:
 567              		.loc 1 188 0
 568              		.cfi_startproc
 569              		@ args = 0, pretend = 0, frame = 0
 570              		@ frame_needed = 0, uses_anonymous_args = 0
 571              	.LVL41:
 572 0000 10B5     		push	{r4, lr}
 573              	.LCFI8:
 574              		.cfi_def_cfa_offset 8
 575              		.cfi_offset 4, -8
 576              		.cfi_offset 14, -4
 577              		.loc 1 188 0
 578 0002 0446     		mov	r4, r0
 579              		.loc 1 190 0
 580 0004 0846     		mov	r0, r1
 581              	.LVL42:
 582 0006 1146     		mov	r1, r2
 583              	.LVL43:
 584 0008 FFF7FEFF 		bl	chTimeIsWithin
 585              	.LVL44:
 586              	.LBB67:
 587              	.LBB68:
 588              		.loc 1 171 0
 589 000c 40B9     		cbnz	r0, .L53
 590              	.LVL45:
 591              	.LBB69:
 592              	.LBB70:
 593              		.loc 1 163 0
 594 000e 054A     		ldr	r2, .L54
 595 0010 0123     		movs	r3, #1
 596 0012 1370     		strb	r3, [r2, #0]
 597              		.loc 1 164 0
 598 0014 044A     		ldr	r2, .L54+4
 599 0016 1370     		strb	r3, [r2, #0]
 600              		.loc 1 165 0
 601 0018 044A     		ldr	r2, .L54+8
 602              		.loc 1 172 0
 603 001a 1846     		mov	r0, r3
 604              	.LVL46:
 605              		.loc 1 165 0
 606 001c 1460     		str	r4, [r2, #0]
 607 001e 10BD     		pop	{r4, pc}
 608              	.LVL47:
 609              	.L53:
 610              	.LBE70:
 611              	.LBE69:
 612              		.loc 1 173 0
 613 0020 0020     		movs	r0, #0
 614              	.LVL48:
 615              	.LBE68:
 616              	.LBE67:
 617              		.loc 1 191 0
 618 0022 10BD     		pop	{r4, pc}
 619              	.L55:
 620              		.align	2
ARM GAS  C:\Users\TaisikHam\AppData\Local\Temp\cce7eCj2.s 			page 12


 621              	.L54:
 622 0024 00000000 		.word	.LANCHOR3
 623 0028 00000000 		.word	.LANCHOR4
 624 002c 00000000 		.word	.LANCHOR5
 625              		.cfi_endproc
 626              	.LFE127:
 627              		.size	_test_assert_time_window, .-_test_assert_time_window
 628              		.section	.text.test_terminate_threads,"ax",%progbits
 629              		.align	2
 630              		.p2align 4,,15
 631              		.global	test_terminate_threads
 632              		.thumb
 633              		.thumb_func
 634              		.type	test_terminate_threads, %function
 635              	test_terminate_threads:
 636              	.LFB128:
 637              		.loc 1 200 0
 638              		.cfi_startproc
 639              		@ args = 0, pretend = 0, frame = 0
 640              		@ frame_needed = 0, uses_anonymous_args = 0
 641              	.LVL49:
 642 0000 38B5     		push	{r3, r4, r5, lr}
 643              	.LCFI9:
 644              		.cfi_def_cfa_offset 16
 645              		.cfi_offset 3, -16
 646              		.cfi_offset 4, -12
 647              		.cfi_offset 5, -8
 648              		.cfi_offset 14, -4
 649              		.loc 1 200 0
 650 0002 064C     		ldr	r4, .L63
 651 0004 04F11405 		add	r5, r4, #20
 652              	.LVL50:
 653              	.L58:
 654              		.loc 1 204 0
 655 0008 54F8043F 		ldr	r3, [r4, #4]!
 656              		.loc 1 205 0
 657 000c 1846     		mov	r0, r3
 658              		.loc 1 204 0
 659 000e 0BB1     		cbz	r3, .L57
 660              		.loc 1 205 0
 661 0010 FFF7FEFF 		bl	chThdTerminate
 662              	.LVL51:
 663              	.L57:
 664              		.loc 1 203 0
 665 0014 AC42     		cmp	r4, r5
 666 0016 F7D1     		bne	.L58
 667              		.loc 1 206 0
 668 0018 38BD     		pop	{r3, r4, r5, pc}
 669              	.L64:
 670 001a 00BF     		.align	2
 671              	.L63:
 672 001c FCFFFFFF 		.word	.LANCHOR7-4
 673              		.cfi_endproc
 674              	.LFE128:
 675              		.size	test_terminate_threads, .-test_terminate_threads
 676              		.section	.text.test_wait_threads,"ax",%progbits
 677              		.align	2
ARM GAS  C:\Users\TaisikHam\AppData\Local\Temp\cce7eCj2.s 			page 13


 678              		.p2align 4,,15
 679              		.global	test_wait_threads
 680              		.thumb
 681              		.thumb_func
 682              		.type	test_wait_threads, %function
 683              	test_wait_threads:
 684              	.LFB129:
 685              		.loc 1 211 0
 686              		.cfi_startproc
 687              		@ args = 0, pretend = 0, frame = 0
 688              		@ frame_needed = 0, uses_anonymous_args = 0
 689              	.LVL52:
 690 0000 70B5     		push	{r4, r5, r6, lr}
 691              	.LCFI10:
 692              		.cfi_def_cfa_offset 16
 693              		.cfi_offset 4, -16
 694              		.cfi_offset 5, -12
 695              		.cfi_offset 6, -8
 696              		.cfi_offset 14, -4
 697 0002 074C     		ldr	r4, .L72
 698              		.loc 1 217 0
 699 0004 0026     		movs	r6, #0
 700              		.loc 1 211 0
 701 0006 04F11405 		add	r5, r4, #20
 702              	.LVL53:
 703              	.L67:
 704              		.loc 1 215 0
 705 000a 54F8043B 		ldr	r3, [r4], #4
 706              		.loc 1 216 0
 707 000e 1846     		mov	r0, r3
 708              		.loc 1 215 0
 709 0010 1BB1     		cbz	r3, .L66
 710              		.loc 1 216 0
 711 0012 FFF7FEFF 		bl	chThdWait
 712              	.LVL54:
 713              		.loc 1 217 0
 714 0016 44F8046C 		str	r6, [r4, #-4]
 715              	.L66:
 716              		.loc 1 214 0
 717 001a AC42     		cmp	r4, r5
 718 001c F5D1     		bne	.L67
 719              		.loc 1 219 0
 720 001e 70BD     		pop	{r4, r5, r6, pc}
 721              	.L73:
 722              		.align	2
 723              	.L72:
 724 0020 00000000 		.word	.LANCHOR7
 725              		.cfi_endproc
 726              	.LFE129:
 727              		.size	test_wait_threads, .-test_wait_threads
 728 0024 AFF30080 		.section	.text.test_cpu_pulse,"ax",%progbits
 728      AFF30080 
 728      AFF30080 
 729              		.align	2
 730              		.p2align 4,,15
 731              		.global	test_cpu_pulse
 732              		.thumb
ARM GAS  C:\Users\TaisikHam\AppData\Local\Temp\cce7eCj2.s 			page 14


 733              		.thumb_func
 734              		.type	test_cpu_pulse, %function
 735              	test_cpu_pulse:
 736              	.LFB130:
 737              		.loc 1 228 0
 738              		.cfi_startproc
 739              		@ args = 0, pretend = 0, frame = 0
 740              		@ frame_needed = 0, uses_anonymous_args = 0
 741              		@ link register save eliminated.
 742              	.LVL55:
 743              		.loc 1 231 0
 744 0000 154B     		ldr	r3, .L80
 745              		.loc 1 228 0
 746 0002 30B4     		push	{r4, r5}
 747              	.LCFI11:
 748              		.cfi_def_cfa_offset 8
 749              		.cfi_offset 4, -8
 750              		.cfi_offset 5, -4
 751              		.loc 1 231 0
 752 0004 9C69     		ldr	r4, [r3, #24]
 753              		.loc 1 232 0
 754 0006 4FF47A73 		mov	r3, #1000
 755 000a 03FB00F0 		mul	r0, r3, r0
 756              	.LVL56:
 757              		.loc 1 231 0
 758 000e 626A     		ldr	r2, [r4, #36]
 759              	.LVL57:
 760              		.loc 1 232 0
 761 0010 44F6D353 		movw	r3, #19923
 762 0014 A0F57A71 		sub	r1, r0, #1000
 763 0018 C1F26203 		movt	r3, 4194
 764 001c 501C     		adds	r0, r2, #1
 765 001e A3FB0153 		umull	r5, r3, r3, r1
 766 0022 00EB9311 		add	r1, r0, r3, lsr #6
 767              	.LVL58:
 768              	.L77:
 769              		.loc 1 239 0
 770 0026 8A42     		cmp	r2, r1
 771              		.loc 1 234 0
 772 0028 636A     		ldr	r3, [r4, #36]
 773              	.LVL59:
 774              		.loc 1 239 0
 775 002a 0AD2     		bcs	.L75
 776              		.loc 1 239 0 is_stmt 0 discriminator 1
 777 002c 8B42     		cmp	r3, r1
 778 002e 2CBF     		ite	cs
 779 0030 0020     		movcs	r0, #0
 780 0032 0120     		movcc	r0, #1
 781 0034 9342     		cmp	r3, r2
 782 0036 38BF     		it	cc
 783 0038 0020     		movcc	r0, #0
 784              		.loc 1 240 0 is_stmt 1 discriminator 1
 785 003a 0028     		cmp	r0, #0
 786 003c F3D1     		bne	.L77
 787              	.L79:
 788              		.loc 1 241 0
 789 003e 30BC     		pop	{r4, r5}
ARM GAS  C:\Users\TaisikHam\AppData\Local\Temp\cce7eCj2.s 			page 15


 790 0040 7047     		bx	lr
 791              	.L75:
 792              		.loc 1 240 0 discriminator 2
 793 0042 9342     		cmp	r3, r2
 794 0044 34BF     		ite	cc
 795 0046 0020     		movcc	r0, #0
 796 0048 0120     		movcs	r0, #1
 797 004a 8B42     		cmp	r3, r1
 798 004c 38BF     		it	cc
 799 004e 40F00100 		orrcc	r0, r0, #1
 800 0052 0028     		cmp	r0, #0
 801 0054 E7D1     		bne	.L77
 802 0056 F2E7     		b	.L79
 803              	.L81:
 804              		.align	2
 805              	.L80:
 806 0058 00000000 		.word	rlist
 807              		.cfi_endproc
 808              	.LFE130:
 809              		.size	test_cpu_pulse, .-test_cpu_pulse
 810 005c AFF30080 		.section	.text.test_wait_tick,"ax",%progbits
 811              		.align	2
 812              		.p2align 4,,15
 813              		.global	test_wait_tick
 814              		.thumb
 815              		.thumb_func
 816              		.type	test_wait_tick, %function
 817              	test_wait_tick:
 818              	.LFB131:
 819              		.loc 1 249 0
 820              		.cfi_startproc
 821              		@ args = 0, pretend = 0, frame = 0
 822              		@ frame_needed = 0, uses_anonymous_args = 0
 823 0000 08B5     		push	{r3, lr}
 824              	.LCFI12:
 825              		.cfi_def_cfa_offset 8
 826              		.cfi_offset 3, -8
 827              		.cfi_offset 14, -4
 828              		.loc 1 251 0
 829 0002 0120     		movs	r0, #1
 830 0004 FFF7FEFF 		bl	chThdSleep
 831              	.LVL60:
 832              		.loc 1 252 0
 833 0008 40F20003 		movw	r3, #:lower16:vtlist
 834 000c C0F20003 		movt	r3, #:upper16:vtlist
 835 0010 D868     		ldr	r0, [r3, #12]
 836              		.loc 1 253 0
 837 0012 08BD     		pop	{r3, pc}
 838              		.cfi_endproc
 839              	.LFE131:
 840              		.size	test_wait_tick, .-test_wait_tick
 841 0014 AFF30080 		.section	.text.test_start_timer,"ax",%progbits
 841      AFF30080 
 841      AFF30080 
 842              		.align	2
 843              		.p2align 4,,15
 844              		.global	test_start_timer
ARM GAS  C:\Users\TaisikHam\AppData\Local\Temp\cce7eCj2.s 			page 16


 845              		.thumb
 846              		.thumb_func
 847              		.type	test_start_timer, %function
 848              	test_start_timer:
 849              	.LFB133:
 850              		.loc 1 276 0
 851              		.cfi_startproc
 852              		@ args = 0, pretend = 0, frame = 0
 853              		@ frame_needed = 0, uses_anonymous_args = 0
 854              	.LVL61:
 855 0000 38B5     		push	{r3, r4, r5, lr}
 856              	.LCFI13:
 857              		.cfi_def_cfa_offset 16
 858              		.cfi_offset 3, -16
 859              		.cfi_offset 4, -12
 860              		.cfi_offset 5, -8
 861              		.cfi_offset 14, -4
 862              		.loc 1 279 0
 863 0002 40F20003 		movw	r3, #:lower16:.LANCHOR0
 864 0006 C0F20003 		movt	r3, #:upper16:.LANCHOR0
 865 000a 0024     		movs	r4, #0
 866 000c 1C70     		strb	r4, [r3, #0]
 867              		.loc 1 276 0
 868 000e 0546     		mov	r5, r0
 869              	.LVL62:
 870              	.LBB71:
 871              		.loc 1 280 0
 872 0010 2023     		movs	r3, #32
 873              	.LVL63:
 874              	@ 280 "../../../test/test.c" 1
 875 0012 83F31188 		msr     BASEPRI, r3
 876              	@ 0 "" 2
 877              	.LVL64:
 878              		.thumb
 879              	.LBE71:
 880 0016 FFF7FEFF 		bl	dbg_check_lock
 881              	.LVL65:
 882              		.loc 1 278 0
 883 001a 4FF47A73 		mov	r3, #1000
 884 001e 03FB05F5 		mul	r5, r3, r5
 885              	.LVL66:
 886 0022 44F6D353 		movw	r3, #19923
 887 0026 A5F57A75 		sub	r5, r5, #1000
 888 002a C1F26203 		movt	r3, 4194
 889 002e A3FB0523 		umull	r2, r3, r3, r5
 890 0032 9909     		lsrs	r1, r3, #6
 891              		.loc 1 280 0
 892 0034 40F20000 		movw	r0, #:lower16:.LANCHOR8
 893 0038 40F20002 		movw	r2, #:lower16:tmr
 894 003c 2346     		mov	r3, r4
 895 003e C0F20000 		movt	r0, #:upper16:.LANCHOR8
 896 0042 0131     		adds	r1, r1, #1
 897 0044 C0F20002 		movt	r2, #:upper16:tmr
 898 0048 FFF7FEFF 		bl	chVTSetI
 899              	.LVL67:
 900 004c FFF7FEFF 		bl	dbg_check_unlock
 901              	.LVL68:
ARM GAS  C:\Users\TaisikHam\AppData\Local\Temp\cce7eCj2.s 			page 17


 902              	.LBB72:
 903 0050 2346     		mov	r3, r4
 904              	.LVL69:
 905              	@ 280 "../../../test/test.c" 1
 906 0052 83F31188 		msr     BASEPRI, r3
 907              	@ 0 "" 2
 908              	.LVL70:
 909              		.thumb
 910 0056 38BD     		pop	{r3, r4, r5, pc}
 911              	.LBE72:
 912              		.cfi_endproc
 913              	.LFE133:
 914              		.size	test_start_timer, .-test_start_timer
 915 0058 AFF30080 		.section	.text.TestThread,"ax",%progbits
 915      AFF30080 
 916              		.align	2
 917              		.p2align 4,,15
 918              		.global	TestThread
 919              		.thumb
 920              		.thumb_func
 921              		.type	TestThread, %function
 922              	TestThread:
 923              	.LFB136:
 924              		.loc 1 318 0
 925              		.cfi_startproc
 926              		@ args = 0, pretend = 0, frame = 8
 927              		@ frame_needed = 0, uses_anonymous_args = 0
 928              	.LVL71:
 929 0000 2DE9F04F 		push	{r4, r5, r6, r7, r8, r9, sl, fp, lr}
 930              	.LCFI14:
 931              		.cfi_def_cfa_offset 36
 932              		.cfi_offset 4, -36
 933              		.cfi_offset 5, -32
 934              		.cfi_offset 6, -28
 935              		.cfi_offset 7, -24
 936              		.cfi_offset 8, -20
 937              		.cfi_offset 9, -16
 938              		.cfi_offset 10, -12
 939              		.cfi_offset 11, -8
 940              		.cfi_offset 14, -4
 941              		.loc 1 321 0
 942 0004 9D4C     		ldr	r4, .L157
 943 0006 9E4D     		ldr	r5, .L157+4
 944 0008 2060     		str	r0, [r4, #0]
 945              		.loc 1 318 0
 946 000a 83B0     		sub	sp, sp, #12
 947              	.LCFI15:
 948              		.cfi_def_cfa_offset 48
 949              		.loc 1 322 0
 950 000c 9D48     		ldr	r0, .L157+8
 951              	.LVL72:
 952 000e FFF7FEFF 		bl	test_println
 953              	.LVL73:
 954              		.loc 1 323 0
 955 0012 9D48     		ldr	r0, .L157+12
 956 0014 FFF7FEFF 		bl	test_println
 957              	.LVL74:
ARM GAS  C:\Users\TaisikHam\AppData\Local\Temp\cce7eCj2.s 			page 18


 958              		.loc 1 324 0
 959 0018 9C48     		ldr	r0, .L157+16
 960 001a FFF7FEFF 		bl	test_println
 961              	.LVL75:
 962              		.loc 1 116 0
 963 001e 2A21     		movs	r1, #42
 964              	.LVL76:
 965              	.L85:
 966              	.LBB109:
 967              	.LBB110:
 968              		.loc 1 117 0
 969 0020 2068     		ldr	r0, [r4, #0]
 970 0022 0368     		ldr	r3, [r0, #0]
 971 0024 9B68     		ldr	r3, [r3, #8]
 972 0026 9847     		blx	r3
 973              	.LVL77:
 974              		.loc 1 116 0
 975 0028 15F8011F 		ldrb	r1, [r5, #1]!	@ zero_extendqisi2
 976 002c 0029     		cmp	r1, #0
 977 002e F7D1     		bne	.L85
 978              	.LBE110:
 979              	.LBE109:
 980              		.loc 1 326 0
 981 0030 9748     		ldr	r0, .L157+20
 982 0032 984D     		ldr	r5, .L157+24
 983 0034 FFF7FEFF 		bl	test_println
 984              	.LVL78:
 985              		.loc 1 116 0
 986 0038 2A21     		movs	r1, #42
 987              	.LVL79:
 988              	.L87:
 989              	.LBB111:
 990              	.LBB112:
 991              		.loc 1 117 0
 992 003a 2068     		ldr	r0, [r4, #0]
 993 003c 0368     		ldr	r3, [r0, #0]
 994 003e 9B68     		ldr	r3, [r3, #8]
 995 0040 9847     		blx	r3
 996              	.LVL80:
 997              		.loc 1 116 0
 998 0042 15F8011F 		ldrb	r1, [r5, #1]!	@ zero_extendqisi2
 999 0046 0029     		cmp	r1, #0
 1000 0048 F7D1     		bne	.L87
 1001              	.LBE112:
 1002              	.LBE111:
 1003              		.loc 1 328 0
 1004 004a 9348     		ldr	r0, .L157+28
 1005 004c 934D     		ldr	r5, .L157+32
 1006 004e FFF7FEFF 		bl	test_println
 1007              	.LVL81:
 1008              		.loc 1 116 0
 1009 0052 2A21     		movs	r1, #42
 1010              	.LVL82:
 1011              	.L89:
 1012              	.LBB113:
 1013              	.LBB114:
 1014              		.loc 1 117 0
ARM GAS  C:\Users\TaisikHam\AppData\Local\Temp\cce7eCj2.s 			page 19


 1015 0054 2068     		ldr	r0, [r4, #0]
 1016 0056 0368     		ldr	r3, [r0, #0]
 1017 0058 9B68     		ldr	r3, [r3, #8]
 1018 005a 9847     		blx	r3
 1019              	.LVL83:
 1020              		.loc 1 116 0
 1021 005c 15F8011F 		ldrb	r1, [r5, #1]!	@ zero_extendqisi2
 1022 0060 0029     		cmp	r1, #0
 1023 0062 F7D1     		bne	.L89
 1024              	.LBE114:
 1025              	.LBE113:
 1026              		.loc 1 331 0
 1027 0064 8E48     		ldr	r0, .L157+36
 1028 0066 8F4D     		ldr	r5, .L157+40
 1029 0068 FFF7FEFF 		bl	test_println
 1030              	.LVL84:
 1031              		.loc 1 116 0
 1032 006c 2A21     		movs	r1, #42
 1033              	.LVL85:
 1034              	.L91:
 1035              	.LBB115:
 1036              	.LBB116:
 1037              		.loc 1 117 0
 1038 006e 2068     		ldr	r0, [r4, #0]
 1039 0070 0368     		ldr	r3, [r0, #0]
 1040 0072 9B68     		ldr	r3, [r3, #8]
 1041 0074 9847     		blx	r3
 1042              	.LVL86:
 1043              		.loc 1 116 0
 1044 0076 15F8011F 		ldrb	r1, [r5, #1]!	@ zero_extendqisi2
 1045 007a 0029     		cmp	r1, #0
 1046 007c F7D1     		bne	.L91
 1047              	.LBE116:
 1048              	.LBE115:
 1049              		.loc 1 334 0
 1050 007e 8A48     		ldr	r0, .L157+44
 1051 0080 8A4D     		ldr	r5, .L157+48
 1052 0082 FFF7FEFF 		bl	test_println
 1053              	.LVL87:
 1054              		.loc 1 116 0
 1055 0086 2A21     		movs	r1, #42
 1056              	.LVL88:
 1057              	.L93:
 1058              	.LBB117:
 1059              	.LBB118:
 1060              		.loc 1 117 0
 1061 0088 2068     		ldr	r0, [r4, #0]
 1062 008a 0368     		ldr	r3, [r0, #0]
 1063 008c 9B68     		ldr	r3, [r3, #8]
 1064 008e 9847     		blx	r3
 1065              	.LVL89:
 1066              		.loc 1 116 0
 1067 0090 15F8011F 		ldrb	r1, [r5, #1]!	@ zero_extendqisi2
 1068 0094 0029     		cmp	r1, #0
 1069 0096 F7D1     		bne	.L93
 1070              	.LBE118:
 1071              	.LBE117:
ARM GAS  C:\Users\TaisikHam\AppData\Local\Temp\cce7eCj2.s 			page 20


 1072              		.loc 1 337 0
 1073 0098 8548     		ldr	r0, .L157+52
 1074 009a 864D     		ldr	r5, .L157+56
 1075 009c FFF7FEFF 		bl	test_println
 1076              	.LVL90:
 1077              		.loc 1 116 0
 1078 00a0 2A21     		movs	r1, #42
 1079              	.LVL91:
 1080              	.L95:
 1081              	.LBB119:
 1082              	.LBB120:
 1083              		.loc 1 117 0
 1084 00a2 2068     		ldr	r0, [r4, #0]
 1085 00a4 0368     		ldr	r3, [r0, #0]
 1086 00a6 9B68     		ldr	r3, [r3, #8]
 1087 00a8 9847     		blx	r3
 1088              	.LVL92:
 1089              		.loc 1 116 0
 1090 00aa 15F8011F 		ldrb	r1, [r5, #1]!	@ zero_extendqisi2
 1091 00ae 0029     		cmp	r1, #0
 1092 00b0 F7D1     		bne	.L95
 1093              	.LBE120:
 1094              	.LBE119:
 1095              		.loc 1 341 0
 1096 00b2 8148     		ldr	r0, .L157+60
 1097 00b4 814D     		ldr	r5, .L157+64
 1098 00b6 FFF7FEFF 		bl	test_println
 1099              	.LVL93:
 1100              		.loc 1 116 0
 1101 00ba 2A21     		movs	r1, #42
 1102              	.LVL94:
 1103              	.L97:
 1104              	.LBB121:
 1105              	.LBB122:
 1106              		.loc 1 117 0
 1107 00bc 2068     		ldr	r0, [r4, #0]
 1108 00be 0368     		ldr	r3, [r0, #0]
 1109 00c0 9B68     		ldr	r3, [r3, #8]
 1110 00c2 9847     		blx	r3
 1111              	.LVL95:
 1112              		.loc 1 116 0
 1113 00c4 15F8011F 		ldrb	r1, [r5, #1]!	@ zero_extendqisi2
 1114 00c8 0029     		cmp	r1, #0
 1115 00ca F7D1     		bne	.L97
 1116              	.LBE122:
 1117              	.LBE121:
 1118              		.loc 1 345 0
 1119 00cc 7C48     		ldr	r0, .L157+68
 1120 00ce 7D4D     		ldr	r5, .L157+72
 1121 00d0 FFF7FEFF 		bl	test_println
 1122              	.LVL96:
 1123              		.loc 1 116 0
 1124 00d4 2A21     		movs	r1, #42
 1125              	.LVL97:
 1126              	.L99:
 1127              	.LBB123:
 1128              	.LBB124:
ARM GAS  C:\Users\TaisikHam\AppData\Local\Temp\cce7eCj2.s 			page 21


 1129              		.loc 1 117 0
 1130 00d6 2068     		ldr	r0, [r4, #0]
 1131 00d8 0368     		ldr	r3, [r0, #0]
 1132 00da 9B68     		ldr	r3, [r3, #8]
 1133 00dc 9847     		blx	r3
 1134              	.LVL98:
 1135              		.loc 1 116 0
 1136 00de 15F8011F 		ldrb	r1, [r5, #1]!	@ zero_extendqisi2
 1137 00e2 0029     		cmp	r1, #0
 1138 00e4 F7D1     		bne	.L99
 1139 00e6 784A     		ldr	r2, .L157+76
 1140              	.LBE124:
 1141              	.LBE123:
 1142              		.loc 1 349 0
 1143 00e8 7848     		ldr	r0, .L157+80
 1144 00ea 0091     		str	r1, [sp, #0]
 1145 00ec 0192     		str	r2, [sp, #4]
 1146 00ee FFF7FEFF 		bl	test_println
 1147              	.LVL99:
 1148              		.loc 1 351 0
 1149 00f2 6448     		ldr	r0, .L157+8
 1150              	.LBB125:
 1151              	.LBB126:
 1152              	.LBB127:
 1153              	.LBB128:
 1154              		.loc 1 136 0
 1155 00f4 764E     		ldr	r6, .L157+84
 1156 00f6 DFF81092 		ldr	r9, .L157+140
 1157              	.LBE128:
 1158              	.LBE127:
 1159              	.LBE126:
 1160              	.LBE125:
 1161              		.loc 1 353 0
 1162 00fa 764F     		ldr	r7, .L157+88
 1163              		.loc 1 351 0
 1164 00fc FFF7FEFF 		bl	test_println
 1165              	.LVL100:
 1166              		.loc 1 353 0
 1167 0100 40F20003 		movw	r3, #:lower16:.LANCHOR4
 1168              		.loc 1 354 0
 1169 0104 0099     		ldr	r1, [sp, #0]
 1170              		.loc 1 353 0
 1171 0106 C0F20003 		movt	r3, #:upper16:.LANCHOR4
 1172              		.loc 1 354 0
 1173 010a 8A46     		mov	sl, r1
 1174              		.loc 1 353 0
 1175 010c 1970     		strb	r1, [r3, #0]
 1176              	.LVL101:
 1177              	.L124:
 1178 010e 0AF1010A 		add	sl, sl, #1
 1179              		.loc 1 116 0 discriminator 1
 1180 0112 4FF00008 		mov	r8, #0
 1181              	.L153:
 1182              	.LVL102:
 1183              		.loc 1 357 0 discriminator 1
 1184 0116 57F8043B 		ldr	r3, [r7], #4
 1185 011a 002B     		cmp	r3, #0
ARM GAS  C:\Users\TaisikHam\AppData\Local\Temp\cce7eCj2.s 			page 22


 1186 011c 00F08580 		beq	.L155
 1187              	.L118:
 1188 0120 6D4D     		ldr	r5, .L157+92
 1189              		.loc 1 358 0
 1190 0122 FFF7FEFF 		bl	print_line
 1191              	.LVL103:
 1192              		.loc 1 116 0
 1193 0126 2D21     		movs	r1, #45
 1194              	.LVL104:
 1195              	.L101:
 1196              	.LBB134:
 1197              	.LBB135:
 1198              		.loc 1 117 0
 1199 0128 2068     		ldr	r0, [r4, #0]
 1200 012a 0368     		ldr	r3, [r0, #0]
 1201 012c 9B68     		ldr	r3, [r3, #8]
 1202 012e 9847     		blx	r3
 1203              	.LVL105:
 1204              		.loc 1 116 0
 1205 0130 15F8011F 		ldrb	r1, [r5, #1]!	@ zero_extendqisi2
 1206 0134 0029     		cmp	r1, #0
 1207 0136 F7D1     		bne	.L101
 1208              	.LBE135:
 1209              	.LBE134:
 1210              		.loc 1 360 0
 1211 0138 5046     		mov	r0, sl
 1212 013a FFF7FEFF 		bl	test_printn
 1213              	.LVL106:
 1214              	.LBB136:
 1215              	.LBB137:
 1216              		.loc 1 117 0
 1217 013e 4F4B     		ldr	r3, .L157
 1218 0140 664D     		ldr	r5, .L157+96
 1219 0142 1868     		ldr	r0, [r3, #0]
 1220              	.LVL107:
 1221 0144 0368     		ldr	r3, [r0, #0]
 1222 0146 2E21     		movs	r1, #46
 1223 0148 9B68     		ldr	r3, [r3, #8]
 1224              	.LBE137:
 1225              	.LBE136:
 1226              		.loc 1 362 0
 1227 014a 08F10108 		add	r8, r8, #1
 1228              	.LVL108:
 1229              	.LBB139:
 1230              	.LBB138:
 1231              		.loc 1 117 0
 1232 014e 9847     		blx	r3
 1233              	.LVL109:
 1234              	.LBE138:
 1235              	.LBE139:
 1236              		.loc 1 362 0
 1237 0150 4046     		mov	r0, r8
 1238 0152 FFF7FEFF 		bl	test_printn
 1239              	.LVL110:
 1240              		.loc 1 116 0
 1241 0156 2021     		movs	r1, #32
 1242              	.LVL111:
ARM GAS  C:\Users\TaisikHam\AppData\Local\Temp\cce7eCj2.s 			page 23


 1243              	.L103:
 1244              	.LBB140:
 1245              	.LBB141:
 1246              		.loc 1 117 0
 1247 0158 2068     		ldr	r0, [r4, #0]
 1248 015a 0368     		ldr	r3, [r0, #0]
 1249 015c 9B68     		ldr	r3, [r3, #8]
 1250 015e 9847     		blx	r3
 1251              	.LVL112:
 1252              		.loc 1 116 0
 1253 0160 15F8011F 		ldrb	r1, [r5, #1]!	@ zero_extendqisi2
 1254 0164 0029     		cmp	r1, #0
 1255 0166 F7D1     		bne	.L103
 1256              	.LBE141:
 1257              	.LBE140:
 1258              		.loc 1 364 0
 1259 0168 57F8043C 		ldr	r3, [r7, #-4]
 1260 016c 1D68     		ldr	r5, [r3, #0]
 1261              	.LVL113:
 1262              	.LBB142:
 1263              	.LBB143:
 1264              		.loc 1 116 0
 1265 016e 2978     		ldrb	r1, [r5, #0]	@ zero_extendqisi2
 1266 0170 39B1     		cbz	r1, .L108
 1267              	.LVL114:
 1268              	.L107:
 1269              		.loc 1 117 0
 1270 0172 2068     		ldr	r0, [r4, #0]
 1271 0174 0368     		ldr	r3, [r0, #0]
 1272 0176 9B68     		ldr	r3, [r3, #8]
 1273 0178 9847     		blx	r3
 1274              	.LVL115:
 1275              		.loc 1 116 0
 1276 017a 15F8011F 		ldrb	r1, [r5, #1]!	@ zero_extendqisi2
 1277 017e 0029     		cmp	r1, #0
 1278 0180 F7D1     		bne	.L107
 1279              	.L108:
 1280              	.LBE143:
 1281              	.LBE142:
 1282              		.loc 1 365 0
 1283 0182 5748     		ldr	r0, .L157+100
 1284              	.LBB144:
 1285              	.LBB131:
 1286              		.loc 1 291 0
 1287 0184 574D     		ldr	r5, .L157+104
 1288              	.LBE131:
 1289              	.LBE144:
 1290              		.loc 1 365 0
 1291 0186 FFF7FEFF 		bl	test_println
 1292              	.LVL116:
 1293              		.loc 1 367 0
 1294 018a C820     		movs	r0, #200
 1295 018c FFF7FEFF 		bl	chThdSleep
 1296              	.LVL117:
 1297              	.LBB145:
 1298              	.LBB132:
 1299              		.loc 1 293 0
ARM GAS  C:\Users\TaisikHam\AppData\Local\Temp\cce7eCj2.s 			page 24


 1300 0190 554A     		ldr	r2, .L157+108
 1301              	.LBE132:
 1302              	.LBE145:
 1303              		.loc 1 369 0
 1304 0192 57F804BC 		ldr	fp, [r7, #-4]
 1305              	.LVL118:
 1306              	.LBB146:
 1307              	.LBB133:
 1308              	.LBB130:
 1309              	.LBB129:
 1310              		.loc 1 136 0
 1311 0196 C6F80090 		str	r9, [r6, #0]
 1312              	.LBE129:
 1313              	.LBE130:
 1314              		.loc 1 291 0
 1315 019a 0023     		movs	r3, #0
 1316              		.loc 1 293 0
 1317 019c 1360     		str	r3, [r2, #0]
 1318 019e 5360     		str	r3, [r2, #4]
 1319 01a0 9360     		str	r3, [r2, #8]
 1320 01a2 D360     		str	r3, [r2, #12]
 1321 01a4 1361     		str	r3, [r2, #16]
 1322              		.loc 1 295 0
 1323 01a6 DBF80420 		ldr	r2, [fp, #4]
 1324              		.loc 1 291 0
 1325 01aa 2B70     		strb	r3, [r5, #0]
 1326              	.LVL119:
 1327              		.loc 1 295 0
 1328 01ac 02B1     		cbz	r2, .L106
 1329              		.loc 1 296 0
 1330 01ae 9047     		blx	r2
 1331              	.LVL120:
 1332              	.L106:
 1333              		.loc 1 297 0
 1334 01b0 DBF80C30 		ldr	r3, [fp, #12]
 1335 01b4 9847     		blx	r3
 1336              	.LVL121:
 1337              		.loc 1 298 0
 1338 01b6 DBF80830 		ldr	r3, [fp, #8]
 1339 01ba 03B1     		cbz	r3, .L109
 1340              		.loc 1 299 0
 1341 01bc 9847     		blx	r3
 1342              	.LVL122:
 1343              	.L109:
 1344              		.loc 1 301 0
 1345 01be FFF7FEFF 		bl	test_wait_threads
 1346              	.LVL123:
 1347              	.LBE133:
 1348              	.LBE146:
 1349              		.loc 1 370 0
 1350 01c2 2B78     		ldrb	r3, [r5, #0]	@ zero_extendqisi2
 1351 01c4 002B     		cmp	r3, #0
 1352 01c6 00F0A180 		beq	.L110
 1353 01ca 484D     		ldr	r5, .L157+112
 1354              		.loc 1 116 0
 1355 01cc 2D21     		movs	r1, #45
 1356              	.L111:
ARM GAS  C:\Users\TaisikHam\AppData\Local\Temp\cce7eCj2.s 			page 25


 1357              	.LBB147:
 1358              	.LBB148:
 1359              		.loc 1 117 0
 1360 01ce 2068     		ldr	r0, [r4, #0]
 1361              	.LVL124:
 1362 01d0 0368     		ldr	r3, [r0, #0]
 1363 01d2 9B68     		ldr	r3, [r3, #8]
 1364 01d4 9847     		blx	r3
 1365              	.LVL125:
 1366              		.loc 1 116 0
 1367 01d6 15F8011F 		ldrb	r1, [r5, #1]!	@ zero_extendqisi2
 1368 01da 0029     		cmp	r1, #0
 1369 01dc F7D1     		bne	.L111
 1370              	.LBE148:
 1371              	.LBE147:
 1372              		.loc 1 372 0
 1373 01de 444B     		ldr	r3, .L157+116
 1374 01e0 444D     		ldr	r5, .L157+120
 1375 01e2 1868     		ldr	r0, [r3, #0]
 1376 01e4 FFF7FEFF 		bl	test_printn
 1377              	.LVL126:
 1378              		.loc 1 116 0
 1379 01e8 2021     		movs	r1, #32
 1380              	.LVL127:
 1381              	.L113:
 1382              	.LBB149:
 1383              	.LBB150:
 1384              		.loc 1 117 0
 1385 01ea 2068     		ldr	r0, [r4, #0]
 1386 01ec 0368     		ldr	r3, [r0, #0]
 1387 01ee 9B68     		ldr	r3, [r3, #8]
 1388 01f0 9847     		blx	r3
 1389              	.LVL128:
 1390              		.loc 1 116 0
 1391 01f2 15F8011F 		ldrb	r1, [r5, #1]!	@ zero_extendqisi2
 1392 01f6 0029     		cmp	r1, #0
 1393 01f8 F7D1     		bne	.L113
 1394              	.LVL129:
 1395              	.LBE150:
 1396              	.LBE149:
 1397              	.LBB151:
 1398              	.LBB152:
 1399              		.loc 1 142 0
 1400 01fa 3368     		ldr	r3, [r6, #0]
 1401 01fc 4B45     		cmp	r3, r9
 1402              	.LBE152:
 1403              	.LBE151:
 1404              		.loc 1 318 0
 1405 01fe 88BF     		it	hi
 1406 0200 3D4D     		ldrhi	r5, .L157+124
 1407              	.LBB154:
 1408              	.LBB153:
 1409              		.loc 1 142 0
 1410 0202 0AD9     		bls	.L117
 1411              	.LVL130:
 1412              	.L116:
 1413              		.loc 1 143 0
ARM GAS  C:\Users\TaisikHam\AppData\Local\Temp\cce7eCj2.s 			page 26


 1414 0204 2068     		ldr	r0, [r4, #0]
 1415 0206 15F8011C 		ldrb	r1, [r5, #-1]	@ zero_extendqisi2
 1416 020a 0368     		ldr	r3, [r0, #0]
 1417 020c 9B68     		ldr	r3, [r3, #8]
 1418 020e 9847     		blx	r3
 1419              	.LVL131:
 1420              		.loc 1 142 0
 1421 0210 3368     		ldr	r3, [r6, #0]
 1422              		.loc 1 318 0
 1423 0212 2A46     		mov	r2, r5
 1424              	.LVL132:
 1425 0214 0135     		adds	r5, r5, #1
 1426              		.loc 1 142 0
 1427 0216 9A42     		cmp	r2, r3
 1428 0218 F4D3     		bcc	.L116
 1429              	.LVL133:
 1430              	.L117:
 1431              	.LBE153:
 1432              	.LBE154:
 1433              		.loc 1 375 0
 1434 021a 3848     		ldr	r0, .L157+128
 1435 021c FFF7FEFF 		bl	test_println
 1436              	.LVL134:
 1437              		.loc 1 357 0
 1438 0220 57F8043B 		ldr	r3, [r7], #4
 1439 0224 002B     		cmp	r3, #0
 1440 0226 7FF47BAF 		bne	.L118
 1441              	.LVL135:
 1442              	.L155:
 1443              		.loc 1 355 0
 1444 022a 019A     		ldr	r2, [sp, #4]
 1445 022c 52F8047F 		ldr	r7, [r2, #4]!
 1446 0230 0192     		str	r2, [sp, #4]
 1447 0232 002F     		cmp	r7, #0
 1448 0234 7FF46BAF 		bne	.L124
 1449              		.loc 1 383 0
 1450 0238 FFF7FEFF 		bl	print_line
 1451              	.LVL136:
 1452 023c 304D     		ldr	r5, .L157+132
 1453              		.loc 1 384 0
 1454 023e 1148     		ldr	r0, .L157+8
 1455 0240 FFF7FEFF 		bl	test_println
 1456              	.LVL137:
 1457              		.loc 1 116 0
 1458 0244 4621     		movs	r1, #70
 1459              	.LVL138:
 1460              	.L121:
 1461              	.LBB155:
 1462              	.LBB156:
 1463              		.loc 1 117 0
 1464 0246 2068     		ldr	r0, [r4, #0]
 1465 0248 0368     		ldr	r3, [r0, #0]
 1466 024a 9B68     		ldr	r3, [r3, #8]
 1467 024c 9847     		blx	r3
 1468              	.LVL139:
 1469              		.loc 1 116 0
 1470 024e 15F8011F 		ldrb	r1, [r5, #1]!	@ zero_extendqisi2
ARM GAS  C:\Users\TaisikHam\AppData\Local\Temp\cce7eCj2.s 			page 27


 1471 0252 0029     		cmp	r1, #0
 1472 0254 F7D1     		bne	.L121
 1473              	.LBE156:
 1474              	.LBE155:
 1475              		.loc 1 386 0
 1476 0256 40F20002 		movw	r2, #:lower16:.LANCHOR4
 1477 025a C0F20002 		movt	r2, #:upper16:.LANCHOR4
 1478 025e 1378     		ldrb	r3, [r2, #0]	@ zero_extendqisi2
 1479 0260 002B     		cmp	r3, #0
 1480 0262 57D1     		bne	.L156
 1481              		.loc 1 389 0
 1482 0264 2748     		ldr	r0, .L157+136
 1483 0266 FFF7FEFF 		bl	test_println
 1484              	.LVL140:
 1485              	.L123:
 1486              		.loc 1 391 0
 1487 026a 40F20003 		movw	r3, #:lower16:.LANCHOR4
 1488 026e C0F20003 		movt	r3, #:upper16:.LANCHOR4
 1489 0272 1878     		ldrb	r0, [r3, #0]	@ zero_extendqisi2
 1490              		.loc 1 392 0
 1491 0274 03B0     		add	sp, sp, #12
 1492 0276 BDE8F08F 		pop	{r4, r5, r6, r7, r8, r9, sl, fp, pc}
 1493              	.L158:
 1494 027a 00BF     		.align	2
 1495              	.L157:
 1496 027c 00000000 		.word	.LANCHOR1
 1497 0280 28000000 		.word	.LC4
 1498 0284 04000000 		.word	.LC1
 1499 0288 08000000 		.word	.LC2
 1500 028c 24000000 		.word	.LC3
 1501 0290 90000000 		.word	.LC12
 1502 0294 A0000000 		.word	.LC13
 1503 0298 B4000000 		.word	.LC14
 1504 029c CC000000 		.word	.LC15
 1505 02a0 E0000000 		.word	.LC16
 1506 02a4 EC000000 		.word	.LC17
 1507 02a8 00010000 		.word	.LC18
 1508 02ac 0C010000 		.word	.LC19
 1509 02b0 20010000 		.word	.LC20
 1510 02b4 2C010000 		.word	.LC21
 1511 02b8 40010000 		.word	.LC22
 1512 02bc 58010000 		.word	.LC23
 1513 02c0 6C010000 		.word	.LC24
 1514 02c4 84010000 		.word	.LC25
 1515 02c8 00000000 		.word	.LANCHOR9
 1516 02cc 98010000 		.word	.LC26
 1517 02d0 00000000 		.word	.LANCHOR2
 1518 02d4 00000000 		.word	patternthd
 1519 02d8 3C000000 		.word	.LC5
 1520 02dc C0010000 		.word	.LC27
 1521 02e0 4C000000 		.word	.LC6
 1522 02e4 00000000 		.word	.LANCHOR3
 1523 02e8 00000000 		.word	.LANCHOR7
 1524 02ec 50000000 		.word	.LC7
 1525 02f0 00000000 		.word	.LANCHOR5
 1526 02f4 C4010000 		.word	.LC28
 1527 02f8 01000000 		.word	.LANCHOR6+1
ARM GAS  C:\Users\TaisikHam\AppData\Local\Temp\cce7eCj2.s 			page 28


 1528 02fc 68000000 		.word	.LC8
 1529 0300 C8010000 		.word	.LC29
 1530 0304 88000000 		.word	.LC11
 1531 0308 00000000 		.word	.LANCHOR6
 1532              	.LVL141:
 1533              	.L110:
 1534              		.loc 1 378 0
 1535 030c 0348     		ldr	r0, .L159
 1536 030e FFF7FEFF 		bl	test_println
 1537              	.LVL142:
 1538 0312 00E7     		b	.L153
 1539              	.LVL143:
 1540              	.L156:
 1541              		.loc 1 387 0
 1542 0314 0248     		ldr	r0, .L159+4
 1543 0316 FFF7FEFF 		bl	test_println
 1544              	.LVL144:
 1545 031a A6E7     		b	.L123
 1546              	.L160:
 1547              		.align	2
 1548              	.L159:
 1549 031c 6C000000 		.word	.LC9
 1550 0320 80000000 		.word	.LC10
 1551              		.cfi_endproc
 1552              	.LFE136:
 1553              		.size	TestThread, .-TestThread
 1554              		.global	test_timer_done
 1555              		.global	wa
 1556              		.global	threads
 1557              		.global	test
 1558 0324 AFF30080 		.section	.bss.test,"aw",%nobits
 1558      AFF30080 
 1558      AFF30080 
 1559              		.align	3
 1560              		.type	test, %object
 1561              		.size	test, 1520
 1562              	test:
 1563 0000 00000000 		.space	1520
 1563      00000000 
 1563      00000000 
 1563      00000000 
 1563      00000000 
 1564              		.section	.bss.failpoint,"aw",%nobits
 1565              		.align	2
 1566              		.set	.LANCHOR5,. + 0
 1567              		.type	failpoint, %object
 1568              		.size	failpoint, 4
 1569              	failpoint:
 1570 0000 00000000 		.space	4
 1571              		.section	.bss.local_fail,"aw",%nobits
 1572              		.set	.LANCHOR3,. + 0
 1573              		.type	local_fail, %object
 1574              		.size	local_fail, 1
 1575              	local_fail:
 1576 0000 00       		.space	1
 1577              		.section	.bss.test_timer_done,"aw",%nobits
 1578              		.set	.LANCHOR0,. + 0
ARM GAS  C:\Users\TaisikHam\AppData\Local\Temp\cce7eCj2.s 			page 29


 1579              		.type	test_timer_done, %object
 1580              		.size	test_timer_done, 1
 1581              	test_timer_done:
 1582 0000 00       		.space	1
 1583              		.section	.rodata.wa,"a",%progbits
 1584              		.align	2
 1585              		.type	wa, %object
 1586              		.size	wa, 20
 1587              	wa:
 1588 0000 00000000 		.word	test
 1589 0004 30010000 		.word	test+304
 1590 0008 60020000 		.word	test+608
 1591 000c 90030000 		.word	test+912
 1592 0010 C0040000 		.word	test+1216
 1593              		.section	.bss.tokp,"aw",%nobits
 1594              		.align	2
 1595              		.set	.LANCHOR2,. + 0
 1596              		.type	tokp, %object
 1597              		.size	tokp, 4
 1598              	tokp:
 1599 0000 00000000 		.space	4
 1600              		.section	.bss.global_fail,"aw",%nobits
 1601              		.set	.LANCHOR4,. + 0
 1602              		.type	global_fail, %object
 1603              		.size	global_fail, 1
 1604              	global_fail:
 1605 0000 00       		.space	1
 1606              		.section	.rodata.str1.4,"aMS",%progbits,1
 1607              		.align	2
 1608              	.LC0:
 1609 0000 0D0A00   		.ascii	"\015\012\000"
 1610 0003 00       		.space	1
 1611              	.LC1:
 1612 0004 00       		.ascii	"\000"
 1613 0005 000000   		.space	3
 1614              	.LC2:
 1615 0008 2A2A2A20 		.ascii	"*** ChibiOS/RT test suite\000"
 1615      43686962 
 1615      694F532F 
 1615      52542074 
 1615      65737420 
 1616 0022 0000     		.space	2
 1617              	.LC3:
 1618 0024 2A2A2A00 		.ascii	"***\000"
 1619              	.LC4:
 1620 0028 2A2A2A20 		.ascii	"*** Kernel:       \000"
 1620      4B65726E 
 1620      656C3A20 
 1620      20202020 
 1620      202000
 1621 003b 00       		.space	1
 1622              	.LC5:
 1623 003c 2D2D2D20 		.ascii	"--- Test Case \000"
 1623      54657374 
 1623      20436173 
 1623      652000
 1624 004b 00       		.space	1
ARM GAS  C:\Users\TaisikHam\AppData\Local\Temp\cce7eCj2.s 			page 30


 1625              	.LC6:
 1626 004c 2900     		.ascii	")\000"
 1627 004e 0000     		.space	2
 1628              	.LC7:
 1629 0050 2D2D2D20 		.ascii	"--- Result: FAILURE (#\000"
 1629      52657375 
 1629      6C743A20 
 1629      4641494C 
 1629      55524520 
 1630 0067 00       		.space	1
 1631              	.LC8:
 1632 0068 5D2900   		.ascii	"])\000"
 1633 006b 00       		.space	1
 1634              	.LC9:
 1635 006c 2D2D2D20 		.ascii	"--- Result: SUCCESS\000"
 1635      52657375 
 1635      6C743A20 
 1635      53554343 
 1635      45535300 
 1636              	.LC10:
 1637 0080 4641494C 		.ascii	"FAILURE\000"
 1637      55524500 
 1638              	.LC11:
 1639 0088 53554343 		.ascii	"SUCCESS\000"
 1639      45535300 
 1640              	.LC12:
 1641 0090 322E352E 		.ascii	"2.5.2unstable\000"
 1641      32756E73 
 1641      7461626C 
 1641      6500
 1642 009e 0000     		.space	2
 1643              	.LC13:
 1644 00a0 2A2A2A20 		.ascii	"*** Compiled:     \000"
 1644      436F6D70 
 1644      696C6564 
 1644      3A202020 
 1644      202000
 1645 00b3 00       		.space	1
 1646              	.LC14:
 1647 00b4 4D617220 		.ascii	"Mar 24 2013 - 21:12:26\000"
 1647      32342032 
 1647      30313320 
 1647      2D203231 
 1647      3A31323A 
 1648 00cb 00       		.space	1
 1649              	.LC15:
 1650 00cc 2A2A2A20 		.ascii	"*** Compiler:     \000"
 1650      436F6D70 
 1650      696C6572 
 1650      3A202020 
 1650      202000
 1651 00df 00       		.space	1
 1652              	.LC16:
 1653 00e0 47434320 		.ascii	"GCC 4.7.2\000"
 1653      342E372E 
 1653      3200
 1654 00ea 0000     		.space	2
ARM GAS  C:\Users\TaisikHam\AppData\Local\Temp\cce7eCj2.s 			page 31


 1655              	.LC17:
 1656 00ec 2A2A2A20 		.ascii	"*** Architecture: \000"
 1656      41726368 
 1656      69746563 
 1656      74757265 
 1656      3A2000
 1657 00ff 00       		.space	1
 1658              	.LC18:
 1659 0100 41524D76 		.ascii	"ARMv7-ME\000"
 1659      372D4D45 
 1659      00
 1660 0109 000000   		.space	3
 1661              	.LC19:
 1662 010c 2A2A2A20 		.ascii	"*** Core Variant: \000"
 1662      436F7265 
 1662      20566172 
 1662      69616E74 
 1662      3A2000
 1663 011f 00       		.space	1
 1664              	.LC20:
 1665 0120 436F7274 		.ascii	"Cortex-M4\000"
 1665      65782D4D 
 1665      3400
 1666 012a 0000     		.space	2
 1667              	.LC21:
 1668 012c 2A2A2A20 		.ascii	"*** Port Info:    \000"
 1668      506F7274 
 1668      20496E66 
 1668      6F3A2020 
 1668      202000
 1669 013f 00       		.space	1
 1670              	.LC22:
 1671 0140 41647661 		.ascii	"Advanced kernel mode\000"
 1671      6E636564 
 1671      206B6572 
 1671      6E656C20 
 1671      6D6F6465 
 1672 0155 000000   		.space	3
 1673              	.LC23:
 1674 0158 2A2A2A20 		.ascii	"*** Platform:     \000"
 1674      506C6174 
 1674      666F726D 
 1674      3A202020 
 1674      202000
 1675 016b 00       		.space	1
 1676              	.LC24:
 1677 016c 53544D33 		.ascii	"STM32F30x Analog & DSP\000"
 1677      32463330 
 1677      7820416E 
 1677      616C6F67 
 1677      20262044 
 1678 0183 00       		.space	1
 1679              	.LC25:
 1680 0184 2A2A2A20 		.ascii	"*** Test Board:   \000"
 1680      54657374 
 1680      20426F61 
 1680      72643A20 
ARM GAS  C:\Users\TaisikHam\AppData\Local\Temp\cce7eCj2.s 			page 32


 1680      202000
 1681 0197 00       		.space	1
 1682              	.LC26:
 1683 0198 53544D69 		.ascii	"STMicroelectronics STM32F3-Discovery\000"
 1683      63726F65 
 1683      6C656374 
 1683      726F6E69 
 1683      63732053 
 1684 01bd 000000   		.space	3
 1685              	.LC27:
 1686 01c0 202800   		.ascii	" (\000"
 1687 01c3 00       		.space	1
 1688              	.LC28:
 1689 01c4 205B00   		.ascii	" [\000"
 1690 01c7 00       		.space	1
 1691              	.LC29:
 1692 01c8 46696E61 		.ascii	"Final result: \000"
 1692      6C207265 
 1692      73756C74 
 1692      3A2000
 1693 01d7 00       		.section	.bss.vt,"aw",%nobits
 1694              		.align	2
 1695              		.set	.LANCHOR8,. + 0
 1696              		.type	vt, %object
 1697              		.size	vt, 20
 1698              	vt:
 1699 0000 00000000 		.space	20
 1699      00000000 
 1699      00000000 
 1699      00000000 
 1699      00000000 
 1700              		.section	.bss.threads,"aw",%nobits
 1701              		.align	2
 1702              		.set	.LANCHOR7,. + 0
 1703              		.type	threads, %object
 1704              		.size	threads, 20
 1705              	threads:
 1706 0000 00000000 		.space	20
 1706      00000000 
 1706      00000000 
 1706      00000000 
 1706      00000000 
 1707              		.section	.rodata.patterns,"a",%progbits
 1708              		.align	2
 1709              		.set	.LANCHOR9,. + 0
 1710              		.type	patterns, %object
 1711              		.size	patterns, 48
 1712              	patterns:
 1713 0000 00000000 		.word	patternthd
 1714 0004 00000000 		.word	patternsem
 1715 0008 00000000 		.word	patternmtx
 1716 000c 00000000 		.word	patternmsg
 1717 0010 00000000 		.word	patternmbox
 1718 0014 00000000 		.word	patternevt
 1719 0018 00000000 		.word	patternheap
 1720 001c 00000000 		.word	patternpools
 1721 0020 00000000 		.word	patterndyn
ARM GAS  C:\Users\TaisikHam\AppData\Local\Temp\cce7eCj2.s 			page 33


 1722 0024 00000000 		.word	patternqueues
 1723 0028 00000000 		.word	patternbmk
 1724 002c 00000000 		.word	0
 1725              		.section	.bss.chp,"aw",%nobits
 1726              		.align	2
 1727              		.set	.LANCHOR1,. + 0
 1728              		.type	chp, %object
 1729              		.size	chp, 4
 1730              	chp:
 1731 0000 00000000 		.space	4
 1732              		.section	.bss.tokens_buffer,"aw",%nobits
 1733              		.align	2
 1734              		.set	.LANCHOR6,. + 0
 1735              		.type	tokens_buffer, %object
 1736              		.size	tokens_buffer, 16
 1737              	tokens_buffer:
 1738 0000 00000000 		.space	16
 1738      00000000 
 1738      00000000 
 1738      00000000 
 1739              		.text
 1740              	.Letext0:
 1741              		.file 2 "c:\\develop\\genist\\chibistudio\\tools\\yagarto-tools\\yagarto-20121222\\bin\\../lib/gcc
 1742              		.file 3 "c:/develop/genist/chibistudio/tools/yagarto-tools/yagarto-20121222/lib/gcc/../../arm-none
 1743              		.file 4 "../../../os/ports/GCC/ARMCMx/chtypes.h"
 1744              		.file 5 "../../../os/kernel/include/chlists.h"
 1745              		.file 6 "../../../os/kernel/include/chthreads.h"
 1746              		.file 7 "../../../os/ports/GCC/ARMCMx/chcore_v7m.h"
 1747              		.file 8 "../../../os/kernel/include/chvt.h"
 1748              		.file 9 "../../../os/kernel/include/chschd.h"
 1749              		.file 10 "../../../os/kernel/include/chmtx.h"
 1750              		.file 11 "../../../os/kernel/include/chstreams.h"
 1751              		.file 12 "../../../test/test.h"
 1752              		.file 13 "../../../os/ports/common/ARMCMx/CMSIS/include/core_cm4.h"
 1753              		.file 14 "../../../test/testthd.h"
 1754              		.file 15 "../../../test/testsem.h"
 1755              		.file 16 "../../../test/testmtx.h"
 1756              		.file 17 "../../../test/testmsg.h"
 1757              		.file 18 "../../../test/testmbox.h"
 1758              		.file 19 "../../../test/testevt.h"
 1759              		.file 20 "../../../test/testheap.h"
 1760              		.file 21 "../../../test/testpools.h"
 1761              		.file 22 "../../../test/testdyn.h"
 1762              		.file 23 "../../../test/testqueues.h"
 1763              		.file 24 "../../../test/testbmk.h"
 1764              		.file 25 "../../../os/kernel/include/chdebug.h"