ARM GAS  C:\cygwin\tmp\ccbhjTPw.s 			page 1


   1              		.syntax unified
   2              		.cpu cortex-m4
   3              		.fpu softvfp
   4              		.eabi_attribute 20, 1
   5              		.eabi_attribute 21, 1
   6              		.eabi_attribute 23, 3
   7              		.eabi_attribute 24, 1
   8              		.eabi_attribute 25, 1
   9              		.eabi_attribute 26, 1
  10              		.eabi_attribute 30, 2
  11              		.eabi_attribute 34, 1
  12              		.eabi_attribute 18, 4
  13              		.thumb
  14              		.file	"testthd.c"
  15              		.text
  16              	.Ltext0:
  17              		.cfi_sections	.debug_frame
  18              		.section	.text.thd3_execute,"ax",%progbits
  19              		.align	2
  20              		.p2align 4,,15
  21              		.thumb
  22              		.thumb_func
  23              		.type	thd3_execute, %function
  24              	thd3_execute:
  25              	.LFB10:
  26              		.file 1 "../../../test/testthd.c"
  27              		.loc 1 130 0
  28              		.cfi_startproc
  29              		@ args = 0, pretend = 0, frame = 0
  30              		@ frame_needed = 0, uses_anonymous_args = 0
  31 0000 F8B5     		push	{r3, r4, r5, r6, r7, lr}
  32              	.LCFI0:
  33              		.cfi_def_cfa_offset 24
  34              		.cfi_offset 3, -24
  35              		.cfi_offset 4, -20
  36              		.cfi_offset 5, -16
  37              		.cfi_offset 6, -12
  38              		.cfi_offset 7, -8
  39              		.cfi_offset 14, -4
  40              		.loc 1 133 0
  41 0002 524E     		ldr	r6, .L7
  42 0004 B369     		ldr	r3, [r6, #24]
  43 0006 9C68     		ldr	r4, [r3, #8]
  44              	.LVL0:
  45              		.loc 1 134 0
  46 0008 651C     		adds	r5, r4, #1
  47 000a 2846     		mov	r0, r5
  48 000c FFF7FEFF 		bl	chThdSetPriority
  49              	.LVL1:
  50              		.loc 1 135 0
  51 0010 031B     		subs	r3, r0, r4
  52 0012 5942     		rsbs	r1, r3, #0
  53 0014 5941     		adcs	r1, r1, r3
  54              		.loc 1 134 0
  55 0016 0746     		mov	r7, r0
  56              	.LVL2:
  57              		.loc 1 135 0
ARM GAS  C:\cygwin\tmp\ccbhjTPw.s 			page 2


  58 0018 0120     		movs	r0, #1
  59              	.LVL3:
  60 001a FFF7FEFF 		bl	_test_assert
  61              	.LVL4:
  62 001e 00B1     		cbz	r0, .L6
  63              	.LVL5:
  64              	.L1:
  65 0020 F8BD     		pop	{r3, r4, r5, r6, r7, pc}
  66              	.LVL6:
  67              	.L6:
  68              		.loc 1 137 0
  69 0022 B369     		ldr	r3, [r6, #24]
  70 0024 9968     		ldr	r1, [r3, #8]
  71 0026 0220     		movs	r0, #2
  72 0028 B5EB010C 		subs	ip, r5, r1
  73 002c DCF10001 		rsbs	r1, ip, #0
  74 0030 51EB0C01 		adcs	r1, r1, ip
  75 0034 FFF7FEFF 		bl	_test_assert
  76              	.LVL7:
  77 0038 0028     		cmp	r0, #0
  78 003a F1D1     		bne	.L1
  79              		.loc 1 139 0
  80 003c 3846     		mov	r0, r7
  81 003e FFF7FEFF 		bl	chThdSetPriority
  82              	.LVL8:
  83              		.loc 1 140 0
  84 0042 B5EB000E 		subs	lr, r5, r0
  85 0046 DEF10001 		rsbs	r1, lr, #0
  86 004a 51EB0E01 		adcs	r1, r1, lr
  87 004e 0320     		movs	r0, #3
  88              	.LVL9:
  89 0050 FFF7FEFF 		bl	_test_assert
  90              	.LVL10:
  91 0054 0028     		cmp	r0, #0
  92 0056 E3D1     		bne	.L1
  93              		.loc 1 142 0
  94 0058 B369     		ldr	r3, [r6, #24]
  95 005a 9968     		ldr	r1, [r3, #8]
  96 005c 0420     		movs	r0, #4
  97 005e 0F1B     		subs	r7, r1, r4
  98 0060 7942     		rsbs	r1, r7, #0
  99 0062 7941     		adcs	r1, r1, r7
 100 0064 FFF7FEFF 		bl	_test_assert
 101              	.LVL11:
 102 0068 0746     		mov	r7, r0
 103 006a 0028     		cmp	r0, #0
 104 006c D8D1     		bne	.L1
 105              	.LBB2:
 106              		.loc 1 147 0
 107 006e 2023     		movs	r3, #32
 108              	.LVL12:
 109              	@ 147 "../../../test/testthd.c" 1
 110 0070 83F31188 		msr     BASEPRI, r3
 111              	@ 0 "" 2
 112              	.LVL13:
 113              		.thumb
 114              	.LBE2:
ARM GAS  C:\cygwin\tmp\ccbhjTPw.s 			page 3


 115 0074 FFF7FEFF 		bl	dbg_check_lock
 116              	.LVL14:
 117              		.loc 1 148 0
 118 0078 B369     		ldr	r3, [r6, #24]
 119 007a 9A68     		ldr	r2, [r3, #8]
 120 007c 0232     		adds	r2, r2, #2
 121 007e 9A60     		str	r2, [r3, #8]
 122              		.loc 1 149 0
 123 0080 FFF7FEFF 		bl	dbg_check_unlock
 124              	.LVL15:
 125              	.LBB3:
 126 0084 3B46     		mov	r3, r7
 127              	.LVL16:
 128              	@ 149 "../../../test/testthd.c" 1
 129 0086 83F31188 		msr     BASEPRI, r3
 130              	@ 0 "" 2
 131              	.LVL17:
 132              		.thumb
 133              	.LBE3:
 134              		.loc 1 150 0
 135 008a B369     		ldr	r3, [r6, #24]
 136              	.LVL18:
 137 008c 9968     		ldr	r1, [r3, #8]
 138 008e A71C     		adds	r7, r4, #2
 139 0090 0520     		movs	r0, #5
 140 0092 CA1B     		subs	r2, r1, r7
 141 0094 5142     		rsbs	r1, r2, #0
 142 0096 5141     		adcs	r1, r1, r2
 143 0098 FFF7FEFF 		bl	_test_assert
 144              	.LVL19:
 145 009c 0028     		cmp	r0, #0
 146 009e BFD1     		bne	.L1
 147              		.loc 1 154 0
 148 00a0 2846     		mov	r0, r5
 149 00a2 FFF7FEFF 		bl	chThdSetPriority
 150              	.LVL20:
 151              		.loc 1 155 0
 152 00a6 031B     		subs	r3, r0, r4
 153 00a8 5942     		rsbs	r1, r3, #0
 154 00aa 5941     		adcs	r1, r1, r3
 155 00ac 0620     		movs	r0, #6
 156              	.LVL21:
 157 00ae FFF7FEFF 		bl	_test_assert
 158              	.LVL22:
 159 00b2 0028     		cmp	r0, #0
 160 00b4 B4D1     		bne	.L1
 161              		.loc 1 157 0
 162 00b6 B369     		ldr	r3, [r6, #24]
 163 00b8 9968     		ldr	r1, [r3, #8]
 164 00ba 0720     		movs	r0, #7
 165 00bc B7EB010C 		subs	ip, r7, r1
 166 00c0 DCF10001 		rsbs	r1, ip, #0
 167 00c4 51EB0C01 		adcs	r1, r1, ip
 168 00c8 FFF7FEFF 		bl	_test_assert
 169              	.LVL23:
 170 00cc 0028     		cmp	r0, #0
 171 00ce A7D1     		bne	.L1
ARM GAS  C:\cygwin\tmp\ccbhjTPw.s 			page 4


 172              		.loc 1 159 0
 173 00d0 B369     		ldr	r3, [r6, #24]
 174 00d2 596C     		ldr	r1, [r3, #68]
 175 00d4 0820     		movs	r0, #8
 176 00d6 B5EB010E 		subs	lr, r5, r1
 177 00da DEF10001 		rsbs	r1, lr, #0
 178 00de 51EB0E01 		adcs	r1, r1, lr
 179 00e2 FFF7FEFF 		bl	_test_assert
 180              	.LVL24:
 181 00e6 0028     		cmp	r0, #0
 182 00e8 9AD1     		bne	.L1
 183              		.loc 1 163 0
 184 00ea E71C     		adds	r7, r4, #3
 185 00ec 3846     		mov	r0, r7
 186 00ee FFF7FEFF 		bl	chThdSetPriority
 187              	.LVL25:
 188              		.loc 1 164 0
 189 00f2 281A     		subs	r0, r5, r0
 190              	.LVL26:
 191 00f4 4142     		rsbs	r1, r0, #0
 192 00f6 4141     		adcs	r1, r1, r0
 193 00f8 0920     		movs	r0, #9
 194 00fa FFF7FEFF 		bl	_test_assert
 195              	.LVL27:
 196 00fe 0028     		cmp	r0, #0
 197 0100 8ED1     		bne	.L1
 198              		.loc 1 166 0
 199 0102 B369     		ldr	r3, [r6, #24]
 200 0104 9968     		ldr	r1, [r3, #8]
 201 0106 0A20     		movs	r0, #10
 202 0108 7A1A     		subs	r2, r7, r1
 203 010a 5142     		rsbs	r1, r2, #0
 204 010c 5141     		adcs	r1, r1, r2
 205 010e FFF7FEFF 		bl	_test_assert
 206              	.LVL28:
 207 0112 0028     		cmp	r0, #0
 208 0114 84D1     		bne	.L1
 209              		.loc 1 168 0
 210 0116 B369     		ldr	r3, [r6, #24]
 211 0118 596C     		ldr	r1, [r3, #68]
 212 011a 0B20     		movs	r0, #11
 213 011c 7B1A     		subs	r3, r7, r1
 214 011e 5942     		rsbs	r1, r3, #0
 215 0120 5941     		adcs	r1, r1, r3
 216 0122 FFF7FEFF 		bl	_test_assert
 217              	.LVL29:
 218 0126 0546     		mov	r5, r0
 219 0128 0028     		cmp	r0, #0
 220 012a 7FF479AF 		bne	.L1
 221              	.LBB4:
 222              		.loc 1 171 0
 223 012e 2023     		movs	r3, #32
 224              	.LVL30:
 225              	@ 171 "../../../test/testthd.c" 1
 226 0130 83F31188 		msr     BASEPRI, r3
 227              	@ 0 "" 2
 228              	.LVL31:
ARM GAS  C:\cygwin\tmp\ccbhjTPw.s 			page 5


 229              		.thumb
 230              	.LBE4:
 231 0134 FFF7FEFF 		bl	dbg_check_lock
 232              	.LVL32:
 233              		.loc 1 172 0
 234 0138 B369     		ldr	r3, [r6, #24]
 235 013a 9C60     		str	r4, [r3, #8]
 236              		.loc 1 173 0
 237 013c 5C64     		str	r4, [r3, #68]
 238              		.loc 1 174 0
 239 013e FFF7FEFF 		bl	dbg_check_unlock
 240              	.LVL33:
 241              	.LBB5:
 242 0142 2B46     		mov	r3, r5
 243              	@ 174 "../../../test/testthd.c" 1
 244 0144 83F31188 		msr     BASEPRI, r3
 245              	@ 0 "" 2
 246              	.LVL34:
 247              		.thumb
 248 0148 6AE7     		b	.L1
 249              	.L8:
 250 014a 00BF     		.align	2
 251              	.L7:
 252 014c 00000000 		.word	rlist
 253              	.LBE5:
 254              		.cfi_endproc
 255              	.LFE10:
 256              		.size	thd3_execute, .-thd3_execute
 257              		.section	.text.thd2_execute,"ax",%progbits
 258              		.align	2
 259              		.p2align 4,,15
 260              		.thumb
 261              		.thumb_func
 262              		.type	thd2_execute, %function
 263              	thd2_execute:
 264              	.LFB9:
 265              		.loc 1 98 0
 266              		.cfi_startproc
 267              		@ args = 0, pretend = 0, frame = 0
 268              		@ frame_needed = 0, uses_anonymous_args = 0
 269 0000 F0B5     		push	{r4, r5, r6, r7, lr}
 270              	.LCFI1:
 271              		.cfi_def_cfa_offset 20
 272              		.cfi_offset 4, -20
 273              		.cfi_offset 5, -16
 274              		.cfi_offset 6, -12
 275              		.cfi_offset 7, -8
 276              		.cfi_offset 14, -4
 277              		.loc 1 100 0
 278 0002 40F20007 		movw	r7, #:lower16:rlist
 279 0006 C0F20007 		movt	r7, #:upper16:rlist
 280 000a 40F20006 		movw	r6, #:lower16:wa
 281 000e BB69     		ldr	r3, [r7, #24]
 282              		.loc 1 98 0
 283 0010 83B0     		sub	sp, sp, #12
 284              	.LCFI2:
 285              		.cfi_def_cfa_offset 32
ARM GAS  C:\cygwin\tmp\ccbhjTPw.s 			page 6


 286              		.loc 1 100 0
 287 0012 C0F20006 		movt	r6, #:upper16:wa
 288 0016 9A68     		ldr	r2, [r3, #8]
 289 0018 7068     		ldr	r0, [r6, #4]
 290 001a 40F20005 		movw	r5, #:lower16:thread
 291 001e 40F20001 		movw	r1, #:lower16:.LC0
 292 0022 C0F20005 		movt	r5, #:upper16:thread
 293 0026 C0F20001 		movt	r1, #:upper16:.LC0
 294 002a 043A     		subs	r2, r2, #4
 295 002c 2B46     		mov	r3, r5
 296 002e 0091     		str	r1, [sp, #0]
 297 0030 4FF49871 		mov	r1, #304
 298 0034 FFF7FEFF 		bl	chThdCreateStatic
 299              	.LVL35:
 300 0038 40F20004 		movw	r4, #:lower16:threads
 301              		.loc 1 101 0
 302 003c BB69     		ldr	r3, [r7, #24]
 303 003e 3168     		ldr	r1, [r6, #0]
 304 0040 9A68     		ldr	r2, [r3, #8]
 305              		.loc 1 100 0
 306 0042 C0F20004 		movt	r4, #:upper16:threads
 307              		.loc 1 101 0
 308 0046 053A     		subs	r2, r2, #5
 309              		.loc 1 100 0
 310 0048 6060     		str	r0, [r4, #4]
 311              		.loc 1 101 0
 312 004a 40F20000 		movw	r0, #:lower16:.LC1
 313 004e C0F20000 		movt	r0, #:upper16:.LC1
 314 0052 2B46     		mov	r3, r5
 315 0054 0090     		str	r0, [sp, #0]
 316 0056 0846     		mov	r0, r1
 317 0058 4FF49871 		mov	r1, #304
 318 005c FFF7FEFF 		bl	chThdCreateStatic
 319              	.LVL36:
 320              		.loc 1 102 0
 321 0060 BB69     		ldr	r3, [r7, #24]
 322 0062 3169     		ldr	r1, [r6, #16]
 323 0064 9A68     		ldr	r2, [r3, #8]
 324              		.loc 1 101 0
 325 0066 2060     		str	r0, [r4, #0]
 326              		.loc 1 102 0
 327 0068 40F20000 		movw	r0, #:lower16:.LC2
 328 006c C0F20000 		movt	r0, #:upper16:.LC2
 329 0070 013A     		subs	r2, r2, #1
 330 0072 2B46     		mov	r3, r5
 331 0074 0090     		str	r0, [sp, #0]
 332 0076 0846     		mov	r0, r1
 333 0078 4FF49871 		mov	r1, #304
 334 007c FFF7FEFF 		bl	chThdCreateStatic
 335              	.LVL37:
 336              		.loc 1 103 0
 337 0080 BB69     		ldr	r3, [r7, #24]
 338 0082 F168     		ldr	r1, [r6, #12]
 339 0084 9A68     		ldr	r2, [r3, #8]
 340              		.loc 1 102 0
 341 0086 2061     		str	r0, [r4, #16]
 342              		.loc 1 103 0
ARM GAS  C:\cygwin\tmp\ccbhjTPw.s 			page 7


 343 0088 40F20000 		movw	r0, #:lower16:.LC3
 344 008c C0F20000 		movt	r0, #:upper16:.LC3
 345 0090 2B46     		mov	r3, r5
 346 0092 0090     		str	r0, [sp, #0]
 347 0094 023A     		subs	r2, r2, #2
 348 0096 0846     		mov	r0, r1
 349 0098 4FF49871 		mov	r1, #304
 350 009c FFF7FEFF 		bl	chThdCreateStatic
 351              	.LVL38:
 352              	.LBB6:
 353              		.loc 1 105 0
 354 00a0 2023     		movs	r3, #32
 355              	.LVL39:
 356              	.LBE6:
 357              		.loc 1 103 0
 358 00a2 E060     		str	r0, [r4, #12]
 359              	.LBB7:
 360              		.loc 1 105 0
 361              	@ 105 "../../../test/testthd.c" 1
 362 00a4 83F31188 		msr     BASEPRI, r3
 363              	@ 0 "" 2
 364              	.LVL40:
 365              		.thumb
 366              	.LBE7:
 367 00a8 FFF7FEFF 		bl	dbg_check_lock
 368              	.LVL41:
 369              		.loc 1 106 0
 370 00ac BB69     		ldr	r3, [r7, #24]
 371 00ae B068     		ldr	r0, [r6, #8]
 372 00b0 9A68     		ldr	r2, [r3, #8]
 373 00b2 2B46     		mov	r3, r5
 374 00b4 40F20005 		movw	r5, #:lower16:.LC4
 375 00b8 C0F20005 		movt	r5, #:upper16:.LC4
 376 00bc 4FF49871 		mov	r1, #304
 377 00c0 033A     		subs	r2, r2, #3
 378 00c2 0095     		str	r5, [sp, #0]
 379 00c4 FFF7FEFF 		bl	chThdCreateI
 380              	.LVL42:
 381 00c8 A060     		str	r0, [r4, #8]
 382              		.loc 1 107 0
 383 00ca FFF7FEFF 		bl	dbg_check_unlock
 384              	.LVL43:
 385              	.LBB8:
 386 00ce 0023     		movs	r3, #0
 387              	.LVL44:
 388              	@ 107 "../../../test/testthd.c" 1
 389 00d0 83F31188 		msr     BASEPRI, r3
 390              	@ 0 "" 2
 391              	.LVL45:
 392              		.thumb
 393              	.LBE8:
 394              		.loc 1 108 0
 395 00d4 A068     		ldr	r0, [r4, #8]
 396 00d6 FFF7FEFF 		bl	chThdResume
 397              	.LVL46:
 398              		.loc 1 109 0
 399 00da FFF7FEFF 		bl	test_wait_threads
ARM GAS  C:\cygwin\tmp\ccbhjTPw.s 			page 8


 400              	.LVL47:
 401              		.loc 1 110 0
 402 00de 40F20001 		movw	r1, #:lower16:.LC5
 403 00e2 0120     		movs	r0, #1
 404 00e4 C0F20001 		movt	r1, #:upper16:.LC5
 405              		.loc 1 111 0
 406 00e8 03B0     		add	sp, sp, #12
 407 00ea BDE8F040 		pop	{r4, r5, r6, r7, lr}
 408              		.loc 1 110 0
 409 00ee FFF7FEBF 		b	_test_assert_sequence
 410              	.LVL48:
 411              		.cfi_endproc
 412              	.LFE9:
 413              		.size	thd2_execute, .-thd2_execute
 414 00f2 00BFAFF3 		.section	.text.thd1_execute,"ax",%progbits
 414      0080AFF3 
 414      0080AFF3 
 414      0080
 415              		.align	2
 416              		.p2align 4,,15
 417              		.thumb
 418              		.thumb_func
 419              		.type	thd1_execute, %function
 420              	thd1_execute:
 421              	.LFB8:
 422              		.loc 1 70 0
 423              		.cfi_startproc
 424              		@ args = 0, pretend = 0, frame = 0
 425              		@ frame_needed = 0, uses_anonymous_args = 0
 426 0000 2DE9F041 		push	{r4, r5, r6, r7, r8, lr}
 427              	.LCFI3:
 428              		.cfi_def_cfa_offset 24
 429              		.cfi_offset 4, -24
 430              		.cfi_offset 5, -20
 431              		.cfi_offset 6, -16
 432              		.cfi_offset 7, -12
 433              		.cfi_offset 8, -8
 434              		.cfi_offset 14, -4
 435              		.loc 1 72 0
 436 0004 40F20008 		movw	r8, #:lower16:rlist
 437 0008 C0F20008 		movt	r8, #:upper16:rlist
 438 000c 40F20006 		movw	r6, #:lower16:wa
 439 0010 D8F81830 		ldr	r3, [r8, #24]
 440              		.loc 1 70 0
 441 0014 82B0     		sub	sp, sp, #8
 442              	.LCFI4:
 443              		.cfi_def_cfa_offset 32
 444              		.loc 1 72 0
 445 0016 C0F20006 		movt	r6, #:upper16:wa
 446 001a 9A68     		ldr	r2, [r3, #8]
 447 001c 3068     		ldr	r0, [r6, #0]
 448 001e 40F20005 		movw	r5, #:lower16:thread
 449 0022 40F20004 		movw	r4, #:lower16:.LC1
 450 0026 C0F20005 		movt	r5, #:upper16:thread
 451 002a C0F20004 		movt	r4, #:upper16:.LC1
 452 002e 053A     		subs	r2, r2, #5
 453 0030 2B46     		mov	r3, r5
ARM GAS  C:\cygwin\tmp\ccbhjTPw.s 			page 9


 454 0032 0094     		str	r4, [sp, #0]
 455 0034 4FF49871 		mov	r1, #304
 456 0038 FFF7FEFF 		bl	chThdCreateStatic
 457              	.LVL49:
 458 003c 40F20004 		movw	r4, #:lower16:threads
 459 0040 C0F20004 		movt	r4, #:upper16:threads
 460              		.loc 1 73 0
 461 0044 D8F81830 		ldr	r3, [r8, #24]
 462 0048 7768     		ldr	r7, [r6, #4]
 463 004a 9A68     		ldr	r2, [r3, #8]
 464              		.loc 1 72 0
 465 004c 2060     		str	r0, [r4, #0]
 466              		.loc 1 73 0
 467 004e 40F20000 		movw	r0, #:lower16:.LC0
 468 0052 C0F20000 		movt	r0, #:upper16:.LC0
 469 0056 043A     		subs	r2, r2, #4
 470 0058 2B46     		mov	r3, r5
 471 005a 0090     		str	r0, [sp, #0]
 472 005c 4FF49871 		mov	r1, #304
 473 0060 3846     		mov	r0, r7
 474 0062 FFF7FEFF 		bl	chThdCreateStatic
 475              	.LVL50:
 476              		.loc 1 74 0
 477 0066 D8F81830 		ldr	r3, [r8, #24]
 478 006a B768     		ldr	r7, [r6, #8]
 479 006c 9A68     		ldr	r2, [r3, #8]
 480              		.loc 1 73 0
 481 006e 6060     		str	r0, [r4, #4]
 482              		.loc 1 74 0
 483 0070 40F20000 		movw	r0, #:lower16:.LC4
 484 0074 C0F20000 		movt	r0, #:upper16:.LC4
 485 0078 033A     		subs	r2, r2, #3
 486 007a 2B46     		mov	r3, r5
 487 007c 0090     		str	r0, [sp, #0]
 488 007e 4FF49871 		mov	r1, #304
 489 0082 3846     		mov	r0, r7
 490 0084 FFF7FEFF 		bl	chThdCreateStatic
 491              	.LVL51:
 492              		.loc 1 75 0
 493 0088 D8F81830 		ldr	r3, [r8, #24]
 494 008c F768     		ldr	r7, [r6, #12]
 495 008e 9A68     		ldr	r2, [r3, #8]
 496              		.loc 1 74 0
 497 0090 A060     		str	r0, [r4, #8]
 498              		.loc 1 75 0
 499 0092 40F20000 		movw	r0, #:lower16:.LC3
 500 0096 C0F20000 		movt	r0, #:upper16:.LC3
 501 009a 023A     		subs	r2, r2, #2
 502 009c 2B46     		mov	r3, r5
 503 009e 0090     		str	r0, [sp, #0]
 504 00a0 4FF49871 		mov	r1, #304
 505 00a4 3846     		mov	r0, r7
 506 00a6 FFF7FEFF 		bl	chThdCreateStatic
 507              	.LVL52:
 508              		.loc 1 76 0
 509 00aa D8F81830 		ldr	r3, [r8, #24]
 510 00ae 3669     		ldr	r6, [r6, #16]
ARM GAS  C:\cygwin\tmp\ccbhjTPw.s 			page 10


 511 00b0 9A68     		ldr	r2, [r3, #8]
 512              		.loc 1 75 0
 513 00b2 E060     		str	r0, [r4, #12]
 514              		.loc 1 76 0
 515 00b4 40F20000 		movw	r0, #:lower16:.LC2
 516 00b8 C0F20000 		movt	r0, #:upper16:.LC2
 517 00bc 4FF49871 		mov	r1, #304
 518 00c0 013A     		subs	r2, r2, #1
 519 00c2 2B46     		mov	r3, r5
 520 00c4 0090     		str	r0, [sp, #0]
 521 00c6 3046     		mov	r0, r6
 522 00c8 FFF7FEFF 		bl	chThdCreateStatic
 523              	.LVL53:
 524 00cc 2061     		str	r0, [r4, #16]
 525              		.loc 1 77 0
 526 00ce FFF7FEFF 		bl	test_wait_threads
 527              	.LVL54:
 528              		.loc 1 78 0
 529 00d2 40F20001 		movw	r1, #:lower16:.LC5
 530 00d6 0120     		movs	r0, #1
 531 00d8 C0F20001 		movt	r1, #:upper16:.LC5
 532              		.loc 1 79 0
 533 00dc 02B0     		add	sp, sp, #8
 534 00de BDE8F041 		pop	{r4, r5, r6, r7, r8, lr}
 535              		.loc 1 78 0
 536 00e2 FFF7FEBF 		b	_test_assert_sequence
 537              	.LVL55:
 538              		.cfi_endproc
 539              	.LFE8:
 540              		.size	thd1_execute, .-thd1_execute
 541 00e6 00BFAFF3 		.section	.text.thread,"ax",%progbits
 541      0080AFF3 
 541      0080
 542              		.align	2
 543              		.p2align 4,,15
 544              		.thumb
 545              		.thumb_func
 546              		.type	thread, %function
 547              	thread:
 548              	.LFB7:
 549              		.loc 1 64 0
 550              		.cfi_startproc
 551              		@ args = 0, pretend = 0, frame = 0
 552              		@ frame_needed = 0, uses_anonymous_args = 0
 553              	.LVL56:
 554 0000 08B5     		push	{r3, lr}
 555              	.LCFI5:
 556              		.cfi_def_cfa_offset 8
 557              		.cfi_offset 3, -8
 558              		.cfi_offset 14, -4
 559              		.loc 1 66 0
 560 0002 0078     		ldrb	r0, [r0, #0]	@ zero_extendqisi2
 561              	.LVL57:
 562 0004 FFF7FEFF 		bl	test_emit_token
 563              	.LVL58:
 564              		.loc 1 68 0
 565 0008 0020     		movs	r0, #0
ARM GAS  C:\cygwin\tmp\ccbhjTPw.s 			page 11


 566 000a 08BD     		pop	{r3, pc}
 567              		.cfi_endproc
 568              	.LFE7:
 569              		.size	thread, .-thread
 570 000c AFF30080 		.section	.text.thd4_execute,"ax",%progbits
 571              		.align	2
 572              		.p2align 4,,15
 573              		.thumb
 574              		.thumb_func
 575              		.type	thd4_execute, %function
 576              	thd4_execute:
 577              	.LFB11:
 578              		.loc 1 193 0
 579              		.cfi_startproc
 580              		@ args = 0, pretend = 0, frame = 0
 581              		@ frame_needed = 0, uses_anonymous_args = 0
 582 0000 38B5     		push	{r3, r4, r5, lr}
 583              	.LCFI6:
 584              		.cfi_def_cfa_offset 16
 585              		.cfi_offset 3, -16
 586              		.cfi_offset 4, -12
 587              		.cfi_offset 5, -8
 588              		.cfi_offset 14, -4
 589              		.loc 1 199 0
 590 0002 1C4D     		ldr	r5, .L17
 591              		.loc 1 196 0
 592 0004 FFF7FEFF 		bl	test_wait_tick
 593              	.LVL59:
 594              		.loc 1 199 0
 595 0008 EC68     		ldr	r4, [r5, #12]
 596              	.LVL60:
 597              		.loc 1 200 0
 598 000a 6420     		movs	r0, #100
 599 000c FFF7FEFF 		bl	chThdSleep
 600              	.LVL61:
 601              		.loc 1 201 0
 602 0010 0120     		movs	r0, #1
 603 0012 04F16401 		add	r1, r4, #100
 604 0016 04F16502 		add	r2, r4, #101
 605 001a FFF7FEFF 		bl	_test_assert_time_window
 606              	.LVL62:
 607 001e 00B1     		cbz	r0, .L16
 608              	.LVL63:
 609              	.L12:
 610 0020 38BD     		pop	{r3, r4, r5, pc}
 611              	.LVL64:
 612              	.L16:
 613              		.loc 1 204 0
 614 0022 EC68     		ldr	r4, [r5, #12]
 615              	.LVL65:
 616              		.loc 1 205 0
 617 0024 6420     		movs	r0, #100
 618 0026 FFF7FEFF 		bl	chThdSleep
 619              	.LVL66:
 620              		.loc 1 206 0
 621 002a 0220     		movs	r0, #2
 622 002c 04F16401 		add	r1, r4, #100
ARM GAS  C:\cygwin\tmp\ccbhjTPw.s 			page 12


 623 0030 04F16502 		add	r2, r4, #101
 624 0034 FFF7FEFF 		bl	_test_assert_time_window
 625              	.LVL67:
 626 0038 0028     		cmp	r0, #0
 627 003a F1D1     		bne	.L12
 628              	.LBB11:
 629              	.LBB12:
 630              		.loc 1 209 0
 631 003c EC68     		ldr	r4, [r5, #12]
 632              	.LVL68:
 633              		.loc 1 210 0
 634 003e 4FF47A70 		mov	r0, #1000
 635 0042 FFF7FEFF 		bl	chThdSleep
 636              	.LVL69:
 637              		.loc 1 211 0
 638 0046 0320     		movs	r0, #3
 639 0048 04F57A71 		add	r1, r4, #1000
 640 004c 04F2E932 		addw	r2, r4, #1001
 641 0050 FFF7FEFF 		bl	_test_assert_time_window
 642              	.LVL70:
 643 0054 0028     		cmp	r0, #0
 644 0056 E3D1     		bne	.L12
 645              		.loc 1 214 0
 646 0058 EC68     		ldr	r4, [r5, #12]
 647              	.LVL71:
 648 005a 04F16405 		add	r5, r4, #100
 649              	.LVL72:
 650              		.loc 1 215 0
 651 005e 2846     		mov	r0, r5
 652 0060 FFF7FEFF 		bl	chThdSleepUntil
 653              	.LVL73:
 654              		.loc 1 216 0
 655 0064 0420     		movs	r0, #4
 656 0066 2946     		mov	r1, r5
 657 0068 04F16502 		add	r2, r4, #101
 658              	.LBE12:
 659              	.LBE11:
 660              		.loc 1 217 0
 661 006c BDE83840 		pop	{r3, r4, r5, lr}
 662              	.LBB14:
 663              	.LBB13:
 664              		.loc 1 216 0
 665 0070 FFF7FEBF 		b	_test_assert_time_window
 666              	.LVL74:
 667              	.L18:
 668              		.align	2
 669              	.L17:
 670 0074 00000000 		.word	vtlist
 671              	.LBE13:
 672              	.LBE14:
 673              		.cfi_endproc
 674              	.LFE11:
 675              		.size	thd4_execute, .-thd4_execute
 676              		.global	patternthd
 677              		.global	testthd4
 678              		.global	testthd3
 679              		.global	testthd2
ARM GAS  C:\cygwin\tmp\ccbhjTPw.s 			page 13


 680              		.global	testthd1
 681 0078 AFF30080 		.section	.rodata.testthd1,"a",%progbits
 681      AFF30080 
 682              		.align	2
 683              		.type	testthd1, %object
 684              		.size	testthd1, 16
 685              	testthd1:
 686 0000 64000000 		.word	.LC9
 687 0004 00000000 		.word	0
 688 0008 00000000 		.word	0
 689 000c 00000000 		.word	thd1_execute
 690              		.section	.rodata.testthd2,"a",%progbits
 691              		.align	2
 692              		.type	testthd2, %object
 693              		.size	testthd2, 16
 694              	testthd2:
 695 0000 48000000 		.word	.LC8
 696 0004 00000000 		.word	0
 697 0008 00000000 		.word	0
 698 000c 00000000 		.word	thd2_execute
 699              		.section	.rodata.testthd3,"a",%progbits
 700              		.align	2
 701              		.type	testthd3, %object
 702              		.size	testthd3, 16
 703              	testthd3:
 704 0000 2C000000 		.word	.LC7
 705 0004 00000000 		.word	0
 706 0008 00000000 		.word	0
 707 000c 00000000 		.word	thd3_execute
 708              		.section	.rodata.testthd4,"a",%progbits
 709              		.align	2
 710              		.type	testthd4, %object
 711              		.size	testthd4, 16
 712              	testthd4:
 713 0000 1C000000 		.word	.LC6
 714 0004 00000000 		.word	0
 715 0008 00000000 		.word	0
 716 000c 00000000 		.word	thd4_execute
 717              		.section	.rodata.patternthd,"a",%progbits
 718              		.align	2
 719              		.type	patternthd, %object
 720              		.size	patternthd, 20
 721              	patternthd:
 722 0000 00000000 		.word	testthd1
 723 0004 00000000 		.word	testthd2
 724 0008 00000000 		.word	testthd3
 725 000c 00000000 		.word	testthd4
 726 0010 00000000 		.word	0
 727              		.section	.rodata.str1.4,"aMS",%progbits,1
 728              		.align	2
 729              	.LC0:
 730 0000 4400     		.ascii	"D\000"
 731 0002 0000     		.space	2
 732              	.LC1:
 733 0004 4500     		.ascii	"E\000"
 734 0006 0000     		.space	2
 735              	.LC2:
ARM GAS  C:\cygwin\tmp\ccbhjTPw.s 			page 14


 736 0008 4100     		.ascii	"A\000"
 737 000a 0000     		.space	2
 738              	.LC3:
 739 000c 4200     		.ascii	"B\000"
 740 000e 0000     		.space	2
 741              	.LC4:
 742 0010 4300     		.ascii	"C\000"
 743 0012 0000     		.space	2
 744              	.LC5:
 745 0014 41424344 		.ascii	"ABCDE\000"
 745      4500
 746 001a 0000     		.space	2
 747              	.LC6:
 748 001c 54687265 		.ascii	"Threads, delays\000"
 748      6164732C 
 748      2064656C 
 748      61797300 
 749              	.LC7:
 750 002c 54687265 		.ascii	"Threads, priority change\000"
 750      6164732C 
 750      20707269 
 750      6F726974 
 750      79206368 
 751 0045 000000   		.space	3
 752              	.LC8:
 753 0048 54687265 		.ascii	"Threads, enqueuing test #2\000"
 753      6164732C 
 753      20656E71 
 753      75657569 
 753      6E672074 
 754 0063 00       		.space	1
 755              	.LC9:
 756 0064 54687265 		.ascii	"Threads, enqueuing test #1\000"
 756      6164732C 
 756      20656E71 
 756      75657569 
 756      6E672074 
 757 007f 00       		.text
 758              	.Letext0:
 759              		.file 2 "c:\\develop\\genist\\chibistudio\\tools\\yagarto-tools\\yagarto-20121222\\bin\\../lib/gcc
 760              		.file 3 "c:/develop/genist/chibistudio/tools/yagarto-tools/yagarto-20121222/lib/gcc/../../arm-none
 761              		.file 4 "../../../os/ports/GCC/ARMCMx/chtypes.h"
 762              		.file 5 "../../../os/kernel/include/chlists.h"
 763              		.file 6 "../../../os/kernel/include/chthreads.h"
 764              		.file 7 "../../../os/ports/GCC/ARMCMx/chcore_v7m.h"
 765              		.file 8 "../../../os/kernel/include/chvt.h"
 766              		.file 9 "../../../os/kernel/include/chschd.h"
 767              		.file 10 "../../../os/kernel/include/chmtx.h"
 768              		.file 11 "../../../test/test.h"
 769              		.file 12 "../../../os/kernel/include/chdebug.h"