ARM GAS  C:\Users\TaisikHam\AppData\Local\Temp\ccK7hSbk.s 			page 1


   1              		.syntax unified
   2              		.cpu cortex-m4
   3              		.fpu softvfp
   4              		.eabi_attribute 20, 1
   5              		.eabi_attribute 21, 1
   6              		.eabi_attribute 23, 3
   7              		.eabi_attribute 24, 1
   8              		.eabi_attribute 25, 1
   9              		.eabi_attribute 26, 1
  10              		.eabi_attribute 30, 2
  11              		.eabi_attribute 34, 1
  12              		.eabi_attribute 18, 4
  13              		.thumb
  14              		.file	"testmtx.c"
  15              		.text
  16              	.Ltext0:
  17              		.cfi_sections	.debug_frame
  18              		.section	.text.mtx8_execute,"ax",%progbits
  19              		.align	2
  20              		.p2align 4,,15
  21              		.thumb
  22              		.thumb_func
  23              		.type	mtx8_execute, %function
  24              	mtx8_execute:
  25              	.LFB36:
  26              		.file 1 "../../../test/testmtx.c"
  27              		.loc 1 599 0
  28              		.cfi_startproc
  29              		@ args = 0, pretend = 0, frame = 0
  30              		@ frame_needed = 0, uses_anonymous_args = 0
  31 0000 F0B5     		push	{r4, r5, r6, r7, lr}
  32              	.LCFI0:
  33              		.cfi_def_cfa_offset 20
  34              		.cfi_offset 4, -20
  35              		.cfi_offset 5, -16
  36              		.cfi_offset 6, -12
  37              		.cfi_offset 7, -8
  38              		.cfi_offset 14, -4
  39              		.loc 1 601 0
  40 0002 40F20003 		movw	r3, #:lower16:rlist
  41 0006 C0F20003 		movt	r3, #:upper16:rlist
  42              		.loc 1 602 0
  43 000a 40F20005 		movw	r5, #:lower16:wa
  44              		.loc 1 601 0
  45 000e 9B69     		ldr	r3, [r3, #24]
  46              		.loc 1 599 0
  47 0010 83B0     		sub	sp, sp, #12
  48              	.LCFI1:
  49              		.cfi_def_cfa_offset 32
  50              		.loc 1 601 0
  51 0012 9E68     		ldr	r6, [r3, #8]
  52              	.LVL0:
  53              		.loc 1 602 0
  54 0014 C0F20005 		movt	r5, #:upper16:wa
  55 0018 40F20004 		movw	r4, #:lower16:.LC0
  56 001c C0F20004 		movt	r4, #:upper16:.LC0
  57 0020 40F20003 		movw	r3, #:lower16:thread11
ARM GAS  C:\Users\TaisikHam\AppData\Local\Temp\ccK7hSbk.s 			page 2


  58 0024 721C     		adds	r2, r6, #1
  59 0026 0094     		str	r4, [sp, #0]
  60 0028 2868     		ldr	r0, [r5, #0]
  61 002a 4FF49871 		mov	r1, #304
  62 002e C0F20003 		movt	r3, #:upper16:thread11
  63 0032 FFF7FEFF 		bl	chThdCreateStatic
  64              	.LVL1:
  65 0036 40F20004 		movw	r4, #:lower16:threads
  66 003a C0F20004 		movt	r4, #:upper16:threads
  67              		.loc 1 603 0
  68 003e 6F68     		ldr	r7, [r5, #4]
  69              		.loc 1 602 0
  70 0040 2060     		str	r0, [r4, #0]
  71              		.loc 1 603 0
  72 0042 40F20000 		movw	r0, #:lower16:.LC1
  73 0046 C0F20000 		movt	r0, #:upper16:.LC1
  74 004a 40F20003 		movw	r3, #:lower16:thread10
  75 004e B21C     		adds	r2, r6, #2
  76 0050 0090     		str	r0, [sp, #0]
  77 0052 4FF49871 		mov	r1, #304
  78 0056 C0F20003 		movt	r3, #:upper16:thread10
  79 005a 3846     		mov	r0, r7
  80 005c FFF7FEFF 		bl	chThdCreateStatic
  81              	.LVL2:
  82              		.loc 1 604 0
  83 0060 AD68     		ldr	r5, [r5, #8]
  84              		.loc 1 603 0
  85 0062 6060     		str	r0, [r4, #4]
  86              		.loc 1 604 0
  87 0064 40F20000 		movw	r0, #:lower16:.LC2
  88 0068 C0F20000 		movt	r0, #:upper16:.LC2
  89 006c 40F20003 		movw	r3, #:lower16:thread12
  90 0070 4FF49871 		mov	r1, #304
  91 0074 F21C     		adds	r2, r6, #3
  92 0076 C0F20003 		movt	r3, #:upper16:thread12
  93 007a 0090     		str	r0, [sp, #0]
  94 007c 2846     		mov	r0, r5
  95 007e FFF7FEFF 		bl	chThdCreateStatic
  96              	.LVL3:
  97              		.loc 1 605 0
  98 0082 40F20005 		movw	r5, #:lower16:.LANCHOR0
  99 0086 C0F20005 		movt	r5, #:upper16:.LANCHOR0
 100              		.loc 1 604 0
 101 008a A060     		str	r0, [r4, #8]
 102              		.loc 1 605 0
 103 008c 2846     		mov	r0, r5
 104 008e FFF7FEFF 		bl	chCondSignal
 105              	.LVL4:
 106              		.loc 1 606 0
 107 0092 2846     		mov	r0, r5
 108 0094 FFF7FEFF 		bl	chCondSignal
 109              	.LVL5:
 110              		.loc 1 607 0
 111 0098 FFF7FEFF 		bl	test_wait_threads
 112              	.LVL6:
 113              		.loc 1 608 0
 114 009c 40F20001 		movw	r1, #:lower16:.LC3
ARM GAS  C:\Users\TaisikHam\AppData\Local\Temp\ccK7hSbk.s 			page 3


 115 00a0 0120     		movs	r0, #1
 116 00a2 C0F20001 		movt	r1, #:upper16:.LC3
 117              		.loc 1 609 0
 118 00a6 03B0     		add	sp, sp, #12
 119 00a8 BDE8F040 		pop	{r4, r5, r6, r7, lr}
 120              		.loc 1 608 0
 121 00ac FFF7FEBF 		b	_test_assert_sequence
 122              	.LVL7:
 123              		.cfi_endproc
 124              	.LFE36:
 125              		.size	mtx8_execute, .-mtx8_execute
 126              		.section	.text.thread12,"ax",%progbits
 127              		.align	2
 128              		.p2align 4,,15
 129              		.thumb
 130              		.thumb_func
 131              		.type	thread12, %function
 132              	thread12:
 133              	.LFB35:
 134              		.loc 1 591 0
 135              		.cfi_startproc
 136              		@ args = 0, pretend = 0, frame = 0
 137              		@ frame_needed = 0, uses_anonymous_args = 0
 138              	.LVL8:
 139 0000 10B5     		push	{r4, lr}
 140              	.LCFI2:
 141              		.cfi_def_cfa_offset 8
 142              		.cfi_offset 4, -8
 143              		.cfi_offset 14, -4
 144              		.loc 1 591 0
 145 0002 0446     		mov	r4, r0
 146              		.loc 1 593 0
 147 0004 40F20000 		movw	r0, #:lower16:.LANCHOR1
 148              	.LVL9:
 149 0008 C0F20000 		movt	r0, #:upper16:.LANCHOR1
 150 000c FFF7FEFF 		bl	chMtxLock
 151              	.LVL10:
 152              		.loc 1 594 0
 153 0010 2078     		ldrb	r0, [r4, #0]	@ zero_extendqisi2
 154 0012 FFF7FEFF 		bl	test_emit_token
 155              	.LVL11:
 156              		.loc 1 595 0
 157 0016 FFF7FEFF 		bl	chMtxUnlock
 158              	.LVL12:
 159              		.loc 1 597 0
 160 001a 0020     		movs	r0, #0
 161 001c 10BD     		pop	{r4, pc}
 162              		.cfi_endproc
 163              	.LFE35:
 164              		.size	thread12, .-thread12
 165 001e 00BF     		.section	.text.thread1,"ax",%progbits
 166              		.align	2
 167              		.p2align 4,,15
 168              		.thumb
 169              		.thumb_func
 170              		.type	thread1, %function
 171              	thread1:
ARM GAS  C:\Users\TaisikHam\AppData\Local\Temp\ccK7hSbk.s 			page 4


 172              	.LFB8:
 173              		.loc 1 93 0
 174              		.cfi_startproc
 175              		@ args = 0, pretend = 0, frame = 0
 176              		@ frame_needed = 0, uses_anonymous_args = 0
 177              	.LVL13:
 178 0000 10B5     		push	{r4, lr}
 179              	.LCFI3:
 180              		.cfi_def_cfa_offset 8
 181              		.cfi_offset 4, -8
 182              		.cfi_offset 14, -4
 183              		.loc 1 93 0
 184 0002 0446     		mov	r4, r0
 185              		.loc 1 95 0
 186 0004 40F20000 		movw	r0, #:lower16:.LANCHOR2
 187              	.LVL14:
 188 0008 C0F20000 		movt	r0, #:upper16:.LANCHOR2
 189 000c FFF7FEFF 		bl	chMtxLock
 190              	.LVL15:
 191              		.loc 1 96 0
 192 0010 2078     		ldrb	r0, [r4, #0]	@ zero_extendqisi2
 193 0012 FFF7FEFF 		bl	test_emit_token
 194              	.LVL16:
 195              		.loc 1 97 0
 196 0016 FFF7FEFF 		bl	chMtxUnlock
 197              	.LVL17:
 198              		.loc 1 99 0
 199 001a 0020     		movs	r0, #0
 200 001c 10BD     		pop	{r4, pc}
 201              		.cfi_endproc
 202              	.LFE8:
 203              		.size	thread1, .-thread1
 204 001e 00BF     		.section	.text.thread10,"ax",%progbits
 205              		.align	2
 206              		.p2align 4,,15
 207              		.thumb
 208              		.thumb_func
 209              		.type	thread10, %function
 210              	thread10:
 211              	.LFB29:
 212              		.loc 1 488 0
 213              		.cfi_startproc
 214              		@ args = 0, pretend = 0, frame = 0
 215              		@ frame_needed = 0, uses_anonymous_args = 0
 216              	.LVL18:
 217 0000 10B5     		push	{r4, lr}
 218              	.LCFI4:
 219              		.cfi_def_cfa_offset 8
 220              		.cfi_offset 4, -8
 221              		.cfi_offset 14, -4
 222              		.loc 1 488 0
 223 0002 0446     		mov	r4, r0
 224              		.loc 1 490 0
 225 0004 40F20000 		movw	r0, #:lower16:.LANCHOR2
 226              	.LVL19:
 227 0008 C0F20000 		movt	r0, #:upper16:.LANCHOR2
 228 000c FFF7FEFF 		bl	chMtxLock
ARM GAS  C:\Users\TaisikHam\AppData\Local\Temp\ccK7hSbk.s 			page 5


 229              	.LVL20:
 230              		.loc 1 491 0
 231 0010 40F20000 		movw	r0, #:lower16:.LANCHOR0
 232 0014 C0F20000 		movt	r0, #:upper16:.LANCHOR0
 233 0018 FFF7FEFF 		bl	chCondWait
 234              	.LVL21:
 235              		.loc 1 492 0
 236 001c 2078     		ldrb	r0, [r4, #0]	@ zero_extendqisi2
 237 001e FFF7FEFF 		bl	test_emit_token
 238              	.LVL22:
 239              		.loc 1 493 0
 240 0022 FFF7FEFF 		bl	chMtxUnlock
 241              	.LVL23:
 242              		.loc 1 495 0
 243 0026 0020     		movs	r0, #0
 244 0028 10BD     		pop	{r4, pc}
 245              		.cfi_endproc
 246              	.LFE29:
 247              		.size	thread10, .-thread10
 248 002a 00BFAFF3 		.section	.text.thread11,"ax",%progbits
 248      0080
 249              		.align	2
 250              		.p2align 4,,15
 251              		.thumb
 252              		.thumb_func
 253              		.type	thread11, %function
 254              	thread11:
 255              	.LFB34:
 256              		.loc 1 576 0
 257              		.cfi_startproc
 258              		@ args = 0, pretend = 0, frame = 0
 259              		@ frame_needed = 0, uses_anonymous_args = 0
 260              	.LVL24:
 261 0000 10B5     		push	{r4, lr}
 262              	.LCFI5:
 263              		.cfi_def_cfa_offset 8
 264              		.cfi_offset 4, -8
 265              		.cfi_offset 14, -4
 266              		.loc 1 576 0
 267 0002 0446     		mov	r4, r0
 268              		.loc 1 578 0
 269 0004 40F20000 		movw	r0, #:lower16:.LANCHOR1
 270              	.LVL25:
 271 0008 C0F20000 		movt	r0, #:upper16:.LANCHOR1
 272 000c FFF7FEFF 		bl	chMtxLock
 273              	.LVL26:
 274              		.loc 1 579 0
 275 0010 40F20000 		movw	r0, #:lower16:.LANCHOR2
 276 0014 C0F20000 		movt	r0, #:upper16:.LANCHOR2
 277 0018 FFF7FEFF 		bl	chMtxLock
 278              	.LVL27:
 279              		.loc 1 581 0
 280 001c 40F20000 		movw	r0, #:lower16:.LANCHOR0
 281 0020 4FF0FF31 		mov	r1, #-1
 282 0024 C0F20000 		movt	r0, #:upper16:.LANCHOR0
 283 0028 FFF7FEFF 		bl	chCondWaitTimeout
 284              	.LVL28:
ARM GAS  C:\Users\TaisikHam\AppData\Local\Temp\ccK7hSbk.s 			page 6


 285              		.loc 1 585 0
 286 002c 2078     		ldrb	r0, [r4, #0]	@ zero_extendqisi2
 287 002e FFF7FEFF 		bl	test_emit_token
 288              	.LVL29:
 289              		.loc 1 586 0
 290 0032 FFF7FEFF 		bl	chMtxUnlock
 291              	.LVL30:
 292              		.loc 1 587 0
 293 0036 FFF7FEFF 		bl	chMtxUnlock
 294              	.LVL31:
 295              		.loc 1 589 0
 296 003a 0020     		movs	r0, #0
 297 003c 10BD     		pop	{r4, pc}
 298              		.cfi_endproc
 299              	.LFE34:
 300              		.size	thread11, .-thread11
 301 003e 00BF     		.section	.text.mtx8_setup,"ax",%progbits
 302              		.align	2
 303              		.p2align 4,,15
 304              		.thumb
 305              		.thumb_func
 306              		.type	mtx8_setup, %function
 307              	mtx8_setup:
 308              	.LFB33:
 309              		.loc 1 569 0
 310              		.cfi_startproc
 311              		@ args = 0, pretend = 0, frame = 0
 312              		@ frame_needed = 0, uses_anonymous_args = 0
 313              		.loc 1 571 0
 314 0000 40F20000 		movw	r0, #:lower16:.LANCHOR0
 315              		.loc 1 569 0
 316 0004 08B5     		push	{r3, lr}
 317              	.LCFI6:
 318              		.cfi_def_cfa_offset 8
 319              		.cfi_offset 3, -8
 320              		.cfi_offset 14, -4
 321              		.loc 1 571 0
 322 0006 C0F20000 		movt	r0, #:upper16:.LANCHOR0
 323 000a FFF7FEFF 		bl	chCondInit
 324              	.LVL32:
 325              		.loc 1 572 0
 326 000e 40F20000 		movw	r0, #:lower16:.LANCHOR2
 327 0012 C0F20000 		movt	r0, #:upper16:.LANCHOR2
 328 0016 FFF7FEFF 		bl	chMtxInit
 329              	.LVL33:
 330              		.loc 1 573 0
 331 001a 40F20000 		movw	r0, #:lower16:.LANCHOR1
 332 001e C0F20000 		movt	r0, #:upper16:.LANCHOR1
 333              		.loc 1 574 0
 334 0022 BDE80840 		pop	{r3, lr}
 335              		.loc 1 573 0
 336 0026 FFF7FEBF 		b	chMtxInit
 337              	.LVL34:
 338              		.cfi_endproc
 339              	.LFE33:
 340              		.size	mtx8_setup, .-mtx8_setup
 341 002a 00BFAFF3 		.section	.text.mtx7_setup,"ax",%progbits
ARM GAS  C:\Users\TaisikHam\AppData\Local\Temp\ccK7hSbk.s 			page 7


 341      0080
 342              		.align	2
 343              		.p2align 4,,15
 344              		.thumb
 345              		.thumb_func
 346              		.type	mtx7_setup, %function
 347              	mtx7_setup:
 348              	.LFB31:
 349              		.loc 1 534 0
 350              		.cfi_startproc
 351              		@ args = 0, pretend = 0, frame = 0
 352              		@ frame_needed = 0, uses_anonymous_args = 0
 353 0000 08B5     		push	{r3, lr}
 354              	.LCFI7:
 355              		.cfi_def_cfa_offset 8
 356              		.cfi_offset 3, -8
 357              		.cfi_offset 14, -4
 358              		.loc 1 536 0
 359 0002 40F20000 		movw	r0, #:lower16:.LANCHOR0
 360 0006 C0F20000 		movt	r0, #:upper16:.LANCHOR0
 361 000a FFF7FEFF 		bl	chCondInit
 362              	.LVL35:
 363              		.loc 1 537 0
 364 000e 40F20000 		movw	r0, #:lower16:.LANCHOR2
 365 0012 C0F20000 		movt	r0, #:upper16:.LANCHOR2
 366              		.loc 1 538 0
 367 0016 BDE80840 		pop	{r3, lr}
 368              		.loc 1 537 0
 369 001a FFF7FEBF 		b	chMtxInit
 370              	.LVL36:
 371              		.cfi_endproc
 372              	.LFE31:
 373              		.size	mtx7_setup, .-mtx7_setup
 374 001e 00BF     		.section	.text.mtx6_setup,"ax",%progbits
 375              		.align	2
 376              		.p2align 4,,15
 377              		.thumb
 378              		.thumb_func
 379              		.type	mtx6_setup, %function
 380              	mtx6_setup:
 381              	.LFB28:
 382              		.loc 1 482 0
 383              		.cfi_startproc
 384              		@ args = 0, pretend = 0, frame = 0
 385              		@ frame_needed = 0, uses_anonymous_args = 0
 386 0000 08B5     		push	{r3, lr}
 387              	.LCFI8:
 388              		.cfi_def_cfa_offset 8
 389              		.cfi_offset 3, -8
 390              		.cfi_offset 14, -4
 391              		.loc 1 484 0
 392 0002 40F20000 		movw	r0, #:lower16:.LANCHOR0
 393 0006 C0F20000 		movt	r0, #:upper16:.LANCHOR0
 394 000a FFF7FEFF 		bl	chCondInit
 395              	.LVL37:
 396              		.loc 1 485 0
 397 000e 40F20000 		movw	r0, #:lower16:.LANCHOR2
ARM GAS  C:\Users\TaisikHam\AppData\Local\Temp\ccK7hSbk.s 			page 8


 398 0012 C0F20000 		movt	r0, #:upper16:.LANCHOR2
 399              		.loc 1 486 0
 400 0016 BDE80840 		pop	{r3, lr}
 401              		.loc 1 485 0
 402 001a FFF7FEBF 		b	chMtxInit
 403              	.LVL38:
 404              		.cfi_endproc
 405              	.LFE28:
 406              		.size	mtx6_setup, .-mtx6_setup
 407 001e 00BF     		.section	.text.mtx5_setup,"ax",%progbits
 408              		.align	2
 409              		.p2align 4,,15
 410              		.thumb
 411              		.thumb_func
 412              		.type	mtx5_setup, %function
 413              	mtx5_setup:
 414              	.LFB26:
 415              		.loc 1 432 0
 416              		.cfi_startproc
 417              		@ args = 0, pretend = 0, frame = 0
 418              		@ frame_needed = 0, uses_anonymous_args = 0
 419              		@ link register save eliminated.
 420              		.loc 1 434 0
 421 0000 40F20000 		movw	r0, #:lower16:.LANCHOR2
 422 0004 C0F20000 		movt	r0, #:upper16:.LANCHOR2
 423              		.loc 1 435 0
 424              		.loc 1 434 0
 425 0008 FFF7FEBF 		b	chMtxInit
 426              	.LVL39:
 427              		.cfi_endproc
 428              	.LFE26:
 429              		.size	mtx5_setup, .-mtx5_setup
 430 000c AFF30080 		.section	.text.mtx4_setup,"ax",%progbits
 431              		.align	2
 432              		.p2align 4,,15
 433              		.thumb
 434              		.thumb_func
 435              		.type	mtx4_setup, %function
 436              	mtx4_setup:
 437              	.LFB22:
 438              		.loc 1 345 0
 439              		.cfi_startproc
 440              		@ args = 0, pretend = 0, frame = 0
 441              		@ frame_needed = 0, uses_anonymous_args = 0
 442 0000 08B5     		push	{r3, lr}
 443              	.LCFI9:
 444              		.cfi_def_cfa_offset 8
 445              		.cfi_offset 3, -8
 446              		.cfi_offset 14, -4
 447              		.loc 1 347 0
 448 0002 40F20000 		movw	r0, #:lower16:.LANCHOR2
 449 0006 C0F20000 		movt	r0, #:upper16:.LANCHOR2
 450 000a FFF7FEFF 		bl	chMtxInit
 451              	.LVL40:
 452              		.loc 1 348 0
 453 000e 40F20000 		movw	r0, #:lower16:.LANCHOR1
 454 0012 C0F20000 		movt	r0, #:upper16:.LANCHOR1
ARM GAS  C:\Users\TaisikHam\AppData\Local\Temp\ccK7hSbk.s 			page 9


 455              		.loc 1 349 0
 456 0016 BDE80840 		pop	{r3, lr}
 457              		.loc 1 348 0
 458 001a FFF7FEBF 		b	chMtxInit
 459              	.LVL41:
 460              		.cfi_endproc
 461              	.LFE22:
 462              		.size	mtx4_setup, .-mtx4_setup
 463 001e 00BF     		.section	.text.mtx3_setup,"ax",%progbits
 464              		.align	2
 465              		.p2align 4,,15
 466              		.thumb
 467              		.thumb_func
 468              		.type	mtx3_setup, %function
 469              	mtx3_setup:
 470              	.LFB15:
 471              		.loc 1 245 0
 472              		.cfi_startproc
 473              		@ args = 0, pretend = 0, frame = 0
 474              		@ frame_needed = 0, uses_anonymous_args = 0
 475 0000 08B5     		push	{r3, lr}
 476              	.LCFI10:
 477              		.cfi_def_cfa_offset 8
 478              		.cfi_offset 3, -8
 479              		.cfi_offset 14, -4
 480              		.loc 1 247 0
 481 0002 40F20000 		movw	r0, #:lower16:.LANCHOR2
 482 0006 C0F20000 		movt	r0, #:upper16:.LANCHOR2
 483 000a FFF7FEFF 		bl	chMtxInit
 484              	.LVL42:
 485              		.loc 1 248 0
 486 000e 40F20000 		movw	r0, #:lower16:.LANCHOR1
 487 0012 C0F20000 		movt	r0, #:upper16:.LANCHOR1
 488              		.loc 1 249 0
 489 0016 BDE80840 		pop	{r3, lr}
 490              		.loc 1 248 0
 491 001a FFF7FEBF 		b	chMtxInit
 492              	.LVL43:
 493              		.cfi_endproc
 494              	.LFE15:
 495              		.size	mtx3_setup, .-mtx3_setup
 496 001e 00BF     		.section	.text.mtx2_setup,"ax",%progbits
 497              		.align	2
 498              		.p2align 4,,15
 499              		.thumb
 500              		.thumb_func
 501              		.type	mtx2_setup, %function
 502              	mtx2_setup:
 503              	.LFB10:
 504              		.loc 1 155 0
 505              		.cfi_startproc
 506              		@ args = 0, pretend = 0, frame = 0
 507              		@ frame_needed = 0, uses_anonymous_args = 0
 508              		@ link register save eliminated.
 509              		.loc 1 157 0
 510 0000 40F20000 		movw	r0, #:lower16:.LANCHOR2
 511 0004 C0F20000 		movt	r0, #:upper16:.LANCHOR2
ARM GAS  C:\Users\TaisikHam\AppData\Local\Temp\ccK7hSbk.s 			page 10


 512              		.loc 1 158 0
 513              		.loc 1 157 0
 514 0008 FFF7FEBF 		b	chMtxInit
 515              	.LVL44:
 516              		.cfi_endproc
 517              	.LFE10:
 518              		.size	mtx2_setup, .-mtx2_setup
 519 000c AFF30080 		.section	.text.mtx1_setup,"ax",%progbits
 520              		.align	2
 521              		.p2align 4,,15
 522              		.thumb
 523              		.thumb_func
 524              		.type	mtx1_setup, %function
 525              	mtx1_setup:
 526              	.LFB7:
 527              		.loc 1 88 0
 528              		.cfi_startproc
 529              		@ args = 0, pretend = 0, frame = 0
 530              		@ frame_needed = 0, uses_anonymous_args = 0
 531              		@ link register save eliminated.
 532              		.loc 1 90 0
 533 0000 40F20000 		movw	r0, #:lower16:.LANCHOR2
 534 0004 C0F20000 		movt	r0, #:upper16:.LANCHOR2
 535              		.loc 1 91 0
 536              		.loc 1 90 0
 537 0008 FFF7FEBF 		b	chMtxInit
 538              	.LVL45:
 539              		.cfi_endproc
 540              	.LFE7:
 541              		.size	mtx1_setup, .-mtx1_setup
 542 000c AFF30080 		.section	.text.mtx7_execute,"ax",%progbits
 543              		.align	2
 544              		.p2align 4,,15
 545              		.thumb
 546              		.thumb_func
 547              		.type	mtx7_execute, %function
 548              	mtx7_execute:
 549              	.LFB32:
 550              		.loc 1 540 0
 551              		.cfi_startproc
 552              		@ args = 0, pretend = 0, frame = 0
 553              		@ frame_needed = 0, uses_anonymous_args = 0
 554 0000 F0B5     		push	{r4, r5, r6, r7, lr}
 555              	.LCFI11:
 556              		.cfi_def_cfa_offset 20
 557              		.cfi_offset 4, -20
 558              		.cfi_offset 5, -16
 559              		.cfi_offset 6, -12
 560              		.cfi_offset 7, -8
 561              		.cfi_offset 14, -4
 562              		.loc 1 542 0
 563 0002 40F20003 		movw	r3, #:lower16:rlist
 564 0006 C0F20003 		movt	r3, #:upper16:rlist
 565              		.loc 1 543 0
 566 000a 40F20006 		movw	r6, #:lower16:wa
 567              		.loc 1 542 0
 568 000e 9B69     		ldr	r3, [r3, #24]
ARM GAS  C:\Users\TaisikHam\AppData\Local\Temp\ccK7hSbk.s 			page 11


 569              		.loc 1 540 0
 570 0010 83B0     		sub	sp, sp, #12
 571              	.LCFI12:
 572              		.cfi_def_cfa_offset 32
 573              		.loc 1 542 0
 574 0012 9F68     		ldr	r7, [r3, #8]
 575              	.LVL46:
 576              		.loc 1 543 0
 577 0014 C0F20006 		movt	r6, #:upper16:wa
 578 0018 40F20005 		movw	r5, #:lower16:thread10
 579 001c 40F20004 		movw	r4, #:lower16:.LC4
 580 0020 C0F20005 		movt	r5, #:upper16:thread10
 581 0024 C0F20004 		movt	r4, #:upper16:.LC4
 582 0028 7A1C     		adds	r2, r7, #1
 583 002a 2B46     		mov	r3, r5
 584 002c 0094     		str	r4, [sp, #0]
 585 002e 3068     		ldr	r0, [r6, #0]
 586 0030 4FF49871 		mov	r1, #304
 587 0034 FFF7FEFF 		bl	chThdCreateStatic
 588              	.LVL47:
 589 0038 40F20004 		movw	r4, #:lower16:threads
 590 003c C0F20004 		movt	r4, #:upper16:threads
 591              		.loc 1 544 0
 592 0040 BA1C     		adds	r2, r7, #2
 593              		.loc 1 543 0
 594 0042 2060     		str	r0, [r4, #0]
 595              		.loc 1 544 0
 596 0044 40F20000 		movw	r0, #:lower16:.LC5
 597 0048 C0F20000 		movt	r0, #:upper16:.LC5
 598 004c 2B46     		mov	r3, r5
 599 004e 0090     		str	r0, [sp, #0]
 600 0050 4FF49871 		mov	r1, #304
 601 0054 7068     		ldr	r0, [r6, #4]
 602 0056 FFF7FEFF 		bl	chThdCreateStatic
 603              	.LVL48:
 604 005a 6060     		str	r0, [r4, #4]
 605              		.loc 1 545 0
 606 005c 40F20000 		movw	r0, #:lower16:.LC1
 607 0060 C0F20000 		movt	r0, #:upper16:.LC1
 608 0064 FA1C     		adds	r2, r7, #3
 609 0066 2B46     		mov	r3, r5
 610 0068 0090     		str	r0, [sp, #0]
 611 006a 4FF49871 		mov	r1, #304
 612 006e B068     		ldr	r0, [r6, #8]
 613 0070 FFF7FEFF 		bl	chThdCreateStatic
 614              	.LVL49:
 615 0074 A060     		str	r0, [r4, #8]
 616              		.loc 1 546 0
 617 0076 40F20000 		movw	r0, #:lower16:.LC2
 618 007a C0F20000 		movt	r0, #:upper16:.LC2
 619 007e 3A1D     		adds	r2, r7, #4
 620 0080 2B46     		mov	r3, r5
 621 0082 0090     		str	r0, [sp, #0]
 622 0084 4FF49871 		mov	r1, #304
 623 0088 F068     		ldr	r0, [r6, #12]
 624 008a FFF7FEFF 		bl	chThdCreateStatic
 625              	.LVL50:
ARM GAS  C:\Users\TaisikHam\AppData\Local\Temp\ccK7hSbk.s 			page 12


 626              		.loc 1 547 0
 627 008e 3669     		ldr	r6, [r6, #16]
 628              		.loc 1 546 0
 629 0090 E060     		str	r0, [r4, #12]
 630              		.loc 1 547 0
 631 0092 40F20000 		movw	r0, #:lower16:.LC0
 632 0096 C0F20000 		movt	r0, #:upper16:.LC0
 633 009a 4FF49871 		mov	r1, #304
 634 009e 7A1D     		adds	r2, r7, #5
 635 00a0 2B46     		mov	r3, r5
 636 00a2 0090     		str	r0, [sp, #0]
 637 00a4 3046     		mov	r0, r6
 638 00a6 FFF7FEFF 		bl	chThdCreateStatic
 639              	.LVL51:
 640 00aa 2061     		str	r0, [r4, #16]
 641              		.loc 1 548 0
 642 00ac 40F20000 		movw	r0, #:lower16:.LANCHOR0
 643 00b0 C0F20000 		movt	r0, #:upper16:.LANCHOR0
 644 00b4 FFF7FEFF 		bl	chCondBroadcast
 645              	.LVL52:
 646              		.loc 1 549 0
 647 00b8 FFF7FEFF 		bl	test_wait_threads
 648              	.LVL53:
 649              		.loc 1 550 0
 650 00bc 40F20001 		movw	r1, #:lower16:.LC6
 651 00c0 0120     		movs	r0, #1
 652 00c2 C0F20001 		movt	r1, #:upper16:.LC6
 653              		.loc 1 551 0
 654 00c6 03B0     		add	sp, sp, #12
 655 00c8 BDE8F040 		pop	{r4, r5, r6, r7, lr}
 656              		.loc 1 550 0
 657 00cc FFF7FEBF 		b	_test_assert_sequence
 658              	.LVL54:
 659              		.cfi_endproc
 660              	.LFE32:
 661              		.size	mtx7_execute, .-mtx7_execute
 662              		.section	.text.mtx6_execute,"ax",%progbits
 663              		.align	2
 664              		.p2align 4,,15
 665              		.thumb
 666              		.thumb_func
 667              		.type	mtx6_execute, %function
 668              	mtx6_execute:
 669              	.LFB30:
 670              		.loc 1 497 0
 671              		.cfi_startproc
 672              		@ args = 0, pretend = 0, frame = 0
 673              		@ frame_needed = 0, uses_anonymous_args = 0
 674 0000 F0B5     		push	{r4, r5, r6, r7, lr}
 675              	.LCFI13:
 676              		.cfi_def_cfa_offset 20
 677              		.cfi_offset 4, -20
 678              		.cfi_offset 5, -16
 679              		.cfi_offset 6, -12
 680              		.cfi_offset 7, -8
 681              		.cfi_offset 14, -4
 682              		.loc 1 499 0
ARM GAS  C:\Users\TaisikHam\AppData\Local\Temp\ccK7hSbk.s 			page 13


 683 0002 40F20003 		movw	r3, #:lower16:rlist
 684 0006 C0F20003 		movt	r3, #:upper16:rlist
 685              		.loc 1 500 0
 686 000a 40F20006 		movw	r6, #:lower16:wa
 687              		.loc 1 499 0
 688 000e 9B69     		ldr	r3, [r3, #24]
 689              		.loc 1 497 0
 690 0010 83B0     		sub	sp, sp, #12
 691              	.LCFI14:
 692              		.cfi_def_cfa_offset 32
 693              		.loc 1 499 0
 694 0012 9F68     		ldr	r7, [r3, #8]
 695              	.LVL55:
 696              		.loc 1 500 0
 697 0014 C0F20006 		movt	r6, #:upper16:wa
 698 0018 40F20005 		movw	r5, #:lower16:thread10
 699 001c 40F20001 		movw	r1, #:lower16:.LC4
 700 0020 C0F20005 		movt	r5, #:upper16:thread10
 701 0024 C0F20001 		movt	r1, #:upper16:.LC4
 702 0028 7A1C     		adds	r2, r7, #1
 703 002a 2B46     		mov	r3, r5
 704 002c 0091     		str	r1, [sp, #0]
 705 002e 3068     		ldr	r0, [r6, #0]
 706 0030 4FF49871 		mov	r1, #304
 707 0034 FFF7FEFF 		bl	chThdCreateStatic
 708              	.LVL56:
 709 0038 40F20004 		movw	r4, #:lower16:threads
 710 003c C0F20004 		movt	r4, #:upper16:threads
 711              		.loc 1 501 0
 712 0040 7168     		ldr	r1, [r6, #4]
 713              		.loc 1 500 0
 714 0042 2060     		str	r0, [r4, #0]
 715              		.loc 1 501 0
 716 0044 40F20000 		movw	r0, #:lower16:.LC5
 717 0048 C0F20000 		movt	r0, #:upper16:.LC5
 718 004c BA1C     		adds	r2, r7, #2
 719 004e 2B46     		mov	r3, r5
 720 0050 0090     		str	r0, [sp, #0]
 721 0052 0846     		mov	r0, r1
 722 0054 4FF49871 		mov	r1, #304
 723 0058 FFF7FEFF 		bl	chThdCreateStatic
 724              	.LVL57:
 725              		.loc 1 502 0
 726 005c B168     		ldr	r1, [r6, #8]
 727              		.loc 1 501 0
 728 005e 6060     		str	r0, [r4, #4]
 729              		.loc 1 502 0
 730 0060 40F20000 		movw	r0, #:lower16:.LC1
 731 0064 C0F20000 		movt	r0, #:upper16:.LC1
 732 0068 FA1C     		adds	r2, r7, #3
 733 006a 2B46     		mov	r3, r5
 734 006c 0090     		str	r0, [sp, #0]
 735 006e 0846     		mov	r0, r1
 736 0070 4FF49871 		mov	r1, #304
 737 0074 FFF7FEFF 		bl	chThdCreateStatic
 738              	.LVL58:
 739              		.loc 1 503 0
ARM GAS  C:\Users\TaisikHam\AppData\Local\Temp\ccK7hSbk.s 			page 14


 740 0078 F168     		ldr	r1, [r6, #12]
 741              		.loc 1 502 0
 742 007a A060     		str	r0, [r4, #8]
 743              		.loc 1 503 0
 744 007c 40F20000 		movw	r0, #:lower16:.LC2
 745 0080 C0F20000 		movt	r0, #:upper16:.LC2
 746 0084 3A1D     		adds	r2, r7, #4
 747 0086 2B46     		mov	r3, r5
 748 0088 0090     		str	r0, [sp, #0]
 749 008a 0846     		mov	r0, r1
 750 008c 4FF49871 		mov	r1, #304
 751 0090 FFF7FEFF 		bl	chThdCreateStatic
 752              	.LVL59:
 753              		.loc 1 504 0
 754 0094 3269     		ldr	r2, [r6, #16]
 755              		.loc 1 503 0
 756 0096 E060     		str	r0, [r4, #12]
 757              		.loc 1 504 0
 758 0098 40F20001 		movw	r1, #:lower16:.LC0
 759 009c C0F20001 		movt	r1, #:upper16:.LC0
 760 00a0 2B46     		mov	r3, r5
 761 00a2 0091     		str	r1, [sp, #0]
 762 00a4 1046     		mov	r0, r2
 763 00a6 4FF49871 		mov	r1, #304
 764 00aa 7A1D     		adds	r2, r7, #5
 765 00ac FFF7FEFF 		bl	chThdCreateStatic
 766              	.LVL60:
 767              	.LBB2:
 768              		.loc 1 505 0
 769 00b0 2023     		movs	r3, #32
 770              	.LVL61:
 771              	.LBE2:
 772              		.loc 1 504 0
 773 00b2 2061     		str	r0, [r4, #16]
 774              	.LBB3:
 775              		.loc 1 505 0
 776              	@ 505 "../../../test/testmtx.c" 1
 777 00b4 83F31188 		msr     BASEPRI, r3
 778              	@ 0 "" 2
 779              	.LVL62:
 780              		.thumb
 781              	.LBE3:
 782              		.loc 1 506 0
 783 00b8 40F20004 		movw	r4, #:lower16:.LANCHOR0
 784 00bc C0F20004 		movt	r4, #:upper16:.LANCHOR0
 785              		.loc 1 505 0
 786 00c0 FFF7FEFF 		bl	dbg_check_lock
 787              	.LVL63:
 788              		.loc 1 506 0
 789 00c4 2046     		mov	r0, r4
 790 00c6 FFF7FEFF 		bl	chCondSignalI
 791              	.LVL64:
 792              		.loc 1 507 0
 793 00ca 2046     		mov	r0, r4
 794 00cc FFF7FEFF 		bl	chCondSignalI
 795              	.LVL65:
 796              		.loc 1 508 0
ARM GAS  C:\Users\TaisikHam\AppData\Local\Temp\ccK7hSbk.s 			page 15


 797 00d0 2046     		mov	r0, r4
 798 00d2 FFF7FEFF 		bl	chCondSignalI
 799              	.LVL66:
 800              		.loc 1 509 0
 801 00d6 2046     		mov	r0, r4
 802 00d8 FFF7FEFF 		bl	chCondSignalI
 803              	.LVL67:
 804              		.loc 1 510 0
 805 00dc 2046     		mov	r0, r4
 806 00de FFF7FEFF 		bl	chCondSignalI
 807              	.LVL68:
 808              		.loc 1 511 0
 809 00e2 FFF7FEFF 		bl	chSchRescheduleS
 810              	.LVL69:
 811              		.loc 1 512 0
 812 00e6 FFF7FEFF 		bl	dbg_check_unlock
 813              	.LVL70:
 814              	.LBB4:
 815 00ea 0023     		movs	r3, #0
 816              	.LVL71:
 817              	@ 512 "../../../test/testmtx.c" 1
 818 00ec 83F31188 		msr     BASEPRI, r3
 819              	@ 0 "" 2
 820              	.LVL72:
 821              		.thumb
 822              	.LBE4:
 823              		.loc 1 513 0
 824 00f0 FFF7FEFF 		bl	test_wait_threads
 825              	.LVL73:
 826              		.loc 1 514 0
 827 00f4 40F20001 		movw	r1, #:lower16:.LC6
 828 00f8 0120     		movs	r0, #1
 829 00fa C0F20001 		movt	r1, #:upper16:.LC6
 830              		.loc 1 515 0
 831 00fe 03B0     		add	sp, sp, #12
 832 0100 BDE8F040 		pop	{r4, r5, r6, r7, lr}
 833              		.loc 1 514 0
 834 0104 FFF7FEBF 		b	_test_assert_sequence
 835              	.LVL74:
 836              		.cfi_endproc
 837              	.LFE30:
 838              		.size	mtx6_execute, .-mtx6_execute
 839 0108 AFF30080 		.section	.text.mtx1_execute,"ax",%progbits
 839      AFF30080 
 840              		.align	2
 841              		.p2align 4,,15
 842              		.thumb
 843              		.thumb_func
 844              		.type	mtx1_execute, %function
 845              	mtx1_execute:
 846              	.LFB9:
 847              		.loc 1 101 0
 848              		.cfi_startproc
 849              		@ args = 0, pretend = 0, frame = 8
 850              		@ frame_needed = 0, uses_anonymous_args = 0
 851 0000 F0B5     		push	{r4, r5, r6, r7, lr}
 852              	.LCFI15:
ARM GAS  C:\Users\TaisikHam\AppData\Local\Temp\ccK7hSbk.s 			page 16


 853              		.cfi_def_cfa_offset 20
 854              		.cfi_offset 4, -20
 855              		.cfi_offset 5, -16
 856              		.cfi_offset 6, -12
 857              		.cfi_offset 7, -8
 858              		.cfi_offset 14, -4
 859              		.loc 1 103 0
 860 0002 2C4F     		ldr	r7, .L20
 861              		.loc 1 104 0
 862 0004 2C48     		ldr	r0, .L20+4
 863              		.loc 1 103 0
 864 0006 BB69     		ldr	r3, [r7, #24]
 865              		.loc 1 105 0
 866 0008 2C4E     		ldr	r6, .L20+8
 867              		.loc 1 103 0
 868 000a 9C68     		ldr	r4, [r3, #8]
 869              	.LVL75:
 870              		.loc 1 105 0
 871 000c 2C4D     		ldr	r5, .L20+12
 872              		.loc 1 101 0
 873 000e 85B0     		sub	sp, sp, #20
 874              	.LCFI16:
 875              		.cfi_def_cfa_offset 40
 876              		.loc 1 104 0
 877 0010 FFF7FEFF 		bl	chMtxLock
 878              	.LVL76:
 879              		.loc 1 105 0
 880 0014 2B4A     		ldr	r2, .L20+16
 881 0016 3068     		ldr	r0, [r6, #0]
 882 0018 2B4B     		ldr	r3, .L20+20
 883 001a 0092     		str	r2, [sp, #0]
 884 001c 4FF49871 		mov	r1, #304
 885 0020 621C     		adds	r2, r4, #1
 886 0022 FFF7FEFF 		bl	chThdCreateStatic
 887              	.LVL77:
 888              		.loc 1 106 0
 889 0026 7368     		ldr	r3, [r6, #4]
 890              		.loc 1 105 0
 891 0028 2860     		str	r0, [r5, #0]
 892              		.loc 1 106 0
 893 002a 2848     		ldr	r0, .L20+24
 894 002c 0393     		str	r3, [sp, #12]
 895 002e A21C     		adds	r2, r4, #2
 896 0030 4FF49871 		mov	r1, #304
 897 0034 244B     		ldr	r3, .L20+20
 898 0036 0090     		str	r0, [sp, #0]
 899 0038 0398     		ldr	r0, [sp, #12]
 900 003a FFF7FEFF 		bl	chThdCreateStatic
 901              	.LVL78:
 902              		.loc 1 107 0
 903 003e B368     		ldr	r3, [r6, #8]
 904              		.loc 1 106 0
 905 0040 6860     		str	r0, [r5, #4]
 906              		.loc 1 107 0
 907 0042 2348     		ldr	r0, .L20+28
 908 0044 0393     		str	r3, [sp, #12]
 909 0046 E21C     		adds	r2, r4, #3
ARM GAS  C:\Users\TaisikHam\AppData\Local\Temp\ccK7hSbk.s 			page 17


 910 0048 4FF49871 		mov	r1, #304
 911 004c 1E4B     		ldr	r3, .L20+20
 912 004e 0090     		str	r0, [sp, #0]
 913 0050 0398     		ldr	r0, [sp, #12]
 914 0052 FFF7FEFF 		bl	chThdCreateStatic
 915              	.LVL79:
 916              		.loc 1 108 0
 917 0056 F368     		ldr	r3, [r6, #12]
 918              		.loc 1 107 0
 919 0058 A860     		str	r0, [r5, #8]
 920              		.loc 1 108 0
 921 005a 1E48     		ldr	r0, .L20+32
 922 005c 0393     		str	r3, [sp, #12]
 923 005e 221D     		adds	r2, r4, #4
 924 0060 4FF49871 		mov	r1, #304
 925 0064 184B     		ldr	r3, .L20+20
 926 0066 0090     		str	r0, [sp, #0]
 927 0068 0398     		ldr	r0, [sp, #12]
 928 006a FFF7FEFF 		bl	chThdCreateStatic
 929              	.LVL80:
 930              		.loc 1 109 0
 931 006e 3669     		ldr	r6, [r6, #16]
 932              		.loc 1 108 0
 933 0070 E860     		str	r0, [r5, #12]
 934              		.loc 1 109 0
 935 0072 1948     		ldr	r0, .L20+36
 936 0074 144B     		ldr	r3, .L20+20
 937 0076 0090     		str	r0, [sp, #0]
 938 0078 4FF49871 		mov	r1, #304
 939 007c 621D     		adds	r2, r4, #5
 940 007e 3046     		mov	r0, r6
 941 0080 FFF7FEFF 		bl	chThdCreateStatic
 942              	.LVL81:
 943 0084 2861     		str	r0, [r5, #16]
 944              		.loc 1 110 0
 945 0086 FFF7FEFF 		bl	chMtxUnlock
 946              	.LVL82:
 947              		.loc 1 111 0
 948 008a FFF7FEFF 		bl	test_wait_threads
 949              	.LVL83:
 950              		.loc 1 112 0
 951 008e BB69     		ldr	r3, [r7, #24]
 952 0090 9968     		ldr	r1, [r3, #8]
 953 0092 0120     		movs	r0, #1
 954 0094 0B1B     		subs	r3, r1, r4
 955 0096 5942     		rsbs	r1, r3, #0
 956 0098 5941     		adcs	r1, r1, r3
 957 009a FFF7FEFF 		bl	_test_assert
 958              	.LVL84:
 959 009e 08B1     		cbz	r0, .L19
 960              		.loc 1 114 0
 961 00a0 05B0     		add	sp, sp, #20
 962 00a2 F0BD     		pop	{r4, r5, r6, r7, pc}
 963              	.L19:
 964              		.loc 1 113 0
 965 00a4 0D49     		ldr	r1, .L20+40
 966 00a6 0220     		movs	r0, #2
ARM GAS  C:\Users\TaisikHam\AppData\Local\Temp\ccK7hSbk.s 			page 18


 967              		.loc 1 114 0
 968 00a8 05B0     		add	sp, sp, #20
 969 00aa BDE8F040 		pop	{r4, r5, r6, r7, lr}
 970              		.loc 1 113 0
 971 00ae FFF7FEBF 		b	_test_assert_sequence
 972              	.LVL85:
 973              	.L21:
 974 00b2 00BF     		.align	2
 975              	.L20:
 976 00b4 00000000 		.word	rlist
 977 00b8 00000000 		.word	.LANCHOR2
 978 00bc 00000000 		.word	wa
 979 00c0 00000000 		.word	threads
 980 00c4 10000000 		.word	.LC4
 981 00c8 00000000 		.word	thread1
 982 00cc 14000000 		.word	.LC5
 983 00d0 04000000 		.word	.LC1
 984 00d4 08000000 		.word	.LC2
 985 00d8 00000000 		.word	.LC0
 986 00dc 18000000 		.word	.LC6
 987              		.cfi_endproc
 988              	.LFE9:
 989              		.size	mtx1_execute, .-mtx1_execute
 990              		.section	.text.mtx5_execute,"ax",%progbits
 991              		.align	2
 992              		.p2align 4,,15
 993              		.thumb
 994              		.thumb_func
 995              		.type	mtx5_execute, %function
 996              	mtx5_execute:
 997              	.LFB27:
 998              		.loc 1 437 0
 999              		.cfi_startproc
 1000              		@ args = 0, pretend = 0, frame = 0
 1001              		@ frame_needed = 0, uses_anonymous_args = 0
 1002 0000 F8B5     		push	{r3, r4, r5, r6, r7, lr}
 1003              	.LCFI17:
 1004              		.cfi_def_cfa_offset 24
 1005              		.cfi_offset 3, -24
 1006              		.cfi_offset 4, -20
 1007              		.cfi_offset 5, -16
 1008              		.cfi_offset 6, -12
 1009              		.cfi_offset 7, -8
 1010              		.cfi_offset 14, -4
 1011              		.loc 1 441 0
 1012 0002 304D     		ldr	r5, .L27
 1013              		.loc 1 443 0
 1014 0004 304C     		ldr	r4, .L27+4
 1015              		.loc 1 441 0
 1016 0006 AB69     		ldr	r3, [r5, #24]
 1017              		.loc 1 443 0
 1018 0008 2046     		mov	r0, r4
 1019              		.loc 1 441 0
 1020 000a 9E68     		ldr	r6, [r3, #8]
 1021              	.LVL86:
 1022              		.loc 1 443 0
 1023 000c FFF7FEFF 		bl	chMtxTryLock
ARM GAS  C:\Users\TaisikHam\AppData\Local\Temp\ccK7hSbk.s 			page 19


 1024              	.LVL87:
 1025              		.loc 1 444 0
 1026 0010 0146     		mov	r1, r0
 1027 0012 0120     		movs	r0, #1
 1028              	.LVL88:
 1029 0014 FFF7FEFF 		bl	_test_assert
 1030              	.LVL89:
 1031 0018 00B1     		cbz	r0, .L26
 1032              	.L22:
 1033 001a F8BD     		pop	{r3, r4, r5, r6, r7, pc}
 1034              	.L26:
 1035              		.loc 1 446 0
 1036 001c 2046     		mov	r0, r4
 1037 001e FFF7FEFF 		bl	chMtxTryLock
 1038              	.LVL90:
 1039              		.loc 1 447 0
 1040 0022 80F00101 		eor	r1, r0, #1
 1041 0026 C9B2     		uxtb	r1, r1
 1042 0028 0220     		movs	r0, #2
 1043              	.LVL91:
 1044 002a FFF7FEFF 		bl	_test_assert
 1045              	.LVL92:
 1046 002e 0746     		mov	r7, r0
 1047 0030 0028     		cmp	r0, #0
 1048 0032 F2D1     		bne	.L22
 1049              	.LBB5:
 1050              		.loc 1 449 0
 1051 0034 2023     		movs	r3, #32
 1052              	.LVL93:
 1053              	@ 449 "../../../test/testmtx.c" 1
 1054 0036 83F31188 		msr     BASEPRI, r3
 1055              	@ 0 "" 2
 1056              	.LVL94:
 1057              		.thumb
 1058              	.LBE5:
 1059 003a FFF7FEFF 		bl	dbg_check_lock
 1060              	.LVL95:
 1061              		.loc 1 450 0
 1062 003e FFF7FEFF 		bl	chMtxUnlockS
 1063              	.LVL96:
 1064              		.loc 1 451 0
 1065 0042 FFF7FEFF 		bl	dbg_check_unlock
 1066              	.LVL97:
 1067              	.LBB6:
 1068 0046 3B46     		mov	r3, r7
 1069              	.LVL98:
 1070              	@ 451 "../../../test/testmtx.c" 1
 1071 0048 83F31188 		msr     BASEPRI, r3
 1072              	@ 0 "" 2
 1073              	.LVL99:
 1074              		.thumb
 1075              	.LBE6:
 1076              		.loc 1 453 0
 1077 004c 2168     		ldr	r1, [r4, #0]
 1078 004e 0320     		movs	r0, #3
 1079 0050 B1EB040C 		subs	ip, r1, r4
 1080 0054 DCF10001 		rsbs	r1, ip, #0
ARM GAS  C:\Users\TaisikHam\AppData\Local\Temp\ccK7hSbk.s 			page 20


 1081 0058 51EB0C01 		adcs	r1, r1, ip
 1082 005c FFF7FEFF 		bl	_test_assert
 1083              	.LVL100:
 1084 0060 0028     		cmp	r0, #0
 1085 0062 DAD1     		bne	.L22
 1086              		.loc 1 454 0
 1087 0064 A168     		ldr	r1, [r4, #8]
 1088 0066 0420     		movs	r0, #4
 1089 0068 D1F10101 		rsbs	r1, r1, #1
 1090 006c 38BF     		it	cc
 1091 006e 0021     		movcc	r1, #0
 1092 0070 FFF7FEFF 		bl	_test_assert
 1093              	.LVL101:
 1094 0074 0028     		cmp	r0, #0
 1095 0076 D0D1     		bne	.L22
 1096              		.loc 1 455 0
 1097 0078 AB69     		ldr	r3, [r5, #24]
 1098 007a 9968     		ldr	r1, [r3, #8]
 1099 007c 0520     		movs	r0, #5
 1100 007e B1EB060E 		subs	lr, r1, r6
 1101 0082 DEF10001 		rsbs	r1, lr, #0
 1102 0086 51EB0E01 		adcs	r1, r1, lr
 1103 008a FFF7FEFF 		bl	_test_assert
 1104              	.LVL102:
 1105 008e 0028     		cmp	r0, #0
 1106 0090 C3D1     		bne	.L22
 1107              		.loc 1 457 0
 1108 0092 2046     		mov	r0, r4
 1109 0094 FFF7FEFF 		bl	chMtxLock
 1110              	.LVL103:
 1111              		.loc 1 458 0
 1112 0098 FFF7FEFF 		bl	chMtxUnlockAll
 1113              	.LVL104:
 1114              		.loc 1 459 0
 1115 009c 2168     		ldr	r1, [r4, #0]
 1116 009e 0620     		movs	r0, #6
 1117 00a0 0A1B     		subs	r2, r1, r4
 1118 00a2 5142     		rsbs	r1, r2, #0
 1119 00a4 5141     		adcs	r1, r1, r2
 1120 00a6 FFF7FEFF 		bl	_test_assert
 1121              	.LVL105:
 1122 00aa 0028     		cmp	r0, #0
 1123 00ac B5D1     		bne	.L22
 1124              		.loc 1 460 0
 1125 00ae A168     		ldr	r1, [r4, #8]
 1126 00b0 0720     		movs	r0, #7
 1127 00b2 D1F10101 		rsbs	r1, r1, #1
 1128 00b6 38BF     		it	cc
 1129 00b8 0021     		movcc	r1, #0
 1130              		.loc 1 461 0
 1131 00ba BDE8F840 		pop	{r3, r4, r5, r6, r7, lr}
 1132              		.loc 1 460 0
 1133 00be FFF7FEBF 		b	_test_assert
 1134              	.LVL106:
 1135              	.L28:
 1136 00c2 00BF     		.align	2
 1137              	.L27:
ARM GAS  C:\Users\TaisikHam\AppData\Local\Temp\ccK7hSbk.s 			page 21


 1138 00c4 00000000 		.word	rlist
 1139 00c8 00000000 		.word	.LANCHOR2
 1140              		.cfi_endproc
 1141              	.LFE27:
 1142              		.size	mtx5_execute, .-mtx5_execute
 1143 00cc AFF30080 		.section	.text.mtx4_execute,"ax",%progbits
 1144              		.align	2
 1145              		.p2align 4,,15
 1146              		.thumb
 1147              		.thumb_func
 1148              		.type	mtx4_execute, %function
 1149              	mtx4_execute:
 1150              	.LFB25:
 1151              		.loc 1 369 0
 1152              		.cfi_startproc
 1153              		@ args = 0, pretend = 0, frame = 8
 1154              		@ frame_needed = 0, uses_anonymous_args = 0
 1155 0000 2DE9F046 		push	{r4, r5, r6, r7, r9, sl, lr}
 1156              	.LCFI18:
 1157              		.cfi_def_cfa_offset 28
 1158              		.cfi_offset 4, -28
 1159              		.cfi_offset 5, -24
 1160              		.cfi_offset 6, -20
 1161              		.cfi_offset 7, -16
 1162              		.cfi_offset 9, -12
 1163              		.cfi_offset 10, -8
 1164              		.cfi_offset 14, -4
 1165              		.loc 1 372 0
 1166 0004 8C4D     		ldr	r5, .L34
 1167              		.loc 1 375 0
 1168 0006 8D4E     		ldr	r6, .L34+4
 1169              		.loc 1 372 0
 1170 0008 AB69     		ldr	r3, [r5, #24]
 1171              		.loc 1 375 0
 1172 000a 3268     		ldr	r2, [r6, #0]
 1173              		.loc 1 372 0
 1174 000c 9C68     		ldr	r4, [r3, #8]
 1175              	.LVL107:
 1176              		.loc 1 375 0
 1177 000e 8C4B     		ldr	r3, .L34+8
 1178 0010 8C4F     		ldr	r7, .L34+12
 1179              		.loc 1 369 0
 1180 0012 85B0     		sub	sp, sp, #20
 1181              	.LCFI19:
 1182              		.cfi_def_cfa_offset 48
 1183              		.loc 1 373 0
 1184 0014 04F10109 		add	r9, r4, #1
 1185              	.LVL108:
 1186              		.loc 1 375 0
 1187 0018 0392     		str	r2, [sp, #12]
 1188 001a 8B4A     		ldr	r2, .L34+16
 1189 001c 0398     		ldr	r0, [sp, #12]
 1190 001e 0092     		str	r2, [sp, #0]
 1191 0020 4FF49871 		mov	r1, #304
 1192 0024 4A46     		mov	r2, r9
 1193 0026 FFF7FEFF 		bl	chThdCreateStatic
 1194              	.LVL109:
ARM GAS  C:\Users\TaisikHam\AppData\Local\Temp\ccK7hSbk.s 			page 22


 1195              		.loc 1 376 0
 1196 002a 7668     		ldr	r6, [r6, #4]
 1197              		.loc 1 375 0
 1198 002c 3860     		str	r0, [r7, #0]
 1199              		.loc 1 376 0
 1200 002e 8748     		ldr	r0, .L34+20
 1201 0030 874B     		ldr	r3, .L34+24
 1202 0032 0090     		str	r0, [sp, #0]
 1203              		.loc 1 374 0
 1204 0034 04F1020A 		add	sl, r4, #2
 1205              	.LVL110:
 1206              		.loc 1 376 0
 1207 0038 4FF49871 		mov	r1, #304
 1208 003c 5246     		mov	r2, sl
 1209 003e 3046     		mov	r0, r6
 1210 0040 FFF7FEFF 		bl	chThdCreateStatic
 1211              	.LVL111:
 1212 0044 7860     		str	r0, [r7, #4]
 1213              		.loc 1 377 0
 1214 0046 8348     		ldr	r0, .L34+28
 1215 0048 FFF7FEFF 		bl	chMtxLock
 1216              	.LVL112:
 1217              		.loc 1 378 0
 1218 004c AB69     		ldr	r3, [r5, #24]
 1219 004e 9968     		ldr	r1, [r3, #8]
 1220 0050 0120     		movs	r0, #1
 1221 0052 0A1B     		subs	r2, r1, r4
 1222 0054 5142     		rsbs	r1, r2, #0
 1223 0056 5141     		adcs	r1, r1, r2
 1224 0058 FFF7FEFF 		bl	_test_assert
 1225              	.LVL113:
 1226 005c 10B1     		cbz	r0, .L33
 1227              	.L29:
 1228              		.loc 1 413 0
 1229 005e 05B0     		add	sp, sp, #20
 1230 0060 BDE8F086 		pop	{r4, r5, r6, r7, r9, sl, pc}
 1231              	.L33:
 1232              		.loc 1 379 0
 1233 0064 6420     		movs	r0, #100
 1234 0066 FFF7FEFF 		bl	chThdSleep
 1235              	.LVL114:
 1236              		.loc 1 380 0
 1237 006a AB69     		ldr	r3, [r5, #24]
 1238 006c 9968     		ldr	r1, [r3, #8]
 1239 006e 0220     		movs	r0, #2
 1240 0070 B1EB0903 		subs	r3, r1, r9
 1241 0074 5942     		rsbs	r1, r3, #0
 1242 0076 5941     		adcs	r1, r1, r3
 1243 0078 FFF7FEFF 		bl	_test_assert
 1244              	.LVL115:
 1245 007c 0028     		cmp	r0, #0
 1246 007e EED1     		bne	.L29
 1247              		.loc 1 381 0
 1248 0080 7548     		ldr	r0, .L34+32
 1249 0082 FFF7FEFF 		bl	chMtxLock
 1250              	.LVL116:
 1251              		.loc 1 382 0
ARM GAS  C:\Users\TaisikHam\AppData\Local\Temp\ccK7hSbk.s 			page 23


 1252 0086 AB69     		ldr	r3, [r5, #24]
 1253 0088 9968     		ldr	r1, [r3, #8]
 1254 008a 0320     		movs	r0, #3
 1255 008c B1EB090C 		subs	ip, r1, r9
 1256 0090 DCF10001 		rsbs	r1, ip, #0
 1257 0094 51EB0C01 		adcs	r1, r1, ip
 1258 0098 FFF7FEFF 		bl	_test_assert
 1259              	.LVL117:
 1260 009c 0028     		cmp	r0, #0
 1261 009e DED1     		bne	.L29
 1262              		.loc 1 383 0
 1263 00a0 6420     		movs	r0, #100
 1264 00a2 FFF7FEFF 		bl	chThdSleep
 1265              	.LVL118:
 1266              		.loc 1 384 0
 1267 00a6 AB69     		ldr	r3, [r5, #24]
 1268 00a8 9968     		ldr	r1, [r3, #8]
 1269 00aa 0420     		movs	r0, #4
 1270 00ac B1EB0A0E 		subs	lr, r1, sl
 1271 00b0 DEF10001 		rsbs	r1, lr, #0
 1272 00b4 51EB0E01 		adcs	r1, r1, lr
 1273 00b8 FFF7FEFF 		bl	_test_assert
 1274              	.LVL119:
 1275 00bc 0028     		cmp	r0, #0
 1276 00be CED1     		bne	.L29
 1277              		.loc 1 385 0
 1278 00c0 FFF7FEFF 		bl	chMtxUnlock
 1279              	.LVL120:
 1280              		.loc 1 386 0
 1281 00c4 AB69     		ldr	r3, [r5, #24]
 1282 00c6 9968     		ldr	r1, [r3, #8]
 1283 00c8 0520     		movs	r0, #5
 1284 00ca B1EB0902 		subs	r2, r1, r9
 1285 00ce 5142     		rsbs	r1, r2, #0
 1286 00d0 5141     		adcs	r1, r1, r2
 1287 00d2 FFF7FEFF 		bl	_test_assert
 1288              	.LVL121:
 1289 00d6 0028     		cmp	r0, #0
 1290 00d8 C1D1     		bne	.L29
 1291              		.loc 1 387 0
 1292 00da 6420     		movs	r0, #100
 1293 00dc FFF7FEFF 		bl	chThdSleep
 1294              	.LVL122:
 1295              		.loc 1 388 0
 1296 00e0 AB69     		ldr	r3, [r5, #24]
 1297 00e2 9968     		ldr	r1, [r3, #8]
 1298 00e4 0620     		movs	r0, #6
 1299 00e6 B1EB0903 		subs	r3, r1, r9
 1300 00ea 5942     		rsbs	r1, r3, #0
 1301 00ec 5941     		adcs	r1, r1, r3
 1302 00ee FFF7FEFF 		bl	_test_assert
 1303              	.LVL123:
 1304 00f2 0028     		cmp	r0, #0
 1305 00f4 B3D1     		bne	.L29
 1306              		.loc 1 389 0
 1307 00f6 FFF7FEFF 		bl	chMtxUnlockAll
 1308              	.LVL124:
ARM GAS  C:\Users\TaisikHam\AppData\Local\Temp\ccK7hSbk.s 			page 24


 1309              		.loc 1 390 0
 1310 00fa AB69     		ldr	r3, [r5, #24]
 1311 00fc 9968     		ldr	r1, [r3, #8]
 1312 00fe 0720     		movs	r0, #7
 1313 0100 B1EB040C 		subs	ip, r1, r4
 1314 0104 DCF10001 		rsbs	r1, ip, #0
 1315 0108 51EB0C01 		adcs	r1, r1, ip
 1316 010c FFF7FEFF 		bl	_test_assert
 1317              	.LVL125:
 1318 0110 0028     		cmp	r0, #0
 1319 0112 A4D1     		bne	.L29
 1320              		.loc 1 391 0
 1321 0114 FFF7FEFF 		bl	test_wait_threads
 1322              	.LVL126:
 1323              		.loc 1 394 0
 1324 0118 504A     		ldr	r2, .L34+36
 1325 011a 494B     		ldr	r3, .L34+8
 1326 011c 0092     		str	r2, [sp, #0]
 1327 011e 4FF49871 		mov	r1, #304
 1328 0122 4A46     		mov	r2, r9
 1329 0124 0398     		ldr	r0, [sp, #12]
 1330 0126 FFF7FEFF 		bl	chThdCreateStatic
 1331              	.LVL127:
 1332 012a 3860     		str	r0, [r7, #0]
 1333              		.loc 1 395 0
 1334 012c 4C48     		ldr	r0, .L34+40
 1335 012e 484B     		ldr	r3, .L34+24
 1336 0130 0090     		str	r0, [sp, #0]
 1337 0132 4FF49871 		mov	r1, #304
 1338 0136 5246     		mov	r2, sl
 1339 0138 3046     		mov	r0, r6
 1340 013a FFF7FEFF 		bl	chThdCreateStatic
 1341              	.LVL128:
 1342 013e 7860     		str	r0, [r7, #4]
 1343              		.loc 1 396 0
 1344 0140 4448     		ldr	r0, .L34+28
 1345 0142 FFF7FEFF 		bl	chMtxLock
 1346              	.LVL129:
 1347              		.loc 1 397 0
 1348 0146 AB69     		ldr	r3, [r5, #24]
 1349 0148 9968     		ldr	r1, [r3, #8]
 1350 014a 0820     		movs	r0, #8
 1351 014c B1EB040E 		subs	lr, r1, r4
 1352 0150 DEF10001 		rsbs	r1, lr, #0
 1353 0154 51EB0E01 		adcs	r1, r1, lr
 1354 0158 FFF7FEFF 		bl	_test_assert
 1355              	.LVL130:
 1356 015c 0028     		cmp	r0, #0
 1357 015e 7FF47EAF 		bne	.L29
 1358              		.loc 1 398 0
 1359 0162 6420     		movs	r0, #100
 1360 0164 FFF7FEFF 		bl	chThdSleep
 1361              	.LVL131:
 1362              		.loc 1 399 0
 1363 0168 AB69     		ldr	r3, [r5, #24]
 1364 016a 9968     		ldr	r1, [r3, #8]
 1365 016c 0920     		movs	r0, #9
ARM GAS  C:\Users\TaisikHam\AppData\Local\Temp\ccK7hSbk.s 			page 25


 1366 016e B1EB0902 		subs	r2, r1, r9
 1367 0172 5142     		rsbs	r1, r2, #0
 1368 0174 5141     		adcs	r1, r1, r2
 1369 0176 FFF7FEFF 		bl	_test_assert
 1370              	.LVL132:
 1371 017a 0028     		cmp	r0, #0
 1372 017c 7FF46FAF 		bne	.L29
 1373              		.loc 1 400 0
 1374 0180 3548     		ldr	r0, .L34+32
 1375 0182 FFF7FEFF 		bl	chMtxLock
 1376              	.LVL133:
 1377              		.loc 1 401 0
 1378 0186 AB69     		ldr	r3, [r5, #24]
 1379 0188 9968     		ldr	r1, [r3, #8]
 1380 018a 0A20     		movs	r0, #10
 1381 018c B1EB0903 		subs	r3, r1, r9
 1382 0190 5942     		rsbs	r1, r3, #0
 1383 0192 5941     		adcs	r1, r1, r3
 1384 0194 FFF7FEFF 		bl	_test_assert
 1385              	.LVL134:
 1386 0198 0028     		cmp	r0, #0
 1387 019a 7FF460AF 		bne	.L29
 1388              		.loc 1 402 0
 1389 019e 6420     		movs	r0, #100
 1390 01a0 FFF7FEFF 		bl	chThdSleep
 1391              	.LVL135:
 1392              		.loc 1 403 0
 1393 01a4 AB69     		ldr	r3, [r5, #24]
 1394 01a6 9968     		ldr	r1, [r3, #8]
 1395 01a8 0B20     		movs	r0, #11
 1396 01aa B1EB0A0C 		subs	ip, r1, sl
 1397 01ae DCF10001 		rsbs	r1, ip, #0
 1398 01b2 51EB0C01 		adcs	r1, r1, ip
 1399 01b6 FFF7FEFF 		bl	_test_assert
 1400              	.LVL136:
 1401 01ba 0646     		mov	r6, r0
 1402 01bc 0028     		cmp	r0, #0
 1403 01be 7FF44EAF 		bne	.L29
 1404              	.LBB7:
 1405              		.loc 1 404 0
 1406 01c2 2023     		movs	r3, #32
 1407              	.LVL137:
 1408              	@ 404 "../../../test/testmtx.c" 1
 1409 01c4 83F31188 		msr     BASEPRI, r3
 1410              	@ 0 "" 2
 1411              	.LVL138:
 1412              		.thumb
 1413              	.LBE7:
 1414 01c8 FFF7FEFF 		bl	dbg_check_lock
 1415              	.LVL139:
 1416              		.loc 1 405 0
 1417 01cc FFF7FEFF 		bl	chMtxUnlockS
 1418              	.LVL140:
 1419              		.loc 1 406 0
 1420 01d0 FFF7FEFF 		bl	dbg_check_unlock
 1421              	.LVL141:
 1422              	.LBB8:
ARM GAS  C:\Users\TaisikHam\AppData\Local\Temp\ccK7hSbk.s 			page 26


 1423 01d4 3346     		mov	r3, r6
 1424              	.LVL142:
 1425              	@ 406 "../../../test/testmtx.c" 1
 1426 01d6 83F31188 		msr     BASEPRI, r3
 1427              	@ 0 "" 2
 1428              	.LVL143:
 1429              		.thumb
 1430              	.LBE8:
 1431              		.loc 1 407 0
 1432 01da AB69     		ldr	r3, [r5, #24]
 1433              	.LVL144:
 1434 01dc 9968     		ldr	r1, [r3, #8]
 1435 01de 0C20     		movs	r0, #12
 1436 01e0 B1EB090E 		subs	lr, r1, r9
 1437 01e4 DEF10001 		rsbs	r1, lr, #0
 1438 01e8 51EB0E01 		adcs	r1, r1, lr
 1439 01ec FFF7FEFF 		bl	_test_assert
 1440              	.LVL145:
 1441 01f0 0028     		cmp	r0, #0
 1442 01f2 7FF434AF 		bne	.L29
 1443              		.loc 1 408 0
 1444 01f6 6420     		movs	r0, #100
 1445 01f8 FFF7FEFF 		bl	chThdSleep
 1446              	.LVL146:
 1447              		.loc 1 409 0
 1448 01fc AB69     		ldr	r3, [r5, #24]
 1449 01fe 9968     		ldr	r1, [r3, #8]
 1450 0200 0D20     		movs	r0, #13
 1451 0202 B1EB0902 		subs	r2, r1, r9
 1452 0206 5142     		rsbs	r1, r2, #0
 1453 0208 5141     		adcs	r1, r1, r2
 1454 020a FFF7FEFF 		bl	_test_assert
 1455              	.LVL147:
 1456 020e 0028     		cmp	r0, #0
 1457 0210 7FF425AF 		bne	.L29
 1458              		.loc 1 410 0
 1459 0214 FFF7FEFF 		bl	chMtxUnlockAll
 1460              	.LVL148:
 1461              		.loc 1 411 0
 1462 0218 AB69     		ldr	r3, [r5, #24]
 1463 021a 9968     		ldr	r1, [r3, #8]
 1464 021c 0E20     		movs	r0, #14
 1465 021e 0B1B     		subs	r3, r1, r4
 1466 0220 5942     		rsbs	r1, r3, #0
 1467 0222 5941     		adcs	r1, r1, r3
 1468 0224 FFF7FEFF 		bl	_test_assert
 1469              	.LVL149:
 1470 0228 0028     		cmp	r0, #0
 1471 022a 7FF418AF 		bne	.L29
 1472              		.loc 1 413 0
 1473 022e 05B0     		add	sp, sp, #20
 1474 0230 BDE8F046 		pop	{r4, r5, r6, r7, r9, sl, lr}
 1475              		.loc 1 412 0
 1476 0234 FFF7FEBF 		b	test_wait_threads
 1477              	.LVL150:
 1478              	.L35:
 1479              		.align	2
ARM GAS  C:\Users\TaisikHam\AppData\Local\Temp\ccK7hSbk.s 			page 27


 1480              	.L34:
 1481 0238 00000000 		.word	rlist
 1482 023c 00000000 		.word	wa
 1483 0240 00000000 		.word	thread4a
 1484 0244 00000000 		.word	threads
 1485 0248 08000000 		.word	.LC2
 1486 024c 00000000 		.word	.LC0
 1487 0250 00000000 		.word	thread4b
 1488 0254 00000000 		.word	.LANCHOR1
 1489 0258 00000000 		.word	.LANCHOR2
 1490 025c 14000000 		.word	.LC5
 1491 0260 04000000 		.word	.LC1
 1492              		.cfi_endproc
 1493              	.LFE25:
 1494              		.size	mtx4_execute, .-mtx4_execute
 1495 0264 AFF30080 		.section	.text.thread4b,"ax",%progbits
 1495      AFF30080 
 1495      AFF30080 
 1496              		.align	2
 1497              		.p2align 4,,15
 1498              		.thumb
 1499              		.thumb_func
 1500              		.type	thread4b, %function
 1501              	thread4b:
 1502              	.LFB24:
 1503              		.loc 1 360 0
 1504              		.cfi_startproc
 1505              		@ args = 0, pretend = 0, frame = 0
 1506              		@ frame_needed = 0, uses_anonymous_args = 0
 1507              	.LVL151:
 1508 0000 08B5     		push	{r3, lr}
 1509              	.LCFI20:
 1510              		.cfi_def_cfa_offset 8
 1511              		.cfi_offset 3, -8
 1512              		.cfi_offset 14, -4
 1513              		.loc 1 363 0
 1514 0002 9620     		movs	r0, #150
 1515              	.LVL152:
 1516 0004 FFF7FEFF 		bl	chThdSleep
 1517              	.LVL153:
 1518              		.loc 1 364 0
 1519 0008 40F20000 		movw	r0, #:lower16:.LANCHOR2
 1520 000c C0F20000 		movt	r0, #:upper16:.LANCHOR2
 1521 0010 FFF7FEFF 		bl	chMtxLock
 1522              	.LVL154:
 1523              		.loc 1 365 0
 1524 0014 FFF7FEFF 		bl	chMtxUnlock
 1525              	.LVL155:
 1526              		.loc 1 367 0
 1527 0018 0020     		movs	r0, #0
 1528 001a 08BD     		pop	{r3, pc}
 1529              		.cfi_endproc
 1530              	.LFE24:
 1531              		.size	thread4b, .-thread4b
 1532 001c AFF30080 		.section	.text.thread4a,"ax",%progbits
 1533              		.align	2
 1534              		.p2align 4,,15
ARM GAS  C:\Users\TaisikHam\AppData\Local\Temp\ccK7hSbk.s 			page 28


 1535              		.thumb
 1536              		.thumb_func
 1537              		.type	thread4a, %function
 1538              	thread4a:
 1539              	.LFB23:
 1540              		.loc 1 351 0
 1541              		.cfi_startproc
 1542              		@ args = 0, pretend = 0, frame = 0
 1543              		@ frame_needed = 0, uses_anonymous_args = 0
 1544              	.LVL156:
 1545 0000 08B5     		push	{r3, lr}
 1546              	.LCFI21:
 1547              		.cfi_def_cfa_offset 8
 1548              		.cfi_offset 3, -8
 1549              		.cfi_offset 14, -4
 1550              		.loc 1 354 0
 1551 0002 3220     		movs	r0, #50
 1552              	.LVL157:
 1553 0004 FFF7FEFF 		bl	chThdSleep
 1554              	.LVL158:
 1555              		.loc 1 355 0
 1556 0008 40F20000 		movw	r0, #:lower16:.LANCHOR1
 1557 000c C0F20000 		movt	r0, #:upper16:.LANCHOR1
 1558 0010 FFF7FEFF 		bl	chMtxLock
 1559              	.LVL159:
 1560              		.loc 1 356 0
 1561 0014 FFF7FEFF 		bl	chMtxUnlock
 1562              	.LVL160:
 1563              		.loc 1 358 0
 1564 0018 0020     		movs	r0, #0
 1565 001a 08BD     		pop	{r3, pc}
 1566              		.cfi_endproc
 1567              	.LFE23:
 1568              		.size	thread4a, .-thread4a
 1569 001c AFF30080 		.section	.text.mtx3_execute,"ax",%progbits
 1570              		.align	2
 1571              		.p2align 4,,15
 1572              		.thumb
 1573              		.thumb_func
 1574              		.type	mtx3_execute, %function
 1575              	mtx3_execute:
 1576              	.LFB21:
 1577              		.loc 1 312 0
 1578              		.cfi_startproc
 1579              		@ args = 0, pretend = 0, frame = 8
 1580              		@ frame_needed = 0, uses_anonymous_args = 0
 1581 0000 2DE9F041 		push	{r4, r5, r6, r7, r8, lr}
 1582              	.LCFI22:
 1583              		.cfi_def_cfa_offset 24
 1584              		.cfi_offset 4, -24
 1585              		.cfi_offset 5, -20
 1586              		.cfi_offset 6, -16
 1587              		.cfi_offset 7, -12
 1588              		.cfi_offset 8, -8
 1589              		.cfi_offset 14, -4
 1590              		.loc 1 317 0
 1591 0004 304E     		ldr	r6, .L41
ARM GAS  C:\Users\TaisikHam\AppData\Local\Temp\ccK7hSbk.s 			page 29


 1592 0006 DFF8E480 		ldr	r8, .L41+36
 1593 000a 304C     		ldr	r4, .L41+4
 1594              		.loc 1 312 0
 1595 000c 84B0     		sub	sp, sp, #16
 1596              	.LCFI23:
 1597              		.cfi_def_cfa_offset 40
 1598              		.loc 1 315 0
 1599 000e FFF7FEFF 		bl	test_wait_tick
 1600              	.LVL161:
 1601              		.loc 1 317 0
 1602 0012 B369     		ldr	r3, [r6, #24]
 1603              		.loc 1 316 0
 1604 0014 2E49     		ldr	r1, .L41+8
 1605              		.loc 1 317 0
 1606 0016 9A68     		ldr	r2, [r3, #8]
 1607              		.loc 1 316 0
 1608 0018 CF68     		ldr	r7, [r1, #12]
 1609              	.LVL162:
 1610              		.loc 1 317 0
 1611 001a 2E4B     		ldr	r3, .L41+12
 1612 001c D8F80000 		ldr	r0, [r8, #0]
 1613 0020 0025     		movs	r5, #0
 1614 0022 4FF49871 		mov	r1, #304
 1615 0026 053A     		subs	r2, r2, #5
 1616 0028 0095     		str	r5, [sp, #0]
 1617 002a FFF7FEFF 		bl	chThdCreateStatic
 1618              	.LVL163:
 1619              		.loc 1 318 0
 1620 002e B369     		ldr	r3, [r6, #24]
 1621 0030 D8F80420 		ldr	r2, [r8, #4]
 1622 0034 0392     		str	r2, [sp, #12]
 1623 0036 9A68     		ldr	r2, [r3, #8]
 1624              		.loc 1 317 0
 1625 0038 2060     		str	r0, [r4, #0]
 1626              		.loc 1 318 0
 1627 003a 4FF49871 		mov	r1, #304
 1628 003e 043A     		subs	r2, r2, #4
 1629 0040 254B     		ldr	r3, .L41+16
 1630 0042 0095     		str	r5, [sp, #0]
 1631 0044 0398     		ldr	r0, [sp, #12]
 1632 0046 FFF7FEFF 		bl	chThdCreateStatic
 1633              	.LVL164:
 1634              		.loc 1 319 0
 1635 004a B369     		ldr	r3, [r6, #24]
 1636 004c D8F80820 		ldr	r2, [r8, #8]
 1637 0050 0392     		str	r2, [sp, #12]
 1638 0052 9A68     		ldr	r2, [r3, #8]
 1639              		.loc 1 318 0
 1640 0054 6060     		str	r0, [r4, #4]
 1641              		.loc 1 319 0
 1642 0056 4FF49871 		mov	r1, #304
 1643 005a 033A     		subs	r2, r2, #3
 1644 005c 1F4B     		ldr	r3, .L41+20
 1645 005e 0095     		str	r5, [sp, #0]
 1646 0060 0398     		ldr	r0, [sp, #12]
 1647 0062 FFF7FEFF 		bl	chThdCreateStatic
 1648              	.LVL165:
ARM GAS  C:\Users\TaisikHam\AppData\Local\Temp\ccK7hSbk.s 			page 30


 1649              		.loc 1 320 0
 1650 0066 B369     		ldr	r3, [r6, #24]
 1651 0068 D8F80C20 		ldr	r2, [r8, #12]
 1652 006c 0392     		str	r2, [sp, #12]
 1653 006e 9A68     		ldr	r2, [r3, #8]
 1654              		.loc 1 319 0
 1655 0070 A060     		str	r0, [r4, #8]
 1656              		.loc 1 320 0
 1657 0072 4FF49871 		mov	r1, #304
 1658 0076 023A     		subs	r2, r2, #2
 1659 0078 194B     		ldr	r3, .L41+24
 1660 007a 0095     		str	r5, [sp, #0]
 1661 007c 0398     		ldr	r0, [sp, #12]
 1662 007e FFF7FEFF 		bl	chThdCreateStatic
 1663              	.LVL166:
 1664              		.loc 1 321 0
 1665 0082 B369     		ldr	r3, [r6, #24]
 1666 0084 D8F81060 		ldr	r6, [r8, #16]
 1667 0088 9A68     		ldr	r2, [r3, #8]
 1668              		.loc 1 320 0
 1669 008a E060     		str	r0, [r4, #12]
 1670              		.loc 1 321 0
 1671 008c 4FF49871 		mov	r1, #304
 1672 0090 013A     		subs	r2, r2, #1
 1673 0092 144B     		ldr	r3, .L41+28
 1674 0094 0095     		str	r5, [sp, #0]
 1675 0096 3046     		mov	r0, r6
 1676 0098 FFF7FEFF 		bl	chThdCreateStatic
 1677              	.LVL167:
 1678 009c 2061     		str	r0, [r4, #16]
 1679              		.loc 1 322 0
 1680 009e FFF7FEFF 		bl	test_wait_threads
 1681              	.LVL168:
 1682              		.loc 1 323 0
 1683 00a2 0120     		movs	r0, #1
 1684 00a4 1049     		ldr	r1, .L41+32
 1685 00a6 FFF7FEFF 		bl	_test_assert_sequence
 1686              	.LVL169:
 1687 00aa 10B1     		cbz	r0, .L40
 1688              		.loc 1 325 0
 1689 00ac 04B0     		add	sp, sp, #16
 1690 00ae BDE8F081 		pop	{r4, r5, r6, r7, r8, pc}
 1691              	.L40:
 1692              		.loc 1 324 0
 1693 00b2 0220     		movs	r0, #2
 1694 00b4 07F16E01 		add	r1, r7, #110
 1695 00b8 07F17302 		add	r2, r7, #115
 1696              		.loc 1 325 0
 1697 00bc 04B0     		add	sp, sp, #16
 1698 00be BDE8F041 		pop	{r4, r5, r6, r7, r8, lr}
 1699              		.loc 1 324 0
 1700 00c2 FFF7FEBF 		b	_test_assert_time_window
 1701              	.LVL170:
 1702              	.L42:
 1703 00c6 00BF     		.align	2
 1704              	.L41:
 1705 00c8 00000000 		.word	rlist
ARM GAS  C:\Users\TaisikHam\AppData\Local\Temp\ccK7hSbk.s 			page 31


 1706 00cc 00000000 		.word	threads
 1707 00d0 00000000 		.word	vtlist
 1708 00d4 00000000 		.word	thread3LL
 1709 00d8 00000000 		.word	thread3L
 1710 00dc 00000000 		.word	thread3M
 1711 00e0 00000000 		.word	thread3H
 1712 00e4 00000000 		.word	thread3HH
 1713 00e8 18000000 		.word	.LC6
 1714 00ec 00000000 		.word	wa
 1715              		.cfi_endproc
 1716              	.LFE21:
 1717              		.size	mtx3_execute, .-mtx3_execute
 1718              		.section	.text.mtx2_execute,"ax",%progbits
 1719              		.align	2
 1720              		.p2align 4,,15
 1721              		.thumb
 1722              		.thumb_func
 1723              		.type	mtx2_execute, %function
 1724              	mtx2_execute:
 1725              	.LFB14:
 1726              		.loc 1 194 0
 1727              		.cfi_startproc
 1728              		@ args = 0, pretend = 0, frame = 8
 1729              		@ frame_needed = 0, uses_anonymous_args = 0
 1730 0000 2DE9F041 		push	{r4, r5, r6, r7, r8, lr}
 1731              	.LCFI24:
 1732              		.cfi_def_cfa_offset 24
 1733              		.cfi_offset 4, -24
 1734              		.cfi_offset 5, -20
 1735              		.cfi_offset 6, -16
 1736              		.cfi_offset 7, -12
 1737              		.cfi_offset 8, -8
 1738              		.cfi_offset 14, -4
 1739              		.loc 1 199 0
 1740 0004 224E     		ldr	r6, .L46
 1741 0006 DFF8A480 		ldr	r8, .L46+28
 1742 000a 224C     		ldr	r4, .L46+4
 1743              		.loc 1 194 0
 1744 000c 84B0     		sub	sp, sp, #16
 1745              	.LCFI25:
 1746              		.cfi_def_cfa_offset 40
 1747              		.loc 1 197 0
 1748 000e FFF7FEFF 		bl	test_wait_tick
 1749              	.LVL171:
 1750              		.loc 1 199 0
 1751 0012 B369     		ldr	r3, [r6, #24]
 1752              		.loc 1 198 0
 1753 0014 2049     		ldr	r1, .L46+8
 1754              		.loc 1 199 0
 1755 0016 9A68     		ldr	r2, [r3, #8]
 1756              		.loc 1 198 0
 1757 0018 CF68     		ldr	r7, [r1, #12]
 1758              	.LVL172:
 1759              		.loc 1 199 0
 1760 001a 204B     		ldr	r3, .L46+12
 1761 001c D8F80000 		ldr	r0, [r8, #0]
 1762 0020 0025     		movs	r5, #0
ARM GAS  C:\Users\TaisikHam\AppData\Local\Temp\ccK7hSbk.s 			page 32


 1763 0022 4FF49871 		mov	r1, #304
 1764 0026 013A     		subs	r2, r2, #1
 1765 0028 0095     		str	r5, [sp, #0]
 1766 002a FFF7FEFF 		bl	chThdCreateStatic
 1767              	.LVL173:
 1768              		.loc 1 200 0
 1769 002e B369     		ldr	r3, [r6, #24]
 1770 0030 D8F80420 		ldr	r2, [r8, #4]
 1771 0034 0392     		str	r2, [sp, #12]
 1772 0036 9A68     		ldr	r2, [r3, #8]
 1773              		.loc 1 199 0
 1774 0038 2060     		str	r0, [r4, #0]
 1775              		.loc 1 200 0
 1776 003a 4FF49871 		mov	r1, #304
 1777 003e 023A     		subs	r2, r2, #2
 1778 0040 174B     		ldr	r3, .L46+16
 1779 0042 0095     		str	r5, [sp, #0]
 1780 0044 0398     		ldr	r0, [sp, #12]
 1781 0046 FFF7FEFF 		bl	chThdCreateStatic
 1782              	.LVL174:
 1783              		.loc 1 201 0
 1784 004a B369     		ldr	r3, [r6, #24]
 1785 004c D8F80860 		ldr	r6, [r8, #8]
 1786 0050 9A68     		ldr	r2, [r3, #8]
 1787              		.loc 1 200 0
 1788 0052 6060     		str	r0, [r4, #4]
 1789              		.loc 1 201 0
 1790 0054 4FF49871 		mov	r1, #304
 1791 0058 033A     		subs	r2, r2, #3
 1792 005a 124B     		ldr	r3, .L46+20
 1793 005c 0095     		str	r5, [sp, #0]
 1794 005e 3046     		mov	r0, r6
 1795 0060 FFF7FEFF 		bl	chThdCreateStatic
 1796              	.LVL175:
 1797 0064 A060     		str	r0, [r4, #8]
 1798              		.loc 1 202 0
 1799 0066 FFF7FEFF 		bl	test_wait_threads
 1800              	.LVL176:
 1801              		.loc 1 203 0
 1802 006a 0120     		movs	r0, #1
 1803 006c 0E49     		ldr	r1, .L46+24
 1804 006e FFF7FEFF 		bl	_test_assert_sequence
 1805              	.LVL177:
 1806 0072 10B1     		cbz	r0, .L45
 1807              		.loc 1 205 0
 1808 0074 04B0     		add	sp, sp, #16
 1809 0076 BDE8F081 		pop	{r4, r5, r6, r7, r8, pc}
 1810              	.L45:
 1811              		.loc 1 204 0
 1812 007a 0220     		movs	r0, #2
 1813 007c 07F16401 		add	r1, r7, #100
 1814 0080 07F16902 		add	r2, r7, #105
 1815              		.loc 1 205 0
 1816 0084 04B0     		add	sp, sp, #16
 1817 0086 BDE8F041 		pop	{r4, r5, r6, r7, r8, lr}
 1818              		.loc 1 204 0
 1819 008a FFF7FEBF 		b	_test_assert_time_window
ARM GAS  C:\Users\TaisikHam\AppData\Local\Temp\ccK7hSbk.s 			page 33


 1820              	.LVL178:
 1821              	.L47:
 1822 008e 00BF     		.align	2
 1823              	.L46:
 1824 0090 00000000 		.word	rlist
 1825 0094 00000000 		.word	threads
 1826 0098 00000000 		.word	vtlist
 1827 009c 00000000 		.word	thread2H
 1828 00a0 00000000 		.word	thread2M
 1829 00a4 00000000 		.word	thread2L
 1830 00a8 0C000000 		.word	.LC3
 1831 00ac 00000000 		.word	wa
 1832              		.cfi_endproc
 1833              	.LFE14:
 1834              		.size	mtx2_execute, .-mtx2_execute
 1835              		.section	.text.thread3HH,"ax",%progbits
 1836              		.align	2
 1837              		.p2align 4,,15
 1838              		.thumb
 1839              		.thumb_func
 1840              		.type	thread3HH, %function
 1841              	thread3HH:
 1842              	.LFB20:
 1843              		.loc 1 301 0
 1844              		.cfi_startproc
 1845              		@ args = 0, pretend = 0, frame = 0
 1846              		@ frame_needed = 0, uses_anonymous_args = 0
 1847              	.LVL179:
 1848 0000 08B5     		push	{r3, lr}
 1849              	.LCFI26:
 1850              		.cfi_def_cfa_offset 8
 1851              		.cfi_offset 3, -8
 1852              		.cfi_offset 14, -4
 1853              		.loc 1 304 0
 1854 0002 3220     		movs	r0, #50
 1855              	.LVL180:
 1856 0004 FFF7FEFF 		bl	chThdSleep
 1857              	.LVL181:
 1858              		.loc 1 305 0
 1859 0008 40F20000 		movw	r0, #:lower16:.LANCHOR1
 1860 000c C0F20000 		movt	r0, #:upper16:.LANCHOR1
 1861 0010 FFF7FEFF 		bl	chMtxLock
 1862              	.LVL182:
 1863              		.loc 1 306 0
 1864 0014 0A20     		movs	r0, #10
 1865 0016 FFF7FEFF 		bl	test_cpu_pulse
 1866              	.LVL183:
 1867              		.loc 1 307 0
 1868 001a FFF7FEFF 		bl	chMtxUnlock
 1869              	.LVL184:
 1870              		.loc 1 308 0
 1871 001e 4120     		movs	r0, #65
 1872 0020 FFF7FEFF 		bl	test_emit_token
 1873              	.LVL185:
 1874              		.loc 1 310 0
 1875 0024 0020     		movs	r0, #0
 1876 0026 08BD     		pop	{r3, pc}
ARM GAS  C:\Users\TaisikHam\AppData\Local\Temp\ccK7hSbk.s 			page 34


 1877              		.cfi_endproc
 1878              	.LFE20:
 1879              		.size	thread3HH, .-thread3HH
 1880 0028 AFF30080 		.section	.text.thread3H,"ax",%progbits
 1880      AFF30080 
 1881              		.align	2
 1882              		.p2align 4,,15
 1883              		.thumb
 1884              		.thumb_func
 1885              		.type	thread3H, %function
 1886              	thread3H:
 1887              	.LFB19:
 1888              		.loc 1 291 0
 1889              		.cfi_startproc
 1890              		@ args = 0, pretend = 0, frame = 0
 1891              		@ frame_needed = 0, uses_anonymous_args = 0
 1892              	.LVL186:
 1893 0000 08B5     		push	{r3, lr}
 1894              	.LCFI27:
 1895              		.cfi_def_cfa_offset 8
 1896              		.cfi_offset 3, -8
 1897              		.cfi_offset 14, -4
 1898              		.loc 1 294 0
 1899 0002 2820     		movs	r0, #40
 1900              	.LVL187:
 1901 0004 FFF7FEFF 		bl	chThdSleep
 1902              	.LVL188:
 1903              		.loc 1 295 0
 1904 0008 1420     		movs	r0, #20
 1905 000a FFF7FEFF 		bl	test_cpu_pulse
 1906              	.LVL189:
 1907              		.loc 1 296 0
 1908 000e 4220     		movs	r0, #66
 1909 0010 FFF7FEFF 		bl	test_emit_token
 1910              	.LVL190:
 1911              		.loc 1 298 0
 1912 0014 0020     		movs	r0, #0
 1913 0016 08BD     		pop	{r3, pc}
 1914              		.cfi_endproc
 1915              	.LFE19:
 1916              		.size	thread3H, .-thread3H
 1917 0018 AFF30080 		.section	.text.thread3M,"ax",%progbits
 1917      AFF30080 
 1918              		.align	2
 1919              		.p2align 4,,15
 1920              		.thumb
 1921              		.thumb_func
 1922              		.type	thread3M, %function
 1923              	thread3M:
 1924              	.LFB18:
 1925              		.loc 1 279 0
 1926              		.cfi_startproc
 1927              		@ args = 0, pretend = 0, frame = 0
 1928              		@ frame_needed = 0, uses_anonymous_args = 0
 1929              	.LVL191:
 1930 0000 08B5     		push	{r3, lr}
 1931              	.LCFI28:
ARM GAS  C:\Users\TaisikHam\AppData\Local\Temp\ccK7hSbk.s 			page 35


 1932              		.cfi_def_cfa_offset 8
 1933              		.cfi_offset 3, -8
 1934              		.cfi_offset 14, -4
 1935              		.loc 1 282 0
 1936 0002 1420     		movs	r0, #20
 1937              	.LVL192:
 1938 0004 FFF7FEFF 		bl	chThdSleep
 1939              	.LVL193:
 1940              		.loc 1 283 0
 1941 0008 40F20000 		movw	r0, #:lower16:.LANCHOR1
 1942 000c C0F20000 		movt	r0, #:upper16:.LANCHOR1
 1943 0010 FFF7FEFF 		bl	chMtxLock
 1944              	.LVL194:
 1945              		.loc 1 284 0
 1946 0014 0A20     		movs	r0, #10
 1947 0016 FFF7FEFF 		bl	test_cpu_pulse
 1948              	.LVL195:
 1949              		.loc 1 285 0
 1950 001a FFF7FEFF 		bl	chMtxUnlock
 1951              	.LVL196:
 1952              		.loc 1 286 0
 1953 001e 4320     		movs	r0, #67
 1954 0020 FFF7FEFF 		bl	test_emit_token
 1955              	.LVL197:
 1956              		.loc 1 288 0
 1957 0024 0020     		movs	r0, #0
 1958 0026 08BD     		pop	{r3, pc}
 1959              		.cfi_endproc
 1960              	.LFE18:
 1961              		.size	thread3M, .-thread3M
 1962 0028 AFF30080 		.section	.text.thread3L,"ax",%progbits
 1962      AFF30080 
 1963              		.align	2
 1964              		.p2align 4,,15
 1965              		.thumb
 1966              		.thumb_func
 1967              		.type	thread3L, %function
 1968              	thread3L:
 1969              	.LFB17:
 1970              		.loc 1 263 0
 1971              		.cfi_startproc
 1972              		@ args = 0, pretend = 0, frame = 0
 1973              		@ frame_needed = 0, uses_anonymous_args = 0
 1974              	.LVL198:
 1975 0000 08B5     		push	{r3, lr}
 1976              	.LCFI29:
 1977              		.cfi_def_cfa_offset 8
 1978              		.cfi_offset 3, -8
 1979              		.cfi_offset 14, -4
 1980              		.loc 1 266 0
 1981 0002 0A20     		movs	r0, #10
 1982              	.LVL199:
 1983 0004 FFF7FEFF 		bl	chThdSleep
 1984              	.LVL200:
 1985              		.loc 1 267 0
 1986 0008 40F20000 		movw	r0, #:lower16:.LANCHOR1
 1987 000c C0F20000 		movt	r0, #:upper16:.LANCHOR1
ARM GAS  C:\Users\TaisikHam\AppData\Local\Temp\ccK7hSbk.s 			page 36


 1988 0010 FFF7FEFF 		bl	chMtxLock
 1989              	.LVL201:
 1990              		.loc 1 268 0
 1991 0014 1420     		movs	r0, #20
 1992 0016 FFF7FEFF 		bl	test_cpu_pulse
 1993              	.LVL202:
 1994              		.loc 1 269 0
 1995 001a 40F20000 		movw	r0, #:lower16:.LANCHOR2
 1996 001e C0F20000 		movt	r0, #:upper16:.LANCHOR2
 1997 0022 FFF7FEFF 		bl	chMtxLock
 1998              	.LVL203:
 1999              		.loc 1 270 0
 2000 0026 0A20     		movs	r0, #10
 2001 0028 FFF7FEFF 		bl	test_cpu_pulse
 2002              	.LVL204:
 2003              		.loc 1 271 0
 2004 002c FFF7FEFF 		bl	chMtxUnlock
 2005              	.LVL205:
 2006              		.loc 1 272 0
 2007 0030 0A20     		movs	r0, #10
 2008 0032 FFF7FEFF 		bl	test_cpu_pulse
 2009              	.LVL206:
 2010              		.loc 1 273 0
 2011 0036 FFF7FEFF 		bl	chMtxUnlock
 2012              	.LVL207:
 2013              		.loc 1 274 0
 2014 003a 4420     		movs	r0, #68
 2015 003c FFF7FEFF 		bl	test_emit_token
 2016              	.LVL208:
 2017              		.loc 1 276 0
 2018 0040 0020     		movs	r0, #0
 2019 0042 08BD     		pop	{r3, pc}
 2020              		.cfi_endproc
 2021              	.LFE17:
 2022              		.size	thread3L, .-thread3L
 2023 0044 AFF30080 		.section	.text.thread3LL,"ax",%progbits
 2023      AFF30080 
 2023      AFF30080 
 2024              		.align	2
 2025              		.p2align 4,,15
 2026              		.thumb
 2027              		.thumb_func
 2028              		.type	thread3LL, %function
 2029              	thread3LL:
 2030              	.LFB16:
 2031              		.loc 1 252 0
 2032              		.cfi_startproc
 2033              		@ args = 0, pretend = 0, frame = 0
 2034              		@ frame_needed = 0, uses_anonymous_args = 0
 2035              	.LVL209:
 2036              		.loc 1 255 0
 2037 0000 40F20000 		movw	r0, #:lower16:.LANCHOR2
 2038              	.LVL210:
 2039              		.loc 1 252 0
 2040 0004 08B5     		push	{r3, lr}
 2041              	.LCFI30:
 2042              		.cfi_def_cfa_offset 8
ARM GAS  C:\Users\TaisikHam\AppData\Local\Temp\ccK7hSbk.s 			page 37


 2043              		.cfi_offset 3, -8
 2044              		.cfi_offset 14, -4
 2045              		.loc 1 255 0
 2046 0006 C0F20000 		movt	r0, #:upper16:.LANCHOR2
 2047 000a FFF7FEFF 		bl	chMtxLock
 2048              	.LVL211:
 2049              		.loc 1 256 0
 2050 000e 1E20     		movs	r0, #30
 2051 0010 FFF7FEFF 		bl	test_cpu_pulse
 2052              	.LVL212:
 2053              		.loc 1 257 0
 2054 0014 FFF7FEFF 		bl	chMtxUnlock
 2055              	.LVL213:
 2056              		.loc 1 258 0
 2057 0018 4520     		movs	r0, #69
 2058 001a FFF7FEFF 		bl	test_emit_token
 2059              	.LVL214:
 2060              		.loc 1 260 0
 2061 001e 0020     		movs	r0, #0
 2062 0020 08BD     		pop	{r3, pc}
 2063              		.cfi_endproc
 2064              	.LFE16:
 2065              		.size	thread3LL, .-thread3LL
 2066 0022 00BFAFF3 		.section	.text.thread2L,"ax",%progbits
 2066      0080AFF3 
 2066      0080AFF3 
 2066      0080
 2067              		.align	2
 2068              		.p2align 4,,15
 2069              		.thumb
 2070              		.thumb_func
 2071              		.type	thread2L, %function
 2072              	thread2L:
 2073              	.LFB11:
 2074              		.loc 1 161 0
 2075              		.cfi_startproc
 2076              		@ args = 0, pretend = 0, frame = 0
 2077              		@ frame_needed = 0, uses_anonymous_args = 0
 2078              	.LVL215:
 2079              		.loc 1 164 0
 2080 0000 40F20000 		movw	r0, #:lower16:.LANCHOR2
 2081              	.LVL216:
 2082              		.loc 1 161 0
 2083 0004 08B5     		push	{r3, lr}
 2084              	.LCFI31:
 2085              		.cfi_def_cfa_offset 8
 2086              		.cfi_offset 3, -8
 2087              		.cfi_offset 14, -4
 2088              		.loc 1 164 0
 2089 0006 C0F20000 		movt	r0, #:upper16:.LANCHOR2
 2090 000a FFF7FEFF 		bl	chMtxLock
 2091              	.LVL217:
 2092              		.loc 1 165 0
 2093 000e 2820     		movs	r0, #40
 2094 0010 FFF7FEFF 		bl	test_cpu_pulse
 2095              	.LVL218:
 2096              		.loc 1 166 0
ARM GAS  C:\Users\TaisikHam\AppData\Local\Temp\ccK7hSbk.s 			page 38


 2097 0014 FFF7FEFF 		bl	chMtxUnlock
 2098              	.LVL219:
 2099              		.loc 1 167 0
 2100 0018 0A20     		movs	r0, #10
 2101 001a FFF7FEFF 		bl	test_cpu_pulse
 2102              	.LVL220:
 2103              		.loc 1 168 0
 2104 001e 4320     		movs	r0, #67
 2105 0020 FFF7FEFF 		bl	test_emit_token
 2106              	.LVL221:
 2107              		.loc 1 170 0
 2108 0024 0020     		movs	r0, #0
 2109 0026 08BD     		pop	{r3, pc}
 2110              		.cfi_endproc
 2111              	.LFE11:
 2112              		.size	thread2L, .-thread2L
 2113 0028 AFF30080 		.section	.text.thread2M,"ax",%progbits
 2113      AFF30080 
 2114              		.align	2
 2115              		.p2align 4,,15
 2116              		.thumb
 2117              		.thumb_func
 2118              		.type	thread2M, %function
 2119              	thread2M:
 2120              	.LFB12:
 2121              		.loc 1 173 0
 2122              		.cfi_startproc
 2123              		@ args = 0, pretend = 0, frame = 0
 2124              		@ frame_needed = 0, uses_anonymous_args = 0
 2125              	.LVL222:
 2126 0000 08B5     		push	{r3, lr}
 2127              	.LCFI32:
 2128              		.cfi_def_cfa_offset 8
 2129              		.cfi_offset 3, -8
 2130              		.cfi_offset 14, -4
 2131              		.loc 1 176 0
 2132 0002 1420     		movs	r0, #20
 2133              	.LVL223:
 2134 0004 FFF7FEFF 		bl	chThdSleep
 2135              	.LVL224:
 2136              		.loc 1 177 0
 2137 0008 2820     		movs	r0, #40
 2138 000a FFF7FEFF 		bl	test_cpu_pulse
 2139              	.LVL225:
 2140              		.loc 1 178 0
 2141 000e 4220     		movs	r0, #66
 2142 0010 FFF7FEFF 		bl	test_emit_token
 2143              	.LVL226:
 2144              		.loc 1 180 0
 2145 0014 0020     		movs	r0, #0
 2146 0016 08BD     		pop	{r3, pc}
 2147              		.cfi_endproc
 2148              	.LFE12:
 2149              		.size	thread2M, .-thread2M
 2150 0018 AFF30080 		.section	.text.thread2H,"ax",%progbits
 2150      AFF30080 
 2151              		.align	2
ARM GAS  C:\Users\TaisikHam\AppData\Local\Temp\ccK7hSbk.s 			page 39


 2152              		.p2align 4,,15
 2153              		.thumb
 2154              		.thumb_func
 2155              		.type	thread2H, %function
 2156              	thread2H:
 2157              	.LFB13:
 2158              		.loc 1 183 0
 2159              		.cfi_startproc
 2160              		@ args = 0, pretend = 0, frame = 0
 2161              		@ frame_needed = 0, uses_anonymous_args = 0
 2162              	.LVL227:
 2163 0000 08B5     		push	{r3, lr}
 2164              	.LCFI33:
 2165              		.cfi_def_cfa_offset 8
 2166              		.cfi_offset 3, -8
 2167              		.cfi_offset 14, -4
 2168              		.loc 1 186 0
 2169 0002 2820     		movs	r0, #40
 2170              	.LVL228:
 2171 0004 FFF7FEFF 		bl	chThdSleep
 2172              	.LVL229:
 2173              		.loc 1 187 0
 2174 0008 40F20000 		movw	r0, #:lower16:.LANCHOR2
 2175 000c C0F20000 		movt	r0, #:upper16:.LANCHOR2
 2176 0010 FFF7FEFF 		bl	chMtxLock
 2177              	.LVL230:
 2178              		.loc 1 188 0
 2179 0014 0A20     		movs	r0, #10
 2180 0016 FFF7FEFF 		bl	test_cpu_pulse
 2181              	.LVL231:
 2182              		.loc 1 189 0
 2183 001a FFF7FEFF 		bl	chMtxUnlock
 2184              	.LVL232:
 2185              		.loc 1 190 0
 2186 001e 4120     		movs	r0, #65
 2187 0020 FFF7FEFF 		bl	test_emit_token
 2188              	.LVL233:
 2189              		.loc 1 192 0
 2190 0024 0020     		movs	r0, #0
 2191 0026 08BD     		pop	{r3, pc}
 2192              		.cfi_endproc
 2193              	.LFE13:
 2194              		.size	thread2H, .-thread2H
 2195              		.global	patternmtx
 2196              		.global	testmtx8
 2197              		.global	testmtx7
 2198              		.global	testmtx6
 2199              		.global	testmtx5
 2200              		.global	testmtx4
 2201              		.global	testmtx3
 2202              		.global	testmtx2
 2203              		.global	testmtx1
 2204 0028 AFF30080 		.section	.rodata.testmtx5,"a",%progbits
 2204      AFF30080 
 2205              		.align	2
 2206              		.type	testmtx5, %object
 2207              		.size	testmtx5, 16
ARM GAS  C:\Users\TaisikHam\AppData\Local\Temp\ccK7hSbk.s 			page 40


 2208              	testmtx5:
 2209 0000 64000000 		.word	.LC10
 2210 0004 00000000 		.word	mtx5_setup
 2211 0008 00000000 		.word	0
 2212 000c 00000000 		.word	mtx5_execute
 2213              		.section	.rodata.testmtx6,"a",%progbits
 2214              		.align	2
 2215              		.type	testmtx6, %object
 2216              		.size	testmtx6, 16
 2217              	testmtx6:
 2218 0000 4C000000 		.word	.LC9
 2219 0004 00000000 		.word	mtx6_setup
 2220 0008 00000000 		.word	0
 2221 000c 00000000 		.word	mtx6_execute
 2222              		.section	.rodata.testmtx7,"a",%progbits
 2223              		.align	2
 2224              		.type	testmtx7, %object
 2225              		.size	testmtx7, 16
 2226              	testmtx7:
 2227 0000 34000000 		.word	.LC8
 2228 0004 00000000 		.word	mtx7_setup
 2229 0008 00000000 		.word	0
 2230 000c 00000000 		.word	mtx7_execute
 2231              		.section	.rodata.testmtx8,"a",%progbits
 2232              		.align	2
 2233              		.type	testmtx8, %object
 2234              		.size	testmtx8, 16
 2235              	testmtx8:
 2236 0000 20000000 		.word	.LC7
 2237 0004 00000000 		.word	mtx8_setup
 2238 0008 00000000 		.word	0
 2239 000c 00000000 		.word	mtx8_execute
 2240              		.section	.data.m1,"aw",%progbits
 2241              		.align	2
 2242              		.set	.LANCHOR2,. + 0
 2243              		.type	m1, %object
 2244              		.size	m1, 16
 2245              	m1:
 2246 0000 00000000 		.word	m1
 2247 0004 00000000 		.word	m1
 2248 0008 00000000 		.word	0
 2249 000c 00000000 		.word	0
 2250              		.section	.data.m2,"aw",%progbits
 2251              		.align	2
 2252              		.set	.LANCHOR1,. + 0
 2253              		.type	m2, %object
 2254              		.size	m2, 16
 2255              	m2:
 2256 0000 00000000 		.word	m2
 2257 0004 00000000 		.word	m2
 2258 0008 00000000 		.word	0
 2259 000c 00000000 		.word	0
 2260              		.section	.rodata.str1.4,"aMS",%progbits,1
 2261              		.align	2
 2262              	.LC0:
 2263 0000 4100     		.ascii	"A\000"
 2264 0002 0000     		.space	2
ARM GAS  C:\Users\TaisikHam\AppData\Local\Temp\ccK7hSbk.s 			page 41


 2265              	.LC1:
 2266 0004 4300     		.ascii	"C\000"
 2267 0006 0000     		.space	2
 2268              	.LC2:
 2269 0008 4200     		.ascii	"B\000"
 2270 000a 0000     		.space	2
 2271              	.LC3:
 2272 000c 41424300 		.ascii	"ABC\000"
 2273              	.LC4:
 2274 0010 4500     		.ascii	"E\000"
 2275 0012 0000     		.space	2
 2276              	.LC5:
 2277 0014 4400     		.ascii	"D\000"
 2278 0016 0000     		.space	2
 2279              	.LC6:
 2280 0018 41424344 		.ascii	"ABCDE\000"
 2280      4500
 2281 001e 0000     		.space	2
 2282              	.LC7:
 2283 0020 436F6E64 		.ascii	"CondVar, boost test\000"
 2283      5661722C 
 2283      20626F6F 
 2283      73742074 
 2283      65737400 
 2284              	.LC8:
 2285 0034 436F6E64 		.ascii	"CondVar, broadcast test\000"
 2285      5661722C 
 2285      2062726F 
 2285      61646361 
 2285      73742074 
 2286              	.LC9:
 2287 004c 436F6E64 		.ascii	"CondVar, signal test\000"
 2287      5661722C 
 2287      20736967 
 2287      6E616C20 
 2287      74657374 
 2288 0061 000000   		.space	3
 2289              	.LC10:
 2290 0064 4D757465 		.ascii	"Mutexes, status\000"
 2290      7865732C 
 2290      20737461 
 2290      74757300 
 2291              	.LC11:
 2292 0074 4D757465 		.ascii	"Mutexes, priority return\000"
 2292      7865732C 
 2292      20707269 
 2292      6F726974 
 2292      79207265 
 2293 008d 000000   		.space	3
 2294              	.LC12:
 2295 0090 4D757465 		.ascii	"Mutexes, priority inheritance, complex case\000"
 2295      7865732C 
 2295      20707269 
 2295      6F726974 
 2295      7920696E 
 2296              	.LC13:
 2297 00bc 4D757465 		.ascii	"Mutexes, priority inheritance, simple case\000"
ARM GAS  C:\Users\TaisikHam\AppData\Local\Temp\ccK7hSbk.s 			page 42


 2297      7865732C 
 2297      20707269 
 2297      6F726974 
 2297      7920696E 
 2298 00e7 00       		.space	1
 2299              	.LC14:
 2300 00e8 4D757465 		.ascii	"Mutexes, priority enqueuing test\000"
 2300      7865732C 
 2300      20707269 
 2300      6F726974 
 2300      7920656E 
 2301 0109 000000   		.section	.rodata.patternmtx,"a",%progbits
 2302              		.align	2
 2303              		.type	patternmtx, %object
 2304              		.size	patternmtx, 36
 2305              	patternmtx:
 2306 0000 00000000 		.word	testmtx1
 2307 0004 00000000 		.word	testmtx2
 2308 0008 00000000 		.word	testmtx3
 2309 000c 00000000 		.word	testmtx4
 2310 0010 00000000 		.word	testmtx5
 2311 0014 00000000 		.word	testmtx6
 2312 0018 00000000 		.word	testmtx7
 2313 001c 00000000 		.word	testmtx8
 2314 0020 00000000 		.word	0
 2315              		.section	.data.c1,"aw",%progbits
 2316              		.align	2
 2317              		.set	.LANCHOR0,. + 0
 2318              		.type	c1, %object
 2319              		.size	c1, 8
 2320              	c1:
 2321 0000 00000000 		.word	c1
 2322 0004 00000000 		.word	c1
 2323              		.section	.rodata.testmtx1,"a",%progbits
 2324              		.align	2
 2325              		.type	testmtx1, %object
 2326              		.size	testmtx1, 16
 2327              	testmtx1:
 2328 0000 E8000000 		.word	.LC14
 2329 0004 00000000 		.word	mtx1_setup
 2330 0008 00000000 		.word	0
 2331 000c 00000000 		.word	mtx1_execute
 2332              		.section	.rodata.testmtx2,"a",%progbits
 2333              		.align	2
 2334              		.type	testmtx2, %object
 2335              		.size	testmtx2, 16
 2336              	testmtx2:
 2337 0000 BC000000 		.word	.LC13
 2338 0004 00000000 		.word	mtx2_setup
 2339 0008 00000000 		.word	0
 2340 000c 00000000 		.word	mtx2_execute
 2341              		.section	.rodata.testmtx3,"a",%progbits
 2342              		.align	2
 2343              		.type	testmtx3, %object
 2344              		.size	testmtx3, 16
 2345              	testmtx3:
 2346 0000 90000000 		.word	.LC12
ARM GAS  C:\Users\TaisikHam\AppData\Local\Temp\ccK7hSbk.s 			page 43


 2347 0004 00000000 		.word	mtx3_setup
 2348 0008 00000000 		.word	0
 2349 000c 00000000 		.word	mtx3_execute
 2350              		.section	.rodata.testmtx4,"a",%progbits
 2351              		.align	2
 2352              		.type	testmtx4, %object
 2353              		.size	testmtx4, 16
 2354              	testmtx4:
 2355 0000 74000000 		.word	.LC11
 2356 0004 00000000 		.word	mtx4_setup
 2357 0008 00000000 		.word	0
 2358 000c 00000000 		.word	mtx4_execute
 2359              		.text
 2360              	.Letext0:
 2361              		.file 2 "c:\\develop\\genist\\chibistudio\\tools\\yagarto-tools\\yagarto-20121222\\bin\\../lib/gcc
 2362              		.file 3 "c:/develop/genist/chibistudio/tools/yagarto-tools/yagarto-20121222/lib/gcc/../../arm-none
 2363              		.file 4 "../../../os/ports/GCC/ARMCMx/chtypes.h"
 2364              		.file 5 "../../../os/kernel/include/chlists.h"
 2365              		.file 6 "../../../os/kernel/include/chthreads.h"
 2366              		.file 7 "../../../os/ports/GCC/ARMCMx/chcore_v7m.h"
 2367              		.file 8 "../../../os/kernel/include/chvt.h"
 2368              		.file 9 "../../../os/kernel/include/chschd.h"
 2369              		.file 10 "../../../os/kernel/include/chmtx.h"
 2370              		.file 11 "../../../os/kernel/include/chcond.h"
 2371              		.file 12 "../../../test/test.h"
 2372              		.file 13 "../../../os/kernel/include/chdebug.h"