ARM GAS  C:\cygwin\tmp\ccyJ3soa.s 			page 1


   1              		.syntax unified
   2              		.cpu cortex-m4
   3              		.fpu softvfp
   4              		.eabi_attribute 20, 1
   5              		.eabi_attribute 21, 1
   6              		.eabi_attribute 23, 3
   7              		.eabi_attribute 24, 1
   8              		.eabi_attribute 25, 1
   9              		.eabi_attribute 26, 1
  10              		.eabi_attribute 30, 2
  11              		.eabi_attribute 34, 1
  12              		.eabi_attribute 18, 4
  13              		.thumb
  14              		.file	"testmbox.c"
  15              		.text
  16              	.Ltext0:
  17              		.cfi_sections	.debug_frame
  18              		.section	.text.mbox1_execute,"ax",%progbits
  19              		.align	2
  20              		.p2align 4,,15
  21              		.thumb
  22              		.thumb_func
  23              		.type	mbox1_execute, %function
  24              	mbox1_execute:
  25              	.LFB8:
  26              		.file 1 "../../../test/testmbox.c"
  27              		.loc 1 80 0
  28              		.cfi_startproc
  29              		@ args = 0, pretend = 0, frame = 8
  30              		@ frame_needed = 0, uses_anonymous_args = 0
  31 0000 F0B5     		push	{r4, r5, r6, r7, lr}
  32              	.LCFI0:
  33              		.cfi_def_cfa_offset 20
  34              		.cfi_offset 4, -20
  35              		.cfi_offset 5, -16
  36              		.cfi_offset 6, -12
  37              		.cfi_offset 7, -8
  38              		.cfi_offset 14, -4
  39              		.loc 1 87 0
  40 0002 4A4E     		ldr	r6, .L31
  41 0004 716A     		ldr	r1, [r6, #36]
  42 0006 0120     		movs	r0, #1
  43 0008 4B1F     		subs	r3, r1, #5
  44 000a 5942     		rsbs	r1, r3, #0
  45              		.loc 1 80 0
  46 000c 83B0     		sub	sp, sp, #12
  47              	.LCFI1:
  48              		.cfi_def_cfa_offset 32
  49              		.loc 1 87 0
  50 000e 5941     		adcs	r1, r1, r3
  51 0010 FFF7FEFF 		bl	_test_assert
  52              	.LVL0:
  53 0014 00BB     		cbnz	r0, .L1
  54 0016 4224     		movs	r4, #66
  55              	.L3:
  56              		.loc 1 93 0
  57 0018 444D     		ldr	r5, .L31
ARM GAS  C:\cygwin\tmp\ccyJ3soa.s 			page 2


  58 001a 2146     		mov	r1, r4
  59 001c 2846     		mov	r0, r5
  60 001e 4FF0FF32 		mov	r2, #-1
  61 0022 FFF7FEFF 		bl	chMBPost
  62              	.LVL1:
  63              		.loc 1 94 0
  64 0026 D0F10101 		rsbs	r1, r0, #1
  65 002a 38BF     		it	cc
  66 002c 0021     		movcc	r1, #0
  67 002e 0220     		movs	r0, #2
  68              	.LVL2:
  69 0030 0134     		adds	r4, r4, #1
  70 0032 FFF7FEFF 		bl	_test_assert
  71              	.LVL3:
  72 0036 78B9     		cbnz	r0, .L1
  73              		.loc 1 92 0
  74 0038 462C     		cmp	r4, #70
  75 003a EDD1     		bne	.L3
  76              		.loc 1 96 0
  77 003c 4121     		movs	r1, #65
  78 003e 2846     		mov	r0, r5
  79 0040 4FF0FF32 		mov	r2, #-1
  80 0044 FFF7FEFF 		bl	chMBPostAhead
  81              	.LVL4:
  82              		.loc 1 97 0
  83 0048 D0F10101 		rsbs	r1, r0, #1
  84 004c 38BF     		it	cc
  85 004e 0021     		movcc	r1, #0
  86 0050 0320     		movs	r0, #3
  87              	.LVL5:
  88 0052 FFF7FEFF 		bl	_test_assert
  89              	.LVL6:
  90 0056 08B1     		cbz	r0, .L30
  91              	.LVL7:
  92              	.L1:
  93              		.loc 1 224 0
  94 0058 03B0     		add	sp, sp, #12
  95 005a F0BD     		pop	{r4, r5, r6, r7, pc}
  96              	.LVL8:
  97              	.L30:
  98              		.loc 1 102 0
  99 005c 5821     		movs	r1, #88
 100 005e 0122     		movs	r2, #1
 101 0060 2846     		mov	r0, r5
 102 0062 FFF7FEFF 		bl	chMBPost
 103              	.LVL9:
 104              		.loc 1 103 0
 105 0066 B0F1FF3C 		subs	ip, r0, #-1
 106 006a DCF10001 		rsbs	r1, ip, #0
 107 006e 51EB0C01 		adcs	r1, r1, ip
 108 0072 0420     		movs	r0, #4
 109              	.LVL10:
 110 0074 FFF7FEFF 		bl	_test_assert
 111              	.LVL11:
 112 0078 0446     		mov	r4, r0
 113 007a 0028     		cmp	r0, #0
 114 007c ECD1     		bne	.L1
ARM GAS  C:\cygwin\tmp\ccyJ3soa.s 			page 3


 115              	.LBB2:
 116              		.loc 1 104 0
 117 007e 2023     		movs	r3, #32
 118              	.LVL12:
 119              	@ 104 "../../../test/testmbox.c" 1
 120 0080 83F31188 		msr     BASEPRI, r3
 121              	@ 0 "" 2
 122              	.LVL13:
 123              		.thumb
 124              	.LBE2:
 125 0084 FFF7FEFF 		bl	dbg_check_lock
 126              	.LVL14:
 127              		.loc 1 105 0
 128 0088 5821     		movs	r1, #88
 129 008a 2846     		mov	r0, r5
 130 008c FFF7FEFF 		bl	chMBPostI
 131              	.LVL15:
 132 0090 0746     		mov	r7, r0
 133              	.LVL16:
 134              		.loc 1 106 0
 135 0092 FFF7FEFF 		bl	dbg_check_unlock
 136              	.LVL17:
 137              	.LBB3:
 138 0096 2346     		mov	r3, r4
 139              	.LVL18:
 140              	@ 106 "../../../test/testmbox.c" 1
 141 0098 83F31188 		msr     BASEPRI, r3
 142              	@ 0 "" 2
 143              	.LVL19:
 144              		.thumb
 145              	.LBE3:
 146              		.loc 1 107 0
 147 009c 0520     		movs	r0, #5
 148 009e B7F1FF3E 		subs	lr, r7, #-1
 149 00a2 DEF10001 		rsbs	r1, lr, #0
 150 00a6 51EB0E01 		adcs	r1, r1, lr
 151 00aa FFF7FEFF 		bl	_test_assert
 152              	.LVL20:
 153 00ae 0028     		cmp	r0, #0
 154 00b0 D2D1     		bne	.L1
 155              		.loc 1 108 0
 156 00b2 5821     		movs	r1, #88
 157 00b4 0122     		movs	r2, #1
 158 00b6 2846     		mov	r0, r5
 159 00b8 FFF7FEFF 		bl	chMBPostAhead
 160              	.LVL21:
 161              		.loc 1 109 0
 162 00bc B0F1FF32 		subs	r2, r0, #-1
 163 00c0 5142     		rsbs	r1, r2, #0
 164 00c2 5141     		adcs	r1, r1, r2
 165 00c4 0620     		movs	r0, #6
 166              	.LVL22:
 167 00c6 FFF7FEFF 		bl	_test_assert
 168              	.LVL23:
 169 00ca 0446     		mov	r4, r0
 170 00cc 0028     		cmp	r0, #0
 171 00ce C3D1     		bne	.L1
ARM GAS  C:\cygwin\tmp\ccyJ3soa.s 			page 4


 172              	.LBB4:
 173              		.loc 1 110 0
 174 00d0 2023     		movs	r3, #32
 175              	.LVL24:
 176              	@ 110 "../../../test/testmbox.c" 1
 177 00d2 83F31188 		msr     BASEPRI, r3
 178              	@ 0 "" 2
 179              	.LVL25:
 180              		.thumb
 181              	.LBE4:
 182 00d6 FFF7FEFF 		bl	dbg_check_lock
 183              	.LVL26:
 184              		.loc 1 111 0
 185 00da 5821     		movs	r1, #88
 186 00dc 2846     		mov	r0, r5
 187 00de FFF7FEFF 		bl	chMBPostAheadI
 188              	.LVL27:
 189 00e2 0746     		mov	r7, r0
 190              	.LVL28:
 191              		.loc 1 112 0
 192 00e4 FFF7FEFF 		bl	dbg_check_unlock
 193              	.LVL29:
 194              	.LBB5:
 195 00e8 2346     		mov	r3, r4
 196              	.LVL30:
 197              	@ 112 "../../../test/testmbox.c" 1
 198 00ea 83F31188 		msr     BASEPRI, r3
 199              	@ 0 "" 2
 200              	.LVL31:
 201              		.thumb
 202              	.LBE5:
 203              		.loc 1 113 0
 204 00ee 0720     		movs	r0, #7
 205 00f0 B7F1FF33 		subs	r3, r7, #-1
 206              	.LVL32:
 207 00f4 5942     		rsbs	r1, r3, #0
 208 00f6 5941     		adcs	r1, r1, r3
 209 00f8 FFF7FEFF 		bl	_test_assert
 210              	.LVL33:
 211 00fc 0746     		mov	r7, r0
 212              	.LVL34:
 213 00fe 0028     		cmp	r0, #0
 214 0100 AAD1     		bne	.L1
 215              	.LBB6:
 216              		.loc 1 118 0
 217 0102 2023     		movs	r3, #32
 218              	.LVL35:
 219              	@ 118 "../../../test/testmbox.c" 1
 220 0104 83F31188 		msr     BASEPRI, r3
 221              	@ 0 "" 2
 222              	.LVL36:
 223              		.thumb
 224              	.LBE6:
 225 0108 FFF7FEFF 		bl	dbg_check_lock
 226              	.LVL37:
 227 010c 696A     		ldr	r1, [r5, #36]
 228 010e 0820     		movs	r0, #8
ARM GAS  C:\cygwin\tmp\ccyJ3soa.s 			page 5


 229 0110 D1F10101 		rsbs	r1, r1, #1
 230 0114 38BF     		it	cc
 231 0116 0021     		movcc	r1, #0
 232 0118 FFF7FEFF 		bl	_test_assert
 233              	.LVL38:
 234 011c 0446     		mov	r4, r0
 235 011e 38B1     		cbz	r0, .L4
 236              		.loc 1 118 0 is_stmt 0 discriminator 1
 237 0120 FFF7FEFF 		bl	dbg_check_unlock
 238              	.LVL39:
 239              	.LBB7:
 240 0124 3B46     		mov	r3, r7
 241              	@ 118 "../../../test/testmbox.c" 1
 242 0126 83F31188 		msr     BASEPRI, r3
 243              	@ 0 "" 2
 244              	.LVL40:
 245              		.thumb
 246 012a 95E7     		b	.L1
 247              	.L32:
 248              		.align	2
 249              	.L31:
 250 012c 00000000 		.word	.LANCHOR0
 251              	.LVL41:
 252              	.L4:
 253              	.LBE7:
 254              		.loc 1 118 0 discriminator 2
 255 0130 FFF7FEFF 		bl	dbg_check_unlock
 256              	.LVL42:
 257              	.LBB8:
 258 0134 2346     		mov	r3, r4
 259              	.LVL43:
 260              	@ 118 "../../../test/testmbox.c" 1
 261 0136 83F31188 		msr     BASEPRI, r3
 262              	@ 0 "" 2
 263              	.LVL44:
 264              		.thumb
 265              	.LBE8:
 266              	.LBB9:
 267              		.loc 1 119 0 is_stmt 1 discriminator 2
 268 013a 2023     		movs	r3, #32
 269              	.LVL45:
 270              	@ 119 "../../../test/testmbox.c" 1
 271 013c 83F31188 		msr     BASEPRI, r3
 272              	@ 0 "" 2
 273              	.LVL46:
 274              		.thumb
 275              	.LBE9:
 276 0140 FFF7FEFF 		bl	dbg_check_lock
 277              	.LVL47:
 278 0144 A969     		ldr	r1, [r5, #24]
 279 0146 0920     		movs	r0, #9
 280 0148 B1F1050C 		subs	ip, r1, #5
 281 014c DCF10001 		rsbs	r1, ip, #0
 282 0150 51EB0C01 		adcs	r1, r1, ip
 283 0154 FFF7FEFF 		bl	_test_assert
 284              	.LVL48:
 285 0158 0746     		mov	r7, r0
ARM GAS  C:\cygwin\tmp\ccyJ3soa.s 			page 6


 286 015a 0028     		cmp	r0, #0
 287 015c 40F0B482 		bne	.L27
 288 0160 FFF7FEFF 		bl	dbg_check_unlock
 289              	.LVL49:
 290              	.LBB10:
 291 0164 3B46     		mov	r3, r7
 292              	.LVL50:
 293              	@ 119 "../../../test/testmbox.c" 1
 294 0166 83F31188 		msr     BASEPRI, r3
 295              	@ 0 "" 2
 296              	.LVL51:
 297              		.thumb
 298              	.LBE10:
 299              	.LBB11:
 300              		.loc 1 120 0 discriminator 2
 301 016a 2023     		movs	r3, #32
 302              	.LVL52:
 303              	@ 120 "../../../test/testmbox.c" 1
 304 016c 83F31188 		msr     BASEPRI, r3
 305              	@ 0 "" 2
 306              	.LVL53:
 307              		.thumb
 308              	.LBE11:
 309 0170 FFF7FEFF 		bl	dbg_check_lock
 310              	.LVL54:
 311 0174 E968     		ldr	r1, [r5, #12]
 312 0176 AB68     		ldr	r3, [r5, #8]
 313 0178 0A20     		movs	r0, #10
 314 017a B1EB030E 		subs	lr, r1, r3
 315 017e DEF10001 		rsbs	r1, lr, #0
 316 0182 51EB0E01 		adcs	r1, r1, lr
 317 0186 FFF7FEFF 		bl	_test_assert
 318              	.LVL55:
 319 018a 0028     		cmp	r0, #0
 320 018c 40F09682 		bne	.L21
 321 0190 FFF7FEFF 		bl	dbg_check_unlock
 322              	.LVL56:
 323              	.LBB12:
 324 0194 0023     		movs	r3, #0
 325              	.LVL57:
 326              	@ 120 "../../../test/testmbox.c" 1
 327 0196 83F31188 		msr     BASEPRI, r3
 328              	@ 0 "" 2
 329              	.LVL58:
 330              		.thumb
 331 019a 0525     		movs	r5, #5
 332              	.LVL59:
 333              	.L8:
 334              	.LBE12:
 335              		.loc 1 126 0
 336 019c B84C     		ldr	r4, .L33
 337 019e 01A9     		add	r1, sp, #4
 338 01a0 4FF0FF32 		mov	r2, #-1
 339 01a4 2046     		mov	r0, r4
 340 01a6 FFF7FEFF 		bl	chMBFetch
 341              	.LVL60:
 342              		.loc 1 127 0
ARM GAS  C:\cygwin\tmp\ccyJ3soa.s 			page 7


 343 01aa D0F10101 		rsbs	r1, r0, #1
 344 01ae 38BF     		it	cc
 345 01b0 0021     		movcc	r1, #0
 346 01b2 0B20     		movs	r0, #11
 347              	.LVL61:
 348 01b4 FFF7FEFF 		bl	_test_assert
 349              	.LVL62:
 350 01b8 0028     		cmp	r0, #0
 351 01ba 7FF44DAF 		bne	.L1
 352              		.loc 1 128 0
 353 01be 9DF80400 		ldrb	r0, [sp, #4]	@ zero_extendqisi2
 354 01c2 FFF7FEFF 		bl	test_emit_token
 355              	.LVL63:
 356              		.loc 1 125 0
 357 01c6 013D     		subs	r5, r5, #1
 358 01c8 E8D1     		bne	.L8
 359              		.loc 1 130 0
 360 01ca 0C20     		movs	r0, #12
 361 01cc AD49     		ldr	r1, .L33+4
 362 01ce FFF7FEFF 		bl	_test_assert_sequence
 363              	.LVL64:
 364 01d2 0028     		cmp	r0, #0
 365 01d4 7FF440AF 		bne	.L1
 366              		.loc 1 135 0
 367 01d8 4721     		movs	r1, #71
 368 01da 2046     		mov	r0, r4
 369 01dc 4FF0FF32 		mov	r2, #-1
 370 01e0 FFF7FEFF 		bl	chMBPost
 371              	.LVL65:
 372              		.loc 1 136 0
 373 01e4 D0F10101 		rsbs	r1, r0, #1
 374 01e8 38BF     		it	cc
 375 01ea 0021     		movcc	r1, #0
 376 01ec 0D20     		movs	r0, #13
 377              	.LVL66:
 378 01ee FFF7FEFF 		bl	_test_assert
 379              	.LVL67:
 380 01f2 0028     		cmp	r0, #0
 381 01f4 7FF430AF 		bne	.L1
 382              		.loc 1 137 0
 383 01f8 01A9     		add	r1, sp, #4
 384 01fa 2046     		mov	r0, r4
 385 01fc 4FF0FF32 		mov	r2, #-1
 386 0200 FFF7FEFF 		bl	chMBFetch
 387              	.LVL68:
 388              		.loc 1 138 0
 389 0204 D0F10101 		rsbs	r1, r0, #1
 390 0208 38BF     		it	cc
 391 020a 0021     		movcc	r1, #0
 392 020c 0E20     		movs	r0, #14
 393              	.LVL69:
 394 020e FFF7FEFF 		bl	_test_assert
 395              	.LVL70:
 396 0212 0028     		cmp	r0, #0
 397 0214 7FF420AF 		bne	.L1
 398              		.loc 1 139 0
 399 0218 2168     		ldr	r1, [r4, #0]
ARM GAS  C:\cygwin\tmp\ccyJ3soa.s 			page 8


 400 021a A368     		ldr	r3, [r4, #8]
 401 021c 0F20     		movs	r0, #15
 402 021e CA1A     		subs	r2, r1, r3
 403 0220 5142     		rsbs	r1, r2, #0
 404 0222 5141     		adcs	r1, r1, r2
 405 0224 FFF7FEFF 		bl	_test_assert
 406              	.LVL71:
 407 0228 0028     		cmp	r0, #0
 408 022a 7FF415AF 		bne	.L1
 409              		.loc 1 140 0
 410 022e 2168     		ldr	r1, [r4, #0]
 411 0230 E368     		ldr	r3, [r4, #12]
 412 0232 1020     		movs	r0, #16
 413 0234 CB1A     		subs	r3, r1, r3
 414 0236 5942     		rsbs	r1, r3, #0
 415 0238 5941     		adcs	r1, r1, r3
 416 023a FFF7FEFF 		bl	_test_assert
 417              	.LVL72:
 418 023e 0028     		cmp	r0, #0
 419 0240 7FF40AAF 		bne	.L1
 420              		.loc 1 145 0
 421 0244 01A9     		add	r1, sp, #4
 422 0246 0122     		movs	r2, #1
 423 0248 2046     		mov	r0, r4
 424 024a FFF7FEFF 		bl	chMBFetch
 425              	.LVL73:
 426              		.loc 1 146 0
 427 024e B0F1FF3C 		subs	ip, r0, #-1
 428 0252 DCF10001 		rsbs	r1, ip, #0
 429 0256 51EB0C01 		adcs	r1, r1, ip
 430 025a 1120     		movs	r0, #17
 431              	.LVL74:
 432 025c FFF7FEFF 		bl	_test_assert
 433              	.LVL75:
 434 0260 0028     		cmp	r0, #0
 435 0262 7FF4F9AE 		bne	.L1
 436              	.LBB13:
 437              		.loc 1 147 0
 438 0266 2023     		movs	r3, #32
 439              	.LVL76:
 440              	@ 147 "../../../test/testmbox.c" 1
 441 0268 83F31188 		msr     BASEPRI, r3
 442              	@ 0 "" 2
 443              	.LVL77:
 444              		.thumb
 445              	.LBE13:
 446 026c FFF7FEFF 		bl	dbg_check_lock
 447              	.LVL78:
 448              		.loc 1 148 0
 449 0270 01A9     		add	r1, sp, #4
 450 0272 2046     		mov	r0, r4
 451 0274 FFF7FEFF 		bl	chMBFetchI
 452              	.LVL79:
 453 0278 0746     		mov	r7, r0
 454              	.LVL80:
 455              		.loc 1 149 0
 456 027a FFF7FEFF 		bl	dbg_check_unlock
ARM GAS  C:\cygwin\tmp\ccyJ3soa.s 			page 9


 457              	.LVL81:
 458              	.LBB14:
 459 027e 2B46     		mov	r3, r5
 460              	.LVL82:
 461              	@ 149 "../../../test/testmbox.c" 1
 462 0280 83F31188 		msr     BASEPRI, r3
 463              	@ 0 "" 2
 464              	.LVL83:
 465              		.thumb
 466              	.LBE14:
 467              		.loc 1 150 0
 468 0284 1220     		movs	r0, #18
 469 0286 B7F1FF3E 		subs	lr, r7, #-1
 470 028a DEF10001 		rsbs	r1, lr, #0
 471 028e 51EB0E01 		adcs	r1, r1, lr
 472 0292 FFF7FEFF 		bl	_test_assert
 473              	.LVL84:
 474 0296 0028     		cmp	r0, #0
 475 0298 7FF4DEAE 		bne	.L1
 476              	.LBB15:
 477              		.loc 1 155 0
 478 029c 2023     		movs	r3, #32
 479              	.LVL85:
 480              	@ 155 "../../../test/testmbox.c" 1
 481 029e 83F31188 		msr     BASEPRI, r3
 482              	@ 0 "" 2
 483              	.LVL86:
 484              		.thumb
 485              	.LBE15:
 486 02a2 FFF7FEFF 		bl	dbg_check_lock
 487              	.LVL87:
 488 02a6 616A     		ldr	r1, [r4, #36]
 489 02a8 1320     		movs	r0, #19
 490 02aa 4A1F     		subs	r2, r1, #5
 491 02ac 5142     		rsbs	r1, r2, #0
 492 02ae 5141     		adcs	r1, r1, r2
 493 02b0 FFF7FEFF 		bl	_test_assert
 494              	.LVL88:
 495 02b4 0028     		cmp	r0, #0
 496 02b6 40F00182 		bne	.L21
 497              		.loc 1 155 0 is_stmt 0 discriminator 2
 498 02ba FFF7FEFF 		bl	dbg_check_unlock
 499              	.LVL89:
 500              	.LBB16:
 501 02be 0023     		movs	r3, #0
 502              	.LVL90:
 503              	@ 155 "../../../test/testmbox.c" 1
 504 02c0 83F31188 		msr     BASEPRI, r3
 505              	@ 0 "" 2
 506              	.LVL91:
 507              		.thumb
 508              	.LBE16:
 509              	.LBB17:
 510              		.loc 1 156 0 is_stmt 1 discriminator 2
 511 02c4 2023     		movs	r3, #32
 512              	.LVL92:
 513              	@ 156 "../../../test/testmbox.c" 1
ARM GAS  C:\cygwin\tmp\ccyJ3soa.s 			page 10


 514 02c6 83F31188 		msr     BASEPRI, r3
 515              	@ 0 "" 2
 516              	.LVL93:
 517              		.thumb
 518              	.LBE17:
 519 02ca FFF7FEFF 		bl	dbg_check_lock
 520              	.LVL94:
 521 02ce B169     		ldr	r1, [r6, #24]
 522 02d0 6B4C     		ldr	r4, .L33
 523 02d2 1420     		movs	r0, #20
 524 02d4 D1F10101 		rsbs	r1, r1, #1
 525 02d8 38BF     		it	cc
 526 02da 0021     		movcc	r1, #0
 527 02dc FFF7FEFF 		bl	_test_assert
 528              	.LVL95:
 529 02e0 0546     		mov	r5, r0
 530 02e2 0028     		cmp	r0, #0
 531 02e4 40F0EA81 		bne	.L21
 532 02e8 FFF7FEFF 		bl	dbg_check_unlock
 533              	.LVL96:
 534              	.LBB18:
 535 02ec 2B46     		mov	r3, r5
 536              	.LVL97:
 537              	@ 156 "../../../test/testmbox.c" 1
 538 02ee 83F31188 		msr     BASEPRI, r3
 539              	@ 0 "" 2
 540              	.LVL98:
 541              		.thumb
 542              	.LBE18:
 543              	.LBB19:
 544              		.loc 1 157 0 discriminator 2
 545 02f2 2023     		movs	r3, #32
 546              	.LVL99:
 547              	@ 157 "../../../test/testmbox.c" 1
 548 02f4 83F31188 		msr     BASEPRI, r3
 549              	@ 0 "" 2
 550              	.LVL100:
 551              		.thumb
 552              	.LBE19:
 553 02f8 FFF7FEFF 		bl	dbg_check_lock
 554              	.LVL101:
 555 02fc E168     		ldr	r1, [r4, #12]
 556 02fe A368     		ldr	r3, [r4, #8]
 557 0300 1520     		movs	r0, #21
 558 0302 CB1A     		subs	r3, r1, r3
 559 0304 5942     		rsbs	r1, r3, #0
 560 0306 5941     		adcs	r1, r1, r3
 561 0308 FFF7FEFF 		bl	_test_assert
 562              	.LVL102:
 563 030c 0646     		mov	r6, r0
 564 030e 0028     		cmp	r0, #0
 565 0310 40F0AF80 		bne	.L28
 566 0314 FFF7FEFF 		bl	dbg_check_unlock
 567              	.LVL103:
 568              	.LBB20:
 569 0318 3346     		mov	r3, r6
 570              	.LVL104:
ARM GAS  C:\cygwin\tmp\ccyJ3soa.s 			page 11


 571              	@ 157 "../../../test/testmbox.c" 1
 572 031a 83F31188 		msr     BASEPRI, r3
 573              	@ 0 "" 2
 574              	.LVL105:
 575              		.thumb
 576              	.LBE20:
 577              	.LBB21:
 578              		.loc 1 162 0 discriminator 2
 579 031e 2023     		movs	r3, #32
 580              	.LVL106:
 581              	@ 162 "../../../test/testmbox.c" 1
 582 0320 83F31188 		msr     BASEPRI, r3
 583              	@ 0 "" 2
 584              	.LVL107:
 585              		.thumb
 586              	.LBE21:
 587 0324 FFF7FEFF 		bl	dbg_check_lock
 588              	.LVL108:
 589              		.loc 1 163 0 discriminator 2
 590 0328 4121     		movs	r1, #65
 591 032a 2046     		mov	r0, r4
 592 032c FFF7FEFF 		bl	chMBPostI
 593              	.LVL109:
 594              		.loc 1 164 0 discriminator 2
 595 0330 D0F10101 		rsbs	r1, r0, #1
 596 0334 38BF     		it	cc
 597 0336 0021     		movcc	r1, #0
 598 0338 1620     		movs	r0, #22
 599              	.LVL110:
 600 033a FFF7FEFF 		bl	_test_assert
 601              	.LVL111:
 602 033e 0028     		cmp	r0, #0
 603 0340 7FF48AAE 		bne	.L1
 604              		.loc 1 165 0
 605 0344 4221     		movs	r1, #66
 606 0346 2046     		mov	r0, r4
 607 0348 FFF7FEFF 		bl	chMBPostI
 608              	.LVL112:
 609              		.loc 1 166 0
 610 034c D0F10101 		rsbs	r1, r0, #1
 611 0350 38BF     		it	cc
 612 0352 0021     		movcc	r1, #0
 613 0354 1720     		movs	r0, #23
 614              	.LVL113:
 615 0356 FFF7FEFF 		bl	_test_assert
 616              	.LVL114:
 617 035a 0028     		cmp	r0, #0
 618 035c 7FF47CAE 		bne	.L1
 619              		.loc 1 167 0
 620 0360 4321     		movs	r1, #67
 621 0362 2046     		mov	r0, r4
 622 0364 FFF7FEFF 		bl	chMBPostI
 623              	.LVL115:
 624              		.loc 1 168 0
 625 0368 D0F10101 		rsbs	r1, r0, #1
 626 036c 38BF     		it	cc
 627 036e 0021     		movcc	r1, #0
ARM GAS  C:\cygwin\tmp\ccyJ3soa.s 			page 12


 628 0370 1820     		movs	r0, #24
 629              	.LVL116:
 630 0372 FFF7FEFF 		bl	_test_assert
 631              	.LVL117:
 632 0376 0028     		cmp	r0, #0
 633 0378 7FF46EAE 		bne	.L1
 634              		.loc 1 169 0
 635 037c 4421     		movs	r1, #68
 636 037e 2046     		mov	r0, r4
 637 0380 FFF7FEFF 		bl	chMBPostI
 638              	.LVL118:
 639              		.loc 1 170 0
 640 0384 D0F10101 		rsbs	r1, r0, #1
 641 0388 38BF     		it	cc
 642 038a 0021     		movcc	r1, #0
 643 038c 1920     		movs	r0, #25
 644              	.LVL119:
 645 038e FFF7FEFF 		bl	_test_assert
 646              	.LVL120:
 647 0392 0546     		mov	r5, r0
 648 0394 0028     		cmp	r0, #0
 649 0396 7FF45FAE 		bne	.L1
 650              		.loc 1 171 0
 651 039a 4521     		movs	r1, #69
 652 039c 2046     		mov	r0, r4
 653 039e FFF7FEFF 		bl	chMBPostI
 654              	.LVL121:
 655 03a2 0646     		mov	r6, r0
 656              	.LVL122:
 657              		.loc 1 172 0
 658 03a4 FFF7FEFF 		bl	dbg_check_unlock
 659              	.LVL123:
 660              	.LBB22:
 661 03a8 2B46     		mov	r3, r5
 662              	.LVL124:
 663              	@ 172 "../../../test/testmbox.c" 1
 664 03aa 83F31188 		msr     BASEPRI, r3
 665              	@ 0 "" 2
 666              	.LVL125:
 667              		.thumb
 668              	.LBE22:
 669              		.loc 1 173 0
 670 03ae 1A20     		movs	r0, #26
 671 03b0 D6F10101 		rsbs	r1, r6, #1
 672 03b4 38BF     		it	cc
 673 03b6 0021     		movcc	r1, #0
 674 03b8 FFF7FEFF 		bl	_test_assert
 675              	.LVL126:
 676 03bc 0028     		cmp	r0, #0
 677 03be 7FF44BAE 		bne	.L1
 678              		.loc 1 174 0
 679 03c2 E168     		ldr	r1, [r4, #12]
 680 03c4 A368     		ldr	r3, [r4, #8]
 681 03c6 1B20     		movs	r0, #27
 682 03c8 B1EB030C 		subs	ip, r1, r3
 683 03cc DCF10001 		rsbs	r1, ip, #0
 684 03d0 51EB0C01 		adcs	r1, r1, ip
ARM GAS  C:\cygwin\tmp\ccyJ3soa.s 			page 13


 685 03d4 FFF7FEFF 		bl	_test_assert
 686              	.LVL127:
 687 03d8 0028     		cmp	r0, #0
 688 03da 7FF43DAE 		bne	.L1
 689 03de 0525     		movs	r5, #5
 690              	.L12:
 691              	.LBB23:
 692              		.loc 1 176 0
 693 03e0 2023     		movs	r3, #32
 694              	.LVL128:
 695              	@ 176 "../../../test/testmbox.c" 1
 696 03e2 83F31188 		msr     BASEPRI, r3
 697              	@ 0 "" 2
 698              	.LVL129:
 699              		.thumb
 700              	.LBE23:
 701              		.loc 1 177 0
 702 03e6 264C     		ldr	r4, .L33
 703              		.loc 1 176 0
 704 03e8 FFF7FEFF 		bl	dbg_check_lock
 705              	.LVL130:
 706              		.loc 1 177 0
 707 03ec 01A9     		add	r1, sp, #4
 708 03ee 2046     		mov	r0, r4
 709 03f0 FFF7FEFF 		bl	chMBFetchI
 710              	.LVL131:
 711 03f4 0646     		mov	r6, r0
 712              	.LVL132:
 713              		.loc 1 178 0
 714 03f6 FFF7FEFF 		bl	dbg_check_unlock
 715              	.LVL133:
 716              	.LBB24:
 717 03fa 0023     		movs	r3, #0
 718              	.LVL134:
 719              	@ 178 "../../../test/testmbox.c" 1
 720 03fc 83F31188 		msr     BASEPRI, r3
 721              	@ 0 "" 2
 722              	.LVL135:
 723              		.thumb
 724              	.LBE24:
 725              		.loc 1 179 0
 726 0400 1C20     		movs	r0, #28
 727 0402 B6EB030E 		subs	lr, r6, r3
 728              	.LVL136:
 729 0406 DEF10001 		rsbs	r1, lr, #0
 730 040a 51EB0E01 		adcs	r1, r1, lr
 731 040e FFF7FEFF 		bl	_test_assert
 732              	.LVL137:
 733 0412 0028     		cmp	r0, #0
 734 0414 7FF420AE 		bne	.L1
 735              		.loc 1 180 0
 736 0418 9DF80400 		ldrb	r0, [sp, #4]	@ zero_extendqisi2
 737 041c FFF7FEFF 		bl	test_emit_token
 738              	.LVL138:
 739              		.loc 1 175 0
 740 0420 013D     		subs	r5, r5, #1
 741 0422 DDD1     		bne	.L12
ARM GAS  C:\cygwin\tmp\ccyJ3soa.s 			page 14


 742              		.loc 1 182 0
 743 0424 1D20     		movs	r0, #29
 744 0426 1749     		ldr	r1, .L33+4
 745 0428 FFF7FEFF 		bl	_test_assert_sequence
 746              	.LVL139:
 747 042c 0028     		cmp	r0, #0
 748 042e 7FF413AE 		bne	.L1
 749              	.LBB25:
 750              		.loc 1 183 0
 751 0432 2023     		movs	r3, #32
 752              	.LVL140:
 753              	@ 183 "../../../test/testmbox.c" 1
 754 0434 83F31188 		msr     BASEPRI, r3
 755              	@ 0 "" 2
 756              	.LVL141:
 757              		.thumb
 758              	.LBE25:
 759 0438 FFF7FEFF 		bl	dbg_check_lock
 760              	.LVL142:
 761 043c 616A     		ldr	r1, [r4, #36]
 762 043e 1E20     		movs	r0, #30
 763 0440 4A1F     		subs	r2, r1, #5
 764 0442 5142     		rsbs	r1, r2, #0
 765 0444 5141     		adcs	r1, r1, r2
 766 0446 FFF7FEFF 		bl	_test_assert
 767              	.LVL143:
 768 044a 90B9     		cbnz	r0, .L28
 769              		.loc 1 183 0 is_stmt 0 discriminator 2
 770 044c FFF7FEFF 		bl	dbg_check_unlock
 771              	.LVL144:
 772              	.LBB26:
 773 0450 2B46     		mov	r3, r5
 774              	.LVL145:
 775              	@ 183 "../../../test/testmbox.c" 1
 776 0452 83F31188 		msr     BASEPRI, r3
 777              	@ 0 "" 2
 778              	.LVL146:
 779              		.thumb
 780              	.LBE26:
 781              	.LBB27:
 782              		.loc 1 184 0 is_stmt 1 discriminator 2
 783 0456 2023     		movs	r3, #32
 784              	.LVL147:
 785              	@ 184 "../../../test/testmbox.c" 1
 786 0458 83F31188 		msr     BASEPRI, r3
 787              	@ 0 "" 2
 788              	.LVL148:
 789              		.thumb
 790              	.LBE27:
 791 045c FFF7FEFF 		bl	dbg_check_lock
 792              	.LVL149:
 793 0460 A169     		ldr	r1, [r4, #24]
 794 0462 1F20     		movs	r0, #31
 795 0464 D1F10101 		rsbs	r1, r1, #1
 796 0468 38BF     		it	cc
 797 046a 0021     		movcc	r1, #0
 798 046c FFF7FEFF 		bl	_test_assert
ARM GAS  C:\cygwin\tmp\ccyJ3soa.s 			page 15


 799              	.LVL150:
 800 0470 50B1     		cbz	r0, .L14
 801              	.LVL151:
 802              	.L28:
 803              		.loc 1 184 0 is_stmt 0 discriminator 1
 804 0472 FFF7FEFF 		bl	dbg_check_unlock
 805              	.LVL152:
 806              	.LBB28:
 807 0476 2B46     		mov	r3, r5
 808              	@ 184 "../../../test/testmbox.c" 1
 809 0478 83F31188 		msr     BASEPRI, r3
 810              	@ 0 "" 2
 811              	.LVL153:
 812              		.thumb
 813 047c ECE5     		b	.L1
 814              	.L34:
 815 047e 00BF     		.align	2
 816              	.L33:
 817 0480 00000000 		.word	.LANCHOR0
 818 0484 00000000 		.word	.LC0
 819              	.LVL154:
 820              	.L14:
 821              	.LBE28:
 822              		.loc 1 184 0 discriminator 2
 823 0488 FFF7FEFF 		bl	dbg_check_unlock
 824              	.LVL155:
 825              	.LBB29:
 826 048c 2B46     		mov	r3, r5
 827              	.LVL156:
 828              	@ 184 "../../../test/testmbox.c" 1
 829 048e 83F31188 		msr     BASEPRI, r3
 830              	@ 0 "" 2
 831              	.LVL157:
 832              		.thumb
 833              	.LBE29:
 834              		.loc 1 185 0 is_stmt 1 discriminator 2
 835 0492 E168     		ldr	r1, [r4, #12]
 836 0494 A368     		ldr	r3, [r4, #8]
 837              	.LVL158:
 838 0496 2020     		movs	r0, #32
 839 0498 CB1A     		subs	r3, r1, r3
 840 049a 5942     		rsbs	r1, r3, #0
 841 049c 5941     		adcs	r1, r1, r3
 842 049e FFF7FEFF 		bl	_test_assert
 843              	.LVL159:
 844 04a2 0028     		cmp	r0, #0
 845 04a4 7FF4D8AD 		bne	.L1
 846              	.LBB30:
 847              		.loc 1 187 0
 848 04a8 2023     		movs	r3, #32
 849              	.LVL160:
 850              	@ 187 "../../../test/testmbox.c" 1
 851 04aa 83F31188 		msr     BASEPRI, r3
 852              	@ 0 "" 2
 853              	.LVL161:
 854              		.thumb
 855              	.LBE30:
ARM GAS  C:\cygwin\tmp\ccyJ3soa.s 			page 16


 856 04ae FFF7FEFF 		bl	dbg_check_lock
 857              	.LVL162:
 858              		.loc 1 188 0
 859 04b2 4521     		movs	r1, #69
 860 04b4 2046     		mov	r0, r4
 861 04b6 FFF7FEFF 		bl	chMBPostAheadI
 862              	.LVL163:
 863              		.loc 1 189 0
 864 04ba D0F10101 		rsbs	r1, r0, #1
 865 04be 38BF     		it	cc
 866 04c0 0021     		movcc	r1, #0
 867 04c2 2120     		movs	r0, #33
 868              	.LVL164:
 869 04c4 FFF7FEFF 		bl	_test_assert
 870              	.LVL165:
 871 04c8 0028     		cmp	r0, #0
 872 04ca 7FF4C5AD 		bne	.L1
 873              		.loc 1 190 0
 874 04ce 4421     		movs	r1, #68
 875 04d0 2046     		mov	r0, r4
 876 04d2 FFF7FEFF 		bl	chMBPostAheadI
 877              	.LVL166:
 878              		.loc 1 191 0
 879 04d6 D0F10101 		rsbs	r1, r0, #1
 880 04da 38BF     		it	cc
 881 04dc 0021     		movcc	r1, #0
 882 04de 2220     		movs	r0, #34
 883              	.LVL167:
 884 04e0 FFF7FEFF 		bl	_test_assert
 885              	.LVL168:
 886 04e4 0028     		cmp	r0, #0
 887 04e6 7FF4B7AD 		bne	.L1
 888              		.loc 1 192 0
 889 04ea 4321     		movs	r1, #67
 890 04ec 2046     		mov	r0, r4
 891 04ee FFF7FEFF 		bl	chMBPostAheadI
 892              	.LVL169:
 893              		.loc 1 193 0
 894 04f2 D0F10101 		rsbs	r1, r0, #1
 895 04f6 38BF     		it	cc
 896 04f8 0021     		movcc	r1, #0
 897 04fa 2320     		movs	r0, #35
 898              	.LVL170:
 899 04fc FFF7FEFF 		bl	_test_assert
 900              	.LVL171:
 901 0500 0028     		cmp	r0, #0
 902 0502 7FF4A9AD 		bne	.L1
 903              		.loc 1 194 0
 904 0506 4221     		movs	r1, #66
 905 0508 2046     		mov	r0, r4
 906 050a FFF7FEFF 		bl	chMBPostAheadI
 907              	.LVL172:
 908              		.loc 1 195 0
 909 050e D0F10101 		rsbs	r1, r0, #1
 910 0512 38BF     		it	cc
 911 0514 0021     		movcc	r1, #0
 912 0516 2420     		movs	r0, #36
ARM GAS  C:\cygwin\tmp\ccyJ3soa.s 			page 17


 913              	.LVL173:
 914 0518 FFF7FEFF 		bl	_test_assert
 915              	.LVL174:
 916 051c 0028     		cmp	r0, #0
 917 051e 7FF49BAD 		bne	.L1
 918              		.loc 1 196 0
 919 0522 6C4C     		ldr	r4, .L35
 920 0524 4121     		movs	r1, #65
 921 0526 2046     		mov	r0, r4
 922 0528 FFF7FEFF 		bl	chMBPostAheadI
 923              	.LVL175:
 924 052c 0546     		mov	r5, r0
 925              	.LVL176:
 926              		.loc 1 197 0
 927 052e FFF7FEFF 		bl	dbg_check_unlock
 928              	.LVL177:
 929              	.LBB31:
 930 0532 0023     		movs	r3, #0
 931              	.LVL178:
 932              	@ 197 "../../../test/testmbox.c" 1
 933 0534 83F31188 		msr     BASEPRI, r3
 934              	@ 0 "" 2
 935              	.LVL179:
 936              		.thumb
 937              	.LBE31:
 938              		.loc 1 198 0
 939 0538 2520     		movs	r0, #37
 940 053a B5EB030C 		subs	ip, r5, r3
 941              	.LVL180:
 942 053e DCF10001 		rsbs	r1, ip, #0
 943 0542 51EB0C01 		adcs	r1, r1, ip
 944 0546 FFF7FEFF 		bl	_test_assert
 945              	.LVL181:
 946 054a 0028     		cmp	r0, #0
 947 054c 7FF484AD 		bne	.L1
 948              		.loc 1 199 0
 949 0550 E168     		ldr	r1, [r4, #12]
 950 0552 A368     		ldr	r3, [r4, #8]
 951 0554 2620     		movs	r0, #38
 952 0556 B1EB030E 		subs	lr, r1, r3
 953 055a DEF10001 		rsbs	r1, lr, #0
 954 055e 51EB0E01 		adcs	r1, r1, lr
 955 0562 FFF7FEFF 		bl	_test_assert
 956              	.LVL182:
 957 0566 0028     		cmp	r0, #0
 958 0568 7FF476AD 		bne	.L1
 959 056c 0524     		movs	r4, #5
 960              	.LVL183:
 961              	.L15:
 962              	.LBB32:
 963              		.loc 1 201 0
 964 056e 2023     		movs	r3, #32
 965              	.LVL184:
 966              	@ 201 "../../../test/testmbox.c" 1
 967 0570 83F31188 		msr     BASEPRI, r3
 968              	@ 0 "" 2
 969              	.LVL185:
ARM GAS  C:\cygwin\tmp\ccyJ3soa.s 			page 18


 970              		.thumb
 971              	.LBE32:
 972              		.loc 1 202 0
 973 0574 574D     		ldr	r5, .L35
 974              		.loc 1 201 0
 975 0576 FFF7FEFF 		bl	dbg_check_lock
 976              	.LVL186:
 977              		.loc 1 202 0
 978 057a 01A9     		add	r1, sp, #4
 979 057c 2846     		mov	r0, r5
 980 057e FFF7FEFF 		bl	chMBFetchI
 981              	.LVL187:
 982 0582 0646     		mov	r6, r0
 983              	.LVL188:
 984              		.loc 1 203 0
 985 0584 FFF7FEFF 		bl	dbg_check_unlock
 986              	.LVL189:
 987              	.LBB33:
 988 0588 0023     		movs	r3, #0
 989              	.LVL190:
 990              	@ 203 "../../../test/testmbox.c" 1
 991 058a 83F31188 		msr     BASEPRI, r3
 992              	@ 0 "" 2
 993              	.LVL191:
 994              		.thumb
 995              	.LBE33:
 996              		.loc 1 204 0
 997 058e 2720     		movs	r0, #39
 998 0590 F21A     		subs	r2, r6, r3
 999              	.LVL192:
 1000 0592 5142     		rsbs	r1, r2, #0
 1001 0594 5141     		adcs	r1, r1, r2
 1002 0596 FFF7FEFF 		bl	_test_assert
 1003              	.LVL193:
 1004 059a 0028     		cmp	r0, #0
 1005 059c 7FF45CAD 		bne	.L1
 1006              		.loc 1 205 0
 1007 05a0 9DF80400 		ldrb	r0, [sp, #4]	@ zero_extendqisi2
 1008 05a4 FFF7FEFF 		bl	test_emit_token
 1009              	.LVL194:
 1010              		.loc 1 200 0
 1011 05a8 013C     		subs	r4, r4, #1
 1012 05aa E0D1     		bne	.L15
 1013              		.loc 1 207 0
 1014 05ac 2820     		movs	r0, #40
 1015 05ae 4A49     		ldr	r1, .L35+4
 1016 05b0 FFF7FEFF 		bl	_test_assert_sequence
 1017              	.LVL195:
 1018 05b4 0028     		cmp	r0, #0
 1019 05b6 7FF44FAD 		bne	.L1
 1020              	.LBB34:
 1021              		.loc 1 208 0
 1022 05ba 2023     		movs	r3, #32
 1023              	.LVL196:
 1024              	@ 208 "../../../test/testmbox.c" 1
 1025 05bc 83F31188 		msr     BASEPRI, r3
 1026              	@ 0 "" 2
ARM GAS  C:\cygwin\tmp\ccyJ3soa.s 			page 19


 1027              	.LVL197:
 1028              		.thumb
 1029              	.LBE34:
 1030 05c0 FFF7FEFF 		bl	dbg_check_lock
 1031              	.LVL198:
 1032 05c4 696A     		ldr	r1, [r5, #36]
 1033 05c6 2920     		movs	r0, #41
 1034 05c8 4B1F     		subs	r3, r1, #5
 1035 05ca 5942     		rsbs	r1, r3, #0
 1036 05cc 5941     		adcs	r1, r1, r3
 1037 05ce FFF7FEFF 		bl	_test_assert
 1038              	.LVL199:
 1039 05d2 0028     		cmp	r0, #0
 1040 05d4 78D1     		bne	.L27
 1041              		.loc 1 208 0 is_stmt 0 discriminator 2
 1042 05d6 FFF7FEFF 		bl	dbg_check_unlock
 1043              	.LVL200:
 1044              	.LBB35:
 1045 05da 2346     		mov	r3, r4
 1046              	.LVL201:
 1047              	@ 208 "../../../test/testmbox.c" 1
 1048 05dc 83F31188 		msr     BASEPRI, r3
 1049              	@ 0 "" 2
 1050              	.LVL202:
 1051              		.thumb
 1052              	.LBE35:
 1053              	.LBB36:
 1054              		.loc 1 209 0 is_stmt 1 discriminator 2
 1055 05e0 2023     		movs	r3, #32
 1056              	.LVL203:
 1057              	@ 209 "../../../test/testmbox.c" 1
 1058 05e2 83F31188 		msr     BASEPRI, r3
 1059              	@ 0 "" 2
 1060              	.LVL204:
 1061              		.thumb
 1062              	.LBE36:
 1063 05e6 FFF7FEFF 		bl	dbg_check_lock
 1064              	.LVL205:
 1065 05ea A969     		ldr	r1, [r5, #24]
 1066 05ec 2A20     		movs	r0, #42
 1067 05ee D1F10101 		rsbs	r1, r1, #1
 1068 05f2 38BF     		it	cc
 1069 05f4 0021     		movcc	r1, #0
 1070 05f6 FFF7FEFF 		bl	_test_assert
 1071              	.LVL206:
 1072 05fa 0028     		cmp	r0, #0
 1073 05fc 64D1     		bne	.L27
 1074 05fe FFF7FEFF 		bl	dbg_check_unlock
 1075              	.LVL207:
 1076              	.LBB37:
 1077 0602 2346     		mov	r3, r4
 1078              	.LVL208:
 1079              	@ 209 "../../../test/testmbox.c" 1
 1080 0604 83F31188 		msr     BASEPRI, r3
 1081              	@ 0 "" 2
 1082              	.LVL209:
 1083              		.thumb
ARM GAS  C:\cygwin\tmp\ccyJ3soa.s 			page 20


 1084              	.LBE37:
 1085              		.loc 1 210 0 discriminator 2
 1086 0608 E968     		ldr	r1, [r5, #12]
 1087 060a AB68     		ldr	r3, [r5, #8]
 1088              	.LVL210:
 1089 060c 2B20     		movs	r0, #43
 1090 060e B1EB030C 		subs	ip, r1, r3
 1091 0612 DCF10001 		rsbs	r1, ip, #0
 1092 0616 51EB0C01 		adcs	r1, r1, ip
 1093 061a FFF7FEFF 		bl	_test_assert
 1094              	.LVL211:
 1095 061e 0028     		cmp	r0, #0
 1096 0620 7FF41AAD 		bne	.L1
 1097              		.loc 1 215 0
 1098 0624 2846     		mov	r0, r5
 1099 0626 FFF7FEFF 		bl	chMBReset
 1100              	.LVL212:
 1101              	.LBB38:
 1102              		.loc 1 220 0
 1103 062a 2023     		movs	r3, #32
 1104              	.LVL213:
 1105              	@ 220 "../../../test/testmbox.c" 1
 1106 062c 83F31188 		msr     BASEPRI, r3
 1107              	@ 0 "" 2
 1108              	.LVL214:
 1109              		.thumb
 1110              	.LBE38:
 1111 0630 FFF7FEFF 		bl	dbg_check_lock
 1112              	.LVL215:
 1113 0634 696A     		ldr	r1, [r5, #36]
 1114 0636 2C20     		movs	r0, #44
 1115 0638 B1F1050E 		subs	lr, r1, #5
 1116 063c DEF10001 		rsbs	r1, lr, #0
 1117 0640 51EB0E01 		adcs	r1, r1, lr
 1118 0644 FFF7FEFF 		bl	_test_assert
 1119              	.LVL216:
 1120 0648 0028     		cmp	r0, #0
 1121 064a 3DD1     		bne	.L27
 1122              		.loc 1 220 0 is_stmt 0 discriminator 2
 1123 064c FFF7FEFF 		bl	dbg_check_unlock
 1124              	.LVL217:
 1125              	.LBB39:
 1126 0650 2346     		mov	r3, r4
 1127              	.LVL218:
 1128              	@ 220 "../../../test/testmbox.c" 1
 1129 0652 83F31188 		msr     BASEPRI, r3
 1130              	@ 0 "" 2
 1131              	.LVL219:
 1132              		.thumb
 1133              	.LBE39:
 1134              	.LBB40:
 1135              		.loc 1 221 0 is_stmt 1 discriminator 2
 1136 0656 2023     		movs	r3, #32
 1137              	.LVL220:
 1138              	@ 221 "../../../test/testmbox.c" 1
 1139 0658 83F31188 		msr     BASEPRI, r3
 1140              	@ 0 "" 2
ARM GAS  C:\cygwin\tmp\ccyJ3soa.s 			page 21


 1141              	.LVL221:
 1142              		.thumb
 1143              	.LBE40:
 1144 065c FFF7FEFF 		bl	dbg_check_lock
 1145              	.LVL222:
 1146 0660 A969     		ldr	r1, [r5, #24]
 1147 0662 2D20     		movs	r0, #45
 1148 0664 D1F10101 		rsbs	r1, r1, #1
 1149 0668 38BF     		it	cc
 1150 066a 0021     		movcc	r1, #0
 1151 066c FFF7FEFF 		bl	_test_assert
 1152              	.LVL223:
 1153 0670 50BB     		cbnz	r0, .L27
 1154 0672 FFF7FEFF 		bl	dbg_check_unlock
 1155              	.LVL224:
 1156              	.LBB41:
 1157 0676 2346     		mov	r3, r4
 1158              	.LVL225:
 1159              	@ 221 "../../../test/testmbox.c" 1
 1160 0678 83F31188 		msr     BASEPRI, r3
 1161              	@ 0 "" 2
 1162              	.LVL226:
 1163              		.thumb
 1164              	.LBE41:
 1165              	.LBB42:
 1166              		.loc 1 222 0 discriminator 2
 1167 067c 2023     		movs	r3, #32
 1168              	.LVL227:
 1169              	@ 222 "../../../test/testmbox.c" 1
 1170 067e 83F31188 		msr     BASEPRI, r3
 1171              	@ 0 "" 2
 1172              	.LVL228:
 1173              		.thumb
 1174              	.LBE42:
 1175 0682 FFF7FEFF 		bl	dbg_check_lock
 1176              	.LVL229:
 1177 0686 2968     		ldr	r1, [r5, #0]
 1178 0688 AB68     		ldr	r3, [r5, #8]
 1179 068a 2E20     		movs	r0, #46
 1180 068c CA1A     		subs	r2, r1, r3
 1181 068e 5142     		rsbs	r1, r2, #0
 1182 0690 5141     		adcs	r1, r1, r2
 1183 0692 FFF7FEFF 		bl	_test_assert
 1184              	.LVL230:
 1185 0696 B8B9     		cbnz	r0, .L27
 1186 0698 FFF7FEFF 		bl	dbg_check_unlock
 1187              	.LVL231:
 1188              	.LBB43:
 1189 069c 2346     		mov	r3, r4
 1190              	.LVL232:
 1191              	@ 222 "../../../test/testmbox.c" 1
 1192 069e 83F31188 		msr     BASEPRI, r3
 1193              	@ 0 "" 2
 1194              	.LVL233:
 1195              		.thumb
 1196              	.LBE43:
 1197              	.LBB44:
ARM GAS  C:\cygwin\tmp\ccyJ3soa.s 			page 22


 1198              		.loc 1 223 0 discriminator 2
 1199 06a2 2023     		movs	r3, #32
 1200              	.LVL234:
 1201              	@ 223 "../../../test/testmbox.c" 1
 1202 06a4 83F31188 		msr     BASEPRI, r3
 1203              	@ 0 "" 2
 1204              	.LVL235:
 1205              		.thumb
 1206              	.LBE44:
 1207 06a8 FFF7FEFF 		bl	dbg_check_lock
 1208              	.LVL236:
 1209 06ac 2968     		ldr	r1, [r5, #0]
 1210 06ae EB68     		ldr	r3, [r5, #12]
 1211 06b0 2F20     		movs	r0, #47
 1212 06b2 CB1A     		subs	r3, r1, r3
 1213 06b4 5942     		rsbs	r1, r3, #0
 1214 06b6 5941     		adcs	r1, r1, r3
 1215 06b8 FFF7FEFF 		bl	_test_assert
 1216              	.LVL237:
 1217              	.L21:
 1218 06bc FFF7FEFF 		bl	dbg_check_unlock
 1219              	.LVL238:
 1220              	.LBB45:
 1221 06c0 0023     		movs	r3, #0
 1222              	@ 223 "../../../test/testmbox.c" 1
 1223 06c2 83F31188 		msr     BASEPRI, r3
 1224              	@ 0 "" 2
 1225              	.LVL239:
 1226              		.thumb
 1227 06c6 C7E4     		b	.L1
 1228              	.LVL240:
 1229              	.L27:
 1230              	.LBE45:
 1231              		.loc 1 222 0 discriminator 1
 1232 06c8 FFF7FEFF 		bl	dbg_check_unlock
 1233              	.LVL241:
 1234              	.LBB46:
 1235 06cc 2346     		mov	r3, r4
 1236              	@ 222 "../../../test/testmbox.c" 1
 1237 06ce 83F31188 		msr     BASEPRI, r3
 1238              	@ 0 "" 2
 1239              	.LVL242:
 1240              		.thumb
 1241 06d2 C1E4     		b	.L1
 1242              	.L36:
 1243              		.align	2
 1244              	.L35:
 1245 06d4 00000000 		.word	.LANCHOR0
 1246 06d8 00000000 		.word	.LC0
 1247              	.LBE46:
 1248              		.cfi_endproc
 1249              	.LFE8:
 1250              		.size	mbox1_execute, .-mbox1_execute
 1251 06dc AFF30080 		.section	.text.mbox1_setup,"ax",%progbits
 1252              		.align	2
 1253              		.p2align 4,,15
 1254              		.thumb
ARM GAS  C:\cygwin\tmp\ccyJ3soa.s 			page 23


 1255              		.thumb_func
 1256              		.type	mbox1_setup, %function
 1257              	mbox1_setup:
 1258              	.LFB7:
 1259              		.loc 1 75 0
 1260              		.cfi_startproc
 1261              		@ args = 0, pretend = 0, frame = 0
 1262              		@ frame_needed = 0, uses_anonymous_args = 0
 1263              		@ link register save eliminated.
 1264              		.loc 1 77 0
 1265 0000 40F20000 		movw	r0, #:lower16:.LANCHOR0
 1266 0004 40F20001 		movw	r1, #:lower16:test
 1267 0008 C0F20000 		movt	r0, #:upper16:.LANCHOR0
 1268 000c C0F20001 		movt	r1, #:upper16:test
 1269 0010 0522     		movs	r2, #5
 1270              		.loc 1 78 0
 1271              		.loc 1 77 0
 1272 0012 FFF7FEBF 		b	chMBInit
 1273              	.LVL243:
 1274              		.cfi_endproc
 1275              	.LFE7:
 1276              		.size	mbox1_setup, .-mbox1_setup
 1277              		.global	patternmbox
 1278              		.global	testmbox1
 1279 0016 00BFAFF3 		.section	.data.mb1,"aw",%progbits
 1279      0080AFF3 
 1279      0080
 1280              		.align	2
 1281              		.set	.LANCHOR0,. + 0
 1282              		.type	mb1, %object
 1283              		.size	mb1, 40
 1284              	mb1:
 1285 0000 00000000 		.word	test
 1286 0004 14000000 		.word	test+20
 1287 0008 00000000 		.word	test
 1288 000c 00000000 		.word	test
 1289 0010 10000000 		.word	mb1+16
 1290 0014 10000000 		.word	mb1+16
 1291 0018 00000000 		.word	0
 1292 001c 1C000000 		.word	mb1+28
 1293 0020 1C000000 		.word	mb1+28
 1294 0024 05000000 		.word	5
 1295              		.section	.rodata.patternmbox,"a",%progbits
 1296              		.align	2
 1297              		.type	patternmbox, %object
 1298              		.size	patternmbox, 8
 1299              	patternmbox:
 1300 0000 00000000 		.word	testmbox1
 1301 0004 00000000 		.word	0
 1302              		.section	.rodata.str1.4,"aMS",%progbits,1
 1303              		.align	2
 1304              	.LC0:
 1305 0000 41424344 		.ascii	"ABCDE\000"
 1305      4500
 1306 0006 0000     		.space	2
 1307              	.LC1:
 1308 0008 4D61696C 		.ascii	"Mailboxes, queuing and timeouts\000"
ARM GAS  C:\cygwin\tmp\ccyJ3soa.s 			page 24


 1308      626F7865 
 1308      732C2071 
 1308      75657569 
 1308      6E672061 
 1309              		.section	.rodata.testmbox1,"a",%progbits
 1310              		.align	2
 1311              		.type	testmbox1, %object
 1312              		.size	testmbox1, 16
 1313              	testmbox1:
 1314 0000 08000000 		.word	.LC1
 1315 0004 00000000 		.word	mbox1_setup
 1316 0008 00000000 		.word	0
 1317 000c 00000000 		.word	mbox1_execute
 1318              		.text
 1319              	.Letext0:
 1320              		.file 2 "c:/develop/genist/chibistudio/tools/yagarto-tools/yagarto-20121222/lib/gcc/../../arm-none
 1321              		.file 3 "../../../os/ports/GCC/ARMCMx/chtypes.h"
 1322              		.file 4 "../../../os/kernel/include/chlists.h"
 1323              		.file 5 "../../../os/kernel/include/chthreads.h"
 1324              		.file 6 "../../../os/ports/GCC/ARMCMx/chcore_v7m.h"
 1325              		.file 7 "../../../os/kernel/include/chsem.h"
 1326              		.file 8 "../../../os/kernel/include/chmtx.h"
 1327              		.file 9 "../../../os/kernel/include/chmboxes.h"
 1328              		.file 10 "../../../test/test.h"
 1329              		.file 11 "../../../os/kernel/include/chdebug.h"
 1330              		.section	.debug_info,"",%progbits
 1331              	.Ldebug_info0:
 1332 0000 18150000 		.4byte	0x1518
 1333 0004 0200     		.2byte	0x2
 1334 0006 00000000 		.4byte	.Ldebug_abbrev0
 1335 000a 04       		.byte	0x4
 1336 000b 01       		.uleb128 0x1
 1337 000c 90020000 		.4byte	.LASF95
 1338 0010 01       		.byte	0x1
 1339 0011 92000000 		.4byte	.LASF96
 1340 0015 DF010000 		.4byte	.LASF97
 1341 0019 00000000 		.4byte	.Ldebug_ranges0+0
 1342 001d 00000000 		.4byte	0
 1343 0021 00000000 		.4byte	0
 1344 0025 00000000 		.4byte	.Ldebug_line0
 1345 0029 02       		.uleb128 0x2
 1346 002a 04       		.byte	0x4
 1347 002b 05       		.byte	0x5
 1348 002c 696E7400 		.ascii	"int\000"
 1349 0030 03       		.uleb128 0x3
 1350 0031 04       		.byte	0x4
 1351 0032 07       		.byte	0x7
 1352 0033 21010000 		.4byte	.LASF0
 1353 0037 03       		.uleb128 0x3
 1354 0038 01       		.byte	0x1
 1355 0039 06       		.byte	0x6
 1356 003a 86000000 		.4byte	.LASF1
 1357 003e 04       		.uleb128 0x4
 1358 003f E0030000 		.4byte	.LASF5
 1359 0043 02       		.byte	0x2
 1360 0044 2A       		.byte	0x2a
 1361 0045 49000000 		.4byte	0x49
ARM GAS  C:\cygwin\tmp\ccyJ3soa.s 			page 25


 1362 0049 03       		.uleb128 0x3
 1363 004a 01       		.byte	0x1
 1364 004b 08       		.byte	0x8
 1365 004c E9020000 		.4byte	.LASF2
 1366 0050 03       		.uleb128 0x3
 1367 0051 02       		.byte	0x2
 1368 0052 05       		.byte	0x5
 1369 0053 08030000 		.4byte	.LASF3
 1370 0057 03       		.uleb128 0x3
 1371 0058 02       		.byte	0x2
 1372 0059 07       		.byte	0x7
 1373 005a 89010000 		.4byte	.LASF4
 1374 005e 04       		.uleb128 0x4
 1375 005f E1020000 		.4byte	.LASF6
 1376 0063 02       		.byte	0x2
 1377 0064 4F       		.byte	0x4f
 1378 0065 69000000 		.4byte	0x69
 1379 0069 03       		.uleb128 0x3
 1380 006a 04       		.byte	0x4
 1381 006b 05       		.byte	0x5
 1382 006c E5000000 		.4byte	.LASF7
 1383 0070 04       		.uleb128 0x4
 1384 0071 55030000 		.4byte	.LASF8
 1385 0075 02       		.byte	0x2
 1386 0076 50       		.byte	0x50
 1387 0077 7B000000 		.4byte	0x7b
 1388 007b 03       		.uleb128 0x3
 1389 007c 04       		.byte	0x4
 1390 007d 07       		.byte	0x7
 1391 007e 41010000 		.4byte	.LASF9
 1392 0082 03       		.uleb128 0x3
 1393 0083 08       		.byte	0x8
 1394 0084 05       		.byte	0x5
 1395 0085 78000000 		.4byte	.LASF10
 1396 0089 04       		.uleb128 0x4
 1397 008a 0D000000 		.4byte	.LASF11
 1398 008e 02       		.byte	0x2
 1399 008f 78       		.byte	0x78
 1400 0090 94000000 		.4byte	0x94
 1401 0094 03       		.uleb128 0x3
 1402 0095 08       		.byte	0x8
 1403 0096 07       		.byte	0x7
 1404 0097 37000000 		.4byte	.LASF12
 1405 009b 04       		.uleb128 0x4
 1406 009c B3000000 		.4byte	.LASF13
 1407 00a0 03       		.byte	0x3
 1408 00a1 24       		.byte	0x24
 1409 00a2 A6000000 		.4byte	0xa6
 1410 00a6 03       		.uleb128 0x3
 1411 00a7 01       		.byte	0x1
 1412 00a8 02       		.byte	0x2
 1413 00a9 DB020000 		.4byte	.LASF14
 1414 00ad 04       		.uleb128 0x4
 1415 00ae AD010000 		.4byte	.LASF15
 1416 00b2 03       		.byte	0x3
 1417 00b3 25       		.byte	0x25
 1418 00b4 3E000000 		.4byte	0x3e
ARM GAS  C:\cygwin\tmp\ccyJ3soa.s 			page 26


 1419 00b8 04       		.uleb128 0x4
 1420 00b9 EE000000 		.4byte	.LASF16
 1421 00bd 03       		.byte	0x3
 1422 00be 26       		.byte	0x26
 1423 00bf 3E000000 		.4byte	0x3e
 1424 00c3 04       		.uleb128 0x4
 1425 00c4 BC020000 		.4byte	.LASF17
 1426 00c8 03       		.byte	0x3
 1427 00c9 27       		.byte	0x27
 1428 00ca 3E000000 		.4byte	0x3e
 1429 00ce 04       		.uleb128 0x4
 1430 00cf D2000000 		.4byte	.LASF18
 1431 00d3 03       		.byte	0x3
 1432 00d4 28       		.byte	0x28
 1433 00d5 3E000000 		.4byte	0x3e
 1434 00d9 04       		.uleb128 0x4
 1435 00da D3020000 		.4byte	.LASF19
 1436 00de 03       		.byte	0x3
 1437 00df 29       		.byte	0x29
 1438 00e0 70000000 		.4byte	0x70
 1439 00e4 04       		.uleb128 0x4
 1440 00e5 A7010000 		.4byte	.LASF20
 1441 00e9 03       		.byte	0x3
 1442 00ea 2A       		.byte	0x2a
 1443 00eb 5E000000 		.4byte	0x5e
 1444 00ef 04       		.uleb128 0x4
 1445 00f0 CD010000 		.4byte	.LASF21
 1446 00f4 03       		.byte	0x3
 1447 00f5 2C       		.byte	0x2c
 1448 00f6 70000000 		.4byte	0x70
 1449 00fa 04       		.uleb128 0x4
 1450 00fb 6A030000 		.4byte	.LASF22
 1451 00ff 03       		.byte	0x3
 1452 0100 2E       		.byte	0x2e
 1453 0101 70000000 		.4byte	0x70
 1454 0105 04       		.uleb128 0x4
 1455 0106 10010000 		.4byte	.LASF23
 1456 010a 03       		.byte	0x3
 1457 010b 2F       		.byte	0x2f
 1458 010c 5E000000 		.4byte	0x5e
 1459 0110 04       		.uleb128 0x4
 1460 0111 3A030000 		.4byte	.LASF24
 1461 0115 04       		.byte	0x4
 1462 0116 23       		.byte	0x23
 1463 0117 1B010000 		.4byte	0x11b
 1464 011b 05       		.uleb128 0x5
 1465 011c 3A030000 		.4byte	.LASF24
 1466 0120 4C       		.byte	0x4c
 1467 0121 05       		.byte	0x5
 1468 0122 57       		.byte	0x57
 1469 0123 4E020000 		.4byte	0x24e
 1470 0127 06       		.uleb128 0x6
 1471 0128 2B030000 		.4byte	.LASF25
 1472 012c 05       		.byte	0x5
 1473 012d 58       		.byte	0x58
 1474 012e 73020000 		.4byte	0x273
 1475 0132 02       		.byte	0x2
ARM GAS  C:\cygwin\tmp\ccyJ3soa.s 			page 27


 1476 0133 23       		.byte	0x23
 1477 0134 00       		.uleb128 0
 1478 0135 06       		.uleb128 0x6
 1479 0136 C4020000 		.4byte	.LASF26
 1480 013a 05       		.byte	0x5
 1481 013b 5A       		.byte	0x5a
 1482 013c 73020000 		.4byte	0x273
 1483 0140 02       		.byte	0x2
 1484 0141 23       		.byte	0x23
 1485 0142 04       		.uleb128 0x4
 1486 0143 06       		.uleb128 0x6
 1487 0144 71000000 		.4byte	.LASF27
 1488 0148 05       		.byte	0x5
 1489 0149 5C       		.byte	0x5c
 1490 014a D9000000 		.4byte	0xd9
 1491 014e 02       		.byte	0x2
 1492 014f 23       		.byte	0x23
 1493 0150 08       		.uleb128 0x8
 1494 0151 06       		.uleb128 0x6
 1495 0152 0B040000 		.4byte	.LASF28
 1496 0156 05       		.byte	0x5
 1497 0157 5D       		.byte	0x5d
 1498 0158 4C030000 		.4byte	0x34c
 1499 015c 02       		.byte	0x2
 1500 015d 23       		.byte	0x23
 1501 015e 0C       		.uleb128 0xc
 1502 015f 06       		.uleb128 0x6
 1503 0160 F7000000 		.4byte	.LASF29
 1504 0164 05       		.byte	0x5
 1505 0165 5F       		.byte	0x5f
 1506 0166 73020000 		.4byte	0x273
 1507 016a 02       		.byte	0x2
 1508 016b 23       		.byte	0x23
 1509 016c 10       		.uleb128 0x10
 1510 016d 06       		.uleb128 0x6
 1511 016e 55020000 		.4byte	.LASF30
 1512 0172 05       		.byte	0x5
 1513 0173 60       		.byte	0x60
 1514 0174 73020000 		.4byte	0x273
 1515 0178 02       		.byte	0x2
 1516 0179 23       		.byte	0x23
 1517 017a 14       		.uleb128 0x14
 1518 017b 06       		.uleb128 0x6
 1519 017c EF030000 		.4byte	.LASF31
 1520 0180 05       		.byte	0x5
 1521 0181 67       		.byte	0x67
 1522 0182 9A040000 		.4byte	0x49a
 1523 0186 02       		.byte	0x2
 1524 0187 23       		.byte	0x23
 1525 0188 18       		.uleb128 0x18
 1526 0189 06       		.uleb128 0x6
 1527 018a 16010000 		.4byte	.LASF32
 1528 018e 05       		.byte	0x5
 1529 018f 6D       		.byte	0x6d
 1530 0190 AC040000 		.4byte	0x4ac
 1531 0194 02       		.byte	0x2
 1532 0195 23       		.byte	0x23
ARM GAS  C:\cygwin\tmp\ccyJ3soa.s 			page 28


 1533 0196 1C       		.uleb128 0x1c
 1534 0197 06       		.uleb128 0x6
 1535 0198 12030000 		.4byte	.LASF33
 1536 019c 05       		.byte	0x5
 1537 019d 72       		.byte	0x72
 1538 019e B8000000 		.4byte	0xb8
 1539 01a2 02       		.byte	0x2
 1540 01a3 23       		.byte	0x23
 1541 01a4 20       		.uleb128 0x20
 1542 01a5 06       		.uleb128 0x6
 1543 01a6 32030000 		.4byte	.LASF34
 1544 01aa 05       		.byte	0x5
 1545 01ab 76       		.byte	0x76
 1546 01ac AD000000 		.4byte	0xad
 1547 01b0 02       		.byte	0x2
 1548 01b1 23       		.byte	0x23
 1549 01b2 21       		.uleb128 0x21
 1550 01b3 06       		.uleb128 0x6
 1551 01b4 D9030000 		.4byte	.LASF35
 1552 01b8 05       		.byte	0x5
 1553 01b9 7B       		.byte	0x7b
 1554 01ba C3000000 		.4byte	0xc3
 1555 01be 02       		.byte	0x2
 1556 01bf 23       		.byte	0x23
 1557 01c0 22       		.uleb128 0x22
 1558 01c1 06       		.uleb128 0x6
 1559 01c2 1A030000 		.4byte	.LASF36
 1560 01c6 05       		.byte	0x5
 1561 01c7 81       		.byte	0x81
 1562 01c8 CE000000 		.4byte	0xce
 1563 01cc 02       		.byte	0x2
 1564 01cd 23       		.byte	0x23
 1565 01ce 23       		.uleb128 0x23
 1566 01cf 06       		.uleb128 0x6
 1567 01d0 86030000 		.4byte	.LASF37
 1568 01d4 05       		.byte	0x5
 1569 01d5 88       		.byte	0x88
 1570 01d6 76030000 		.4byte	0x376
 1571 01da 02       		.byte	0x2
 1572 01db 23       		.byte	0x23
 1573 01dc 24       		.uleb128 0x24
 1574 01dd 07       		.uleb128 0x7
 1575 01de 705F7500 		.ascii	"p_u\000"
 1576 01e2 05       		.byte	0x5
 1577 01e3 AD       		.byte	0xad
 1578 01e4 65040000 		.4byte	0x465
 1579 01e8 02       		.byte	0x2
 1580 01e9 23       		.byte	0x23
 1581 01ea 28       		.uleb128 0x28
 1582 01eb 06       		.uleb128 0x6
 1583 01ec 11040000 		.4byte	.LASF38
 1584 01f0 05       		.byte	0x5
 1585 01f1 B2       		.byte	0xb2
 1586 01f2 9B020000 		.4byte	0x29b
 1587 01f6 02       		.byte	0x2
 1588 01f7 23       		.byte	0x23
 1589 01f8 2C       		.uleb128 0x2c
ARM GAS  C:\cygwin\tmp\ccyJ3soa.s 			page 29


 1590 01f9 06       		.uleb128 0x6
 1591 01fa A2030000 		.4byte	.LASF39
 1592 01fe 05       		.byte	0x5
 1593 01ff B8       		.byte	0xb8
 1594 0200 79020000 		.4byte	0x279
 1595 0204 02       		.byte	0x2
 1596 0205 23       		.byte	0x23
 1597 0206 30       		.uleb128 0x30
 1598 0207 06       		.uleb128 0x6
 1599 0208 00000000 		.4byte	.LASF40
 1600 020c 05       		.byte	0x5
 1601 020d BC       		.byte	0xbc
 1602 020e E4000000 		.4byte	0xe4
 1603 0212 02       		.byte	0x2
 1604 0213 23       		.byte	0x23
 1605 0214 38       		.uleb128 0x38
 1606 0215 06       		.uleb128 0x6
 1607 0216 4A030000 		.4byte	.LASF41
 1608 021a 05       		.byte	0x5
 1609 021b C2       		.byte	0xc2
 1610 021c EF000000 		.4byte	0xef
 1611 0220 02       		.byte	0x2
 1612 0221 23       		.byte	0x23
 1613 0222 3C       		.uleb128 0x3c
 1614 0223 06       		.uleb128 0x6
 1615 0224 FE020000 		.4byte	.LASF42
 1616 0228 05       		.byte	0x5
 1617 0229 C9       		.byte	0xc9
 1618 022a B2040000 		.4byte	0x4b2
 1619 022e 02       		.byte	0x2
 1620 022f 23       		.byte	0x23
 1621 0230 40       		.uleb128 0x40
 1622 0231 06       		.uleb128 0x6
 1623 0232 74030000 		.4byte	.LASF43
 1624 0236 05       		.byte	0x5
 1625 0237 CD       		.byte	0xcd
 1626 0238 D9000000 		.4byte	0xd9
 1627 023c 02       		.byte	0x2
 1628 023d 23       		.byte	0x23
 1629 023e 44       		.uleb128 0x44
 1630 023f 06       		.uleb128 0x6
 1631 0240 AB000000 		.4byte	.LASF44
 1632 0244 05       		.byte	0x5
 1633 0245 D3       		.byte	0xd3
 1634 0246 B1020000 		.4byte	0x2b1
 1635 024a 02       		.byte	0x2
 1636 024b 23       		.byte	0x23
 1637 024c 48       		.uleb128 0x48
 1638 024d 00       		.byte	0
 1639 024e 08       		.uleb128 0x8
 1640 024f 08       		.byte	0x8
 1641 0250 04       		.byte	0x4
 1642 0251 5A       		.byte	0x5a
 1643 0252 73020000 		.4byte	0x273
 1644 0256 06       		.uleb128 0x6
 1645 0257 2B030000 		.4byte	.LASF25
 1646 025b 04       		.byte	0x4
ARM GAS  C:\cygwin\tmp\ccyJ3soa.s 			page 30


 1647 025c 5B       		.byte	0x5b
 1648 025d 73020000 		.4byte	0x273
 1649 0261 02       		.byte	0x2
 1650 0262 23       		.byte	0x23
 1651 0263 00       		.uleb128 0
 1652 0264 06       		.uleb128 0x6
 1653 0265 C4020000 		.4byte	.LASF26
 1654 0269 04       		.byte	0x4
 1655 026a 5D       		.byte	0x5d
 1656 026b 73020000 		.4byte	0x273
 1657 026f 02       		.byte	0x2
 1658 0270 23       		.byte	0x23
 1659 0271 04       		.uleb128 0x4
 1660 0272 00       		.byte	0
 1661 0273 09       		.uleb128 0x9
 1662 0274 04       		.byte	0x4
 1663 0275 10010000 		.4byte	0x110
 1664 0279 04       		.uleb128 0x4
 1665 027a 5D020000 		.4byte	.LASF45
 1666 027e 04       		.byte	0x4
 1667 027f 5F       		.byte	0x5f
 1668 0280 4E020000 		.4byte	0x24e
 1669 0284 08       		.uleb128 0x8
 1670 0285 04       		.byte	0x4
 1671 0286 04       		.byte	0x4
 1672 0287 64       		.byte	0x64
 1673 0288 9B020000 		.4byte	0x29b
 1674 028c 06       		.uleb128 0x6
 1675 028d 2B030000 		.4byte	.LASF25
 1676 0291 04       		.byte	0x4
 1677 0292 66       		.byte	0x66
 1678 0293 73020000 		.4byte	0x273
 1679 0297 02       		.byte	0x2
 1680 0298 23       		.byte	0x23
 1681 0299 00       		.uleb128 0
 1682 029a 00       		.byte	0
 1683 029b 04       		.uleb128 0x4
 1684 029c C1010000 		.4byte	.LASF46
 1685 02a0 04       		.byte	0x4
 1686 02a1 69       		.byte	0x69
 1687 02a2 84020000 		.4byte	0x284
 1688 02a6 04       		.uleb128 0x4
 1689 02a7 07010000 		.4byte	.LASF47
 1690 02ab 06       		.byte	0x6
 1691 02ac DE       		.byte	0xde
 1692 02ad B1020000 		.4byte	0x2b1
 1693 02b1 0A       		.uleb128 0xa
 1694 02b2 04       		.byte	0x4
 1695 02b3 04       		.uleb128 0x4
 1696 02b4 2E020000 		.4byte	.LASF48
 1697 02b8 06       		.byte	0x6
 1698 02b9 E4       		.byte	0xe4
 1699 02ba 89000000 		.4byte	0x89
 1700 02be 0B       		.uleb128 0xb
 1701 02bf 9B030000 		.4byte	.LASF49
 1702 02c3 24       		.byte	0x24
 1703 02c4 06       		.byte	0x6
ARM GAS  C:\cygwin\tmp\ccyJ3soa.s 			page 31


 1704 02c5 0501     		.2byte	0x105
 1705 02c7 4C030000 		.4byte	0x34c
 1706 02cb 0C       		.uleb128 0xc
 1707 02cc 723400   		.ascii	"r4\000"
 1708 02cf 06       		.byte	0x6
 1709 02d0 1801     		.2byte	0x118
 1710 02d2 A6020000 		.4byte	0x2a6
 1711 02d6 02       		.byte	0x2
 1712 02d7 23       		.byte	0x23
 1713 02d8 00       		.uleb128 0
 1714 02d9 0C       		.uleb128 0xc
 1715 02da 723500   		.ascii	"r5\000"
 1716 02dd 06       		.byte	0x6
 1717 02de 1901     		.2byte	0x119
 1718 02e0 A6020000 		.4byte	0x2a6
 1719 02e4 02       		.byte	0x2
 1720 02e5 23       		.byte	0x23
 1721 02e6 04       		.uleb128 0x4
 1722 02e7 0C       		.uleb128 0xc
 1723 02e8 723600   		.ascii	"r6\000"
 1724 02eb 06       		.byte	0x6
 1725 02ec 1A01     		.2byte	0x11a
 1726 02ee A6020000 		.4byte	0x2a6
 1727 02f2 02       		.byte	0x2
 1728 02f3 23       		.byte	0x23
 1729 02f4 08       		.uleb128 0x8
 1730 02f5 0C       		.uleb128 0xc
 1731 02f6 723700   		.ascii	"r7\000"
 1732 02f9 06       		.byte	0x6
 1733 02fa 1B01     		.2byte	0x11b
 1734 02fc A6020000 		.4byte	0x2a6
 1735 0300 02       		.byte	0x2
 1736 0301 23       		.byte	0x23
 1737 0302 0C       		.uleb128 0xc
 1738 0303 0C       		.uleb128 0xc
 1739 0304 723800   		.ascii	"r8\000"
 1740 0307 06       		.byte	0x6
 1741 0308 1C01     		.2byte	0x11c
 1742 030a A6020000 		.4byte	0x2a6
 1743 030e 02       		.byte	0x2
 1744 030f 23       		.byte	0x23
 1745 0310 10       		.uleb128 0x10
 1746 0311 0C       		.uleb128 0xc
 1747 0312 723900   		.ascii	"r9\000"
 1748 0315 06       		.byte	0x6
 1749 0316 1D01     		.2byte	0x11d
 1750 0318 A6020000 		.4byte	0x2a6
 1751 031c 02       		.byte	0x2
 1752 031d 23       		.byte	0x23
 1753 031e 14       		.uleb128 0x14
 1754 031f 0C       		.uleb128 0xc
 1755 0320 72313000 		.ascii	"r10\000"
 1756 0324 06       		.byte	0x6
 1757 0325 1E01     		.2byte	0x11e
 1758 0327 A6020000 		.4byte	0x2a6
 1759 032b 02       		.byte	0x2
 1760 032c 23       		.byte	0x23
ARM GAS  C:\cygwin\tmp\ccyJ3soa.s 			page 32


 1761 032d 18       		.uleb128 0x18
 1762 032e 0C       		.uleb128 0xc
 1763 032f 72313100 		.ascii	"r11\000"
 1764 0333 06       		.byte	0x6
 1765 0334 1F01     		.2byte	0x11f
 1766 0336 A6020000 		.4byte	0x2a6
 1767 033a 02       		.byte	0x2
 1768 033b 23       		.byte	0x23
 1769 033c 1C       		.uleb128 0x1c
 1770 033d 0C       		.uleb128 0xc
 1771 033e 6C7200   		.ascii	"lr\000"
 1772 0341 06       		.byte	0x6
 1773 0342 2001     		.2byte	0x120
 1774 0344 A6020000 		.4byte	0x2a6
 1775 0348 02       		.byte	0x2
 1776 0349 23       		.byte	0x23
 1777 034a 20       		.uleb128 0x20
 1778 034b 00       		.byte	0
 1779 034c 0B       		.uleb128 0xb
 1780 034d 81010000 		.4byte	.LASF50
 1781 0351 04       		.byte	0x4
 1782 0352 06       		.byte	0x6
 1783 0353 2A01     		.2byte	0x12a
 1784 0355 69030000 		.4byte	0x369
 1785 0359 0C       		.uleb128 0xc
 1786 035a 72313300 		.ascii	"r13\000"
 1787 035e 06       		.byte	0x6
 1788 035f 2B01     		.2byte	0x12b
 1789 0361 69030000 		.4byte	0x369
 1790 0365 02       		.byte	0x2
 1791 0366 23       		.byte	0x23
 1792 0367 00       		.uleb128 0
 1793 0368 00       		.byte	0
 1794 0369 09       		.uleb128 0x9
 1795 036a 04       		.byte	0x4
 1796 036b BE020000 		.4byte	0x2be
 1797 036f 03       		.uleb128 0x3
 1798 0370 04       		.byte	0x4
 1799 0371 07       		.byte	0x7
 1800 0372 39020000 		.4byte	.LASF51
 1801 0376 0D       		.uleb128 0xd
 1802 0377 FA000000 		.4byte	0xfa
 1803 037b 05       		.uleb128 0x5
 1804 037c B7030000 		.4byte	.LASF52
 1805 0380 0C       		.byte	0xc
 1806 0381 07       		.byte	0x7
 1807 0382 25       		.byte	0x25
 1808 0383 A4030000 		.4byte	0x3a4
 1809 0387 06       		.uleb128 0x6
 1810 0388 FF000000 		.4byte	.LASF53
 1811 038c 07       		.byte	0x7
 1812 038d 26       		.byte	0x26
 1813 038e 79020000 		.4byte	0x279
 1814 0392 02       		.byte	0x2
 1815 0393 23       		.byte	0x23
 1816 0394 00       		.uleb128 0
 1817 0395 06       		.uleb128 0x6
ARM GAS  C:\cygwin\tmp\ccyJ3soa.s 			page 33


 1818 0396 7B010000 		.4byte	.LASF54
 1819 039a 07       		.byte	0x7
 1820 039b 28       		.byte	0x28
 1821 039c 05010000 		.4byte	0x105
 1822 03a0 02       		.byte	0x2
 1823 03a1 23       		.byte	0x23
 1824 03a2 08       		.uleb128 0x8
 1825 03a3 00       		.byte	0
 1826 03a4 04       		.uleb128 0x4
 1827 03a5 B7030000 		.4byte	.LASF52
 1828 03a9 07       		.byte	0x7
 1829 03aa 29       		.byte	0x29
 1830 03ab 7B030000 		.4byte	0x37b
 1831 03af 05       		.uleb128 0x5
 1832 03b0 D9010000 		.4byte	.LASF55
 1833 03b4 10       		.byte	0x10
 1834 03b5 08       		.byte	0x8
 1835 03b6 25       		.byte	0x25
 1836 03b7 E6030000 		.4byte	0x3e6
 1837 03bb 06       		.uleb128 0x6
 1838 03bc BA000000 		.4byte	.LASF56
 1839 03c0 08       		.byte	0x8
 1840 03c1 26       		.byte	0x26
 1841 03c2 79020000 		.4byte	0x279
 1842 03c6 02       		.byte	0x2
 1843 03c7 23       		.byte	0x23
 1844 03c8 00       		.uleb128 0
 1845 03c9 06       		.uleb128 0x6
 1846 03ca 03040000 		.4byte	.LASF57
 1847 03ce 08       		.byte	0x8
 1848 03cf 28       		.byte	0x28
 1849 03d0 73020000 		.4byte	0x273
 1850 03d4 02       		.byte	0x2
 1851 03d5 23       		.byte	0x23
 1852 03d6 08       		.uleb128 0x8
 1853 03d7 06       		.uleb128 0x6
 1854 03d8 63030000 		.4byte	.LASF58
 1855 03dc 08       		.byte	0x8
 1856 03dd 2A       		.byte	0x2a
 1857 03de E6030000 		.4byte	0x3e6
 1858 03e2 02       		.byte	0x2
 1859 03e3 23       		.byte	0x23
 1860 03e4 0C       		.uleb128 0xc
 1861 03e5 00       		.byte	0
 1862 03e6 09       		.uleb128 0x9
 1863 03e7 04       		.byte	0x4
 1864 03e8 AF030000 		.4byte	0x3af
 1865 03ec 04       		.uleb128 0x4
 1866 03ed D9010000 		.4byte	.LASF55
 1867 03f1 08       		.byte	0x8
 1868 03f2 2C       		.byte	0x2c
 1869 03f3 AF030000 		.4byte	0x3af
 1870 03f7 08       		.uleb128 0x8
 1871 03f8 28       		.byte	0x28
 1872 03f9 09       		.byte	0x9
 1873 03fa 2C       		.byte	0x2c
 1874 03fb 54040000 		.4byte	0x454
ARM GAS  C:\cygwin\tmp\ccyJ3soa.s 			page 34


 1875 03ff 06       		.uleb128 0x6
 1876 0400 86020000 		.4byte	.LASF59
 1877 0404 09       		.byte	0x9
 1878 0405 2D       		.byte	0x2d
 1879 0406 54040000 		.4byte	0x454
 1880 040a 02       		.byte	0x2
 1881 040b 23       		.byte	0x23
 1882 040c 00       		.uleb128 0
 1883 040d 06       		.uleb128 0x6
 1884 040e F7020000 		.4byte	.LASF60
 1885 0412 09       		.byte	0x9
 1886 0413 2F       		.byte	0x2f
 1887 0414 54040000 		.4byte	0x454
 1888 0418 02       		.byte	0x2
 1889 0419 23       		.byte	0x23
 1890 041a 04       		.uleb128 0x4
 1891 041b 06       		.uleb128 0x6
 1892 041c 68000000 		.4byte	.LASF61
 1893 0420 09       		.byte	0x9
 1894 0421 31       		.byte	0x31
 1895 0422 54040000 		.4byte	0x454
 1896 0426 02       		.byte	0x2
 1897 0427 23       		.byte	0x23
 1898 0428 08       		.uleb128 0x8
 1899 0429 06       		.uleb128 0x6
 1900 042a 42020000 		.4byte	.LASF62
 1901 042e 09       		.byte	0x9
 1902 042f 32       		.byte	0x32
 1903 0430 54040000 		.4byte	0x454
 1904 0434 02       		.byte	0x2
 1905 0435 23       		.byte	0x23
 1906 0436 0C       		.uleb128 0xc
 1907 0437 06       		.uleb128 0x6
 1908 0438 C1030000 		.4byte	.LASF63
 1909 043c 09       		.byte	0x9
 1910 043d 33       		.byte	0x33
 1911 043e A4030000 		.4byte	0x3a4
 1912 0442 02       		.byte	0x2
 1913 0443 23       		.byte	0x23
 1914 0444 10       		.uleb128 0x10
 1915 0445 06       		.uleb128 0x6
 1916 0446 6A010000 		.4byte	.LASF64
 1917 044a 09       		.byte	0x9
 1918 044b 35       		.byte	0x35
 1919 044c A4030000 		.4byte	0x3a4
 1920 0450 02       		.byte	0x2
 1921 0451 23       		.byte	0x23
 1922 0452 1C       		.uleb128 0x1c
 1923 0453 00       		.byte	0
 1924 0454 09       		.uleb128 0x9
 1925 0455 04       		.byte	0x4
 1926 0456 E4000000 		.4byte	0xe4
 1927 045a 04       		.uleb128 0x4
 1928 045b 20000000 		.4byte	.LASF65
 1929 045f 09       		.byte	0x9
 1930 0460 37       		.byte	0x37
 1931 0461 F7030000 		.4byte	0x3f7
ARM GAS  C:\cygwin\tmp\ccyJ3soa.s 			page 35


 1932 0465 0E       		.uleb128 0xe
 1933 0466 04       		.byte	0x4
 1934 0467 05       		.byte	0x5
 1935 0468 8F       		.byte	0x8f
 1936 0469 9A040000 		.4byte	0x49a
 1937 046d 0F       		.uleb128 0xf
 1938 046e 06000000 		.4byte	.LASF66
 1939 0472 05       		.byte	0x5
 1940 0473 96       		.byte	0x96
 1941 0474 E4000000 		.4byte	0xe4
 1942 0478 0F       		.uleb128 0xf
 1943 0479 5A000000 		.4byte	.LASF67
 1944 047d 05       		.byte	0x5
 1945 047e 9D       		.byte	0x9d
 1946 047f E4000000 		.4byte	0xe4
 1947 0483 0F       		.uleb128 0xf
 1948 0484 E8030000 		.4byte	.LASF68
 1949 0488 05       		.byte	0x5
 1950 0489 A4       		.byte	0xa4
 1951 048a B1020000 		.4byte	0x2b1
 1952 048e 0F       		.uleb128 0xf
 1953 048f 24030000 		.4byte	.LASF69
 1954 0493 05       		.byte	0x5
 1955 0494 AB       		.byte	0xab
 1956 0495 EF000000 		.4byte	0xef
 1957 0499 00       		.byte	0
 1958 049a 09       		.uleb128 0x9
 1959 049b 04       		.byte	0x4
 1960 049c A0040000 		.4byte	0x4a0
 1961 04a0 10       		.uleb128 0x10
 1962 04a1 A5040000 		.4byte	0x4a5
 1963 04a5 03       		.uleb128 0x3
 1964 04a6 01       		.byte	0x1
 1965 04a7 08       		.byte	0x8
 1966 04a8 5E030000 		.4byte	.LASF70
 1967 04ac 09       		.uleb128 0x9
 1968 04ad 04       		.byte	0x4
 1969 04ae B3020000 		.4byte	0x2b3
 1970 04b2 09       		.uleb128 0x9
 1971 04b3 04       		.byte	0x4
 1972 04b4 EC030000 		.4byte	0x3ec
 1973 04b8 05       		.uleb128 0x5
 1974 04b9 41030000 		.4byte	.LASF71
 1975 04bd 10       		.byte	0x10
 1976 04be 0A       		.byte	0xa
 1977 04bf 3F       		.byte	0x3f
 1978 04c0 FD040000 		.4byte	0x4fd
 1979 04c4 06       		.uleb128 0x6
 1980 04c5 76010000 		.4byte	.LASF72
 1981 04c9 0A       		.byte	0xa
 1982 04ca 40       		.byte	0x40
 1983 04cb 9A040000 		.4byte	0x49a
 1984 04cf 02       		.byte	0x2
 1985 04d0 23       		.byte	0x23
 1986 04d1 00       		.uleb128 0
 1987 04d2 06       		.uleb128 0x6
 1988 04d3 6A020000 		.4byte	.LASF73
ARM GAS  C:\cygwin\tmp\ccyJ3soa.s 			page 36


 1989 04d7 0A       		.byte	0xa
 1990 04d8 41       		.byte	0x41
 1991 04d9 FF040000 		.4byte	0x4ff
 1992 04dd 02       		.byte	0x2
 1993 04de 23       		.byte	0x23
 1994 04df 04       		.uleb128 0x4
 1995 04e0 06       		.uleb128 0x6
 1996 04e1 61010000 		.4byte	.LASF74
 1997 04e5 0A       		.byte	0xa
 1998 04e6 42       		.byte	0x42
 1999 04e7 FF040000 		.4byte	0x4ff
 2000 04eb 02       		.byte	0x2
 2001 04ec 23       		.byte	0x23
 2002 04ed 08       		.uleb128 0x8
 2003 04ee 06       		.uleb128 0x6
 2004 04ef CB020000 		.4byte	.LASF75
 2005 04f3 0A       		.byte	0xa
 2006 04f4 43       		.byte	0x43
 2007 04f5 FF040000 		.4byte	0x4ff
 2008 04f9 02       		.byte	0x2
 2009 04fa 23       		.byte	0x23
 2010 04fb 0C       		.uleb128 0xc
 2011 04fc 00       		.byte	0
 2012 04fd 11       		.uleb128 0x11
 2013 04fe 01       		.byte	0x1
 2014 04ff 09       		.uleb128 0x9
 2015 0500 04       		.byte	0x4
 2016 0501 FD040000 		.4byte	0x4fd
 2017 0505 12       		.uleb128 0x12
 2018 0506 F005     		.2byte	0x5f0
 2019 0508 0A       		.byte	0xa
 2020 0509 48       		.byte	0x48
 2021 050a 54050000 		.4byte	0x554
 2022 050e 07       		.uleb128 0x7
 2023 050f 543000   		.ascii	"T0\000"
 2024 0512 0A       		.byte	0xa
 2025 0513 49       		.byte	0x49
 2026 0514 54050000 		.4byte	0x554
 2027 0518 02       		.byte	0x2
 2028 0519 23       		.byte	0x23
 2029 051a 00       		.uleb128 0
 2030 051b 07       		.uleb128 0x7
 2031 051c 543100   		.ascii	"T1\000"
 2032 051f 0A       		.byte	0xa
 2033 0520 4A       		.byte	0x4a
 2034 0521 54050000 		.4byte	0x554
 2035 0525 03       		.byte	0x3
 2036 0526 23       		.byte	0x23
 2037 0527 B002     		.uleb128 0x130
 2038 0529 07       		.uleb128 0x7
 2039 052a 543200   		.ascii	"T2\000"
 2040 052d 0A       		.byte	0xa
 2041 052e 4B       		.byte	0x4b
 2042 052f 54050000 		.4byte	0x554
 2043 0533 03       		.byte	0x3
 2044 0534 23       		.byte	0x23
 2045 0535 E004     		.uleb128 0x260
ARM GAS  C:\cygwin\tmp\ccyJ3soa.s 			page 37


 2046 0537 07       		.uleb128 0x7
 2047 0538 543300   		.ascii	"T3\000"
 2048 053b 0A       		.byte	0xa
 2049 053c 4C       		.byte	0x4c
 2050 053d 54050000 		.4byte	0x554
 2051 0541 03       		.byte	0x3
 2052 0542 23       		.byte	0x23
 2053 0543 9007     		.uleb128 0x390
 2054 0545 07       		.uleb128 0x7
 2055 0546 543400   		.ascii	"T4\000"
 2056 0549 0A       		.byte	0xa
 2057 054a 4D       		.byte	0x4d
 2058 054b 54050000 		.4byte	0x554
 2059 054f 03       		.byte	0x3
 2060 0550 23       		.byte	0x23
 2061 0551 C009     		.uleb128 0x4c0
 2062 0553 00       		.byte	0
 2063 0554 13       		.uleb128 0x13
 2064 0555 B3020000 		.4byte	0x2b3
 2065 0559 64050000 		.4byte	0x564
 2066 055d 14       		.uleb128 0x14
 2067 055e 6F030000 		.4byte	0x36f
 2068 0562 25       		.byte	0x25
 2069 0563 00       		.byte	0
 2070 0564 15       		.uleb128 0x15
 2071 0565 CC030000 		.4byte	.LASF98
 2072 0569 F005     		.2byte	0x5f0
 2073 056b 0A       		.byte	0xa
 2074 056c 47       		.byte	0x47
 2075 056d 87050000 		.4byte	0x587
 2076 0571 16       		.uleb128 0x16
 2077 0572 776100   		.ascii	"wa\000"
 2078 0575 0A       		.byte	0xa
 2079 0576 4E       		.byte	0x4e
 2080 0577 05050000 		.4byte	0x505
 2081 057b 0F       		.uleb128 0xf
 2082 057c 7F030000 		.4byte	.LASF76
 2083 0580 0A       		.byte	0xa
 2084 0581 4F       		.byte	0x4f
 2085 0582 87050000 		.4byte	0x587
 2086 0586 00       		.byte	0
 2087 0587 13       		.uleb128 0x13
 2088 0588 3E000000 		.4byte	0x3e
 2089 058c 98050000 		.4byte	0x598
 2090 0590 17       		.uleb128 0x17
 2091 0591 6F030000 		.4byte	0x36f
 2092 0595 EF05     		.2byte	0x5ef
 2093 0597 00       		.byte	0
 2094 0598 18       		.uleb128 0x18
 2095 0599 53010000 		.4byte	.LASF78
 2096 059d 01       		.byte	0x1
 2097 059e 50       		.byte	0x50
 2098 059f 01       		.byte	0x1
 2099 05a0 00000000 		.4byte	.LFB8
 2100 05a4 DC060000 		.4byte	.LFE8
 2101 05a8 00000000 		.4byte	.LLST0
 2102 05ac 01       		.byte	0x1
ARM GAS  C:\cygwin\tmp\ccyJ3soa.s 			page 38


 2103 05ad 2E130000 		.4byte	0x132e
 2104 05b1 19       		.uleb128 0x19
 2105 05b2 37010000 		.4byte	.LASF77
 2106 05b6 01       		.byte	0x1
 2107 05b7 51       		.byte	0x51
 2108 05b8 E4000000 		.4byte	0xe4
 2109 05bc 2C000000 		.4byte	.LLST1
 2110 05c0 1A       		.uleb128 0x1a
 2111 05c1 3C010000 		.4byte	.LASF99
 2112 05c5 01       		.byte	0x1
 2113 05c6 51       		.byte	0x51
 2114 05c7 E4000000 		.4byte	0xe4
 2115 05cb 1B       		.uleb128 0x1b
 2116 05cc 6900     		.ascii	"i\000"
 2117 05ce 01       		.byte	0x1
 2118 05cf 52       		.byte	0x52
 2119 05d0 30000000 		.4byte	0x30
 2120 05d4 B0010000 		.4byte	.LLST2
 2121 05d8 1C       		.uleb128 0x1c
 2122 05d9 7E000000 		.4byte	.LBB2
 2123 05dd 84000000 		.4byte	.LBE2
 2124 05e1 F5050000 		.4byte	0x5f5
 2125 05e5 1B       		.uleb128 0x1b
 2126 05e6 746D7000 		.ascii	"tmp\000"
 2127 05ea 01       		.byte	0x1
 2128 05eb 68       		.byte	0x68
 2129 05ec 70000000 		.4byte	0x70
 2130 05f0 C4010000 		.4byte	.LLST3
 2131 05f4 00       		.byte	0
 2132 05f5 1C       		.uleb128 0x1c
 2133 05f6 96000000 		.4byte	.LBB3
 2134 05fa 9C000000 		.4byte	.LBE3
 2135 05fe 12060000 		.4byte	0x612
 2136 0602 1B       		.uleb128 0x1b
 2137 0603 746D7000 		.ascii	"tmp\000"
 2138 0607 01       		.byte	0x1
 2139 0608 6A       		.byte	0x6a
 2140 0609 70000000 		.4byte	0x70
 2141 060d D7010000 		.4byte	.LLST4
 2142 0611 00       		.byte	0
 2143 0612 1C       		.uleb128 0x1c
 2144 0613 D0000000 		.4byte	.LBB4
 2145 0617 D6000000 		.4byte	.LBE4
 2146 061b 2F060000 		.4byte	0x62f
 2147 061f 1B       		.uleb128 0x1b
 2148 0620 746D7000 		.ascii	"tmp\000"
 2149 0624 01       		.byte	0x1
 2150 0625 6E       		.byte	0x6e
 2151 0626 70000000 		.4byte	0x70
 2152 062a EA010000 		.4byte	.LLST5
 2153 062e 00       		.byte	0
 2154 062f 1C       		.uleb128 0x1c
 2155 0630 E8000000 		.4byte	.LBB5
 2156 0634 EE000000 		.4byte	.LBE5
 2157 0638 4C060000 		.4byte	0x64c
 2158 063c 1B       		.uleb128 0x1b
 2159 063d 746D7000 		.ascii	"tmp\000"
ARM GAS  C:\cygwin\tmp\ccyJ3soa.s 			page 39


 2160 0641 01       		.byte	0x1
 2161 0642 70       		.byte	0x70
 2162 0643 70000000 		.4byte	0x70
 2163 0647 FD010000 		.4byte	.LLST6
 2164 064b 00       		.byte	0
 2165 064c 1C       		.uleb128 0x1c
 2166 064d 02010000 		.4byte	.LBB6
 2167 0651 08010000 		.4byte	.LBE6
 2168 0655 69060000 		.4byte	0x669
 2169 0659 1B       		.uleb128 0x1b
 2170 065a 746D7000 		.ascii	"tmp\000"
 2171 065e 01       		.byte	0x1
 2172 065f 76       		.byte	0x76
 2173 0660 70000000 		.4byte	0x70
 2174 0664 10020000 		.4byte	.LLST7
 2175 0668 00       		.byte	0
 2176 0669 1C       		.uleb128 0x1c
 2177 066a 24010000 		.4byte	.LBB7
 2178 066e 30010000 		.4byte	.LBE7
 2179 0672 86060000 		.4byte	0x686
 2180 0676 1B       		.uleb128 0x1b
 2181 0677 746D7000 		.ascii	"tmp\000"
 2182 067b 01       		.byte	0x1
 2183 067c 76       		.byte	0x76
 2184 067d 70000000 		.4byte	0x70
 2185 0681 23020000 		.4byte	.LLST8
 2186 0685 00       		.byte	0
 2187 0686 1C       		.uleb128 0x1c
 2188 0687 34010000 		.4byte	.LBB8
 2189 068b 3A010000 		.4byte	.LBE8
 2190 068f A3060000 		.4byte	0x6a3
 2191 0693 1B       		.uleb128 0x1b
 2192 0694 746D7000 		.ascii	"tmp\000"
 2193 0698 01       		.byte	0x1
 2194 0699 76       		.byte	0x76
 2195 069a 70000000 		.4byte	0x70
 2196 069e 41020000 		.4byte	.LLST9
 2197 06a2 00       		.byte	0
 2198 06a3 1C       		.uleb128 0x1c
 2199 06a4 3A010000 		.4byte	.LBB9
 2200 06a8 40010000 		.4byte	.LBE9
 2201 06ac C0060000 		.4byte	0x6c0
 2202 06b0 1B       		.uleb128 0x1b
 2203 06b1 746D7000 		.ascii	"tmp\000"
 2204 06b5 01       		.byte	0x1
 2205 06b6 77       		.byte	0x77
 2206 06b7 70000000 		.4byte	0x70
 2207 06bb 54020000 		.4byte	.LLST10
 2208 06bf 00       		.byte	0
 2209 06c0 1C       		.uleb128 0x1c
 2210 06c1 64010000 		.4byte	.LBB10
 2211 06c5 6A010000 		.4byte	.LBE10
 2212 06c9 DD060000 		.4byte	0x6dd
 2213 06cd 1B       		.uleb128 0x1b
 2214 06ce 746D7000 		.ascii	"tmp\000"
 2215 06d2 01       		.byte	0x1
 2216 06d3 77       		.byte	0x77
ARM GAS  C:\cygwin\tmp\ccyJ3soa.s 			page 40


 2217 06d4 70000000 		.4byte	0x70
 2218 06d8 67020000 		.4byte	.LLST11
 2219 06dc 00       		.byte	0
 2220 06dd 1C       		.uleb128 0x1c
 2221 06de 6A010000 		.4byte	.LBB11
 2222 06e2 70010000 		.4byte	.LBE11
 2223 06e6 FA060000 		.4byte	0x6fa
 2224 06ea 1B       		.uleb128 0x1b
 2225 06eb 746D7000 		.ascii	"tmp\000"
 2226 06ef 01       		.byte	0x1
 2227 06f0 78       		.byte	0x78
 2228 06f1 70000000 		.4byte	0x70
 2229 06f5 7A020000 		.4byte	.LLST12
 2230 06f9 00       		.byte	0
 2231 06fa 1C       		.uleb128 0x1c
 2232 06fb 94010000 		.4byte	.LBB12
 2233 06ff 9C010000 		.4byte	.LBE12
 2234 0703 17070000 		.4byte	0x717
 2235 0707 1B       		.uleb128 0x1b
 2236 0708 746D7000 		.ascii	"tmp\000"
 2237 070c 01       		.byte	0x1
 2238 070d 78       		.byte	0x78
 2239 070e 70000000 		.4byte	0x70
 2240 0712 8D020000 		.4byte	.LLST13
 2241 0716 00       		.byte	0
 2242 0717 1C       		.uleb128 0x1c
 2243 0718 66020000 		.4byte	.LBB13
 2244 071c 6C020000 		.4byte	.LBE13
 2245 0720 34070000 		.4byte	0x734
 2246 0724 1B       		.uleb128 0x1b
 2247 0725 746D7000 		.ascii	"tmp\000"
 2248 0729 01       		.byte	0x1
 2249 072a 93       		.byte	0x93
 2250 072b 70000000 		.4byte	0x70
 2251 072f A0020000 		.4byte	.LLST14
 2252 0733 00       		.byte	0
 2253 0734 1C       		.uleb128 0x1c
 2254 0735 7E020000 		.4byte	.LBB14
 2255 0739 84020000 		.4byte	.LBE14
 2256 073d 51070000 		.4byte	0x751
 2257 0741 1B       		.uleb128 0x1b
 2258 0742 746D7000 		.ascii	"tmp\000"
 2259 0746 01       		.byte	0x1
 2260 0747 95       		.byte	0x95
 2261 0748 70000000 		.4byte	0x70
 2262 074c B3020000 		.4byte	.LLST15
 2263 0750 00       		.byte	0
 2264 0751 1C       		.uleb128 0x1c
 2265 0752 9C020000 		.4byte	.LBB15
 2266 0756 A2020000 		.4byte	.LBE15
 2267 075a 6E070000 		.4byte	0x76e
 2268 075e 1B       		.uleb128 0x1b
 2269 075f 746D7000 		.ascii	"tmp\000"
 2270 0763 01       		.byte	0x1
 2271 0764 9B       		.byte	0x9b
 2272 0765 70000000 		.4byte	0x70
 2273 0769 C6020000 		.4byte	.LLST16
ARM GAS  C:\cygwin\tmp\ccyJ3soa.s 			page 41


 2274 076d 00       		.byte	0
 2275 076e 1C       		.uleb128 0x1c
 2276 076f BE020000 		.4byte	.LBB16
 2277 0773 C4020000 		.4byte	.LBE16
 2278 0777 8B070000 		.4byte	0x78b
 2279 077b 1B       		.uleb128 0x1b
 2280 077c 746D7000 		.ascii	"tmp\000"
 2281 0780 01       		.byte	0x1
 2282 0781 9B       		.byte	0x9b
 2283 0782 70000000 		.4byte	0x70
 2284 0786 D9020000 		.4byte	.LLST17
 2285 078a 00       		.byte	0
 2286 078b 1C       		.uleb128 0x1c
 2287 078c C4020000 		.4byte	.LBB17
 2288 0790 CA020000 		.4byte	.LBE17
 2289 0794 A8070000 		.4byte	0x7a8
 2290 0798 1B       		.uleb128 0x1b
 2291 0799 746D7000 		.ascii	"tmp\000"
 2292 079d 01       		.byte	0x1
 2293 079e 9C       		.byte	0x9c
 2294 079f 70000000 		.4byte	0x70
 2295 07a3 EC020000 		.4byte	.LLST18
 2296 07a7 00       		.byte	0
 2297 07a8 1C       		.uleb128 0x1c
 2298 07a9 EC020000 		.4byte	.LBB18
 2299 07ad F2020000 		.4byte	.LBE18
 2300 07b1 C5070000 		.4byte	0x7c5
 2301 07b5 1B       		.uleb128 0x1b
 2302 07b6 746D7000 		.ascii	"tmp\000"
 2303 07ba 01       		.byte	0x1
 2304 07bb 9C       		.byte	0x9c
 2305 07bc 70000000 		.4byte	0x70
 2306 07c0 FF020000 		.4byte	.LLST19
 2307 07c4 00       		.byte	0
 2308 07c5 1C       		.uleb128 0x1c
 2309 07c6 F2020000 		.4byte	.LBB19
 2310 07ca F8020000 		.4byte	.LBE19
 2311 07ce E2070000 		.4byte	0x7e2
 2312 07d2 1B       		.uleb128 0x1b
 2313 07d3 746D7000 		.ascii	"tmp\000"
 2314 07d7 01       		.byte	0x1
 2315 07d8 9D       		.byte	0x9d
 2316 07d9 70000000 		.4byte	0x70
 2317 07dd 12030000 		.4byte	.LLST20
 2318 07e1 00       		.byte	0
 2319 07e2 1C       		.uleb128 0x1c
 2320 07e3 18030000 		.4byte	.LBB20
 2321 07e7 1E030000 		.4byte	.LBE20
 2322 07eb FF070000 		.4byte	0x7ff
 2323 07ef 1B       		.uleb128 0x1b
 2324 07f0 746D7000 		.ascii	"tmp\000"
 2325 07f4 01       		.byte	0x1
 2326 07f5 9D       		.byte	0x9d
 2327 07f6 70000000 		.4byte	0x70
 2328 07fa 25030000 		.4byte	.LLST21
 2329 07fe 00       		.byte	0
 2330 07ff 1C       		.uleb128 0x1c
ARM GAS  C:\cygwin\tmp\ccyJ3soa.s 			page 42


 2331 0800 1E030000 		.4byte	.LBB21
 2332 0804 24030000 		.4byte	.LBE21
 2333 0808 1C080000 		.4byte	0x81c
 2334 080c 1B       		.uleb128 0x1b
 2335 080d 746D7000 		.ascii	"tmp\000"
 2336 0811 01       		.byte	0x1
 2337 0812 A2       		.byte	0xa2
 2338 0813 70000000 		.4byte	0x70
 2339 0817 38030000 		.4byte	.LLST22
 2340 081b 00       		.byte	0
 2341 081c 1C       		.uleb128 0x1c
 2342 081d A8030000 		.4byte	.LBB22
 2343 0821 AE030000 		.4byte	.LBE22
 2344 0825 39080000 		.4byte	0x839
 2345 0829 1B       		.uleb128 0x1b
 2346 082a 746D7000 		.ascii	"tmp\000"
 2347 082e 01       		.byte	0x1
 2348 082f AC       		.byte	0xac
 2349 0830 70000000 		.4byte	0x70
 2350 0834 4B030000 		.4byte	.LLST23
 2351 0838 00       		.byte	0
 2352 0839 1C       		.uleb128 0x1c
 2353 083a E0030000 		.4byte	.LBB23
 2354 083e E6030000 		.4byte	.LBE23
 2355 0842 56080000 		.4byte	0x856
 2356 0846 1B       		.uleb128 0x1b
 2357 0847 746D7000 		.ascii	"tmp\000"
 2358 084b 01       		.byte	0x1
 2359 084c B0       		.byte	0xb0
 2360 084d 70000000 		.4byte	0x70
 2361 0851 5E030000 		.4byte	.LLST24
 2362 0855 00       		.byte	0
 2363 0856 1C       		.uleb128 0x1c
 2364 0857 FA030000 		.4byte	.LBB24
 2365 085b 00040000 		.4byte	.LBE24
 2366 085f 73080000 		.4byte	0x873
 2367 0863 1B       		.uleb128 0x1b
 2368 0864 746D7000 		.ascii	"tmp\000"
 2369 0868 01       		.byte	0x1
 2370 0869 B2       		.byte	0xb2
 2371 086a 70000000 		.4byte	0x70
 2372 086e 71030000 		.4byte	.LLST25
 2373 0872 00       		.byte	0
 2374 0873 1C       		.uleb128 0x1c
 2375 0874 32040000 		.4byte	.LBB25
 2376 0878 38040000 		.4byte	.LBE25
 2377 087c 90080000 		.4byte	0x890
 2378 0880 1B       		.uleb128 0x1b
 2379 0881 746D7000 		.ascii	"tmp\000"
 2380 0885 01       		.byte	0x1
 2381 0886 B7       		.byte	0xb7
 2382 0887 70000000 		.4byte	0x70
 2383 088b 84030000 		.4byte	.LLST26
 2384 088f 00       		.byte	0
 2385 0890 1C       		.uleb128 0x1c
 2386 0891 50040000 		.4byte	.LBB26
 2387 0895 56040000 		.4byte	.LBE26
ARM GAS  C:\cygwin\tmp\ccyJ3soa.s 			page 43


 2388 0899 AD080000 		.4byte	0x8ad
 2389 089d 1B       		.uleb128 0x1b
 2390 089e 746D7000 		.ascii	"tmp\000"
 2391 08a2 01       		.byte	0x1
 2392 08a3 B7       		.byte	0xb7
 2393 08a4 70000000 		.4byte	0x70
 2394 08a8 97030000 		.4byte	.LLST27
 2395 08ac 00       		.byte	0
 2396 08ad 1C       		.uleb128 0x1c
 2397 08ae 56040000 		.4byte	.LBB27
 2398 08b2 5C040000 		.4byte	.LBE27
 2399 08b6 CA080000 		.4byte	0x8ca
 2400 08ba 1B       		.uleb128 0x1b
 2401 08bb 746D7000 		.ascii	"tmp\000"
 2402 08bf 01       		.byte	0x1
 2403 08c0 B8       		.byte	0xb8
 2404 08c1 70000000 		.4byte	0x70
 2405 08c5 AA030000 		.4byte	.LLST28
 2406 08c9 00       		.byte	0
 2407 08ca 1C       		.uleb128 0x1c
 2408 08cb 76040000 		.4byte	.LBB28
 2409 08cf 88040000 		.4byte	.LBE28
 2410 08d3 E7080000 		.4byte	0x8e7
 2411 08d7 1B       		.uleb128 0x1b
 2412 08d8 746D7000 		.ascii	"tmp\000"
 2413 08dc 01       		.byte	0x1
 2414 08dd B8       		.byte	0xb8
 2415 08de 70000000 		.4byte	0x70
 2416 08e2 BD030000 		.4byte	.LLST29
 2417 08e6 00       		.byte	0
 2418 08e7 1C       		.uleb128 0x1c
 2419 08e8 8C040000 		.4byte	.LBB29
 2420 08ec 92040000 		.4byte	.LBE29
 2421 08f0 04090000 		.4byte	0x904
 2422 08f4 1B       		.uleb128 0x1b
 2423 08f5 746D7000 		.ascii	"tmp\000"
 2424 08f9 01       		.byte	0x1
 2425 08fa B8       		.byte	0xb8
 2426 08fb 70000000 		.4byte	0x70
 2427 08ff DB030000 		.4byte	.LLST30
 2428 0903 00       		.byte	0
 2429 0904 1C       		.uleb128 0x1c
 2430 0905 A8040000 		.4byte	.LBB30
 2431 0909 AE040000 		.4byte	.LBE30
 2432 090d 21090000 		.4byte	0x921
 2433 0911 1B       		.uleb128 0x1b
 2434 0912 746D7000 		.ascii	"tmp\000"
 2435 0916 01       		.byte	0x1
 2436 0917 BB       		.byte	0xbb
 2437 0918 70000000 		.4byte	0x70
 2438 091c EE030000 		.4byte	.LLST31
 2439 0920 00       		.byte	0
 2440 0921 1C       		.uleb128 0x1c
 2441 0922 32050000 		.4byte	.LBB31
 2442 0926 38050000 		.4byte	.LBE31
 2443 092a 3E090000 		.4byte	0x93e
 2444 092e 1B       		.uleb128 0x1b
ARM GAS  C:\cygwin\tmp\ccyJ3soa.s 			page 44


 2445 092f 746D7000 		.ascii	"tmp\000"
 2446 0933 01       		.byte	0x1
 2447 0934 C5       		.byte	0xc5
 2448 0935 70000000 		.4byte	0x70
 2449 0939 01040000 		.4byte	.LLST32
 2450 093d 00       		.byte	0
 2451 093e 1C       		.uleb128 0x1c
 2452 093f 6E050000 		.4byte	.LBB32
 2453 0943 74050000 		.4byte	.LBE32
 2454 0947 5B090000 		.4byte	0x95b
 2455 094b 1B       		.uleb128 0x1b
 2456 094c 746D7000 		.ascii	"tmp\000"
 2457 0950 01       		.byte	0x1
 2458 0951 C9       		.byte	0xc9
 2459 0952 70000000 		.4byte	0x70
 2460 0956 14040000 		.4byte	.LLST33
 2461 095a 00       		.byte	0
 2462 095b 1C       		.uleb128 0x1c
 2463 095c 88050000 		.4byte	.LBB33
 2464 0960 8E050000 		.4byte	.LBE33
 2465 0964 78090000 		.4byte	0x978
 2466 0968 1B       		.uleb128 0x1b
 2467 0969 746D7000 		.ascii	"tmp\000"
 2468 096d 01       		.byte	0x1
 2469 096e CB       		.byte	0xcb
 2470 096f 70000000 		.4byte	0x70
 2471 0973 27040000 		.4byte	.LLST34
 2472 0977 00       		.byte	0
 2473 0978 1C       		.uleb128 0x1c
 2474 0979 BA050000 		.4byte	.LBB34
 2475 097d C0050000 		.4byte	.LBE34
 2476 0981 95090000 		.4byte	0x995
 2477 0985 1B       		.uleb128 0x1b
 2478 0986 746D7000 		.ascii	"tmp\000"
 2479 098a 01       		.byte	0x1
 2480 098b D0       		.byte	0xd0
 2481 098c 70000000 		.4byte	0x70
 2482 0990 3A040000 		.4byte	.LLST35
 2483 0994 00       		.byte	0
 2484 0995 1C       		.uleb128 0x1c
 2485 0996 DA050000 		.4byte	.LBB35
 2486 099a E0050000 		.4byte	.LBE35
 2487 099e B2090000 		.4byte	0x9b2
 2488 09a2 1B       		.uleb128 0x1b
 2489 09a3 746D7000 		.ascii	"tmp\000"
 2490 09a7 01       		.byte	0x1
 2491 09a8 D0       		.byte	0xd0
 2492 09a9 70000000 		.4byte	0x70
 2493 09ad 4D040000 		.4byte	.LLST36
 2494 09b1 00       		.byte	0
 2495 09b2 1C       		.uleb128 0x1c
 2496 09b3 E0050000 		.4byte	.LBB36
 2497 09b7 E6050000 		.4byte	.LBE36
 2498 09bb CF090000 		.4byte	0x9cf
 2499 09bf 1B       		.uleb128 0x1b
 2500 09c0 746D7000 		.ascii	"tmp\000"
 2501 09c4 01       		.byte	0x1
ARM GAS  C:\cygwin\tmp\ccyJ3soa.s 			page 45


 2502 09c5 D1       		.byte	0xd1
 2503 09c6 70000000 		.4byte	0x70
 2504 09ca 60040000 		.4byte	.LLST37
 2505 09ce 00       		.byte	0
 2506 09cf 1C       		.uleb128 0x1c
 2507 09d0 02060000 		.4byte	.LBB37
 2508 09d4 08060000 		.4byte	.LBE37
 2509 09d8 EC090000 		.4byte	0x9ec
 2510 09dc 1B       		.uleb128 0x1b
 2511 09dd 746D7000 		.ascii	"tmp\000"
 2512 09e1 01       		.byte	0x1
 2513 09e2 D1       		.byte	0xd1
 2514 09e3 70000000 		.4byte	0x70
 2515 09e7 73040000 		.4byte	.LLST38
 2516 09eb 00       		.byte	0
 2517 09ec 1C       		.uleb128 0x1c
 2518 09ed 2A060000 		.4byte	.LBB38
 2519 09f1 30060000 		.4byte	.LBE38
 2520 09f5 090A0000 		.4byte	0xa09
 2521 09f9 1B       		.uleb128 0x1b
 2522 09fa 746D7000 		.ascii	"tmp\000"
 2523 09fe 01       		.byte	0x1
 2524 09ff DC       		.byte	0xdc
 2525 0a00 70000000 		.4byte	0x70
 2526 0a04 86040000 		.4byte	.LLST39
 2527 0a08 00       		.byte	0
 2528 0a09 1C       		.uleb128 0x1c
 2529 0a0a 50060000 		.4byte	.LBB39
 2530 0a0e 56060000 		.4byte	.LBE39
 2531 0a12 260A0000 		.4byte	0xa26
 2532 0a16 1B       		.uleb128 0x1b
 2533 0a17 746D7000 		.ascii	"tmp\000"
 2534 0a1b 01       		.byte	0x1
 2535 0a1c DC       		.byte	0xdc
 2536 0a1d 70000000 		.4byte	0x70
 2537 0a21 99040000 		.4byte	.LLST40
 2538 0a25 00       		.byte	0
 2539 0a26 1C       		.uleb128 0x1c
 2540 0a27 56060000 		.4byte	.LBB40
 2541 0a2b 5C060000 		.4byte	.LBE40
 2542 0a2f 430A0000 		.4byte	0xa43
 2543 0a33 1B       		.uleb128 0x1b
 2544 0a34 746D7000 		.ascii	"tmp\000"
 2545 0a38 01       		.byte	0x1
 2546 0a39 DD       		.byte	0xdd
 2547 0a3a 70000000 		.4byte	0x70
 2548 0a3e AC040000 		.4byte	.LLST41
 2549 0a42 00       		.byte	0
 2550 0a43 1C       		.uleb128 0x1c
 2551 0a44 76060000 		.4byte	.LBB41
 2552 0a48 7C060000 		.4byte	.LBE41
 2553 0a4c 600A0000 		.4byte	0xa60
 2554 0a50 1B       		.uleb128 0x1b
 2555 0a51 746D7000 		.ascii	"tmp\000"
 2556 0a55 01       		.byte	0x1
 2557 0a56 DD       		.byte	0xdd
 2558 0a57 70000000 		.4byte	0x70
ARM GAS  C:\cygwin\tmp\ccyJ3soa.s 			page 46


 2559 0a5b BF040000 		.4byte	.LLST42
 2560 0a5f 00       		.byte	0
 2561 0a60 1C       		.uleb128 0x1c
 2562 0a61 7C060000 		.4byte	.LBB42
 2563 0a65 82060000 		.4byte	.LBE42
 2564 0a69 7D0A0000 		.4byte	0xa7d
 2565 0a6d 1B       		.uleb128 0x1b
 2566 0a6e 746D7000 		.ascii	"tmp\000"
 2567 0a72 01       		.byte	0x1
 2568 0a73 DE       		.byte	0xde
 2569 0a74 70000000 		.4byte	0x70
 2570 0a78 D2040000 		.4byte	.LLST43
 2571 0a7c 00       		.byte	0
 2572 0a7d 1C       		.uleb128 0x1c
 2573 0a7e 9C060000 		.4byte	.LBB43
 2574 0a82 A2060000 		.4byte	.LBE43
 2575 0a86 9A0A0000 		.4byte	0xa9a
 2576 0a8a 1B       		.uleb128 0x1b
 2577 0a8b 746D7000 		.ascii	"tmp\000"
 2578 0a8f 01       		.byte	0x1
 2579 0a90 DE       		.byte	0xde
 2580 0a91 70000000 		.4byte	0x70
 2581 0a95 E5040000 		.4byte	.LLST44
 2582 0a99 00       		.byte	0
 2583 0a9a 1C       		.uleb128 0x1c
 2584 0a9b A2060000 		.4byte	.LBB44
 2585 0a9f A8060000 		.4byte	.LBE44
 2586 0aa3 B70A0000 		.4byte	0xab7
 2587 0aa7 1B       		.uleb128 0x1b
 2588 0aa8 746D7000 		.ascii	"tmp\000"
 2589 0aac 01       		.byte	0x1
 2590 0aad DF       		.byte	0xdf
 2591 0aae 70000000 		.4byte	0x70
 2592 0ab2 F8040000 		.4byte	.LLST45
 2593 0ab6 00       		.byte	0
 2594 0ab7 1C       		.uleb128 0x1c
 2595 0ab8 C0060000 		.4byte	.LBB45
 2596 0abc C8060000 		.4byte	.LBE45
 2597 0ac0 D40A0000 		.4byte	0xad4
 2598 0ac4 1B       		.uleb128 0x1b
 2599 0ac5 746D7000 		.ascii	"tmp\000"
 2600 0ac9 01       		.byte	0x1
 2601 0aca DF       		.byte	0xdf
 2602 0acb 70000000 		.4byte	0x70
 2603 0acf 0B050000 		.4byte	.LLST46
 2604 0ad3 00       		.byte	0
 2605 0ad4 1C       		.uleb128 0x1c
 2606 0ad5 CC060000 		.4byte	.LBB46
 2607 0ad9 DC060000 		.4byte	.LBE46
 2608 0add F10A0000 		.4byte	0xaf1
 2609 0ae1 1B       		.uleb128 0x1b
 2610 0ae2 746D7000 		.ascii	"tmp\000"
 2611 0ae6 01       		.byte	0x1
 2612 0ae7 DE       		.byte	0xde
 2613 0ae8 70000000 		.4byte	0x70
 2614 0aec 29050000 		.4byte	.LLST47
 2615 0af0 00       		.byte	0
ARM GAS  C:\cygwin\tmp\ccyJ3soa.s 			page 47


 2616 0af1 1D       		.uleb128 0x1d
 2617 0af2 14000000 		.4byte	.LVL0
 2618 0af6 C2130000 		.4byte	0x13c2
 2619 0afa 040B0000 		.4byte	0xb04
 2620 0afe 1E       		.uleb128 0x1e
 2621 0aff 01       		.byte	0x1
 2622 0b00 50       		.byte	0x50
 2623 0b01 01       		.byte	0x1
 2624 0b02 31       		.byte	0x31
 2625 0b03 00       		.byte	0
 2626 0b04 1D       		.uleb128 0x1d
 2627 0b05 26000000 		.4byte	.LVL1
 2628 0b09 DF130000 		.4byte	0x13df
 2629 0b0d 240B0000 		.4byte	0xb24
 2630 0b11 1E       		.uleb128 0x1e
 2631 0b12 01       		.byte	0x1
 2632 0b13 52       		.byte	0x52
 2633 0b14 02       		.byte	0x2
 2634 0b15 09       		.byte	0x9
 2635 0b16 FF       		.byte	0xff
 2636 0b17 1E       		.uleb128 0x1e
 2637 0b18 01       		.byte	0x1
 2638 0b19 51       		.byte	0x51
 2639 0b1a 02       		.byte	0x2
 2640 0b1b 74       		.byte	0x74
 2641 0b1c 00       		.sleb128 0
 2642 0b1d 1E       		.uleb128 0x1e
 2643 0b1e 01       		.byte	0x1
 2644 0b1f 50       		.byte	0x50
 2645 0b20 02       		.byte	0x2
 2646 0b21 75       		.byte	0x75
 2647 0b22 00       		.sleb128 0
 2648 0b23 00       		.byte	0
 2649 0b24 1D       		.uleb128 0x1d
 2650 0b25 36000000 		.4byte	.LVL3
 2651 0b29 C2130000 		.4byte	0x13c2
 2652 0b2d 370B0000 		.4byte	0xb37
 2653 0b31 1E       		.uleb128 0x1e
 2654 0b32 01       		.byte	0x1
 2655 0b33 50       		.byte	0x50
 2656 0b34 01       		.byte	0x1
 2657 0b35 32       		.byte	0x32
 2658 0b36 00       		.byte	0
 2659 0b37 1D       		.uleb128 0x1d
 2660 0b38 48000000 		.4byte	.LVL4
 2661 0b3c 07140000 		.4byte	0x1407
 2662 0b40 570B0000 		.4byte	0xb57
 2663 0b44 1E       		.uleb128 0x1e
 2664 0b45 01       		.byte	0x1
 2665 0b46 52       		.byte	0x52
 2666 0b47 02       		.byte	0x2
 2667 0b48 09       		.byte	0x9
 2668 0b49 FF       		.byte	0xff
 2669 0b4a 1E       		.uleb128 0x1e
 2670 0b4b 01       		.byte	0x1
 2671 0b4c 51       		.byte	0x51
 2672 0b4d 02       		.byte	0x2
ARM GAS  C:\cygwin\tmp\ccyJ3soa.s 			page 48


 2673 0b4e 08       		.byte	0x8
 2674 0b4f 41       		.byte	0x41
 2675 0b50 1E       		.uleb128 0x1e
 2676 0b51 01       		.byte	0x1
 2677 0b52 50       		.byte	0x50
 2678 0b53 02       		.byte	0x2
 2679 0b54 75       		.byte	0x75
 2680 0b55 00       		.sleb128 0
 2681 0b56 00       		.byte	0
 2682 0b57 1D       		.uleb128 0x1d
 2683 0b58 56000000 		.4byte	.LVL6
 2684 0b5c C2130000 		.4byte	0x13c2
 2685 0b60 6A0B0000 		.4byte	0xb6a
 2686 0b64 1E       		.uleb128 0x1e
 2687 0b65 01       		.byte	0x1
 2688 0b66 50       		.byte	0x50
 2689 0b67 01       		.byte	0x1
 2690 0b68 33       		.byte	0x33
 2691 0b69 00       		.byte	0
 2692 0b6a 1D       		.uleb128 0x1d
 2693 0b6b 66000000 		.4byte	.LVL9
 2694 0b6f DF130000 		.4byte	0x13df
 2695 0b73 890B0000 		.4byte	0xb89
 2696 0b77 1E       		.uleb128 0x1e
 2697 0b78 01       		.byte	0x1
 2698 0b79 52       		.byte	0x52
 2699 0b7a 01       		.byte	0x1
 2700 0b7b 31       		.byte	0x31
 2701 0b7c 1E       		.uleb128 0x1e
 2702 0b7d 01       		.byte	0x1
 2703 0b7e 51       		.byte	0x51
 2704 0b7f 02       		.byte	0x2
 2705 0b80 08       		.byte	0x8
 2706 0b81 58       		.byte	0x58
 2707 0b82 1E       		.uleb128 0x1e
 2708 0b83 01       		.byte	0x1
 2709 0b84 50       		.byte	0x50
 2710 0b85 02       		.byte	0x2
 2711 0b86 75       		.byte	0x75
 2712 0b87 00       		.sleb128 0
 2713 0b88 00       		.byte	0
 2714 0b89 1D       		.uleb128 0x1d
 2715 0b8a 78000000 		.4byte	.LVL11
 2716 0b8e C2130000 		.4byte	0x13c2
 2717 0b92 9C0B0000 		.4byte	0xb9c
 2718 0b96 1E       		.uleb128 0x1e
 2719 0b97 01       		.byte	0x1
 2720 0b98 50       		.byte	0x50
 2721 0b99 01       		.byte	0x1
 2722 0b9a 34       		.byte	0x34
 2723 0b9b 00       		.byte	0
 2724 0b9c 1F       		.uleb128 0x1f
 2725 0b9d 88000000 		.4byte	.LVL14
 2726 0ba1 29140000 		.4byte	0x1429
 2727 0ba5 1D       		.uleb128 0x1d
 2728 0ba6 90000000 		.4byte	.LVL15
 2729 0baa 33140000 		.4byte	0x1433
ARM GAS  C:\cygwin\tmp\ccyJ3soa.s 			page 49


 2730 0bae BF0B0000 		.4byte	0xbbf
 2731 0bb2 1E       		.uleb128 0x1e
 2732 0bb3 01       		.byte	0x1
 2733 0bb4 51       		.byte	0x51
 2734 0bb5 02       		.byte	0x2
 2735 0bb6 08       		.byte	0x8
 2736 0bb7 58       		.byte	0x58
 2737 0bb8 1E       		.uleb128 0x1e
 2738 0bb9 01       		.byte	0x1
 2739 0bba 50       		.byte	0x50
 2740 0bbb 02       		.byte	0x2
 2741 0bbc 75       		.byte	0x75
 2742 0bbd 00       		.sleb128 0
 2743 0bbe 00       		.byte	0
 2744 0bbf 1F       		.uleb128 0x1f
 2745 0bc0 96000000 		.4byte	.LVL17
 2746 0bc4 50140000 		.4byte	0x1450
 2747 0bc8 1D       		.uleb128 0x1d
 2748 0bc9 AE000000 		.4byte	.LVL20
 2749 0bcd C2130000 		.4byte	0x13c2
 2750 0bd1 E40B0000 		.4byte	0xbe4
 2751 0bd5 1E       		.uleb128 0x1e
 2752 0bd6 01       		.byte	0x1
 2753 0bd7 51       		.byte	0x51
 2754 0bd8 05       		.byte	0x5
 2755 0bd9 77       		.byte	0x77
 2756 0bda 00       		.sleb128 0
 2757 0bdb 09       		.byte	0x9
 2758 0bdc FF       		.byte	0xff
 2759 0bdd 29       		.byte	0x29
 2760 0bde 1E       		.uleb128 0x1e
 2761 0bdf 01       		.byte	0x1
 2762 0be0 50       		.byte	0x50
 2763 0be1 01       		.byte	0x1
 2764 0be2 35       		.byte	0x35
 2765 0be3 00       		.byte	0
 2766 0be4 1D       		.uleb128 0x1d
 2767 0be5 BC000000 		.4byte	.LVL21
 2768 0be9 07140000 		.4byte	0x1407
 2769 0bed 030C0000 		.4byte	0xc03
 2770 0bf1 1E       		.uleb128 0x1e
 2771 0bf2 01       		.byte	0x1
 2772 0bf3 52       		.byte	0x52
 2773 0bf4 01       		.byte	0x1
 2774 0bf5 31       		.byte	0x31
 2775 0bf6 1E       		.uleb128 0x1e
 2776 0bf7 01       		.byte	0x1
 2777 0bf8 51       		.byte	0x51
 2778 0bf9 02       		.byte	0x2
 2779 0bfa 08       		.byte	0x8
 2780 0bfb 58       		.byte	0x58
 2781 0bfc 1E       		.uleb128 0x1e
 2782 0bfd 01       		.byte	0x1
 2783 0bfe 50       		.byte	0x50
 2784 0bff 02       		.byte	0x2
 2785 0c00 75       		.byte	0x75
 2786 0c01 00       		.sleb128 0
ARM GAS  C:\cygwin\tmp\ccyJ3soa.s 			page 50


 2787 0c02 00       		.byte	0
 2788 0c03 1D       		.uleb128 0x1d
 2789 0c04 CA000000 		.4byte	.LVL23
 2790 0c08 C2130000 		.4byte	0x13c2
 2791 0c0c 160C0000 		.4byte	0xc16
 2792 0c10 1E       		.uleb128 0x1e
 2793 0c11 01       		.byte	0x1
 2794 0c12 50       		.byte	0x50
 2795 0c13 01       		.byte	0x1
 2796 0c14 36       		.byte	0x36
 2797 0c15 00       		.byte	0
 2798 0c16 1F       		.uleb128 0x1f
 2799 0c17 DA000000 		.4byte	.LVL26
 2800 0c1b 29140000 		.4byte	0x1429
 2801 0c1f 1D       		.uleb128 0x1d
 2802 0c20 E2000000 		.4byte	.LVL27
 2803 0c24 5A140000 		.4byte	0x145a
 2804 0c28 390C0000 		.4byte	0xc39
 2805 0c2c 1E       		.uleb128 0x1e
 2806 0c2d 01       		.byte	0x1
 2807 0c2e 51       		.byte	0x51
 2808 0c2f 02       		.byte	0x2
 2809 0c30 08       		.byte	0x8
 2810 0c31 58       		.byte	0x58
 2811 0c32 1E       		.uleb128 0x1e
 2812 0c33 01       		.byte	0x1
 2813 0c34 50       		.byte	0x50
 2814 0c35 02       		.byte	0x2
 2815 0c36 75       		.byte	0x75
 2816 0c37 00       		.sleb128 0
 2817 0c38 00       		.byte	0
 2818 0c39 1F       		.uleb128 0x1f
 2819 0c3a E8000000 		.4byte	.LVL29
 2820 0c3e 50140000 		.4byte	0x1450
 2821 0c42 1D       		.uleb128 0x1d
 2822 0c43 FC000000 		.4byte	.LVL33
 2823 0c47 C2130000 		.4byte	0x13c2
 2824 0c4b 5E0C0000 		.4byte	0xc5e
 2825 0c4f 1E       		.uleb128 0x1e
 2826 0c50 01       		.byte	0x1
 2827 0c51 51       		.byte	0x51
 2828 0c52 05       		.byte	0x5
 2829 0c53 77       		.byte	0x77
 2830 0c54 00       		.sleb128 0
 2831 0c55 09       		.byte	0x9
 2832 0c56 FF       		.byte	0xff
 2833 0c57 29       		.byte	0x29
 2834 0c58 1E       		.uleb128 0x1e
 2835 0c59 01       		.byte	0x1
 2836 0c5a 50       		.byte	0x50
 2837 0c5b 01       		.byte	0x1
 2838 0c5c 37       		.byte	0x37
 2839 0c5d 00       		.byte	0
 2840 0c5e 1F       		.uleb128 0x1f
 2841 0c5f 0C010000 		.4byte	.LVL37
 2842 0c63 29140000 		.4byte	0x1429
 2843 0c67 1D       		.uleb128 0x1d
ARM GAS  C:\cygwin\tmp\ccyJ3soa.s 			page 51


 2844 0c68 1C010000 		.4byte	.LVL38
 2845 0c6c C2130000 		.4byte	0x13c2
 2846 0c70 7A0C0000 		.4byte	0xc7a
 2847 0c74 1E       		.uleb128 0x1e
 2848 0c75 01       		.byte	0x1
 2849 0c76 50       		.byte	0x50
 2850 0c77 01       		.byte	0x1
 2851 0c78 38       		.byte	0x38
 2852 0c79 00       		.byte	0
 2853 0c7a 1F       		.uleb128 0x1f
 2854 0c7b 24010000 		.4byte	.LVL39
 2855 0c7f 50140000 		.4byte	0x1450
 2856 0c83 1F       		.uleb128 0x1f
 2857 0c84 34010000 		.4byte	.LVL42
 2858 0c88 50140000 		.4byte	0x1450
 2859 0c8c 1F       		.uleb128 0x1f
 2860 0c8d 44010000 		.4byte	.LVL47
 2861 0c91 29140000 		.4byte	0x1429
 2862 0c95 1D       		.uleb128 0x1d
 2863 0c96 58010000 		.4byte	.LVL48
 2864 0c9a C2130000 		.4byte	0x13c2
 2865 0c9e A80C0000 		.4byte	0xca8
 2866 0ca2 1E       		.uleb128 0x1e
 2867 0ca3 01       		.byte	0x1
 2868 0ca4 50       		.byte	0x50
 2869 0ca5 01       		.byte	0x1
 2870 0ca6 39       		.byte	0x39
 2871 0ca7 00       		.byte	0
 2872 0ca8 1F       		.uleb128 0x1f
 2873 0ca9 64010000 		.4byte	.LVL49
 2874 0cad 50140000 		.4byte	0x1450
 2875 0cb1 1F       		.uleb128 0x1f
 2876 0cb2 74010000 		.4byte	.LVL54
 2877 0cb6 29140000 		.4byte	0x1429
 2878 0cba 1D       		.uleb128 0x1d
 2879 0cbb 8A010000 		.4byte	.LVL55
 2880 0cbf C2130000 		.4byte	0x13c2
 2881 0cc3 CD0C0000 		.4byte	0xccd
 2882 0cc7 1E       		.uleb128 0x1e
 2883 0cc8 01       		.byte	0x1
 2884 0cc9 50       		.byte	0x50
 2885 0cca 01       		.byte	0x1
 2886 0ccb 3A       		.byte	0x3a
 2887 0ccc 00       		.byte	0
 2888 0ccd 1F       		.uleb128 0x1f
 2889 0cce 94010000 		.4byte	.LVL56
 2890 0cd2 50140000 		.4byte	0x1450
 2891 0cd6 1D       		.uleb128 0x1d
 2892 0cd7 AA010000 		.4byte	.LVL60
 2893 0cdb 77140000 		.4byte	0x1477
 2894 0cdf F60C0000 		.4byte	0xcf6
 2895 0ce3 1E       		.uleb128 0x1e
 2896 0ce4 01       		.byte	0x1
 2897 0ce5 52       		.byte	0x52
 2898 0ce6 02       		.byte	0x2
 2899 0ce7 09       		.byte	0x9
 2900 0ce8 FF       		.byte	0xff
ARM GAS  C:\cygwin\tmp\ccyJ3soa.s 			page 52


 2901 0ce9 1E       		.uleb128 0x1e
 2902 0cea 01       		.byte	0x1
 2903 0ceb 51       		.byte	0x51
 2904 0cec 02       		.byte	0x2
 2905 0ced 91       		.byte	0x91
 2906 0cee 64       		.sleb128 -28
 2907 0cef 1E       		.uleb128 0x1e
 2908 0cf0 01       		.byte	0x1
 2909 0cf1 50       		.byte	0x50
 2910 0cf2 02       		.byte	0x2
 2911 0cf3 74       		.byte	0x74
 2912 0cf4 00       		.sleb128 0
 2913 0cf5 00       		.byte	0
 2914 0cf6 1D       		.uleb128 0x1d
 2915 0cf7 B8010000 		.4byte	.LVL62
 2916 0cfb C2130000 		.4byte	0x13c2
 2917 0cff 090D0000 		.4byte	0xd09
 2918 0d03 1E       		.uleb128 0x1e
 2919 0d04 01       		.byte	0x1
 2920 0d05 50       		.byte	0x50
 2921 0d06 01       		.byte	0x1
 2922 0d07 3B       		.byte	0x3b
 2923 0d08 00       		.byte	0
 2924 0d09 1F       		.uleb128 0x1f
 2925 0d0a C6010000 		.4byte	.LVL63
 2926 0d0e 99140000 		.4byte	0x1499
 2927 0d12 1D       		.uleb128 0x1d
 2928 0d13 D2010000 		.4byte	.LVL64
 2929 0d17 AD140000 		.4byte	0x14ad
 2930 0d1b 2E0D0000 		.4byte	0xd2e
 2931 0d1f 1E       		.uleb128 0x1e
 2932 0d20 01       		.byte	0x1
 2933 0d21 51       		.byte	0x51
 2934 0d22 05       		.byte	0x5
 2935 0d23 03       		.byte	0x3
 2936 0d24 00000000 		.4byte	.LC0
 2937 0d28 1E       		.uleb128 0x1e
 2938 0d29 01       		.byte	0x1
 2939 0d2a 50       		.byte	0x50
 2940 0d2b 01       		.byte	0x1
 2941 0d2c 3C       		.byte	0x3c
 2942 0d2d 00       		.byte	0
 2943 0d2e 1D       		.uleb128 0x1d
 2944 0d2f E4010000 		.4byte	.LVL65
 2945 0d33 DF130000 		.4byte	0x13df
 2946 0d37 4E0D0000 		.4byte	0xd4e
 2947 0d3b 1E       		.uleb128 0x1e
 2948 0d3c 01       		.byte	0x1
 2949 0d3d 52       		.byte	0x52
 2950 0d3e 02       		.byte	0x2
 2951 0d3f 09       		.byte	0x9
 2952 0d40 FF       		.byte	0xff
 2953 0d41 1E       		.uleb128 0x1e
 2954 0d42 01       		.byte	0x1
 2955 0d43 51       		.byte	0x51
 2956 0d44 02       		.byte	0x2
 2957 0d45 08       		.byte	0x8
ARM GAS  C:\cygwin\tmp\ccyJ3soa.s 			page 53


 2958 0d46 47       		.byte	0x47
 2959 0d47 1E       		.uleb128 0x1e
 2960 0d48 01       		.byte	0x1
 2961 0d49 50       		.byte	0x50
 2962 0d4a 02       		.byte	0x2
 2963 0d4b 74       		.byte	0x74
 2964 0d4c 00       		.sleb128 0
 2965 0d4d 00       		.byte	0
 2966 0d4e 1D       		.uleb128 0x1d
 2967 0d4f F2010000 		.4byte	.LVL67
 2968 0d53 C2130000 		.4byte	0x13c2
 2969 0d57 610D0000 		.4byte	0xd61
 2970 0d5b 1E       		.uleb128 0x1e
 2971 0d5c 01       		.byte	0x1
 2972 0d5d 50       		.byte	0x50
 2973 0d5e 01       		.byte	0x1
 2974 0d5f 3D       		.byte	0x3d
 2975 0d60 00       		.byte	0
 2976 0d61 1D       		.uleb128 0x1d
 2977 0d62 04020000 		.4byte	.LVL68
 2978 0d66 77140000 		.4byte	0x1477
 2979 0d6a 810D0000 		.4byte	0xd81
 2980 0d6e 1E       		.uleb128 0x1e
 2981 0d6f 01       		.byte	0x1
 2982 0d70 52       		.byte	0x52
 2983 0d71 02       		.byte	0x2
 2984 0d72 09       		.byte	0x9
 2985 0d73 FF       		.byte	0xff
 2986 0d74 1E       		.uleb128 0x1e
 2987 0d75 01       		.byte	0x1
 2988 0d76 51       		.byte	0x51
 2989 0d77 02       		.byte	0x2
 2990 0d78 91       		.byte	0x91
 2991 0d79 64       		.sleb128 -28
 2992 0d7a 1E       		.uleb128 0x1e
 2993 0d7b 01       		.byte	0x1
 2994 0d7c 50       		.byte	0x50
 2995 0d7d 02       		.byte	0x2
 2996 0d7e 74       		.byte	0x74
 2997 0d7f 00       		.sleb128 0
 2998 0d80 00       		.byte	0
 2999 0d81 1D       		.uleb128 0x1d
 3000 0d82 12020000 		.4byte	.LVL70
 3001 0d86 C2130000 		.4byte	0x13c2
 3002 0d8a 940D0000 		.4byte	0xd94
 3003 0d8e 1E       		.uleb128 0x1e
 3004 0d8f 01       		.byte	0x1
 3005 0d90 50       		.byte	0x50
 3006 0d91 01       		.byte	0x1
 3007 0d92 3E       		.byte	0x3e
 3008 0d93 00       		.byte	0
 3009 0d94 1D       		.uleb128 0x1d
 3010 0d95 28020000 		.4byte	.LVL71
 3011 0d99 C2130000 		.4byte	0x13c2
 3012 0d9d A70D0000 		.4byte	0xda7
 3013 0da1 1E       		.uleb128 0x1e
 3014 0da2 01       		.byte	0x1
ARM GAS  C:\cygwin\tmp\ccyJ3soa.s 			page 54


 3015 0da3 50       		.byte	0x50
 3016 0da4 01       		.byte	0x1
 3017 0da5 3F       		.byte	0x3f
 3018 0da6 00       		.byte	0
 3019 0da7 1D       		.uleb128 0x1d
 3020 0da8 3E020000 		.4byte	.LVL72
 3021 0dac C2130000 		.4byte	0x13c2
 3022 0db0 BA0D0000 		.4byte	0xdba
 3023 0db4 1E       		.uleb128 0x1e
 3024 0db5 01       		.byte	0x1
 3025 0db6 50       		.byte	0x50
 3026 0db7 01       		.byte	0x1
 3027 0db8 40       		.byte	0x40
 3028 0db9 00       		.byte	0
 3029 0dba 1D       		.uleb128 0x1d
 3030 0dbb 4E020000 		.4byte	.LVL73
 3031 0dbf 77140000 		.4byte	0x1477
 3032 0dc3 D90D0000 		.4byte	0xdd9
 3033 0dc7 1E       		.uleb128 0x1e
 3034 0dc8 01       		.byte	0x1
 3035 0dc9 52       		.byte	0x52
 3036 0dca 01       		.byte	0x1
 3037 0dcb 31       		.byte	0x31
 3038 0dcc 1E       		.uleb128 0x1e
 3039 0dcd 01       		.byte	0x1
 3040 0dce 51       		.byte	0x51
 3041 0dcf 02       		.byte	0x2
 3042 0dd0 91       		.byte	0x91
 3043 0dd1 64       		.sleb128 -28
 3044 0dd2 1E       		.uleb128 0x1e
 3045 0dd3 01       		.byte	0x1
 3046 0dd4 50       		.byte	0x50
 3047 0dd5 02       		.byte	0x2
 3048 0dd6 74       		.byte	0x74
 3049 0dd7 00       		.sleb128 0
 3050 0dd8 00       		.byte	0
 3051 0dd9 1D       		.uleb128 0x1d
 3052 0dda 60020000 		.4byte	.LVL75
 3053 0dde C2130000 		.4byte	0x13c2
 3054 0de2 EC0D0000 		.4byte	0xdec
 3055 0de6 1E       		.uleb128 0x1e
 3056 0de7 01       		.byte	0x1
 3057 0de8 50       		.byte	0x50
 3058 0de9 01       		.byte	0x1
 3059 0dea 41       		.byte	0x41
 3060 0deb 00       		.byte	0
 3061 0dec 1F       		.uleb128 0x1f
 3062 0ded 70020000 		.4byte	.LVL78
 3063 0df1 29140000 		.4byte	0x1429
 3064 0df5 1D       		.uleb128 0x1d
 3065 0df6 78020000 		.4byte	.LVL79
 3066 0dfa D0140000 		.4byte	0x14d0
 3067 0dfe 0F0E0000 		.4byte	0xe0f
 3068 0e02 1E       		.uleb128 0x1e
 3069 0e03 01       		.byte	0x1
 3070 0e04 51       		.byte	0x51
 3071 0e05 02       		.byte	0x2
ARM GAS  C:\cygwin\tmp\ccyJ3soa.s 			page 55


 3072 0e06 91       		.byte	0x91
 3073 0e07 64       		.sleb128 -28
 3074 0e08 1E       		.uleb128 0x1e
 3075 0e09 01       		.byte	0x1
 3076 0e0a 50       		.byte	0x50
 3077 0e0b 02       		.byte	0x2
 3078 0e0c 74       		.byte	0x74
 3079 0e0d 00       		.sleb128 0
 3080 0e0e 00       		.byte	0
 3081 0e0f 1F       		.uleb128 0x1f
 3082 0e10 7E020000 		.4byte	.LVL81
 3083 0e14 50140000 		.4byte	0x1450
 3084 0e18 1D       		.uleb128 0x1d
 3085 0e19 96020000 		.4byte	.LVL84
 3086 0e1d C2130000 		.4byte	0x13c2
 3087 0e21 340E0000 		.4byte	0xe34
 3088 0e25 1E       		.uleb128 0x1e
 3089 0e26 01       		.byte	0x1
 3090 0e27 51       		.byte	0x51
 3091 0e28 05       		.byte	0x5
 3092 0e29 77       		.byte	0x77
 3093 0e2a 00       		.sleb128 0
 3094 0e2b 09       		.byte	0x9
 3095 0e2c FF       		.byte	0xff
 3096 0e2d 29       		.byte	0x29
 3097 0e2e 1E       		.uleb128 0x1e
 3098 0e2f 01       		.byte	0x1
 3099 0e30 50       		.byte	0x50
 3100 0e31 01       		.byte	0x1
 3101 0e32 42       		.byte	0x42
 3102 0e33 00       		.byte	0
 3103 0e34 1F       		.uleb128 0x1f
 3104 0e35 A6020000 		.4byte	.LVL87
 3105 0e39 29140000 		.4byte	0x1429
 3106 0e3d 1D       		.uleb128 0x1d
 3107 0e3e B4020000 		.4byte	.LVL88
 3108 0e42 C2130000 		.4byte	0x13c2
 3109 0e46 500E0000 		.4byte	0xe50
 3110 0e4a 1E       		.uleb128 0x1e
 3111 0e4b 01       		.byte	0x1
 3112 0e4c 50       		.byte	0x50
 3113 0e4d 01       		.byte	0x1
 3114 0e4e 43       		.byte	0x43
 3115 0e4f 00       		.byte	0
 3116 0e50 1F       		.uleb128 0x1f
 3117 0e51 BE020000 		.4byte	.LVL89
 3118 0e55 50140000 		.4byte	0x1450
 3119 0e59 1F       		.uleb128 0x1f
 3120 0e5a CE020000 		.4byte	.LVL94
 3121 0e5e 29140000 		.4byte	0x1429
 3122 0e62 1D       		.uleb128 0x1d
 3123 0e63 E0020000 		.4byte	.LVL95
 3124 0e67 C2130000 		.4byte	0x13c2
 3125 0e6b 750E0000 		.4byte	0xe75
 3126 0e6f 1E       		.uleb128 0x1e
 3127 0e70 01       		.byte	0x1
 3128 0e71 50       		.byte	0x50
ARM GAS  C:\cygwin\tmp\ccyJ3soa.s 			page 56


 3129 0e72 01       		.byte	0x1
 3130 0e73 44       		.byte	0x44
 3131 0e74 00       		.byte	0
 3132 0e75 1F       		.uleb128 0x1f
 3133 0e76 EC020000 		.4byte	.LVL96
 3134 0e7a 50140000 		.4byte	0x1450
 3135 0e7e 1F       		.uleb128 0x1f
 3136 0e7f FC020000 		.4byte	.LVL101
 3137 0e83 29140000 		.4byte	0x1429
 3138 0e87 1D       		.uleb128 0x1d
 3139 0e88 0C030000 		.4byte	.LVL102
 3140 0e8c C2130000 		.4byte	0x13c2
 3141 0e90 9A0E0000 		.4byte	0xe9a
 3142 0e94 1E       		.uleb128 0x1e
 3143 0e95 01       		.byte	0x1
 3144 0e96 50       		.byte	0x50
 3145 0e97 01       		.byte	0x1
 3146 0e98 45       		.byte	0x45
 3147 0e99 00       		.byte	0
 3148 0e9a 1F       		.uleb128 0x1f
 3149 0e9b 18030000 		.4byte	.LVL103
 3150 0e9f 50140000 		.4byte	0x1450
 3151 0ea3 1F       		.uleb128 0x1f
 3152 0ea4 28030000 		.4byte	.LVL108
 3153 0ea8 29140000 		.4byte	0x1429
 3154 0eac 1D       		.uleb128 0x1d
 3155 0ead 30030000 		.4byte	.LVL109
 3156 0eb1 33140000 		.4byte	0x1433
 3157 0eb5 C60E0000 		.4byte	0xec6
 3158 0eb9 1E       		.uleb128 0x1e
 3159 0eba 01       		.byte	0x1
 3160 0ebb 51       		.byte	0x51
 3161 0ebc 02       		.byte	0x2
 3162 0ebd 08       		.byte	0x8
 3163 0ebe 41       		.byte	0x41
 3164 0ebf 1E       		.uleb128 0x1e
 3165 0ec0 01       		.byte	0x1
 3166 0ec1 50       		.byte	0x50
 3167 0ec2 02       		.byte	0x2
 3168 0ec3 74       		.byte	0x74
 3169 0ec4 00       		.sleb128 0
 3170 0ec5 00       		.byte	0
 3171 0ec6 1D       		.uleb128 0x1d
 3172 0ec7 3E030000 		.4byte	.LVL111
 3173 0ecb C2130000 		.4byte	0x13c2
 3174 0ecf D90E0000 		.4byte	0xed9
 3175 0ed3 1E       		.uleb128 0x1e
 3176 0ed4 01       		.byte	0x1
 3177 0ed5 50       		.byte	0x50
 3178 0ed6 01       		.byte	0x1
 3179 0ed7 46       		.byte	0x46
 3180 0ed8 00       		.byte	0
 3181 0ed9 1D       		.uleb128 0x1d
 3182 0eda 4C030000 		.4byte	.LVL112
 3183 0ede 33140000 		.4byte	0x1433
 3184 0ee2 F30E0000 		.4byte	0xef3
 3185 0ee6 1E       		.uleb128 0x1e
ARM GAS  C:\cygwin\tmp\ccyJ3soa.s 			page 57


 3186 0ee7 01       		.byte	0x1
 3187 0ee8 51       		.byte	0x51
 3188 0ee9 02       		.byte	0x2
 3189 0eea 08       		.byte	0x8
 3190 0eeb 42       		.byte	0x42
 3191 0eec 1E       		.uleb128 0x1e
 3192 0eed 01       		.byte	0x1
 3193 0eee 50       		.byte	0x50
 3194 0eef 02       		.byte	0x2
 3195 0ef0 74       		.byte	0x74
 3196 0ef1 00       		.sleb128 0
 3197 0ef2 00       		.byte	0
 3198 0ef3 1D       		.uleb128 0x1d
 3199 0ef4 5A030000 		.4byte	.LVL114
 3200 0ef8 C2130000 		.4byte	0x13c2
 3201 0efc 060F0000 		.4byte	0xf06
 3202 0f00 1E       		.uleb128 0x1e
 3203 0f01 01       		.byte	0x1
 3204 0f02 50       		.byte	0x50
 3205 0f03 01       		.byte	0x1
 3206 0f04 47       		.byte	0x47
 3207 0f05 00       		.byte	0
 3208 0f06 1D       		.uleb128 0x1d
 3209 0f07 68030000 		.4byte	.LVL115
 3210 0f0b 33140000 		.4byte	0x1433
 3211 0f0f 200F0000 		.4byte	0xf20
 3212 0f13 1E       		.uleb128 0x1e
 3213 0f14 01       		.byte	0x1
 3214 0f15 51       		.byte	0x51
 3215 0f16 02       		.byte	0x2
 3216 0f17 08       		.byte	0x8
 3217 0f18 43       		.byte	0x43
 3218 0f19 1E       		.uleb128 0x1e
 3219 0f1a 01       		.byte	0x1
 3220 0f1b 50       		.byte	0x50
 3221 0f1c 02       		.byte	0x2
 3222 0f1d 74       		.byte	0x74
 3223 0f1e 00       		.sleb128 0
 3224 0f1f 00       		.byte	0
 3225 0f20 1D       		.uleb128 0x1d
 3226 0f21 76030000 		.4byte	.LVL117
 3227 0f25 C2130000 		.4byte	0x13c2
 3228 0f29 330F0000 		.4byte	0xf33
 3229 0f2d 1E       		.uleb128 0x1e
 3230 0f2e 01       		.byte	0x1
 3231 0f2f 50       		.byte	0x50
 3232 0f30 01       		.byte	0x1
 3233 0f31 48       		.byte	0x48
 3234 0f32 00       		.byte	0
 3235 0f33 1D       		.uleb128 0x1d
 3236 0f34 84030000 		.4byte	.LVL118
 3237 0f38 33140000 		.4byte	0x1433
 3238 0f3c 4D0F0000 		.4byte	0xf4d
 3239 0f40 1E       		.uleb128 0x1e
 3240 0f41 01       		.byte	0x1
 3241 0f42 51       		.byte	0x51
 3242 0f43 02       		.byte	0x2
ARM GAS  C:\cygwin\tmp\ccyJ3soa.s 			page 58


 3243 0f44 08       		.byte	0x8
 3244 0f45 44       		.byte	0x44
 3245 0f46 1E       		.uleb128 0x1e
 3246 0f47 01       		.byte	0x1
 3247 0f48 50       		.byte	0x50
 3248 0f49 02       		.byte	0x2
 3249 0f4a 74       		.byte	0x74
 3250 0f4b 00       		.sleb128 0
 3251 0f4c 00       		.byte	0
 3252 0f4d 1D       		.uleb128 0x1d
 3253 0f4e 92030000 		.4byte	.LVL120
 3254 0f52 C2130000 		.4byte	0x13c2
 3255 0f56 600F0000 		.4byte	0xf60
 3256 0f5a 1E       		.uleb128 0x1e
 3257 0f5b 01       		.byte	0x1
 3258 0f5c 50       		.byte	0x50
 3259 0f5d 01       		.byte	0x1
 3260 0f5e 49       		.byte	0x49
 3261 0f5f 00       		.byte	0
 3262 0f60 1D       		.uleb128 0x1d
 3263 0f61 A2030000 		.4byte	.LVL121
 3264 0f65 33140000 		.4byte	0x1433
 3265 0f69 7A0F0000 		.4byte	0xf7a
 3266 0f6d 1E       		.uleb128 0x1e
 3267 0f6e 01       		.byte	0x1
 3268 0f6f 51       		.byte	0x51
 3269 0f70 02       		.byte	0x2
 3270 0f71 08       		.byte	0x8
 3271 0f72 45       		.byte	0x45
 3272 0f73 1E       		.uleb128 0x1e
 3273 0f74 01       		.byte	0x1
 3274 0f75 50       		.byte	0x50
 3275 0f76 02       		.byte	0x2
 3276 0f77 74       		.byte	0x74
 3277 0f78 00       		.sleb128 0
 3278 0f79 00       		.byte	0
 3279 0f7a 1F       		.uleb128 0x1f
 3280 0f7b A8030000 		.4byte	.LVL123
 3281 0f7f 50140000 		.4byte	0x1450
 3282 0f83 1D       		.uleb128 0x1d
 3283 0f84 BC030000 		.4byte	.LVL126
 3284 0f88 C2130000 		.4byte	0x13c2
 3285 0f8c B00F0000 		.4byte	0xfb0
 3286 0f90 1E       		.uleb128 0x1e
 3287 0f91 01       		.byte	0x1
 3288 0f92 51       		.byte	0x51
 3289 0f93 16       		.byte	0x16
 3290 0f94 30       		.byte	0x30
 3291 0f95 31       		.byte	0x31
 3292 0f96 76       		.byte	0x76
 3293 0f97 00       		.sleb128 0
 3294 0f98 1C       		.byte	0x1c
 3295 0f99 31       		.byte	0x31
 3296 0f9a 40       		.byte	0x40
 3297 0f9b 4B       		.byte	0x4b
 3298 0f9c 24       		.byte	0x24
 3299 0f9d 22       		.byte	0x22
ARM GAS  C:\cygwin\tmp\ccyJ3soa.s 			page 59


 3300 0f9e 76       		.byte	0x76
 3301 0f9f 00       		.sleb128 0
 3302 0fa0 40       		.byte	0x40
 3303 0fa1 4B       		.byte	0x4b
 3304 0fa2 24       		.byte	0x24
 3305 0fa3 22       		.byte	0x22
 3306 0fa4 2D       		.byte	0x2d
 3307 0fa5 28       		.byte	0x28
 3308 0fa6 0100     		.2byte	0x1
 3309 0fa8 16       		.byte	0x16
 3310 0fa9 13       		.byte	0x13
 3311 0faa 1E       		.uleb128 0x1e
 3312 0fab 01       		.byte	0x1
 3313 0fac 50       		.byte	0x50
 3314 0fad 01       		.byte	0x1
 3315 0fae 4A       		.byte	0x4a
 3316 0faf 00       		.byte	0
 3317 0fb0 1D       		.uleb128 0x1d
 3318 0fb1 D8030000 		.4byte	.LVL127
 3319 0fb5 C2130000 		.4byte	0x13c2
 3320 0fb9 C30F0000 		.4byte	0xfc3
 3321 0fbd 1E       		.uleb128 0x1e
 3322 0fbe 01       		.byte	0x1
 3323 0fbf 50       		.byte	0x50
 3324 0fc0 01       		.byte	0x1
 3325 0fc1 4B       		.byte	0x4b
 3326 0fc2 00       		.byte	0
 3327 0fc3 1F       		.uleb128 0x1f
 3328 0fc4 EC030000 		.4byte	.LVL130
 3329 0fc8 29140000 		.4byte	0x1429
 3330 0fcc 1D       		.uleb128 0x1d
 3331 0fcd F4030000 		.4byte	.LVL131
 3332 0fd1 D0140000 		.4byte	0x14d0
 3333 0fd5 E60F0000 		.4byte	0xfe6
 3334 0fd9 1E       		.uleb128 0x1e
 3335 0fda 01       		.byte	0x1
 3336 0fdb 51       		.byte	0x51
 3337 0fdc 02       		.byte	0x2
 3338 0fdd 91       		.byte	0x91
 3339 0fde 64       		.sleb128 -28
 3340 0fdf 1E       		.uleb128 0x1e
 3341 0fe0 01       		.byte	0x1
 3342 0fe1 50       		.byte	0x50
 3343 0fe2 02       		.byte	0x2
 3344 0fe3 74       		.byte	0x74
 3345 0fe4 00       		.sleb128 0
 3346 0fe5 00       		.byte	0
 3347 0fe6 1F       		.uleb128 0x1f
 3348 0fe7 FA030000 		.4byte	.LVL133
 3349 0feb 50140000 		.4byte	0x1450
 3350 0fef 1D       		.uleb128 0x1d
 3351 0ff0 12040000 		.4byte	.LVL137
 3352 0ff4 C2130000 		.4byte	0x13c2
 3353 0ff8 0A100000 		.4byte	0x100a
 3354 0ffc 1E       		.uleb128 0x1e
 3355 0ffd 01       		.byte	0x1
 3356 0ffe 51       		.byte	0x51
ARM GAS  C:\cygwin\tmp\ccyJ3soa.s 			page 60


 3357 0fff 04       		.byte	0x4
 3358 1000 76       		.byte	0x76
 3359 1001 00       		.sleb128 0
 3360 1002 30       		.byte	0x30
 3361 1003 29       		.byte	0x29
 3362 1004 1E       		.uleb128 0x1e
 3363 1005 01       		.byte	0x1
 3364 1006 50       		.byte	0x50
 3365 1007 01       		.byte	0x1
 3366 1008 4C       		.byte	0x4c
 3367 1009 00       		.byte	0
 3368 100a 1F       		.uleb128 0x1f
 3369 100b 20040000 		.4byte	.LVL138
 3370 100f 99140000 		.4byte	0x1499
 3371 1013 1D       		.uleb128 0x1d
 3372 1014 2C040000 		.4byte	.LVL139
 3373 1018 AD140000 		.4byte	0x14ad
 3374 101c 2F100000 		.4byte	0x102f
 3375 1020 1E       		.uleb128 0x1e
 3376 1021 01       		.byte	0x1
 3377 1022 51       		.byte	0x51
 3378 1023 05       		.byte	0x5
 3379 1024 03       		.byte	0x3
 3380 1025 00000000 		.4byte	.LC0
 3381 1029 1E       		.uleb128 0x1e
 3382 102a 01       		.byte	0x1
 3383 102b 50       		.byte	0x50
 3384 102c 01       		.byte	0x1
 3385 102d 4D       		.byte	0x4d
 3386 102e 00       		.byte	0
 3387 102f 1F       		.uleb128 0x1f
 3388 1030 3C040000 		.4byte	.LVL142
 3389 1034 29140000 		.4byte	0x1429
 3390 1038 1D       		.uleb128 0x1d
 3391 1039 4A040000 		.4byte	.LVL143
 3392 103d C2130000 		.4byte	0x13c2
 3393 1041 4B100000 		.4byte	0x104b
 3394 1045 1E       		.uleb128 0x1e
 3395 1046 01       		.byte	0x1
 3396 1047 50       		.byte	0x50
 3397 1048 01       		.byte	0x1
 3398 1049 4E       		.byte	0x4e
 3399 104a 00       		.byte	0
 3400 104b 1F       		.uleb128 0x1f
 3401 104c 50040000 		.4byte	.LVL144
 3402 1050 50140000 		.4byte	0x1450
 3403 1054 1F       		.uleb128 0x1f
 3404 1055 60040000 		.4byte	.LVL149
 3405 1059 29140000 		.4byte	0x1429
 3406 105d 1D       		.uleb128 0x1d
 3407 105e 70040000 		.4byte	.LVL150
 3408 1062 C2130000 		.4byte	0x13c2
 3409 1066 70100000 		.4byte	0x1070
 3410 106a 1E       		.uleb128 0x1e
 3411 106b 01       		.byte	0x1
 3412 106c 50       		.byte	0x50
 3413 106d 01       		.byte	0x1
ARM GAS  C:\cygwin\tmp\ccyJ3soa.s 			page 61


 3414 106e 4F       		.byte	0x4f
 3415 106f 00       		.byte	0
 3416 1070 1F       		.uleb128 0x1f
 3417 1071 76040000 		.4byte	.LVL152
 3418 1075 50140000 		.4byte	0x1450
 3419 1079 1F       		.uleb128 0x1f
 3420 107a 8C040000 		.4byte	.LVL155
 3421 107e 50140000 		.4byte	0x1450
 3422 1082 1D       		.uleb128 0x1d
 3423 1083 A2040000 		.4byte	.LVL159
 3424 1087 C2130000 		.4byte	0x13c2
 3425 108b 96100000 		.4byte	0x1096
 3426 108f 1E       		.uleb128 0x1e
 3427 1090 01       		.byte	0x1
 3428 1091 50       		.byte	0x50
 3429 1092 02       		.byte	0x2
 3430 1093 08       		.byte	0x8
 3431 1094 20       		.byte	0x20
 3432 1095 00       		.byte	0
 3433 1096 1F       		.uleb128 0x1f
 3434 1097 B2040000 		.4byte	.LVL162
 3435 109b 29140000 		.4byte	0x1429
 3436 109f 1D       		.uleb128 0x1d
 3437 10a0 BA040000 		.4byte	.LVL163
 3438 10a4 5A140000 		.4byte	0x145a
 3439 10a8 B9100000 		.4byte	0x10b9
 3440 10ac 1E       		.uleb128 0x1e
 3441 10ad 01       		.byte	0x1
 3442 10ae 51       		.byte	0x51
 3443 10af 02       		.byte	0x2
 3444 10b0 08       		.byte	0x8
 3445 10b1 45       		.byte	0x45
 3446 10b2 1E       		.uleb128 0x1e
 3447 10b3 01       		.byte	0x1
 3448 10b4 50       		.byte	0x50
 3449 10b5 02       		.byte	0x2
 3450 10b6 74       		.byte	0x74
 3451 10b7 00       		.sleb128 0
 3452 10b8 00       		.byte	0
 3453 10b9 1D       		.uleb128 0x1d
 3454 10ba C8040000 		.4byte	.LVL165
 3455 10be C2130000 		.4byte	0x13c2
 3456 10c2 CD100000 		.4byte	0x10cd
 3457 10c6 1E       		.uleb128 0x1e
 3458 10c7 01       		.byte	0x1
 3459 10c8 50       		.byte	0x50
 3460 10c9 02       		.byte	0x2
 3461 10ca 08       		.byte	0x8
 3462 10cb 21       		.byte	0x21
 3463 10cc 00       		.byte	0
 3464 10cd 1D       		.uleb128 0x1d
 3465 10ce D6040000 		.4byte	.LVL166
 3466 10d2 5A140000 		.4byte	0x145a
 3467 10d6 E7100000 		.4byte	0x10e7
 3468 10da 1E       		.uleb128 0x1e
 3469 10db 01       		.byte	0x1
 3470 10dc 51       		.byte	0x51
ARM GAS  C:\cygwin\tmp\ccyJ3soa.s 			page 62


 3471 10dd 02       		.byte	0x2
 3472 10de 08       		.byte	0x8
 3473 10df 44       		.byte	0x44
 3474 10e0 1E       		.uleb128 0x1e
 3475 10e1 01       		.byte	0x1
 3476 10e2 50       		.byte	0x50
 3477 10e3 02       		.byte	0x2
 3478 10e4 74       		.byte	0x74
 3479 10e5 00       		.sleb128 0
 3480 10e6 00       		.byte	0
 3481 10e7 1D       		.uleb128 0x1d
 3482 10e8 E4040000 		.4byte	.LVL168
 3483 10ec C2130000 		.4byte	0x13c2
 3484 10f0 FB100000 		.4byte	0x10fb
 3485 10f4 1E       		.uleb128 0x1e
 3486 10f5 01       		.byte	0x1
 3487 10f6 50       		.byte	0x50
 3488 10f7 02       		.byte	0x2
 3489 10f8 08       		.byte	0x8
 3490 10f9 22       		.byte	0x22
 3491 10fa 00       		.byte	0
 3492 10fb 1D       		.uleb128 0x1d
 3493 10fc F2040000 		.4byte	.LVL169
 3494 1100 5A140000 		.4byte	0x145a
 3495 1104 15110000 		.4byte	0x1115
 3496 1108 1E       		.uleb128 0x1e
 3497 1109 01       		.byte	0x1
 3498 110a 51       		.byte	0x51
 3499 110b 02       		.byte	0x2
 3500 110c 08       		.byte	0x8
 3501 110d 43       		.byte	0x43
 3502 110e 1E       		.uleb128 0x1e
 3503 110f 01       		.byte	0x1
 3504 1110 50       		.byte	0x50
 3505 1111 02       		.byte	0x2
 3506 1112 74       		.byte	0x74
 3507 1113 00       		.sleb128 0
 3508 1114 00       		.byte	0
 3509 1115 1D       		.uleb128 0x1d
 3510 1116 00050000 		.4byte	.LVL171
 3511 111a C2130000 		.4byte	0x13c2
 3512 111e 29110000 		.4byte	0x1129
 3513 1122 1E       		.uleb128 0x1e
 3514 1123 01       		.byte	0x1
 3515 1124 50       		.byte	0x50
 3516 1125 02       		.byte	0x2
 3517 1126 08       		.byte	0x8
 3518 1127 23       		.byte	0x23
 3519 1128 00       		.byte	0
 3520 1129 1D       		.uleb128 0x1d
 3521 112a 0E050000 		.4byte	.LVL172
 3522 112e 5A140000 		.4byte	0x145a
 3523 1132 43110000 		.4byte	0x1143
 3524 1136 1E       		.uleb128 0x1e
 3525 1137 01       		.byte	0x1
 3526 1138 51       		.byte	0x51
 3527 1139 02       		.byte	0x2
ARM GAS  C:\cygwin\tmp\ccyJ3soa.s 			page 63


 3528 113a 08       		.byte	0x8
 3529 113b 42       		.byte	0x42
 3530 113c 1E       		.uleb128 0x1e
 3531 113d 01       		.byte	0x1
 3532 113e 50       		.byte	0x50
 3533 113f 02       		.byte	0x2
 3534 1140 74       		.byte	0x74
 3535 1141 00       		.sleb128 0
 3536 1142 00       		.byte	0
 3537 1143 1D       		.uleb128 0x1d
 3538 1144 1C050000 		.4byte	.LVL174
 3539 1148 C2130000 		.4byte	0x13c2
 3540 114c 57110000 		.4byte	0x1157
 3541 1150 1E       		.uleb128 0x1e
 3542 1151 01       		.byte	0x1
 3543 1152 50       		.byte	0x50
 3544 1153 02       		.byte	0x2
 3545 1154 08       		.byte	0x8
 3546 1155 24       		.byte	0x24
 3547 1156 00       		.byte	0
 3548 1157 1D       		.uleb128 0x1d
 3549 1158 2C050000 		.4byte	.LVL175
 3550 115c 5A140000 		.4byte	0x145a
 3551 1160 71110000 		.4byte	0x1171
 3552 1164 1E       		.uleb128 0x1e
 3553 1165 01       		.byte	0x1
 3554 1166 51       		.byte	0x51
 3555 1167 02       		.byte	0x2
 3556 1168 08       		.byte	0x8
 3557 1169 41       		.byte	0x41
 3558 116a 1E       		.uleb128 0x1e
 3559 116b 01       		.byte	0x1
 3560 116c 50       		.byte	0x50
 3561 116d 02       		.byte	0x2
 3562 116e 74       		.byte	0x74
 3563 116f 00       		.sleb128 0
 3564 1170 00       		.byte	0
 3565 1171 1F       		.uleb128 0x1f
 3566 1172 32050000 		.4byte	.LVL177
 3567 1176 50140000 		.4byte	0x1450
 3568 117a 1D       		.uleb128 0x1d
 3569 117b 4A050000 		.4byte	.LVL181
 3570 117f C2130000 		.4byte	0x13c2
 3571 1183 96110000 		.4byte	0x1196
 3572 1187 1E       		.uleb128 0x1e
 3573 1188 01       		.byte	0x1
 3574 1189 51       		.byte	0x51
 3575 118a 04       		.byte	0x4
 3576 118b 75       		.byte	0x75
 3577 118c 00       		.sleb128 0
 3578 118d 30       		.byte	0x30
 3579 118e 29       		.byte	0x29
 3580 118f 1E       		.uleb128 0x1e
 3581 1190 01       		.byte	0x1
 3582 1191 50       		.byte	0x50
 3583 1192 02       		.byte	0x2
 3584 1193 08       		.byte	0x8
ARM GAS  C:\cygwin\tmp\ccyJ3soa.s 			page 64


 3585 1194 25       		.byte	0x25
 3586 1195 00       		.byte	0
 3587 1196 1D       		.uleb128 0x1d
 3588 1197 66050000 		.4byte	.LVL182
 3589 119b C2130000 		.4byte	0x13c2
 3590 119f AA110000 		.4byte	0x11aa
 3591 11a3 1E       		.uleb128 0x1e
 3592 11a4 01       		.byte	0x1
 3593 11a5 50       		.byte	0x50
 3594 11a6 02       		.byte	0x2
 3595 11a7 08       		.byte	0x8
 3596 11a8 26       		.byte	0x26
 3597 11a9 00       		.byte	0
 3598 11aa 1F       		.uleb128 0x1f
 3599 11ab 7A050000 		.4byte	.LVL186
 3600 11af 29140000 		.4byte	0x1429
 3601 11b3 1D       		.uleb128 0x1d
 3602 11b4 82050000 		.4byte	.LVL187
 3603 11b8 D0140000 		.4byte	0x14d0
 3604 11bc CD110000 		.4byte	0x11cd
 3605 11c0 1E       		.uleb128 0x1e
 3606 11c1 01       		.byte	0x1
 3607 11c2 51       		.byte	0x51
 3608 11c3 02       		.byte	0x2
 3609 11c4 91       		.byte	0x91
 3610 11c5 64       		.sleb128 -28
 3611 11c6 1E       		.uleb128 0x1e
 3612 11c7 01       		.byte	0x1
 3613 11c8 50       		.byte	0x50
 3614 11c9 02       		.byte	0x2
 3615 11ca 74       		.byte	0x74
 3616 11cb 00       		.sleb128 0
 3617 11cc 00       		.byte	0
 3618 11cd 1F       		.uleb128 0x1f
 3619 11ce 88050000 		.4byte	.LVL189
 3620 11d2 50140000 		.4byte	0x1450
 3621 11d6 1D       		.uleb128 0x1d
 3622 11d7 9A050000 		.4byte	.LVL193
 3623 11db C2130000 		.4byte	0x13c2
 3624 11df F2110000 		.4byte	0x11f2
 3625 11e3 1E       		.uleb128 0x1e
 3626 11e4 01       		.byte	0x1
 3627 11e5 51       		.byte	0x51
 3628 11e6 04       		.byte	0x4
 3629 11e7 76       		.byte	0x76
 3630 11e8 00       		.sleb128 0
 3631 11e9 30       		.byte	0x30
 3632 11ea 29       		.byte	0x29
 3633 11eb 1E       		.uleb128 0x1e
 3634 11ec 01       		.byte	0x1
 3635 11ed 50       		.byte	0x50
 3636 11ee 02       		.byte	0x2
 3637 11ef 08       		.byte	0x8
 3638 11f0 27       		.byte	0x27
 3639 11f1 00       		.byte	0
 3640 11f2 1F       		.uleb128 0x1f
 3641 11f3 A8050000 		.4byte	.LVL194
ARM GAS  C:\cygwin\tmp\ccyJ3soa.s 			page 65


 3642 11f7 99140000 		.4byte	0x1499
 3643 11fb 1D       		.uleb128 0x1d
 3644 11fc B4050000 		.4byte	.LVL195
 3645 1200 AD140000 		.4byte	0x14ad
 3646 1204 18120000 		.4byte	0x1218
 3647 1208 1E       		.uleb128 0x1e
 3648 1209 01       		.byte	0x1
 3649 120a 51       		.byte	0x51
 3650 120b 05       		.byte	0x5
 3651 120c 03       		.byte	0x3
 3652 120d 00000000 		.4byte	.LC0
 3653 1211 1E       		.uleb128 0x1e
 3654 1212 01       		.byte	0x1
 3655 1213 50       		.byte	0x50
 3656 1214 02       		.byte	0x2
 3657 1215 08       		.byte	0x8
 3658 1216 28       		.byte	0x28
 3659 1217 00       		.byte	0
 3660 1218 1F       		.uleb128 0x1f
 3661 1219 C4050000 		.4byte	.LVL198
 3662 121d 29140000 		.4byte	0x1429
 3663 1221 1D       		.uleb128 0x1d
 3664 1222 D2050000 		.4byte	.LVL199
 3665 1226 C2130000 		.4byte	0x13c2
 3666 122a 35120000 		.4byte	0x1235
 3667 122e 1E       		.uleb128 0x1e
 3668 122f 01       		.byte	0x1
 3669 1230 50       		.byte	0x50
 3670 1231 02       		.byte	0x2
 3671 1232 08       		.byte	0x8
 3672 1233 29       		.byte	0x29
 3673 1234 00       		.byte	0
 3674 1235 1F       		.uleb128 0x1f
 3675 1236 DA050000 		.4byte	.LVL200
 3676 123a 50140000 		.4byte	0x1450
 3677 123e 1F       		.uleb128 0x1f
 3678 123f EA050000 		.4byte	.LVL205
 3679 1243 29140000 		.4byte	0x1429
 3680 1247 1D       		.uleb128 0x1d
 3681 1248 FA050000 		.4byte	.LVL206
 3682 124c C2130000 		.4byte	0x13c2
 3683 1250 5B120000 		.4byte	0x125b
 3684 1254 1E       		.uleb128 0x1e
 3685 1255 01       		.byte	0x1
 3686 1256 50       		.byte	0x50
 3687 1257 02       		.byte	0x2
 3688 1258 08       		.byte	0x8
 3689 1259 2A       		.byte	0x2a
 3690 125a 00       		.byte	0
 3691 125b 1F       		.uleb128 0x1f
 3692 125c 02060000 		.4byte	.LVL207
 3693 1260 50140000 		.4byte	0x1450
 3694 1264 1D       		.uleb128 0x1d
 3695 1265 1E060000 		.4byte	.LVL211
 3696 1269 C2130000 		.4byte	0x13c2
 3697 126d 78120000 		.4byte	0x1278
 3698 1271 1E       		.uleb128 0x1e
ARM GAS  C:\cygwin\tmp\ccyJ3soa.s 			page 66


 3699 1272 01       		.byte	0x1
 3700 1273 50       		.byte	0x50
 3701 1274 02       		.byte	0x2
 3702 1275 08       		.byte	0x8
 3703 1276 2B       		.byte	0x2b
 3704 1277 00       		.byte	0
 3705 1278 1D       		.uleb128 0x1d
 3706 1279 2A060000 		.4byte	.LVL212
 3707 127d ED140000 		.4byte	0x14ed
 3708 1281 8C120000 		.4byte	0x128c
 3709 1285 1E       		.uleb128 0x1e
 3710 1286 01       		.byte	0x1
 3711 1287 50       		.byte	0x50
 3712 1288 02       		.byte	0x2
 3713 1289 74       		.byte	0x74
 3714 128a 00       		.sleb128 0
 3715 128b 00       		.byte	0
 3716 128c 1F       		.uleb128 0x1f
 3717 128d 34060000 		.4byte	.LVL215
 3718 1291 29140000 		.4byte	0x1429
 3719 1295 1D       		.uleb128 0x1d
 3720 1296 48060000 		.4byte	.LVL216
 3721 129a C2130000 		.4byte	0x13c2
 3722 129e A9120000 		.4byte	0x12a9
 3723 12a2 1E       		.uleb128 0x1e
 3724 12a3 01       		.byte	0x1
 3725 12a4 50       		.byte	0x50
 3726 12a5 02       		.byte	0x2
 3727 12a6 08       		.byte	0x8
 3728 12a7 2C       		.byte	0x2c
 3729 12a8 00       		.byte	0
 3730 12a9 1F       		.uleb128 0x1f
 3731 12aa 50060000 		.4byte	.LVL217
 3732 12ae 50140000 		.4byte	0x1450
 3733 12b2 1F       		.uleb128 0x1f
 3734 12b3 60060000 		.4byte	.LVL222
 3735 12b7 29140000 		.4byte	0x1429
 3736 12bb 1D       		.uleb128 0x1d
 3737 12bc 70060000 		.4byte	.LVL223
 3738 12c0 C2130000 		.4byte	0x13c2
 3739 12c4 CF120000 		.4byte	0x12cf
 3740 12c8 1E       		.uleb128 0x1e
 3741 12c9 01       		.byte	0x1
 3742 12ca 50       		.byte	0x50
 3743 12cb 02       		.byte	0x2
 3744 12cc 08       		.byte	0x8
 3745 12cd 2D       		.byte	0x2d
 3746 12ce 00       		.byte	0
 3747 12cf 1F       		.uleb128 0x1f
 3748 12d0 76060000 		.4byte	.LVL224
 3749 12d4 50140000 		.4byte	0x1450
 3750 12d8 1F       		.uleb128 0x1f
 3751 12d9 86060000 		.4byte	.LVL229
 3752 12dd 29140000 		.4byte	0x1429
 3753 12e1 1D       		.uleb128 0x1d
 3754 12e2 96060000 		.4byte	.LVL230
 3755 12e6 C2130000 		.4byte	0x13c2
ARM GAS  C:\cygwin\tmp\ccyJ3soa.s 			page 67


 3756 12ea F5120000 		.4byte	0x12f5
 3757 12ee 1E       		.uleb128 0x1e
 3758 12ef 01       		.byte	0x1
 3759 12f0 50       		.byte	0x50
 3760 12f1 02       		.byte	0x2
 3761 12f2 08       		.byte	0x8
 3762 12f3 2E       		.byte	0x2e
 3763 12f4 00       		.byte	0
 3764 12f5 1F       		.uleb128 0x1f
 3765 12f6 9C060000 		.4byte	.LVL231
 3766 12fa 50140000 		.4byte	0x1450
 3767 12fe 1F       		.uleb128 0x1f
 3768 12ff AC060000 		.4byte	.LVL236
 3769 1303 29140000 		.4byte	0x1429
 3770 1307 1D       		.uleb128 0x1d
 3771 1308 BC060000 		.4byte	.LVL237
 3772 130c C2130000 		.4byte	0x13c2
 3773 1310 1B130000 		.4byte	0x131b
 3774 1314 1E       		.uleb128 0x1e
 3775 1315 01       		.byte	0x1
 3776 1316 50       		.byte	0x50
 3777 1317 02       		.byte	0x2
 3778 1318 08       		.byte	0x8
 3779 1319 2F       		.byte	0x2f
 3780 131a 00       		.byte	0
 3781 131b 1F       		.uleb128 0x1f
 3782 131c C0060000 		.4byte	.LVL238
 3783 1320 50140000 		.4byte	0x1450
 3784 1324 1F       		.uleb128 0x1f
 3785 1325 CC060000 		.4byte	.LVL241
 3786 1329 50140000 		.4byte	0x1450
 3787 132d 00       		.byte	0
 3788 132e 20       		.uleb128 0x20
 3789 132f B5010000 		.4byte	.LASF79
 3790 1333 01       		.byte	0x1
 3791 1334 4B       		.byte	0x4b
 3792 1335 01       		.byte	0x1
 3793 1336 00000000 		.4byte	.LFB7
 3794 133a 16000000 		.4byte	.LFE7
 3795 133e 02       		.byte	0x2
 3796 133f 7D       		.byte	0x7d
 3797 1340 00       		.sleb128 0
 3798 1341 01       		.byte	0x1
 3799 1342 60130000 		.4byte	0x1360
 3800 1346 21       		.uleb128 0x21
 3801 1347 16000000 		.4byte	.LVL243
 3802 134b 01       		.byte	0x1
 3803 134c 01150000 		.4byte	0x1501
 3804 1350 1E       		.uleb128 0x1e
 3805 1351 01       		.byte	0x1
 3806 1352 52       		.byte	0x52
 3807 1353 01       		.byte	0x1
 3808 1354 35       		.byte	0x35
 3809 1355 1E       		.uleb128 0x1e
 3810 1356 01       		.byte	0x1
 3811 1357 50       		.byte	0x50
 3812 1358 05       		.byte	0x5
ARM GAS  C:\cygwin\tmp\ccyJ3soa.s 			page 68


 3813 1359 03       		.byte	0x3
 3814 135a 00000000 		.4byte	.LANCHOR0
 3815 135e 00       		.byte	0
 3816 135f 00       		.byte	0
 3817 1360 22       		.uleb128 0x22
 3818 1361 6D623100 		.ascii	"mb1\000"
 3819 1365 01       		.byte	0x1
 3820 1366 40       		.byte	0x40
 3821 1367 5A040000 		.4byte	0x45a
 3822 136b 05       		.byte	0x5
 3823 136c 03       		.byte	0x3
 3824 136d 00000000 		.4byte	mb1
 3825 1371 23       		.uleb128 0x23
 3826 1372 63000000 		.4byte	.LASF80
 3827 1376 0A       		.byte	0xa
 3828 1377 AA       		.byte	0xaa
 3829 1378 64050000 		.4byte	0x564
 3830 137c 01       		.byte	0x1
 3831 137d 01       		.byte	0x1
 3832 137e 24       		.uleb128 0x24
 3833 137f 24020000 		.4byte	.LASF81
 3834 1383 01       		.byte	0x1
 3835 1384 E2       		.byte	0xe2
 3836 1385 90130000 		.4byte	0x1390
 3837 1389 01       		.byte	0x1
 3838 138a 05       		.byte	0x5
 3839 138b 03       		.byte	0x3
 3840 138c 00000000 		.4byte	testmbox1
 3841 1390 10       		.uleb128 0x10
 3842 1391 B8040000 		.4byte	0x4b8
 3843 1395 13       		.uleb128 0x13
 3844 1396 A5130000 		.4byte	0x13a5
 3845 139a A5130000 		.4byte	0x13a5
 3846 139e 14       		.uleb128 0x14
 3847 139f 6F030000 		.4byte	0x36f
 3848 13a3 01       		.byte	0x1
 3849 13a4 00       		.byte	0
 3850 13a5 09       		.uleb128 0x9
 3851 13a6 04       		.byte	0x4
 3852 13a7 90130000 		.4byte	0x1390
 3853 13ab 24       		.uleb128 0x24
 3854 13ac 4E000000 		.4byte	.LASF82
 3855 13b0 01       		.byte	0x1
 3856 13b1 EE       		.byte	0xee
 3857 13b2 BD130000 		.4byte	0x13bd
 3858 13b6 01       		.byte	0x1
 3859 13b7 05       		.byte	0x5
 3860 13b8 03       		.byte	0x3
 3861 13b9 00000000 		.4byte	patternmbox
 3862 13bd 10       		.uleb128 0x10
 3863 13be 95130000 		.4byte	0x1395
 3864 13c2 25       		.uleb128 0x25
 3865 13c3 01       		.byte	0x1
 3866 13c4 F6030000 		.4byte	.LASF83
 3867 13c8 0A       		.byte	0xa
 3868 13c9 5C       		.byte	0x5c
 3869 13ca 01       		.byte	0x1
ARM GAS  C:\cygwin\tmp\ccyJ3soa.s 			page 69


 3870 13cb 9B000000 		.4byte	0x9b
 3871 13cf 01       		.byte	0x1
 3872 13d0 DF130000 		.4byte	0x13df
 3873 13d4 26       		.uleb128 0x26
 3874 13d5 30000000 		.4byte	0x30
 3875 13d9 26       		.uleb128 0x26
 3876 13da 9B000000 		.4byte	0x9b
 3877 13de 00       		.byte	0
 3878 13df 25       		.uleb128 0x25
 3879 13e0 01       		.byte	0x1
 3880 13e1 DC000000 		.4byte	.LASF84
 3881 13e5 09       		.byte	0x9
 3882 13e6 3E       		.byte	0x3e
 3883 13e7 01       		.byte	0x1
 3884 13e8 E4000000 		.4byte	0xe4
 3885 13ec 01       		.byte	0x1
 3886 13ed 01140000 		.4byte	0x1401
 3887 13f1 26       		.uleb128 0x26
 3888 13f2 01140000 		.4byte	0x1401
 3889 13f6 26       		.uleb128 0x26
 3890 13f7 E4000000 		.4byte	0xe4
 3891 13fb 26       		.uleb128 0x26
 3892 13fc FA000000 		.4byte	0xfa
 3893 1400 00       		.byte	0
 3894 1401 09       		.uleb128 0x9
 3895 1402 04       		.byte	0x4
 3896 1403 5A040000 		.4byte	0x45a
 3897 1407 25       		.uleb128 0x25
 3898 1408 01       		.byte	0x1
 3899 1409 8D030000 		.4byte	.LASF85
 3900 140d 09       		.byte	0x9
 3901 140e 41       		.byte	0x41
 3902 140f 01       		.byte	0x1
 3903 1410 E4000000 		.4byte	0xe4
 3904 1414 01       		.byte	0x1
 3905 1415 29140000 		.4byte	0x1429
 3906 1419 26       		.uleb128 0x26
 3907 141a 01140000 		.4byte	0x1401
 3908 141e 26       		.uleb128 0x26
 3909 141f E4000000 		.4byte	0xe4
 3910 1423 26       		.uleb128 0x26
 3911 1424 FA000000 		.4byte	0xfa
 3912 1428 00       		.byte	0
 3913 1429 27       		.uleb128 0x27
 3914 142a 01       		.byte	0x1
 3915 142b 9C020000 		.4byte	.LASF87
 3916 142f 0B       		.byte	0xb
 3917 1430 E0       		.byte	0xe0
 3918 1431 01       		.byte	0x1
 3919 1432 01       		.byte	0x1
 3920 1433 25       		.uleb128 0x25
 3921 1434 01       		.byte	0x1
 3922 1435 16000000 		.4byte	.LASF86
 3923 1439 09       		.byte	0x9
 3924 143a 40       		.byte	0x40
 3925 143b 01       		.byte	0x1
 3926 143c E4000000 		.4byte	0xe4
ARM GAS  C:\cygwin\tmp\ccyJ3soa.s 			page 70


 3927 1440 01       		.byte	0x1
 3928 1441 50140000 		.4byte	0x1450
 3929 1445 26       		.uleb128 0x26
 3930 1446 01140000 		.4byte	0x1401
 3931 144a 26       		.uleb128 0x26
 3932 144b E4000000 		.4byte	0xe4
 3933 144f 00       		.byte	0
 3934 1450 27       		.uleb128 0x27
 3935 1451 01       		.byte	0x1
 3936 1452 AB020000 		.4byte	.LASF88
 3937 1456 0B       		.byte	0xb
 3938 1457 E1       		.byte	0xe1
 3939 1458 01       		.byte	0x1
 3940 1459 01       		.byte	0x1
 3941 145a 25       		.uleb128 0x25
 3942 145b 01       		.byte	0x1
 3943 145c 28000000 		.4byte	.LASF89
 3944 1460 09       		.byte	0x9
 3945 1461 43       		.byte	0x43
 3946 1462 01       		.byte	0x1
 3947 1463 E4000000 		.4byte	0xe4
 3948 1467 01       		.byte	0x1
 3949 1468 77140000 		.4byte	0x1477
 3950 146c 26       		.uleb128 0x26
 3951 146d 01140000 		.4byte	0x1401
 3952 1471 26       		.uleb128 0x26
 3953 1472 E4000000 		.4byte	0xe4
 3954 1476 00       		.byte	0
 3955 1477 25       		.uleb128 0x25
 3956 1478 01       		.byte	0x1
 3957 1479 AD030000 		.4byte	.LASF90
 3958 147d 09       		.byte	0x9
 3959 147e 44       		.byte	0x44
 3960 147f 01       		.byte	0x1
 3961 1480 E4000000 		.4byte	0xe4
 3962 1484 01       		.byte	0x1
 3963 1485 99140000 		.4byte	0x1499
 3964 1489 26       		.uleb128 0x26
 3965 148a 01140000 		.4byte	0x1401
 3966 148e 26       		.uleb128 0x26
 3967 148f 54040000 		.4byte	0x454
 3968 1493 26       		.uleb128 0x26
 3969 1494 FA000000 		.4byte	0xfa
 3970 1498 00       		.byte	0
 3971 1499 28       		.uleb128 0x28
 3972 149a 01       		.byte	0x1
 3973 149b C2000000 		.4byte	.LASF93
 3974 149f 0A       		.byte	0xa
 3975 14a0 5A       		.byte	0x5a
 3976 14a1 01       		.byte	0x1
 3977 14a2 01       		.byte	0x1
 3978 14a3 AD140000 		.4byte	0x14ad
 3979 14a7 26       		.uleb128 0x26
 3980 14a8 A5040000 		.4byte	0x4a5
 3981 14ac 00       		.byte	0
 3982 14ad 25       		.uleb128 0x25
 3983 14ae 01       		.byte	0x1
ARM GAS  C:\cygwin\tmp\ccyJ3soa.s 			page 71


 3984 14af 70020000 		.4byte	.LASF91
 3985 14b3 0A       		.byte	0xa
 3986 14b4 5D       		.byte	0x5d
 3987 14b5 01       		.byte	0x1
 3988 14b6 9B000000 		.4byte	0x9b
 3989 14ba 01       		.byte	0x1
 3990 14bb CA140000 		.4byte	0x14ca
 3991 14bf 26       		.uleb128 0x26
 3992 14c0 30000000 		.4byte	0x30
 3993 14c4 26       		.uleb128 0x26
 3994 14c5 CA140000 		.4byte	0x14ca
 3995 14c9 00       		.byte	0
 3996 14ca 09       		.uleb128 0x9
 3997 14cb 04       		.byte	0x4
 3998 14cc A5040000 		.4byte	0x4a5
 3999 14d0 25       		.uleb128 0x25
 4000 14d1 01       		.byte	0x1
 4001 14d2 9C010000 		.4byte	.LASF92
 4002 14d6 09       		.byte	0x9
 4003 14d7 46       		.byte	0x46
 4004 14d8 01       		.byte	0x1
 4005 14d9 E4000000 		.4byte	0xe4
 4006 14dd 01       		.byte	0x1
 4007 14de ED140000 		.4byte	0x14ed
 4008 14e2 26       		.uleb128 0x26
 4009 14e3 01140000 		.4byte	0x1401
 4010 14e7 26       		.uleb128 0x26
 4011 14e8 54040000 		.4byte	0x454
 4012 14ec 00       		.byte	0
 4013 14ed 28       		.uleb128 0x28
 4014 14ee 01       		.byte	0x1
 4015 14ef 4B020000 		.4byte	.LASF94
 4016 14f3 09       		.byte	0x9
 4017 14f4 3D       		.byte	0x3d
 4018 14f5 01       		.byte	0x1
 4019 14f6 01       		.byte	0x1
 4020 14f7 01150000 		.4byte	0x1501
 4021 14fb 26       		.uleb128 0x26
 4022 14fc 01140000 		.4byte	0x1401
 4023 1500 00       		.byte	0
 4024 1501 29       		.uleb128 0x29
 4025 1502 01       		.byte	0x1
 4026 1503 2E010000 		.4byte	.LASF100
 4027 1507 09       		.byte	0x9
 4028 1508 3C       		.byte	0x3c
 4029 1509 01       		.byte	0x1
 4030 150a 01       		.byte	0x1
 4031 150b 26       		.uleb128 0x26
 4032 150c 01140000 		.4byte	0x1401
 4033 1510 26       		.uleb128 0x26
 4034 1511 54040000 		.4byte	0x454
 4035 1515 26       		.uleb128 0x26
 4036 1516 05010000 		.4byte	0x105
 4037 151a 00       		.byte	0
 4038 151b 00       		.byte	0
 4039              		.section	.debug_abbrev,"",%progbits
 4040              	.Ldebug_abbrev0:
ARM GAS  C:\cygwin\tmp\ccyJ3soa.s 			page 72


 4041 0000 01       		.uleb128 0x1
 4042 0001 11       		.uleb128 0x11
 4043 0002 01       		.byte	0x1
 4044 0003 25       		.uleb128 0x25
 4045 0004 0E       		.uleb128 0xe
 4046 0005 13       		.uleb128 0x13
 4047 0006 0B       		.uleb128 0xb
 4048 0007 03       		.uleb128 0x3
 4049 0008 0E       		.uleb128 0xe
 4050 0009 1B       		.uleb128 0x1b
 4051 000a 0E       		.uleb128 0xe
 4052 000b 55       		.uleb128 0x55
 4053 000c 06       		.uleb128 0x6
 4054 000d 11       		.uleb128 0x11
 4055 000e 01       		.uleb128 0x1
 4056 000f 52       		.uleb128 0x52
 4057 0010 01       		.uleb128 0x1
 4058 0011 10       		.uleb128 0x10
 4059 0012 06       		.uleb128 0x6
 4060 0013 00       		.byte	0
 4061 0014 00       		.byte	0
 4062 0015 02       		.uleb128 0x2
 4063 0016 24       		.uleb128 0x24
 4064 0017 00       		.byte	0
 4065 0018 0B       		.uleb128 0xb
 4066 0019 0B       		.uleb128 0xb
 4067 001a 3E       		.uleb128 0x3e
 4068 001b 0B       		.uleb128 0xb
 4069 001c 03       		.uleb128 0x3
 4070 001d 08       		.uleb128 0x8
 4071 001e 00       		.byte	0
 4072 001f 00       		.byte	0
 4073 0020 03       		.uleb128 0x3
 4074 0021 24       		.uleb128 0x24
 4075 0022 00       		.byte	0
 4076 0023 0B       		.uleb128 0xb
 4077 0024 0B       		.uleb128 0xb
 4078 0025 3E       		.uleb128 0x3e
 4079 0026 0B       		.uleb128 0xb
 4080 0027 03       		.uleb128 0x3
 4081 0028 0E       		.uleb128 0xe
 4082 0029 00       		.byte	0
 4083 002a 00       		.byte	0
 4084 002b 04       		.uleb128 0x4
 4085 002c 16       		.uleb128 0x16
 4086 002d 00       		.byte	0
 4087 002e 03       		.uleb128 0x3
 4088 002f 0E       		.uleb128 0xe
 4089 0030 3A       		.uleb128 0x3a
 4090 0031 0B       		.uleb128 0xb
 4091 0032 3B       		.uleb128 0x3b
 4092 0033 0B       		.uleb128 0xb
 4093 0034 49       		.uleb128 0x49
 4094 0035 13       		.uleb128 0x13
 4095 0036 00       		.byte	0
 4096 0037 00       		.byte	0
 4097 0038 05       		.uleb128 0x5
ARM GAS  C:\cygwin\tmp\ccyJ3soa.s 			page 73


 4098 0039 13       		.uleb128 0x13
 4099 003a 01       		.byte	0x1
 4100 003b 03       		.uleb128 0x3
 4101 003c 0E       		.uleb128 0xe
 4102 003d 0B       		.uleb128 0xb
 4103 003e 0B       		.uleb128 0xb
 4104 003f 3A       		.uleb128 0x3a
 4105 0040 0B       		.uleb128 0xb
 4106 0041 3B       		.uleb128 0x3b
 4107 0042 0B       		.uleb128 0xb
 4108 0043 01       		.uleb128 0x1
 4109 0044 13       		.uleb128 0x13
 4110 0045 00       		.byte	0
 4111 0046 00       		.byte	0
 4112 0047 06       		.uleb128 0x6
 4113 0048 0D       		.uleb128 0xd
 4114 0049 00       		.byte	0
 4115 004a 03       		.uleb128 0x3
 4116 004b 0E       		.uleb128 0xe
 4117 004c 3A       		.uleb128 0x3a
 4118 004d 0B       		.uleb128 0xb
 4119 004e 3B       		.uleb128 0x3b
 4120 004f 0B       		.uleb128 0xb
 4121 0050 49       		.uleb128 0x49
 4122 0051 13       		.uleb128 0x13
 4123 0052 38       		.uleb128 0x38
 4124 0053 0A       		.uleb128 0xa
 4125 0054 00       		.byte	0
 4126 0055 00       		.byte	0
 4127 0056 07       		.uleb128 0x7
 4128 0057 0D       		.uleb128 0xd
 4129 0058 00       		.byte	0
 4130 0059 03       		.uleb128 0x3
 4131 005a 08       		.uleb128 0x8
 4132 005b 3A       		.uleb128 0x3a
 4133 005c 0B       		.uleb128 0xb
 4134 005d 3B       		.uleb128 0x3b
 4135 005e 0B       		.uleb128 0xb
 4136 005f 49       		.uleb128 0x49
 4137 0060 13       		.uleb128 0x13
 4138 0061 38       		.uleb128 0x38
 4139 0062 0A       		.uleb128 0xa
 4140 0063 00       		.byte	0
 4141 0064 00       		.byte	0
 4142 0065 08       		.uleb128 0x8
 4143 0066 13       		.uleb128 0x13
 4144 0067 01       		.byte	0x1
 4145 0068 0B       		.uleb128 0xb
 4146 0069 0B       		.uleb128 0xb
 4147 006a 3A       		.uleb128 0x3a
 4148 006b 0B       		.uleb128 0xb
 4149 006c 3B       		.uleb128 0x3b
 4150 006d 0B       		.uleb128 0xb
 4151 006e 01       		.uleb128 0x1
 4152 006f 13       		.uleb128 0x13
 4153 0070 00       		.byte	0
 4154 0071 00       		.byte	0
ARM GAS  C:\cygwin\tmp\ccyJ3soa.s 			page 74


 4155 0072 09       		.uleb128 0x9
 4156 0073 0F       		.uleb128 0xf
 4157 0074 00       		.byte	0
 4158 0075 0B       		.uleb128 0xb
 4159 0076 0B       		.uleb128 0xb
 4160 0077 49       		.uleb128 0x49
 4161 0078 13       		.uleb128 0x13
 4162 0079 00       		.byte	0
 4163 007a 00       		.byte	0
 4164 007b 0A       		.uleb128 0xa
 4165 007c 0F       		.uleb128 0xf
 4166 007d 00       		.byte	0
 4167 007e 0B       		.uleb128 0xb
 4168 007f 0B       		.uleb128 0xb
 4169 0080 00       		.byte	0
 4170 0081 00       		.byte	0
 4171 0082 0B       		.uleb128 0xb
 4172 0083 13       		.uleb128 0x13
 4173 0084 01       		.byte	0x1
 4174 0085 03       		.uleb128 0x3
 4175 0086 0E       		.uleb128 0xe
 4176 0087 0B       		.uleb128 0xb
 4177 0088 0B       		.uleb128 0xb
 4178 0089 3A       		.uleb128 0x3a
 4179 008a 0B       		.uleb128 0xb
 4180 008b 3B       		.uleb128 0x3b
 4181 008c 05       		.uleb128 0x5
 4182 008d 01       		.uleb128 0x1
 4183 008e 13       		.uleb128 0x13
 4184 008f 00       		.byte	0
 4185 0090 00       		.byte	0
 4186 0091 0C       		.uleb128 0xc
 4187 0092 0D       		.uleb128 0xd
 4188 0093 00       		.byte	0
 4189 0094 03       		.uleb128 0x3
 4190 0095 08       		.uleb128 0x8
 4191 0096 3A       		.uleb128 0x3a
 4192 0097 0B       		.uleb128 0xb
 4193 0098 3B       		.uleb128 0x3b
 4194 0099 05       		.uleb128 0x5
 4195 009a 49       		.uleb128 0x49
 4196 009b 13       		.uleb128 0x13
 4197 009c 38       		.uleb128 0x38
 4198 009d 0A       		.uleb128 0xa
 4199 009e 00       		.byte	0
 4200 009f 00       		.byte	0
 4201 00a0 0D       		.uleb128 0xd
 4202 00a1 35       		.uleb128 0x35
 4203 00a2 00       		.byte	0
 4204 00a3 49       		.uleb128 0x49
 4205 00a4 13       		.uleb128 0x13
 4206 00a5 00       		.byte	0
 4207 00a6 00       		.byte	0
 4208 00a7 0E       		.uleb128 0xe
 4209 00a8 17       		.uleb128 0x17
 4210 00a9 01       		.byte	0x1
 4211 00aa 0B       		.uleb128 0xb
ARM GAS  C:\cygwin\tmp\ccyJ3soa.s 			page 75


 4212 00ab 0B       		.uleb128 0xb
 4213 00ac 3A       		.uleb128 0x3a
 4214 00ad 0B       		.uleb128 0xb
 4215 00ae 3B       		.uleb128 0x3b
 4216 00af 0B       		.uleb128 0xb
 4217 00b0 01       		.uleb128 0x1
 4218 00b1 13       		.uleb128 0x13
 4219 00b2 00       		.byte	0
 4220 00b3 00       		.byte	0
 4221 00b4 0F       		.uleb128 0xf
 4222 00b5 0D       		.uleb128 0xd
 4223 00b6 00       		.byte	0
 4224 00b7 03       		.uleb128 0x3
 4225 00b8 0E       		.uleb128 0xe
 4226 00b9 3A       		.uleb128 0x3a
 4227 00ba 0B       		.uleb128 0xb
 4228 00bb 3B       		.uleb128 0x3b
 4229 00bc 0B       		.uleb128 0xb
 4230 00bd 49       		.uleb128 0x49
 4231 00be 13       		.uleb128 0x13
 4232 00bf 00       		.byte	0
 4233 00c0 00       		.byte	0
 4234 00c1 10       		.uleb128 0x10
 4235 00c2 26       		.uleb128 0x26
 4236 00c3 00       		.byte	0
 4237 00c4 49       		.uleb128 0x49
 4238 00c5 13       		.uleb128 0x13
 4239 00c6 00       		.byte	0
 4240 00c7 00       		.byte	0
 4241 00c8 11       		.uleb128 0x11
 4242 00c9 15       		.uleb128 0x15
 4243 00ca 00       		.byte	0
 4244 00cb 27       		.uleb128 0x27
 4245 00cc 0C       		.uleb128 0xc
 4246 00cd 00       		.byte	0
 4247 00ce 00       		.byte	0
 4248 00cf 12       		.uleb128 0x12
 4249 00d0 13       		.uleb128 0x13
 4250 00d1 01       		.byte	0x1
 4251 00d2 0B       		.uleb128 0xb
 4252 00d3 05       		.uleb128 0x5
 4253 00d4 3A       		.uleb128 0x3a
 4254 00d5 0B       		.uleb128 0xb
 4255 00d6 3B       		.uleb128 0x3b
 4256 00d7 0B       		.uleb128 0xb
 4257 00d8 01       		.uleb128 0x1
 4258 00d9 13       		.uleb128 0x13
 4259 00da 00       		.byte	0
 4260 00db 00       		.byte	0
 4261 00dc 13       		.uleb128 0x13
 4262 00dd 01       		.uleb128 0x1
 4263 00de 01       		.byte	0x1
 4264 00df 49       		.uleb128 0x49
 4265 00e0 13       		.uleb128 0x13
 4266 00e1 01       		.uleb128 0x1
 4267 00e2 13       		.uleb128 0x13
 4268 00e3 00       		.byte	0
ARM GAS  C:\cygwin\tmp\ccyJ3soa.s 			page 76


 4269 00e4 00       		.byte	0
 4270 00e5 14       		.uleb128 0x14
 4271 00e6 21       		.uleb128 0x21
 4272 00e7 00       		.byte	0
 4273 00e8 49       		.uleb128 0x49
 4274 00e9 13       		.uleb128 0x13
 4275 00ea 2F       		.uleb128 0x2f
 4276 00eb 0B       		.uleb128 0xb
 4277 00ec 00       		.byte	0
 4278 00ed 00       		.byte	0
 4279 00ee 15       		.uleb128 0x15
 4280 00ef 17       		.uleb128 0x17
 4281 00f0 01       		.byte	0x1
 4282 00f1 03       		.uleb128 0x3
 4283 00f2 0E       		.uleb128 0xe
 4284 00f3 0B       		.uleb128 0xb
 4285 00f4 05       		.uleb128 0x5
 4286 00f5 3A       		.uleb128 0x3a
 4287 00f6 0B       		.uleb128 0xb
 4288 00f7 3B       		.uleb128 0x3b
 4289 00f8 0B       		.uleb128 0xb
 4290 00f9 01       		.uleb128 0x1
 4291 00fa 13       		.uleb128 0x13
 4292 00fb 00       		.byte	0
 4293 00fc 00       		.byte	0
 4294 00fd 16       		.uleb128 0x16
 4295 00fe 0D       		.uleb128 0xd
 4296 00ff 00       		.byte	0
 4297 0100 03       		.uleb128 0x3
 4298 0101 08       		.uleb128 0x8
 4299 0102 3A       		.uleb128 0x3a
 4300 0103 0B       		.uleb128 0xb
 4301 0104 3B       		.uleb128 0x3b
 4302 0105 0B       		.uleb128 0xb
 4303 0106 49       		.uleb128 0x49
 4304 0107 13       		.uleb128 0x13
 4305 0108 00       		.byte	0
 4306 0109 00       		.byte	0
 4307 010a 17       		.uleb128 0x17
 4308 010b 21       		.uleb128 0x21
 4309 010c 00       		.byte	0
 4310 010d 49       		.uleb128 0x49
 4311 010e 13       		.uleb128 0x13
 4312 010f 2F       		.uleb128 0x2f
 4313 0110 05       		.uleb128 0x5
 4314 0111 00       		.byte	0
 4315 0112 00       		.byte	0
 4316 0113 18       		.uleb128 0x18
 4317 0114 2E       		.uleb128 0x2e
 4318 0115 01       		.byte	0x1
 4319 0116 03       		.uleb128 0x3
 4320 0117 0E       		.uleb128 0xe
 4321 0118 3A       		.uleb128 0x3a
 4322 0119 0B       		.uleb128 0xb
 4323 011a 3B       		.uleb128 0x3b
 4324 011b 0B       		.uleb128 0xb
 4325 011c 27       		.uleb128 0x27
ARM GAS  C:\cygwin\tmp\ccyJ3soa.s 			page 77


 4326 011d 0C       		.uleb128 0xc
 4327 011e 11       		.uleb128 0x11
 4328 011f 01       		.uleb128 0x1
 4329 0120 12       		.uleb128 0x12
 4330 0121 01       		.uleb128 0x1
 4331 0122 40       		.uleb128 0x40
 4332 0123 06       		.uleb128 0x6
 4333 0124 9742     		.uleb128 0x2117
 4334 0126 0C       		.uleb128 0xc
 4335 0127 01       		.uleb128 0x1
 4336 0128 13       		.uleb128 0x13
 4337 0129 00       		.byte	0
 4338 012a 00       		.byte	0
 4339 012b 19       		.uleb128 0x19
 4340 012c 34       		.uleb128 0x34
 4341 012d 00       		.byte	0
 4342 012e 03       		.uleb128 0x3
 4343 012f 0E       		.uleb128 0xe
 4344 0130 3A       		.uleb128 0x3a
 4345 0131 0B       		.uleb128 0xb
 4346 0132 3B       		.uleb128 0x3b
 4347 0133 0B       		.uleb128 0xb
 4348 0134 49       		.uleb128 0x49
 4349 0135 13       		.uleb128 0x13
 4350 0136 02       		.uleb128 0x2
 4351 0137 06       		.uleb128 0x6
 4352 0138 00       		.byte	0
 4353 0139 00       		.byte	0
 4354 013a 1A       		.uleb128 0x1a
 4355 013b 34       		.uleb128 0x34
 4356 013c 00       		.byte	0
 4357 013d 03       		.uleb128 0x3
 4358 013e 0E       		.uleb128 0xe
 4359 013f 3A       		.uleb128 0x3a
 4360 0140 0B       		.uleb128 0xb
 4361 0141 3B       		.uleb128 0x3b
 4362 0142 0B       		.uleb128 0xb
 4363 0143 49       		.uleb128 0x49
 4364 0144 13       		.uleb128 0x13
 4365 0145 00       		.byte	0
 4366 0146 00       		.byte	0
 4367 0147 1B       		.uleb128 0x1b
 4368 0148 34       		.uleb128 0x34
 4369 0149 00       		.byte	0
 4370 014a 03       		.uleb128 0x3
 4371 014b 08       		.uleb128 0x8
 4372 014c 3A       		.uleb128 0x3a
 4373 014d 0B       		.uleb128 0xb
 4374 014e 3B       		.uleb128 0x3b
 4375 014f 0B       		.uleb128 0xb
 4376 0150 49       		.uleb128 0x49
 4377 0151 13       		.uleb128 0x13
 4378 0152 02       		.uleb128 0x2
 4379 0153 06       		.uleb128 0x6
 4380 0154 00       		.byte	0
 4381 0155 00       		.byte	0
 4382 0156 1C       		.uleb128 0x1c
ARM GAS  C:\cygwin\tmp\ccyJ3soa.s 			page 78


 4383 0157 0B       		.uleb128 0xb
 4384 0158 01       		.byte	0x1
 4385 0159 11       		.uleb128 0x11
 4386 015a 01       		.uleb128 0x1
 4387 015b 12       		.uleb128 0x12
 4388 015c 01       		.uleb128 0x1
 4389 015d 01       		.uleb128 0x1
 4390 015e 13       		.uleb128 0x13
 4391 015f 00       		.byte	0
 4392 0160 00       		.byte	0
 4393 0161 1D       		.uleb128 0x1d
 4394 0162 898201   		.uleb128 0x4109
 4395 0165 01       		.byte	0x1
 4396 0166 11       		.uleb128 0x11
 4397 0167 01       		.uleb128 0x1
 4398 0168 31       		.uleb128 0x31
 4399 0169 13       		.uleb128 0x13
 4400 016a 01       		.uleb128 0x1
 4401 016b 13       		.uleb128 0x13
 4402 016c 00       		.byte	0
 4403 016d 00       		.byte	0
 4404 016e 1E       		.uleb128 0x1e
 4405 016f 8A8201   		.uleb128 0x410a
 4406 0172 00       		.byte	0
 4407 0173 02       		.uleb128 0x2
 4408 0174 0A       		.uleb128 0xa
 4409 0175 9142     		.uleb128 0x2111
 4410 0177 0A       		.uleb128 0xa
 4411 0178 00       		.byte	0
 4412 0179 00       		.byte	0
 4413 017a 1F       		.uleb128 0x1f
 4414 017b 898201   		.uleb128 0x4109
 4415 017e 00       		.byte	0
 4416 017f 11       		.uleb128 0x11
 4417 0180 01       		.uleb128 0x1
 4418 0181 31       		.uleb128 0x31
 4419 0182 13       		.uleb128 0x13
 4420 0183 00       		.byte	0
 4421 0184 00       		.byte	0
 4422 0185 20       		.uleb128 0x20
 4423 0186 2E       		.uleb128 0x2e
 4424 0187 01       		.byte	0x1
 4425 0188 03       		.uleb128 0x3
 4426 0189 0E       		.uleb128 0xe
 4427 018a 3A       		.uleb128 0x3a
 4428 018b 0B       		.uleb128 0xb
 4429 018c 3B       		.uleb128 0x3b
 4430 018d 0B       		.uleb128 0xb
 4431 018e 27       		.uleb128 0x27
 4432 018f 0C       		.uleb128 0xc
 4433 0190 11       		.uleb128 0x11
 4434 0191 01       		.uleb128 0x1
 4435 0192 12       		.uleb128 0x12
 4436 0193 01       		.uleb128 0x1
 4437 0194 40       		.uleb128 0x40
 4438 0195 0A       		.uleb128 0xa
 4439 0196 9742     		.uleb128 0x2117
ARM GAS  C:\cygwin\tmp\ccyJ3soa.s 			page 79


 4440 0198 0C       		.uleb128 0xc
 4441 0199 01       		.uleb128 0x1
 4442 019a 13       		.uleb128 0x13
 4443 019b 00       		.byte	0
 4444 019c 00       		.byte	0
 4445 019d 21       		.uleb128 0x21
 4446 019e 898201   		.uleb128 0x4109
 4447 01a1 01       		.byte	0x1
 4448 01a2 11       		.uleb128 0x11
 4449 01a3 01       		.uleb128 0x1
 4450 01a4 9542     		.uleb128 0x2115
 4451 01a6 0C       		.uleb128 0xc
 4452 01a7 31       		.uleb128 0x31
 4453 01a8 13       		.uleb128 0x13
 4454 01a9 00       		.byte	0
 4455 01aa 00       		.byte	0
 4456 01ab 22       		.uleb128 0x22
 4457 01ac 34       		.uleb128 0x34
 4458 01ad 00       		.byte	0
 4459 01ae 03       		.uleb128 0x3
 4460 01af 08       		.uleb128 0x8
 4461 01b0 3A       		.uleb128 0x3a
 4462 01b1 0B       		.uleb128 0xb
 4463 01b2 3B       		.uleb128 0x3b
 4464 01b3 0B       		.uleb128 0xb
 4465 01b4 49       		.uleb128 0x49
 4466 01b5 13       		.uleb128 0x13
 4467 01b6 02       		.uleb128 0x2
 4468 01b7 0A       		.uleb128 0xa
 4469 01b8 00       		.byte	0
 4470 01b9 00       		.byte	0
 4471 01ba 23       		.uleb128 0x23
 4472 01bb 34       		.uleb128 0x34
 4473 01bc 00       		.byte	0
 4474 01bd 03       		.uleb128 0x3
 4475 01be 0E       		.uleb128 0xe
 4476 01bf 3A       		.uleb128 0x3a
 4477 01c0 0B       		.uleb128 0xb
 4478 01c1 3B       		.uleb128 0x3b
 4479 01c2 0B       		.uleb128 0xb
 4480 01c3 49       		.uleb128 0x49
 4481 01c4 13       		.uleb128 0x13
 4482 01c5 3F       		.uleb128 0x3f
 4483 01c6 0C       		.uleb128 0xc
 4484 01c7 3C       		.uleb128 0x3c
 4485 01c8 0C       		.uleb128 0xc
 4486 01c9 00       		.byte	0
 4487 01ca 00       		.byte	0
 4488 01cb 24       		.uleb128 0x24
 4489 01cc 34       		.uleb128 0x34
 4490 01cd 00       		.byte	0
 4491 01ce 03       		.uleb128 0x3
 4492 01cf 0E       		.uleb128 0xe
 4493 01d0 3A       		.uleb128 0x3a
 4494 01d1 0B       		.uleb128 0xb
 4495 01d2 3B       		.uleb128 0x3b
 4496 01d3 0B       		.uleb128 0xb
ARM GAS  C:\cygwin\tmp\ccyJ3soa.s 			page 80


 4497 01d4 49       		.uleb128 0x49
 4498 01d5 13       		.uleb128 0x13
 4499 01d6 3F       		.uleb128 0x3f
 4500 01d7 0C       		.uleb128 0xc
 4501 01d8 02       		.uleb128 0x2
 4502 01d9 0A       		.uleb128 0xa
 4503 01da 00       		.byte	0
 4504 01db 00       		.byte	0
 4505 01dc 25       		.uleb128 0x25
 4506 01dd 2E       		.uleb128 0x2e
 4507 01de 01       		.byte	0x1
 4508 01df 3F       		.uleb128 0x3f
 4509 01e0 0C       		.uleb128 0xc
 4510 01e1 03       		.uleb128 0x3
 4511 01e2 0E       		.uleb128 0xe
 4512 01e3 3A       		.uleb128 0x3a
 4513 01e4 0B       		.uleb128 0xb
 4514 01e5 3B       		.uleb128 0x3b
 4515 01e6 0B       		.uleb128 0xb
 4516 01e7 27       		.uleb128 0x27
 4517 01e8 0C       		.uleb128 0xc
 4518 01e9 49       		.uleb128 0x49
 4519 01ea 13       		.uleb128 0x13
 4520 01eb 3C       		.uleb128 0x3c
 4521 01ec 0C       		.uleb128 0xc
 4522 01ed 01       		.uleb128 0x1
 4523 01ee 13       		.uleb128 0x13
 4524 01ef 00       		.byte	0
 4525 01f0 00       		.byte	0
 4526 01f1 26       		.uleb128 0x26
 4527 01f2 05       		.uleb128 0x5
 4528 01f3 00       		.byte	0
 4529 01f4 49       		.uleb128 0x49
 4530 01f5 13       		.uleb128 0x13
 4531 01f6 00       		.byte	0
 4532 01f7 00       		.byte	0
 4533 01f8 27       		.uleb128 0x27
 4534 01f9 2E       		.uleb128 0x2e
 4535 01fa 00       		.byte	0
 4536 01fb 3F       		.uleb128 0x3f
 4537 01fc 0C       		.uleb128 0xc
 4538 01fd 03       		.uleb128 0x3
 4539 01fe 0E       		.uleb128 0xe
 4540 01ff 3A       		.uleb128 0x3a
 4541 0200 0B       		.uleb128 0xb
 4542 0201 3B       		.uleb128 0x3b
 4543 0202 0B       		.uleb128 0xb
 4544 0203 27       		.uleb128 0x27
 4545 0204 0C       		.uleb128 0xc
 4546 0205 3C       		.uleb128 0x3c
 4547 0206 0C       		.uleb128 0xc
 4548 0207 00       		.byte	0
 4549 0208 00       		.byte	0
 4550 0209 28       		.uleb128 0x28
 4551 020a 2E       		.uleb128 0x2e
 4552 020b 01       		.byte	0x1
 4553 020c 3F       		.uleb128 0x3f
ARM GAS  C:\cygwin\tmp\ccyJ3soa.s 			page 81


 4554 020d 0C       		.uleb128 0xc
 4555 020e 03       		.uleb128 0x3
 4556 020f 0E       		.uleb128 0xe
 4557 0210 3A       		.uleb128 0x3a
 4558 0211 0B       		.uleb128 0xb
 4559 0212 3B       		.uleb128 0x3b
 4560 0213 0B       		.uleb128 0xb
 4561 0214 27       		.uleb128 0x27
 4562 0215 0C       		.uleb128 0xc
 4563 0216 3C       		.uleb128 0x3c
 4564 0217 0C       		.uleb128 0xc
 4565 0218 01       		.uleb128 0x1
 4566 0219 13       		.uleb128 0x13
 4567 021a 00       		.byte	0
 4568 021b 00       		.byte	0
 4569 021c 29       		.uleb128 0x29
 4570 021d 2E       		.uleb128 0x2e
 4571 021e 01       		.byte	0x1
 4572 021f 3F       		.uleb128 0x3f
 4573 0220 0C       		.uleb128 0xc
 4574 0221 03       		.uleb128 0x3
 4575 0222 0E       		.uleb128 0xe
 4576 0223 3A       		.uleb128 0x3a
 4577 0224 0B       		.uleb128 0xb
 4578 0225 3B       		.uleb128 0x3b
 4579 0226 0B       		.uleb128 0xb
 4580 0227 27       		.uleb128 0x27
 4581 0228 0C       		.uleb128 0xc
 4582 0229 3C       		.uleb128 0x3c
 4583 022a 0C       		.uleb128 0xc
 4584 022b 00       		.byte	0
 4585 022c 00       		.byte	0
 4586 022d 00       		.byte	0
 4587              		.section	.debug_loc,"",%progbits
 4588              	.Ldebug_loc0:
 4589              	.LLST0:
 4590 0000 00000000 		.4byte	.LFB8
 4591 0004 02000000 		.4byte	.LCFI0
 4592 0008 0200     		.2byte	0x2
 4593 000a 7D       		.byte	0x7d
 4594 000b 00       		.sleb128 0
 4595 000c 02000000 		.4byte	.LCFI0
 4596 0010 0E000000 		.4byte	.LCFI1
 4597 0014 0200     		.2byte	0x2
 4598 0016 7D       		.byte	0x7d
 4599 0017 14       		.sleb128 20
 4600 0018 0E000000 		.4byte	.LCFI1
 4601 001c DC060000 		.4byte	.LFE8
 4602 0020 0200     		.2byte	0x2
 4603 0022 7D       		.byte	0x7d
 4604 0023 20       		.sleb128 32
 4605 0024 00000000 		.4byte	0
 4606 0028 00000000 		.4byte	0
 4607              	.LLST1:
 4608 002c 26000000 		.4byte	.LVL1
 4609 0030 30000000 		.4byte	.LVL2
 4610 0034 0100     		.2byte	0x1
ARM GAS  C:\cygwin\tmp\ccyJ3soa.s 			page 82


 4611 0036 50       		.byte	0x50
 4612 0037 48000000 		.4byte	.LVL4
 4613 003b 52000000 		.4byte	.LVL5
 4614 003f 0100     		.2byte	0x1
 4615 0041 50       		.byte	0x50
 4616 0042 66000000 		.4byte	.LVL9
 4617 0046 74000000 		.4byte	.LVL10
 4618 004a 0100     		.2byte	0x1
 4619 004c 50       		.byte	0x50
 4620 004d 74000000 		.4byte	.LVL10
 4621 0051 77000000 		.4byte	.LVL11-1
 4622 0055 0300     		.2byte	0x3
 4623 0057 7C       		.byte	0x7c
 4624 0058 7F       		.sleb128 -1
 4625 0059 9F       		.byte	0x9f
 4626 005a 92000000 		.4byte	.LVL16
 4627 005e 95000000 		.4byte	.LVL17-1
 4628 0062 0100     		.2byte	0x1
 4629 0064 50       		.byte	0x50
 4630 0065 95000000 		.4byte	.LVL17-1
 4631 0069 BC000000 		.4byte	.LVL21
 4632 006d 0100     		.2byte	0x1
 4633 006f 57       		.byte	0x57
 4634 0070 BC000000 		.4byte	.LVL21
 4635 0074 C6000000 		.4byte	.LVL22
 4636 0078 0100     		.2byte	0x1
 4637 007a 50       		.byte	0x50
 4638 007b C6000000 		.4byte	.LVL22
 4639 007f C9000000 		.4byte	.LVL23-1
 4640 0083 0300     		.2byte	0x3
 4641 0085 72       		.byte	0x72
 4642 0086 7F       		.sleb128 -1
 4643 0087 9F       		.byte	0x9f
 4644 0088 E4000000 		.4byte	.LVL28
 4645 008c E7000000 		.4byte	.LVL29-1
 4646 0090 0100     		.2byte	0x1
 4647 0092 50       		.byte	0x50
 4648 0093 E7000000 		.4byte	.LVL29-1
 4649 0097 FE000000 		.4byte	.LVL34
 4650 009b 0100     		.2byte	0x1
 4651 009d 57       		.byte	0x57
 4652 009e AA010000 		.4byte	.LVL60
 4653 00a2 B4010000 		.4byte	.LVL61
 4654 00a6 0100     		.2byte	0x1
 4655 00a8 50       		.byte	0x50
 4656 00a9 E4010000 		.4byte	.LVL65
 4657 00ad EE010000 		.4byte	.LVL66
 4658 00b1 0100     		.2byte	0x1
 4659 00b3 50       		.byte	0x50
 4660 00b4 04020000 		.4byte	.LVL68
 4661 00b8 0E020000 		.4byte	.LVL69
 4662 00bc 0100     		.2byte	0x1
 4663 00be 50       		.byte	0x50
 4664 00bf 4E020000 		.4byte	.LVL73
 4665 00c3 5C020000 		.4byte	.LVL74
 4666 00c7 0100     		.2byte	0x1
 4667 00c9 50       		.byte	0x50
ARM GAS  C:\cygwin\tmp\ccyJ3soa.s 			page 83


 4668 00ca 5C020000 		.4byte	.LVL74
 4669 00ce 5F020000 		.4byte	.LVL75-1
 4670 00d2 0300     		.2byte	0x3
 4671 00d4 7C       		.byte	0x7c
 4672 00d5 7F       		.sleb128 -1
 4673 00d6 9F       		.byte	0x9f
 4674 00d7 7A020000 		.4byte	.LVL80
 4675 00db 7D020000 		.4byte	.LVL81-1
 4676 00df 0100     		.2byte	0x1
 4677 00e1 50       		.byte	0x50
 4678 00e2 7D020000 		.4byte	.LVL81-1
 4679 00e6 30030000 		.4byte	.LVL109
 4680 00ea 0100     		.2byte	0x1
 4681 00ec 57       		.byte	0x57
 4682 00ed 30030000 		.4byte	.LVL109
 4683 00f1 3A030000 		.4byte	.LVL110
 4684 00f5 0100     		.2byte	0x1
 4685 00f7 50       		.byte	0x50
 4686 00f8 4C030000 		.4byte	.LVL112
 4687 00fc 56030000 		.4byte	.LVL113
 4688 0100 0100     		.2byte	0x1
 4689 0102 50       		.byte	0x50
 4690 0103 68030000 		.4byte	.LVL115
 4691 0107 72030000 		.4byte	.LVL116
 4692 010b 0100     		.2byte	0x1
 4693 010d 50       		.byte	0x50
 4694 010e 84030000 		.4byte	.LVL118
 4695 0112 8E030000 		.4byte	.LVL119
 4696 0116 0100     		.2byte	0x1
 4697 0118 50       		.byte	0x50
 4698 0119 A4030000 		.4byte	.LVL122
 4699 011d A7030000 		.4byte	.LVL123-1
 4700 0121 0100     		.2byte	0x1
 4701 0123 50       		.byte	0x50
 4702 0124 A7030000 		.4byte	.LVL123-1
 4703 0128 F6030000 		.4byte	.LVL132
 4704 012c 0100     		.2byte	0x1
 4705 012e 56       		.byte	0x56
 4706 012f F6030000 		.4byte	.LVL132
 4707 0133 F9030000 		.4byte	.LVL133-1
 4708 0137 0100     		.2byte	0x1
 4709 0139 50       		.byte	0x50
 4710 013a F9030000 		.4byte	.LVL133-1
 4711 013e 72040000 		.4byte	.LVL151
 4712 0142 0100     		.2byte	0x1
 4713 0144 56       		.byte	0x56
 4714 0145 88040000 		.4byte	.LVL154
 4715 0149 BA040000 		.4byte	.LVL163
 4716 014d 0100     		.2byte	0x1
 4717 014f 56       		.byte	0x56
 4718 0150 BA040000 		.4byte	.LVL163
 4719 0154 C4040000 		.4byte	.LVL164
 4720 0158 0100     		.2byte	0x1
 4721 015a 50       		.byte	0x50
 4722 015b D6040000 		.4byte	.LVL166
 4723 015f E0040000 		.4byte	.LVL167
 4724 0163 0100     		.2byte	0x1
ARM GAS  C:\cygwin\tmp\ccyJ3soa.s 			page 84


 4725 0165 50       		.byte	0x50
 4726 0166 F2040000 		.4byte	.LVL169
 4727 016a FC040000 		.4byte	.LVL170
 4728 016e 0100     		.2byte	0x1
 4729 0170 50       		.byte	0x50
 4730 0171 0E050000 		.4byte	.LVL172
 4731 0175 18050000 		.4byte	.LVL173
 4732 0179 0100     		.2byte	0x1
 4733 017b 50       		.byte	0x50
 4734 017c 2E050000 		.4byte	.LVL176
 4735 0180 31050000 		.4byte	.LVL177-1
 4736 0184 0100     		.2byte	0x1
 4737 0186 50       		.byte	0x50
 4738 0187 31050000 		.4byte	.LVL177-1
 4739 018b 6E050000 		.4byte	.LVL183
 4740 018f 0100     		.2byte	0x1
 4741 0191 55       		.byte	0x55
 4742 0192 84050000 		.4byte	.LVL188
 4743 0196 87050000 		.4byte	.LVL189-1
 4744 019a 0100     		.2byte	0x1
 4745 019c 50       		.byte	0x50
 4746 019d 87050000 		.4byte	.LVL189-1
 4747 01a1 BC060000 		.4byte	.LVL237
 4748 01a5 0100     		.2byte	0x1
 4749 01a7 56       		.byte	0x56
 4750 01a8 00000000 		.4byte	0
 4751 01ac 00000000 		.4byte	0
 4752              	.LLST2:
 4753 01b0 9A010000 		.4byte	.LVL58
 4754 01b4 9C010000 		.4byte	.LVL59
 4755 01b8 0200     		.2byte	0x2
 4756 01ba 30       		.byte	0x30
 4757 01bb 9F       		.byte	0x9f
 4758 01bc 00000000 		.4byte	0
 4759 01c0 00000000 		.4byte	0
 4760              	.LLST3:
 4761 01c4 84000000 		.4byte	.LVL13
 4762 01c8 87000000 		.4byte	.LVL14-1
 4763 01cc 0100     		.2byte	0x1
 4764 01ce 53       		.byte	0x53
 4765 01cf 00000000 		.4byte	0
 4766 01d3 00000000 		.4byte	0
 4767              	.LLST4:
 4768 01d7 9C000000 		.4byte	.LVL19
 4769 01db AD000000 		.4byte	.LVL20-1
 4770 01df 0100     		.2byte	0x1
 4771 01e1 53       		.byte	0x53
 4772 01e2 00000000 		.4byte	0
 4773 01e6 00000000 		.4byte	0
 4774              	.LLST5:
 4775 01ea D6000000 		.4byte	.LVL25
 4776 01ee D9000000 		.4byte	.LVL26-1
 4777 01f2 0100     		.2byte	0x1
 4778 01f4 53       		.byte	0x53
 4779 01f5 00000000 		.4byte	0
 4780 01f9 00000000 		.4byte	0
 4781              	.LLST6:
ARM GAS  C:\cygwin\tmp\ccyJ3soa.s 			page 85


 4782 01fd EE000000 		.4byte	.LVL31
 4783 0201 F4000000 		.4byte	.LVL32
 4784 0205 0100     		.2byte	0x1
 4785 0207 53       		.byte	0x53
 4786 0208 00000000 		.4byte	0
 4787 020c 00000000 		.4byte	0
 4788              	.LLST7:
 4789 0210 08010000 		.4byte	.LVL36
 4790 0214 0B010000 		.4byte	.LVL37-1
 4791 0218 0100     		.2byte	0x1
 4792 021a 53       		.byte	0x53
 4793 021b 00000000 		.4byte	0
 4794 021f 00000000 		.4byte	0
 4795              	.LLST8:
 4796 0223 58000000 		.4byte	.LVL7
 4797 0227 5C000000 		.4byte	.LVL8
 4798 022b 0100     		.2byte	0x1
 4799 022d 53       		.byte	0x53
 4800 022e 2A010000 		.4byte	.LVL40
 4801 0232 30010000 		.4byte	.LVL41
 4802 0236 0100     		.2byte	0x1
 4803 0238 53       		.byte	0x53
 4804 0239 00000000 		.4byte	0
 4805 023d 00000000 		.4byte	0
 4806              	.LLST9:
 4807 0241 3A010000 		.4byte	.LVL44
 4808 0245 3C010000 		.4byte	.LVL45
 4809 0249 0100     		.2byte	0x1
 4810 024b 53       		.byte	0x53
 4811 024c 00000000 		.4byte	0
 4812 0250 00000000 		.4byte	0
 4813              	.LLST10:
 4814 0254 40010000 		.4byte	.LVL46
 4815 0258 43010000 		.4byte	.LVL47-1
 4816 025c 0100     		.2byte	0x1
 4817 025e 53       		.byte	0x53
 4818 025f 00000000 		.4byte	0
 4819 0263 00000000 		.4byte	0
 4820              	.LLST11:
 4821 0267 6A010000 		.4byte	.LVL51
 4822 026b 6C010000 		.4byte	.LVL52
 4823 026f 0100     		.2byte	0x1
 4824 0271 53       		.byte	0x53
 4825 0272 00000000 		.4byte	0
 4826 0276 00000000 		.4byte	0
 4827              	.LLST12:
 4828 027a 70010000 		.4byte	.LVL53
 4829 027e 73010000 		.4byte	.LVL54-1
 4830 0282 0100     		.2byte	0x1
 4831 0284 53       		.byte	0x53
 4832 0285 00000000 		.4byte	0
 4833 0289 00000000 		.4byte	0
 4834              	.LLST13:
 4835 028d 9A010000 		.4byte	.LVL58
 4836 0291 A9010000 		.4byte	.LVL60-1
 4837 0295 0100     		.2byte	0x1
 4838 0297 53       		.byte	0x53
ARM GAS  C:\cygwin\tmp\ccyJ3soa.s 			page 86


 4839 0298 00000000 		.4byte	0
 4840 029c 00000000 		.4byte	0
 4841              	.LLST14:
 4842 02a0 6C020000 		.4byte	.LVL77
 4843 02a4 6F020000 		.4byte	.LVL78-1
 4844 02a8 0100     		.2byte	0x1
 4845 02aa 53       		.byte	0x53
 4846 02ab 00000000 		.4byte	0
 4847 02af 00000000 		.4byte	0
 4848              	.LLST15:
 4849 02b3 84020000 		.4byte	.LVL83
 4850 02b7 95020000 		.4byte	.LVL84-1
 4851 02bb 0100     		.2byte	0x1
 4852 02bd 53       		.byte	0x53
 4853 02be 00000000 		.4byte	0
 4854 02c2 00000000 		.4byte	0
 4855              	.LLST16:
 4856 02c6 A2020000 		.4byte	.LVL86
 4857 02ca A5020000 		.4byte	.LVL87-1
 4858 02ce 0100     		.2byte	0x1
 4859 02d0 53       		.byte	0x53
 4860 02d1 00000000 		.4byte	0
 4861 02d5 00000000 		.4byte	0
 4862              	.LLST17:
 4863 02d9 C4020000 		.4byte	.LVL91
 4864 02dd C6020000 		.4byte	.LVL92
 4865 02e1 0100     		.2byte	0x1
 4866 02e3 53       		.byte	0x53
 4867 02e4 00000000 		.4byte	0
 4868 02e8 00000000 		.4byte	0
 4869              	.LLST18:
 4870 02ec CA020000 		.4byte	.LVL93
 4871 02f0 CD020000 		.4byte	.LVL94-1
 4872 02f4 0100     		.2byte	0x1
 4873 02f6 53       		.byte	0x53
 4874 02f7 00000000 		.4byte	0
 4875 02fb 00000000 		.4byte	0
 4876              	.LLST19:
 4877 02ff F2020000 		.4byte	.LVL98
 4878 0303 F4020000 		.4byte	.LVL99
 4879 0307 0100     		.2byte	0x1
 4880 0309 53       		.byte	0x53
 4881 030a 00000000 		.4byte	0
 4882 030e 00000000 		.4byte	0
 4883              	.LLST20:
 4884 0312 F8020000 		.4byte	.LVL100
 4885 0316 FB020000 		.4byte	.LVL101-1
 4886 031a 0100     		.2byte	0x1
 4887 031c 53       		.byte	0x53
 4888 031d 00000000 		.4byte	0
 4889 0321 00000000 		.4byte	0
 4890              	.LLST21:
 4891 0325 1E030000 		.4byte	.LVL105
 4892 0329 20030000 		.4byte	.LVL106
 4893 032d 0100     		.2byte	0x1
 4894 032f 53       		.byte	0x53
 4895 0330 00000000 		.4byte	0
ARM GAS  C:\cygwin\tmp\ccyJ3soa.s 			page 87


 4896 0334 00000000 		.4byte	0
 4897              	.LLST22:
 4898 0338 24030000 		.4byte	.LVL107
 4899 033c 27030000 		.4byte	.LVL108-1
 4900 0340 0100     		.2byte	0x1
 4901 0342 53       		.byte	0x53
 4902 0343 00000000 		.4byte	0
 4903 0347 00000000 		.4byte	0
 4904              	.LLST23:
 4905 034b AE030000 		.4byte	.LVL125
 4906 034f BB030000 		.4byte	.LVL126-1
 4907 0353 0100     		.2byte	0x1
 4908 0355 53       		.byte	0x53
 4909 0356 00000000 		.4byte	0
 4910 035a 00000000 		.4byte	0
 4911              	.LLST24:
 4912 035e E6030000 		.4byte	.LVL129
 4913 0362 EB030000 		.4byte	.LVL130-1
 4914 0366 0100     		.2byte	0x1
 4915 0368 53       		.byte	0x53
 4916 0369 00000000 		.4byte	0
 4917 036d 00000000 		.4byte	0
 4918              	.LLST25:
 4919 0371 00040000 		.4byte	.LVL135
 4920 0375 06040000 		.4byte	.LVL136
 4921 0379 0100     		.2byte	0x1
 4922 037b 53       		.byte	0x53
 4923 037c 00000000 		.4byte	0
 4924 0380 00000000 		.4byte	0
 4925              	.LLST26:
 4926 0384 38040000 		.4byte	.LVL141
 4927 0388 3B040000 		.4byte	.LVL142-1
 4928 038c 0100     		.2byte	0x1
 4929 038e 53       		.byte	0x53
 4930 038f 00000000 		.4byte	0
 4931 0393 00000000 		.4byte	0
 4932              	.LLST27:
 4933 0397 56040000 		.4byte	.LVL146
 4934 039b 58040000 		.4byte	.LVL147
 4935 039f 0100     		.2byte	0x1
 4936 03a1 53       		.byte	0x53
 4937 03a2 00000000 		.4byte	0
 4938 03a6 00000000 		.4byte	0
 4939              	.LLST28:
 4940 03aa 5C040000 		.4byte	.LVL148
 4941 03ae 5F040000 		.4byte	.LVL149-1
 4942 03b2 0100     		.2byte	0x1
 4943 03b4 53       		.byte	0x53
 4944 03b5 00000000 		.4byte	0
 4945 03b9 00000000 		.4byte	0
 4946              	.LLST29:
 4947 03bd 58000000 		.4byte	.LVL7
 4948 03c1 5C000000 		.4byte	.LVL8
 4949 03c5 0100     		.2byte	0x1
 4950 03c7 53       		.byte	0x53
 4951 03c8 7C040000 		.4byte	.LVL153
 4952 03cc 88040000 		.4byte	.LVL154
ARM GAS  C:\cygwin\tmp\ccyJ3soa.s 			page 88


 4953 03d0 0100     		.2byte	0x1
 4954 03d2 53       		.byte	0x53
 4955 03d3 00000000 		.4byte	0
 4956 03d7 00000000 		.4byte	0
 4957              	.LLST30:
 4958 03db 92040000 		.4byte	.LVL157
 4959 03df 96040000 		.4byte	.LVL158
 4960 03e3 0100     		.2byte	0x1
 4961 03e5 53       		.byte	0x53
 4962 03e6 00000000 		.4byte	0
 4963 03ea 00000000 		.4byte	0
 4964              	.LLST31:
 4965 03ee AE040000 		.4byte	.LVL161
 4966 03f2 B1040000 		.4byte	.LVL162-1
 4967 03f6 0100     		.2byte	0x1
 4968 03f8 53       		.byte	0x53
 4969 03f9 00000000 		.4byte	0
 4970 03fd 00000000 		.4byte	0
 4971              	.LLST32:
 4972 0401 38050000 		.4byte	.LVL179
 4973 0405 3E050000 		.4byte	.LVL180
 4974 0409 0100     		.2byte	0x1
 4975 040b 53       		.byte	0x53
 4976 040c 00000000 		.4byte	0
 4977 0410 00000000 		.4byte	0
 4978              	.LLST33:
 4979 0414 74050000 		.4byte	.LVL185
 4980 0418 79050000 		.4byte	.LVL186-1
 4981 041c 0100     		.2byte	0x1
 4982 041e 53       		.byte	0x53
 4983 041f 00000000 		.4byte	0
 4984 0423 00000000 		.4byte	0
 4985              	.LLST34:
 4986 0427 8E050000 		.4byte	.LVL191
 4987 042b 92050000 		.4byte	.LVL192
 4988 042f 0100     		.2byte	0x1
 4989 0431 53       		.byte	0x53
 4990 0432 00000000 		.4byte	0
 4991 0436 00000000 		.4byte	0
 4992              	.LLST35:
 4993 043a C0050000 		.4byte	.LVL197
 4994 043e C3050000 		.4byte	.LVL198-1
 4995 0442 0100     		.2byte	0x1
 4996 0444 53       		.byte	0x53
 4997 0445 00000000 		.4byte	0
 4998 0449 00000000 		.4byte	0
 4999              	.LLST36:
 5000 044d E0050000 		.4byte	.LVL202
 5001 0451 E2050000 		.4byte	.LVL203
 5002 0455 0100     		.2byte	0x1
 5003 0457 53       		.byte	0x53
 5004 0458 00000000 		.4byte	0
 5005 045c 00000000 		.4byte	0
 5006              	.LLST37:
 5007 0460 E6050000 		.4byte	.LVL204
 5008 0464 E9050000 		.4byte	.LVL205-1
 5009 0468 0100     		.2byte	0x1
ARM GAS  C:\cygwin\tmp\ccyJ3soa.s 			page 89


 5010 046a 53       		.byte	0x53
 5011 046b 00000000 		.4byte	0
 5012 046f 00000000 		.4byte	0
 5013              	.LLST38:
 5014 0473 08060000 		.4byte	.LVL209
 5015 0477 0C060000 		.4byte	.LVL210
 5016 047b 0100     		.2byte	0x1
 5017 047d 53       		.byte	0x53
 5018 047e 00000000 		.4byte	0
 5019 0482 00000000 		.4byte	0
 5020              	.LLST39:
 5021 0486 30060000 		.4byte	.LVL214
 5022 048a 33060000 		.4byte	.LVL215-1
 5023 048e 0100     		.2byte	0x1
 5024 0490 53       		.byte	0x53
 5025 0491 00000000 		.4byte	0
 5026 0495 00000000 		.4byte	0
 5027              	.LLST40:
 5028 0499 56060000 		.4byte	.LVL219
 5029 049d 58060000 		.4byte	.LVL220
 5030 04a1 0100     		.2byte	0x1
 5031 04a3 53       		.byte	0x53
 5032 04a4 00000000 		.4byte	0
 5033 04a8 00000000 		.4byte	0
 5034              	.LLST41:
 5035 04ac 5C060000 		.4byte	.LVL221
 5036 04b0 5F060000 		.4byte	.LVL222-1
 5037 04b4 0100     		.2byte	0x1
 5038 04b6 53       		.byte	0x53
 5039 04b7 00000000 		.4byte	0
 5040 04bb 00000000 		.4byte	0
 5041              	.LLST42:
 5042 04bf 7C060000 		.4byte	.LVL226
 5043 04c3 7E060000 		.4byte	.LVL227
 5044 04c7 0100     		.2byte	0x1
 5045 04c9 53       		.byte	0x53
 5046 04ca 00000000 		.4byte	0
 5047 04ce 00000000 		.4byte	0
 5048              	.LLST43:
 5049 04d2 82060000 		.4byte	.LVL228
 5050 04d6 85060000 		.4byte	.LVL229-1
 5051 04da 0100     		.2byte	0x1
 5052 04dc 53       		.byte	0x53
 5053 04dd 00000000 		.4byte	0
 5054 04e1 00000000 		.4byte	0
 5055              	.LLST44:
 5056 04e5 A2060000 		.4byte	.LVL233
 5057 04e9 A4060000 		.4byte	.LVL234
 5058 04ed 0100     		.2byte	0x1
 5059 04ef 53       		.byte	0x53
 5060 04f0 00000000 		.4byte	0
 5061 04f4 00000000 		.4byte	0
 5062              	.LLST45:
 5063 04f8 A8060000 		.4byte	.LVL235
 5064 04fc AB060000 		.4byte	.LVL236-1
 5065 0500 0100     		.2byte	0x1
 5066 0502 53       		.byte	0x53
ARM GAS  C:\cygwin\tmp\ccyJ3soa.s 			page 90


 5067 0503 00000000 		.4byte	0
 5068 0507 00000000 		.4byte	0
 5069              	.LLST46:
 5070 050b 58000000 		.4byte	.LVL7
 5071 050f 5C000000 		.4byte	.LVL8
 5072 0513 0100     		.2byte	0x1
 5073 0515 53       		.byte	0x53
 5074 0516 C6060000 		.4byte	.LVL239
 5075 051a C8060000 		.4byte	.LVL240
 5076 051e 0100     		.2byte	0x1
 5077 0520 53       		.byte	0x53
 5078 0521 00000000 		.4byte	0
 5079 0525 00000000 		.4byte	0
 5080              	.LLST47:
 5081 0529 58000000 		.4byte	.LVL7
 5082 052d 5C000000 		.4byte	.LVL8
 5083 0531 0100     		.2byte	0x1
 5084 0533 53       		.byte	0x53
 5085 0534 D2060000 		.4byte	.LVL242
 5086 0538 DC060000 		.4byte	.LFE8
 5087 053c 0100     		.2byte	0x1
 5088 053e 53       		.byte	0x53
 5089 053f 00000000 		.4byte	0
 5090 0543 00000000 		.4byte	0
 5091              		.section	.debug_aranges,"",%progbits
 5092 0000 24000000 		.4byte	0x24
 5093 0004 0200     		.2byte	0x2
 5094 0006 00000000 		.4byte	.Ldebug_info0
 5095 000a 04       		.byte	0x4
 5096 000b 00       		.byte	0
 5097 000c 0000     		.2byte	0
 5098 000e 0000     		.2byte	0
 5099 0010 00000000 		.4byte	.LFB8
 5100 0014 DC060000 		.4byte	.LFE8-.LFB8
 5101 0018 00000000 		.4byte	.LFB7
 5102 001c 16000000 		.4byte	.LFE7-.LFB7
 5103 0020 00000000 		.4byte	0
 5104 0024 00000000 		.4byte	0
 5105              		.section	.debug_ranges,"",%progbits
 5106              	.Ldebug_ranges0:
 5107 0000 00000000 		.4byte	.LFB8
 5108 0004 DC060000 		.4byte	.LFE8
 5109 0008 00000000 		.4byte	.LFB7
 5110 000c 16000000 		.4byte	.LFE7
 5111 0010 00000000 		.4byte	0
 5112 0014 00000000 		.4byte	0
 5113              		.section	.debug_line,"",%progbits
 5114              	.Ldebug_line0:
 5115 0000 60020000 		.section	.debug_str,"MS",%progbits,1
 5115      02005201 
 5115      00000201 
 5115      FB0E0D00 
 5115      01010101 
 5116              	.LASF40:
 5117 0000 705F6D73 		.ascii	"p_msg\000"
 5117      6700
 5118              	.LASF66:
ARM GAS  C:\cygwin\tmp\ccyJ3soa.s 			page 91


 5119 0006 7264796D 		.ascii	"rdymsg\000"
 5119      736700
 5120              	.LASF11:
 5121 000d 75696E74 		.ascii	"uint64_t\000"
 5121      36345F74 
 5121      00
 5122              	.LASF86:
 5123 0016 63684D42 		.ascii	"chMBPostI\000"
 5123      506F7374 
 5123      4900
 5124              	.LASF65:
 5125 0020 4D61696C 		.ascii	"Mailbox\000"
 5125      626F7800 
 5126              	.LASF89:
 5127 0028 63684D42 		.ascii	"chMBPostAheadI\000"
 5127      506F7374 
 5127      41686561 
 5127      644900
 5128              	.LASF12:
 5129 0037 6C6F6E67 		.ascii	"long long unsigned int\000"
 5129      206C6F6E 
 5129      6720756E 
 5129      7369676E 
 5129      65642069 
 5130              	.LASF82:
 5131 004e 70617474 		.ascii	"patternmbox\000"
 5131      65726E6D 
 5131      626F7800 
 5132              	.LASF67:
 5133 005a 65786974 		.ascii	"exitcode\000"
 5133      636F6465 
 5133      00
 5134              	.LASF80:
 5135 0063 74657374 		.ascii	"test\000"
 5135      00
 5136              	.LASF61:
 5137 0068 6D625F77 		.ascii	"mb_wrptr\000"
 5137      72707472 
 5137      00
 5138              	.LASF27:
 5139 0071 705F7072 		.ascii	"p_prio\000"
 5139      696F00
 5140              	.LASF10:
 5141 0078 6C6F6E67 		.ascii	"long long int\000"
 5141      206C6F6E 
 5141      6720696E 
 5141      7400
 5142              	.LASF1:
 5143 0086 7369676E 		.ascii	"signed char\000"
 5143      65642063 
 5143      68617200 
 5144              	.LASF96:
 5145 0092 2E2E2F2E 		.ascii	"../../../test/testmbox.c\000"
 5145      2E2F2E2E 
 5145      2F746573 
 5145      742F7465 
 5145      73746D62 
ARM GAS  C:\cygwin\tmp\ccyJ3soa.s 			page 92


 5146              	.LASF44:
 5147 00ab 705F6D70 		.ascii	"p_mpool\000"
 5147      6F6F6C00 
 5148              	.LASF13:
 5149 00b3 626F6F6C 		.ascii	"bool_t\000"
 5149      5F7400
 5150              	.LASF56:
 5151 00ba 6D5F7175 		.ascii	"m_queue\000"
 5151      65756500 
 5152              	.LASF93:
 5153 00c2 74657374 		.ascii	"test_emit_token\000"
 5153      5F656D69 
 5153      745F746F 
 5153      6B656E00 
 5154              	.LASF18:
 5155 00d2 74736C69 		.ascii	"tslices_t\000"
 5155      6365735F 
 5155      7400
 5156              	.LASF84:
 5157 00dc 63684D42 		.ascii	"chMBPost\000"
 5157      506F7374 
 5157      00
 5158              	.LASF7:
 5159 00e5 6C6F6E67 		.ascii	"long int\000"
 5159      20696E74 
 5159      00
 5160              	.LASF16:
 5161 00ee 74737461 		.ascii	"tstate_t\000"
 5161      74655F74 
 5161      00
 5162              	.LASF29:
 5163 00f7 705F6E65 		.ascii	"p_newer\000"
 5163      77657200 
 5164              	.LASF53:
 5165 00ff 735F7175 		.ascii	"s_queue\000"
 5165      65756500 
 5166              	.LASF47:
 5167 0107 72656761 		.ascii	"regarm_t\000"
 5167      726D5F74 
 5167      00
 5168              	.LASF23:
 5169 0110 636E745F 		.ascii	"cnt_t\000"
 5169      7400
 5170              	.LASF32:
 5171 0116 705F7374 		.ascii	"p_stklimit\000"
 5171      6B6C696D 
 5171      697400
 5172              	.LASF0:
 5173 0121 756E7369 		.ascii	"unsigned int\000"
 5173      676E6564 
 5173      20696E74 
 5173      00
 5174              	.LASF100:
 5175 012e 63684D42 		.ascii	"chMBInit\000"
 5175      496E6974 
 5175      00
 5176              	.LASF77:
ARM GAS  C:\cygwin\tmp\ccyJ3soa.s 			page 93


 5177 0137 6D736731 		.ascii	"msg1\000"
 5177      00
 5178              	.LASF99:
 5179 013c 6D736732 		.ascii	"msg2\000"
 5179      00
 5180              	.LASF9:
 5181 0141 6C6F6E67 		.ascii	"long unsigned int\000"
 5181      20756E73 
 5181      69676E65 
 5181      6420696E 
 5181      7400
 5182              	.LASF78:
 5183 0153 6D626F78 		.ascii	"mbox1_execute\000"
 5183      315F6578 
 5183      65637574 
 5183      6500
 5184              	.LASF74:
 5185 0161 74656172 		.ascii	"teardown\000"
 5185      646F776E 
 5185      00
 5186              	.LASF64:
 5187 016a 6D625F65 		.ascii	"mb_emptysem\000"
 5187      6D707479 
 5187      73656D00 
 5188              	.LASF72:
 5189 0176 6E616D65 		.ascii	"name\000"
 5189      00
 5190              	.LASF54:
 5191 017b 735F636E 		.ascii	"s_cnt\000"
 5191      7400
 5192              	.LASF50:
 5193 0181 636F6E74 		.ascii	"context\000"
 5193      65787400 
 5194              	.LASF4:
 5195 0189 73686F72 		.ascii	"short unsigned int\000"
 5195      7420756E 
 5195      7369676E 
 5195      65642069 
 5195      6E7400
 5196              	.LASF92:
 5197 019c 63684D42 		.ascii	"chMBFetchI\000"
 5197      46657463 
 5197      684900
 5198              	.LASF20:
 5199 01a7 6D73675F 		.ascii	"msg_t\000"
 5199      7400
 5200              	.LASF15:
 5201 01ad 746D6F64 		.ascii	"tmode_t\000"
 5201      655F7400 
 5202              	.LASF79:
 5203 01b5 6D626F78 		.ascii	"mbox1_setup\000"
 5203      315F7365 
 5203      74757000 
 5204              	.LASF46:
 5205 01c1 54687265 		.ascii	"ThreadsList\000"
 5205      6164734C 
 5205      69737400 
ARM GAS  C:\cygwin\tmp\ccyJ3soa.s 			page 94


 5206              	.LASF21:
 5207 01cd 6576656E 		.ascii	"eventmask_t\000"
 5207      746D6173 
 5207      6B5F7400 
 5208              	.LASF55:
 5209 01d9 4D757465 		.ascii	"Mutex\000"
 5209      7800
 5210              	.LASF97:
 5211 01df 433A5C55 		.ascii	"C:\\Users\\TaisikHam\\Documents\\GitHub\\ChibiOS\\t"
 5211      73657273 
 5211      5C546169 
 5211      73696B48 
 5211      616D5C44 
 5212 020c 65737468 		.ascii	"esthal\\STM32F30x\\TS_SPI\000"
 5212      616C5C53 
 5212      544D3332 
 5212      46333078 
 5212      5C54535F 
 5213              	.LASF81:
 5214 0224 74657374 		.ascii	"testmbox1\000"
 5214      6D626F78 
 5214      3100
 5215              	.LASF48:
 5216 022e 73746B61 		.ascii	"stkalign_t\000"
 5216      6C69676E 
 5216      5F7400
 5217              	.LASF51:
 5218 0239 73697A65 		.ascii	"sizetype\000"
 5218      74797065 
 5218      00
 5219              	.LASF62:
 5220 0242 6D625F72 		.ascii	"mb_rdptr\000"
 5220      64707472 
 5220      00
 5221              	.LASF94:
 5222 024b 63684D42 		.ascii	"chMBReset\000"
 5222      52657365 
 5222      7400
 5223              	.LASF30:
 5224 0255 705F6F6C 		.ascii	"p_older\000"
 5224      64657200 
 5225              	.LASF45:
 5226 025d 54687265 		.ascii	"ThreadsQueue\000"
 5226      61647351 
 5226      75657565 
 5226      00
 5227              	.LASF73:
 5228 026a 73657475 		.ascii	"setup\000"
 5228      7000
 5229              	.LASF91:
 5230 0270 5F746573 		.ascii	"_test_assert_sequence\000"
 5230      745F6173 
 5230      73657274 
 5230      5F736571 
 5230      75656E63 
 5231              	.LASF59:
 5232 0286 6D625F62 		.ascii	"mb_buffer\000"
ARM GAS  C:\cygwin\tmp\ccyJ3soa.s 			page 95


 5232      75666665 
 5232      7200
 5233              	.LASF95:
 5234 0290 474E5520 		.ascii	"GNU C 4.7.2\000"
 5234      4320342E 
 5234      372E3200 
 5235              	.LASF87:
 5236 029c 6462675F 		.ascii	"dbg_check_lock\000"
 5236      63686563 
 5236      6B5F6C6F 
 5236      636B00
 5237              	.LASF88:
 5238 02ab 6462675F 		.ascii	"dbg_check_unlock\000"
 5238      63686563 
 5238      6B5F756E 
 5238      6C6F636B 
 5238      00
 5239              	.LASF17:
 5240 02bc 74726566 		.ascii	"trefs_t\000"
 5240      735F7400 
 5241              	.LASF26:
 5242 02c4 705F7072 		.ascii	"p_prev\000"
 5242      657600
 5243              	.LASF75:
 5244 02cb 65786563 		.ascii	"execute\000"
 5244      75746500 
 5245              	.LASF19:
 5246 02d3 74707269 		.ascii	"tprio_t\000"
 5246      6F5F7400 
 5247              	.LASF14:
 5248 02db 5F426F6F 		.ascii	"_Bool\000"
 5248      6C00
 5249              	.LASF6:
 5250 02e1 696E7433 		.ascii	"int32_t\000"
 5250      325F7400 
 5251              	.LASF2:
 5252 02e9 756E7369 		.ascii	"unsigned char\000"
 5252      676E6564 
 5252      20636861 
 5252      7200
 5253              	.LASF60:
 5254 02f7 6D625F74 		.ascii	"mb_top\000"
 5254      6F7000
 5255              	.LASF42:
 5256 02fe 705F6D74 		.ascii	"p_mtxlist\000"
 5256      786C6973 
 5256      7400
 5257              	.LASF3:
 5258 0308 73686F72 		.ascii	"short int\000"
 5258      7420696E 
 5258      7400
 5259              	.LASF33:
 5260 0312 705F7374 		.ascii	"p_state\000"
 5260      61746500 
 5261              	.LASF36:
 5262 031a 705F7072 		.ascii	"p_preempt\000"
 5262      65656D70 
ARM GAS  C:\cygwin\tmp\ccyJ3soa.s 			page 96


 5262      7400
 5263              	.LASF69:
 5264 0324 65776D61 		.ascii	"ewmask\000"
 5264      736B00
 5265              	.LASF25:
 5266 032b 705F6E65 		.ascii	"p_next\000"
 5266      787400
 5267              	.LASF34:
 5268 0332 705F666C 		.ascii	"p_flags\000"
 5268      61677300 
 5269              	.LASF24:
 5270 033a 54687265 		.ascii	"Thread\000"
 5270      616400
 5271              	.LASF71:
 5272 0341 74657374 		.ascii	"testcase\000"
 5272      63617365 
 5272      00
 5273              	.LASF41:
 5274 034a 705F6570 		.ascii	"p_epending\000"
 5274      656E6469 
 5274      6E6700
 5275              	.LASF8:
 5276 0355 75696E74 		.ascii	"uint32_t\000"
 5276      33325F74 
 5276      00
 5277              	.LASF70:
 5278 035e 63686172 		.ascii	"char\000"
 5278      00
 5279              	.LASF58:
 5280 0363 6D5F6E65 		.ascii	"m_next\000"
 5280      787400
 5281              	.LASF22:
 5282 036a 73797374 		.ascii	"systime_t\000"
 5282      696D655F 
 5282      7400
 5283              	.LASF43:
 5284 0374 705F7265 		.ascii	"p_realprio\000"
 5284      616C7072 
 5284      696F00
 5285              	.LASF76:
 5286 037f 62756666 		.ascii	"buffer\000"
 5286      657200
 5287              	.LASF37:
 5288 0386 705F7469 		.ascii	"p_time\000"
 5288      6D6500
 5289              	.LASF85:
 5290 038d 63684D42 		.ascii	"chMBPostAhead\000"
 5290      506F7374 
 5290      41686561 
 5290      6400
 5291              	.LASF49:
 5292 039b 696E7463 		.ascii	"intctx\000"
 5292      747800
 5293              	.LASF39:
 5294 03a2 705F6D73 		.ascii	"p_msgqueue\000"
 5294      67717565 
 5294      756500
ARM GAS  C:\cygwin\tmp\ccyJ3soa.s 			page 97


 5295              	.LASF90:
 5296 03ad 63684D42 		.ascii	"chMBFetch\000"
 5296      46657463 
 5296      6800
 5297              	.LASF52:
 5298 03b7 53656D61 		.ascii	"Semaphore\000"
 5298      70686F72 
 5298      6500
 5299              	.LASF63:
 5300 03c1 6D625F66 		.ascii	"mb_fullsem\000"
 5300      756C6C73 
 5300      656D00
 5301              	.LASF98:
 5302 03cc 74657374 		.ascii	"test_buffers\000"
 5302      5F627566 
 5302      66657273 
 5302      00
 5303              	.LASF35:
 5304 03d9 705F7265 		.ascii	"p_refs\000"
 5304      667300
 5305              	.LASF5:
 5306 03e0 75696E74 		.ascii	"uint8_t\000"
 5306      385F7400 
 5307              	.LASF68:
 5308 03e8 77746F62 		.ascii	"wtobjp\000"
 5308      6A7000
 5309              	.LASF31:
 5310 03ef 705F6E61 		.ascii	"p_name\000"
 5310      6D6500
 5311              	.LASF83:
 5312 03f6 5F746573 		.ascii	"_test_assert\000"
 5312      745F6173 
 5312      73657274 
 5312      00
 5313              	.LASF57:
 5314 0403 6D5F6F77 		.ascii	"m_owner\000"
 5314      6E657200 
 5315              	.LASF28:
 5316 040b 705F6374 		.ascii	"p_ctx\000"
 5316      7800
 5317              	.LASF38:
 5318 0411 705F7761 		.ascii	"p_waiting\000"
 5318      6974696E 
 5318      6700
 5319              		.ident	"GCC: (GNU) 4.7.2"
ARM GAS  C:\cygwin\tmp\ccyJ3soa.s 			page 98


DEFINED SYMBOLS
                            *ABS*:00000000 testmbox.c
C:\cygwin\tmp\ccyJ3soa.s:19     .text.mbox1_execute:00000000 $t
C:\cygwin\tmp\ccyJ3soa.s:24     .text.mbox1_execute:00000000 mbox1_execute
C:\cygwin\tmp\ccyJ3soa.s:250    .text.mbox1_execute:0000012c $d
C:\cygwin\tmp\ccyJ3soa.s:255    .text.mbox1_execute:00000130 $t
C:\cygwin\tmp\ccyJ3soa.s:817    .text.mbox1_execute:00000480 $d
C:\cygwin\tmp\ccyJ3soa.s:823    .text.mbox1_execute:00000488 $t
C:\cygwin\tmp\ccyJ3soa.s:1245   .text.mbox1_execute:000006d4 $d
C:\cygwin\tmp\ccyJ3soa.s:1252   .text.mbox1_setup:00000000 $t
C:\cygwin\tmp\ccyJ3soa.s:1257   .text.mbox1_setup:00000000 mbox1_setup
C:\cygwin\tmp\ccyJ3soa.s:1281   .data.mb1:00000000 .LANCHOR0
C:\cygwin\tmp\ccyJ3soa.s:1299   .rodata.patternmbox:00000000 patternmbox
C:\cygwin\tmp\ccyJ3soa.s:1313   .rodata.testmbox1:00000000 testmbox1
C:\cygwin\tmp\ccyJ3soa.s:1280   .data.mb1:00000000 $d
C:\cygwin\tmp\ccyJ3soa.s:1284   .data.mb1:00000000 mb1
C:\cygwin\tmp\ccyJ3soa.s:1296   .rodata.patternmbox:00000000 $d
C:\cygwin\tmp\ccyJ3soa.s:1303   .rodata.str1.4:00000000 $d
C:\cygwin\tmp\ccyJ3soa.s:1310   .rodata.testmbox1:00000000 $d
                     .debug_frame:00000010 $d
C:\cygwin\tmp\ccyJ3soa.s:1251   .text.mbox1_execute:000006dc $t

UNDEFINED SYMBOLS
_test_assert
chMBPost
chMBPostAhead
dbg_check_lock
chMBPostI
dbg_check_unlock
chMBPostAheadI
chMBFetch
test_emit_token
_test_assert_sequence
chMBFetchI
chMBReset
test
chMBInit
