ARM GAS  C:\cygwin\tmp\ccapmX2i.s 			page 1


   1              		.syntax unified
   2              		.cpu cortex-m4
   3              		.fpu softvfp
   4              		.eabi_attribute 20, 1
   5              		.eabi_attribute 21, 1
   6              		.eabi_attribute 23, 3
   7              		.eabi_attribute 24, 1
   8              		.eabi_attribute 25, 1
   9              		.eabi_attribute 26, 1
  10              		.eabi_attribute 30, 2
  11              		.eabi_attribute 34, 1
  12              		.eabi_attribute 18, 4
  13              		.thumb
  14              		.file	"testevt.c"
  15              		.text
  16              	.Ltext0:
  17              		.cfi_sections	.debug_frame
  18              		.section	.text.evt3_setup,"ax",%progbits
  19              		.align	2
  20              		.p2align 4,,15
  21              		.thumb
  22              		.thumb_func
  23              		.type	evt3_setup, %function
  24              	evt3_setup:
  25              	.LFB16:
  26              		.file 1 "../../../test/testevt.c"
  27              		.loc 1 251 0
  28              		.cfi_startproc
  29              		@ args = 0, pretend = 0, frame = 0
  30              		@ frame_needed = 0, uses_anonymous_args = 0
  31              		@ link register save eliminated.
  32              		.loc 1 253 0
  33 0000 4FF0FF30 		mov	r0, #-1
  34              		.loc 1 254 0
  35              		.loc 1 253 0
  36 0004 FFF7FEBF 		b	chEvtGetAndClearEvents
  37              	.LVL0:
  38              		.cfi_endproc
  39              	.LFE16:
  40              		.size	evt3_setup, .-evt3_setup
  41 0008 AFF30080 		.section	.text.evt2_setup,"ax",%progbits
  41      AFF30080 
  42              		.align	2
  43              		.p2align 4,,15
  44              		.thumb
  45              		.thumb_func
  46              		.type	evt2_setup, %function
  47              	evt2_setup:
  48              	.LFB12:
  49              		.loc 1 132 0
  50              		.cfi_startproc
  51              		@ args = 0, pretend = 0, frame = 0
  52              		@ frame_needed = 0, uses_anonymous_args = 0
  53              		@ link register save eliminated.
  54              		.loc 1 134 0
  55 0000 4FF0FF30 		mov	r0, #-1
  56              		.loc 1 135 0
ARM GAS  C:\cygwin\tmp\ccapmX2i.s 			page 2


  57              		.loc 1 134 0
  58 0004 FFF7FEBF 		b	chEvtGetAndClearEvents
  59              	.LVL1:
  60              		.cfi_endproc
  61              	.LFE12:
  62              		.size	evt2_setup, .-evt2_setup
  63 0008 AFF30080 		.section	.text.evt1_setup,"ax",%progbits
  63      AFF30080 
  64              		.align	2
  65              		.p2align 4,,15
  66              		.thumb
  67              		.thumb_func
  68              		.type	evt1_setup, %function
  69              	evt1_setup:
  70              	.LFB7:
  71              		.loc 1 79 0
  72              		.cfi_startproc
  73              		@ args = 0, pretend = 0, frame = 0
  74              		@ frame_needed = 0, uses_anonymous_args = 0
  75              		@ link register save eliminated.
  76              		.loc 1 81 0
  77 0000 4FF0FF30 		mov	r0, #-1
  78              		.loc 1 82 0
  79              		.loc 1 81 0
  80 0004 FFF7FEBF 		b	chEvtGetAndClearEvents
  81              	.LVL2:
  82              		.cfi_endproc
  83              	.LFE7:
  84              		.size	evt1_setup, .-evt1_setup
  85 0008 AFF30080 		.section	.text.evt2_execute,"ax",%progbits
  85      AFF30080 
  86              		.align	2
  87              		.p2align 4,,15
  88              		.thumb
  89              		.thumb_func
  90              		.type	evt2_execute, %function
  91              	evt2_execute:
  92              	.LFB15:
  93              		.loc 1 153 0
  94              		.cfi_startproc
  95              		@ args = 0, pretend = 0, frame = 40
  96              		@ frame_needed = 0, uses_anonymous_args = 0
  97 0000 2DE9F042 		push	{r4, r5, r6, r7, r9, lr}
  98              	.LCFI0:
  99              		.cfi_def_cfa_offset 24
 100              		.cfi_offset 4, -24
 101              		.cfi_offset 5, -20
 102              		.cfi_offset 6, -16
 103              		.cfi_offset 7, -12
 104              		.cfi_offset 9, -8
 105              		.cfi_offset 14, -4
 106              		.loc 1 161 0
 107 0004 0520     		movs	r0, #5
 108              		.loc 1 153 0
 109 0006 8CB0     		sub	sp, sp, #48
 110              	.LCFI1:
 111              		.cfi_def_cfa_offset 72
ARM GAS  C:\cygwin\tmp\ccapmX2i.s 			page 3


 112              		.loc 1 161 0
 113 0008 FFF7FEFF 		bl	chEvtAddEvents
 114              	.LVL3:
 115              		.loc 1 162 0
 116 000c 4FF0FF30 		mov	r0, #-1
 117 0010 FFF7FEFF 		bl	chEvtWaitOne
 118              	.LVL4:
 119              		.loc 1 163 0
 120 0014 0138     		subs	r0, r0, #1
 121              	.LVL5:
 122 0016 4142     		rsbs	r1, r0, #0
 123 0018 4141     		adcs	r1, r1, r0
 124 001a 0120     		movs	r0, #1
 125              	.LVL6:
 126 001c FFF7FEFF 		bl	_test_assert
 127              	.LVL7:
 128 0020 10B1     		cbz	r0, .L8
 129              	.L4:
 130              		.loc 1 226 0
 131 0022 0CB0     		add	sp, sp, #48
 132 0024 BDE8F082 		pop	{r4, r5, r6, r7, r9, pc}
 133              	.L8:
 134              		.loc 1 164 0
 135 0028 4FF0FF30 		mov	r0, #-1
 136 002c FFF7FEFF 		bl	chEvtWaitOne
 137              	.LVL8:
 138              		.loc 1 165 0
 139 0030 021F     		subs	r2, r0, #4
 140 0032 5142     		rsbs	r1, r2, #0
 141 0034 5141     		adcs	r1, r1, r2
 142 0036 0220     		movs	r0, #2
 143              	.LVL9:
 144 0038 FFF7FEFF 		bl	_test_assert
 145              	.LVL10:
 146 003c 0028     		cmp	r0, #0
 147 003e F0D1     		bne	.L4
 148              		.loc 1 166 0
 149 0040 4FF0FF30 		mov	r0, #-1
 150 0044 FFF7FEFF 		bl	chEvtGetAndClearEvents
 151              	.LVL11:
 152              		.loc 1 167 0
 153 0048 D0F10101 		rsbs	r1, r0, #1
 154 004c 38BF     		it	cc
 155 004e 0021     		movcc	r1, #0
 156 0050 0320     		movs	r0, #3
 157              	.LVL12:
 158 0052 FFF7FEFF 		bl	_test_assert
 159              	.LVL13:
 160 0056 0028     		cmp	r0, #0
 161 0058 E3D1     		bne	.L4
 162              		.loc 1 174 0
 163 005a 754D     		ldr	r5, .L9
 164              		.loc 1 173 0
 165 005c 754F     		ldr	r7, .L9+4
 166              		.loc 1 174 0
 167 005e 764E     		ldr	r6, .L9+8
 168              		.loc 1 172 0
ARM GAS  C:\cygwin\tmp\ccapmX2i.s 			page 4


 169 0060 FFF7FEFF 		bl	test_wait_tick
 170              	.LVL14:
 171              		.loc 1 174 0
 172 0064 754B     		ldr	r3, .L9+12
 173 0066 A969     		ldr	r1, [r5, #24]
 174 0068 1B68     		ldr	r3, [r3, #0]
 175 006a 8A68     		ldr	r2, [r1, #8]
 176 006c 0393     		str	r3, [sp, #12]
 177 006e 0091     		str	r1, [sp, #0]
 178 0070 013A     		subs	r2, r2, #1
 179 0072 4FF49871 		mov	r1, #304
 180 0076 724B     		ldr	r3, .L9+16
 181 0078 0398     		ldr	r0, [sp, #12]
 182              		.loc 1 173 0
 183 007a FC68     		ldr	r4, [r7, #12]
 184              	.LVL15:
 185              		.loc 1 174 0
 186 007c FFF7FEFF 		bl	chThdCreateStatic
 187              	.LVL16:
 188 0080 3060     		str	r0, [r6, #0]
 189              		.loc 1 176 0
 190 0082 4FF0FF30 		mov	r0, #-1
 191 0086 FFF7FEFF 		bl	chEvtWaitOne
 192              	.LVL17:
 193              		.loc 1 177 0
 194 008a 04F13201 		add	r1, r4, #50
 195              	.LVL18:
 196              		.loc 1 176 0
 197 008e 8146     		mov	r9, r0
 198              	.LVL19:
 199              		.loc 1 177 0
 200 0090 04F13702 		add	r2, r4, #55
 201 0094 0420     		movs	r0, #4
 202              	.LVL20:
 203 0096 FFF7FEFF 		bl	_test_assert_time_window
 204              	.LVL21:
 205 009a 0028     		cmp	r0, #0
 206 009c C1D1     		bne	.L4
 207              		.loc 1 178 0
 208 009e 0520     		movs	r0, #5
 209 00a0 B9F10103 		subs	r3, r9, #1
 210 00a4 5942     		rsbs	r1, r3, #0
 211 00a6 5941     		adcs	r1, r1, r3
 212 00a8 FFF7FEFF 		bl	_test_assert
 213              	.LVL22:
 214 00ac 0028     		cmp	r0, #0
 215 00ae B8D1     		bne	.L4
 216              		.loc 1 179 0
 217 00b0 4FF0FF30 		mov	r0, #-1
 218 00b4 FFF7FEFF 		bl	chEvtGetAndClearEvents
 219              	.LVL23:
 220              		.loc 1 180 0
 221 00b8 D0F10101 		rsbs	r1, r0, #1
 222 00bc 38BF     		it	cc
 223 00be 0021     		movcc	r1, #0
 224 00c0 0620     		movs	r0, #6
 225              	.LVL24:
ARM GAS  C:\cygwin\tmp\ccapmX2i.s 			page 5


 226 00c2 FFF7FEFF 		bl	_test_assert
 227              	.LVL25:
 228 00c6 0028     		cmp	r0, #0
 229 00c8 ABD1     		bne	.L4
 230              		.loc 1 181 0
 231 00ca FFF7FEFF 		bl	test_wait_threads
 232              	.LVL26:
 233              		.loc 1 186 0
 234 00ce 0520     		movs	r0, #5
 235 00d0 FFF7FEFF 		bl	chEvtAddEvents
 236              	.LVL27:
 237              		.loc 1 187 0
 238 00d4 4FF0FF30 		mov	r0, #-1
 239 00d8 FFF7FEFF 		bl	chEvtWaitAny
 240              	.LVL28:
 241              		.loc 1 188 0
 242 00dc B0F1050C 		subs	ip, r0, #5
 243 00e0 DCF10001 		rsbs	r1, ip, #0
 244 00e4 51EB0C01 		adcs	r1, r1, ip
 245 00e8 0720     		movs	r0, #7
 246              	.LVL29:
 247 00ea FFF7FEFF 		bl	_test_assert
 248              	.LVL30:
 249 00ee 0028     		cmp	r0, #0
 250 00f0 97D1     		bne	.L4
 251              		.loc 1 189 0
 252 00f2 4FF0FF30 		mov	r0, #-1
 253 00f6 FFF7FEFF 		bl	chEvtGetAndClearEvents
 254              	.LVL31:
 255              		.loc 1 190 0
 256 00fa D0F10101 		rsbs	r1, r0, #1
 257 00fe 38BF     		it	cc
 258 0100 0021     		movcc	r1, #0
 259 0102 0820     		movs	r0, #8
 260              	.LVL32:
 261 0104 FFF7FEFF 		bl	_test_assert
 262              	.LVL33:
 263 0108 0028     		cmp	r0, #0
 264 010a 8AD1     		bne	.L4
 265              		.loc 1 195 0
 266 010c FFF7FEFF 		bl	test_wait_tick
 267              	.LVL34:
 268              		.loc 1 197 0
 269 0110 A969     		ldr	r1, [r5, #24]
 270 0112 4B4B     		ldr	r3, .L9+16
 271 0114 8A68     		ldr	r2, [r1, #8]
 272 0116 0398     		ldr	r0, [sp, #12]
 273 0118 0091     		str	r1, [sp, #0]
 274 011a 013A     		subs	r2, r2, #1
 275 011c 4FF49871 		mov	r1, #304
 276              		.loc 1 196 0
 277 0120 FC68     		ldr	r4, [r7, #12]
 278              	.LVL35:
 279              		.loc 1 197 0
 280 0122 FFF7FEFF 		bl	chThdCreateStatic
 281              	.LVL36:
 282 0126 3060     		str	r0, [r6, #0]
ARM GAS  C:\cygwin\tmp\ccapmX2i.s 			page 6


 283              		.loc 1 199 0
 284 0128 4FF0FF30 		mov	r0, #-1
 285 012c FFF7FEFF 		bl	chEvtWaitAny
 286              	.LVL37:
 287              		.loc 1 200 0
 288 0130 04F13201 		add	r1, r4, #50
 289              	.LVL38:
 290              		.loc 1 199 0
 291 0134 8146     		mov	r9, r0
 292              	.LVL39:
 293              		.loc 1 200 0
 294 0136 04F13702 		add	r2, r4, #55
 295 013a 0920     		movs	r0, #9
 296              	.LVL40:
 297 013c FFF7FEFF 		bl	_test_assert_time_window
 298              	.LVL41:
 299 0140 0028     		cmp	r0, #0
 300 0142 7FF46EAF 		bne	.L4
 301              		.loc 1 201 0
 302 0146 0A20     		movs	r0, #10
 303 0148 B9F1010E 		subs	lr, r9, #1
 304 014c DEF10001 		rsbs	r1, lr, #0
 305 0150 51EB0E01 		adcs	r1, r1, lr
 306 0154 FFF7FEFF 		bl	_test_assert
 307              	.LVL42:
 308 0158 0028     		cmp	r0, #0
 309 015a 7FF462AF 		bne	.L4
 310              		.loc 1 202 0
 311 015e 4FF0FF30 		mov	r0, #-1
 312 0162 FFF7FEFF 		bl	chEvtGetAndClearEvents
 313              	.LVL43:
 314              		.loc 1 203 0
 315 0166 D0F10101 		rsbs	r1, r0, #1
 316 016a 38BF     		it	cc
 317 016c 0021     		movcc	r1, #0
 318 016e 0B20     		movs	r0, #11
 319              	.LVL44:
 320 0170 FFF7FEFF 		bl	_test_assert
 321              	.LVL45:
 322 0174 0028     		cmp	r0, #0
 323 0176 7FF454AF 		bne	.L4
 324              		.loc 1 209 0
 325 017a DFF8D490 		ldr	r9, .L9+32
 326              		.loc 1 210 0
 327 017e 314C     		ldr	r4, .L9+20
 328              	.LVL46:
 329              		.loc 1 204 0
 330 0180 FFF7FEFF 		bl	test_wait_threads
 331              	.LVL47:
 332              		.loc 1 211 0
 333 0184 4846     		mov	r0, r9
 334 0186 04A9     		add	r1, sp, #16
 335 0188 0122     		movs	r2, #1
 336              		.loc 1 209 0
 337 018a C9F80090 		str	r9, [r9, #0]
 338              		.loc 1 210 0
 339 018e 2460     		str	r4, [r4, #0]
ARM GAS  C:\cygwin\tmp\ccapmX2i.s 			page 7


 340              		.loc 1 211 0
 341 0190 FFF7FEFF 		bl	chEvtRegisterMask
 342              	.LVL48:
 343              		.loc 1 212 0
 344 0194 08A9     		add	r1, sp, #32
 345 0196 0422     		movs	r2, #4
 346 0198 2046     		mov	r0, r4
 347 019a FFF7FEFF 		bl	chEvtRegisterMask
 348              	.LVL49:
 349              		.loc 1 213 0
 350 019e FFF7FEFF 		bl	test_wait_tick
 351              	.LVL50:
 352              		.loc 1 215 0
 353 01a2 AB69     		ldr	r3, [r5, #24]
 354 01a4 2849     		ldr	r1, .L9+24
 355 01a6 9A68     		ldr	r2, [r3, #8]
 356 01a8 0398     		ldr	r0, [sp, #12]
 357 01aa 0091     		str	r1, [sp, #0]
 358 01ac 013A     		subs	r2, r2, #1
 359 01ae 4FF49871 		mov	r1, #304
 360 01b2 264B     		ldr	r3, .L9+28
 361              		.loc 1 214 0
 362 01b4 FD68     		ldr	r5, [r7, #12]
 363              	.LVL51:
 364              		.loc 1 215 0
 365 01b6 FFF7FEFF 		bl	chThdCreateStatic
 366              	.LVL52:
 367 01ba 3060     		str	r0, [r6, #0]
 368              		.loc 1 217 0
 369 01bc 0520     		movs	r0, #5
 370 01be FFF7FEFF 		bl	chEvtWaitAll
 371              	.LVL53:
 372              		.loc 1 218 0
 373 01c2 0C20     		movs	r0, #12
 374 01c4 05F13201 		add	r1, r5, #50
 375              	.LVL54:
 376 01c8 05F13702 		add	r2, r5, #55
 377 01cc FFF7FEFF 		bl	_test_assert_time_window
 378              	.LVL55:
 379 01d0 0028     		cmp	r0, #0
 380 01d2 7FF426AF 		bne	.L4
 381              		.loc 1 219 0
 382 01d6 4FF0FF30 		mov	r0, #-1
 383 01da FFF7FEFF 		bl	chEvtGetAndClearEvents
 384              	.LVL56:
 385              		.loc 1 220 0
 386 01de D0F10101 		rsbs	r1, r0, #1
 387 01e2 38BF     		it	cc
 388 01e4 0021     		movcc	r1, #0
 389 01e6 0D20     		movs	r0, #13
 390              	.LVL57:
 391 01e8 FFF7FEFF 		bl	_test_assert
 392              	.LVL58:
 393 01ec 0028     		cmp	r0, #0
 394 01ee 7FF418AF 		bne	.L4
 395              		.loc 1 221 0
 396 01f2 FFF7FEFF 		bl	test_wait_threads
ARM GAS  C:\cygwin\tmp\ccapmX2i.s 			page 8


 397              	.LVL59:
 398              		.loc 1 222 0
 399 01f6 4846     		mov	r0, r9
 400 01f8 04A9     		add	r1, sp, #16
 401 01fa FFF7FEFF 		bl	chEvtUnregister
 402              	.LVL60:
 403              		.loc 1 223 0
 404 01fe 2046     		mov	r0, r4
 405 0200 08A9     		add	r1, sp, #32
 406 0202 FFF7FEFF 		bl	chEvtUnregister
 407              	.LVL61:
 408              		.loc 1 224 0
 409 0206 D9F80010 		ldr	r1, [r9, #0]
 410 020a 0E20     		movs	r0, #14
 411 020c B1EB0902 		subs	r2, r1, r9
 412 0210 5142     		rsbs	r1, r2, #0
 413 0212 5141     		adcs	r1, r1, r2
 414 0214 FFF7FEFF 		bl	_test_assert
 415              	.LVL62:
 416 0218 0028     		cmp	r0, #0
 417 021a 7FF402AF 		bne	.L4
 418              		.loc 1 225 0
 419 021e 2168     		ldr	r1, [r4, #0]
 420 0220 0F20     		movs	r0, #15
 421 0222 0B1B     		subs	r3, r1, r4
 422 0224 5942     		rsbs	r1, r3, #0
 423 0226 5941     		adcs	r1, r1, r3
 424 0228 FFF7FEFF 		bl	_test_assert
 425              	.LVL63:
 426 022c F9E6     		b	.L4
 427              	.L10:
 428 022e 00BF     		.align	2
 429              	.L9:
 430 0230 00000000 		.word	rlist
 431 0234 00000000 		.word	vtlist
 432 0238 00000000 		.word	threads
 433 023c 00000000 		.word	wa
 434 0240 00000000 		.word	thread1
 435 0244 00000000 		.word	.LANCHOR1
 436 0248 00000000 		.word	.LC0
 437 024c 00000000 		.word	thread2
 438 0250 00000000 		.word	.LANCHOR0
 439              		.cfi_endproc
 440              	.LFE15:
 441              		.size	evt2_execute, .-evt2_execute
 442 0254 AFF30080 		.section	.text.thread2,"ax",%progbits
 442      AFF30080 
 442      AFF30080 
 443              		.align	2
 444              		.p2align 4,,15
 445              		.thumb
 446              		.thumb_func
 447              		.type	thread2, %function
 448              	thread2:
 449              	.LFB14:
 450              		.loc 1 144 0
 451              		.cfi_startproc
ARM GAS  C:\cygwin\tmp\ccapmX2i.s 			page 9


 452              		@ args = 0, pretend = 0, frame = 0
 453              		@ frame_needed = 0, uses_anonymous_args = 0
 454              	.LVL64:
 455              		.loc 1 147 0
 456 0000 40F20000 		movw	r0, #:lower16:.LANCHOR0
 457              	.LVL65:
 458              		.loc 1 144 0
 459 0004 08B5     		push	{r3, lr}
 460              	.LCFI2:
 461              		.cfi_def_cfa_offset 8
 462              		.cfi_offset 3, -8
 463              		.cfi_offset 14, -4
 464              		.loc 1 147 0
 465 0006 0021     		movs	r1, #0
 466 0008 C0F20000 		movt	r0, #:upper16:.LANCHOR0
 467 000c FFF7FEFF 		bl	chEvtBroadcastFlags
 468              	.LVL66:
 469              		.loc 1 148 0
 470 0010 3220     		movs	r0, #50
 471 0012 FFF7FEFF 		bl	chThdSleep
 472              	.LVL67:
 473              		.loc 1 149 0
 474 0016 40F20000 		movw	r0, #:lower16:.LANCHOR1
 475 001a C0F20000 		movt	r0, #:upper16:.LANCHOR1
 476 001e 0021     		movs	r1, #0
 477 0020 FFF7FEFF 		bl	chEvtBroadcastFlags
 478              	.LVL68:
 479              		.loc 1 151 0
 480 0024 0020     		movs	r0, #0
 481 0026 08BD     		pop	{r3, pc}
 482              		.cfi_endproc
 483              	.LFE14:
 484              		.size	thread2, .-thread2
 485 0028 AFF30080 		.section	.text.thread1,"ax",%progbits
 485      AFF30080 
 486              		.align	2
 487              		.p2align 4,,15
 488              		.thumb
 489              		.thumb_func
 490              		.type	thread1, %function
 491              	thread1:
 492              	.LFB13:
 493              		.loc 1 137 0
 494              		.cfi_startproc
 495              		@ args = 0, pretend = 0, frame = 0
 496              		@ frame_needed = 0, uses_anonymous_args = 0
 497              	.LVL69:
 498 0000 10B5     		push	{r4, lr}
 499              	.LCFI3:
 500              		.cfi_def_cfa_offset 8
 501              		.cfi_offset 4, -8
 502              		.cfi_offset 14, -4
 503              		.loc 1 137 0
 504 0002 0446     		mov	r4, r0
 505              		.loc 1 139 0
 506 0004 3220     		movs	r0, #50
 507              	.LVL70:
ARM GAS  C:\cygwin\tmp\ccapmX2i.s 			page 10


 508 0006 FFF7FEFF 		bl	chThdSleep
 509              	.LVL71:
 510              		.loc 1 140 0
 511 000a 2046     		mov	r0, r4
 512 000c 0121     		movs	r1, #1
 513 000e FFF7FEFF 		bl	chEvtSignal
 514              	.LVL72:
 515              		.loc 1 142 0
 516 0012 0020     		movs	r0, #0
 517 0014 10BD     		pop	{r4, pc}
 518              		.cfi_endproc
 519              	.LFE13:
 520              		.size	thread1, .-thread1
 521 0016 00BFAFF3 		.section	.text.evt1_execute,"ax",%progbits
 521      0080AFF3 
 521      0080
 522              		.align	2
 523              		.p2align 4,,15
 524              		.thumb
 525              		.thumb_func
 526              		.type	evt1_execute, %function
 527              	evt1_execute:
 528              	.LFB11:
 529              		.loc 1 89 0
 530              		.cfi_startproc
 531              		@ args = 0, pretend = 0, frame = 32
 532              		@ frame_needed = 0, uses_anonymous_args = 0
 533 0000 10B5     		push	{r4, lr}
 534              	.LCFI4:
 535              		.cfi_def_cfa_offset 8
 536              		.cfi_offset 4, -8
 537              		.cfi_offset 14, -4
 538              		.loc 1 95 0
 539 0002 1E4C     		ldr	r4, .L17
 540              		.loc 1 89 0
 541 0004 88B0     		sub	sp, sp, #32
 542              	.LCFI5:
 543              		.cfi_def_cfa_offset 40
 544              		.loc 1 96 0
 545 0006 0122     		movs	r2, #1
 546 0008 2046     		mov	r0, r4
 547 000a 6946     		mov	r1, sp
 548              		.loc 1 95 0
 549 000c 2460     		str	r4, [r4, #0]
 550              		.loc 1 96 0
 551 000e FFF7FEFF 		bl	chEvtRegisterMask
 552              	.LVL73:
 553              		.loc 1 97 0
 554 0012 2046     		mov	r0, r4
 555 0014 04A9     		add	r1, sp, #16
 556 0016 0222     		movs	r2, #2
 557 0018 FFF7FEFF 		bl	chEvtRegisterMask
 558              	.LVL74:
 559              		.loc 1 98 0
 560 001c 2168     		ldr	r1, [r4, #0]
 561 001e 0120     		movs	r0, #1
 562 0020 091B     		subs	r1, r1, r4
ARM GAS  C:\cygwin\tmp\ccapmX2i.s 			page 11


 563 0022 18BF     		it	ne
 564 0024 0121     		movne	r1, #1
 565 0026 FFF7FEFF 		bl	_test_assert
 566              	.LVL75:
 567 002a 08B1     		cbz	r0, .L16
 568              	.L13:
 569              		.loc 1 109 0
 570 002c 08B0     		add	sp, sp, #32
 571 002e 10BD     		pop	{r4, pc}
 572              	.L16:
 573              		.loc 1 99 0
 574 0030 2046     		mov	r0, r4
 575 0032 6946     		mov	r1, sp
 576 0034 FFF7FEFF 		bl	chEvtUnregister
 577              	.LVL76:
 578              		.loc 1 100 0
 579 0038 2168     		ldr	r1, [r4, #0]
 580 003a 0220     		movs	r0, #2
 581 003c 091B     		subs	r1, r1, r4
 582 003e 18BF     		it	ne
 583 0040 0121     		movne	r1, #1
 584 0042 FFF7FEFF 		bl	_test_assert
 585              	.LVL77:
 586 0046 0028     		cmp	r0, #0
 587 0048 F0D1     		bne	.L13
 588              		.loc 1 101 0
 589 004a 2046     		mov	r0, r4
 590 004c 04A9     		add	r1, sp, #16
 591 004e FFF7FEFF 		bl	chEvtUnregister
 592              	.LVL78:
 593              		.loc 1 102 0
 594 0052 2168     		ldr	r1, [r4, #0]
 595 0054 0320     		movs	r0, #3
 596 0056 B1EB040E 		subs	lr, r1, r4
 597 005a DEF10001 		rsbs	r1, lr, #0
 598 005e 51EB0E01 		adcs	r1, r1, lr
 599 0062 FFF7FEFF 		bl	_test_assert
 600              	.LVL79:
 601 0066 0028     		cmp	r0, #0
 602 0068 E0D1     		bne	.L13
 603              		.loc 1 107 0
 604 006a 0721     		movs	r1, #7
 605 006c 0448     		ldr	r0, .L17+4
 606 006e FFF7FEFF 		bl	chEvtDispatch
 607              	.LVL80:
 608              		.loc 1 108 0
 609 0072 0420     		movs	r0, #4
 610 0074 0349     		ldr	r1, .L17+8
 611 0076 FFF7FEFF 		bl	_test_assert_sequence
 612              	.LVL81:
 613 007a D7E7     		b	.L13
 614              	.L18:
 615              		.align	2
 616              	.L17:
 617 007c 00000000 		.word	.LANCHOR0
 618 0080 00000000 		.word	.LANCHOR2
 619 0084 04000000 		.word	.LC1
ARM GAS  C:\cygwin\tmp\ccapmX2i.s 			page 12


 620              		.cfi_endproc
 621              	.LFE11:
 622              		.size	evt1_execute, .-evt1_execute
 623 0088 AFF30080 		.section	.text.h3,"ax",%progbits
 623      AFF30080 
 624              		.align	2
 625              		.p2align 4,,15
 626              		.thumb
 627              		.thumb_func
 628              		.type	h3, %function
 629              	h3:
 630              	.LFB10:
 631              		.loc 1 86 0
 632              		.cfi_startproc
 633              		@ args = 0, pretend = 0, frame = 0
 634              		@ frame_needed = 0, uses_anonymous_args = 0
 635              		@ link register save eliminated.
 636              	.LVL82:
 637              		.loc 1 86 0
 638 0000 4320     		movs	r0, #67
 639              	.LVL83:
 640 0002 FFF7FEBF 		b	test_emit_token
 641              	.LVL84:
 642              		.cfi_endproc
 643              	.LFE10:
 644              		.size	h3, .-h3
 645 0006 00BFAFF3 		.section	.text.h2,"ax",%progbits
 645      0080AFF3 
 645      0080
 646              		.align	2
 647              		.p2align 4,,15
 648              		.thumb
 649              		.thumb_func
 650              		.type	h2, %function
 651              	h2:
 652              	.LFB9:
 653              		.loc 1 85 0
 654              		.cfi_startproc
 655              		@ args = 0, pretend = 0, frame = 0
 656              		@ frame_needed = 0, uses_anonymous_args = 0
 657              		@ link register save eliminated.
 658              	.LVL85:
 659              		.loc 1 85 0
 660 0000 4220     		movs	r0, #66
 661              	.LVL86:
 662 0002 FFF7FEBF 		b	test_emit_token
 663              	.LVL87:
 664              		.cfi_endproc
 665              	.LFE9:
 666              		.size	h2, .-h2
 667 0006 00BFAFF3 		.section	.text.h1,"ax",%progbits
 667      0080AFF3 
 667      0080
 668              		.align	2
 669              		.p2align 4,,15
 670              		.thumb
 671              		.thumb_func
ARM GAS  C:\cygwin\tmp\ccapmX2i.s 			page 13


 672              		.type	h1, %function
 673              	h1:
 674              	.LFB8:
 675              		.loc 1 84 0
 676              		.cfi_startproc
 677              		@ args = 0, pretend = 0, frame = 0
 678              		@ frame_needed = 0, uses_anonymous_args = 0
 679              		@ link register save eliminated.
 680              	.LVL88:
 681              		.loc 1 84 0
 682 0000 4120     		movs	r0, #65
 683              	.LVL89:
 684 0002 FFF7FEBF 		b	test_emit_token
 685              	.LVL90:
 686              		.cfi_endproc
 687              	.LFE8:
 688              		.size	h1, .-h1
 689 0006 00BFAFF3 		.section	.text.evt3_execute,"ax",%progbits
 689      0080AFF3 
 689      0080
 690              		.align	2
 691              		.p2align 4,,15
 692              		.thumb
 693              		.thumb_func
 694              		.type	evt3_execute, %function
 695              	evt3_execute:
 696              	.LFB17:
 697              		.loc 1 256 0
 698              		.cfi_startproc
 699              		@ args = 0, pretend = 0, frame = 0
 700              		@ frame_needed = 0, uses_anonymous_args = 0
 701 0000 08B5     		push	{r3, lr}
 702              	.LCFI6:
 703              		.cfi_def_cfa_offset 8
 704              		.cfi_offset 3, -8
 705              		.cfi_offset 14, -4
 706              		.loc 1 262 0
 707 0002 0021     		movs	r1, #0
 708 0004 4FF0FF30 		mov	r0, #-1
 709 0008 FFF7FEFF 		bl	chEvtWaitOneTimeout
 710              	.LVL91:
 711              		.loc 1 263 0
 712 000c D0F10101 		rsbs	r1, r0, #1
 713 0010 38BF     		it	cc
 714 0012 0021     		movcc	r1, #0
 715 0014 0120     		movs	r0, #1
 716              	.LVL92:
 717 0016 FFF7FEFF 		bl	_test_assert
 718              	.LVL93:
 719 001a 00B1     		cbz	r0, .L26
 720              	.L22:
 721 001c 08BD     		pop	{r3, pc}
 722              	.L26:
 723              		.loc 1 264 0
 724 001e 0146     		mov	r1, r0
 725 0020 4FF0FF30 		mov	r0, #-1
 726 0024 FFF7FEFF 		bl	chEvtWaitAnyTimeout
ARM GAS  C:\cygwin\tmp\ccapmX2i.s 			page 14


 727              	.LVL94:
 728              		.loc 1 265 0
 729 0028 D0F10101 		rsbs	r1, r0, #1
 730 002c 38BF     		it	cc
 731 002e 0021     		movcc	r1, #0
 732 0030 0220     		movs	r0, #2
 733              	.LVL95:
 734 0032 FFF7FEFF 		bl	_test_assert
 735              	.LVL96:
 736 0036 0028     		cmp	r0, #0
 737 0038 F0D1     		bne	.L22
 738              		.loc 1 266 0
 739 003a 0146     		mov	r1, r0
 740 003c 4FF0FF30 		mov	r0, #-1
 741 0040 FFF7FEFF 		bl	chEvtWaitAllTimeout
 742              	.LVL97:
 743              		.loc 1 267 0
 744 0044 D0F10101 		rsbs	r1, r0, #1
 745 0048 38BF     		it	cc
 746 004a 0021     		movcc	r1, #0
 747 004c 0320     		movs	r0, #3
 748              	.LVL98:
 749 004e FFF7FEFF 		bl	_test_assert
 750              	.LVL99:
 751 0052 0028     		cmp	r0, #0
 752 0054 E2D1     		bne	.L22
 753              	.LBB4:
 754              	.LBB5:
 755              		.loc 1 268 0
 756 0056 0A21     		movs	r1, #10
 757 0058 4FF0FF30 		mov	r0, #-1
 758 005c FFF7FEFF 		bl	chEvtWaitOneTimeout
 759              	.LVL100:
 760              		.loc 1 269 0
 761 0060 D0F10101 		rsbs	r1, r0, #1
 762 0064 38BF     		it	cc
 763 0066 0021     		movcc	r1, #0
 764 0068 0420     		movs	r0, #4
 765              	.LVL101:
 766 006a FFF7FEFF 		bl	_test_assert
 767              	.LVL102:
 768 006e 0028     		cmp	r0, #0
 769 0070 D4D1     		bne	.L22
 770              		.loc 1 270 0
 771 0072 0A21     		movs	r1, #10
 772 0074 4FF0FF30 		mov	r0, #-1
 773 0078 FFF7FEFF 		bl	chEvtWaitAnyTimeout
 774              	.LVL103:
 775              		.loc 1 271 0
 776 007c D0F10101 		rsbs	r1, r0, #1
 777 0080 38BF     		it	cc
 778 0082 0021     		movcc	r1, #0
 779 0084 0520     		movs	r0, #5
 780              	.LVL104:
 781 0086 FFF7FEFF 		bl	_test_assert
 782              	.LVL105:
 783 008a 0028     		cmp	r0, #0
ARM GAS  C:\cygwin\tmp\ccapmX2i.s 			page 15


 784 008c C6D1     		bne	.L22
 785              		.loc 1 272 0
 786 008e 0A21     		movs	r1, #10
 787 0090 4FF0FF30 		mov	r0, #-1
 788 0094 FFF7FEFF 		bl	chEvtWaitAllTimeout
 789              	.LVL106:
 790              		.loc 1 273 0
 791 0098 D0F10101 		rsbs	r1, r0, #1
 792 009c 38BF     		it	cc
 793 009e 0021     		movcc	r1, #0
 794 00a0 0620     		movs	r0, #6
 795              	.LVL107:
 796              	.LBE5:
 797              	.LBE4:
 798              		.loc 1 274 0
 799 00a2 BDE80840 		pop	{r3, lr}
 800              	.LBB7:
 801              	.LBB6:
 802              		.loc 1 273 0
 803 00a6 FFF7FEBF 		b	_test_assert
 804              	.LVL108:
 805              	.LBE6:
 806              	.LBE7:
 807              		.cfi_endproc
 808              	.LFE17:
 809              		.size	evt3_execute, .-evt3_execute
 810              		.global	patternevt
 811              		.global	testevt3
 812              		.global	testevt2
 813              		.global	testevt1
 814 00aa 00BFAFF3 		.section	.rodata.patternevt,"a",%progbits
 814      0080
 815              		.align	2
 816              		.type	patternevt, %object
 817              		.size	patternevt, 16
 818              	patternevt:
 819 0000 00000000 		.word	testevt1
 820 0004 00000000 		.word	testevt2
 821 0008 00000000 		.word	testevt3
 822 000c 00000000 		.word	0
 823              		.section	.rodata.testevt2,"a",%progbits
 824              		.align	2
 825              		.type	testevt2, %object
 826              		.size	testevt2, 16
 827              	testevt2:
 828 0000 1C000000 		.word	.LC3
 829 0004 00000000 		.word	evt2_setup
 830 0008 00000000 		.word	0
 831 000c 00000000 		.word	evt2_execute
 832              		.section	.rodata.str1.4,"aMS",%progbits,1
 833              		.align	2
 834              	.LC0:
 835 0000 4100     		.ascii	"A\000"
 836 0002 0000     		.space	2
 837              	.LC1:
 838 0004 41424300 		.ascii	"ABC\000"
 839              	.LC2:
ARM GAS  C:\cygwin\tmp\ccapmX2i.s 			page 16


 840 0008 4576656E 		.ascii	"Events, timeouts\000"
 840      74732C20 
 840      74696D65 
 840      6F757473 
 840      00
 841 0019 000000   		.space	3
 842              	.LC3:
 843 001c 4576656E 		.ascii	"Events, wait and broadcast\000"
 843      74732C20 
 843      77616974 
 843      20616E64 
 843      2062726F 
 844 0037 00       		.space	1
 845              	.LC4:
 846 0038 4576656E 		.ascii	"Events, registration and dispatch\000"
 846      74732C20 
 846      72656769 
 846      73747261 
 846      74696F6E 
 847 005a 0000     		.section	.rodata.testevt1,"a",%progbits
 848              		.align	2
 849              		.type	testevt1, %object
 850              		.size	testevt1, 16
 851              	testevt1:
 852 0000 38000000 		.word	.LC4
 853 0004 00000000 		.word	evt1_setup
 854 0008 00000000 		.word	0
 855 000c 00000000 		.word	evt1_execute
 856              		.section	.rodata.evhndl,"a",%progbits
 857              		.align	2
 858              		.set	.LANCHOR2,. + 0
 859              		.type	evhndl, %object
 860              		.size	evhndl, 12
 861              	evhndl:
 862 0000 00000000 		.word	h1
 863 0004 00000000 		.word	h2
 864 0008 00000000 		.word	h3
 865              		.section	.rodata.testevt3,"a",%progbits
 866              		.align	2
 867              		.type	testevt3, %object
 868              		.size	testevt3, 16
 869              	testevt3:
 870 0000 08000000 		.word	.LC2
 871 0004 00000000 		.word	evt3_setup
 872 0008 00000000 		.word	0
 873 000c 00000000 		.word	evt3_execute
 874              		.section	.data.es1,"aw",%progbits
 875              		.align	2
 876              		.set	.LANCHOR0,. + 0
 877              		.type	es1, %object
 878              		.size	es1, 4
 879              	es1:
 880 0000 00000000 		.word	es1
 881              		.section	.data.es2,"aw",%progbits
 882              		.align	2
 883              		.set	.LANCHOR1,. + 0
 884              		.type	es2, %object
ARM GAS  C:\cygwin\tmp\ccapmX2i.s 			page 17


 885              		.size	es2, 4
 886              	es2:
 887 0000 00000000 		.word	es2
 888              		.text
 889              	.Letext0:
 890              		.file 2 "c:\\develop\\genist\\chibistudio\\tools\\yagarto-tools\\yagarto-20121222\\bin\\../lib/gcc
 891              		.file 3 "c:/develop/genist/chibistudio/tools/yagarto-tools/yagarto-20121222/lib/gcc/../../arm-none
 892              		.file 4 "../../../os/ports/GCC/ARMCMx/chtypes.h"
 893              		.file 5 "../../../os/kernel/include/chlists.h"
 894              		.file 6 "../../../os/kernel/include/chthreads.h"
 895              		.file 7 "../../../os/ports/GCC/ARMCMx/chcore_v7m.h"
 896              		.file 8 "../../../os/kernel/include/chvt.h"
 897              		.file 9 "../../../os/kernel/include/chschd.h"
 898              		.file 10 "../../../os/kernel/include/chmtx.h"
 899              		.file 11 "../../../os/kernel/include/chevents.h"
 900              		.file 12 "../../../test/test.h"
 901              		.section	.debug_info,"",%progbits
 902              	.Ldebug_info0:
 903 0000 A5110000 		.4byte	0x11a5
 904 0004 0200     		.2byte	0x2
 905 0006 00000000 		.4byte	.Ldebug_abbrev0
 906 000a 04       		.byte	0x4
 907 000b 01       		.uleb128 0x1
 908 000c 2C030000 		.4byte	.LASF128
 909 0010 01       		.byte	0x1
 910 0011 10050000 		.4byte	.LASF129
 911 0015 55040000 		.4byte	.LASF130
 912 0019 30000000 		.4byte	.Ldebug_ranges0+0x30
 913 001d 00000000 		.4byte	0
 914 0021 00000000 		.4byte	0
 915 0025 00000000 		.4byte	.Ldebug_line0
 916 0029 02       		.uleb128 0x2
 917 002a 04       		.byte	0x4
 918 002b 05       		.byte	0x5
 919 002c 696E7400 		.ascii	"int\000"
 920 0030 03       		.uleb128 0x3
 921 0031 19000000 		.4byte	.LASF2
 922 0035 02       		.byte	0x2
 923 0036 D5       		.byte	0xd5
 924 0037 3B000000 		.4byte	0x3b
 925 003b 04       		.uleb128 0x4
 926 003c 04       		.byte	0x4
 927 003d 07       		.byte	0x7
 928 003e B1010000 		.4byte	.LASF0
 929 0042 04       		.uleb128 0x4
 930 0043 01       		.byte	0x1
 931 0044 06       		.byte	0x6
 932 0045 A8000000 		.4byte	.LASF1
 933 0049 03       		.uleb128 0x3
 934 004a 3F050000 		.4byte	.LASF3
 935 004e 03       		.byte	0x3
 936 004f 2A       		.byte	0x2a
 937 0050 54000000 		.4byte	0x54
 938 0054 04       		.uleb128 0x4
 939 0055 01       		.byte	0x1
 940 0056 08       		.byte	0x8
 941 0057 7F030000 		.4byte	.LASF4
ARM GAS  C:\cygwin\tmp\ccapmX2i.s 			page 18


 942 005b 04       		.uleb128 0x4
 943 005c 02       		.byte	0x2
 944 005d 05       		.byte	0x5
 945 005e C6030000 		.4byte	.LASF5
 946 0062 04       		.uleb128 0x4
 947 0063 02       		.byte	0x2
 948 0064 07       		.byte	0x7
 949 0065 10020000 		.4byte	.LASF6
 950 0069 03       		.uleb128 0x3
 951 006a 77030000 		.4byte	.LASF7
 952 006e 03       		.byte	0x3
 953 006f 4F       		.byte	0x4f
 954 0070 74000000 		.4byte	0x74
 955 0074 04       		.uleb128 0x4
 956 0075 04       		.byte	0x4
 957 0076 05       		.byte	0x5
 958 0077 F9000000 		.4byte	.LASF8
 959 007b 03       		.uleb128 0x3
 960 007c 32040000 		.4byte	.LASF9
 961 0080 03       		.byte	0x3
 962 0081 50       		.byte	0x50
 963 0082 86000000 		.4byte	0x86
 964 0086 04       		.uleb128 0x4
 965 0087 04       		.byte	0x4
 966 0088 07       		.byte	0x7
 967 0089 C6010000 		.4byte	.LASF10
 968 008d 04       		.uleb128 0x4
 969 008e 08       		.byte	0x8
 970 008f 05       		.byte	0x5
 971 0090 9A000000 		.4byte	.LASF11
 972 0094 03       		.uleb128 0x3
 973 0095 27000000 		.4byte	.LASF12
 974 0099 03       		.byte	0x3
 975 009a 78       		.byte	0x78
 976 009b 9F000000 		.4byte	0x9f
 977 009f 04       		.uleb128 0x4
 978 00a0 08       		.byte	0x8
 979 00a1 07       		.byte	0x7
 980 00a2 43000000 		.4byte	.LASF13
 981 00a6 03       		.uleb128 0x3
 982 00a7 D0000000 		.4byte	.LASF14
 983 00ab 04       		.byte	0x4
 984 00ac 24       		.byte	0x24
 985 00ad B1000000 		.4byte	0xb1
 986 00b1 04       		.uleb128 0x4
 987 00b2 01       		.byte	0x1
 988 00b3 02       		.byte	0x2
 989 00b4 71030000 		.4byte	.LASF15
 990 00b8 03       		.uleb128 0x3
 991 00b9 53020000 		.4byte	.LASF16
 992 00bd 04       		.byte	0x4
 993 00be 25       		.byte	0x25
 994 00bf 49000000 		.4byte	0x49
 995 00c3 03       		.uleb128 0x3
 996 00c4 0E010000 		.4byte	.LASF17
 997 00c8 04       		.byte	0x4
 998 00c9 26       		.byte	0x26
ARM GAS  C:\cygwin\tmp\ccapmX2i.s 			page 19


 999 00ca 49000000 		.4byte	0x49
 1000 00ce 03       		.uleb128 0x3
 1001 00cf 52030000 		.4byte	.LASF18
 1002 00d3 04       		.byte	0x4
 1003 00d4 27       		.byte	0x27
 1004 00d5 49000000 		.4byte	0x49
 1005 00d9 03       		.uleb128 0x3
 1006 00da EF000000 		.4byte	.LASF19
 1007 00de 04       		.byte	0x4
 1008 00df 28       		.byte	0x28
 1009 00e0 49000000 		.4byte	0x49
 1010 00e4 03       		.uleb128 0x3
 1011 00e5 69030000 		.4byte	.LASF20
 1012 00e9 04       		.byte	0x4
 1013 00ea 29       		.byte	0x29
 1014 00eb 7B000000 		.4byte	0x7b
 1015 00ef 03       		.uleb128 0x3
 1016 00f0 35020000 		.4byte	.LASF21
 1017 00f4 04       		.byte	0x4
 1018 00f5 2A       		.byte	0x2a
 1019 00f6 69000000 		.4byte	0x69
 1020 00fa 03       		.uleb128 0x3
 1021 00fb 84010000 		.4byte	.LASF22
 1022 00ff 04       		.byte	0x4
 1023 0100 2B       		.byte	0x2b
 1024 0101 69000000 		.4byte	0x69
 1025 0105 03       		.uleb128 0x3
 1026 0106 67020000 		.4byte	.LASF23
 1027 010a 04       		.byte	0x4
 1028 010b 2C       		.byte	0x2c
 1029 010c 7B000000 		.4byte	0x7b
 1030 0110 03       		.uleb128 0x3
 1031 0111 F9040000 		.4byte	.LASF24
 1032 0115 04       		.byte	0x4
 1033 0116 2D       		.byte	0x2d
 1034 0117 7B000000 		.4byte	0x7b
 1035 011b 03       		.uleb128 0x3
 1036 011c AE040000 		.4byte	.LASF25
 1037 0120 04       		.byte	0x4
 1038 0121 2E       		.byte	0x2e
 1039 0122 7B000000 		.4byte	0x7b
 1040 0126 03       		.uleb128 0x3
 1041 0127 07040000 		.4byte	.LASF26
 1042 012b 05       		.byte	0x5
 1043 012c 23       		.byte	0x23
 1044 012d 31010000 		.4byte	0x131
 1045 0131 05       		.uleb128 0x5
 1046 0132 07040000 		.4byte	.LASF26
 1047 0136 4C       		.byte	0x4c
 1048 0137 06       		.byte	0x6
 1049 0138 57       		.byte	0x57
 1050 0139 64020000 		.4byte	0x264
 1051 013d 06       		.uleb128 0x6
 1052 013e F8030000 		.4byte	.LASF27
 1053 0142 06       		.byte	0x6
 1054 0143 58       		.byte	0x58
 1055 0144 89020000 		.4byte	0x289
ARM GAS  C:\cygwin\tmp\ccapmX2i.s 			page 20


 1056 0148 02       		.byte	0x2
 1057 0149 23       		.byte	0x23
 1058 014a 00       		.uleb128 0
 1059 014b 06       		.uleb128 0x6
 1060 014c 5A030000 		.4byte	.LASF28
 1061 0150 06       		.byte	0x6
 1062 0151 5A       		.byte	0x5a
 1063 0152 89020000 		.4byte	0x289
 1064 0156 02       		.byte	0x2
 1065 0157 23       		.byte	0x23
 1066 0158 04       		.uleb128 0x4
 1067 0159 06       		.uleb128 0x6
 1068 015a 86000000 		.4byte	.LASF29
 1069 015e 06       		.byte	0x6
 1070 015f 5C       		.byte	0x5c
 1071 0160 E4000000 		.4byte	0xe4
 1072 0164 02       		.byte	0x2
 1073 0165 23       		.byte	0x23
 1074 0166 08       		.uleb128 0x8
 1075 0167 06       		.uleb128 0x6
 1076 0168 C2050000 		.4byte	.LASF30
 1077 016c 06       		.byte	0x6
 1078 016d 5D       		.byte	0x5d
 1079 016e 62030000 		.4byte	0x362
 1080 0172 02       		.byte	0x2
 1081 0173 23       		.byte	0x23
 1082 0174 0C       		.uleb128 0xc
 1083 0175 06       		.uleb128 0x6
 1084 0176 4F010000 		.4byte	.LASF31
 1085 017a 06       		.byte	0x6
 1086 017b 5F       		.byte	0x5f
 1087 017c 89020000 		.4byte	0x289
 1088 0180 02       		.byte	0x2
 1089 0181 23       		.byte	0x23
 1090 0182 10       		.uleb128 0x10
 1091 0183 06       		.uleb128 0x6
 1092 0184 E5020000 		.4byte	.LASF32
 1093 0188 06       		.byte	0x6
 1094 0189 60       		.byte	0x60
 1095 018a 89020000 		.4byte	0x289
 1096 018e 02       		.byte	0x2
 1097 018f 23       		.byte	0x23
 1098 0190 14       		.uleb128 0x14
 1099 0191 06       		.uleb128 0x6
 1100 0192 70050000 		.4byte	.LASF33
 1101 0196 06       		.byte	0x6
 1102 0197 67       		.byte	0x67
 1103 0198 DC050000 		.4byte	0x5dc
 1104 019c 02       		.byte	0x2
 1105 019d 23       		.byte	0x23
 1106 019e 18       		.uleb128 0x18
 1107 019f 06       		.uleb128 0x6
 1108 01a0 A6010000 		.4byte	.LASF34
 1109 01a4 06       		.byte	0x6
 1110 01a5 6D       		.byte	0x6d
 1111 01a6 EE050000 		.4byte	0x5ee
 1112 01aa 02       		.byte	0x2
ARM GAS  C:\cygwin\tmp\ccapmX2i.s 			page 21


 1113 01ab 23       		.byte	0x23
 1114 01ac 1C       		.uleb128 0x1c
 1115 01ad 06       		.uleb128 0x6
 1116 01ae D0030000 		.4byte	.LASF35
 1117 01b2 06       		.byte	0x6
 1118 01b3 72       		.byte	0x72
 1119 01b4 C3000000 		.4byte	0xc3
 1120 01b8 02       		.byte	0x2
 1121 01b9 23       		.byte	0x23
 1122 01ba 20       		.uleb128 0x20
 1123 01bb 06       		.uleb128 0x6
 1124 01bc FF030000 		.4byte	.LASF36
 1125 01c0 06       		.byte	0x6
 1126 01c1 76       		.byte	0x76
 1127 01c2 B8000000 		.4byte	0xb8
 1128 01c6 02       		.byte	0x2
 1129 01c7 23       		.byte	0x23
 1130 01c8 21       		.uleb128 0x21
 1131 01c9 06       		.uleb128 0x6
 1132 01ca 28050000 		.4byte	.LASF37
 1133 01ce 06       		.byte	0x6
 1134 01cf 7B       		.byte	0x7b
 1135 01d0 CE000000 		.4byte	0xce
 1136 01d4 02       		.byte	0x2
 1137 01d5 23       		.byte	0x23
 1138 01d6 22       		.uleb128 0x22
 1139 01d7 06       		.uleb128 0x6
 1140 01d8 D8030000 		.4byte	.LASF38
 1141 01dc 06       		.byte	0x6
 1142 01dd 81       		.byte	0x81
 1143 01de D9000000 		.4byte	0xd9
 1144 01e2 02       		.byte	0x2
 1145 01e3 23       		.byte	0x23
 1146 01e4 23       		.uleb128 0x23
 1147 01e5 06       		.uleb128 0x6
 1148 01e6 CC040000 		.4byte	.LASF39
 1149 01ea 06       		.byte	0x6
 1150 01eb 88       		.byte	0x88
 1151 01ec 4E040000 		.4byte	0x44e
 1152 01f0 02       		.byte	0x2
 1153 01f1 23       		.byte	0x23
 1154 01f2 24       		.uleb128 0x24
 1155 01f3 07       		.uleb128 0x7
 1156 01f4 705F7500 		.ascii	"p_u\000"
 1157 01f8 06       		.byte	0x6
 1158 01f9 AD       		.byte	0xad
 1159 01fa A7050000 		.4byte	0x5a7
 1160 01fe 02       		.byte	0x2
 1161 01ff 23       		.byte	0x23
 1162 0200 28       		.uleb128 0x28
 1163 0201 06       		.uleb128 0x6
 1164 0202 C8050000 		.4byte	.LASF40
 1165 0206 06       		.byte	0x6
 1166 0207 B2       		.byte	0xb2
 1167 0208 B1020000 		.4byte	0x2b1
 1168 020c 02       		.byte	0x2
 1169 020d 23       		.byte	0x23
ARM GAS  C:\cygwin\tmp\ccapmX2i.s 			page 22


 1170 020e 2C       		.uleb128 0x2c
 1171 020f 06       		.uleb128 0x6
 1172 0210 DA040000 		.4byte	.LASF41
 1173 0214 06       		.byte	0x6
 1174 0215 B8       		.byte	0xb8
 1175 0216 8F020000 		.4byte	0x28f
 1176 021a 02       		.byte	0x2
 1177 021b 23       		.byte	0x23
 1178 021c 30       		.uleb128 0x30
 1179 021d 06       		.uleb128 0x6
 1180 021e 13000000 		.4byte	.LASF42
 1181 0222 06       		.byte	0x6
 1182 0223 BC       		.byte	0xbc
 1183 0224 EF000000 		.4byte	0xef
 1184 0228 02       		.byte	0x2
 1185 0229 23       		.byte	0x23
 1186 022a 38       		.uleb128 0x38
 1187 022b 06       		.uleb128 0x6
 1188 022c 17040000 		.4byte	.LASF43
 1189 0230 06       		.byte	0x6
 1190 0231 C2       		.byte	0xc2
 1191 0232 05010000 		.4byte	0x105
 1192 0236 02       		.byte	0x2
 1193 0237 23       		.byte	0x23
 1194 0238 3C       		.uleb128 0x3c
 1195 0239 06       		.uleb128 0x6
 1196 023a BC030000 		.4byte	.LASF44
 1197 023e 06       		.byte	0x6
 1198 023f C9       		.byte	0xc9
 1199 0240 F4050000 		.4byte	0x5f4
 1200 0244 02       		.byte	0x2
 1201 0245 23       		.byte	0x23
 1202 0246 40       		.uleb128 0x40
 1203 0247 06       		.uleb128 0x6
 1204 0248 B8040000 		.4byte	.LASF45
 1205 024c 06       		.byte	0x6
 1206 024d CD       		.byte	0xcd
 1207 024e E4000000 		.4byte	0xe4
 1208 0252 02       		.byte	0x2
 1209 0253 23       		.byte	0x23
 1210 0254 44       		.uleb128 0x44
 1211 0255 06       		.uleb128 0x6
 1212 0256 C8000000 		.4byte	.LASF46
 1213 025a 06       		.byte	0x6
 1214 025b D3       		.byte	0xd3
 1215 025c C7020000 		.4byte	0x2c7
 1216 0260 02       		.byte	0x2
 1217 0261 23       		.byte	0x23
 1218 0262 48       		.uleb128 0x48
 1219 0263 00       		.byte	0
 1220 0264 08       		.uleb128 0x8
 1221 0265 08       		.byte	0x8
 1222 0266 05       		.byte	0x5
 1223 0267 5A       		.byte	0x5a
 1224 0268 89020000 		.4byte	0x289
 1225 026c 06       		.uleb128 0x6
 1226 026d F8030000 		.4byte	.LASF27
ARM GAS  C:\cygwin\tmp\ccapmX2i.s 			page 23


 1227 0271 05       		.byte	0x5
 1228 0272 5B       		.byte	0x5b
 1229 0273 89020000 		.4byte	0x289
 1230 0277 02       		.byte	0x2
 1231 0278 23       		.byte	0x23
 1232 0279 00       		.uleb128 0
 1233 027a 06       		.uleb128 0x6
 1234 027b 5A030000 		.4byte	.LASF28
 1235 027f 05       		.byte	0x5
 1236 0280 5D       		.byte	0x5d
 1237 0281 89020000 		.4byte	0x289
 1238 0285 02       		.byte	0x2
 1239 0286 23       		.byte	0x23
 1240 0287 04       		.uleb128 0x4
 1241 0288 00       		.byte	0
 1242 0289 09       		.uleb128 0x9
 1243 028a 04       		.byte	0x4
 1244 028b 26010000 		.4byte	0x126
 1245 028f 03       		.uleb128 0x3
 1246 0290 03030000 		.4byte	.LASF47
 1247 0294 05       		.byte	0x5
 1248 0295 5F       		.byte	0x5f
 1249 0296 64020000 		.4byte	0x264
 1250 029a 08       		.uleb128 0x8
 1251 029b 04       		.byte	0x4
 1252 029c 05       		.byte	0x5
 1253 029d 64       		.byte	0x64
 1254 029e B1020000 		.4byte	0x2b1
 1255 02a2 06       		.uleb128 0x6
 1256 02a3 F8030000 		.4byte	.LASF27
 1257 02a7 05       		.byte	0x5
 1258 02a8 66       		.byte	0x66
 1259 02a9 89020000 		.4byte	0x289
 1260 02ad 02       		.byte	0x2
 1261 02ae 23       		.byte	0x23
 1262 02af 00       		.uleb128 0
 1263 02b0 00       		.byte	0
 1264 02b1 03       		.uleb128 0x3
 1265 02b2 5B020000 		.4byte	.LASF48
 1266 02b6 05       		.byte	0x5
 1267 02b7 69       		.byte	0x69
 1268 02b8 9A020000 		.4byte	0x29a
 1269 02bc 03       		.uleb128 0x3
 1270 02bd 5F010000 		.4byte	.LASF49
 1271 02c1 07       		.byte	0x7
 1272 02c2 DE       		.byte	0xde
 1273 02c3 C7020000 		.4byte	0x2c7
 1274 02c7 0A       		.uleb128 0xa
 1275 02c8 04       		.byte	0x4
 1276 02c9 03       		.uleb128 0x3
 1277 02ca 79020000 		.4byte	.LASF50
 1278 02ce 07       		.byte	0x7
 1279 02cf E4       		.byte	0xe4
 1280 02d0 94000000 		.4byte	0x94
 1281 02d4 0B       		.uleb128 0xb
 1282 02d5 D3040000 		.4byte	.LASF51
 1283 02d9 24       		.byte	0x24
ARM GAS  C:\cygwin\tmp\ccapmX2i.s 			page 24


 1284 02da 07       		.byte	0x7
 1285 02db 0501     		.2byte	0x105
 1286 02dd 62030000 		.4byte	0x362
 1287 02e1 0C       		.uleb128 0xc
 1288 02e2 723400   		.ascii	"r4\000"
 1289 02e5 07       		.byte	0x7
 1290 02e6 1801     		.2byte	0x118
 1291 02e8 BC020000 		.4byte	0x2bc
 1292 02ec 02       		.byte	0x2
 1293 02ed 23       		.byte	0x23
 1294 02ee 00       		.uleb128 0
 1295 02ef 0C       		.uleb128 0xc
 1296 02f0 723500   		.ascii	"r5\000"
 1297 02f3 07       		.byte	0x7
 1298 02f4 1901     		.2byte	0x119
 1299 02f6 BC020000 		.4byte	0x2bc
 1300 02fa 02       		.byte	0x2
 1301 02fb 23       		.byte	0x23
 1302 02fc 04       		.uleb128 0x4
 1303 02fd 0C       		.uleb128 0xc
 1304 02fe 723600   		.ascii	"r6\000"
 1305 0301 07       		.byte	0x7
 1306 0302 1A01     		.2byte	0x11a
 1307 0304 BC020000 		.4byte	0x2bc
 1308 0308 02       		.byte	0x2
 1309 0309 23       		.byte	0x23
 1310 030a 08       		.uleb128 0x8
 1311 030b 0C       		.uleb128 0xc
 1312 030c 723700   		.ascii	"r7\000"
 1313 030f 07       		.byte	0x7
 1314 0310 1B01     		.2byte	0x11b
 1315 0312 BC020000 		.4byte	0x2bc
 1316 0316 02       		.byte	0x2
 1317 0317 23       		.byte	0x23
 1318 0318 0C       		.uleb128 0xc
 1319 0319 0C       		.uleb128 0xc
 1320 031a 723800   		.ascii	"r8\000"
 1321 031d 07       		.byte	0x7
 1322 031e 1C01     		.2byte	0x11c
 1323 0320 BC020000 		.4byte	0x2bc
 1324 0324 02       		.byte	0x2
 1325 0325 23       		.byte	0x23
 1326 0326 10       		.uleb128 0x10
 1327 0327 0C       		.uleb128 0xc
 1328 0328 723900   		.ascii	"r9\000"
 1329 032b 07       		.byte	0x7
 1330 032c 1D01     		.2byte	0x11d
 1331 032e BC020000 		.4byte	0x2bc
 1332 0332 02       		.byte	0x2
 1333 0333 23       		.byte	0x23
 1334 0334 14       		.uleb128 0x14
 1335 0335 0C       		.uleb128 0xc
 1336 0336 72313000 		.ascii	"r10\000"
 1337 033a 07       		.byte	0x7
 1338 033b 1E01     		.2byte	0x11e
 1339 033d BC020000 		.4byte	0x2bc
 1340 0341 02       		.byte	0x2
ARM GAS  C:\cygwin\tmp\ccapmX2i.s 			page 25


 1341 0342 23       		.byte	0x23
 1342 0343 18       		.uleb128 0x18
 1343 0344 0C       		.uleb128 0xc
 1344 0345 72313100 		.ascii	"r11\000"
 1345 0349 07       		.byte	0x7
 1346 034a 1F01     		.2byte	0x11f
 1347 034c BC020000 		.4byte	0x2bc
 1348 0350 02       		.byte	0x2
 1349 0351 23       		.byte	0x23
 1350 0352 1C       		.uleb128 0x1c
 1351 0353 0C       		.uleb128 0xc
 1352 0354 6C7200   		.ascii	"lr\000"
 1353 0357 07       		.byte	0x7
 1354 0358 2001     		.2byte	0x120
 1355 035a BC020000 		.4byte	0x2bc
 1356 035e 02       		.byte	0x2
 1357 035f 23       		.byte	0x23
 1358 0360 20       		.uleb128 0x20
 1359 0361 00       		.byte	0
 1360 0362 0B       		.uleb128 0xb
 1361 0363 08020000 		.4byte	.LASF52
 1362 0367 04       		.byte	0x4
 1363 0368 07       		.byte	0x7
 1364 0369 2A01     		.2byte	0x12a
 1365 036b 7F030000 		.4byte	0x37f
 1366 036f 0C       		.uleb128 0xc
 1367 0370 72313300 		.ascii	"r13\000"
 1368 0374 07       		.byte	0x7
 1369 0375 2B01     		.2byte	0x12b
 1370 0377 7F030000 		.4byte	0x37f
 1371 037b 02       		.byte	0x2
 1372 037c 23       		.byte	0x23
 1373 037d 00       		.uleb128 0
 1374 037e 00       		.byte	0
 1375 037f 09       		.uleb128 0x9
 1376 0380 04       		.byte	0x4
 1377 0381 D4020000 		.4byte	0x2d4
 1378 0385 04       		.uleb128 0x4
 1379 0386 04       		.byte	0x4
 1380 0387 07       		.byte	0x7
 1381 0388 A9020000 		.4byte	.LASF53
 1382 038c 03       		.uleb128 0x3
 1383 038d C3040000 		.4byte	.LASF54
 1384 0391 08       		.byte	0x8
 1385 0392 4E       		.byte	0x4e
 1386 0393 97030000 		.4byte	0x397
 1387 0397 09       		.uleb128 0x9
 1388 0398 04       		.byte	0x4
 1389 0399 9D030000 		.4byte	0x39d
 1390 039d 0D       		.uleb128 0xd
 1391 039e 01       		.byte	0x1
 1392 039f A9030000 		.4byte	0x3a9
 1393 03a3 0E       		.uleb128 0xe
 1394 03a4 C7020000 		.4byte	0x2c7
 1395 03a8 00       		.byte	0
 1396 03a9 03       		.uleb128 0x3
 1397 03aa 43040000 		.4byte	.LASF55
ARM GAS  C:\cygwin\tmp\ccapmX2i.s 			page 26


 1398 03ae 08       		.byte	0x8
 1399 03af 53       		.byte	0x53
 1400 03b0 B4030000 		.4byte	0x3b4
 1401 03b4 05       		.uleb128 0x5
 1402 03b5 43040000 		.4byte	.LASF55
 1403 03b9 14       		.byte	0x14
 1404 03ba 08       		.byte	0x8
 1405 03bb 5A       		.byte	0x5a
 1406 03bc 07040000 		.4byte	0x407
 1407 03c0 06       		.uleb128 0x6
 1408 03c1 BE010000 		.4byte	.LASF56
 1409 03c5 08       		.byte	0x8
 1410 03c6 5B       		.byte	0x5b
 1411 03c7 07040000 		.4byte	0x407
 1412 03cb 02       		.byte	0x2
 1413 03cc 23       		.byte	0x23
 1414 03cd 00       		.uleb128 0
 1415 03ce 06       		.uleb128 0x6
 1416 03cf 68010000 		.4byte	.LASF57
 1417 03d3 08       		.byte	0x8
 1418 03d4 5D       		.byte	0x5d
 1419 03d5 07040000 		.4byte	0x407
 1420 03d9 02       		.byte	0x2
 1421 03da 23       		.byte	0x23
 1422 03db 04       		.uleb128 0x4
 1423 03dc 06       		.uleb128 0x6
 1424 03dd 96020000 		.4byte	.LASF58
 1425 03e1 08       		.byte	0x8
 1426 03e2 5F       		.byte	0x5f
 1427 03e3 1B010000 		.4byte	0x11b
 1428 03e7 02       		.byte	0x2
 1429 03e8 23       		.byte	0x23
 1430 03e9 08       		.uleb128 0x8
 1431 03ea 06       		.uleb128 0x6
 1432 03eb B2020000 		.4byte	.LASF59
 1433 03ef 08       		.byte	0x8
 1434 03f0 60       		.byte	0x60
 1435 03f1 8C030000 		.4byte	0x38c
 1436 03f5 02       		.byte	0x2
 1437 03f6 23       		.byte	0x23
 1438 03f7 0C       		.uleb128 0xc
 1439 03f8 06       		.uleb128 0x6
 1440 03f9 F2040000 		.4byte	.LASF60
 1441 03fd 08       		.byte	0x8
 1442 03fe 62       		.byte	0x62
 1443 03ff C7020000 		.4byte	0x2c7
 1444 0403 02       		.byte	0x2
 1445 0404 23       		.byte	0x23
 1446 0405 10       		.uleb128 0x10
 1447 0406 00       		.byte	0
 1448 0407 09       		.uleb128 0x9
 1449 0408 04       		.byte	0x4
 1450 0409 A9030000 		.4byte	0x3a9
 1451 040d 08       		.uleb128 0x8
 1452 040e 10       		.byte	0x10
 1453 040f 08       		.byte	0x8
 1454 0410 6C       		.byte	0x6c
ARM GAS  C:\cygwin\tmp\ccapmX2i.s 			page 27


 1455 0411 4E040000 		.4byte	0x44e
 1456 0415 06       		.uleb128 0x6
 1457 0416 BE010000 		.4byte	.LASF56
 1458 041a 08       		.byte	0x8
 1459 041b 6D       		.byte	0x6d
 1460 041c 07040000 		.4byte	0x407
 1461 0420 02       		.byte	0x2
 1462 0421 23       		.byte	0x23
 1463 0422 00       		.uleb128 0
 1464 0423 06       		.uleb128 0x6
 1465 0424 68010000 		.4byte	.LASF57
 1466 0428 08       		.byte	0x8
 1467 0429 6F       		.byte	0x6f
 1468 042a 07040000 		.4byte	0x407
 1469 042e 02       		.byte	0x2
 1470 042f 23       		.byte	0x23
 1471 0430 04       		.uleb128 0x4
 1472 0431 06       		.uleb128 0x6
 1473 0432 96020000 		.4byte	.LASF58
 1474 0436 08       		.byte	0x8
 1475 0437 71       		.byte	0x71
 1476 0438 1B010000 		.4byte	0x11b
 1477 043c 02       		.byte	0x2
 1478 043d 23       		.byte	0x23
 1479 043e 08       		.uleb128 0x8
 1480 043f 06       		.uleb128 0x6
 1481 0440 84050000 		.4byte	.LASF61
 1482 0444 08       		.byte	0x8
 1483 0445 72       		.byte	0x72
 1484 0446 4E040000 		.4byte	0x44e
 1485 044a 02       		.byte	0x2
 1486 044b 23       		.byte	0x23
 1487 044c 0C       		.uleb128 0xc
 1488 044d 00       		.byte	0
 1489 044e 0F       		.uleb128 0xf
 1490 044f 1B010000 		.4byte	0x11b
 1491 0453 03       		.uleb128 0x3
 1492 0454 97050000 		.4byte	.LASF62
 1493 0458 08       		.byte	0x8
 1494 0459 73       		.byte	0x73
 1495 045a 0D040000 		.4byte	0x40d
 1496 045e 08       		.uleb128 0x8
 1497 045f 1C       		.byte	0x1c
 1498 0460 09       		.byte	0x9
 1499 0461 57       		.byte	0x57
 1500 0462 BB040000 		.4byte	0x4bb
 1501 0466 06       		.uleb128 0x6
 1502 0467 3B040000 		.4byte	.LASF63
 1503 046b 09       		.byte	0x9
 1504 046c 58       		.byte	0x58
 1505 046d 8F020000 		.4byte	0x28f
 1506 0471 02       		.byte	0x2
 1507 0472 23       		.byte	0x23
 1508 0473 00       		.uleb128 0
 1509 0474 06       		.uleb128 0x6
 1510 0475 EA030000 		.4byte	.LASF64
 1511 0479 09       		.byte	0x9
ARM GAS  C:\cygwin\tmp\ccapmX2i.s 			page 28


 1512 047a 59       		.byte	0x59
 1513 047b E4000000 		.4byte	0xe4
 1514 047f 02       		.byte	0x2
 1515 0480 23       		.byte	0x23
 1516 0481 08       		.uleb128 0x8
 1517 0482 06       		.uleb128 0x6
 1518 0483 FD020000 		.4byte	.LASF65
 1519 0487 09       		.byte	0x9
 1520 0488 5B       		.byte	0x5b
 1521 0489 62030000 		.4byte	0x362
 1522 048d 02       		.byte	0x2
 1523 048e 23       		.byte	0x23
 1524 048f 0C       		.uleb128 0xc
 1525 0490 06       		.uleb128 0x6
 1526 0491 57010000 		.4byte	.LASF66
 1527 0495 09       		.byte	0x9
 1528 0496 5E       		.byte	0x5e
 1529 0497 89020000 		.4byte	0x289
 1530 049b 02       		.byte	0x2
 1531 049c 23       		.byte	0x23
 1532 049d 10       		.uleb128 0x10
 1533 049e 06       		.uleb128 0x6
 1534 049f 42030000 		.4byte	.LASF67
 1535 04a3 09       		.byte	0x9
 1536 04a4 5F       		.byte	0x5f
 1537 04a5 89020000 		.4byte	0x289
 1538 04a9 02       		.byte	0x2
 1539 04aa 23       		.byte	0x23
 1540 04ab 14       		.uleb128 0x14
 1541 04ac 06       		.uleb128 0x6
 1542 04ad 38030000 		.4byte	.LASF68
 1543 04b1 09       		.byte	0x9
 1544 04b2 62       		.byte	0x62
 1545 04b3 89020000 		.4byte	0x289
 1546 04b7 02       		.byte	0x2
 1547 04b8 23       		.byte	0x23
 1548 04b9 18       		.uleb128 0x18
 1549 04ba 00       		.byte	0
 1550 04bb 03       		.uleb128 0x3
 1551 04bc 2F050000 		.4byte	.LASF69
 1552 04c0 09       		.byte	0x9
 1553 04c1 64       		.byte	0x64
 1554 04c2 5E040000 		.4byte	0x45e
 1555 04c6 05       		.uleb128 0x5
 1556 04c7 73020000 		.4byte	.LASF70
 1557 04cb 10       		.byte	0x10
 1558 04cc 0A       		.byte	0xa
 1559 04cd 25       		.byte	0x25
 1560 04ce FD040000 		.4byte	0x4fd
 1561 04d2 06       		.uleb128 0x6
 1562 04d3 D7000000 		.4byte	.LASF71
 1563 04d7 0A       		.byte	0xa
 1564 04d8 26       		.byte	0x26
 1565 04d9 8F020000 		.4byte	0x28f
 1566 04dd 02       		.byte	0x2
 1567 04de 23       		.byte	0x23
 1568 04df 00       		.uleb128 0
ARM GAS  C:\cygwin\tmp\ccapmX2i.s 			page 29


 1569 04e0 06       		.uleb128 0x6
 1570 04e1 9E050000 		.4byte	.LASF72
 1571 04e5 0A       		.byte	0xa
 1572 04e6 28       		.byte	0x28
 1573 04e7 89020000 		.4byte	0x289
 1574 04eb 02       		.byte	0x2
 1575 04ec 23       		.byte	0x23
 1576 04ed 08       		.uleb128 0x8
 1577 04ee 06       		.uleb128 0x6
 1578 04ef A7040000 		.4byte	.LASF73
 1579 04f3 0A       		.byte	0xa
 1580 04f4 2A       		.byte	0x2a
 1581 04f5 FD040000 		.4byte	0x4fd
 1582 04f9 02       		.byte	0x2
 1583 04fa 23       		.byte	0x23
 1584 04fb 0C       		.uleb128 0xc
 1585 04fc 00       		.byte	0
 1586 04fd 09       		.uleb128 0x9
 1587 04fe 04       		.byte	0x4
 1588 04ff C6040000 		.4byte	0x4c6
 1589 0503 03       		.uleb128 0x3
 1590 0504 73020000 		.4byte	.LASF70
 1591 0508 0A       		.byte	0xa
 1592 0509 2C       		.byte	0x2c
 1593 050a C6040000 		.4byte	0x4c6
 1594 050e 03       		.uleb128 0x3
 1595 050f 47050000 		.4byte	.LASF74
 1596 0513 0B       		.byte	0xb
 1597 0514 25       		.byte	0x25
 1598 0515 19050000 		.4byte	0x519
 1599 0519 05       		.uleb128 0x5
 1600 051a 47050000 		.4byte	.LASF74
 1601 051e 10       		.byte	0x10
 1602 051f 0B       		.byte	0xb
 1603 0520 2A       		.byte	0x2a
 1604 0521 5E050000 		.4byte	0x55e
 1605 0525 06       		.uleb128 0x6
 1606 0526 3B020000 		.4byte	.LASF75
 1607 052a 0B       		.byte	0xb
 1608 052b 2B       		.byte	0x2b
 1609 052c 5E050000 		.4byte	0x55e
 1610 0530 02       		.byte	0x2
 1611 0531 23       		.byte	0x23
 1612 0532 00       		.uleb128 0
 1613 0533 06       		.uleb128 0x6
 1614 0534 9A030000 		.4byte	.LASF76
 1615 0538 0B       		.byte	0xb
 1616 0539 2E       		.byte	0x2e
 1617 053a 89020000 		.4byte	0x289
 1618 053e 02       		.byte	0x2
 1619 053f 23       		.byte	0x23
 1620 0540 04       		.uleb128 0x4
 1621 0541 06       		.uleb128 0x6
 1622 0542 4A030000 		.4byte	.LASF77
 1623 0546 0B       		.byte	0xb
 1624 0547 30       		.byte	0x30
 1625 0548 05010000 		.4byte	0x105
ARM GAS  C:\cygwin\tmp\ccapmX2i.s 			page 30


 1626 054c 02       		.byte	0x2
 1627 054d 23       		.byte	0x23
 1628 054e 08       		.uleb128 0x8
 1629 054f 06       		.uleb128 0x6
 1630 0550 B3030000 		.4byte	.LASF78
 1631 0554 0B       		.byte	0xb
 1632 0555 33       		.byte	0x33
 1633 0556 10010000 		.4byte	0x110
 1634 055a 02       		.byte	0x2
 1635 055b 23       		.byte	0x23
 1636 055c 0C       		.uleb128 0xc
 1637 055d 00       		.byte	0
 1638 055e 09       		.uleb128 0x9
 1639 055f 04       		.byte	0x4
 1640 0560 0E050000 		.4byte	0x50e
 1641 0564 05       		.uleb128 0x5
 1642 0565 8E010000 		.4byte	.LASF79
 1643 0569 04       		.byte	0x4
 1644 056a 0B       		.byte	0xb
 1645 056b 3A       		.byte	0x3a
 1646 056c 7F050000 		.4byte	0x57f
 1647 0570 06       		.uleb128 0x6
 1648 0571 8F050000 		.4byte	.LASF80
 1649 0575 0B       		.byte	0xb
 1650 0576 3B       		.byte	0x3b
 1651 0577 5E050000 		.4byte	0x55e
 1652 057b 02       		.byte	0x2
 1653 057c 23       		.byte	0x23
 1654 057d 00       		.uleb128 0
 1655 057e 00       		.byte	0
 1656 057f 03       		.uleb128 0x3
 1657 0580 8E010000 		.4byte	.LASF79
 1658 0584 0B       		.byte	0xb
 1659 0585 3E       		.byte	0x3e
 1660 0586 64050000 		.4byte	0x564
 1661 058a 03       		.uleb128 0x3
 1662 058b 9A010000 		.4byte	.LASF81
 1663 058f 0B       		.byte	0xb
 1664 0590 43       		.byte	0x43
 1665 0591 95050000 		.4byte	0x595
 1666 0595 09       		.uleb128 0x9
 1667 0596 04       		.byte	0x4
 1668 0597 9B050000 		.4byte	0x59b
 1669 059b 0D       		.uleb128 0xd
 1670 059c 01       		.byte	0x1
 1671 059d A7050000 		.4byte	0x5a7
 1672 05a1 0E       		.uleb128 0xe
 1673 05a2 FA000000 		.4byte	0xfa
 1674 05a6 00       		.byte	0
 1675 05a7 10       		.uleb128 0x10
 1676 05a8 04       		.byte	0x4
 1677 05a9 06       		.byte	0x6
 1678 05aa 8F       		.byte	0x8f
 1679 05ab DC050000 		.4byte	0x5dc
 1680 05af 11       		.uleb128 0x11
 1681 05b0 20000000 		.4byte	.LASF82
 1682 05b4 06       		.byte	0x6
ARM GAS  C:\cygwin\tmp\ccapmX2i.s 			page 31


 1683 05b5 96       		.byte	0x96
 1684 05b6 EF000000 		.4byte	0xef
 1685 05ba 11       		.uleb128 0x11
 1686 05bb 69000000 		.4byte	.LASF83
 1687 05bf 06       		.byte	0x6
 1688 05c0 9D       		.byte	0x9d
 1689 05c1 EF000000 		.4byte	0xef
 1690 05c5 11       		.uleb128 0x11
 1691 05c6 69050000 		.4byte	.LASF84
 1692 05ca 06       		.byte	0x6
 1693 05cb A4       		.byte	0xa4
 1694 05cc C7020000 		.4byte	0x2c7
 1695 05d0 11       		.uleb128 0x11
 1696 05d1 F1030000 		.4byte	.LASF85
 1697 05d5 06       		.byte	0x6
 1698 05d6 AB       		.byte	0xab
 1699 05d7 05010000 		.4byte	0x105
 1700 05db 00       		.byte	0
 1701 05dc 09       		.uleb128 0x9
 1702 05dd 04       		.byte	0x4
 1703 05de E2050000 		.4byte	0x5e2
 1704 05e2 12       		.uleb128 0x12
 1705 05e3 E7050000 		.4byte	0x5e7
 1706 05e7 04       		.uleb128 0x4
 1707 05e8 01       		.byte	0x1
 1708 05e9 08       		.byte	0x8
 1709 05ea 50040000 		.4byte	.LASF86
 1710 05ee 09       		.uleb128 0x9
 1711 05ef 04       		.byte	0x4
 1712 05f0 C9020000 		.4byte	0x2c9
 1713 05f4 09       		.uleb128 0x9
 1714 05f5 04       		.byte	0x4
 1715 05f6 03050000 		.4byte	0x503
 1716 05fa 03       		.uleb128 0x3
 1717 05fb 00000000 		.4byte	.LASF87
 1718 05ff 06       		.byte	0x6
 1719 0600 DE       		.byte	0xde
 1720 0601 05060000 		.4byte	0x605
 1721 0605 09       		.uleb128 0x9
 1722 0606 04       		.byte	0x4
 1723 0607 0B060000 		.4byte	0x60b
 1724 060b 13       		.uleb128 0x13
 1725 060c 01       		.byte	0x1
 1726 060d EF000000 		.4byte	0xef
 1727 0611 1B060000 		.4byte	0x61b
 1728 0615 0E       		.uleb128 0xe
 1729 0616 C7020000 		.4byte	0x2c7
 1730 061a 00       		.byte	0
 1731 061b 05       		.uleb128 0x5
 1732 061c 0E040000 		.4byte	.LASF88
 1733 0620 10       		.byte	0x10
 1734 0621 0C       		.byte	0xc
 1735 0622 3F       		.byte	0x3f
 1736 0623 60060000 		.4byte	0x660
 1737 0627 06       		.uleb128 0x6
 1738 0628 03020000 		.4byte	.LASF89
 1739 062c 0C       		.byte	0xc
ARM GAS  C:\cygwin\tmp\ccapmX2i.s 			page 32


 1740 062d 40       		.byte	0x40
 1741 062e DC050000 		.4byte	0x5dc
 1742 0632 02       		.byte	0x2
 1743 0633 23       		.byte	0x23
 1744 0634 00       		.uleb128 0
 1745 0635 06       		.uleb128 0x6
 1746 0636 10030000 		.4byte	.LASF90
 1747 063a 0C       		.byte	0xc
 1748 063b 41       		.byte	0x41
 1749 063c 62060000 		.4byte	0x662
 1750 0640 02       		.byte	0x2
 1751 0641 23       		.byte	0x23
 1752 0642 04       		.uleb128 0x4
 1753 0643 06       		.uleb128 0x6
 1754 0644 EF010000 		.4byte	.LASF91
 1755 0648 0C       		.byte	0xc
 1756 0649 42       		.byte	0x42
 1757 064a 62060000 		.4byte	0x662
 1758 064e 02       		.byte	0x2
 1759 064f 23       		.byte	0x23
 1760 0650 08       		.uleb128 0x8
 1761 0651 06       		.uleb128 0x6
 1762 0652 61030000 		.4byte	.LASF92
 1763 0656 0C       		.byte	0xc
 1764 0657 43       		.byte	0x43
 1765 0658 62060000 		.4byte	0x662
 1766 065c 02       		.byte	0x2
 1767 065d 23       		.byte	0x23
 1768 065e 0C       		.uleb128 0xc
 1769 065f 00       		.byte	0
 1770 0660 14       		.uleb128 0x14
 1771 0661 01       		.byte	0x1
 1772 0662 09       		.uleb128 0x9
 1773 0663 04       		.byte	0x4
 1774 0664 60060000 		.4byte	0x660
 1775 0668 15       		.uleb128 0x15
 1776 0669 A6030000 		.4byte	.LASF131
 1777 066d 01       		.byte	0x1
 1778 066e 0001     		.2byte	0x100
 1779 0670 01       		.byte	0x1
 1780 0671 01       		.byte	0x1
 1781 0672 81060000 		.4byte	0x681
 1782 0676 16       		.uleb128 0x16
 1783 0677 6D00     		.ascii	"m\000"
 1784 0679 01       		.byte	0x1
 1785 067a 0101     		.2byte	0x101
 1786 067c 05010000 		.4byte	0x105
 1787 0680 00       		.byte	0
 1788 0681 17       		.uleb128 0x17
 1789 0682 C8020000 		.4byte	.LASF93
 1790 0686 01       		.byte	0x1
 1791 0687 FB       		.byte	0xfb
 1792 0688 01       		.byte	0x1
 1793 0689 00000000 		.4byte	.LFB16
 1794 068d 08000000 		.4byte	.LFE16
 1795 0691 02       		.byte	0x2
 1796 0692 7D       		.byte	0x7d
ARM GAS  C:\cygwin\tmp\ccapmX2i.s 			page 33


 1797 0693 00       		.sleb128 0
 1798 0694 01       		.byte	0x1
 1799 0695 AB060000 		.4byte	0x6ab
 1800 0699 18       		.uleb128 0x18
 1801 069a 08000000 		.4byte	.LVL0
 1802 069e 01       		.byte	0x1
 1803 069f 7A0F0000 		.4byte	0xf7a
 1804 06a3 19       		.uleb128 0x19
 1805 06a4 01       		.byte	0x1
 1806 06a5 50       		.byte	0x50
 1807 06a6 02       		.byte	0x2
 1808 06a7 09       		.byte	0x9
 1809 06a8 FF       		.byte	0xff
 1810 06a9 00       		.byte	0
 1811 06aa 00       		.byte	0
 1812 06ab 17       		.uleb128 0x17
 1813 06ac 08000000 		.4byte	.LASF94
 1814 06b0 01       		.byte	0x1
 1815 06b1 84       		.byte	0x84
 1816 06b2 01       		.byte	0x1
 1817 06b3 00000000 		.4byte	.LFB12
 1818 06b7 08000000 		.4byte	.LFE12
 1819 06bb 02       		.byte	0x2
 1820 06bc 7D       		.byte	0x7d
 1821 06bd 00       		.sleb128 0
 1822 06be 01       		.byte	0x1
 1823 06bf D5060000 		.4byte	0x6d5
 1824 06c3 18       		.uleb128 0x18
 1825 06c4 08000000 		.4byte	.LVL1
 1826 06c8 01       		.byte	0x1
 1827 06c9 7A0F0000 		.4byte	0xf7a
 1828 06cd 19       		.uleb128 0x19
 1829 06ce 01       		.byte	0x1
 1830 06cf 50       		.byte	0x50
 1831 06d0 02       		.byte	0x2
 1832 06d1 09       		.byte	0x9
 1833 06d2 FF       		.byte	0xff
 1834 06d3 00       		.byte	0
 1835 06d4 00       		.byte	0
 1836 06d5 17       		.uleb128 0x17
 1837 06d6 9E020000 		.4byte	.LASF95
 1838 06da 01       		.byte	0x1
 1839 06db 4F       		.byte	0x4f
 1840 06dc 01       		.byte	0x1
 1841 06dd 00000000 		.4byte	.LFB7
 1842 06e1 08000000 		.4byte	.LFE7
 1843 06e5 02       		.byte	0x2
 1844 06e6 7D       		.byte	0x7d
 1845 06e7 00       		.sleb128 0
 1846 06e8 01       		.byte	0x1
 1847 06e9 FF060000 		.4byte	0x6ff
 1848 06ed 18       		.uleb128 0x18
 1849 06ee 08000000 		.4byte	.LVL2
 1850 06f2 01       		.byte	0x1
 1851 06f3 7A0F0000 		.4byte	0xf7a
 1852 06f7 19       		.uleb128 0x19
 1853 06f8 01       		.byte	0x1
ARM GAS  C:\cygwin\tmp\ccapmX2i.s 			page 34


 1854 06f9 50       		.byte	0x50
 1855 06fa 02       		.byte	0x2
 1856 06fb 09       		.byte	0x9
 1857 06fc FF       		.byte	0xff
 1858 06fd 00       		.byte	0
 1859 06fe 00       		.byte	0
 1860 06ff 1A       		.uleb128 0x1a
 1861 0700 8D000000 		.4byte	.LASF96
 1862 0704 01       		.byte	0x1
 1863 0705 99       		.byte	0x99
 1864 0706 01       		.byte	0x1
 1865 0707 00000000 		.4byte	.LFB15
 1866 070b 54020000 		.4byte	.LFE15
 1867 070f 00000000 		.4byte	.LLST0
 1868 0713 01       		.byte	0x1
 1869 0714 B90A0000 		.4byte	0xab9
 1870 0718 1B       		.uleb128 0x1b
 1871 0719 6D00     		.ascii	"m\000"
 1872 071b 01       		.byte	0x1
 1873 071c 9A       		.byte	0x9a
 1874 071d 05010000 		.4byte	0x105
 1875 0721 2D000000 		.4byte	.LLST1
 1876 0725 1C       		.uleb128 0x1c
 1877 0726 656C3100 		.ascii	"el1\000"
 1878 072a 01       		.byte	0x1
 1879 072b 9B       		.byte	0x9b
 1880 072c 0E050000 		.4byte	0x50e
 1881 0730 02       		.byte	0x2
 1882 0731 91       		.byte	0x91
 1883 0732 48       		.sleb128 -56
 1884 0733 1C       		.uleb128 0x1c
 1885 0734 656C3200 		.ascii	"el2\000"
 1886 0738 01       		.byte	0x1
 1887 0739 9B       		.byte	0x9b
 1888 073a 0E050000 		.4byte	0x50e
 1889 073e 02       		.byte	0x2
 1890 073f 91       		.byte	0x91
 1891 0740 58       		.sleb128 -40
 1892 0741 1D       		.uleb128 0x1d
 1893 0742 02010000 		.4byte	.LASF97
 1894 0746 01       		.byte	0x1
 1895 0747 9C       		.byte	0x9c
 1896 0748 1B010000 		.4byte	0x11b
 1897 074c E0000000 		.4byte	.LLST2
 1898 0750 1E       		.uleb128 0x1e
 1899 0751 0C000000 		.4byte	.LVL3
 1900 0755 920F0000 		.4byte	0xf92
 1901 0759 63070000 		.4byte	0x763
 1902 075d 19       		.uleb128 0x19
 1903 075e 01       		.byte	0x1
 1904 075f 50       		.byte	0x50
 1905 0760 01       		.byte	0x1
 1906 0761 35       		.byte	0x35
 1907 0762 00       		.byte	0
 1908 0763 1E       		.uleb128 0x1e
 1909 0764 14000000 		.4byte	.LVL4
 1910 0768 AA0F0000 		.4byte	0xfaa
ARM GAS  C:\cygwin\tmp\ccapmX2i.s 			page 35


 1911 076c 77070000 		.4byte	0x777
 1912 0770 19       		.uleb128 0x19
 1913 0771 01       		.byte	0x1
 1914 0772 50       		.byte	0x50
 1915 0773 02       		.byte	0x2
 1916 0774 09       		.byte	0x9
 1917 0775 FF       		.byte	0xff
 1918 0776 00       		.byte	0
 1919 0777 1E       		.uleb128 0x1e
 1920 0778 20000000 		.4byte	.LVL7
 1921 077c C20F0000 		.4byte	0xfc2
 1922 0780 8A070000 		.4byte	0x78a
 1923 0784 19       		.uleb128 0x19
 1924 0785 01       		.byte	0x1
 1925 0786 50       		.byte	0x50
 1926 0787 01       		.byte	0x1
 1927 0788 31       		.byte	0x31
 1928 0789 00       		.byte	0
 1929 078a 1E       		.uleb128 0x1e
 1930 078b 30000000 		.4byte	.LVL8
 1931 078f AA0F0000 		.4byte	0xfaa
 1932 0793 9E070000 		.4byte	0x79e
 1933 0797 19       		.uleb128 0x19
 1934 0798 01       		.byte	0x1
 1935 0799 50       		.byte	0x50
 1936 079a 02       		.byte	0x2
 1937 079b 09       		.byte	0x9
 1938 079c FF       		.byte	0xff
 1939 079d 00       		.byte	0
 1940 079e 1E       		.uleb128 0x1e
 1941 079f 3C000000 		.4byte	.LVL10
 1942 07a3 C20F0000 		.4byte	0xfc2
 1943 07a7 B1070000 		.4byte	0x7b1
 1944 07ab 19       		.uleb128 0x19
 1945 07ac 01       		.byte	0x1
 1946 07ad 50       		.byte	0x50
 1947 07ae 01       		.byte	0x1
 1948 07af 32       		.byte	0x32
 1949 07b0 00       		.byte	0
 1950 07b1 1E       		.uleb128 0x1e
 1951 07b2 48000000 		.4byte	.LVL11
 1952 07b6 7A0F0000 		.4byte	0xf7a
 1953 07ba C5070000 		.4byte	0x7c5
 1954 07be 19       		.uleb128 0x19
 1955 07bf 01       		.byte	0x1
 1956 07c0 50       		.byte	0x50
 1957 07c1 02       		.byte	0x2
 1958 07c2 09       		.byte	0x9
 1959 07c3 FF       		.byte	0xff
 1960 07c4 00       		.byte	0
 1961 07c5 1E       		.uleb128 0x1e
 1962 07c6 56000000 		.4byte	.LVL13
 1963 07ca C20F0000 		.4byte	0xfc2
 1964 07ce D8070000 		.4byte	0x7d8
 1965 07d2 19       		.uleb128 0x19
 1966 07d3 01       		.byte	0x1
 1967 07d4 50       		.byte	0x50
ARM GAS  C:\cygwin\tmp\ccapmX2i.s 			page 36


 1968 07d5 01       		.byte	0x1
 1969 07d6 33       		.byte	0x33
 1970 07d7 00       		.byte	0
 1971 07d8 1F       		.uleb128 0x1f
 1972 07d9 64000000 		.4byte	.LVL14
 1973 07dd DF0F0000 		.4byte	0xfdf
 1974 07e1 1E       		.uleb128 0x1e
 1975 07e2 80000000 		.4byte	.LVL16
 1976 07e6 ED0F0000 		.4byte	0xfed
 1977 07ea FF070000 		.4byte	0x7ff
 1978 07ee 19       		.uleb128 0x19
 1979 07ef 01       		.byte	0x1
 1980 07f0 53       		.byte	0x53
 1981 07f1 05       		.byte	0x5
 1982 07f2 03       		.byte	0x3
 1983 07f3 00000000 		.4byte	thread1
 1984 07f7 19       		.uleb128 0x19
 1985 07f8 01       		.byte	0x1
 1986 07f9 51       		.byte	0x51
 1987 07fa 03       		.byte	0x3
 1988 07fb 0A       		.byte	0xa
 1989 07fc 3001     		.2byte	0x130
 1990 07fe 00       		.byte	0
 1991 07ff 1E       		.uleb128 0x1e
 1992 0800 8A000000 		.4byte	.LVL17
 1993 0804 AA0F0000 		.4byte	0xfaa
 1994 0808 13080000 		.4byte	0x813
 1995 080c 19       		.uleb128 0x19
 1996 080d 01       		.byte	0x1
 1997 080e 50       		.byte	0x50
 1998 080f 02       		.byte	0x2
 1999 0810 09       		.byte	0x9
 2000 0811 FF       		.byte	0xff
 2001 0812 00       		.byte	0
 2002 0813 1E       		.uleb128 0x1e
 2003 0814 9A000000 		.4byte	.LVL21
 2004 0818 1A100000 		.4byte	0x101a
 2005 081c 32080000 		.4byte	0x832
 2006 0820 19       		.uleb128 0x19
 2007 0821 01       		.byte	0x1
 2008 0822 52       		.byte	0x52
 2009 0823 02       		.byte	0x2
 2010 0824 74       		.byte	0x74
 2011 0825 37       		.sleb128 55
 2012 0826 19       		.uleb128 0x19
 2013 0827 01       		.byte	0x1
 2014 0828 51       		.byte	0x51
 2015 0829 02       		.byte	0x2
 2016 082a 74       		.byte	0x74
 2017 082b 32       		.sleb128 50
 2018 082c 19       		.uleb128 0x19
 2019 082d 01       		.byte	0x1
 2020 082e 50       		.byte	0x50
 2021 082f 01       		.byte	0x1
 2022 0830 34       		.byte	0x34
 2023 0831 00       		.byte	0
 2024 0832 1E       		.uleb128 0x1e
ARM GAS  C:\cygwin\tmp\ccapmX2i.s 			page 37


 2025 0833 AC000000 		.4byte	.LVL22
 2026 0837 C20F0000 		.4byte	0xfc2
 2027 083b 4D080000 		.4byte	0x84d
 2028 083f 19       		.uleb128 0x19
 2029 0840 01       		.byte	0x1
 2030 0841 51       		.byte	0x51
 2031 0842 04       		.byte	0x4
 2032 0843 79       		.byte	0x79
 2033 0844 00       		.sleb128 0
 2034 0845 31       		.byte	0x31
 2035 0846 29       		.byte	0x29
 2036 0847 19       		.uleb128 0x19
 2037 0848 01       		.byte	0x1
 2038 0849 50       		.byte	0x50
 2039 084a 01       		.byte	0x1
 2040 084b 35       		.byte	0x35
 2041 084c 00       		.byte	0
 2042 084d 1E       		.uleb128 0x1e
 2043 084e B8000000 		.4byte	.LVL23
 2044 0852 7A0F0000 		.4byte	0xf7a
 2045 0856 61080000 		.4byte	0x861
 2046 085a 19       		.uleb128 0x19
 2047 085b 01       		.byte	0x1
 2048 085c 50       		.byte	0x50
 2049 085d 02       		.byte	0x2
 2050 085e 09       		.byte	0x9
 2051 085f FF       		.byte	0xff
 2052 0860 00       		.byte	0
 2053 0861 1E       		.uleb128 0x1e
 2054 0862 C6000000 		.4byte	.LVL25
 2055 0866 C20F0000 		.4byte	0xfc2
 2056 086a 74080000 		.4byte	0x874
 2057 086e 19       		.uleb128 0x19
 2058 086f 01       		.byte	0x1
 2059 0870 50       		.byte	0x50
 2060 0871 01       		.byte	0x1
 2061 0872 36       		.byte	0x36
 2062 0873 00       		.byte	0
 2063 0874 1F       		.uleb128 0x1f
 2064 0875 CE000000 		.4byte	.LVL26
 2065 0879 3C100000 		.4byte	0x103c
 2066 087d 1E       		.uleb128 0x1e
 2067 087e D4000000 		.4byte	.LVL27
 2068 0882 920F0000 		.4byte	0xf92
 2069 0886 90080000 		.4byte	0x890
 2070 088a 19       		.uleb128 0x19
 2071 088b 01       		.byte	0x1
 2072 088c 50       		.byte	0x50
 2073 088d 01       		.byte	0x1
 2074 088e 35       		.byte	0x35
 2075 088f 00       		.byte	0
 2076 0890 1E       		.uleb128 0x1e
 2077 0891 DC000000 		.4byte	.LVL28
 2078 0895 46100000 		.4byte	0x1046
 2079 0899 A4080000 		.4byte	0x8a4
 2080 089d 19       		.uleb128 0x19
 2081 089e 01       		.byte	0x1
ARM GAS  C:\cygwin\tmp\ccapmX2i.s 			page 38


 2082 089f 50       		.byte	0x50
 2083 08a0 02       		.byte	0x2
 2084 08a1 09       		.byte	0x9
 2085 08a2 FF       		.byte	0xff
 2086 08a3 00       		.byte	0
 2087 08a4 1E       		.uleb128 0x1e
 2088 08a5 EE000000 		.4byte	.LVL30
 2089 08a9 C20F0000 		.4byte	0xfc2
 2090 08ad B7080000 		.4byte	0x8b7
 2091 08b1 19       		.uleb128 0x19
 2092 08b2 01       		.byte	0x1
 2093 08b3 50       		.byte	0x50
 2094 08b4 01       		.byte	0x1
 2095 08b5 37       		.byte	0x37
 2096 08b6 00       		.byte	0
 2097 08b7 1E       		.uleb128 0x1e
 2098 08b8 FA000000 		.4byte	.LVL31
 2099 08bc 7A0F0000 		.4byte	0xf7a
 2100 08c0 CB080000 		.4byte	0x8cb
 2101 08c4 19       		.uleb128 0x19
 2102 08c5 01       		.byte	0x1
 2103 08c6 50       		.byte	0x50
 2104 08c7 02       		.byte	0x2
 2105 08c8 09       		.byte	0x9
 2106 08c9 FF       		.byte	0xff
 2107 08ca 00       		.byte	0
 2108 08cb 1E       		.uleb128 0x1e
 2109 08cc 08010000 		.4byte	.LVL33
 2110 08d0 C20F0000 		.4byte	0xfc2
 2111 08d4 DE080000 		.4byte	0x8de
 2112 08d8 19       		.uleb128 0x19
 2113 08d9 01       		.byte	0x1
 2114 08da 50       		.byte	0x50
 2115 08db 01       		.byte	0x1
 2116 08dc 38       		.byte	0x38
 2117 08dd 00       		.byte	0
 2118 08de 1F       		.uleb128 0x1f
 2119 08df 10010000 		.4byte	.LVL34
 2120 08e3 DF0F0000 		.4byte	0xfdf
 2121 08e7 1E       		.uleb128 0x1e
 2122 08e8 26010000 		.4byte	.LVL36
 2123 08ec ED0F0000 		.4byte	0xfed
 2124 08f0 0C090000 		.4byte	0x90c
 2125 08f4 19       		.uleb128 0x19
 2126 08f5 01       		.byte	0x1
 2127 08f6 53       		.byte	0x53
 2128 08f7 05       		.byte	0x5
 2129 08f8 03       		.byte	0x3
 2130 08f9 00000000 		.4byte	thread1
 2131 08fd 19       		.uleb128 0x19
 2132 08fe 01       		.byte	0x1
 2133 08ff 51       		.byte	0x51
 2134 0900 03       		.byte	0x3
 2135 0901 0A       		.byte	0xa
 2136 0902 3001     		.2byte	0x130
 2137 0904 19       		.uleb128 0x19
 2138 0905 01       		.byte	0x1
ARM GAS  C:\cygwin\tmp\ccapmX2i.s 			page 39


 2139 0906 50       		.byte	0x50
 2140 0907 03       		.byte	0x3
 2141 0908 91       		.byte	0x91
 2142 0909 44       		.sleb128 -60
 2143 090a 06       		.byte	0x6
 2144 090b 00       		.byte	0
 2145 090c 1E       		.uleb128 0x1e
 2146 090d 30010000 		.4byte	.LVL37
 2147 0911 46100000 		.4byte	0x1046
 2148 0915 20090000 		.4byte	0x920
 2149 0919 19       		.uleb128 0x19
 2150 091a 01       		.byte	0x1
 2151 091b 50       		.byte	0x50
 2152 091c 02       		.byte	0x2
 2153 091d 09       		.byte	0x9
 2154 091e FF       		.byte	0xff
 2155 091f 00       		.byte	0
 2156 0920 1E       		.uleb128 0x1e
 2157 0921 40010000 		.4byte	.LVL41
 2158 0925 1A100000 		.4byte	0x101a
 2159 0929 3F090000 		.4byte	0x93f
 2160 092d 19       		.uleb128 0x19
 2161 092e 01       		.byte	0x1
 2162 092f 52       		.byte	0x52
 2163 0930 02       		.byte	0x2
 2164 0931 74       		.byte	0x74
 2165 0932 37       		.sleb128 55
 2166 0933 19       		.uleb128 0x19
 2167 0934 01       		.byte	0x1
 2168 0935 51       		.byte	0x51
 2169 0936 02       		.byte	0x2
 2170 0937 74       		.byte	0x74
 2171 0938 32       		.sleb128 50
 2172 0939 19       		.uleb128 0x19
 2173 093a 01       		.byte	0x1
 2174 093b 50       		.byte	0x50
 2175 093c 01       		.byte	0x1
 2176 093d 39       		.byte	0x39
 2177 093e 00       		.byte	0
 2178 093f 1E       		.uleb128 0x1e
 2179 0940 58010000 		.4byte	.LVL42
 2180 0944 C20F0000 		.4byte	0xfc2
 2181 0948 5A090000 		.4byte	0x95a
 2182 094c 19       		.uleb128 0x19
 2183 094d 01       		.byte	0x1
 2184 094e 51       		.byte	0x51
 2185 094f 04       		.byte	0x4
 2186 0950 79       		.byte	0x79
 2187 0951 00       		.sleb128 0
 2188 0952 31       		.byte	0x31
 2189 0953 29       		.byte	0x29
 2190 0954 19       		.uleb128 0x19
 2191 0955 01       		.byte	0x1
 2192 0956 50       		.byte	0x50
 2193 0957 01       		.byte	0x1
 2194 0958 3A       		.byte	0x3a
 2195 0959 00       		.byte	0
ARM GAS  C:\cygwin\tmp\ccapmX2i.s 			page 40


 2196 095a 1E       		.uleb128 0x1e
 2197 095b 66010000 		.4byte	.LVL43
 2198 095f 7A0F0000 		.4byte	0xf7a
 2199 0963 6E090000 		.4byte	0x96e
 2200 0967 19       		.uleb128 0x19
 2201 0968 01       		.byte	0x1
 2202 0969 50       		.byte	0x50
 2203 096a 02       		.byte	0x2
 2204 096b 09       		.byte	0x9
 2205 096c FF       		.byte	0xff
 2206 096d 00       		.byte	0
 2207 096e 1E       		.uleb128 0x1e
 2208 096f 74010000 		.4byte	.LVL45
 2209 0973 C20F0000 		.4byte	0xfc2
 2210 0977 81090000 		.4byte	0x981
 2211 097b 19       		.uleb128 0x19
 2212 097c 01       		.byte	0x1
 2213 097d 50       		.byte	0x50
 2214 097e 01       		.byte	0x1
 2215 097f 3B       		.byte	0x3b
 2216 0980 00       		.byte	0
 2217 0981 1F       		.uleb128 0x1f
 2218 0982 84010000 		.4byte	.LVL47
 2219 0986 3C100000 		.4byte	0x103c
 2220 098a 1E       		.uleb128 0x1e
 2221 098b 94010000 		.4byte	.LVL48
 2222 098f 5E100000 		.4byte	0x105e
 2223 0993 A9090000 		.4byte	0x9a9
 2224 0997 19       		.uleb128 0x19
 2225 0998 01       		.byte	0x1
 2226 0999 52       		.byte	0x52
 2227 099a 01       		.byte	0x1
 2228 099b 31       		.byte	0x31
 2229 099c 19       		.uleb128 0x19
 2230 099d 01       		.byte	0x1
 2231 099e 51       		.byte	0x51
 2232 099f 02       		.byte	0x2
 2233 09a0 91       		.byte	0x91
 2234 09a1 48       		.sleb128 -56
 2235 09a2 19       		.uleb128 0x19
 2236 09a3 01       		.byte	0x1
 2237 09a4 50       		.byte	0x50
 2238 09a5 02       		.byte	0x2
 2239 09a6 79       		.byte	0x79
 2240 09a7 00       		.sleb128 0
 2241 09a8 00       		.byte	0
 2242 09a9 1E       		.uleb128 0x1e
 2243 09aa 9E010000 		.4byte	.LVL49
 2244 09ae 5E100000 		.4byte	0x105e
 2245 09b2 C8090000 		.4byte	0x9c8
 2246 09b6 19       		.uleb128 0x19
 2247 09b7 01       		.byte	0x1
 2248 09b8 52       		.byte	0x52
 2249 09b9 01       		.byte	0x1
 2250 09ba 34       		.byte	0x34
 2251 09bb 19       		.uleb128 0x19
 2252 09bc 01       		.byte	0x1
ARM GAS  C:\cygwin\tmp\ccapmX2i.s 			page 41


 2253 09bd 51       		.byte	0x51
 2254 09be 02       		.byte	0x2
 2255 09bf 91       		.byte	0x91
 2256 09c0 58       		.sleb128 -40
 2257 09c1 19       		.uleb128 0x19
 2258 09c2 01       		.byte	0x1
 2259 09c3 50       		.byte	0x50
 2260 09c4 02       		.byte	0x2
 2261 09c5 74       		.byte	0x74
 2262 09c6 00       		.sleb128 0
 2263 09c7 00       		.byte	0
 2264 09c8 1F       		.uleb128 0x1f
 2265 09c9 A2010000 		.4byte	.LVL50
 2266 09cd DF0F0000 		.4byte	0xfdf
 2267 09d1 1E       		.uleb128 0x1e
 2268 09d2 BA010000 		.4byte	.LVL52
 2269 09d6 ED0F0000 		.4byte	0xfed
 2270 09da 000A0000 		.4byte	0xa00
 2271 09de 19       		.uleb128 0x19
 2272 09df 01       		.byte	0x1
 2273 09e0 53       		.byte	0x53
 2274 09e1 05       		.byte	0x5
 2275 09e2 03       		.byte	0x3
 2276 09e3 00000000 		.4byte	thread2
 2277 09e7 19       		.uleb128 0x19
 2278 09e8 01       		.byte	0x1
 2279 09e9 51       		.byte	0x51
 2280 09ea 03       		.byte	0x3
 2281 09eb 0A       		.byte	0xa
 2282 09ec 3001     		.2byte	0x130
 2283 09ee 19       		.uleb128 0x19
 2284 09ef 01       		.byte	0x1
 2285 09f0 50       		.byte	0x50
 2286 09f1 03       		.byte	0x3
 2287 09f2 91       		.byte	0x91
 2288 09f3 44       		.sleb128 -60
 2289 09f4 06       		.byte	0x6
 2290 09f5 19       		.uleb128 0x19
 2291 09f6 02       		.byte	0x2
 2292 09f7 7D       		.byte	0x7d
 2293 09f8 00       		.sleb128 0
 2294 09f9 05       		.byte	0x5
 2295 09fa 03       		.byte	0x3
 2296 09fb 00000000 		.4byte	.LC0
 2297 09ff 00       		.byte	0
 2298 0a00 1E       		.uleb128 0x1e
 2299 0a01 C2010000 		.4byte	.LVL53
 2300 0a05 82100000 		.4byte	0x1082
 2301 0a09 130A0000 		.4byte	0xa13
 2302 0a0d 19       		.uleb128 0x19
 2303 0a0e 01       		.byte	0x1
 2304 0a0f 50       		.byte	0x50
 2305 0a10 01       		.byte	0x1
 2306 0a11 35       		.byte	0x35
 2307 0a12 00       		.byte	0
 2308 0a13 1E       		.uleb128 0x1e
 2309 0a14 D0010000 		.4byte	.LVL55
ARM GAS  C:\cygwin\tmp\ccapmX2i.s 			page 42


 2310 0a18 1A100000 		.4byte	0x101a
 2311 0a1c 320A0000 		.4byte	0xa32
 2312 0a20 19       		.uleb128 0x19
 2313 0a21 01       		.byte	0x1
 2314 0a22 52       		.byte	0x52
 2315 0a23 02       		.byte	0x2
 2316 0a24 75       		.byte	0x75
 2317 0a25 37       		.sleb128 55
 2318 0a26 19       		.uleb128 0x19
 2319 0a27 01       		.byte	0x1
 2320 0a28 51       		.byte	0x51
 2321 0a29 02       		.byte	0x2
 2322 0a2a 75       		.byte	0x75
 2323 0a2b 32       		.sleb128 50
 2324 0a2c 19       		.uleb128 0x19
 2325 0a2d 01       		.byte	0x1
 2326 0a2e 50       		.byte	0x50
 2327 0a2f 01       		.byte	0x1
 2328 0a30 3C       		.byte	0x3c
 2329 0a31 00       		.byte	0
 2330 0a32 1E       		.uleb128 0x1e
 2331 0a33 DE010000 		.4byte	.LVL56
 2332 0a37 7A0F0000 		.4byte	0xf7a
 2333 0a3b 460A0000 		.4byte	0xa46
 2334 0a3f 19       		.uleb128 0x19
 2335 0a40 01       		.byte	0x1
 2336 0a41 50       		.byte	0x50
 2337 0a42 02       		.byte	0x2
 2338 0a43 09       		.byte	0x9
 2339 0a44 FF       		.byte	0xff
 2340 0a45 00       		.byte	0
 2341 0a46 1E       		.uleb128 0x1e
 2342 0a47 EC010000 		.4byte	.LVL58
 2343 0a4b C20F0000 		.4byte	0xfc2
 2344 0a4f 590A0000 		.4byte	0xa59
 2345 0a53 19       		.uleb128 0x19
 2346 0a54 01       		.byte	0x1
 2347 0a55 50       		.byte	0x50
 2348 0a56 01       		.byte	0x1
 2349 0a57 3D       		.byte	0x3d
 2350 0a58 00       		.byte	0
 2351 0a59 1F       		.uleb128 0x1f
 2352 0a5a F6010000 		.4byte	.LVL59
 2353 0a5e 3C100000 		.4byte	0x103c
 2354 0a62 1E       		.uleb128 0x1e
 2355 0a63 FE010000 		.4byte	.LVL60
 2356 0a67 9A100000 		.4byte	0x109a
 2357 0a6b 7C0A0000 		.4byte	0xa7c
 2358 0a6f 19       		.uleb128 0x19
 2359 0a70 01       		.byte	0x1
 2360 0a71 51       		.byte	0x51
 2361 0a72 02       		.byte	0x2
 2362 0a73 91       		.byte	0x91
 2363 0a74 48       		.sleb128 -56
 2364 0a75 19       		.uleb128 0x19
 2365 0a76 01       		.byte	0x1
 2366 0a77 50       		.byte	0x50
ARM GAS  C:\cygwin\tmp\ccapmX2i.s 			page 43


 2367 0a78 02       		.byte	0x2
 2368 0a79 79       		.byte	0x79
 2369 0a7a 00       		.sleb128 0
 2370 0a7b 00       		.byte	0
 2371 0a7c 1E       		.uleb128 0x1e
 2372 0a7d 06020000 		.4byte	.LVL61
 2373 0a81 9A100000 		.4byte	0x109a
 2374 0a85 960A0000 		.4byte	0xa96
 2375 0a89 19       		.uleb128 0x19
 2376 0a8a 01       		.byte	0x1
 2377 0a8b 51       		.byte	0x51
 2378 0a8c 02       		.byte	0x2
 2379 0a8d 91       		.byte	0x91
 2380 0a8e 58       		.sleb128 -40
 2381 0a8f 19       		.uleb128 0x19
 2382 0a90 01       		.byte	0x1
 2383 0a91 50       		.byte	0x50
 2384 0a92 02       		.byte	0x2
 2385 0a93 74       		.byte	0x74
 2386 0a94 00       		.sleb128 0
 2387 0a95 00       		.byte	0
 2388 0a96 1E       		.uleb128 0x1e
 2389 0a97 18020000 		.4byte	.LVL62
 2390 0a9b C20F0000 		.4byte	0xfc2
 2391 0a9f A90A0000 		.4byte	0xaa9
 2392 0aa3 19       		.uleb128 0x19
 2393 0aa4 01       		.byte	0x1
 2394 0aa5 50       		.byte	0x50
 2395 0aa6 01       		.byte	0x1
 2396 0aa7 3E       		.byte	0x3e
 2397 0aa8 00       		.byte	0
 2398 0aa9 20       		.uleb128 0x20
 2399 0aaa 2C020000 		.4byte	.LVL63
 2400 0aae C20F0000 		.4byte	0xfc2
 2401 0ab2 19       		.uleb128 0x19
 2402 0ab3 01       		.byte	0x1
 2403 0ab4 50       		.byte	0x50
 2404 0ab5 01       		.byte	0x1
 2405 0ab6 3F       		.byte	0x3f
 2406 0ab7 00       		.byte	0
 2407 0ab8 00       		.byte	0
 2408 0ab9 21       		.uleb128 0x21
 2409 0aba F5020000 		.4byte	.LASF98
 2410 0abe 01       		.byte	0x1
 2411 0abf 90       		.byte	0x90
 2412 0ac0 01       		.byte	0x1
 2413 0ac1 EF000000 		.4byte	0xef
 2414 0ac5 00000000 		.4byte	.LFB14
 2415 0ac9 28000000 		.4byte	.LFE14
 2416 0acd 4A010000 		.4byte	.LLST3
 2417 0ad1 01       		.byte	0x1
 2418 0ad2 2C0B0000 		.4byte	0xb2c
 2419 0ad6 22       		.uleb128 0x22
 2420 0ad7 7000     		.ascii	"p\000"
 2421 0ad9 01       		.byte	0x1
 2422 0ada 90       		.byte	0x90
 2423 0adb C7020000 		.4byte	0x2c7
ARM GAS  C:\cygwin\tmp\ccapmX2i.s 			page 44


 2424 0adf 6A010000 		.4byte	.LLST4
 2425 0ae3 1E       		.uleb128 0x1e
 2426 0ae4 10000000 		.4byte	.LVL66
 2427 0ae8 B3100000 		.4byte	0x10b3
 2428 0aec FF0A0000 		.4byte	0xaff
 2429 0af0 19       		.uleb128 0x19
 2430 0af1 01       		.byte	0x1
 2431 0af2 51       		.byte	0x51
 2432 0af3 01       		.byte	0x1
 2433 0af4 30       		.byte	0x30
 2434 0af5 19       		.uleb128 0x19
 2435 0af6 01       		.byte	0x1
 2436 0af7 50       		.byte	0x50
 2437 0af8 05       		.byte	0x5
 2438 0af9 03       		.byte	0x3
 2439 0afa 00000000 		.4byte	.LANCHOR0
 2440 0afe 00       		.byte	0
 2441 0aff 1E       		.uleb128 0x1e
 2442 0b00 16000000 		.4byte	.LVL67
 2443 0b04 CC100000 		.4byte	0x10cc
 2444 0b08 130B0000 		.4byte	0xb13
 2445 0b0c 19       		.uleb128 0x19
 2446 0b0d 01       		.byte	0x1
 2447 0b0e 50       		.byte	0x50
 2448 0b0f 02       		.byte	0x2
 2449 0b10 08       		.byte	0x8
 2450 0b11 32       		.byte	0x32
 2451 0b12 00       		.byte	0
 2452 0b13 20       		.uleb128 0x20
 2453 0b14 24000000 		.4byte	.LVL68
 2454 0b18 B3100000 		.4byte	0x10b3
 2455 0b1c 19       		.uleb128 0x19
 2456 0b1d 01       		.byte	0x1
 2457 0b1e 51       		.byte	0x51
 2458 0b1f 01       		.byte	0x1
 2459 0b20 30       		.byte	0x30
 2460 0b21 19       		.uleb128 0x19
 2461 0b22 01       		.byte	0x1
 2462 0b23 50       		.byte	0x50
 2463 0b24 05       		.byte	0x5
 2464 0b25 03       		.byte	0x3
 2465 0b26 00000000 		.4byte	.LANCHOR1
 2466 0b2a 00       		.byte	0
 2467 0b2b 00       		.byte	0
 2468 0b2c 21       		.uleb128 0x21
 2469 0b2d ED020000 		.4byte	.LASF99
 2470 0b31 01       		.byte	0x1
 2471 0b32 89       		.byte	0x89
 2472 0b33 01       		.byte	0x1
 2473 0b34 EF000000 		.4byte	0xef
 2474 0b38 00000000 		.4byte	.LFB13
 2475 0b3c 16000000 		.4byte	.LFE13
 2476 0b40 8B010000 		.4byte	.LLST5
 2477 0b44 01       		.byte	0x1
 2478 0b45 800B0000 		.4byte	0xb80
 2479 0b49 22       		.uleb128 0x22
 2480 0b4a 7000     		.ascii	"p\000"
ARM GAS  C:\cygwin\tmp\ccapmX2i.s 			page 45


 2481 0b4c 01       		.byte	0x1
 2482 0b4d 89       		.byte	0x89
 2483 0b4e C7020000 		.4byte	0x2c7
 2484 0b52 AB010000 		.4byte	.LLST6
 2485 0b56 1E       		.uleb128 0x1e
 2486 0b57 0A000000 		.4byte	.LVL71
 2487 0b5b CC100000 		.4byte	0x10cc
 2488 0b5f 6A0B0000 		.4byte	0xb6a
 2489 0b63 19       		.uleb128 0x19
 2490 0b64 01       		.byte	0x1
 2491 0b65 50       		.byte	0x50
 2492 0b66 02       		.byte	0x2
 2493 0b67 08       		.byte	0x8
 2494 0b68 32       		.byte	0x32
 2495 0b69 00       		.byte	0
 2496 0b6a 20       		.uleb128 0x20
 2497 0b6b 12000000 		.4byte	.LVL72
 2498 0b6f E1100000 		.4byte	0x10e1
 2499 0b73 19       		.uleb128 0x19
 2500 0b74 01       		.byte	0x1
 2501 0b75 51       		.byte	0x51
 2502 0b76 01       		.byte	0x1
 2503 0b77 31       		.byte	0x31
 2504 0b78 19       		.uleb128 0x19
 2505 0b79 01       		.byte	0x1
 2506 0b7a 50       		.byte	0x50
 2507 0b7b 02       		.byte	0x2
 2508 0b7c 74       		.byte	0x74
 2509 0b7d 00       		.sleb128 0
 2510 0b7e 00       		.byte	0
 2511 0b7f 00       		.byte	0
 2512 0b80 1A       		.uleb128 0x1a
 2513 0b81 B5050000 		.4byte	.LASF100
 2514 0b85 01       		.byte	0x1
 2515 0b86 59       		.byte	0x59
 2516 0b87 01       		.byte	0x1
 2517 0b88 00000000 		.4byte	.LFB11
 2518 0b8c 88000000 		.4byte	.LFE11
 2519 0b90 C9010000 		.4byte	.LLST7
 2520 0b94 01       		.byte	0x1
 2521 0b95 950C0000 		.4byte	0xc95
 2522 0b99 1C       		.uleb128 0x1c
 2523 0b9a 656C3100 		.ascii	"el1\000"
 2524 0b9e 01       		.byte	0x1
 2525 0b9f 5A       		.byte	0x5a
 2526 0ba0 0E050000 		.4byte	0x50e
 2527 0ba4 02       		.byte	0x2
 2528 0ba5 91       		.byte	0x91
 2529 0ba6 58       		.sleb128 -40
 2530 0ba7 1C       		.uleb128 0x1c
 2531 0ba8 656C3200 		.ascii	"el2\000"
 2532 0bac 01       		.byte	0x1
 2533 0bad 5A       		.byte	0x5a
 2534 0bae 0E050000 		.4byte	0x50e
 2535 0bb2 02       		.byte	0x2
 2536 0bb3 91       		.byte	0x91
 2537 0bb4 68       		.sleb128 -24
ARM GAS  C:\cygwin\tmp\ccapmX2i.s 			page 46


 2538 0bb5 1E       		.uleb128 0x1e
 2539 0bb6 12000000 		.4byte	.LVL73
 2540 0bba 5E100000 		.4byte	0x105e
 2541 0bbe D40B0000 		.4byte	0xbd4
 2542 0bc2 19       		.uleb128 0x19
 2543 0bc3 01       		.byte	0x1
 2544 0bc4 52       		.byte	0x52
 2545 0bc5 01       		.byte	0x1
 2546 0bc6 31       		.byte	0x31
 2547 0bc7 19       		.uleb128 0x19
 2548 0bc8 01       		.byte	0x1
 2549 0bc9 51       		.byte	0x51
 2550 0bca 02       		.byte	0x2
 2551 0bcb 7D       		.byte	0x7d
 2552 0bcc 00       		.sleb128 0
 2553 0bcd 19       		.uleb128 0x19
 2554 0bce 01       		.byte	0x1
 2555 0bcf 50       		.byte	0x50
 2556 0bd0 02       		.byte	0x2
 2557 0bd1 74       		.byte	0x74
 2558 0bd2 00       		.sleb128 0
 2559 0bd3 00       		.byte	0
 2560 0bd4 1E       		.uleb128 0x1e
 2561 0bd5 1C000000 		.4byte	.LVL74
 2562 0bd9 5E100000 		.4byte	0x105e
 2563 0bdd F30B0000 		.4byte	0xbf3
 2564 0be1 19       		.uleb128 0x19
 2565 0be2 01       		.byte	0x1
 2566 0be3 52       		.byte	0x52
 2567 0be4 01       		.byte	0x1
 2568 0be5 32       		.byte	0x32
 2569 0be6 19       		.uleb128 0x19
 2570 0be7 01       		.byte	0x1
 2571 0be8 51       		.byte	0x51
 2572 0be9 02       		.byte	0x2
 2573 0bea 91       		.byte	0x91
 2574 0beb 68       		.sleb128 -24
 2575 0bec 19       		.uleb128 0x19
 2576 0bed 01       		.byte	0x1
 2577 0bee 50       		.byte	0x50
 2578 0bef 02       		.byte	0x2
 2579 0bf0 74       		.byte	0x74
 2580 0bf1 00       		.sleb128 0
 2581 0bf2 00       		.byte	0
 2582 0bf3 1E       		.uleb128 0x1e
 2583 0bf4 2A000000 		.4byte	.LVL75
 2584 0bf8 C20F0000 		.4byte	0xfc2
 2585 0bfc 060C0000 		.4byte	0xc06
 2586 0c00 19       		.uleb128 0x19
 2587 0c01 01       		.byte	0x1
 2588 0c02 50       		.byte	0x50
 2589 0c03 01       		.byte	0x1
 2590 0c04 31       		.byte	0x31
 2591 0c05 00       		.byte	0
 2592 0c06 1E       		.uleb128 0x1e
 2593 0c07 38000000 		.4byte	.LVL76
 2594 0c0b 9A100000 		.4byte	0x109a
ARM GAS  C:\cygwin\tmp\ccapmX2i.s 			page 47


 2595 0c0f 200C0000 		.4byte	0xc20
 2596 0c13 19       		.uleb128 0x19
 2597 0c14 01       		.byte	0x1
 2598 0c15 51       		.byte	0x51
 2599 0c16 02       		.byte	0x2
 2600 0c17 7D       		.byte	0x7d
 2601 0c18 00       		.sleb128 0
 2602 0c19 19       		.uleb128 0x19
 2603 0c1a 01       		.byte	0x1
 2604 0c1b 50       		.byte	0x50
 2605 0c1c 02       		.byte	0x2
 2606 0c1d 74       		.byte	0x74
 2607 0c1e 00       		.sleb128 0
 2608 0c1f 00       		.byte	0
 2609 0c20 1E       		.uleb128 0x1e
 2610 0c21 46000000 		.4byte	.LVL77
 2611 0c25 C20F0000 		.4byte	0xfc2
 2612 0c29 330C0000 		.4byte	0xc33
 2613 0c2d 19       		.uleb128 0x19
 2614 0c2e 01       		.byte	0x1
 2615 0c2f 50       		.byte	0x50
 2616 0c30 01       		.byte	0x1
 2617 0c31 32       		.byte	0x32
 2618 0c32 00       		.byte	0
 2619 0c33 1E       		.uleb128 0x1e
 2620 0c34 52000000 		.4byte	.LVL78
 2621 0c38 9A100000 		.4byte	0x109a
 2622 0c3c 4D0C0000 		.4byte	0xc4d
 2623 0c40 19       		.uleb128 0x19
 2624 0c41 01       		.byte	0x1
 2625 0c42 51       		.byte	0x51
 2626 0c43 02       		.byte	0x2
 2627 0c44 91       		.byte	0x91
 2628 0c45 68       		.sleb128 -24
 2629 0c46 19       		.uleb128 0x19
 2630 0c47 01       		.byte	0x1
 2631 0c48 50       		.byte	0x50
 2632 0c49 02       		.byte	0x2
 2633 0c4a 74       		.byte	0x74
 2634 0c4b 00       		.sleb128 0
 2635 0c4c 00       		.byte	0
 2636 0c4d 1E       		.uleb128 0x1e
 2637 0c4e 66000000 		.4byte	.LVL79
 2638 0c52 C20F0000 		.4byte	0xfc2
 2639 0c56 600C0000 		.4byte	0xc60
 2640 0c5a 19       		.uleb128 0x19
 2641 0c5b 01       		.byte	0x1
 2642 0c5c 50       		.byte	0x50
 2643 0c5d 01       		.byte	0x1
 2644 0c5e 33       		.byte	0x33
 2645 0c5f 00       		.byte	0
 2646 0c60 1E       		.uleb128 0x1e
 2647 0c61 72000000 		.4byte	.LVL80
 2648 0c65 FA100000 		.4byte	0x10fa
 2649 0c69 7C0C0000 		.4byte	0xc7c
 2650 0c6d 19       		.uleb128 0x19
 2651 0c6e 01       		.byte	0x1
ARM GAS  C:\cygwin\tmp\ccapmX2i.s 			page 48


 2652 0c6f 51       		.byte	0x51
 2653 0c70 01       		.byte	0x1
 2654 0c71 37       		.byte	0x37
 2655 0c72 19       		.uleb128 0x19
 2656 0c73 01       		.byte	0x1
 2657 0c74 50       		.byte	0x50
 2658 0c75 05       		.byte	0x5
 2659 0c76 03       		.byte	0x3
 2660 0c77 00000000 		.4byte	.LANCHOR2
 2661 0c7b 00       		.byte	0
 2662 0c7c 20       		.uleb128 0x20
 2663 0c7d 7A000000 		.4byte	.LVL81
 2664 0c81 1E110000 		.4byte	0x111e
 2665 0c85 19       		.uleb128 0x19
 2666 0c86 01       		.byte	0x1
 2667 0c87 51       		.byte	0x51
 2668 0c88 05       		.byte	0x5
 2669 0c89 03       		.byte	0x3
 2670 0c8a 04000000 		.4byte	.LC1
 2671 0c8e 19       		.uleb128 0x19
 2672 0c8f 01       		.byte	0x1
 2673 0c90 50       		.byte	0x50
 2674 0c91 01       		.byte	0x1
 2675 0c92 34       		.byte	0x34
 2676 0c93 00       		.byte	0
 2677 0c94 00       		.byte	0
 2678 0c95 23       		.uleb128 0x23
 2679 0c96 683300   		.ascii	"h3\000"
 2680 0c99 01       		.byte	0x1
 2681 0c9a 56       		.byte	0x56
 2682 0c9b 01       		.byte	0x1
 2683 0c9c 00000000 		.4byte	.LFB10
 2684 0ca0 06000000 		.4byte	.LFE10
 2685 0ca4 02       		.byte	0x2
 2686 0ca5 7D       		.byte	0x7d
 2687 0ca6 00       		.sleb128 0
 2688 0ca7 01       		.byte	0x1
 2689 0ca8 CC0C0000 		.4byte	0xccc
 2690 0cac 22       		.uleb128 0x22
 2691 0cad 696400   		.ascii	"id\000"
 2692 0cb0 01       		.byte	0x1
 2693 0cb1 56       		.byte	0x56
 2694 0cb2 FA000000 		.4byte	0xfa
 2695 0cb6 F5010000 		.4byte	.LLST8
 2696 0cba 18       		.uleb128 0x18
 2697 0cbb 06000000 		.4byte	.LVL84
 2698 0cbf 01       		.byte	0x1
 2699 0cc0 41110000 		.4byte	0x1141
 2700 0cc4 19       		.uleb128 0x19
 2701 0cc5 01       		.byte	0x1
 2702 0cc6 50       		.byte	0x50
 2703 0cc7 02       		.byte	0x2
 2704 0cc8 08       		.byte	0x8
 2705 0cc9 43       		.byte	0x43
 2706 0cca 00       		.byte	0
 2707 0ccb 00       		.byte	0
 2708 0ccc 23       		.uleb128 0x23
ARM GAS  C:\cygwin\tmp\ccapmX2i.s 			page 49


 2709 0ccd 683200   		.ascii	"h2\000"
 2710 0cd0 01       		.byte	0x1
 2711 0cd1 55       		.byte	0x55
 2712 0cd2 01       		.byte	0x1
 2713 0cd3 00000000 		.4byte	.LFB9
 2714 0cd7 06000000 		.4byte	.LFE9
 2715 0cdb 02       		.byte	0x2
 2716 0cdc 7D       		.byte	0x7d
 2717 0cdd 00       		.sleb128 0
 2718 0cde 01       		.byte	0x1
 2719 0cdf 030D0000 		.4byte	0xd03
 2720 0ce3 22       		.uleb128 0x22
 2721 0ce4 696400   		.ascii	"id\000"
 2722 0ce7 01       		.byte	0x1
 2723 0ce8 55       		.byte	0x55
 2724 0ce9 FA000000 		.4byte	0xfa
 2725 0ced 16020000 		.4byte	.LLST9
 2726 0cf1 18       		.uleb128 0x18
 2727 0cf2 06000000 		.4byte	.LVL87
 2728 0cf6 01       		.byte	0x1
 2729 0cf7 41110000 		.4byte	0x1141
 2730 0cfb 19       		.uleb128 0x19
 2731 0cfc 01       		.byte	0x1
 2732 0cfd 50       		.byte	0x50
 2733 0cfe 02       		.byte	0x2
 2734 0cff 08       		.byte	0x8
 2735 0d00 42       		.byte	0x42
 2736 0d01 00       		.byte	0
 2737 0d02 00       		.byte	0
 2738 0d03 23       		.uleb128 0x23
 2739 0d04 683100   		.ascii	"h1\000"
 2740 0d07 01       		.byte	0x1
 2741 0d08 54       		.byte	0x54
 2742 0d09 01       		.byte	0x1
 2743 0d0a 00000000 		.4byte	.LFB8
 2744 0d0e 06000000 		.4byte	.LFE8
 2745 0d12 02       		.byte	0x2
 2746 0d13 7D       		.byte	0x7d
 2747 0d14 00       		.sleb128 0
 2748 0d15 01       		.byte	0x1
 2749 0d16 3A0D0000 		.4byte	0xd3a
 2750 0d1a 22       		.uleb128 0x22
 2751 0d1b 696400   		.ascii	"id\000"
 2752 0d1e 01       		.byte	0x1
 2753 0d1f 54       		.byte	0x54
 2754 0d20 FA000000 		.4byte	0xfa
 2755 0d24 37020000 		.4byte	.LLST10
 2756 0d28 18       		.uleb128 0x18
 2757 0d29 06000000 		.4byte	.LVL90
 2758 0d2d 01       		.byte	0x1
 2759 0d2e 41110000 		.4byte	0x1141
 2760 0d32 19       		.uleb128 0x19
 2761 0d33 01       		.byte	0x1
 2762 0d34 50       		.byte	0x50
 2763 0d35 02       		.byte	0x2
 2764 0d36 08       		.byte	0x8
 2765 0d37 41       		.byte	0x41
ARM GAS  C:\cygwin\tmp\ccapmX2i.s 			page 50


 2766 0d38 00       		.byte	0
 2767 0d39 00       		.byte	0
 2768 0d3a 24       		.uleb128 0x24
 2769 0d3b 68060000 		.4byte	0x668
 2770 0d3f 00000000 		.4byte	.LFB17
 2771 0d43 AA000000 		.4byte	.LFE17
 2772 0d47 58020000 		.4byte	.LLST11
 2773 0d4b 01       		.byte	0x1
 2774 0d4c 750E0000 		.4byte	0xe75
 2775 0d50 25       		.uleb128 0x25
 2776 0d51 76060000 		.4byte	0x676
 2777 0d55 78020000 		.4byte	.LLST12
 2778 0d59 26       		.uleb128 0x26
 2779 0d5a 68060000 		.4byte	0x668
 2780 0d5e 56000000 		.4byte	.LBB4
 2781 0d62 00000000 		.4byte	.Ldebug_ranges0+0
 2782 0d66 01       		.byte	0x1
 2783 0d67 0001     		.2byte	0x100
 2784 0d69 FE0D0000 		.4byte	0xdfe
 2785 0d6d 27       		.uleb128 0x27
 2786 0d6e 18000000 		.4byte	.Ldebug_ranges0+0x18
 2787 0d72 25       		.uleb128 0x25
 2788 0d73 76060000 		.4byte	0x676
 2789 0d77 A1020000 		.4byte	.LLST13
 2790 0d7b 1E       		.uleb128 0x1e
 2791 0d7c 60000000 		.4byte	.LVL100
 2792 0d80 55110000 		.4byte	0x1155
 2793 0d84 940D0000 		.4byte	0xd94
 2794 0d88 19       		.uleb128 0x19
 2795 0d89 01       		.byte	0x1
 2796 0d8a 51       		.byte	0x51
 2797 0d8b 01       		.byte	0x1
 2798 0d8c 3A       		.byte	0x3a
 2799 0d8d 19       		.uleb128 0x19
 2800 0d8e 01       		.byte	0x1
 2801 0d8f 50       		.byte	0x50
 2802 0d90 02       		.byte	0x2
 2803 0d91 09       		.byte	0x9
 2804 0d92 FF       		.byte	0xff
 2805 0d93 00       		.byte	0
 2806 0d94 1E       		.uleb128 0x1e
 2807 0d95 6E000000 		.4byte	.LVL102
 2808 0d99 C20F0000 		.4byte	0xfc2
 2809 0d9d A70D0000 		.4byte	0xda7
 2810 0da1 19       		.uleb128 0x19
 2811 0da2 01       		.byte	0x1
 2812 0da3 50       		.byte	0x50
 2813 0da4 01       		.byte	0x1
 2814 0da5 34       		.byte	0x34
 2815 0da6 00       		.byte	0
 2816 0da7 1E       		.uleb128 0x1e
 2817 0da8 7C000000 		.4byte	.LVL103
 2818 0dac 72110000 		.4byte	0x1172
 2819 0db0 C00D0000 		.4byte	0xdc0
 2820 0db4 19       		.uleb128 0x19
 2821 0db5 01       		.byte	0x1
 2822 0db6 51       		.byte	0x51
ARM GAS  C:\cygwin\tmp\ccapmX2i.s 			page 51


 2823 0db7 01       		.byte	0x1
 2824 0db8 3A       		.byte	0x3a
 2825 0db9 19       		.uleb128 0x19
 2826 0dba 01       		.byte	0x1
 2827 0dbb 50       		.byte	0x50
 2828 0dbc 02       		.byte	0x2
 2829 0dbd 09       		.byte	0x9
 2830 0dbe FF       		.byte	0xff
 2831 0dbf 00       		.byte	0
 2832 0dc0 1E       		.uleb128 0x1e
 2833 0dc1 8A000000 		.4byte	.LVL105
 2834 0dc5 C20F0000 		.4byte	0xfc2
 2835 0dc9 D30D0000 		.4byte	0xdd3
 2836 0dcd 19       		.uleb128 0x19
 2837 0dce 01       		.byte	0x1
 2838 0dcf 50       		.byte	0x50
 2839 0dd0 01       		.byte	0x1
 2840 0dd1 35       		.byte	0x35
 2841 0dd2 00       		.byte	0
 2842 0dd3 1E       		.uleb128 0x1e
 2843 0dd4 98000000 		.4byte	.LVL106
 2844 0dd8 8F110000 		.4byte	0x118f
 2845 0ddc EC0D0000 		.4byte	0xdec
 2846 0de0 19       		.uleb128 0x19
 2847 0de1 01       		.byte	0x1
 2848 0de2 51       		.byte	0x51
 2849 0de3 01       		.byte	0x1
 2850 0de4 3A       		.byte	0x3a
 2851 0de5 19       		.uleb128 0x19
 2852 0de6 01       		.byte	0x1
 2853 0de7 50       		.byte	0x50
 2854 0de8 02       		.byte	0x2
 2855 0de9 09       		.byte	0x9
 2856 0dea FF       		.byte	0xff
 2857 0deb 00       		.byte	0
 2858 0dec 18       		.uleb128 0x18
 2859 0ded AA000000 		.4byte	.LVL108
 2860 0df1 01       		.byte	0x1
 2861 0df2 C20F0000 		.4byte	0xfc2
 2862 0df6 19       		.uleb128 0x19
 2863 0df7 01       		.byte	0x1
 2864 0df8 50       		.byte	0x50
 2865 0df9 01       		.byte	0x1
 2866 0dfa 36       		.byte	0x36
 2867 0dfb 00       		.byte	0
 2868 0dfc 00       		.byte	0
 2869 0dfd 00       		.byte	0
 2870 0dfe 1E       		.uleb128 0x1e
 2871 0dff 0C000000 		.4byte	.LVL91
 2872 0e03 55110000 		.4byte	0x1155
 2873 0e07 170E0000 		.4byte	0xe17
 2874 0e0b 19       		.uleb128 0x19
 2875 0e0c 01       		.byte	0x1
 2876 0e0d 51       		.byte	0x51
 2877 0e0e 01       		.byte	0x1
 2878 0e0f 30       		.byte	0x30
 2879 0e10 19       		.uleb128 0x19
ARM GAS  C:\cygwin\tmp\ccapmX2i.s 			page 52


 2880 0e11 01       		.byte	0x1
 2881 0e12 50       		.byte	0x50
 2882 0e13 02       		.byte	0x2
 2883 0e14 09       		.byte	0x9
 2884 0e15 FF       		.byte	0xff
 2885 0e16 00       		.byte	0
 2886 0e17 1E       		.uleb128 0x1e
 2887 0e18 1A000000 		.4byte	.LVL93
 2888 0e1c C20F0000 		.4byte	0xfc2
 2889 0e20 2A0E0000 		.4byte	0xe2a
 2890 0e24 19       		.uleb128 0x19
 2891 0e25 01       		.byte	0x1
 2892 0e26 50       		.byte	0x50
 2893 0e27 01       		.byte	0x1
 2894 0e28 31       		.byte	0x31
 2895 0e29 00       		.byte	0
 2896 0e2a 1E       		.uleb128 0x1e
 2897 0e2b 28000000 		.4byte	.LVL94
 2898 0e2f 72110000 		.4byte	0x1172
 2899 0e33 3E0E0000 		.4byte	0xe3e
 2900 0e37 19       		.uleb128 0x19
 2901 0e38 01       		.byte	0x1
 2902 0e39 50       		.byte	0x50
 2903 0e3a 02       		.byte	0x2
 2904 0e3b 09       		.byte	0x9
 2905 0e3c FF       		.byte	0xff
 2906 0e3d 00       		.byte	0
 2907 0e3e 1E       		.uleb128 0x1e
 2908 0e3f 36000000 		.4byte	.LVL96
 2909 0e43 C20F0000 		.4byte	0xfc2
 2910 0e47 510E0000 		.4byte	0xe51
 2911 0e4b 19       		.uleb128 0x19
 2912 0e4c 01       		.byte	0x1
 2913 0e4d 50       		.byte	0x50
 2914 0e4e 01       		.byte	0x1
 2915 0e4f 32       		.byte	0x32
 2916 0e50 00       		.byte	0
 2917 0e51 1E       		.uleb128 0x1e
 2918 0e52 44000000 		.4byte	.LVL97
 2919 0e56 8F110000 		.4byte	0x118f
 2920 0e5a 650E0000 		.4byte	0xe65
 2921 0e5e 19       		.uleb128 0x19
 2922 0e5f 01       		.byte	0x1
 2923 0e60 50       		.byte	0x50
 2924 0e61 02       		.byte	0x2
 2925 0e62 09       		.byte	0x9
 2926 0e63 FF       		.byte	0xff
 2927 0e64 00       		.byte	0
 2928 0e65 20       		.uleb128 0x20
 2929 0e66 52000000 		.4byte	.LVL99
 2930 0e6a C20F0000 		.4byte	0xfc2
 2931 0e6e 19       		.uleb128 0x19
 2932 0e6f 01       		.byte	0x1
 2933 0e70 50       		.byte	0x50
 2934 0e71 01       		.byte	0x1
 2935 0e72 33       		.byte	0x33
 2936 0e73 00       		.byte	0
ARM GAS  C:\cygwin\tmp\ccapmX2i.s 			page 53


 2937 0e74 00       		.byte	0
 2938 0e75 1C       		.uleb128 0x1c
 2939 0e76 65733100 		.ascii	"es1\000"
 2940 0e7a 01       		.byte	0x1
 2941 0e7b 3F       		.byte	0x3f
 2942 0e7c 7F050000 		.4byte	0x57f
 2943 0e80 05       		.byte	0x5
 2944 0e81 03       		.byte	0x3
 2945 0e82 00000000 		.4byte	es1
 2946 0e86 1C       		.uleb128 0x1c
 2947 0e87 65733200 		.ascii	"es2\000"
 2948 0e8b 01       		.byte	0x1
 2949 0e8c 40       		.byte	0x40
 2950 0e8d 7F050000 		.4byte	0x57f
 2951 0e91 05       		.byte	0x5
 2952 0e92 03       		.byte	0x3
 2953 0e93 00000000 		.4byte	es2
 2954 0e97 28       		.uleb128 0x28
 2955 0e98 8A050000 		.4byte	0x58a
 2956 0e9c A70E0000 		.4byte	0xea7
 2957 0ea0 29       		.uleb128 0x29
 2958 0ea1 85030000 		.4byte	0x385
 2959 0ea5 02       		.byte	0x2
 2960 0ea6 00       		.byte	0
 2961 0ea7 2A       		.uleb128 0x2a
 2962 0ea8 2B040000 		.4byte	.LASF101
 2963 0eac 01       		.byte	0x1
 2964 0ead 57       		.byte	0x57
 2965 0eae B80E0000 		.4byte	0xeb8
 2966 0eb2 05       		.byte	0x5
 2967 0eb3 03       		.byte	0x3
 2968 0eb4 00000000 		.4byte	evhndl
 2969 0eb8 12       		.uleb128 0x12
 2970 0eb9 970E0000 		.4byte	0xe97
 2971 0ebd 2B       		.uleb128 0x2b
 2972 0ebe 30000000 		.4byte	.LASF102
 2973 0ec2 08       		.byte	0x8
 2974 0ec3 D1       		.byte	0xd1
 2975 0ec4 53040000 		.4byte	0x453
 2976 0ec8 01       		.byte	0x1
 2977 0ec9 01       		.byte	0x1
 2978 0eca 2B       		.uleb128 0x2b
 2979 0ecb 39050000 		.4byte	.LASF103
 2980 0ecf 09       		.byte	0x9
 2981 0ed0 68       		.byte	0x68
 2982 0ed1 BB040000 		.4byte	0x4bb
 2983 0ed5 01       		.byte	0x1
 2984 0ed6 01       		.byte	0x1
 2985 0ed7 28       		.uleb128 0x28
 2986 0ed8 89020000 		.4byte	0x289
 2987 0edc E70E0000 		.4byte	0xee7
 2988 0ee0 29       		.uleb128 0x29
 2989 0ee1 85030000 		.4byte	0x385
 2990 0ee5 04       		.byte	0x4
 2991 0ee6 00       		.byte	0
 2992 0ee7 2B       		.uleb128 0x2b
 2993 0ee8 E2030000 		.4byte	.LASF104
ARM GAS  C:\cygwin\tmp\ccapmX2i.s 			page 54


 2994 0eec 0C       		.byte	0xc
 2995 0eed A9       		.byte	0xa9
 2996 0eee D70E0000 		.4byte	0xed7
 2997 0ef2 01       		.byte	0x1
 2998 0ef3 01       		.byte	0x1
 2999 0ef4 28       		.uleb128 0x28
 3000 0ef5 C7020000 		.4byte	0x2c7
 3001 0ef9 FF0E0000 		.4byte	0xeff
 3002 0efd 2C       		.uleb128 0x2c
 3003 0efe 00       		.byte	0
 3004 0eff 2D       		.uleb128 0x2d
 3005 0f00 776100   		.ascii	"wa\000"
 3006 0f03 0C       		.byte	0xc
 3007 0f04 AB       		.byte	0xab
 3008 0f05 0B0F0000 		.4byte	0xf0b
 3009 0f09 01       		.byte	0x1
 3010 0f0a 01       		.byte	0x1
 3011 0f0b 12       		.uleb128 0x12
 3012 0f0c F40E0000 		.4byte	0xef4
 3013 0f10 2E       		.uleb128 0x2e
 3014 0f11 22040000 		.4byte	.LASF105
 3015 0f15 01       		.byte	0x1
 3016 0f16 6F       		.byte	0x6f
 3017 0f17 220F0000 		.4byte	0xf22
 3018 0f1b 01       		.byte	0x1
 3019 0f1c 05       		.byte	0x5
 3020 0f1d 03       		.byte	0x3
 3021 0f1e 00000000 		.4byte	testevt1
 3022 0f22 12       		.uleb128 0x12
 3023 0f23 1B060000 		.4byte	0x61b
 3024 0f27 2E       		.uleb128 0x2e
 3025 0f28 30010000 		.4byte	.LASF106
 3026 0f2c 01       		.byte	0x1
 3027 0f2d E4       		.byte	0xe4
 3028 0f2e 220F0000 		.4byte	0xf22
 3029 0f32 01       		.byte	0x1
 3030 0f33 05       		.byte	0x5
 3031 0f34 03       		.byte	0x3
 3032 0f35 00000000 		.4byte	testevt2
 3033 0f39 2F       		.uleb128 0x2f
 3034 0f3a 46010000 		.4byte	.LASF107
 3035 0f3e 01       		.byte	0x1
 3036 0f3f 1401     		.2byte	0x114
 3037 0f41 220F0000 		.4byte	0xf22
 3038 0f45 01       		.byte	0x1
 3039 0f46 05       		.byte	0x5
 3040 0f47 03       		.byte	0x3
 3041 0f48 00000000 		.4byte	testevt3
 3042 0f4c 28       		.uleb128 0x28
 3043 0f4d 5C0F0000 		.4byte	0xf5c
 3044 0f51 5C0F0000 		.4byte	0xf5c
 3045 0f55 29       		.uleb128 0x29
 3046 0f56 85030000 		.4byte	0x385
 3047 0f5a 03       		.byte	0x3
 3048 0f5b 00       		.byte	0
 3049 0f5c 09       		.uleb128 0x9
 3050 0f5d 04       		.byte	0x4
ARM GAS  C:\cygwin\tmp\ccapmX2i.s 			page 55


 3051 0f5e 220F0000 		.4byte	0xf22
 3052 0f62 2F       		.uleb128 0x2f
 3053 0f63 F8010000 		.4byte	.LASF108
 3054 0f67 01       		.byte	0x1
 3055 0f68 1F01     		.2byte	0x11f
 3056 0f6a 750F0000 		.4byte	0xf75
 3057 0f6e 01       		.byte	0x1
 3058 0f6f 05       		.byte	0x5
 3059 0f70 03       		.byte	0x3
 3060 0f71 00000000 		.4byte	patternevt
 3061 0f75 12       		.uleb128 0x12
 3062 0f76 4C0F0000 		.4byte	0xf4c
 3063 0f7a 30       		.uleb128 0x30
 3064 0f7b 01       		.byte	0x1
 3065 0f7c D8010000 		.4byte	.LASF109
 3066 0f80 0B       		.byte	0xb
 3067 0f81 AC       		.byte	0xac
 3068 0f82 01       		.byte	0x1
 3069 0f83 05010000 		.4byte	0x105
 3070 0f87 01       		.byte	0x1
 3071 0f88 920F0000 		.4byte	0xf92
 3072 0f8c 0E       		.uleb128 0xe
 3073 0f8d 05010000 		.4byte	0x105
 3074 0f91 00       		.byte	0
 3075 0f92 30       		.uleb128 0x30
 3076 0f93 01       		.byte	0x1
 3077 0f94 5A000000 		.4byte	.LASF110
 3078 0f98 0B       		.byte	0xb
 3079 0f99 AD       		.byte	0xad
 3080 0f9a 01       		.byte	0x1
 3081 0f9b 05010000 		.4byte	0x105
 3082 0f9f 01       		.byte	0x1
 3083 0fa0 AA0F0000 		.4byte	0xfaa
 3084 0fa4 0E       		.uleb128 0xe
 3085 0fa5 05010000 		.4byte	0x105
 3086 0fa9 00       		.byte	0
 3087 0faa 30       		.uleb128 0x30
 3088 0fab 01       		.byte	0x1
 3089 0fac 8D030000 		.4byte	.LASF111
 3090 0fb0 0B       		.byte	0xb
 3091 0fb1 B6       		.byte	0xb6
 3092 0fb2 01       		.byte	0x1
 3093 0fb3 05010000 		.4byte	0x105
 3094 0fb7 01       		.byte	0x1
 3095 0fb8 C20F0000 		.4byte	0xfc2
 3096 0fbc 0E       		.uleb128 0xe
 3097 0fbd 05010000 		.4byte	0x105
 3098 0fc1 00       		.byte	0
 3099 0fc2 30       		.uleb128 0x30
 3100 0fc3 01       		.byte	0x1
 3101 0fc4 77050000 		.4byte	.LASF112
 3102 0fc8 0C       		.byte	0xc
 3103 0fc9 5C       		.byte	0x5c
 3104 0fca 01       		.byte	0x1
 3105 0fcb A6000000 		.4byte	0xa6
 3106 0fcf 01       		.byte	0x1
 3107 0fd0 DF0F0000 		.4byte	0xfdf
ARM GAS  C:\cygwin\tmp\ccapmX2i.s 			page 56


 3108 0fd4 0E       		.uleb128 0xe
 3109 0fd5 3B000000 		.4byte	0x3b
 3110 0fd9 0E       		.uleb128 0xe
 3111 0fda A6000000 		.4byte	0xa6
 3112 0fde 00       		.byte	0
 3113 0fdf 31       		.uleb128 0x31
 3114 0fe0 01       		.byte	0x1
 3115 0fe1 A6050000 		.4byte	.LASF132
 3116 0fe5 0C       		.byte	0xc
 3117 0fe6 61       		.byte	0x61
 3118 0fe7 01       		.byte	0x1
 3119 0fe8 1B010000 		.4byte	0x11b
 3120 0fec 01       		.byte	0x1
 3121 0fed 32       		.uleb128 0x32
 3122 0fee 01       		.byte	0x1
 3123 0fef 84020000 		.4byte	.LASF113
 3124 0ff3 06       		.byte	0x6
 3125 0ff4 6901     		.2byte	0x169
 3126 0ff6 01       		.byte	0x1
 3127 0ff7 89020000 		.4byte	0x289
 3128 0ffb 01       		.byte	0x1
 3129 0ffc 1A100000 		.4byte	0x101a
 3130 1000 0E       		.uleb128 0xe
 3131 1001 C7020000 		.4byte	0x2c7
 3132 1005 0E       		.uleb128 0xe
 3133 1006 30000000 		.4byte	0x30
 3134 100a 0E       		.uleb128 0xe
 3135 100b E4000000 		.4byte	0xe4
 3136 100f 0E       		.uleb128 0xe
 3137 1010 FA050000 		.4byte	0x5fa
 3138 1014 0E       		.uleb128 0xe
 3139 1015 C7020000 		.4byte	0x2c7
 3140 1019 00       		.byte	0
 3141 101a 30       		.uleb128 0x30
 3142 101b 01       		.byte	0x1
 3143 101c 17010000 		.4byte	.LASF114
 3144 1020 0C       		.byte	0xc
 3145 1021 5E       		.byte	0x5e
 3146 1022 01       		.byte	0x1
 3147 1023 A6000000 		.4byte	0xa6
 3148 1027 01       		.byte	0x1
 3149 1028 3C100000 		.4byte	0x103c
 3150 102c 0E       		.uleb128 0xe
 3151 102d 3B000000 		.4byte	0x3b
 3152 1031 0E       		.uleb128 0xe
 3153 1032 1B010000 		.4byte	0x11b
 3154 1036 0E       		.uleb128 0xe
 3155 1037 1B010000 		.4byte	0x11b
 3156 103b 00       		.byte	0
 3157 103c 33       		.uleb128 0x33
 3158 103d 01       		.byte	0x1
 3159 103e D3020000 		.4byte	.LASF133
 3160 1042 0C       		.byte	0xc
 3161 1043 60       		.byte	0x60
 3162 1044 01       		.byte	0x1
 3163 1045 01       		.byte	0x1
 3164 1046 30       		.uleb128 0x30
ARM GAS  C:\cygwin\tmp\ccapmX2i.s 			page 57


 3165 1047 01       		.byte	0x1
 3166 1048 39010000 		.4byte	.LASF115
 3167 104c 0B       		.byte	0xb
 3168 104d B7       		.byte	0xb7
 3169 104e 01       		.byte	0x1
 3170 104f 05010000 		.4byte	0x105
 3171 1053 01       		.byte	0x1
 3172 1054 5E100000 		.4byte	0x105e
 3173 1058 0E       		.uleb128 0xe
 3174 1059 05010000 		.4byte	0x105
 3175 105d 00       		.byte	0
 3176 105e 34       		.uleb128 0x34
 3177 105f 01       		.byte	0x1
 3178 1060 23020000 		.4byte	.LASF117
 3179 1064 0B       		.byte	0xb
 3180 1065 A8       		.byte	0xa8
 3181 1066 01       		.byte	0x1
 3182 1067 01       		.byte	0x1
 3183 1068 7C100000 		.4byte	0x107c
 3184 106c 0E       		.uleb128 0xe
 3185 106d 7C100000 		.4byte	0x107c
 3186 1071 0E       		.uleb128 0xe
 3187 1072 5E050000 		.4byte	0x55e
 3188 1076 0E       		.uleb128 0xe
 3189 1077 05010000 		.4byte	0x105
 3190 107b 00       		.byte	0
 3191 107c 09       		.uleb128 0x9
 3192 107d 04       		.byte	0x4
 3193 107e 7F050000 		.4byte	0x57f
 3194 1082 30       		.uleb128 0x30
 3195 1083 01       		.byte	0x1
 3196 1084 E5040000 		.4byte	.LASF116
 3197 1088 0B       		.byte	0xb
 3198 1089 B8       		.byte	0xb8
 3199 108a 01       		.byte	0x1
 3200 108b 05010000 		.4byte	0x105
 3201 108f 01       		.byte	0x1
 3202 1090 9A100000 		.4byte	0x109a
 3203 1094 0E       		.uleb128 0xe
 3204 1095 05010000 		.4byte	0x105
 3205 1099 00       		.byte	0
 3206 109a 34       		.uleb128 0x34
 3207 109b 01       		.byte	0x1
 3208 109c 43020000 		.4byte	.LASF118
 3209 10a0 0B       		.byte	0xb
 3210 10a1 AB       		.byte	0xab
 3211 10a2 01       		.byte	0x1
 3212 10a3 01       		.byte	0x1
 3213 10a4 B3100000 		.4byte	0x10b3
 3214 10a8 0E       		.uleb128 0xe
 3215 10a9 7C100000 		.4byte	0x107c
 3216 10ad 0E       		.uleb128 0xe
 3217 10ae 5E050000 		.4byte	0x55e
 3218 10b2 00       		.byte	0
 3219 10b3 34       		.uleb128 0x34
 3220 10b4 01       		.byte	0x1
 3221 10b5 70010000 		.4byte	.LASF119
ARM GAS  C:\cygwin\tmp\ccapmX2i.s 			page 58


 3222 10b9 0B       		.byte	0xb
 3223 10ba B2       		.byte	0xb2
 3224 10bb 01       		.byte	0x1
 3225 10bc 01       		.byte	0x1
 3226 10bd CC100000 		.4byte	0x10cc
 3227 10c1 0E       		.uleb128 0xe
 3228 10c2 7C100000 		.4byte	0x107c
 3229 10c6 0E       		.uleb128 0xe
 3230 10c7 10010000 		.4byte	0x110
 3231 10cb 00       		.byte	0
 3232 10cc 35       		.uleb128 0x35
 3233 10cd 01       		.byte	0x1
 3234 10ce 05050000 		.4byte	.LASF120
 3235 10d2 06       		.byte	0x6
 3236 10d3 6E01     		.2byte	0x16e
 3237 10d5 01       		.byte	0x1
 3238 10d6 01       		.byte	0x1
 3239 10d7 E1100000 		.4byte	0x10e1
 3240 10db 0E       		.uleb128 0xe
 3241 10dc 1B010000 		.4byte	0x11b
 3242 10e0 00       		.byte	0
 3243 10e1 34       		.uleb128 0x34
 3244 10e2 01       		.byte	0x1
 3245 10e3 37000000 		.4byte	.LASF121
 3246 10e7 0B       		.byte	0xb
 3247 10e8 B0       		.byte	0xb0
 3248 10e9 01       		.byte	0x1
 3249 10ea 01       		.byte	0x1
 3250 10eb FA100000 		.4byte	0x10fa
 3251 10ef 0E       		.uleb128 0xe
 3252 10f0 89020000 		.4byte	0x289
 3253 10f4 0E       		.uleb128 0xe
 3254 10f5 05010000 		.4byte	0x105
 3255 10f9 00       		.byte	0
 3256 10fa 34       		.uleb128 0x34
 3257 10fb 01       		.byte	0x1
 3258 10fc BA020000 		.4byte	.LASF122
 3259 1100 0B       		.byte	0xb
 3260 1101 B4       		.byte	0xb4
 3261 1102 01       		.byte	0x1
 3262 1103 01       		.byte	0x1
 3263 1104 13110000 		.4byte	0x1113
 3264 1108 0E       		.uleb128 0xe
 3265 1109 13110000 		.4byte	0x1113
 3266 110d 0E       		.uleb128 0xe
 3267 110e 05010000 		.4byte	0x105
 3268 1112 00       		.byte	0
 3269 1113 09       		.uleb128 0x9
 3270 1114 04       		.byte	0x4
 3271 1115 19110000 		.4byte	0x1119
 3272 1119 12       		.uleb128 0x12
 3273 111a 8A050000 		.4byte	0x58a
 3274 111e 30       		.uleb128 0x30
 3275 111f 01       		.byte	0x1
 3276 1120 16030000 		.4byte	.LASF123
 3277 1124 0C       		.byte	0xc
 3278 1125 5D       		.byte	0x5d
ARM GAS  C:\cygwin\tmp\ccapmX2i.s 			page 59


 3279 1126 01       		.byte	0x1
 3280 1127 A6000000 		.4byte	0xa6
 3281 112b 01       		.byte	0x1
 3282 112c 3B110000 		.4byte	0x113b
 3283 1130 0E       		.uleb128 0xe
 3284 1131 3B000000 		.4byte	0x3b
 3285 1135 0E       		.uleb128 0xe
 3286 1136 3B110000 		.4byte	0x113b
 3287 113a 00       		.byte	0
 3288 113b 09       		.uleb128 0x9
 3289 113c 04       		.byte	0x4
 3290 113d E7050000 		.4byte	0x5e7
 3291 1141 34       		.uleb128 0x34
 3292 1142 01       		.byte	0x1
 3293 1143 DF000000 		.4byte	.LASF124
 3294 1147 0C       		.byte	0xc
 3295 1148 5A       		.byte	0x5a
 3296 1149 01       		.byte	0x1
 3297 114a 01       		.byte	0x1
 3298 114b 55110000 		.4byte	0x1155
 3299 114f 0E       		.uleb128 0xe
 3300 1150 E7050000 		.4byte	0x5e7
 3301 1154 00       		.byte	0
 3302 1155 30       		.uleb128 0x30
 3303 1156 01       		.byte	0x1
 3304 1157 55050000 		.4byte	.LASF125
 3305 115b 0B       		.byte	0xb
 3306 115c BB       		.byte	0xbb
 3307 115d 01       		.byte	0x1
 3308 115e 05010000 		.4byte	0x105
 3309 1162 01       		.byte	0x1
 3310 1163 72110000 		.4byte	0x1172
 3311 1167 0E       		.uleb128 0xe
 3312 1168 05010000 		.4byte	0x105
 3313 116c 0E       		.uleb128 0xe
 3314 116d 1B010000 		.4byte	0x11b
 3315 1171 00       		.byte	0
 3316 1172 30       		.uleb128 0x30
 3317 1173 01       		.byte	0x1
 3318 1174 72000000 		.4byte	.LASF126
 3319 1178 0B       		.byte	0xb
 3320 1179 BC       		.byte	0xbc
 3321 117a 01       		.byte	0x1
 3322 117b 05010000 		.4byte	0x105
 3323 117f 01       		.byte	0x1
 3324 1180 8F110000 		.4byte	0x118f
 3325 1184 0E       		.uleb128 0xe
 3326 1185 05010000 		.4byte	0x105
 3327 1189 0E       		.uleb128 0xe
 3328 118a 1B010000 		.4byte	0x11b
 3329 118e 00       		.byte	0
 3330 118f 36       		.uleb128 0x36
 3331 1190 01       		.byte	0x1
 3332 1191 B4000000 		.4byte	.LASF127
 3333 1195 0B       		.byte	0xb
 3334 1196 BD       		.byte	0xbd
 3335 1197 01       		.byte	0x1
ARM GAS  C:\cygwin\tmp\ccapmX2i.s 			page 60


 3336 1198 05010000 		.4byte	0x105
 3337 119c 01       		.byte	0x1
 3338 119d 0E       		.uleb128 0xe
 3339 119e 05010000 		.4byte	0x105
 3340 11a2 0E       		.uleb128 0xe
 3341 11a3 1B010000 		.4byte	0x11b
 3342 11a7 00       		.byte	0
 3343 11a8 00       		.byte	0
 3344              		.section	.debug_abbrev,"",%progbits
 3345              	.Ldebug_abbrev0:
 3346 0000 01       		.uleb128 0x1
 3347 0001 11       		.uleb128 0x11
 3348 0002 01       		.byte	0x1
 3349 0003 25       		.uleb128 0x25
 3350 0004 0E       		.uleb128 0xe
 3351 0005 13       		.uleb128 0x13
 3352 0006 0B       		.uleb128 0xb
 3353 0007 03       		.uleb128 0x3
 3354 0008 0E       		.uleb128 0xe
 3355 0009 1B       		.uleb128 0x1b
 3356 000a 0E       		.uleb128 0xe
 3357 000b 55       		.uleb128 0x55
 3358 000c 06       		.uleb128 0x6
 3359 000d 11       		.uleb128 0x11
 3360 000e 01       		.uleb128 0x1
 3361 000f 52       		.uleb128 0x52
 3362 0010 01       		.uleb128 0x1
 3363 0011 10       		.uleb128 0x10
 3364 0012 06       		.uleb128 0x6
 3365 0013 00       		.byte	0
 3366 0014 00       		.byte	0
 3367 0015 02       		.uleb128 0x2
 3368 0016 24       		.uleb128 0x24
 3369 0017 00       		.byte	0
 3370 0018 0B       		.uleb128 0xb
 3371 0019 0B       		.uleb128 0xb
 3372 001a 3E       		.uleb128 0x3e
 3373 001b 0B       		.uleb128 0xb
 3374 001c 03       		.uleb128 0x3
 3375 001d 08       		.uleb128 0x8
 3376 001e 00       		.byte	0
 3377 001f 00       		.byte	0
 3378 0020 03       		.uleb128 0x3
 3379 0021 16       		.uleb128 0x16
 3380 0022 00       		.byte	0
 3381 0023 03       		.uleb128 0x3
 3382 0024 0E       		.uleb128 0xe
 3383 0025 3A       		.uleb128 0x3a
 3384 0026 0B       		.uleb128 0xb
 3385 0027 3B       		.uleb128 0x3b
 3386 0028 0B       		.uleb128 0xb
 3387 0029 49       		.uleb128 0x49
 3388 002a 13       		.uleb128 0x13
 3389 002b 00       		.byte	0
 3390 002c 00       		.byte	0
 3391 002d 04       		.uleb128 0x4
 3392 002e 24       		.uleb128 0x24
ARM GAS  C:\cygwin\tmp\ccapmX2i.s 			page 61


 3393 002f 00       		.byte	0
 3394 0030 0B       		.uleb128 0xb
 3395 0031 0B       		.uleb128 0xb
 3396 0032 3E       		.uleb128 0x3e
 3397 0033 0B       		.uleb128 0xb
 3398 0034 03       		.uleb128 0x3
 3399 0035 0E       		.uleb128 0xe
 3400 0036 00       		.byte	0
 3401 0037 00       		.byte	0
 3402 0038 05       		.uleb128 0x5
 3403 0039 13       		.uleb128 0x13
 3404 003a 01       		.byte	0x1
 3405 003b 03       		.uleb128 0x3
 3406 003c 0E       		.uleb128 0xe
 3407 003d 0B       		.uleb128 0xb
 3408 003e 0B       		.uleb128 0xb
 3409 003f 3A       		.uleb128 0x3a
 3410 0040 0B       		.uleb128 0xb
 3411 0041 3B       		.uleb128 0x3b
 3412 0042 0B       		.uleb128 0xb
 3413 0043 01       		.uleb128 0x1
 3414 0044 13       		.uleb128 0x13
 3415 0045 00       		.byte	0
 3416 0046 00       		.byte	0
 3417 0047 06       		.uleb128 0x6
 3418 0048 0D       		.uleb128 0xd
 3419 0049 00       		.byte	0
 3420 004a 03       		.uleb128 0x3
 3421 004b 0E       		.uleb128 0xe
 3422 004c 3A       		.uleb128 0x3a
 3423 004d 0B       		.uleb128 0xb
 3424 004e 3B       		.uleb128 0x3b
 3425 004f 0B       		.uleb128 0xb
 3426 0050 49       		.uleb128 0x49
 3427 0051 13       		.uleb128 0x13
 3428 0052 38       		.uleb128 0x38
 3429 0053 0A       		.uleb128 0xa
 3430 0054 00       		.byte	0
 3431 0055 00       		.byte	0
 3432 0056 07       		.uleb128 0x7
 3433 0057 0D       		.uleb128 0xd
 3434 0058 00       		.byte	0
 3435 0059 03       		.uleb128 0x3
 3436 005a 08       		.uleb128 0x8
 3437 005b 3A       		.uleb128 0x3a
 3438 005c 0B       		.uleb128 0xb
 3439 005d 3B       		.uleb128 0x3b
 3440 005e 0B       		.uleb128 0xb
 3441 005f 49       		.uleb128 0x49
 3442 0060 13       		.uleb128 0x13
 3443 0061 38       		.uleb128 0x38
 3444 0062 0A       		.uleb128 0xa
 3445 0063 00       		.byte	0
 3446 0064 00       		.byte	0
 3447 0065 08       		.uleb128 0x8
 3448 0066 13       		.uleb128 0x13
 3449 0067 01       		.byte	0x1
ARM GAS  C:\cygwin\tmp\ccapmX2i.s 			page 62


 3450 0068 0B       		.uleb128 0xb
 3451 0069 0B       		.uleb128 0xb
 3452 006a 3A       		.uleb128 0x3a
 3453 006b 0B       		.uleb128 0xb
 3454 006c 3B       		.uleb128 0x3b
 3455 006d 0B       		.uleb128 0xb
 3456 006e 01       		.uleb128 0x1
 3457 006f 13       		.uleb128 0x13
 3458 0070 00       		.byte	0
 3459 0071 00       		.byte	0
 3460 0072 09       		.uleb128 0x9
 3461 0073 0F       		.uleb128 0xf
 3462 0074 00       		.byte	0
 3463 0075 0B       		.uleb128 0xb
 3464 0076 0B       		.uleb128 0xb
 3465 0077 49       		.uleb128 0x49
 3466 0078 13       		.uleb128 0x13
 3467 0079 00       		.byte	0
 3468 007a 00       		.byte	0
 3469 007b 0A       		.uleb128 0xa
 3470 007c 0F       		.uleb128 0xf
 3471 007d 00       		.byte	0
 3472 007e 0B       		.uleb128 0xb
 3473 007f 0B       		.uleb128 0xb
 3474 0080 00       		.byte	0
 3475 0081 00       		.byte	0
 3476 0082 0B       		.uleb128 0xb
 3477 0083 13       		.uleb128 0x13
 3478 0084 01       		.byte	0x1
 3479 0085 03       		.uleb128 0x3
 3480 0086 0E       		.uleb128 0xe
 3481 0087 0B       		.uleb128 0xb
 3482 0088 0B       		.uleb128 0xb
 3483 0089 3A       		.uleb128 0x3a
 3484 008a 0B       		.uleb128 0xb
 3485 008b 3B       		.uleb128 0x3b
 3486 008c 05       		.uleb128 0x5
 3487 008d 01       		.uleb128 0x1
 3488 008e 13       		.uleb128 0x13
 3489 008f 00       		.byte	0
 3490 0090 00       		.byte	0
 3491 0091 0C       		.uleb128 0xc
 3492 0092 0D       		.uleb128 0xd
 3493 0093 00       		.byte	0
 3494 0094 03       		.uleb128 0x3
 3495 0095 08       		.uleb128 0x8
 3496 0096 3A       		.uleb128 0x3a
 3497 0097 0B       		.uleb128 0xb
 3498 0098 3B       		.uleb128 0x3b
 3499 0099 05       		.uleb128 0x5
 3500 009a 49       		.uleb128 0x49
 3501 009b 13       		.uleb128 0x13
 3502 009c 38       		.uleb128 0x38
 3503 009d 0A       		.uleb128 0xa
 3504 009e 00       		.byte	0
 3505 009f 00       		.byte	0
 3506 00a0 0D       		.uleb128 0xd
ARM GAS  C:\cygwin\tmp\ccapmX2i.s 			page 63


 3507 00a1 15       		.uleb128 0x15
 3508 00a2 01       		.byte	0x1
 3509 00a3 27       		.uleb128 0x27
 3510 00a4 0C       		.uleb128 0xc
 3511 00a5 01       		.uleb128 0x1
 3512 00a6 13       		.uleb128 0x13
 3513 00a7 00       		.byte	0
 3514 00a8 00       		.byte	0
 3515 00a9 0E       		.uleb128 0xe
 3516 00aa 05       		.uleb128 0x5
 3517 00ab 00       		.byte	0
 3518 00ac 49       		.uleb128 0x49
 3519 00ad 13       		.uleb128 0x13
 3520 00ae 00       		.byte	0
 3521 00af 00       		.byte	0
 3522 00b0 0F       		.uleb128 0xf
 3523 00b1 35       		.uleb128 0x35
 3524 00b2 00       		.byte	0
 3525 00b3 49       		.uleb128 0x49
 3526 00b4 13       		.uleb128 0x13
 3527 00b5 00       		.byte	0
 3528 00b6 00       		.byte	0
 3529 00b7 10       		.uleb128 0x10
 3530 00b8 17       		.uleb128 0x17
 3531 00b9 01       		.byte	0x1
 3532 00ba 0B       		.uleb128 0xb
 3533 00bb 0B       		.uleb128 0xb
 3534 00bc 3A       		.uleb128 0x3a
 3535 00bd 0B       		.uleb128 0xb
 3536 00be 3B       		.uleb128 0x3b
 3537 00bf 0B       		.uleb128 0xb
 3538 00c0 01       		.uleb128 0x1
 3539 00c1 13       		.uleb128 0x13
 3540 00c2 00       		.byte	0
 3541 00c3 00       		.byte	0
 3542 00c4 11       		.uleb128 0x11
 3543 00c5 0D       		.uleb128 0xd
 3544 00c6 00       		.byte	0
 3545 00c7 03       		.uleb128 0x3
 3546 00c8 0E       		.uleb128 0xe
 3547 00c9 3A       		.uleb128 0x3a
 3548 00ca 0B       		.uleb128 0xb
 3549 00cb 3B       		.uleb128 0x3b
 3550 00cc 0B       		.uleb128 0xb
 3551 00cd 49       		.uleb128 0x49
 3552 00ce 13       		.uleb128 0x13
 3553 00cf 00       		.byte	0
 3554 00d0 00       		.byte	0
 3555 00d1 12       		.uleb128 0x12
 3556 00d2 26       		.uleb128 0x26
 3557 00d3 00       		.byte	0
 3558 00d4 49       		.uleb128 0x49
 3559 00d5 13       		.uleb128 0x13
 3560 00d6 00       		.byte	0
 3561 00d7 00       		.byte	0
 3562 00d8 13       		.uleb128 0x13
 3563 00d9 15       		.uleb128 0x15
ARM GAS  C:\cygwin\tmp\ccapmX2i.s 			page 64


 3564 00da 01       		.byte	0x1
 3565 00db 27       		.uleb128 0x27
 3566 00dc 0C       		.uleb128 0xc
 3567 00dd 49       		.uleb128 0x49
 3568 00de 13       		.uleb128 0x13
 3569 00df 01       		.uleb128 0x1
 3570 00e0 13       		.uleb128 0x13
 3571 00e1 00       		.byte	0
 3572 00e2 00       		.byte	0
 3573 00e3 14       		.uleb128 0x14
 3574 00e4 15       		.uleb128 0x15
 3575 00e5 00       		.byte	0
 3576 00e6 27       		.uleb128 0x27
 3577 00e7 0C       		.uleb128 0xc
 3578 00e8 00       		.byte	0
 3579 00e9 00       		.byte	0
 3580 00ea 15       		.uleb128 0x15
 3581 00eb 2E       		.uleb128 0x2e
 3582 00ec 01       		.byte	0x1
 3583 00ed 03       		.uleb128 0x3
 3584 00ee 0E       		.uleb128 0xe
 3585 00ef 3A       		.uleb128 0x3a
 3586 00f0 0B       		.uleb128 0xb
 3587 00f1 3B       		.uleb128 0x3b
 3588 00f2 05       		.uleb128 0x5
 3589 00f3 27       		.uleb128 0x27
 3590 00f4 0C       		.uleb128 0xc
 3591 00f5 20       		.uleb128 0x20
 3592 00f6 0B       		.uleb128 0xb
 3593 00f7 01       		.uleb128 0x1
 3594 00f8 13       		.uleb128 0x13
 3595 00f9 00       		.byte	0
 3596 00fa 00       		.byte	0
 3597 00fb 16       		.uleb128 0x16
 3598 00fc 34       		.uleb128 0x34
 3599 00fd 00       		.byte	0
 3600 00fe 03       		.uleb128 0x3
 3601 00ff 08       		.uleb128 0x8
 3602 0100 3A       		.uleb128 0x3a
 3603 0101 0B       		.uleb128 0xb
 3604 0102 3B       		.uleb128 0x3b
 3605 0103 05       		.uleb128 0x5
 3606 0104 49       		.uleb128 0x49
 3607 0105 13       		.uleb128 0x13
 3608 0106 00       		.byte	0
 3609 0107 00       		.byte	0
 3610 0108 17       		.uleb128 0x17
 3611 0109 2E       		.uleb128 0x2e
 3612 010a 01       		.byte	0x1
 3613 010b 03       		.uleb128 0x3
 3614 010c 0E       		.uleb128 0xe
 3615 010d 3A       		.uleb128 0x3a
 3616 010e 0B       		.uleb128 0xb
 3617 010f 3B       		.uleb128 0x3b
 3618 0110 0B       		.uleb128 0xb
 3619 0111 27       		.uleb128 0x27
 3620 0112 0C       		.uleb128 0xc
ARM GAS  C:\cygwin\tmp\ccapmX2i.s 			page 65


 3621 0113 11       		.uleb128 0x11
 3622 0114 01       		.uleb128 0x1
 3623 0115 12       		.uleb128 0x12
 3624 0116 01       		.uleb128 0x1
 3625 0117 40       		.uleb128 0x40
 3626 0118 0A       		.uleb128 0xa
 3627 0119 9742     		.uleb128 0x2117
 3628 011b 0C       		.uleb128 0xc
 3629 011c 01       		.uleb128 0x1
 3630 011d 13       		.uleb128 0x13
 3631 011e 00       		.byte	0
 3632 011f 00       		.byte	0
 3633 0120 18       		.uleb128 0x18
 3634 0121 898201   		.uleb128 0x4109
 3635 0124 01       		.byte	0x1
 3636 0125 11       		.uleb128 0x11
 3637 0126 01       		.uleb128 0x1
 3638 0127 9542     		.uleb128 0x2115
 3639 0129 0C       		.uleb128 0xc
 3640 012a 31       		.uleb128 0x31
 3641 012b 13       		.uleb128 0x13
 3642 012c 00       		.byte	0
 3643 012d 00       		.byte	0
 3644 012e 19       		.uleb128 0x19
 3645 012f 8A8201   		.uleb128 0x410a
 3646 0132 00       		.byte	0
 3647 0133 02       		.uleb128 0x2
 3648 0134 0A       		.uleb128 0xa
 3649 0135 9142     		.uleb128 0x2111
 3650 0137 0A       		.uleb128 0xa
 3651 0138 00       		.byte	0
 3652 0139 00       		.byte	0
 3653 013a 1A       		.uleb128 0x1a
 3654 013b 2E       		.uleb128 0x2e
 3655 013c 01       		.byte	0x1
 3656 013d 03       		.uleb128 0x3
 3657 013e 0E       		.uleb128 0xe
 3658 013f 3A       		.uleb128 0x3a
 3659 0140 0B       		.uleb128 0xb
 3660 0141 3B       		.uleb128 0x3b
 3661 0142 0B       		.uleb128 0xb
 3662 0143 27       		.uleb128 0x27
 3663 0144 0C       		.uleb128 0xc
 3664 0145 11       		.uleb128 0x11
 3665 0146 01       		.uleb128 0x1
 3666 0147 12       		.uleb128 0x12
 3667 0148 01       		.uleb128 0x1
 3668 0149 40       		.uleb128 0x40
 3669 014a 06       		.uleb128 0x6
 3670 014b 9742     		.uleb128 0x2117
 3671 014d 0C       		.uleb128 0xc
 3672 014e 01       		.uleb128 0x1
 3673 014f 13       		.uleb128 0x13
 3674 0150 00       		.byte	0
 3675 0151 00       		.byte	0
 3676 0152 1B       		.uleb128 0x1b
 3677 0153 34       		.uleb128 0x34
ARM GAS  C:\cygwin\tmp\ccapmX2i.s 			page 66


 3678 0154 00       		.byte	0
 3679 0155 03       		.uleb128 0x3
 3680 0156 08       		.uleb128 0x8
 3681 0157 3A       		.uleb128 0x3a
 3682 0158 0B       		.uleb128 0xb
 3683 0159 3B       		.uleb128 0x3b
 3684 015a 0B       		.uleb128 0xb
 3685 015b 49       		.uleb128 0x49
 3686 015c 13       		.uleb128 0x13
 3687 015d 02       		.uleb128 0x2
 3688 015e 06       		.uleb128 0x6
 3689 015f 00       		.byte	0
 3690 0160 00       		.byte	0
 3691 0161 1C       		.uleb128 0x1c
 3692 0162 34       		.uleb128 0x34
 3693 0163 00       		.byte	0
 3694 0164 03       		.uleb128 0x3
 3695 0165 08       		.uleb128 0x8
 3696 0166 3A       		.uleb128 0x3a
 3697 0167 0B       		.uleb128 0xb
 3698 0168 3B       		.uleb128 0x3b
 3699 0169 0B       		.uleb128 0xb
 3700 016a 49       		.uleb128 0x49
 3701 016b 13       		.uleb128 0x13
 3702 016c 02       		.uleb128 0x2
 3703 016d 0A       		.uleb128 0xa
 3704 016e 00       		.byte	0
 3705 016f 00       		.byte	0
 3706 0170 1D       		.uleb128 0x1d
 3707 0171 34       		.uleb128 0x34
 3708 0172 00       		.byte	0
 3709 0173 03       		.uleb128 0x3
 3710 0174 0E       		.uleb128 0xe
 3711 0175 3A       		.uleb128 0x3a
 3712 0176 0B       		.uleb128 0xb
 3713 0177 3B       		.uleb128 0x3b
 3714 0178 0B       		.uleb128 0xb
 3715 0179 49       		.uleb128 0x49
 3716 017a 13       		.uleb128 0x13
 3717 017b 02       		.uleb128 0x2
 3718 017c 06       		.uleb128 0x6
 3719 017d 00       		.byte	0
 3720 017e 00       		.byte	0
 3721 017f 1E       		.uleb128 0x1e
 3722 0180 898201   		.uleb128 0x4109
 3723 0183 01       		.byte	0x1
 3724 0184 11       		.uleb128 0x11
 3725 0185 01       		.uleb128 0x1
 3726 0186 31       		.uleb128 0x31
 3727 0187 13       		.uleb128 0x13
 3728 0188 01       		.uleb128 0x1
 3729 0189 13       		.uleb128 0x13
 3730 018a 00       		.byte	0
 3731 018b 00       		.byte	0
 3732 018c 1F       		.uleb128 0x1f
 3733 018d 898201   		.uleb128 0x4109
 3734 0190 00       		.byte	0
ARM GAS  C:\cygwin\tmp\ccapmX2i.s 			page 67


 3735 0191 11       		.uleb128 0x11
 3736 0192 01       		.uleb128 0x1
 3737 0193 31       		.uleb128 0x31
 3738 0194 13       		.uleb128 0x13
 3739 0195 00       		.byte	0
 3740 0196 00       		.byte	0
 3741 0197 20       		.uleb128 0x20
 3742 0198 898201   		.uleb128 0x4109
 3743 019b 01       		.byte	0x1
 3744 019c 11       		.uleb128 0x11
 3745 019d 01       		.uleb128 0x1
 3746 019e 31       		.uleb128 0x31
 3747 019f 13       		.uleb128 0x13
 3748 01a0 00       		.byte	0
 3749 01a1 00       		.byte	0
 3750 01a2 21       		.uleb128 0x21
 3751 01a3 2E       		.uleb128 0x2e
 3752 01a4 01       		.byte	0x1
 3753 01a5 03       		.uleb128 0x3
 3754 01a6 0E       		.uleb128 0xe
 3755 01a7 3A       		.uleb128 0x3a
 3756 01a8 0B       		.uleb128 0xb
 3757 01a9 3B       		.uleb128 0x3b
 3758 01aa 0B       		.uleb128 0xb
 3759 01ab 27       		.uleb128 0x27
 3760 01ac 0C       		.uleb128 0xc
 3761 01ad 49       		.uleb128 0x49
 3762 01ae 13       		.uleb128 0x13
 3763 01af 11       		.uleb128 0x11
 3764 01b0 01       		.uleb128 0x1
 3765 01b1 12       		.uleb128 0x12
 3766 01b2 01       		.uleb128 0x1
 3767 01b3 40       		.uleb128 0x40
 3768 01b4 06       		.uleb128 0x6
 3769 01b5 9742     		.uleb128 0x2117
 3770 01b7 0C       		.uleb128 0xc
 3771 01b8 01       		.uleb128 0x1
 3772 01b9 13       		.uleb128 0x13
 3773 01ba 00       		.byte	0
 3774 01bb 00       		.byte	0
 3775 01bc 22       		.uleb128 0x22
 3776 01bd 05       		.uleb128 0x5
 3777 01be 00       		.byte	0
 3778 01bf 03       		.uleb128 0x3
 3779 01c0 08       		.uleb128 0x8
 3780 01c1 3A       		.uleb128 0x3a
 3781 01c2 0B       		.uleb128 0xb
 3782 01c3 3B       		.uleb128 0x3b
 3783 01c4 0B       		.uleb128 0xb
 3784 01c5 49       		.uleb128 0x49
 3785 01c6 13       		.uleb128 0x13
 3786 01c7 02       		.uleb128 0x2
 3787 01c8 06       		.uleb128 0x6
 3788 01c9 00       		.byte	0
 3789 01ca 00       		.byte	0
 3790 01cb 23       		.uleb128 0x23
 3791 01cc 2E       		.uleb128 0x2e
ARM GAS  C:\cygwin\tmp\ccapmX2i.s 			page 68


 3792 01cd 01       		.byte	0x1
 3793 01ce 03       		.uleb128 0x3
 3794 01cf 08       		.uleb128 0x8
 3795 01d0 3A       		.uleb128 0x3a
 3796 01d1 0B       		.uleb128 0xb
 3797 01d2 3B       		.uleb128 0x3b
 3798 01d3 0B       		.uleb128 0xb
 3799 01d4 27       		.uleb128 0x27
 3800 01d5 0C       		.uleb128 0xc
 3801 01d6 11       		.uleb128 0x11
 3802 01d7 01       		.uleb128 0x1
 3803 01d8 12       		.uleb128 0x12
 3804 01d9 01       		.uleb128 0x1
 3805 01da 40       		.uleb128 0x40
 3806 01db 0A       		.uleb128 0xa
 3807 01dc 9742     		.uleb128 0x2117
 3808 01de 0C       		.uleb128 0xc
 3809 01df 01       		.uleb128 0x1
 3810 01e0 13       		.uleb128 0x13
 3811 01e1 00       		.byte	0
 3812 01e2 00       		.byte	0
 3813 01e3 24       		.uleb128 0x24
 3814 01e4 2E       		.uleb128 0x2e
 3815 01e5 01       		.byte	0x1
 3816 01e6 31       		.uleb128 0x31
 3817 01e7 13       		.uleb128 0x13
 3818 01e8 11       		.uleb128 0x11
 3819 01e9 01       		.uleb128 0x1
 3820 01ea 12       		.uleb128 0x12
 3821 01eb 01       		.uleb128 0x1
 3822 01ec 40       		.uleb128 0x40
 3823 01ed 06       		.uleb128 0x6
 3824 01ee 9742     		.uleb128 0x2117
 3825 01f0 0C       		.uleb128 0xc
 3826 01f1 01       		.uleb128 0x1
 3827 01f2 13       		.uleb128 0x13
 3828 01f3 00       		.byte	0
 3829 01f4 00       		.byte	0
 3830 01f5 25       		.uleb128 0x25
 3831 01f6 34       		.uleb128 0x34
 3832 01f7 00       		.byte	0
 3833 01f8 31       		.uleb128 0x31
 3834 01f9 13       		.uleb128 0x13
 3835 01fa 02       		.uleb128 0x2
 3836 01fb 06       		.uleb128 0x6
 3837 01fc 00       		.byte	0
 3838 01fd 00       		.byte	0
 3839 01fe 26       		.uleb128 0x26
 3840 01ff 1D       		.uleb128 0x1d
 3841 0200 01       		.byte	0x1
 3842 0201 31       		.uleb128 0x31
 3843 0202 13       		.uleb128 0x13
 3844 0203 52       		.uleb128 0x52
 3845 0204 01       		.uleb128 0x1
 3846 0205 55       		.uleb128 0x55
 3847 0206 06       		.uleb128 0x6
 3848 0207 58       		.uleb128 0x58
ARM GAS  C:\cygwin\tmp\ccapmX2i.s 			page 69


 3849 0208 0B       		.uleb128 0xb
 3850 0209 59       		.uleb128 0x59
 3851 020a 05       		.uleb128 0x5
 3852 020b 01       		.uleb128 0x1
 3853 020c 13       		.uleb128 0x13
 3854 020d 00       		.byte	0
 3855 020e 00       		.byte	0
 3856 020f 27       		.uleb128 0x27
 3857 0210 0B       		.uleb128 0xb
 3858 0211 01       		.byte	0x1
 3859 0212 55       		.uleb128 0x55
 3860 0213 06       		.uleb128 0x6
 3861 0214 00       		.byte	0
 3862 0215 00       		.byte	0
 3863 0216 28       		.uleb128 0x28
 3864 0217 01       		.uleb128 0x1
 3865 0218 01       		.byte	0x1
 3866 0219 49       		.uleb128 0x49
 3867 021a 13       		.uleb128 0x13
 3868 021b 01       		.uleb128 0x1
 3869 021c 13       		.uleb128 0x13
 3870 021d 00       		.byte	0
 3871 021e 00       		.byte	0
 3872 021f 29       		.uleb128 0x29
 3873 0220 21       		.uleb128 0x21
 3874 0221 00       		.byte	0
 3875 0222 49       		.uleb128 0x49
 3876 0223 13       		.uleb128 0x13
 3877 0224 2F       		.uleb128 0x2f
 3878 0225 0B       		.uleb128 0xb
 3879 0226 00       		.byte	0
 3880 0227 00       		.byte	0
 3881 0228 2A       		.uleb128 0x2a
 3882 0229 34       		.uleb128 0x34
 3883 022a 00       		.byte	0
 3884 022b 03       		.uleb128 0x3
 3885 022c 0E       		.uleb128 0xe
 3886 022d 3A       		.uleb128 0x3a
 3887 022e 0B       		.uleb128 0xb
 3888 022f 3B       		.uleb128 0x3b
 3889 0230 0B       		.uleb128 0xb
 3890 0231 49       		.uleb128 0x49
 3891 0232 13       		.uleb128 0x13
 3892 0233 02       		.uleb128 0x2
 3893 0234 0A       		.uleb128 0xa
 3894 0235 00       		.byte	0
 3895 0236 00       		.byte	0
 3896 0237 2B       		.uleb128 0x2b
 3897 0238 34       		.uleb128 0x34
 3898 0239 00       		.byte	0
 3899 023a 03       		.uleb128 0x3
 3900 023b 0E       		.uleb128 0xe
 3901 023c 3A       		.uleb128 0x3a
 3902 023d 0B       		.uleb128 0xb
 3903 023e 3B       		.uleb128 0x3b
 3904 023f 0B       		.uleb128 0xb
 3905 0240 49       		.uleb128 0x49
ARM GAS  C:\cygwin\tmp\ccapmX2i.s 			page 70


 3906 0241 13       		.uleb128 0x13
 3907 0242 3F       		.uleb128 0x3f
 3908 0243 0C       		.uleb128 0xc
 3909 0244 3C       		.uleb128 0x3c
 3910 0245 0C       		.uleb128 0xc
 3911 0246 00       		.byte	0
 3912 0247 00       		.byte	0
 3913 0248 2C       		.uleb128 0x2c
 3914 0249 21       		.uleb128 0x21
 3915 024a 00       		.byte	0
 3916 024b 00       		.byte	0
 3917 024c 00       		.byte	0
 3918 024d 2D       		.uleb128 0x2d
 3919 024e 34       		.uleb128 0x34
 3920 024f 00       		.byte	0
 3921 0250 03       		.uleb128 0x3
 3922 0251 08       		.uleb128 0x8
 3923 0252 3A       		.uleb128 0x3a
 3924 0253 0B       		.uleb128 0xb
 3925 0254 3B       		.uleb128 0x3b
 3926 0255 0B       		.uleb128 0xb
 3927 0256 49       		.uleb128 0x49
 3928 0257 13       		.uleb128 0x13
 3929 0258 3F       		.uleb128 0x3f
 3930 0259 0C       		.uleb128 0xc
 3931 025a 3C       		.uleb128 0x3c
 3932 025b 0C       		.uleb128 0xc
 3933 025c 00       		.byte	0
 3934 025d 00       		.byte	0
 3935 025e 2E       		.uleb128 0x2e
 3936 025f 34       		.uleb128 0x34
 3937 0260 00       		.byte	0
 3938 0261 03       		.uleb128 0x3
 3939 0262 0E       		.uleb128 0xe
 3940 0263 3A       		.uleb128 0x3a
 3941 0264 0B       		.uleb128 0xb
 3942 0265 3B       		.uleb128 0x3b
 3943 0266 0B       		.uleb128 0xb
 3944 0267 49       		.uleb128 0x49
 3945 0268 13       		.uleb128 0x13
 3946 0269 3F       		.uleb128 0x3f
 3947 026a 0C       		.uleb128 0xc
 3948 026b 02       		.uleb128 0x2
 3949 026c 0A       		.uleb128 0xa
 3950 026d 00       		.byte	0
 3951 026e 00       		.byte	0
 3952 026f 2F       		.uleb128 0x2f
 3953 0270 34       		.uleb128 0x34
 3954 0271 00       		.byte	0
 3955 0272 03       		.uleb128 0x3
 3956 0273 0E       		.uleb128 0xe
 3957 0274 3A       		.uleb128 0x3a
 3958 0275 0B       		.uleb128 0xb
 3959 0276 3B       		.uleb128 0x3b
 3960 0277 05       		.uleb128 0x5
 3961 0278 49       		.uleb128 0x49
 3962 0279 13       		.uleb128 0x13
ARM GAS  C:\cygwin\tmp\ccapmX2i.s 			page 71


 3963 027a 3F       		.uleb128 0x3f
 3964 027b 0C       		.uleb128 0xc
 3965 027c 02       		.uleb128 0x2
 3966 027d 0A       		.uleb128 0xa
 3967 027e 00       		.byte	0
 3968 027f 00       		.byte	0
 3969 0280 30       		.uleb128 0x30
 3970 0281 2E       		.uleb128 0x2e
 3971 0282 01       		.byte	0x1
 3972 0283 3F       		.uleb128 0x3f
 3973 0284 0C       		.uleb128 0xc
 3974 0285 03       		.uleb128 0x3
 3975 0286 0E       		.uleb128 0xe
 3976 0287 3A       		.uleb128 0x3a
 3977 0288 0B       		.uleb128 0xb
 3978 0289 3B       		.uleb128 0x3b
 3979 028a 0B       		.uleb128 0xb
 3980 028b 27       		.uleb128 0x27
 3981 028c 0C       		.uleb128 0xc
 3982 028d 49       		.uleb128 0x49
 3983 028e 13       		.uleb128 0x13
 3984 028f 3C       		.uleb128 0x3c
 3985 0290 0C       		.uleb128 0xc
 3986 0291 01       		.uleb128 0x1
 3987 0292 13       		.uleb128 0x13
 3988 0293 00       		.byte	0
 3989 0294 00       		.byte	0
 3990 0295 31       		.uleb128 0x31
 3991 0296 2E       		.uleb128 0x2e
 3992 0297 00       		.byte	0
 3993 0298 3F       		.uleb128 0x3f
 3994 0299 0C       		.uleb128 0xc
 3995 029a 03       		.uleb128 0x3
 3996 029b 0E       		.uleb128 0xe
 3997 029c 3A       		.uleb128 0x3a
 3998 029d 0B       		.uleb128 0xb
 3999 029e 3B       		.uleb128 0x3b
 4000 029f 0B       		.uleb128 0xb
 4001 02a0 27       		.uleb128 0x27
 4002 02a1 0C       		.uleb128 0xc
 4003 02a2 49       		.uleb128 0x49
 4004 02a3 13       		.uleb128 0x13
 4005 02a4 3C       		.uleb128 0x3c
 4006 02a5 0C       		.uleb128 0xc
 4007 02a6 00       		.byte	0
 4008 02a7 00       		.byte	0
 4009 02a8 32       		.uleb128 0x32
 4010 02a9 2E       		.uleb128 0x2e
 4011 02aa 01       		.byte	0x1
 4012 02ab 3F       		.uleb128 0x3f
 4013 02ac 0C       		.uleb128 0xc
 4014 02ad 03       		.uleb128 0x3
 4015 02ae 0E       		.uleb128 0xe
 4016 02af 3A       		.uleb128 0x3a
 4017 02b0 0B       		.uleb128 0xb
 4018 02b1 3B       		.uleb128 0x3b
 4019 02b2 05       		.uleb128 0x5
ARM GAS  C:\cygwin\tmp\ccapmX2i.s 			page 72


 4020 02b3 27       		.uleb128 0x27
 4021 02b4 0C       		.uleb128 0xc
 4022 02b5 49       		.uleb128 0x49
 4023 02b6 13       		.uleb128 0x13
 4024 02b7 3C       		.uleb128 0x3c
 4025 02b8 0C       		.uleb128 0xc
 4026 02b9 01       		.uleb128 0x1
 4027 02ba 13       		.uleb128 0x13
 4028 02bb 00       		.byte	0
 4029 02bc 00       		.byte	0
 4030 02bd 33       		.uleb128 0x33
 4031 02be 2E       		.uleb128 0x2e
 4032 02bf 00       		.byte	0
 4033 02c0 3F       		.uleb128 0x3f
 4034 02c1 0C       		.uleb128 0xc
 4035 02c2 03       		.uleb128 0x3
 4036 02c3 0E       		.uleb128 0xe
 4037 02c4 3A       		.uleb128 0x3a
 4038 02c5 0B       		.uleb128 0xb
 4039 02c6 3B       		.uleb128 0x3b
 4040 02c7 0B       		.uleb128 0xb
 4041 02c8 27       		.uleb128 0x27
 4042 02c9 0C       		.uleb128 0xc
 4043 02ca 3C       		.uleb128 0x3c
 4044 02cb 0C       		.uleb128 0xc
 4045 02cc 00       		.byte	0
 4046 02cd 00       		.byte	0
 4047 02ce 34       		.uleb128 0x34
 4048 02cf 2E       		.uleb128 0x2e
 4049 02d0 01       		.byte	0x1
 4050 02d1 3F       		.uleb128 0x3f
 4051 02d2 0C       		.uleb128 0xc
 4052 02d3 03       		.uleb128 0x3
 4053 02d4 0E       		.uleb128 0xe
 4054 02d5 3A       		.uleb128 0x3a
 4055 02d6 0B       		.uleb128 0xb
 4056 02d7 3B       		.uleb128 0x3b
 4057 02d8 0B       		.uleb128 0xb
 4058 02d9 27       		.uleb128 0x27
 4059 02da 0C       		.uleb128 0xc
 4060 02db 3C       		.uleb128 0x3c
 4061 02dc 0C       		.uleb128 0xc
 4062 02dd 01       		.uleb128 0x1
 4063 02de 13       		.uleb128 0x13
 4064 02df 00       		.byte	0
 4065 02e0 00       		.byte	0
 4066 02e1 35       		.uleb128 0x35
 4067 02e2 2E       		.uleb128 0x2e
 4068 02e3 01       		.byte	0x1
 4069 02e4 3F       		.uleb128 0x3f
 4070 02e5 0C       		.uleb128 0xc
 4071 02e6 03       		.uleb128 0x3
 4072 02e7 0E       		.uleb128 0xe
 4073 02e8 3A       		.uleb128 0x3a
 4074 02e9 0B       		.uleb128 0xb
 4075 02ea 3B       		.uleb128 0x3b
 4076 02eb 05       		.uleb128 0x5
ARM GAS  C:\cygwin\tmp\ccapmX2i.s 			page 73


 4077 02ec 27       		.uleb128 0x27
 4078 02ed 0C       		.uleb128 0xc
 4079 02ee 3C       		.uleb128 0x3c
 4080 02ef 0C       		.uleb128 0xc
 4081 02f0 01       		.uleb128 0x1
 4082 02f1 13       		.uleb128 0x13
 4083 02f2 00       		.byte	0
 4084 02f3 00       		.byte	0
 4085 02f4 36       		.uleb128 0x36
 4086 02f5 2E       		.uleb128 0x2e
 4087 02f6 01       		.byte	0x1
 4088 02f7 3F       		.uleb128 0x3f
 4089 02f8 0C       		.uleb128 0xc
 4090 02f9 03       		.uleb128 0x3
 4091 02fa 0E       		.uleb128 0xe
 4092 02fb 3A       		.uleb128 0x3a
 4093 02fc 0B       		.uleb128 0xb
 4094 02fd 3B       		.uleb128 0x3b
 4095 02fe 0B       		.uleb128 0xb
 4096 02ff 27       		.uleb128 0x27
 4097 0300 0C       		.uleb128 0xc
 4098 0301 49       		.uleb128 0x49
 4099 0302 13       		.uleb128 0x13
 4100 0303 3C       		.uleb128 0x3c
 4101 0304 0C       		.uleb128 0xc
 4102 0305 00       		.byte	0
 4103 0306 00       		.byte	0
 4104 0307 00       		.byte	0
 4105              		.section	.debug_loc,"",%progbits
 4106              	.Ldebug_loc0:
 4107              	.LLST0:
 4108 0000 00000000 		.4byte	.LFB15
 4109 0004 04000000 		.4byte	.LCFI0
 4110 0008 0200     		.2byte	0x2
 4111 000a 7D       		.byte	0x7d
 4112 000b 00       		.sleb128 0
 4113 000c 04000000 		.4byte	.LCFI0
 4114 0010 08000000 		.4byte	.LCFI1
 4115 0014 0200     		.2byte	0x2
 4116 0016 7D       		.byte	0x7d
 4117 0017 18       		.sleb128 24
 4118 0018 08000000 		.4byte	.LCFI1
 4119 001c 54020000 		.4byte	.LFE15
 4120 0020 0300     		.2byte	0x3
 4121 0022 7D       		.byte	0x7d
 4122 0023 C800     		.sleb128 72
 4123 0025 00000000 		.4byte	0
 4124 0029 00000000 		.4byte	0
 4125              	.LLST1:
 4126 002d 14000000 		.4byte	.LVL4
 4127 0031 16000000 		.4byte	.LVL5
 4128 0035 0100     		.2byte	0x1
 4129 0037 50       		.byte	0x50
 4130 0038 16000000 		.4byte	.LVL5
 4131 003c 1C000000 		.4byte	.LVL6
 4132 0040 0300     		.2byte	0x3
 4133 0042 70       		.byte	0x70
ARM GAS  C:\cygwin\tmp\ccapmX2i.s 			page 74


 4134 0043 01       		.sleb128 1
 4135 0044 9F       		.byte	0x9f
 4136 0045 30000000 		.4byte	.LVL8
 4137 0049 38000000 		.4byte	.LVL9
 4138 004d 0100     		.2byte	0x1
 4139 004f 50       		.byte	0x50
 4140 0050 38000000 		.4byte	.LVL9
 4141 0054 3B000000 		.4byte	.LVL10-1
 4142 0058 0300     		.2byte	0x3
 4143 005a 72       		.byte	0x72
 4144 005b 04       		.sleb128 4
 4145 005c 9F       		.byte	0x9f
 4146 005d 48000000 		.4byte	.LVL11
 4147 0061 52000000 		.4byte	.LVL12
 4148 0065 0100     		.2byte	0x1
 4149 0067 50       		.byte	0x50
 4150 0068 90000000 		.4byte	.LVL19
 4151 006c 96000000 		.4byte	.LVL20
 4152 0070 0100     		.2byte	0x1
 4153 0072 50       		.byte	0x50
 4154 0073 96000000 		.4byte	.LVL20
 4155 0077 B8000000 		.4byte	.LVL23
 4156 007b 0100     		.2byte	0x1
 4157 007d 59       		.byte	0x59
 4158 007e B8000000 		.4byte	.LVL23
 4159 0082 C2000000 		.4byte	.LVL24
 4160 0086 0100     		.2byte	0x1
 4161 0088 50       		.byte	0x50
 4162 0089 DC000000 		.4byte	.LVL28
 4163 008d EA000000 		.4byte	.LVL29
 4164 0091 0100     		.2byte	0x1
 4165 0093 50       		.byte	0x50
 4166 0094 EA000000 		.4byte	.LVL29
 4167 0098 ED000000 		.4byte	.LVL30-1
 4168 009c 0300     		.2byte	0x3
 4169 009e 7C       		.byte	0x7c
 4170 009f 05       		.sleb128 5
 4171 00a0 9F       		.byte	0x9f
 4172 00a1 FA000000 		.4byte	.LVL31
 4173 00a5 04010000 		.4byte	.LVL32
 4174 00a9 0100     		.2byte	0x1
 4175 00ab 50       		.byte	0x50
 4176 00ac 36010000 		.4byte	.LVL39
 4177 00b0 3C010000 		.4byte	.LVL40
 4178 00b4 0100     		.2byte	0x1
 4179 00b6 50       		.byte	0x50
 4180 00b7 3C010000 		.4byte	.LVL40
 4181 00bb 66010000 		.4byte	.LVL43
 4182 00bf 0100     		.2byte	0x1
 4183 00c1 59       		.byte	0x59
 4184 00c2 66010000 		.4byte	.LVL43
 4185 00c6 70010000 		.4byte	.LVL44
 4186 00ca 0100     		.2byte	0x1
 4187 00cc 50       		.byte	0x50
 4188 00cd DE010000 		.4byte	.LVL56
 4189 00d1 E8010000 		.4byte	.LVL57
 4190 00d5 0100     		.2byte	0x1
ARM GAS  C:\cygwin\tmp\ccapmX2i.s 			page 75


 4191 00d7 50       		.byte	0x50
 4192 00d8 00000000 		.4byte	0
 4193 00dc 00000000 		.4byte	0
 4194              	.LLST2:
 4195 00e0 7C000000 		.4byte	.LVL15
 4196 00e4 8E000000 		.4byte	.LVL18
 4197 00e8 0300     		.2byte	0x3
 4198 00ea 74       		.byte	0x74
 4199 00eb 32       		.sleb128 50
 4200 00ec 9F       		.byte	0x9f
 4201 00ed 8E000000 		.4byte	.LVL18
 4202 00f1 99000000 		.4byte	.LVL21-1
 4203 00f5 0100     		.2byte	0x1
 4204 00f7 51       		.byte	0x51
 4205 00f8 99000000 		.4byte	.LVL21-1
 4206 00fc 34010000 		.4byte	.LVL38
 4207 0100 0300     		.2byte	0x3
 4208 0102 74       		.byte	0x74
 4209 0103 32       		.sleb128 50
 4210 0104 9F       		.byte	0x9f
 4211 0105 34010000 		.4byte	.LVL38
 4212 0109 3F010000 		.4byte	.LVL41-1
 4213 010d 0100     		.2byte	0x1
 4214 010f 51       		.byte	0x51
 4215 0110 3F010000 		.4byte	.LVL41-1
 4216 0114 80010000 		.4byte	.LVL46
 4217 0118 0300     		.2byte	0x3
 4218 011a 74       		.byte	0x74
 4219 011b 32       		.sleb128 50
 4220 011c 9F       		.byte	0x9f
 4221 011d B6010000 		.4byte	.LVL51
 4222 0121 C8010000 		.4byte	.LVL54
 4223 0125 0300     		.2byte	0x3
 4224 0127 75       		.byte	0x75
 4225 0128 32       		.sleb128 50
 4226 0129 9F       		.byte	0x9f
 4227 012a C8010000 		.4byte	.LVL54
 4228 012e CF010000 		.4byte	.LVL55-1
 4229 0132 0100     		.2byte	0x1
 4230 0134 51       		.byte	0x51
 4231 0135 CF010000 		.4byte	.LVL55-1
 4232 0139 54020000 		.4byte	.LFE15
 4233 013d 0300     		.2byte	0x3
 4234 013f 75       		.byte	0x75
 4235 0140 32       		.sleb128 50
 4236 0141 9F       		.byte	0x9f
 4237 0142 00000000 		.4byte	0
 4238 0146 00000000 		.4byte	0
 4239              	.LLST3:
 4240 014a 00000000 		.4byte	.LFB14
 4241 014e 06000000 		.4byte	.LCFI2
 4242 0152 0200     		.2byte	0x2
 4243 0154 7D       		.byte	0x7d
 4244 0155 00       		.sleb128 0
 4245 0156 06000000 		.4byte	.LCFI2
 4246 015a 28000000 		.4byte	.LFE14
 4247 015e 0200     		.2byte	0x2
ARM GAS  C:\cygwin\tmp\ccapmX2i.s 			page 76


 4248 0160 7D       		.byte	0x7d
 4249 0161 08       		.sleb128 8
 4250 0162 00000000 		.4byte	0
 4251 0166 00000000 		.4byte	0
 4252              	.LLST4:
 4253 016a 00000000 		.4byte	.LVL64
 4254 016e 04000000 		.4byte	.LVL65
 4255 0172 0100     		.2byte	0x1
 4256 0174 50       		.byte	0x50
 4257 0175 04000000 		.4byte	.LVL65
 4258 0179 28000000 		.4byte	.LFE14
 4259 017d 0400     		.2byte	0x4
 4260 017f F3       		.byte	0xf3
 4261 0180 01       		.uleb128 0x1
 4262 0181 50       		.byte	0x50
 4263 0182 9F       		.byte	0x9f
 4264 0183 00000000 		.4byte	0
 4265 0187 00000000 		.4byte	0
 4266              	.LLST5:
 4267 018b 00000000 		.4byte	.LFB13
 4268 018f 02000000 		.4byte	.LCFI3
 4269 0193 0200     		.2byte	0x2
 4270 0195 7D       		.byte	0x7d
 4271 0196 00       		.sleb128 0
 4272 0197 02000000 		.4byte	.LCFI3
 4273 019b 16000000 		.4byte	.LFE13
 4274 019f 0200     		.2byte	0x2
 4275 01a1 7D       		.byte	0x7d
 4276 01a2 08       		.sleb128 8
 4277 01a3 00000000 		.4byte	0
 4278 01a7 00000000 		.4byte	0
 4279              	.LLST6:
 4280 01ab 00000000 		.4byte	.LVL69
 4281 01af 06000000 		.4byte	.LVL70
 4282 01b3 0100     		.2byte	0x1
 4283 01b5 50       		.byte	0x50
 4284 01b6 06000000 		.4byte	.LVL70
 4285 01ba 16000000 		.4byte	.LFE13
 4286 01be 0100     		.2byte	0x1
 4287 01c0 54       		.byte	0x54
 4288 01c1 00000000 		.4byte	0
 4289 01c5 00000000 		.4byte	0
 4290              	.LLST7:
 4291 01c9 00000000 		.4byte	.LFB11
 4292 01cd 02000000 		.4byte	.LCFI4
 4293 01d1 0200     		.2byte	0x2
 4294 01d3 7D       		.byte	0x7d
 4295 01d4 00       		.sleb128 0
 4296 01d5 02000000 		.4byte	.LCFI4
 4297 01d9 06000000 		.4byte	.LCFI5
 4298 01dd 0200     		.2byte	0x2
 4299 01df 7D       		.byte	0x7d
 4300 01e0 08       		.sleb128 8
 4301 01e1 06000000 		.4byte	.LCFI5
 4302 01e5 88000000 		.4byte	.LFE11
 4303 01e9 0200     		.2byte	0x2
 4304 01eb 7D       		.byte	0x7d
ARM GAS  C:\cygwin\tmp\ccapmX2i.s 			page 77


 4305 01ec 28       		.sleb128 40
 4306 01ed 00000000 		.4byte	0
 4307 01f1 00000000 		.4byte	0
 4308              	.LLST8:
 4309 01f5 00000000 		.4byte	.LVL82
 4310 01f9 02000000 		.4byte	.LVL83
 4311 01fd 0100     		.2byte	0x1
 4312 01ff 50       		.byte	0x50
 4313 0200 02000000 		.4byte	.LVL83
 4314 0204 06000000 		.4byte	.LFE10
 4315 0208 0400     		.2byte	0x4
 4316 020a F3       		.byte	0xf3
 4317 020b 01       		.uleb128 0x1
 4318 020c 50       		.byte	0x50
 4319 020d 9F       		.byte	0x9f
 4320 020e 00000000 		.4byte	0
 4321 0212 00000000 		.4byte	0
 4322              	.LLST9:
 4323 0216 00000000 		.4byte	.LVL85
 4324 021a 02000000 		.4byte	.LVL86
 4325 021e 0100     		.2byte	0x1
 4326 0220 50       		.byte	0x50
 4327 0221 02000000 		.4byte	.LVL86
 4328 0225 06000000 		.4byte	.LFE9
 4329 0229 0400     		.2byte	0x4
 4330 022b F3       		.byte	0xf3
 4331 022c 01       		.uleb128 0x1
 4332 022d 50       		.byte	0x50
 4333 022e 9F       		.byte	0x9f
 4334 022f 00000000 		.4byte	0
 4335 0233 00000000 		.4byte	0
 4336              	.LLST10:
 4337 0237 00000000 		.4byte	.LVL88
 4338 023b 02000000 		.4byte	.LVL89
 4339 023f 0100     		.2byte	0x1
 4340 0241 50       		.byte	0x50
 4341 0242 02000000 		.4byte	.LVL89
 4342 0246 06000000 		.4byte	.LFE8
 4343 024a 0400     		.2byte	0x4
 4344 024c F3       		.byte	0xf3
 4345 024d 01       		.uleb128 0x1
 4346 024e 50       		.byte	0x50
 4347 024f 9F       		.byte	0x9f
 4348 0250 00000000 		.4byte	0
 4349 0254 00000000 		.4byte	0
 4350              	.LLST11:
 4351 0258 00000000 		.4byte	.LFB17
 4352 025c 02000000 		.4byte	.LCFI6
 4353 0260 0200     		.2byte	0x2
 4354 0262 7D       		.byte	0x7d
 4355 0263 00       		.sleb128 0
 4356 0264 02000000 		.4byte	.LCFI6
 4357 0268 AA000000 		.4byte	.LFE17
 4358 026c 0200     		.2byte	0x2
 4359 026e 7D       		.byte	0x7d
 4360 026f 08       		.sleb128 8
 4361 0270 00000000 		.4byte	0
ARM GAS  C:\cygwin\tmp\ccapmX2i.s 			page 78


 4362 0274 00000000 		.4byte	0
 4363              	.LLST12:
 4364 0278 0C000000 		.4byte	.LVL91
 4365 027c 16000000 		.4byte	.LVL92
 4366 0280 0100     		.2byte	0x1
 4367 0282 50       		.byte	0x50
 4368 0283 28000000 		.4byte	.LVL94
 4369 0287 32000000 		.4byte	.LVL95
 4370 028b 0100     		.2byte	0x1
 4371 028d 50       		.byte	0x50
 4372 028e 44000000 		.4byte	.LVL97
 4373 0292 4E000000 		.4byte	.LVL98
 4374 0296 0100     		.2byte	0x1
 4375 0298 50       		.byte	0x50
 4376 0299 00000000 		.4byte	0
 4377 029d 00000000 		.4byte	0
 4378              	.LLST13:
 4379 02a1 60000000 		.4byte	.LVL100
 4380 02a5 6A000000 		.4byte	.LVL101
 4381 02a9 0100     		.2byte	0x1
 4382 02ab 50       		.byte	0x50
 4383 02ac 7C000000 		.4byte	.LVL103
 4384 02b0 86000000 		.4byte	.LVL104
 4385 02b4 0100     		.2byte	0x1
 4386 02b6 50       		.byte	0x50
 4387 02b7 98000000 		.4byte	.LVL106
 4388 02bb A2000000 		.4byte	.LVL107
 4389 02bf 0100     		.2byte	0x1
 4390 02c1 50       		.byte	0x50
 4391 02c2 00000000 		.4byte	0
 4392 02c6 00000000 		.4byte	0
 4393              		.section	.debug_aranges,"",%progbits
 4394 0000 6C000000 		.4byte	0x6c
 4395 0004 0200     		.2byte	0x2
 4396 0006 00000000 		.4byte	.Ldebug_info0
 4397 000a 04       		.byte	0x4
 4398 000b 00       		.byte	0
 4399 000c 0000     		.2byte	0
 4400 000e 0000     		.2byte	0
 4401 0010 00000000 		.4byte	.LFB16
 4402 0014 08000000 		.4byte	.LFE16-.LFB16
 4403 0018 00000000 		.4byte	.LFB12
 4404 001c 08000000 		.4byte	.LFE12-.LFB12
 4405 0020 00000000 		.4byte	.LFB7
 4406 0024 08000000 		.4byte	.LFE7-.LFB7
 4407 0028 00000000 		.4byte	.LFB15
 4408 002c 54020000 		.4byte	.LFE15-.LFB15
 4409 0030 00000000 		.4byte	.LFB14
 4410 0034 28000000 		.4byte	.LFE14-.LFB14
 4411 0038 00000000 		.4byte	.LFB13
 4412 003c 16000000 		.4byte	.LFE13-.LFB13
 4413 0040 00000000 		.4byte	.LFB11
 4414 0044 88000000 		.4byte	.LFE11-.LFB11
 4415 0048 00000000 		.4byte	.LFB10
 4416 004c 06000000 		.4byte	.LFE10-.LFB10
 4417 0050 00000000 		.4byte	.LFB9
 4418 0054 06000000 		.4byte	.LFE9-.LFB9
ARM GAS  C:\cygwin\tmp\ccapmX2i.s 			page 79


 4419 0058 00000000 		.4byte	.LFB8
 4420 005c 06000000 		.4byte	.LFE8-.LFB8
 4421 0060 00000000 		.4byte	.LFB17
 4422 0064 AA000000 		.4byte	.LFE17-.LFB17
 4423 0068 00000000 		.4byte	0
 4424 006c 00000000 		.4byte	0
 4425              		.section	.debug_ranges,"",%progbits
 4426              	.Ldebug_ranges0:
 4427 0000 56000000 		.4byte	.LBB4
 4428 0004 A2000000 		.4byte	.LBE4
 4429 0008 A6000000 		.4byte	.LBB7
 4430 000c AA000000 		.4byte	.LBE7
 4431 0010 00000000 		.4byte	0
 4432 0014 00000000 		.4byte	0
 4433 0018 56000000 		.4byte	.LBB5
 4434 001c A2000000 		.4byte	.LBE5
 4435 0020 A6000000 		.4byte	.LBB6
 4436 0024 AA000000 		.4byte	.LBE6
 4437 0028 00000000 		.4byte	0
 4438 002c 00000000 		.4byte	0
 4439 0030 00000000 		.4byte	.LFB16
 4440 0034 08000000 		.4byte	.LFE16
 4441 0038 00000000 		.4byte	.LFB12
 4442 003c 08000000 		.4byte	.LFE12
 4443 0040 00000000 		.4byte	.LFB7
 4444 0044 08000000 		.4byte	.LFE7
 4445 0048 00000000 		.4byte	.LFB15
 4446 004c 54020000 		.4byte	.LFE15
 4447 0050 00000000 		.4byte	.LFB14
 4448 0054 28000000 		.4byte	.LFE14
 4449 0058 00000000 		.4byte	.LFB13
 4450 005c 16000000 		.4byte	.LFE13
 4451 0060 00000000 		.4byte	.LFB11
 4452 0064 88000000 		.4byte	.LFE11
 4453 0068 00000000 		.4byte	.LFB10
 4454 006c 06000000 		.4byte	.LFE10
 4455 0070 00000000 		.4byte	.LFB9
 4456 0074 06000000 		.4byte	.LFE9
 4457 0078 00000000 		.4byte	.LFB8
 4458 007c 06000000 		.4byte	.LFE8
 4459 0080 00000000 		.4byte	.LFB17
 4460 0084 AA000000 		.4byte	.LFE17
 4461 0088 00000000 		.4byte	0
 4462 008c 00000000 		.4byte	0
 4463              		.section	.debug_line,"",%progbits
 4464              	.Ldebug_line0:
 4465 0000 FD020000 		.section	.debug_str,"MS",%progbits,1
 4465      0200C901 
 4465      00000201 
 4465      FB0E0D00 
 4465      01010101 
 4466              	.LASF87:
 4467 0000 7466756E 		.ascii	"tfunc_t\000"
 4467      635F7400 
 4468              	.LASF94:
 4469 0008 65767432 		.ascii	"evt2_setup\000"
 4469      5F736574 
ARM GAS  C:\cygwin\tmp\ccapmX2i.s 			page 80


 4469      757000
 4470              	.LASF42:
 4471 0013 705F6D73 		.ascii	"p_msg\000"
 4471      6700
 4472              	.LASF2:
 4473 0019 73697A65 		.ascii	"size_t\000"
 4473      5F7400
 4474              	.LASF82:
 4475 0020 7264796D 		.ascii	"rdymsg\000"
 4475      736700
 4476              	.LASF12:
 4477 0027 75696E74 		.ascii	"uint64_t\000"
 4477      36345F74 
 4477      00
 4478              	.LASF102:
 4479 0030 76746C69 		.ascii	"vtlist\000"
 4479      737400
 4480              	.LASF121:
 4481 0037 63684576 		.ascii	"chEvtSignal\000"
 4481      74536967 
 4481      6E616C00 
 4482              	.LASF13:
 4483 0043 6C6F6E67 		.ascii	"long long unsigned int\000"
 4483      206C6F6E 
 4483      6720756E 
 4483      7369676E 
 4483      65642069 
 4484              	.LASF110:
 4485 005a 63684576 		.ascii	"chEvtAddEvents\000"
 4485      74416464 
 4485      4576656E 
 4485      747300
 4486              	.LASF83:
 4487 0069 65786974 		.ascii	"exitcode\000"
 4487      636F6465 
 4487      00
 4488              	.LASF126:
 4489 0072 63684576 		.ascii	"chEvtWaitAnyTimeout\000"
 4489      74576169 
 4489      74416E79 
 4489      54696D65 
 4489      6F757400 
 4490              	.LASF29:
 4491 0086 705F7072 		.ascii	"p_prio\000"
 4491      696F00
 4492              	.LASF96:
 4493 008d 65767432 		.ascii	"evt2_execute\000"
 4493      5F657865 
 4493      63757465 
 4493      00
 4494              	.LASF11:
 4495 009a 6C6F6E67 		.ascii	"long long int\000"
 4495      206C6F6E 
 4495      6720696E 
 4495      7400
 4496              	.LASF1:
 4497 00a8 7369676E 		.ascii	"signed char\000"
ARM GAS  C:\cygwin\tmp\ccapmX2i.s 			page 81


 4497      65642063 
 4497      68617200 
 4498              	.LASF127:
 4499 00b4 63684576 		.ascii	"chEvtWaitAllTimeout\000"
 4499      74576169 
 4499      74416C6C 
 4499      54696D65 
 4499      6F757400 
 4500              	.LASF46:
 4501 00c8 705F6D70 		.ascii	"p_mpool\000"
 4501      6F6F6C00 
 4502              	.LASF14:
 4503 00d0 626F6F6C 		.ascii	"bool_t\000"
 4503      5F7400
 4504              	.LASF71:
 4505 00d7 6D5F7175 		.ascii	"m_queue\000"
 4505      65756500 
 4506              	.LASF124:
 4507 00df 74657374 		.ascii	"test_emit_token\000"
 4507      5F656D69 
 4507      745F746F 
 4507      6B656E00 
 4508              	.LASF19:
 4509 00ef 74736C69 		.ascii	"tslices_t\000"
 4509      6365735F 
 4509      7400
 4510              	.LASF8:
 4511 00f9 6C6F6E67 		.ascii	"long int\000"
 4511      20696E74 
 4511      00
 4512              	.LASF97:
 4513 0102 74617267 		.ascii	"target_time\000"
 4513      65745F74 
 4513      696D6500 
 4514              	.LASF17:
 4515 010e 74737461 		.ascii	"tstate_t\000"
 4515      74655F74 
 4515      00
 4516              	.LASF114:
 4517 0117 5F746573 		.ascii	"_test_assert_time_window\000"
 4517      745F6173 
 4517      73657274 
 4517      5F74696D 
 4517      655F7769 
 4518              	.LASF106:
 4519 0130 74657374 		.ascii	"testevt2\000"
 4519      65767432 
 4519      00
 4520              	.LASF115:
 4521 0139 63684576 		.ascii	"chEvtWaitAny\000"
 4521      74576169 
 4521      74416E79 
 4521      00
 4522              	.LASF107:
 4523 0146 74657374 		.ascii	"testevt3\000"
 4523      65767433 
 4523      00
ARM GAS  C:\cygwin\tmp\ccapmX2i.s 			page 82


 4524              	.LASF31:
 4525 014f 705F6E65 		.ascii	"p_newer\000"
 4525      77657200 
 4526              	.LASF66:
 4527 0157 725F6E65 		.ascii	"r_newer\000"
 4527      77657200 
 4528              	.LASF49:
 4529 015f 72656761 		.ascii	"regarm_t\000"
 4529      726D5F74 
 4529      00
 4530              	.LASF57:
 4531 0168 76745F70 		.ascii	"vt_prev\000"
 4531      72657600 
 4532              	.LASF119:
 4533 0170 63684576 		.ascii	"chEvtBroadcastFlags\000"
 4533      7442726F 
 4533      61646361 
 4533      7374466C 
 4533      61677300 
 4534              	.LASF22:
 4535 0184 6576656E 		.ascii	"eventid_t\000"
 4535      7469645F 
 4535      7400
 4536              	.LASF79:
 4537 018e 4576656E 		.ascii	"EventSource\000"
 4537      74536F75 
 4537      72636500 
 4538              	.LASF81:
 4539 019a 65766861 		.ascii	"evhandler_t\000"
 4539      6E646C65 
 4539      725F7400 
 4540              	.LASF34:
 4541 01a6 705F7374 		.ascii	"p_stklimit\000"
 4541      6B6C696D 
 4541      697400
 4542              	.LASF0:
 4543 01b1 756E7369 		.ascii	"unsigned int\000"
 4543      676E6564 
 4543      20696E74 
 4543      00
 4544              	.LASF56:
 4545 01be 76745F6E 		.ascii	"vt_next\000"
 4545      65787400 
 4546              	.LASF10:
 4547 01c6 6C6F6E67 		.ascii	"long unsigned int\000"
 4547      20756E73 
 4547      69676E65 
 4547      6420696E 
 4547      7400
 4548              	.LASF109:
 4549 01d8 63684576 		.ascii	"chEvtGetAndClearEvents\000"
 4549      74476574 
 4549      416E6443 
 4549      6C656172 
 4549      4576656E 
 4550              	.LASF91:
 4551 01ef 74656172 		.ascii	"teardown\000"
ARM GAS  C:\cygwin\tmp\ccapmX2i.s 			page 83


 4551      646F776E 
 4551      00
 4552              	.LASF108:
 4553 01f8 70617474 		.ascii	"patternevt\000"
 4553      65726E65 
 4553      767400
 4554              	.LASF89:
 4555 0203 6E616D65 		.ascii	"name\000"
 4555      00
 4556              	.LASF52:
 4557 0208 636F6E74 		.ascii	"context\000"
 4557      65787400 
 4558              	.LASF6:
 4559 0210 73686F72 		.ascii	"short unsigned int\000"
 4559      7420756E 
 4559      7369676E 
 4559      65642069 
 4559      6E7400
 4560              	.LASF117:
 4561 0223 63684576 		.ascii	"chEvtRegisterMask\000"
 4561      74526567 
 4561      69737465 
 4561      724D6173 
 4561      6B00
 4562              	.LASF21:
 4563 0235 6D73675F 		.ascii	"msg_t\000"
 4563      7400
 4564              	.LASF75:
 4565 023b 656C5F6E 		.ascii	"el_next\000"
 4565      65787400 
 4566              	.LASF118:
 4567 0243 63684576 		.ascii	"chEvtUnregister\000"
 4567      74556E72 
 4567      65676973 
 4567      74657200 
 4568              	.LASF16:
 4569 0253 746D6F64 		.ascii	"tmode_t\000"
 4569      655F7400 
 4570              	.LASF48:
 4571 025b 54687265 		.ascii	"ThreadsList\000"
 4571      6164734C 
 4571      69737400 
 4572              	.LASF23:
 4573 0267 6576656E 		.ascii	"eventmask_t\000"
 4573      746D6173 
 4573      6B5F7400 
 4574              	.LASF70:
 4575 0273 4D757465 		.ascii	"Mutex\000"
 4575      7800
 4576              	.LASF50:
 4577 0279 73746B61 		.ascii	"stkalign_t\000"
 4577      6C69676E 
 4577      5F7400
 4578              	.LASF113:
 4579 0284 63685468 		.ascii	"chThdCreateStatic\000"
 4579      64437265 
 4579      61746553 
ARM GAS  C:\cygwin\tmp\ccapmX2i.s 			page 84


 4579      74617469 
 4579      6300
 4580              	.LASF58:
 4581 0296 76745F74 		.ascii	"vt_time\000"
 4581      696D6500 
 4582              	.LASF95:
 4583 029e 65767431 		.ascii	"evt1_setup\000"
 4583      5F736574 
 4583      757000
 4584              	.LASF53:
 4585 02a9 73697A65 		.ascii	"sizetype\000"
 4585      74797065 
 4585      00
 4586              	.LASF59:
 4587 02b2 76745F66 		.ascii	"vt_func\000"
 4587      756E6300 
 4588              	.LASF122:
 4589 02ba 63684576 		.ascii	"chEvtDispatch\000"
 4589      74446973 
 4589      70617463 
 4589      6800
 4590              	.LASF93:
 4591 02c8 65767433 		.ascii	"evt3_setup\000"
 4591      5F736574 
 4591      757000
 4592              	.LASF133:
 4593 02d3 74657374 		.ascii	"test_wait_threads\000"
 4593      5F776169 
 4593      745F7468 
 4593      72656164 
 4593      7300
 4594              	.LASF32:
 4595 02e5 705F6F6C 		.ascii	"p_older\000"
 4595      64657200 
 4596              	.LASF99:
 4597 02ed 74687265 		.ascii	"thread1\000"
 4597      61643100 
 4598              	.LASF98:
 4599 02f5 74687265 		.ascii	"thread2\000"
 4599      61643200 
 4600              	.LASF65:
 4601 02fd 725F6374 		.ascii	"r_ctx\000"
 4601      7800
 4602              	.LASF47:
 4603 0303 54687265 		.ascii	"ThreadsQueue\000"
 4603      61647351 
 4603      75657565 
 4603      00
 4604              	.LASF90:
 4605 0310 73657475 		.ascii	"setup\000"
 4605      7000
 4606              	.LASF123:
 4607 0316 5F746573 		.ascii	"_test_assert_sequence\000"
 4607      745F6173 
 4607      73657274 
 4607      5F736571 
 4607      75656E63 
ARM GAS  C:\cygwin\tmp\ccapmX2i.s 			page 85


 4608              	.LASF128:
 4609 032c 474E5520 		.ascii	"GNU C 4.7.2\000"
 4609      4320342E 
 4609      372E3200 
 4610              	.LASF68:
 4611 0338 725F6375 		.ascii	"r_current\000"
 4611      7272656E 
 4611      7400
 4612              	.LASF67:
 4613 0342 725F6F6C 		.ascii	"r_older\000"
 4613      64657200 
 4614              	.LASF77:
 4615 034a 656C5F6D 		.ascii	"el_mask\000"
 4615      61736B00 
 4616              	.LASF18:
 4617 0352 74726566 		.ascii	"trefs_t\000"
 4617      735F7400 
 4618              	.LASF28:
 4619 035a 705F7072 		.ascii	"p_prev\000"
 4619      657600
 4620              	.LASF92:
 4621 0361 65786563 		.ascii	"execute\000"
 4621      75746500 
 4622              	.LASF20:
 4623 0369 74707269 		.ascii	"tprio_t\000"
 4623      6F5F7400 
 4624              	.LASF15:
 4625 0371 5F426F6F 		.ascii	"_Bool\000"
 4625      6C00
 4626              	.LASF7:
 4627 0377 696E7433 		.ascii	"int32_t\000"
 4627      325F7400 
 4628              	.LASF4:
 4629 037f 756E7369 		.ascii	"unsigned char\000"
 4629      676E6564 
 4629      20636861 
 4629      7200
 4630              	.LASF111:
 4631 038d 63684576 		.ascii	"chEvtWaitOne\000"
 4631      74576169 
 4631      744F6E65 
 4631      00
 4632              	.LASF76:
 4633 039a 656C5F6C 		.ascii	"el_listener\000"
 4633      69737465 
 4633      6E657200 
 4634              	.LASF131:
 4635 03a6 65767433 		.ascii	"evt3_execute\000"
 4635      5F657865 
 4635      63757465 
 4635      00
 4636              	.LASF78:
 4637 03b3 656C5F66 		.ascii	"el_flags\000"
 4637      6C616773 
 4637      00
 4638              	.LASF44:
 4639 03bc 705F6D74 		.ascii	"p_mtxlist\000"
ARM GAS  C:\cygwin\tmp\ccapmX2i.s 			page 86


 4639      786C6973 
 4639      7400
 4640              	.LASF5:
 4641 03c6 73686F72 		.ascii	"short int\000"
 4641      7420696E 
 4641      7400
 4642              	.LASF35:
 4643 03d0 705F7374 		.ascii	"p_state\000"
 4643      61746500 
 4644              	.LASF38:
 4645 03d8 705F7072 		.ascii	"p_preempt\000"
 4645      65656D70 
 4645      7400
 4646              	.LASF104:
 4647 03e2 74687265 		.ascii	"threads\000"
 4647      61647300 
 4648              	.LASF64:
 4649 03ea 725F7072 		.ascii	"r_prio\000"
 4649      696F00
 4650              	.LASF85:
 4651 03f1 65776D61 		.ascii	"ewmask\000"
 4651      736B00
 4652              	.LASF27:
 4653 03f8 705F6E65 		.ascii	"p_next\000"
 4653      787400
 4654              	.LASF36:
 4655 03ff 705F666C 		.ascii	"p_flags\000"
 4655      61677300 
 4656              	.LASF26:
 4657 0407 54687265 		.ascii	"Thread\000"
 4657      616400
 4658              	.LASF88:
 4659 040e 74657374 		.ascii	"testcase\000"
 4659      63617365 
 4659      00
 4660              	.LASF43:
 4661 0417 705F6570 		.ascii	"p_epending\000"
 4661      656E6469 
 4661      6E6700
 4662              	.LASF105:
 4663 0422 74657374 		.ascii	"testevt1\000"
 4663      65767431 
 4663      00
 4664              	.LASF101:
 4665 042b 6576686E 		.ascii	"evhndl\000"
 4665      646C00
 4666              	.LASF9:
 4667 0432 75696E74 		.ascii	"uint32_t\000"
 4667      33325F74 
 4667      00
 4668              	.LASF63:
 4669 043b 725F7175 		.ascii	"r_queue\000"
 4669      65756500 
 4670              	.LASF55:
 4671 0443 56697274 		.ascii	"VirtualTimer\000"
 4671      75616C54 
 4671      696D6572 
ARM GAS  C:\cygwin\tmp\ccapmX2i.s 			page 87


 4671      00
 4672              	.LASF86:
 4673 0450 63686172 		.ascii	"char\000"
 4673      00
 4674              	.LASF130:
 4675 0455 433A5C55 		.ascii	"C:\\Users\\TaisikHam\\Documents\\GitHub\\testgit\\m"
 4675      73657273 
 4675      5C546169 
 4675      73696B48 
 4675      616D5C44 
 4676 0482 61626C5C 		.ascii	"abl\\ChibiOS\\testhal\\STM32F30x\\TS_SPI\000"
 4676      43686962 
 4676      694F535C 
 4676      74657374 
 4676      68616C5C 
 4677              	.LASF73:
 4678 04a7 6D5F6E65 		.ascii	"m_next\000"
 4678      787400
 4679              	.LASF25:
 4680 04ae 73797374 		.ascii	"systime_t\000"
 4680      696D655F 
 4680      7400
 4681              	.LASF45:
 4682 04b8 705F7265 		.ascii	"p_realprio\000"
 4682      616C7072 
 4682      696F00
 4683              	.LASF54:
 4684 04c3 76746675 		.ascii	"vtfunc_t\000"
 4684      6E635F74 
 4684      00
 4685              	.LASF39:
 4686 04cc 705F7469 		.ascii	"p_time\000"
 4686      6D6500
 4687              	.LASF51:
 4688 04d3 696E7463 		.ascii	"intctx\000"
 4688      747800
 4689              	.LASF41:
 4690 04da 705F6D73 		.ascii	"p_msgqueue\000"
 4690      67717565 
 4690      756500
 4691              	.LASF116:
 4692 04e5 63684576 		.ascii	"chEvtWaitAll\000"
 4692      74576169 
 4692      74416C6C 
 4692      00
 4693              	.LASF60:
 4694 04f2 76745F70 		.ascii	"vt_par\000"
 4694      617200
 4695              	.LASF24:
 4696 04f9 666C6167 		.ascii	"flagsmask_t\000"
 4696      736D6173 
 4696      6B5F7400 
 4697              	.LASF120:
 4698 0505 63685468 		.ascii	"chThdSleep\000"
 4698      64536C65 
 4698      657000
 4699              	.LASF129:
ARM GAS  C:\cygwin\tmp\ccapmX2i.s 			page 88


 4700 0510 2E2E2F2E 		.ascii	"../../../test/testevt.c\000"
 4700      2E2F2E2E 
 4700      2F746573 
 4700      742F7465 
 4700      73746576 
 4701              	.LASF37:
 4702 0528 705F7265 		.ascii	"p_refs\000"
 4702      667300
 4703              	.LASF69:
 4704 052f 52656164 		.ascii	"ReadyList\000"
 4704      794C6973 
 4704      7400
 4705              	.LASF103:
 4706 0539 726C6973 		.ascii	"rlist\000"
 4706      7400
 4707              	.LASF3:
 4708 053f 75696E74 		.ascii	"uint8_t\000"
 4708      385F7400 
 4709              	.LASF74:
 4710 0547 4576656E 		.ascii	"EventListener\000"
 4710      744C6973 
 4710      74656E65 
 4710      7200
 4711              	.LASF125:
 4712 0555 63684576 		.ascii	"chEvtWaitOneTimeout\000"
 4712      74576169 
 4712      744F6E65 
 4712      54696D65 
 4712      6F757400 
 4713              	.LASF84:
 4714 0569 77746F62 		.ascii	"wtobjp\000"
 4714      6A7000
 4715              	.LASF33:
 4716 0570 705F6E61 		.ascii	"p_name\000"
 4716      6D6500
 4717              	.LASF112:
 4718 0577 5F746573 		.ascii	"_test_assert\000"
 4718      745F6173 
 4718      73657274 
 4718      00
 4719              	.LASF61:
 4720 0584 76745F73 		.ascii	"vt_systime\000"
 4720      79737469 
 4720      6D6500
 4721              	.LASF80:
 4722 058f 65735F6E 		.ascii	"es_next\000"
 4722      65787400 
 4723              	.LASF62:
 4724 0597 56544C69 		.ascii	"VTList\000"
 4724      737400
 4725              	.LASF72:
 4726 059e 6D5F6F77 		.ascii	"m_owner\000"
 4726      6E657200 
 4727              	.LASF132:
 4728 05a6 74657374 		.ascii	"test_wait_tick\000"
 4728      5F776169 
 4728      745F7469 
ARM GAS  C:\cygwin\tmp\ccapmX2i.s 			page 89


 4728      636B00
 4729              	.LASF100:
 4730 05b5 65767431 		.ascii	"evt1_execute\000"
 4730      5F657865 
 4730      63757465 
 4730      00
 4731              	.LASF30:
 4732 05c2 705F6374 		.ascii	"p_ctx\000"
 4732      7800
 4733              	.LASF40:
 4734 05c8 705F7761 		.ascii	"p_waiting\000"
 4734      6974696E 
 4734      6700
 4735              		.ident	"GCC: (GNU) 4.7.2"
ARM GAS  C:\cygwin\tmp\ccapmX2i.s 			page 90


DEFINED SYMBOLS
                            *ABS*:00000000 testevt.c
C:\cygwin\tmp\ccapmX2i.s:19     .text.evt3_setup:00000000 $t
C:\cygwin\tmp\ccapmX2i.s:24     .text.evt3_setup:00000000 evt3_setup
C:\cygwin\tmp\ccapmX2i.s:42     .text.evt2_setup:00000000 $t
C:\cygwin\tmp\ccapmX2i.s:47     .text.evt2_setup:00000000 evt2_setup
C:\cygwin\tmp\ccapmX2i.s:64     .text.evt1_setup:00000000 $t
C:\cygwin\tmp\ccapmX2i.s:69     .text.evt1_setup:00000000 evt1_setup
C:\cygwin\tmp\ccapmX2i.s:86     .text.evt2_execute:00000000 $t
C:\cygwin\tmp\ccapmX2i.s:91     .text.evt2_execute:00000000 evt2_execute
C:\cygwin\tmp\ccapmX2i.s:430    .text.evt2_execute:00000230 $d
C:\cygwin\tmp\ccapmX2i.s:491    .text.thread1:00000000 thread1
C:\cygwin\tmp\ccapmX2i.s:448    .text.thread2:00000000 thread2
C:\cygwin\tmp\ccapmX2i.s:443    .text.thread2:00000000 $t
C:\cygwin\tmp\ccapmX2i.s:876    .data.es1:00000000 .LANCHOR0
C:\cygwin\tmp\ccapmX2i.s:883    .data.es2:00000000 .LANCHOR1
C:\cygwin\tmp\ccapmX2i.s:486    .text.thread1:00000000 $t
C:\cygwin\tmp\ccapmX2i.s:522    .text.evt1_execute:00000000 $t
C:\cygwin\tmp\ccapmX2i.s:527    .text.evt1_execute:00000000 evt1_execute
C:\cygwin\tmp\ccapmX2i.s:617    .text.evt1_execute:0000007c $d
C:\cygwin\tmp\ccapmX2i.s:624    .text.h3:00000000 $t
C:\cygwin\tmp\ccapmX2i.s:629    .text.h3:00000000 h3
C:\cygwin\tmp\ccapmX2i.s:646    .text.h2:00000000 $t
C:\cygwin\tmp\ccapmX2i.s:651    .text.h2:00000000 h2
C:\cygwin\tmp\ccapmX2i.s:668    .text.h1:00000000 $t
C:\cygwin\tmp\ccapmX2i.s:673    .text.h1:00000000 h1
C:\cygwin\tmp\ccapmX2i.s:690    .text.evt3_execute:00000000 $t
C:\cygwin\tmp\ccapmX2i.s:695    .text.evt3_execute:00000000 evt3_execute
C:\cygwin\tmp\ccapmX2i.s:818    .rodata.patternevt:00000000 patternevt
C:\cygwin\tmp\ccapmX2i.s:869    .rodata.testevt3:00000000 testevt3
C:\cygwin\tmp\ccapmX2i.s:827    .rodata.testevt2:00000000 testevt2
C:\cygwin\tmp\ccapmX2i.s:851    .rodata.testevt1:00000000 testevt1
C:\cygwin\tmp\ccapmX2i.s:815    .rodata.patternevt:00000000 $d
C:\cygwin\tmp\ccapmX2i.s:824    .rodata.testevt2:00000000 $d
C:\cygwin\tmp\ccapmX2i.s:833    .rodata.str1.4:00000000 $d
C:\cygwin\tmp\ccapmX2i.s:848    .rodata.testevt1:00000000 $d
C:\cygwin\tmp\ccapmX2i.s:857    .rodata.evhndl:00000000 $d
C:\cygwin\tmp\ccapmX2i.s:861    .rodata.evhndl:00000000 evhndl
C:\cygwin\tmp\ccapmX2i.s:866    .rodata.testevt3:00000000 $d
C:\cygwin\tmp\ccapmX2i.s:875    .data.es1:00000000 $d
C:\cygwin\tmp\ccapmX2i.s:879    .data.es1:00000000 es1
C:\cygwin\tmp\ccapmX2i.s:882    .data.es2:00000000 $d
C:\cygwin\tmp\ccapmX2i.s:886    .data.es2:00000000 es2
                     .debug_frame:00000010 $d
C:\cygwin\tmp\ccapmX2i.s:442    .text.evt2_execute:00000254 $t
C:\cygwin\tmp\ccapmX2i.s:623    .text.evt1_execute:00000088 $t

UNDEFINED SYMBOLS
chEvtGetAndClearEvents
chEvtAddEvents
chEvtWaitOne
_test_assert
test_wait_tick
chThdCreateStatic
_test_assert_time_window
test_wait_threads
chEvtWaitAny
ARM GAS  C:\cygwin\tmp\ccapmX2i.s 			page 91


chEvtRegisterMask
chEvtWaitAll
chEvtUnregister
rlist
vtlist
threads
wa
chEvtBroadcastFlags
chThdSleep
chEvtSignal
chEvtDispatch
_test_assert_sequence
test_emit_token
chEvtWaitOneTimeout
chEvtWaitAnyTimeout
chEvtWaitAllTimeout
