GAS LISTING C:\cygwin\tmp\ccs5iBND.s 			page 1


   1              		.file	"test.c"
   2              	 # GNU C (GCC) version 4.6.2 (mingw32)
   3              	 #	compiled by GNU C version 4.6.2, GMP version 5.0.1, MPFR version 2.4.1, MPC version 0.8.1
   4              	 # GGC heuristics: --param ggc-min-expand=100 --param ggc-min-heapsize=131072
   5              	 # options passed:  -I . -I ../../os/ports/GCC/SIMIA32
   6              	 # -I ../../os/kernel/include -I ../../test -I ../../os/hal/include
   7              	 # -I ../../os/hal/platforms/Win32 -I ../../boards/simulator
   8              	 # -I ../../os/various -iprefix c:\mingw\bin\../lib/gcc/mingw32/4.6.2/
   9              	 # -MD ../../test/test.d -MF .dep/test.o.d -MP -MQ ../../test/test.o
  10              	 # -D SIMULATOR ../../test/test.c -mtune=i386 -march=i386
  11              	 # -auxbase-strip ../../test/test.o -ggdb -O0 -Wall -Wextra
  12              	 # -Wstrict-prototypes -fomit-frame-pointer -fprofile-arcs -ftest-coverage
  13              	 # -fverbose-asm
  14              	 # options enabled:  -fasynchronous-unwind-tables -fauto-inc-dec
  15              	 # -fbranch-count-reg -fcommon -fdelete-null-pointer-checks
  16              	 # -fdwarf2-cfi-asm -fearly-inlining -feliminate-unused-debug-types
  17              	 # -ffunction-cse -fgcse-lm -fident -finline-functions-called-once
  18              	 # -fira-share-save-slots -fira-share-spill-slots -fivopts
  19              	 # -fkeep-inline-dllexport -fkeep-static-consts -fleading-underscore
  20              	 # -fmath-errno -fmerge-debug-strings -fmove-loop-invariants
  21              	 # -fomit-frame-pointer -fpeephole -fprefetch-loop-arrays -fprofile-arcs
  22              	 # -freg-struct-return -fsched-critical-path-heuristic
  23              	 # -fsched-dep-count-heuristic -fsched-group-heuristic -fsched-interblock
  24              	 # -fsched-last-insn-heuristic -fsched-rank-heuristic -fsched-spec
  25              	 # -fsched-spec-insn-heuristic -fsched-stalled-insns-dep
  26              	 # -fset-stack-executable -fshow-column -fsigned-zeros
  27              	 # -fsplit-ivs-in-unroller -fstrict-volatile-bitfields -ftest-coverage
  28              	 # -ftrapping-math -ftree-cselim -ftree-forwprop -ftree-loop-if-convert
  29              	 # -ftree-loop-im -ftree-loop-ivcanon -ftree-loop-optimize
  30              	 # -ftree-parallelize-loops= -ftree-phiprop -ftree-pta -ftree-reassoc
  31              	 # -ftree-scev-cprop -ftree-slp-vectorize -ftree-vect-loop-version
  32              	 # -funit-at-a-time -funwind-tables -fvect-cost-model -fverbose-asm
  33              	 # -fzero-initialized-in-bss -m32 -m80387 -m96bit-long-double
  34              	 # -maccumulate-outgoing-args -malign-double -malign-stringops
  35              	 # -mfancy-math-387 -mfp-ret-in-387 -mieee-fp -mno-red-zone -mno-sse4
  36              	 # -mpush-args -msahf -mstack-arg-probe
  37              	
  38              		.text
  39              	Ltext0:
  40              	 # Compiler executable checksum: c20aed7c018482d7b62efcd5dcab2a9d
  41              	
  42              		.data
  43              		.align 32
  44              	_patterns:
  45 0000 00000000 		.long	_patternthd
  46 0004 00000000 		.long	_patternsem
  47 0008 00000000 		.long	_patternmtx
  48 000c 00000000 		.long	_patternmsg
  49 0010 00000000 		.long	_patternmbox
  50 0014 00000000 		.long	_patternevt
  51 0018 00000000 		.long	_patternheap
  52 001c 00000000 		.long	_patternpools
  53 0020 00000000 		.long	_patterndyn
  54 0024 00000000 		.long	_patternqueues
  55 0028 00000000 		.long	_patternbmk
  56 002c 00000000 		.long	0
  57              	.lcomm _local_fail,1,1
GAS LISTING C:\cygwin\tmp\ccs5iBND.s 			page 2


  58              	.lcomm _global_fail,1,1
  59              	.lcomm _failpoint,4,4
  60              	.lcomm _tokens_buffer,16,1
  61              	.lcomm _tokp,4,4
  62              		.comm	_test, 85040, 5
  63              		.comm	_threads, 20, 2
  64              		.globl	_wa
  65              		.section .rdata,"dr"
  66              		.align 4
  67              	_wa:
  68 0000 00000000 		.long	_test
  69 0004 70420000 		.long	_test+17008
  70 0008 E0840000 		.long	_test+34016
  71 000c 50C70000 		.long	_test+51024
  72 0010 C0090100 		.long	_test+68032
  73              	.lcomm _chp,4,4
  74              		.text
  75              		.globl	_test_printn
  76              		.def	_test_printn;	.scl	2;	.type	32;	.endef
  77              	_test_printn:
  78              	LFB9:
  79              		.file 1 "../../test/test.c"
  80              		.loc 1 95 0
  81              		.cfi_startproc
  82 0000 83EC4C   		subl	$76, %esp	 #,
  83              	LCFI0:
  84              		.cfi_def_cfa_offset 80
  85              		.loc 1 98 0
  86 0003 837C2450 		cmpl	$0, 80(%esp)	 #, n
  86      00
  87 0008 7559     		jne	L2	 #,
  88 000a A1980300 		movl	LPBX1+856, %eax	 # *LPBX1, PROF_edge_counter.46
  88      00
  89 000f 8B159C03 		movl	LPBX1+860, %edx	 # *LPBX1, PROF_edge_counter.46
  89      0000
  90 0015 83C001   		addl	$1, %eax	 #, PROF_edge_counter.46
  91 0018 83D200   		adcl	$0, %edx	 #, PROF_edge_counter.46
  92 001b A3980300 		movl	%eax, LPBX1+856	 # PROF_edge_counter.46, *LPBX1
  92      00
  93 0020 89159C03 		movl	%edx, LPBX1+860	 # PROF_edge_counter.46, *LPBX1
  93      0000
  94              		.loc 1 99 0
  95 0026 A11C0000 		movl	_chp, %eax	 # chp, chp.24
  95      00
  96 002b 8B00     		movl	(%eax), %eax	 # chp.24_5->vmt, D.36925
  97 002d 8B5008   		movl	8(%eax), %edx	 # D.36925_6->put, D.36926
  98 0030 A11C0000 		movl	_chp, %eax	 # chp, chp.25
  98      00
  99 0035 C7442404 		movl	$48, 4(%esp)	 #,
  99      30000000 
 100 003d 890424   		movl	%eax, (%esp)	 # chp.25,
 101 0040 FFD2     		call	*%edx	 # D.36926
 102 0042 A1A00300 		movl	LPBX1+864, %eax	 # *LPBX1, PROF_edge_counter.46
 102      00
 103 0047 8B15A403 		movl	LPBX1+868, %edx	 # *LPBX1, PROF_edge_counter.46
 103      0000
 104 004d 83C001   		addl	$1, %eax	 #, PROF_edge_counter.46
GAS LISTING C:\cygwin\tmp\ccs5iBND.s 			page 3


 105 0050 83D200   		adcl	$0, %edx	 #, PROF_edge_counter.46
 106 0053 A3A00300 		movl	%eax, LPBX1+864	 # PROF_edge_counter.46, *LPBX1
 106      00
 107 0058 8915A403 		movl	%edx, LPBX1+868	 # PROF_edge_counter.46, *LPBX1
 107      0000
 108 005e E9EF0000 		jmp	L1	 #
 108      00
 109              	L2:
 110              		.loc 1 101 0
 111 0063 8D44242C 		leal	44(%esp), %eax	 #, tmp86
 112 0067 8944243C 		movl	%eax, 60(%esp)	 # tmp86, p
 113              		.loc 1 102 0
 114 006b EB59     		jmp	L4	 #
 115              	L5:
 116 006d A1A80300 		movl	LPBX1+872, %eax	 # *LPBX1, PROF_edge_counter.46
 116      00
 117 0072 8B15AC03 		movl	LPBX1+876, %edx	 # *LPBX1, PROF_edge_counter.46
 117      0000
 118 0078 83C001   		addl	$1, %eax	 #, PROF_edge_counter.46
 119 007b 83D200   		adcl	$0, %edx	 #, PROF_edge_counter.46
 120 007e A3A80300 		movl	%eax, LPBX1+872	 # PROF_edge_counter.46, *LPBX1
 120      00
 121 0083 8915AC03 		movl	%edx, LPBX1+876	 # PROF_edge_counter.46, *LPBX1
 121      0000
 122              		.loc 1 103 0
 123 0089 8B442450 		movl	80(%esp), %eax	 # n, tmp87
 124 008d B90A0000 		movl	$10, %ecx	 #, tmp90
 124      00
 125 0092 BA000000 		movl	$0, %edx	 #, tmp88
 125      00
 126 0097 F7F1     		divl	%ecx	 # tmp90
 127 0099 89D0     		movl	%edx, %eax	 # tmp88, D.36929
 128 009b 83C030   		addl	$48, %eax	 #, D.36931
 129 009e 88C2     		movb	%al, %dl	 # D.36931, D.36932
 130 00a0 8B44243C 		movl	60(%esp), %eax	 # p, tmp91
 131 00a4 8810     		movb	%dl, (%eax)	 # D.36932, *p_2
 132 00a6 FF44243C 		incl	60(%esp)	 # p
 133 00aa 8B442450 		movl	80(%esp), %eax	 # n,
 134 00ae 8944241C 		movl	%eax, 28(%esp)	 #, %sfp
 135 00b2 BACDCCCC 		movl	$-858993459, %edx	 #, tmp95
 135      CC
 136 00b7 8B44241C 		movl	28(%esp), %eax	 # %sfp,
 137 00bb F7E2     		mull	%edx	 # tmp95
 138 00bd 89D0     		movl	%edx, %eax	 # tmp94, tmp92
 139 00bf C1E803   		shrl	$3, %eax	 #, tmp92
 140 00c2 89442450 		movl	%eax, 80(%esp)	 # tmp92, n
 141              	L4:
 142              		.loc 1 102 0 discriminator 1
 143 00c6 837C2450 		cmpl	$0, 80(%esp)	 #, n
 143      00
 144 00cb 75A0     		jne	L5	 #,
 145              		.loc 1 102 0 is_stmt 0
 146 00cd A1B00300 		movl	LPBX1+880, %eax	 # *LPBX1, PROF_edge_counter.46
 146      00
 147 00d2 8B15B403 		movl	LPBX1+884, %edx	 # *LPBX1, PROF_edge_counter.46
 147      0000
 148 00d8 83C001   		addl	$1, %eax	 #, PROF_edge_counter.46
GAS LISTING C:\cygwin\tmp\ccs5iBND.s 			page 4


 149 00db 83D200   		adcl	$0, %edx	 #, PROF_edge_counter.46
 150 00de A3B00300 		movl	%eax, LPBX1+880	 # PROF_edge_counter.46, *LPBX1
 150      00
 151 00e3 8915B403 		movl	%edx, LPBX1+884	 # PROF_edge_counter.46, *LPBX1
 151      0000
 152              		.loc 1 104 0 is_stmt 1
 153 00e9 EB41     		jmp	L6	 #
 154              	L7:
 155 00eb A1B80300 		movl	LPBX1+888, %eax	 # *LPBX1, PROF_edge_counter.46
 155      00
 156 00f0 8B15BC03 		movl	LPBX1+892, %edx	 # *LPBX1, PROF_edge_counter.46
 156      0000
 157 00f6 83C001   		addl	$1, %eax	 #, PROF_edge_counter.46
 158 00f9 83D200   		adcl	$0, %edx	 #, PROF_edge_counter.46
 159 00fc A3B80300 		movl	%eax, LPBX1+888	 # PROF_edge_counter.46, *LPBX1
 159      00
 160 0101 8915BC03 		movl	%edx, LPBX1+892	 # PROF_edge_counter.46, *LPBX1
 160      0000
 161              		.loc 1 105 0
 162 0107 A11C0000 		movl	_chp, %eax	 # chp, chp.26
 162      00
 163 010c 8B00     		movl	(%eax), %eax	 # chp.26_16->vmt, D.36934
 164 010e 8B4808   		movl	8(%eax), %ecx	 # D.36934_17->put, D.36935
 165 0111 FF4C243C 		decl	60(%esp)	 # p
 166 0115 8B44243C 		movl	60(%esp), %eax	 # p, tmp96
 167 0119 8A00     		movb	(%eax), %al	 # *p_19, D.36936
 168 011b 0FB6D0   		movzbl	%al, %edx	 # D.36937, D.36938
 169 011e A11C0000 		movl	_chp, %eax	 # chp, chp.27
 169      00
 170 0123 89542404 		movl	%edx, 4(%esp)	 # D.36938,
 171 0127 890424   		movl	%eax, (%esp)	 # chp.27,
 172 012a FFD1     		call	*%ecx	 # D.36935
 173              	L6:
 174              		.loc 1 104 0 discriminator 1
 175 012c 8D44242C 		leal	44(%esp), %eax	 #, tmp97
 176 0130 3944243C 		cmpl	%eax, 60(%esp)	 # tmp97, p
 177 0134 77B5     		ja	L7	 #,
 178              		.loc 1 104 0 is_stmt 0
 179 0136 A1C00300 		movl	LPBX1+896, %eax	 # *LPBX1, PROF_edge_counter.46
 179      00
 180 013b 8B15C403 		movl	LPBX1+900, %edx	 # *LPBX1, PROF_edge_counter.46
 180      0000
 181 0141 83C001   		addl	$1, %eax	 #, PROF_edge_counter.46
 182 0144 83D200   		adcl	$0, %edx	 #, PROF_edge_counter.46
 183 0147 A3C00300 		movl	%eax, LPBX1+896	 # PROF_edge_counter.46, *LPBX1
 183      00
 184 014c 8915C403 		movl	%edx, LPBX1+900	 # PROF_edge_counter.46, *LPBX1
 184      0000
 185              	L1:
 186              		.loc 1 107 0 is_stmt 1
 187 0152 83C44C   		addl	$76, %esp	 #,
 188              	LCFI1:
 189              		.cfi_def_cfa_offset 4
 190 0155 C3       		ret
 191              		.cfi_endproc
 192              	LFE9:
 193              		.globl	_test_print
GAS LISTING C:\cygwin\tmp\ccs5iBND.s 			page 5


 194              		.def	_test_print;	.scl	2;	.type	32;	.endef
 195              	_test_print:
 196              	LFB10:
 197              		.loc 1 114 0
 198              		.cfi_startproc
 199 0156 83EC1C   		subl	$28, %esp	 #,
 200              	LCFI2:
 201              		.cfi_def_cfa_offset 32
 202              		.loc 1 114 0
 203 0159 A1800300 		movl	LPBX1+832, %eax	 # *LPBX1, PROF_edge_counter.45
 203      00
 204 015e 8B158403 		movl	LPBX1+836, %edx	 # *LPBX1, PROF_edge_counter.45
 204      0000
 205 0164 83C001   		addl	$1, %eax	 #, PROF_edge_counter.45
 206 0167 83D200   		adcl	$0, %edx	 #, PROF_edge_counter.45
 207 016a A3800300 		movl	%eax, LPBX1+832	 # PROF_edge_counter.45, *LPBX1
 207      00
 208 016f 89158403 		movl	%edx, LPBX1+836	 # PROF_edge_counter.45, *LPBX1
 208      0000
 209              		.loc 1 116 0
 210 0175 EB41     		jmp	L9	 #
 211              	L10:
 212 0177 A1880300 		movl	LPBX1+840, %eax	 # *LPBX1, PROF_edge_counter.45
 212      00
 213 017c 8B158C03 		movl	LPBX1+844, %edx	 # *LPBX1, PROF_edge_counter.45
 213      0000
 214 0182 83C001   		addl	$1, %eax	 #, PROF_edge_counter.45
 215 0185 83D200   		adcl	$0, %edx	 #, PROF_edge_counter.45
 216 0188 A3880300 		movl	%eax, LPBX1+840	 # PROF_edge_counter.45, *LPBX1
 216      00
 217 018d 89158C03 		movl	%edx, LPBX1+844	 # PROF_edge_counter.45, *LPBX1
 217      0000
 218              		.loc 1 117 0
 219 0193 A11C0000 		movl	_chp, %eax	 # chp, chp.22
 219      00
 220 0198 8B00     		movl	(%eax), %eax	 # chp.22_4->vmt, D.36915
 221 019a 8B4808   		movl	8(%eax), %ecx	 # D.36915_5->put, D.36916
 222 019d 8B442420 		movl	32(%esp), %eax	 # msgp, tmp73
 223 01a1 8A00     		movb	(%eax), %al	 # *msgp_1, D.36917
 224 01a3 0FB6D0   		movzbl	%al, %edx	 # D.36918, D.36919
 225 01a6 FF442420 		incl	32(%esp)	 # msgp
 226 01aa A11C0000 		movl	_chp, %eax	 # chp, chp.23
 226      00
 227 01af 89542404 		movl	%edx, 4(%esp)	 # D.36919,
 228 01b3 890424   		movl	%eax, (%esp)	 # chp.23,
 229 01b6 FFD1     		call	*%ecx	 # D.36916
 230              	L9:
 231              		.loc 1 116 0 discriminator 1
 232 01b8 8B442420 		movl	32(%esp), %eax	 # msgp, tmp74
 233 01bc 8A00     		movb	(%eax), %al	 # *msgp_1, D.36921
 234 01be 84C0     		testb	%al, %al	 # D.36921
 235 01c0 75B5     		jne	L10	 #,
 236              		.loc 1 116 0 is_stmt 0
 237 01c2 A1900300 		movl	LPBX1+848, %eax	 # *LPBX1, PROF_edge_counter.45
 237      00
 238 01c7 8B159403 		movl	LPBX1+852, %edx	 # *LPBX1, PROF_edge_counter.45
 238      0000
GAS LISTING C:\cygwin\tmp\ccs5iBND.s 			page 6


 239 01cd 83C001   		addl	$1, %eax	 #, PROF_edge_counter.45
 240 01d0 83D200   		adcl	$0, %edx	 #, PROF_edge_counter.45
 241 01d3 A3900300 		movl	%eax, LPBX1+848	 # PROF_edge_counter.45, *LPBX1
 241      00
 242 01d8 89159403 		movl	%edx, LPBX1+852	 # PROF_edge_counter.45, *LPBX1
 242      0000
 243              		.loc 1 118 0 is_stmt 1
 244 01de 83C41C   		addl	$28, %esp	 #,
 245              	LCFI3:
 246              		.cfi_def_cfa_offset 4
 247 01e1 C3       		ret
 248              		.cfi_endproc
 249              	LFE10:
 250              		.section .rdata,"dr"
 251              	LC0:
 252 0014 0D0A00   		.ascii "\15\12\0"
 253              		.text
 254              		.globl	_test_println
 255              		.def	_test_println;	.scl	2;	.type	32;	.endef
 256              	_test_println:
 257              	LFB11:
 258              		.loc 1 125 0
 259              		.cfi_startproc
 260 01e2 83EC1C   		subl	$28, %esp	 #,
 261              	LCFI4:
 262              		.cfi_def_cfa_offset 32
 263              		.loc 1 125 0
 264 01e5 A1680300 		movl	LPBX1+808, %eax	 # *LPBX1, PROF_edge_counter.44
 264      00
 265 01ea 8B156C03 		movl	LPBX1+812, %edx	 # *LPBX1, PROF_edge_counter.44
 265      0000
 266 01f0 83C001   		addl	$1, %eax	 #, PROF_edge_counter.44
 267 01f3 83D200   		adcl	$0, %edx	 #, PROF_edge_counter.44
 268 01f6 A3680300 		movl	%eax, LPBX1+808	 # PROF_edge_counter.44, *LPBX1
 268      00
 269 01fb 89156C03 		movl	%edx, LPBX1+812	 # PROF_edge_counter.44, *LPBX1
 269      0000
 270              		.loc 1 127 0
 271 0201 8B442420 		movl	32(%esp), %eax	 # msgp, tmp69
 272 0205 890424   		movl	%eax, (%esp)	 # tmp69,
 273 0208 E849FFFF 		call	_test_print	 #
 273      FF
 274 020d A1700300 		movl	LPBX1+816, %eax	 # *LPBX1, PROF_edge_counter.44
 274      00
 275 0212 8B157403 		movl	LPBX1+820, %edx	 # *LPBX1, PROF_edge_counter.44
 275      0000
 276 0218 83C001   		addl	$1, %eax	 #, PROF_edge_counter.44
 277 021b 83D200   		adcl	$0, %edx	 #, PROF_edge_counter.44
 278 021e A3700300 		movl	%eax, LPBX1+816	 # PROF_edge_counter.44, *LPBX1
 278      00
 279 0223 89157403 		movl	%edx, LPBX1+820	 # PROF_edge_counter.44, *LPBX1
 279      0000
 280              		.loc 1 128 0
 281 0229 A11C0000 		movl	_chp, %eax	 # chp, chp.20
 281      00
 282 022e 8B00     		movl	(%eax), %eax	 # chp.20_2->vmt, D.36911
 283 0230 8B10     		movl	(%eax), %edx	 # D.36911_3->write, D.36912
GAS LISTING C:\cygwin\tmp\ccs5iBND.s 			page 7


 284 0232 A11C0000 		movl	_chp, %eax	 # chp, chp.21
 284      00
 285 0237 C7442408 		movl	$2, 8(%esp)	 #,
 285      02000000 
 286 023f C7442404 		movl	$LC0, 4(%esp)	 #,
 286      14000000 
 287 0247 890424   		movl	%eax, (%esp)	 # chp.21,
 288 024a FFD2     		call	*%edx	 # D.36912
 289 024c A1780300 		movl	LPBX1+824, %eax	 # *LPBX1, PROF_edge_counter.44
 289      00
 290 0251 8B157C03 		movl	LPBX1+828, %edx	 # *LPBX1, PROF_edge_counter.44
 290      0000
 291 0257 83C001   		addl	$1, %eax	 #, PROF_edge_counter.44
 292 025a 83D200   		adcl	$0, %edx	 #, PROF_edge_counter.44
 293 025d A3780300 		movl	%eax, LPBX1+824	 # PROF_edge_counter.44, *LPBX1
 293      00
 294 0262 89157C03 		movl	%edx, LPBX1+828	 # PROF_edge_counter.44, *LPBX1
 294      0000
 295              		.loc 1 129 0
 296 0268 83C41C   		addl	$28, %esp	 #,
 297              	LCFI5:
 298              		.cfi_def_cfa_offset 4
 299 026b C3       		ret
 300              		.cfi_endproc
 301              	LFE11:
 302              		.def	_clear_tokens;	.scl	3;	.type	32;	.endef
 303              	_clear_tokens:
 304              	LFB12:
 305              		.loc 1 134 0
 306              		.cfi_startproc
 307 026c 83EC04   		subl	$4, %esp	 #,
 308              	LCFI6:
 309              		.cfi_def_cfa_offset 8
 310              		.loc 1 134 0
 311 026f A1600300 		movl	LPBX1+800, %eax	 # *LPBX1, PROF_edge_counter.43
 311      00
 312 0274 8B156403 		movl	LPBX1+804, %edx	 # *LPBX1, PROF_edge_counter.43
 312      0000
 313 027a 83C001   		addl	$1, %eax	 #, PROF_edge_counter.43
 314 027d 83D200   		adcl	$0, %edx	 #, PROF_edge_counter.43
 315 0280 A3600300 		movl	%eax, LPBX1+800	 # PROF_edge_counter.43, *LPBX1
 315      00
 316 0285 89156403 		movl	%edx, LPBX1+804	 # PROF_edge_counter.43, *LPBX1
 316      0000
 317              		.loc 1 136 0
 318 028b C7051800 		movl	$_tokens_buffer, _tokp	 #, tokp
 318      00000800 
 318      0000
 319              		.loc 1 137 0
 320 0295 83C404   		addl	$4, %esp	 #,
 321              	LCFI7:
 322              		.cfi_def_cfa_offset 4
 323 0298 C3       		ret
 324              		.cfi_endproc
 325              	LFE12:
 326              		.def	_print_tokens;	.scl	3;	.type	32;	.endef
 327              	_print_tokens:
GAS LISTING C:\cygwin\tmp\ccs5iBND.s 			page 8


 328              	LFB13:
 329              		.loc 1 139 0
 330              		.cfi_startproc
 331 0299 83EC2C   		subl	$44, %esp	 #,
 332              	LCFI8:
 333              		.cfi_def_cfa_offset 48
 334              		.loc 1 140 0
 335 029c C744241C 		movl	$_tokens_buffer, 28(%esp)	 #, cp
 335      08000000 
 336 02a4 A1480300 		movl	LPBX1+776, %eax	 # *LPBX1, PROF_edge_counter.42
 336      00
 337 02a9 8B154C03 		movl	LPBX1+780, %edx	 # *LPBX1, PROF_edge_counter.42
 337      0000
 338 02af 83C001   		addl	$1, %eax	 #, PROF_edge_counter.42
 339 02b2 83D200   		adcl	$0, %edx	 #, PROF_edge_counter.42
 340 02b5 A3480300 		movl	%eax, LPBX1+776	 # PROF_edge_counter.42, *LPBX1
 340      00
 341 02ba 89154C03 		movl	%edx, LPBX1+780	 # PROF_edge_counter.42, *LPBX1
 341      0000
 342              		.loc 1 142 0
 343 02c0 EB41     		jmp	L14	 #
 344              	L15:
 345 02c2 A1500300 		movl	LPBX1+784, %eax	 # *LPBX1, PROF_edge_counter.42
 345      00
 346 02c7 8B155403 		movl	LPBX1+788, %edx	 # *LPBX1, PROF_edge_counter.42
 346      0000
 347 02cd 83C001   		addl	$1, %eax	 #, PROF_edge_counter.42
 348 02d0 83D200   		adcl	$0, %edx	 #, PROF_edge_counter.42
 349 02d3 A3500300 		movl	%eax, LPBX1+784	 # PROF_edge_counter.42, *LPBX1
 349      00
 350 02d8 89155403 		movl	%edx, LPBX1+788	 # PROF_edge_counter.42, *LPBX1
 350      0000
 351              		.loc 1 143 0
 352 02de A11C0000 		movl	_chp, %eax	 # chp, chp.17
 352      00
 353 02e3 8B00     		movl	(%eax), %eax	 # chp.17_4->vmt, D.36903
 354 02e5 8B4808   		movl	8(%eax), %ecx	 # D.36903_5->put, D.36904
 355 02e8 8B44241C 		movl	28(%esp), %eax	 # cp, tmp73
 356 02ec 8A00     		movb	(%eax), %al	 # *cp_1, D.36905
 357 02ee 0FB6D0   		movzbl	%al, %edx	 # D.36906, D.36907
 358 02f1 FF44241C 		incl	28(%esp)	 # cp
 359 02f5 A11C0000 		movl	_chp, %eax	 # chp, chp.18
 359      00
 360 02fa 89542404 		movl	%edx, 4(%esp)	 # D.36907,
 361 02fe 890424   		movl	%eax, (%esp)	 # chp.18,
 362 0301 FFD1     		call	*%ecx	 # D.36904
 363              	L14:
 364              		.loc 1 142 0 discriminator 1
 365 0303 A1180000 		movl	_tokp, %eax	 # tokp, tokp.19
 365      00
 366 0308 3944241C 		cmpl	%eax, 28(%esp)	 # tokp.19, cp
 367 030c 72B4     		jb	L15	 #,
 368              		.loc 1 142 0 is_stmt 0
 369 030e A1580300 		movl	LPBX1+792, %eax	 # *LPBX1, PROF_edge_counter.42
 369      00
 370 0313 8B155C03 		movl	LPBX1+796, %edx	 # *LPBX1, PROF_edge_counter.42
 370      0000
GAS LISTING C:\cygwin\tmp\ccs5iBND.s 			page 9


 371 0319 83C001   		addl	$1, %eax	 #, PROF_edge_counter.42
 372 031c 83D200   		adcl	$0, %edx	 #, PROF_edge_counter.42
 373 031f A3580300 		movl	%eax, LPBX1+792	 # PROF_edge_counter.42, *LPBX1
 373      00
 374 0324 89155C03 		movl	%edx, LPBX1+796	 # PROF_edge_counter.42, *LPBX1
 374      0000
 375              		.loc 1 144 0 is_stmt 1
 376 032a 83C42C   		addl	$44, %esp	 #,
 377              	LCFI9:
 378              		.cfi_def_cfa_offset 4
 379 032d C3       		ret
 380              		.cfi_endproc
 381              	LFE13:
 382              		.globl	_test_emit_token
 383              		.def	_test_emit_token;	.scl	2;	.type	32;	.endef
 384              	_test_emit_token:
 385              	LFB14:
 386              		.loc 1 151 0
 387              		.cfi_startproc
 388 032e 83EC0C   		subl	$12, %esp	 #,
 389              	LCFI10:
 390              		.cfi_def_cfa_offset 16
 391 0331 8B442410 		movl	16(%esp), %eax	 # token, tmp67
 392 0335 88442404 		movb	%al, 4(%esp)	 # tmp67, token
 393              		.loc 1 151 0
 394 0339 A1300300 		movl	LPBX1+752, %eax	 # *LPBX1, PROF_edge_counter.41
 394      00
 395 033e 8B153403 		movl	LPBX1+756, %edx	 # *LPBX1, PROF_edge_counter.41
 395      0000
 396 0344 83C001   		addl	$1, %eax	 #, PROF_edge_counter.41
 397 0347 83D200   		adcl	$0, %edx	 #, PROF_edge_counter.41
 398 034a A3300300 		movl	%eax, LPBX1+752	 # PROF_edge_counter.41, *LPBX1
 398      00
 399 034f 89153403 		movl	%edx, LPBX1+756	 # PROF_edge_counter.41, *LPBX1
 399      0000
 400              		.loc 1 153 0
 401              	/APP
 402              	 # 153 "../../test/test.c" 1
 403 0355 90       		nop
 404              	 # 0 "" 2
 405              	/NO_APP
 406 0356 A1380300 		movl	LPBX1+760, %eax	 # *LPBX1, PROF_edge_counter.41
 406      00
 407 035b 8B153C03 		movl	LPBX1+764, %edx	 # *LPBX1, PROF_edge_counter.41
 407      0000
 408 0361 83C001   		addl	$1, %eax	 #, PROF_edge_counter.41
 409 0364 83D200   		adcl	$0, %edx	 #, PROF_edge_counter.41
 410 0367 A3380300 		movl	%eax, LPBX1+760	 # PROF_edge_counter.41, *LPBX1
 410      00
 411 036c 89153C03 		movl	%edx, LPBX1+764	 # PROF_edge_counter.41, *LPBX1
 411      0000
 412              		.loc 1 154 0
 413 0372 A1180000 		movl	_tokp, %eax	 # tokp, tokp.15
 413      00
 414 0377 8A542404 		movb	4(%esp), %dl	 # token, tmp68
 415 037b 8810     		movb	%dl, (%eax)	 # tmp68, *tokp.15_1
 416 037d 40       		incl	%eax	 # tokp.16
GAS LISTING C:\cygwin\tmp\ccs5iBND.s 			page 10


 417 037e A3180000 		movl	%eax, _tokp	 # tokp.16, tokp
 417      00
 418              		.loc 1 155 0
 419              	/APP
 420              	 # 155 "../../test/test.c" 1
 421 0383 90       		nop
 422              	 # 0 "" 2
 423              	/NO_APP
 424 0384 A1400300 		movl	LPBX1+768, %eax	 # *LPBX1, PROF_edge_counter.41
 424      00
 425 0389 8B154403 		movl	LPBX1+772, %edx	 # *LPBX1, PROF_edge_counter.41
 425      0000
 426 038f 83C001   		addl	$1, %eax	 #, PROF_edge_counter.41
 427 0392 83D200   		adcl	$0, %edx	 #, PROF_edge_counter.41
 428 0395 A3400300 		movl	%eax, LPBX1+768	 # PROF_edge_counter.41, *LPBX1
 428      00
 429 039a 89154403 		movl	%edx, LPBX1+772	 # PROF_edge_counter.41, *LPBX1
 429      0000
 430              		.loc 1 156 0
 431 03a0 83C40C   		addl	$12, %esp	 #,
 432              	LCFI11:
 433              		.cfi_def_cfa_offset 4
 434 03a3 C3       		ret
 435              		.cfi_endproc
 436              	LFE14:
 437              		.globl	__test_fail
 438              		.def	__test_fail;	.scl	2;	.type	32;	.endef
 439              	__test_fail:
 440              	LFB15:
 441              		.loc 1 161 0
 442              		.cfi_startproc
 443 03a4 83EC04   		subl	$4, %esp	 #,
 444              	LCFI12:
 445              		.cfi_def_cfa_offset 8
 446              		.loc 1 161 0
 447 03a7 A1280300 		movl	LPBX1+744, %eax	 # *LPBX1, PROF_edge_counter.40
 447      00
 448 03ac 8B152C03 		movl	LPBX1+748, %edx	 # *LPBX1, PROF_edge_counter.40
 448      0000
 449 03b2 83C001   		addl	$1, %eax	 #, PROF_edge_counter.40
 450 03b5 83D200   		adcl	$0, %edx	 #, PROF_edge_counter.40
 451 03b8 A3280300 		movl	%eax, LPBX1+744	 # PROF_edge_counter.40, *LPBX1
 451      00
 452 03bd 89152C03 		movl	%edx, LPBX1+748	 # PROF_edge_counter.40, *LPBX1
 452      0000
 453              		.loc 1 163 0
 454 03c3 C6050000 		movb	$1, _local_fail	 #, local_fail
 454      000001
 455              		.loc 1 164 0
 456 03ca C6050100 		movb	$1, _global_fail	 #, global_fail
 456      000001
 457              		.loc 1 165 0
 458 03d1 8B442408 		movl	8(%esp), %eax	 # point, tmp63
 459 03d5 A3040000 		movl	%eax, _failpoint	 # tmp63, failpoint
 459      00
 460              		.loc 1 166 0
 461 03da B001     		movb	$1, %al	 #, D.36898
GAS LISTING C:\cygwin\tmp\ccs5iBND.s 			page 11


 462              		.loc 1 167 0
 463 03dc 83C404   		addl	$4, %esp	 #,
 464              	LCFI13:
 465              		.cfi_def_cfa_offset 4
 466 03df C3       		ret
 467              		.cfi_endproc
 468              	LFE15:
 469              		.globl	__test_assert
 470              		.def	__test_assert;	.scl	2;	.type	32;	.endef
 471              	__test_assert:
 472              	LFB16:
 473              		.loc 1 169 0
 474              		.cfi_startproc
 475 03e0 83EC14   		subl	$20, %esp	 #,
 476              	LCFI14:
 477              		.cfi_def_cfa_offset 24
 478 03e3 8B44241C 		movl	28(%esp), %eax	 # condition, tmp68
 479 03e7 8844240C 		movb	%al, 12(%esp)	 # tmp68, condition
 480              		.loc 1 171 0
 481 03eb 8A44240C 		movb	12(%esp), %al	 # condition, tmp69
 482 03ef 83F001   		xorl	$1, %eax	 #, D.36893
 483 03f2 84C0     		testb	%al, %al	 # D.36893
 484 03f4 7448     		je	L19	 #,
 485 03f6 A1100300 		movl	LPBX1+720, %eax	 # *LPBX1, PROF_edge_counter.39
 485      00
 486 03fb 8B151403 		movl	LPBX1+724, %edx	 # *LPBX1, PROF_edge_counter.39
 486      0000
 487 0401 83C001   		addl	$1, %eax	 #, PROF_edge_counter.39
 488 0404 83D200   		adcl	$0, %edx	 #, PROF_edge_counter.39
 489 0407 A3100300 		movl	%eax, LPBX1+720	 # PROF_edge_counter.39, *LPBX1
 489      00
 490 040c 89151403 		movl	%edx, LPBX1+724	 # PROF_edge_counter.39, *LPBX1
 490      0000
 491              		.loc 1 172 0
 492 0412 8B442418 		movl	24(%esp), %eax	 # point, tmp70
 493 0416 890424   		movl	%eax, (%esp)	 # tmp70,
 494 0419 E886FFFF 		call	__test_fail	 #
 494      FF
 495 041e 88C1     		movb	%al, %cl	 #, D.36896
 496 0420 A1180300 		movl	LPBX1+728, %eax	 # *LPBX1, PROF_edge_counter.39
 496      00
 497 0425 8B151C03 		movl	LPBX1+732, %edx	 # *LPBX1, PROF_edge_counter.39
 497      0000
 498 042b 83C001   		addl	$1, %eax	 #, PROF_edge_counter.39
 499 042e 83D200   		adcl	$0, %edx	 #, PROF_edge_counter.39
 500 0431 A3180300 		movl	%eax, LPBX1+728	 # PROF_edge_counter.39, *LPBX1
 500      00
 501 0436 89151C03 		movl	%edx, LPBX1+732	 # PROF_edge_counter.39, *LPBX1
 501      0000
 502 043c EB1E     		jmp	L20	 #
 503              	L19:
 504              		.loc 1 173 0
 505 043e B100     		movb	$0, %cl	 #, D.36896
 506 0440 A1200300 		movl	LPBX1+736, %eax	 # *LPBX1, PROF_edge_counter.39
 506      00
 507 0445 8B152403 		movl	LPBX1+740, %edx	 # *LPBX1, PROF_edge_counter.39
 507      0000
GAS LISTING C:\cygwin\tmp\ccs5iBND.s 			page 12


 508 044b 83C001   		addl	$1, %eax	 #, PROF_edge_counter.39
 509 044e 83D200   		adcl	$0, %edx	 #, PROF_edge_counter.39
 510 0451 A3200300 		movl	%eax, LPBX1+736	 # PROF_edge_counter.39, *LPBX1
 510      00
 511 0456 89152403 		movl	%edx, LPBX1+740	 # PROF_edge_counter.39, *LPBX1
 511      0000
 512              	L20:
 513 045c 88C8     		movb	%cl, %al	 # D.36896, <retval>
 514              		.loc 1 174 0
 515 045e 83C414   		addl	$20, %esp	 #,
 516              	LCFI15:
 517              		.cfi_def_cfa_offset 4
 518 0461 C3       		ret
 519              		.cfi_endproc
 520              	LFE16:
 521              		.globl	__test_assert_sequence
 522              		.def	__test_assert_sequence;	.scl	2;	.type	32;	.endef
 523              	__test_assert_sequence:
 524              	LFB17:
 525              		.loc 1 176 0
 526              		.cfi_startproc
 527 0462 83EC1C   		subl	$28, %esp	 #,
 528              	LCFI16:
 529              		.cfi_def_cfa_offset 32
 530              		.loc 1 177 0
 531 0465 C7442414 		movl	$_tokens_buffer, 20(%esp)	 #, cp
 531      08000000 
 532              		.loc 1 178 0
 533 046d E9840000 		jmp	L22	 #
 533      00
 534              	L24:
 535 0472 A1E80200 		movl	LPBX1+680, %eax	 # *LPBX1, PROF_edge_counter.38
 535      00
 536 0477 8B15EC02 		movl	LPBX1+684, %edx	 # *LPBX1, PROF_edge_counter.38
 536      0000
 537 047d 83C001   		addl	$1, %eax	 #, PROF_edge_counter.38
 538 0480 83D200   		adcl	$0, %edx	 #, PROF_edge_counter.38
 539 0483 A3E80200 		movl	%eax, LPBX1+680	 # PROF_edge_counter.38, *LPBX1
 539      00
 540 0488 8915EC02 		movl	%edx, LPBX1+684	 # PROF_edge_counter.38, *LPBX1
 540      0000
 541              		.loc 1 179 0
 542 048e 8B442414 		movl	20(%esp), %eax	 # cp, tmp80
 543 0492 8A10     		movb	(%eax), %dl	 # *cp_2, D.36882
 544 0494 8B442424 		movl	36(%esp), %eax	 # expected, tmp81
 545 0498 8A00     		movb	(%eax), %al	 # *expected_1, D.36883
 546 049a 38C2     		cmpb	%al, %dl	 # D.36883, D.36882
 547 049c 0F95C0   		setne	%al	 #, D.36884
 548 049f FF442414 		incl	20(%esp)	 # cp
 549 04a3 FF442424 		incl	36(%esp)	 # expected
 550 04a7 84C0     		testb	%al, %al	 # D.36884
 551 04a9 744B     		je	L22	 #,
 552 04ab A1D80200 		movl	LPBX1+664, %eax	 # *LPBX1, PROF_edge_counter.38
 552      00
 553 04b0 8B15DC02 		movl	LPBX1+668, %edx	 # *LPBX1, PROF_edge_counter.38
 553      0000
 554 04b6 83C001   		addl	$1, %eax	 #, PROF_edge_counter.38
GAS LISTING C:\cygwin\tmp\ccs5iBND.s 			page 13


 555 04b9 83D200   		adcl	$0, %edx	 #, PROF_edge_counter.38
 556 04bc A3D80200 		movl	%eax, LPBX1+664	 # PROF_edge_counter.38, *LPBX1
 556      00
 557 04c1 8915DC02 		movl	%edx, LPBX1+668	 # PROF_edge_counter.38, *LPBX1
 557      0000
 558              		.loc 1 180 0
 559 04c7 8B442420 		movl	32(%esp), %eax	 # point, tmp82
 560 04cb 890424   		movl	%eax, (%esp)	 # tmp82,
 561 04ce E8D1FEFF 		call	__test_fail	 #
 561      FF
 562 04d3 88C1     		movb	%al, %cl	 #, D.36887
 563 04d5 A1E00200 		movl	LPBX1+672, %eax	 # *LPBX1, PROF_edge_counter.38
 563      00
 564 04da 8B15E402 		movl	LPBX1+676, %edx	 # *LPBX1, PROF_edge_counter.38
 564      0000
 565 04e0 83C001   		addl	$1, %eax	 #, PROF_edge_counter.38
 566 04e3 83D200   		adcl	$0, %edx	 #, PROF_edge_counter.38
 567 04e6 A3E00200 		movl	%eax, LPBX1+672	 # PROF_edge_counter.38, *LPBX1
 567      00
 568 04eb 8915E402 		movl	%edx, LPBX1+676	 # PROF_edge_counter.38, *LPBX1
 568      0000
 569 04f1 E9A00000 		jmp	L23	 #
 569      00
 570              	L22:
 571              		.loc 1 178 0 discriminator 1
 572 04f6 A1180000 		movl	_tokp, %eax	 # tokp, tokp.14
 572      00
 573 04fb 39442414 		cmpl	%eax, 20(%esp)	 # tokp.14, cp
 574 04ff 0F826DFF 		jb	L24	 #,
 574      FFFF
 575              		.loc 1 182 0
 576 0505 8B442424 		movl	36(%esp), %eax	 # expected, tmp83
 577 0509 8A00     		movb	(%eax), %al	 # *expected_1, D.36889
 578 050b 84C0     		testb	%al, %al	 # D.36889
 579 050d 7448     		je	L25	 #,
 580 050f A1F00200 		movl	LPBX1+688, %eax	 # *LPBX1, PROF_edge_counter.38
 580      00
 581 0514 8B15F402 		movl	LPBX1+692, %edx	 # *LPBX1, PROF_edge_counter.38
 581      0000
 582 051a 83C001   		addl	$1, %eax	 #, PROF_edge_counter.38
 583 051d 83D200   		adcl	$0, %edx	 #, PROF_edge_counter.38
 584 0520 A3F00200 		movl	%eax, LPBX1+688	 # PROF_edge_counter.38, *LPBX1
 584      00
 585 0525 8915F402 		movl	%edx, LPBX1+692	 # PROF_edge_counter.38, *LPBX1
 585      0000
 586              		.loc 1 183 0
 587 052b 8B442420 		movl	32(%esp), %eax	 # point, tmp84
 588 052f 890424   		movl	%eax, (%esp)	 # tmp84,
 589 0532 E86DFEFF 		call	__test_fail	 #
 589      FF
 590 0537 88C1     		movb	%al, %cl	 #, D.36887
 591 0539 A1000300 		movl	LPBX1+704, %eax	 # *LPBX1, PROF_edge_counter.38
 591      00
 592 053e 8B150403 		movl	LPBX1+708, %edx	 # *LPBX1, PROF_edge_counter.38
 592      0000
 593 0544 83C001   		addl	$1, %eax	 #, PROF_edge_counter.38
 594 0547 83D200   		adcl	$0, %edx	 #, PROF_edge_counter.38
GAS LISTING C:\cygwin\tmp\ccs5iBND.s 			page 14


 595 054a A3000300 		movl	%eax, LPBX1+704	 # PROF_edge_counter.38, *LPBX1
 595      00
 596 054f 89150403 		movl	%edx, LPBX1+708	 # PROF_edge_counter.38, *LPBX1
 596      0000
 597 0555 EB3F     		jmp	L23	 #
 598              	L25:
 599 0557 A1F80200 		movl	LPBX1+696, %eax	 # *LPBX1, PROF_edge_counter.38
 599      00
 600 055c 8B15FC02 		movl	LPBX1+700, %edx	 # *LPBX1, PROF_edge_counter.38
 600      0000
 601 0562 83C001   		addl	$1, %eax	 #, PROF_edge_counter.38
 602 0565 83D200   		adcl	$0, %edx	 #, PROF_edge_counter.38
 603 0568 A3F80200 		movl	%eax, LPBX1+696	 # PROF_edge_counter.38, *LPBX1
 603      00
 604 056d 8915FC02 		movl	%edx, LPBX1+700	 # PROF_edge_counter.38, *LPBX1
 604      0000
 605              		.loc 1 184 0
 606 0573 E8F4FCFF 		call	_clear_tokens	 #
 606      FF
 607              		.loc 1 185 0
 608 0578 B100     		movb	$0, %cl	 #, D.36887
 609 057a A1080300 		movl	LPBX1+712, %eax	 # *LPBX1, PROF_edge_counter.38
 609      00
 610 057f 8B150C03 		movl	LPBX1+716, %edx	 # *LPBX1, PROF_edge_counter.38
 610      0000
 611 0585 83C001   		addl	$1, %eax	 #, PROF_edge_counter.38
 612 0588 83D200   		adcl	$0, %edx	 #, PROF_edge_counter.38
 613 058b A3080300 		movl	%eax, LPBX1+712	 # PROF_edge_counter.38, *LPBX1
 613      00
 614 0590 89150C03 		movl	%edx, LPBX1+716	 # PROF_edge_counter.38, *LPBX1
 614      0000
 615              	L23:
 616 0596 88C8     		movb	%cl, %al	 # D.36887, <retval>
 617              		.loc 1 186 0
 618 0598 83C41C   		addl	$28, %esp	 #,
 619              	LCFI17:
 620              		.cfi_def_cfa_offset 4
 621 059b C3       		ret
 622              		.cfi_endproc
 623              	LFE17:
 624              		.globl	__test_assert_time_window
 625              		.def	__test_assert_time_window;	.scl	2;	.type	32;	.endef
 626              	__test_assert_time_window:
 627              	LFB18:
 628              		.loc 1 188 0
 629              		.cfi_startproc
 630 059c 83EC1C   		subl	$28, %esp	 #,
 631              	LCFI18:
 632              		.cfi_def_cfa_offset 32
 633              		.loc 1 188 0
 634 059f A1C00200 		movl	LPBX1+640, %eax	 # *LPBX1, PROF_edge_counter.37
 634      00
 635 05a4 8B15C402 		movl	LPBX1+644, %edx	 # *LPBX1, PROF_edge_counter.37
 635      0000
 636 05aa 83C001   		addl	$1, %eax	 #, PROF_edge_counter.37
 637 05ad 83D200   		adcl	$0, %edx	 #, PROF_edge_counter.37
 638 05b0 A3C00200 		movl	%eax, LPBX1+640	 # PROF_edge_counter.37, *LPBX1
GAS LISTING C:\cygwin\tmp\ccs5iBND.s 			page 15


 638      00
 639 05b5 8915C402 		movl	%edx, LPBX1+644	 # PROF_edge_counter.37, *LPBX1
 639      0000
 640              		.loc 1 190 0
 641 05bb 8B442428 		movl	40(%esp), %eax	 # end, tmp69
 642 05bf 89442404 		movl	%eax, 4(%esp)	 # tmp69,
 643 05c3 8B442424 		movl	36(%esp), %eax	 # start, tmp70
 644 05c7 890424   		movl	%eax, (%esp)	 # tmp70,
 645 05ca E8000000 		call	_chTimeIsWithin	 #
 645      00
 646 05cf 88C1     		movb	%al, %cl	 #, D.36879
 647 05d1 A1C80200 		movl	LPBX1+648, %eax	 # *LPBX1, PROF_edge_counter.37
 647      00
 648 05d6 8B15CC02 		movl	LPBX1+652, %edx	 # *LPBX1, PROF_edge_counter.37
 648      0000
 649 05dc 83C001   		addl	$1, %eax	 #, PROF_edge_counter.37
 650 05df 83D200   		adcl	$0, %edx	 #, PROF_edge_counter.37
 651 05e2 A3C80200 		movl	%eax, LPBX1+648	 # PROF_edge_counter.37, *LPBX1
 651      00
 652 05e7 8915CC02 		movl	%edx, LPBX1+652	 # PROF_edge_counter.37, *LPBX1
 652      0000
 653 05ed 0FB6C1   		movzbl	%cl, %eax	 # D.36879, D.36880
 654 05f0 89442404 		movl	%eax, 4(%esp)	 # D.36880,
 655 05f4 8B442420 		movl	32(%esp), %eax	 # point, tmp71
 656 05f8 890424   		movl	%eax, (%esp)	 # tmp71,
 657 05fb E8E0FDFF 		call	__test_assert	 #
 657      FF
 658 0600 88C1     		movb	%al, %cl	 #, D.36878
 659 0602 A1D00200 		movl	LPBX1+656, %eax	 # *LPBX1, PROF_edge_counter.37
 659      00
 660 0607 8B15D402 		movl	LPBX1+660, %edx	 # *LPBX1, PROF_edge_counter.37
 660      0000
 661 060d 83C001   		addl	$1, %eax	 #, PROF_edge_counter.37
 662 0610 83D200   		adcl	$0, %edx	 #, PROF_edge_counter.37
 663 0613 A3D00200 		movl	%eax, LPBX1+656	 # PROF_edge_counter.37, *LPBX1
 663      00
 664 0618 8915D402 		movl	%edx, LPBX1+660	 # PROF_edge_counter.37, *LPBX1
 664      0000
 665 061e 88C8     		movb	%cl, %al	 # D.36878, <retval>
 666              		.loc 1 191 0
 667 0620 83C41C   		addl	$28, %esp	 #,
 668              	LCFI19:
 669              		.cfi_def_cfa_offset 4
 670 0623 C3       		ret
 671              		.cfi_endproc
 672              	LFE18:
 673              		.globl	_test_terminate_threads
 674              		.def	_test_terminate_threads;	.scl	2;	.type	32;	.endef
 675              	_test_terminate_threads:
 676              	LFB19:
 677              		.loc 1 200 0
 678              		.cfi_startproc
 679 0624 83EC2C   		subl	$44, %esp	 #,
 680              	LCFI20:
 681              		.cfi_def_cfa_offset 48
 682              		.loc 1 203 0
 683 0627 C744241C 		movl	$0, 28(%esp)	 #, i
GAS LISTING C:\cygwin\tmp\ccs5iBND.s 			page 16


 683      00000000 
 684 062f EB7A     		jmp	L28	 #
 685              	L30:
 686 0631 A1B00200 		movl	LPBX1+624, %eax	 # *LPBX1, PROF_edge_counter.36
 686      00
 687 0636 8B15B402 		movl	LPBX1+628, %edx	 # *LPBX1, PROF_edge_counter.36
 687      0000
 688 063c 83C001   		addl	$1, %eax	 #, PROF_edge_counter.36
 689 063f 83D200   		adcl	$0, %edx	 #, PROF_edge_counter.36
 690 0642 A3B00200 		movl	%eax, LPBX1+624	 # PROF_edge_counter.36, *LPBX1
 690      00
 691 0647 8915B402 		movl	%edx, LPBX1+628	 # PROF_edge_counter.36, *LPBX1
 691      0000
 692              		.loc 1 204 0
 693 064d 8B44241C 		movl	28(%esp), %eax	 # i, tmp69
 694 0651 8B048500 		movl	_threads(,%eax,4), %eax	 # threads, D.36874
 694      000000
 695 0658 85C0     		testl	%eax, %eax	 # D.36874
 696 065a 742F     		je	L29	 #,
 697 065c A1A00200 		movl	LPBX1+608, %eax	 # *LPBX1, PROF_edge_counter.36
 697      00
 698 0661 8B15A402 		movl	LPBX1+612, %edx	 # *LPBX1, PROF_edge_counter.36
 698      0000
 699 0667 83C001   		addl	$1, %eax	 #, PROF_edge_counter.36
 700 066a 83D200   		adcl	$0, %edx	 #, PROF_edge_counter.36
 701 066d A3A00200 		movl	%eax, LPBX1+608	 # PROF_edge_counter.36, *LPBX1
 701      00
 702 0672 8915A402 		movl	%edx, LPBX1+612	 # PROF_edge_counter.36, *LPBX1
 702      0000
 703              		.loc 1 205 0
 704 0678 8B44241C 		movl	28(%esp), %eax	 # i, tmp70
 705 067c 8B048500 		movl	_threads(,%eax,4), %eax	 # threads, D.36877
 705      000000
 706 0683 890424   		movl	%eax, (%esp)	 # D.36877,
 707 0686 E8000000 		call	_chThdTerminate	 #
 707      00
 708              	L29:
 709              		.loc 1 203 0
 710 068b FF44241C 		incl	28(%esp)	 # i
 711 068f A1A80200 		movl	LPBX1+616, %eax	 # *LPBX1, PROF_edge_counter.36
 711      00
 712 0694 8B15AC02 		movl	LPBX1+620, %edx	 # *LPBX1, PROF_edge_counter.36
 712      0000
 713 069a 83C001   		addl	$1, %eax	 #, PROF_edge_counter.36
 714 069d 83D200   		adcl	$0, %edx	 #, PROF_edge_counter.36
 715 06a0 A3A80200 		movl	%eax, LPBX1+616	 # PROF_edge_counter.36, *LPBX1
 715      00
 716 06a5 8915AC02 		movl	%edx, LPBX1+620	 # PROF_edge_counter.36, *LPBX1
 716      0000
 717              	L28:
 718              		.loc 1 203 0 is_stmt 0 discriminator 1
 719 06ab 837C241C 		cmpl	$4, 28(%esp)	 #, i
 719      04
 720 06b0 0F8E7BFF 		jle	L30	 #,
 720      FFFF
 721              		.loc 1 203 0
 722 06b6 A1B80200 		movl	LPBX1+632, %eax	 # *LPBX1, PROF_edge_counter.36
GAS LISTING C:\cygwin\tmp\ccs5iBND.s 			page 17


 722      00
 723 06bb 8B15BC02 		movl	LPBX1+636, %edx	 # *LPBX1, PROF_edge_counter.36
 723      0000
 724 06c1 83C001   		addl	$1, %eax	 #, PROF_edge_counter.36
 725 06c4 83D200   		adcl	$0, %edx	 #, PROF_edge_counter.36
 726 06c7 A3B80200 		movl	%eax, LPBX1+632	 # PROF_edge_counter.36, *LPBX1
 726      00
 727 06cc 8915BC02 		movl	%edx, LPBX1+636	 # PROF_edge_counter.36, *LPBX1
 727      0000
 728              		.loc 1 206 0 is_stmt 1
 729 06d2 83C42C   		addl	$44, %esp	 #,
 730              	LCFI21:
 731              		.cfi_def_cfa_offset 4
 732 06d5 C3       		ret
 733              		.cfi_endproc
 734              	LFE19:
 735              		.globl	_test_wait_threads
 736              		.def	_test_wait_threads;	.scl	2;	.type	32;	.endef
 737              	_test_wait_threads:
 738              	LFB20:
 739              		.loc 1 211 0
 740              		.cfi_startproc
 741 06d6 83EC2C   		subl	$44, %esp	 #,
 742              	LCFI22:
 743              		.cfi_def_cfa_offset 48
 744              		.loc 1 214 0
 745 06d9 C744241C 		movl	$0, 28(%esp)	 #, i
 745      00000000 
 746 06e1 E9890000 		jmp	L32	 #
 746      00
 747              	L34:
 748 06e6 A1900200 		movl	LPBX1+592, %eax	 # *LPBX1, PROF_edge_counter.35
 748      00
 749 06eb 8B159402 		movl	LPBX1+596, %edx	 # *LPBX1, PROF_edge_counter.35
 749      0000
 750 06f1 83C001   		addl	$1, %eax	 #, PROF_edge_counter.35
 751 06f4 83D200   		adcl	$0, %edx	 #, PROF_edge_counter.35
 752 06f7 A3900200 		movl	%eax, LPBX1+592	 # PROF_edge_counter.35, *LPBX1
 752      00
 753 06fc 89159402 		movl	%edx, LPBX1+596	 # PROF_edge_counter.35, *LPBX1
 753      0000
 754              		.loc 1 215 0
 755 0702 8B44241C 		movl	28(%esp), %eax	 # i, tmp69
 756 0706 8B048500 		movl	_threads(,%eax,4), %eax	 # threads, D.36870
 756      000000
 757 070d 85C0     		testl	%eax, %eax	 # D.36870
 758 070f 743E     		je	L33	 #,
 759              		.loc 1 216 0
 760 0711 8B44241C 		movl	28(%esp), %eax	 # i, tmp70
 761 0715 8B048500 		movl	_threads(,%eax,4), %eax	 # threads, D.36873
 761      000000
 762 071c 890424   		movl	%eax, (%esp)	 # D.36873,
 763 071f E8000000 		call	_chThdWait	 #
 763      00
 764              		.loc 1 217 0
 765 0724 8B44241C 		movl	28(%esp), %eax	 # i, tmp71
 766 0728 C7048500 		movl	$0, _threads(,%eax,4)	 #, threads
GAS LISTING C:\cygwin\tmp\ccs5iBND.s 			page 18


 766      00000000 
 766      000000
 767 0733 A1800200 		movl	LPBX1+576, %eax	 # *LPBX1, PROF_edge_counter.35
 767      00
 768 0738 8B158402 		movl	LPBX1+580, %edx	 # *LPBX1, PROF_edge_counter.35
 768      0000
 769 073e 83C001   		addl	$1, %eax	 #, PROF_edge_counter.35
 770 0741 83D200   		adcl	$0, %edx	 #, PROF_edge_counter.35
 771 0744 A3800200 		movl	%eax, LPBX1+576	 # PROF_edge_counter.35, *LPBX1
 771      00
 772 0749 89158402 		movl	%edx, LPBX1+580	 # PROF_edge_counter.35, *LPBX1
 772      0000
 773              	L33:
 774              		.loc 1 214 0
 775 074f FF44241C 		incl	28(%esp)	 # i
 776 0753 A1880200 		movl	LPBX1+584, %eax	 # *LPBX1, PROF_edge_counter.35
 776      00
 777 0758 8B158C02 		movl	LPBX1+588, %edx	 # *LPBX1, PROF_edge_counter.35
 777      0000
 778 075e 83C001   		addl	$1, %eax	 #, PROF_edge_counter.35
 779 0761 83D200   		adcl	$0, %edx	 #, PROF_edge_counter.35
 780 0764 A3880200 		movl	%eax, LPBX1+584	 # PROF_edge_counter.35, *LPBX1
 780      00
 781 0769 89158C02 		movl	%edx, LPBX1+588	 # PROF_edge_counter.35, *LPBX1
 781      0000
 782              	L32:
 783              		.loc 1 214 0 is_stmt 0 discriminator 1
 784 076f 837C241C 		cmpl	$4, 28(%esp)	 #, i
 784      04
 785 0774 0F8E6CFF 		jle	L34	 #,
 785      FFFF
 786              		.loc 1 214 0
 787 077a A1980200 		movl	LPBX1+600, %eax	 # *LPBX1, PROF_edge_counter.35
 787      00
 788 077f 8B159C02 		movl	LPBX1+604, %edx	 # *LPBX1, PROF_edge_counter.35
 788      0000
 789 0785 83C001   		addl	$1, %eax	 #, PROF_edge_counter.35
 790 0788 83D200   		adcl	$0, %edx	 #, PROF_edge_counter.35
 791 078b A3980200 		movl	%eax, LPBX1+600	 # PROF_edge_counter.35, *LPBX1
 791      00
 792 0790 89159C02 		movl	%edx, LPBX1+604	 # PROF_edge_counter.35, *LPBX1
 792      0000
 793              		.loc 1 219 0 is_stmt 1
 794 0796 83C42C   		addl	$44, %esp	 #,
 795              	LCFI23:
 796              		.cfi_def_cfa_offset 4
 797 0799 C3       		ret
 798              		.cfi_endproc
 799              	LFE20:
 800              		.globl	_test_cpu_pulse
 801              		.def	_test_cpu_pulse;	.scl	2;	.type	32;	.endef
 802              	_test_cpu_pulse:
 803              	LFB21:
 804              		.loc 1 228 0
 805              		.cfi_startproc
 806 079a 83EC2C   		subl	$44, %esp	 #,
 807              	LCFI24:
GAS LISTING C:\cygwin\tmp\ccs5iBND.s 			page 19


 808              		.cfi_def_cfa_offset 48
 809              		.loc 1 231 0
 810 079d A1180000 		movl	_rlist+24, %eax	 # rlist.r_current, D.36850
 810      00
 811 07a2 8B4020   		movl	32(%eax), %eax	 # D.36850_4->p_time, tmp84
 812 07a5 8944241C 		movl	%eax, 28(%esp)	 # tmp84, start
 813              		.loc 1 232 0
 814 07a9 8B542430 		movl	48(%esp), %edx	 # duration, tmp85
 815 07ad 89D0     		movl	%edx, %eax	 # tmp85, tmp86
 816 07af C1E002   		sall	$2, %eax	 #, tmp86
 817 07b2 01D0     		addl	%edx, %eax	 # tmp85, tmp86
 818 07b4 8D148500 		leal	0(,%eax,4), %edx	 #, tmp87
 818      000000
 819 07bb 01D0     		addl	%edx, %eax	 # tmp87, tmp86
 820 07bd 8D148500 		leal	0(,%eax,4), %edx	 #, tmp88
 820      000000
 821 07c4 01D0     		addl	%edx, %eax	 # tmp88, tmp86
 822 07c6 C1E003   		sall	$3, %eax	 #, tmp89
 823 07c9 2DE80300 		subl	$1000, %eax	 #,
 823      00
 824 07ce 8944240C 		movl	%eax, 12(%esp)	 #, %sfp
 825 07d2 BAD34D62 		movl	$274877907, %edx	 #, tmp91
 825      10
 826 07d7 8B44240C 		movl	12(%esp), %eax	 # %sfp,
 827 07db F7E2     		mull	%edx	 # tmp91
 828 07dd 89D0     		movl	%edx, %eax	 # tmp90, D.36853
 829 07df C1E806   		shrl	$6, %eax	 #, D.36853
 830 07e2 0344241C 		addl	28(%esp), %eax	 # start, D.36854
 831 07e6 40       		incl	%eax	 # tmp92
 832 07e7 89442418 		movl	%eax, 24(%esp)	 # tmp92, end
 833 07eb A1400200 		movl	LPBX1+512, %eax	 # *LPBX1, PROF_edge_counter.34
 833      00
 834 07f0 8B154402 		movl	LPBX1+516, %edx	 # *LPBX1, PROF_edge_counter.34
 834      0000
 835 07f6 83C001   		addl	$1, %eax	 #, PROF_edge_counter.34
 836 07f9 83D200   		adcl	$0, %edx	 #, PROF_edge_counter.34
 837 07fc A3400200 		movl	%eax, LPBX1+512	 # PROF_edge_counter.34, *LPBX1
 837      00
 838 0801 89154402 		movl	%edx, LPBX1+516	 # PROF_edge_counter.34, *LPBX1
 838      0000
 839              	L43:
 840              		.loc 1 234 0
 841 0807 A1180000 		movl	_rlist+24, %eax	 # rlist.r_current, D.36855
 841      00
 842 080c 8B4020   		movl	32(%eax), %eax	 # D.36855_12->p_time, tmp93
 843 080f 89442414 		movl	%eax, 20(%esp)	 # tmp93, now
 844              		.loc 1 236 0
 845 0813 E8000000 		call	_ChkIntSources	 #
 845      00
 846              		.loc 1 239 0
 847 0818 8B442418 		movl	24(%esp), %eax	 # end, tmp94
 848 081c 3B44241C 		cmpl	28(%esp), %eax	 # start, tmp94
 849 0820 7676     		jbe	L36	 #,
 850              		.loc 1 239 0 is_stmt 0 discriminator 1
 851 0822 8B442414 		movl	20(%esp), %eax	 # now, tmp95
 852 0826 3B44241C 		cmpl	28(%esp), %eax	 # start, tmp95
 853 082a 722D     		jb	L37	 #,
GAS LISTING C:\cygwin\tmp\ccs5iBND.s 			page 20


 854              		.loc 1 239 0 discriminator 3
 855 082c A1480200 		movl	LPBX1+520, %eax	 # *LPBX1, PROF_edge_counter.34
 855      00
 856 0831 8B154C02 		movl	LPBX1+524, %edx	 # *LPBX1, PROF_edge_counter.34
 856      0000
 857 0837 83C001   		addl	$1, %eax	 #, PROF_edge_counter.34
 858 083a 83D200   		adcl	$0, %edx	 #, PROF_edge_counter.34
 859 083d A3480200 		movl	%eax, LPBX1+520	 # PROF_edge_counter.34, *LPBX1
 859      00
 860 0842 89154C02 		movl	%edx, LPBX1+524	 # PROF_edge_counter.34, *LPBX1
 860      0000
 861 0848 8B442414 		movl	20(%esp), %eax	 # now, tmp96
 862 084c 3B442418 		cmpl	24(%esp), %eax	 # end, tmp96
 863 0850 7307     		jae	L37	 #,
 864              		.loc 1 239 0 discriminator 1
 865 0852 B9010000 		movl	$1, %ecx	 #, iftmp.12
 865      00
 866 0857 EB21     		jmp	L38	 #
 867              	L37:
 868              		.loc 1 239 0 discriminator 4
 869 0859 B9000000 		movl	$0, %ecx	 #, iftmp.12
 869      00
 870 085e A1500200 		movl	LPBX1+528, %eax	 # *LPBX1, PROF_edge_counter.34
 870      00
 871 0863 8B155402 		movl	LPBX1+532, %edx	 # *LPBX1, PROF_edge_counter.34
 871      0000
 872 0869 83C001   		addl	$1, %eax	 #, PROF_edge_counter.34
 873 086c 83D200   		adcl	$0, %edx	 #, PROF_edge_counter.34
 874 086f A3500200 		movl	%eax, LPBX1+528	 # PROF_edge_counter.34, *LPBX1
 874      00
 875 0874 89155402 		movl	%edx, LPBX1+532	 # PROF_edge_counter.34, *LPBX1
 875      0000
 876              	L38:
 877              		.loc 1 239 0 discriminator 5
 878 087a A1580200 		movl	LPBX1+536, %eax	 # *LPBX1, PROF_edge_counter.34
 878      00
 879 087f 8B155C02 		movl	LPBX1+540, %edx	 # *LPBX1, PROF_edge_counter.34
 879      0000
 880 0885 83C001   		addl	$1, %eax	 #, PROF_edge_counter.34
 881 0888 83D200   		adcl	$0, %edx	 #, PROF_edge_counter.34
 882 088b A3580200 		movl	%eax, LPBX1+536	 # PROF_edge_counter.34, *LPBX1
 882      00
 883 0890 89155C02 		movl	%edx, LPBX1+540	 # PROF_edge_counter.34, *LPBX1
 883      0000
 884 0896 EB74     		jmp	L39	 #
 885              	L36:
 886              		.loc 1 239 0 discriminator 2
 887 0898 8B442414 		movl	20(%esp), %eax	 # now, tmp97
 888 089c 3B44241C 		cmpl	28(%esp), %eax	 # start, tmp97
 889 08a0 7326     		jae	L40	 #,
 890              		.loc 1 239 0
 891 08a2 A1600200 		movl	LPBX1+544, %eax	 # *LPBX1, PROF_edge_counter.34
 891      00
 892 08a7 8B156402 		movl	LPBX1+548, %edx	 # *LPBX1, PROF_edge_counter.34
 892      0000
 893 08ad 83C001   		addl	$1, %eax	 #, PROF_edge_counter.34
 894 08b0 83D200   		adcl	$0, %edx	 #, PROF_edge_counter.34
GAS LISTING C:\cygwin\tmp\ccs5iBND.s 			page 21


 895 08b3 A3600200 		movl	%eax, LPBX1+544	 # PROF_edge_counter.34, *LPBX1
 895      00
 896 08b8 89156402 		movl	%edx, LPBX1+548	 # PROF_edge_counter.34, *LPBX1
 896      0000
 897              		.loc 1 240 0 is_stmt 1
 898 08be 8B442414 		movl	20(%esp), %eax	 # now, tmp98
 899 08c2 3B442418 		cmpl	24(%esp), %eax	 # end, tmp98
 900 08c6 7307     		jae	L41	 #,
 901              	L40:
 902              		.loc 1 239 0 discriminator 6
 903 08c8 B9010000 		movl	$1, %ecx	 #, iftmp.13
 903      00
 904 08cd EB21     		jmp	L42	 #
 905              	L41:
 906              		.loc 1 239 0 is_stmt 0
 907 08cf B9000000 		movl	$0, %ecx	 #, iftmp.13
 907      00
 908 08d4 A1680200 		movl	LPBX1+552, %eax	 # *LPBX1, PROF_edge_counter.34
 908      00
 909 08d9 8B156C02 		movl	LPBX1+556, %edx	 # *LPBX1, PROF_edge_counter.34
 909      0000
 910 08df 83C001   		addl	$1, %eax	 #, PROF_edge_counter.34
 911 08e2 83D200   		adcl	$0, %edx	 #, PROF_edge_counter.34
 912 08e5 A3680200 		movl	%eax, LPBX1+552	 # PROF_edge_counter.34, *LPBX1
 912      00
 913 08ea 89156C02 		movl	%edx, LPBX1+556	 # PROF_edge_counter.34, *LPBX1
 913      0000
 914              	L42:
 915              		.loc 1 239 0 discriminator 7
 916 08f0 A1700200 		movl	LPBX1+560, %eax	 # *LPBX1, PROF_edge_counter.34
 916      00
 917 08f5 8B157402 		movl	LPBX1+564, %edx	 # *LPBX1, PROF_edge_counter.34
 917      0000
 918 08fb 83C001   		addl	$1, %eax	 #, PROF_edge_counter.34
 919 08fe 83D200   		adcl	$0, %edx	 #, PROF_edge_counter.34
 920 0901 A3700200 		movl	%eax, LPBX1+560	 # PROF_edge_counter.34, *LPBX1
 920      00
 921 0906 89157402 		movl	%edx, LPBX1+564	 # PROF_edge_counter.34, *LPBX1
 921      0000
 922              	L39:
 923              		.loc 1 240 0 is_stmt 1
 924 090c 84C9     		testb	%cl, %cl	 # iftmp.11
 925 090e 0F85F3FE 		jne	L43	 #,
 925      FFFF
 926 0914 A1780200 		movl	LPBX1+568, %eax	 # *LPBX1, PROF_edge_counter.34
 926      00
 927 0919 8B157C02 		movl	LPBX1+572, %edx	 # *LPBX1, PROF_edge_counter.34
 927      0000
 928 091f 83C001   		addl	$1, %eax	 #, PROF_edge_counter.34
 929 0922 83D200   		adcl	$0, %edx	 #, PROF_edge_counter.34
 930 0925 A3780200 		movl	%eax, LPBX1+568	 # PROF_edge_counter.34, *LPBX1
 930      00
 931 092a 89157C02 		movl	%edx, LPBX1+572	 # PROF_edge_counter.34, *LPBX1
 931      0000
 932              		.loc 1 241 0
 933 0930 83C42C   		addl	$44, %esp	 #,
 934              	LCFI25:
GAS LISTING C:\cygwin\tmp\ccs5iBND.s 			page 22


 935              		.cfi_def_cfa_offset 4
 936 0933 C3       		ret
 937              		.cfi_endproc
 938              	LFE21:
 939              		.globl	_test_wait_tick
 940              		.def	_test_wait_tick;	.scl	2;	.type	32;	.endef
 941              	_test_wait_tick:
 942              	LFB22:
 943              		.loc 1 249 0
 944              		.cfi_startproc
 945 0934 83EC1C   		subl	$28, %esp	 #,
 946              	LCFI26:
 947              		.cfi_def_cfa_offset 32
 948              		.loc 1 249 0
 949 0937 A1300200 		movl	LPBX1+496, %eax	 # *LPBX1, PROF_edge_counter.33
 949      00
 950 093c 8B153402 		movl	LPBX1+500, %edx	 # *LPBX1, PROF_edge_counter.33
 950      0000
 951 0942 83C001   		addl	$1, %eax	 #, PROF_edge_counter.33
 952 0945 83D200   		adcl	$0, %edx	 #, PROF_edge_counter.33
 953 0948 A3300200 		movl	%eax, LPBX1+496	 # PROF_edge_counter.33, *LPBX1
 953      00
 954 094d 89153402 		movl	%edx, LPBX1+500	 # PROF_edge_counter.33, *LPBX1
 954      0000
 955              		.loc 1 251 0
 956 0953 C7042401 		movl	$1, (%esp)	 #,
 956      000000
 957 095a E8000000 		call	_chThdSleep	 #
 957      00
 958 095f A1380200 		movl	LPBX1+504, %eax	 # *LPBX1, PROF_edge_counter.33
 958      00
 959 0964 8B153C02 		movl	LPBX1+508, %edx	 # *LPBX1, PROF_edge_counter.33
 959      0000
 960 096a 83C001   		addl	$1, %eax	 #, PROF_edge_counter.33
 961 096d 83D200   		adcl	$0, %edx	 #, PROF_edge_counter.33
 962 0970 A3380200 		movl	%eax, LPBX1+504	 # PROF_edge_counter.33, *LPBX1
 962      00
 963 0975 89153C02 		movl	%edx, LPBX1+508	 # PROF_edge_counter.33, *LPBX1
 963      0000
 964              		.loc 1 252 0
 965 097b A10C0000 		movl	_vtlist+12, %eax	 # vtlist.vt_systime, D.36848
 965      00
 966              		.loc 1 253 0
 967 0980 83C41C   		addl	$28, %esp	 #,
 968              	LCFI27:
 969              		.cfi_def_cfa_offset 4
 970 0983 C3       		ret
 971              		.cfi_endproc
 972              	LFE22:
 973              		.comm	_test_timer_done, 1, 0
 974              	.lcomm _vt,20,4
 975              		.def	_tmr;	.scl	3;	.type	32;	.endef
 976              	_tmr:
 977              	LFB23:
 978              		.loc 1 265 0
 979              		.cfi_startproc
 980 0984 83EC04   		subl	$4, %esp	 #,
GAS LISTING C:\cygwin\tmp\ccs5iBND.s 			page 23


 981              	LCFI28:
 982              		.cfi_def_cfa_offset 8
 983              		.loc 1 265 0
 984 0987 A1280200 		movl	LPBX1+488, %eax	 # *LPBX1, PROF_edge_counter.32
 984      00
 985 098c 8B152C02 		movl	LPBX1+492, %edx	 # *LPBX1, PROF_edge_counter.32
 985      0000
 986 0992 83C001   		addl	$1, %eax	 #, PROF_edge_counter.32
 987 0995 83D200   		adcl	$0, %edx	 #, PROF_edge_counter.32
 988 0998 A3280200 		movl	%eax, LPBX1+488	 # PROF_edge_counter.32, *LPBX1
 988      00
 989 099d 89152C02 		movl	%edx, LPBX1+492	 # PROF_edge_counter.32, *LPBX1
 989      0000
 990              		.loc 1 268 0
 991 09a3 C6050000 		movb	$1, _test_timer_done	 #, test_timer_done
 991      000001
 992              		.loc 1 269 0
 993 09aa 83C404   		addl	$4, %esp	 #,
 994              	LCFI29:
 995              		.cfi_def_cfa_offset 4
 996 09ad C3       		ret
 997              		.cfi_endproc
 998              	LFE23:
 999              		.globl	_test_start_timer
 1000              		.def	_test_start_timer;	.scl	2;	.type	32;	.endef
 1001              	_test_start_timer:
 1002              	LFB24:
 1003              		.loc 1 276 0
 1004              		.cfi_startproc
 1005 09ae 83EC3C   		subl	$60, %esp	 #,
 1006              	LCFI30:
 1007              		.cfi_def_cfa_offset 64
 1008              		.loc 1 276 0
 1009 09b1 A1080200 		movl	LPBX1+456, %eax	 # *LPBX1, PROF_edge_counter.31
 1009      00
 1010 09b6 8B150C02 		movl	LPBX1+460, %edx	 # *LPBX1, PROF_edge_counter.31
 1010      0000
 1011 09bc 83C001   		addl	$1, %eax	 #, PROF_edge_counter.31
 1012 09bf 83D200   		adcl	$0, %edx	 #, PROF_edge_counter.31
 1013 09c2 A3080200 		movl	%eax, LPBX1+456	 # PROF_edge_counter.31, *LPBX1
 1013      00
 1014 09c7 89150C02 		movl	%edx, LPBX1+460	 # PROF_edge_counter.31, *LPBX1
 1014      0000
 1015              		.loc 1 278 0
 1016 09cd 8B542440 		movl	64(%esp), %edx	 # ms, tmp70
 1017 09d1 89D0     		movl	%edx, %eax	 # tmp70, tmp71
 1018 09d3 C1E002   		sall	$2, %eax	 #, tmp71
 1019 09d6 01D0     		addl	%edx, %eax	 # tmp70, tmp71
 1020 09d8 8D148500 		leal	0(,%eax,4), %edx	 #, tmp72
 1020      000000
 1021 09df 01D0     		addl	%edx, %eax	 # tmp72, tmp71
 1022 09e1 8D148500 		leal	0(,%eax,4), %edx	 #, tmp73
 1022      000000
 1023 09e8 01D0     		addl	%edx, %eax	 # tmp73, tmp71
 1024 09ea C1E003   		sall	$3, %eax	 #, tmp74
 1025 09ed 2DE80300 		subl	$1000, %eax	 #,
 1025      00
GAS LISTING C:\cygwin\tmp\ccs5iBND.s 			page 24


 1026 09f2 8944241C 		movl	%eax, 28(%esp)	 #, %sfp
 1027 09f6 BAD34D62 		movl	$274877907, %edx	 #, tmp76
 1027      10
 1028 09fb 8B44241C 		movl	28(%esp), %eax	 # %sfp,
 1029 09ff F7E2     		mull	%edx	 # tmp76
 1030 0a01 89D0     		movl	%edx, %eax	 # tmp75, D.36847
 1031 0a03 C1E806   		shrl	$6, %eax	 #, D.36847
 1032 0a06 40       		incl	%eax	 # tmp77
 1033 0a07 8944242C 		movl	%eax, 44(%esp)	 # tmp77, duration
 1034              		.loc 1 279 0
 1035 0a0b C6050000 		movb	$0, _test_timer_done	 #, test_timer_done
 1035      000000
 1036              		.loc 1 280 0
 1037              	/APP
 1038              	 # 280 "../../test/test.c" 1
 1039 0a12 90       		nop
 1040              	 # 0 "" 2
 1041              	/NO_APP
 1042 0a13 A1100200 		movl	LPBX1+464, %eax	 # *LPBX1, PROF_edge_counter.31
 1042      00
 1043 0a18 8B151402 		movl	LPBX1+468, %edx	 # *LPBX1, PROF_edge_counter.31
 1043      0000
 1044 0a1e 83C001   		addl	$1, %eax	 #, PROF_edge_counter.31
 1045 0a21 83D200   		adcl	$0, %edx	 #, PROF_edge_counter.31
 1046 0a24 A3100200 		movl	%eax, LPBX1+464	 # PROF_edge_counter.31, *LPBX1
 1046      00
 1047 0a29 89151402 		movl	%edx, LPBX1+468	 # PROF_edge_counter.31, *LPBX1
 1047      0000
 1048 0a2f C744240C 		movl	$0, 12(%esp)	 #,
 1048      00000000 
 1049 0a37 C7442408 		movl	$_tmr, 8(%esp)	 #,
 1049      84090000 
 1050 0a3f 8B44242C 		movl	44(%esp), %eax	 # duration, tmp78
 1051 0a43 89442404 		movl	%eax, 4(%esp)	 # tmp78,
 1052 0a47 C7042420 		movl	$_vt, (%esp)	 #,
 1052      000000
 1053 0a4e E8000000 		call	_chVTSetI	 #
 1053      00
 1054 0a53 A1180200 		movl	LPBX1+472, %eax	 # *LPBX1, PROF_edge_counter.31
 1054      00
 1055 0a58 8B151C02 		movl	LPBX1+476, %edx	 # *LPBX1, PROF_edge_counter.31
 1055      0000
 1056 0a5e 83C001   		addl	$1, %eax	 #, PROF_edge_counter.31
 1057 0a61 83D200   		adcl	$0, %edx	 #, PROF_edge_counter.31
 1058 0a64 A3180200 		movl	%eax, LPBX1+472	 # PROF_edge_counter.31, *LPBX1
 1058      00
 1059 0a69 89151C02 		movl	%edx, LPBX1+476	 # PROF_edge_counter.31, *LPBX1
 1059      0000
 1060              	/APP
 1061              	 # 280 "../../test/test.c" 1
 1062 0a6f 90       		nop
 1063              	 # 0 "" 2
 1064              	/NO_APP
 1065 0a70 A1200200 		movl	LPBX1+480, %eax	 # *LPBX1, PROF_edge_counter.31
 1065      00
 1066 0a75 8B152402 		movl	LPBX1+484, %edx	 # *LPBX1, PROF_edge_counter.31
 1066      0000
GAS LISTING C:\cygwin\tmp\ccs5iBND.s 			page 25


 1067 0a7b 83C001   		addl	$1, %eax	 #, PROF_edge_counter.31
 1068 0a7e 83D200   		adcl	$0, %edx	 #, PROF_edge_counter.31
 1069 0a81 A3200200 		movl	%eax, LPBX1+480	 # PROF_edge_counter.31, *LPBX1
 1069      00
 1070 0a86 89152402 		movl	%edx, LPBX1+484	 # PROF_edge_counter.31, *LPBX1
 1070      0000
 1071              		.loc 1 281 0
 1072 0a8c 83C43C   		addl	$60, %esp	 #,
 1073              	LCFI31:
 1074              		.cfi_def_cfa_offset 4
 1075 0a8f C3       		ret
 1076              		.cfi_endproc
 1077              	LFE24:
 1078              		.def	_execute_test;	.scl	3;	.type	32;	.endef
 1079              	_execute_test:
 1080              	LFB25:
 1081              		.loc 1 286 0
 1082              		.cfi_startproc
 1083 0a90 83EC1C   		subl	$28, %esp	 #,
 1084              	LCFI32:
 1085              		.cfi_def_cfa_offset 32
 1086              		.loc 1 286 0
 1087 0a93 A1C00100 		movl	LPBX1+384, %eax	 # *LPBX1, PROF_edge_counter.30
 1087      00
 1088 0a98 8B15C401 		movl	LPBX1+388, %edx	 # *LPBX1, PROF_edge_counter.30
 1088      0000
 1089 0a9e 83C001   		addl	$1, %eax	 #, PROF_edge_counter.30
 1090 0aa1 83D200   		adcl	$0, %edx	 #, PROF_edge_counter.30
 1091 0aa4 A3C00100 		movl	%eax, LPBX1+384	 # PROF_edge_counter.30, *LPBX1
 1091      00
 1092 0aa9 8915C401 		movl	%edx, LPBX1+388	 # PROF_edge_counter.30, *LPBX1
 1092      0000
 1093              		.loc 1 290 0
 1094 0aaf E8B8F7FF 		call	_clear_tokens	 #
 1094      FF
 1095              		.loc 1 291 0
 1096 0ab4 C6050000 		movb	$0, _local_fail	 #, local_fail
 1096      000000
 1097              		.loc 1 292 0
 1098 0abb C744240C 		movl	$0, 12(%esp)	 #, i
 1098      00000000 
 1099 0ac3 EB2F     		jmp	L48	 #
 1100              	L49:
 1101              		.loc 1 292 0 is_stmt 0 discriminator 2
 1102 0ac5 A1C80100 		movl	LPBX1+392, %eax	 # *LPBX1, PROF_edge_counter.30
 1102      00
 1103 0aca 8B15CC01 		movl	LPBX1+396, %edx	 # *LPBX1, PROF_edge_counter.30
 1103      0000
 1104 0ad0 83C001   		addl	$1, %eax	 #, PROF_edge_counter.30
 1105 0ad3 83D200   		adcl	$0, %edx	 #, PROF_edge_counter.30
 1106 0ad6 A3C80100 		movl	%eax, LPBX1+392	 # PROF_edge_counter.30, *LPBX1
 1106      00
 1107 0adb 8915CC01 		movl	%edx, LPBX1+396	 # PROF_edge_counter.30, *LPBX1
 1107      0000
 1108              		.loc 1 293 0 is_stmt 1 discriminator 2
 1109 0ae1 8B44240C 		movl	12(%esp), %eax	 # i, tmp82
 1110 0ae5 C7048500 		movl	$0, _threads(,%eax,4)	 #, threads
GAS LISTING C:\cygwin\tmp\ccs5iBND.s 			page 26


 1110      00000000 
 1110      000000
 1111              		.loc 1 292 0 discriminator 2
 1112 0af0 FF44240C 		incl	12(%esp)	 # i
 1113              	L48:
 1114              		.loc 1 292 0 is_stmt 0 discriminator 1
 1115 0af4 837C240C 		cmpl	$4, 12(%esp)	 #, i
 1115      04
 1116 0af9 7ECA     		jle	L49	 #,
 1117              		.loc 1 292 0
 1118 0afb A1D00100 		movl	LPBX1+400, %eax	 # *LPBX1, PROF_edge_counter.30
 1118      00
 1119 0b00 8B15D401 		movl	LPBX1+404, %edx	 # *LPBX1, PROF_edge_counter.30
 1119      0000
 1120 0b06 83C001   		addl	$1, %eax	 #, PROF_edge_counter.30
 1121 0b09 83D200   		adcl	$0, %edx	 #, PROF_edge_counter.30
 1122 0b0c A3D00100 		movl	%eax, LPBX1+400	 # PROF_edge_counter.30, *LPBX1
 1122      00
 1123 0b11 8915D401 		movl	%edx, LPBX1+404	 # PROF_edge_counter.30, *LPBX1
 1123      0000
 1124              		.loc 1 295 0 is_stmt 1
 1125 0b17 8B442420 		movl	32(%esp), %eax	 # tcp, tmp83
 1126 0b1b 8B4004   		movl	4(%eax), %eax	 # tcp_4(D)->setup, D.36836
 1127 0b1e 85C0     		testl	%eax, %eax	 # D.36836
 1128 0b20 7441     		je	L50	 #,
 1129 0b22 A1D80100 		movl	LPBX1+408, %eax	 # *LPBX1, PROF_edge_counter.30
 1129      00
 1130 0b27 8B15DC01 		movl	LPBX1+412, %edx	 # *LPBX1, PROF_edge_counter.30
 1130      0000
 1131 0b2d 83C001   		addl	$1, %eax	 #, PROF_edge_counter.30
 1132 0b30 83D200   		adcl	$0, %edx	 #, PROF_edge_counter.30
 1133 0b33 A3D80100 		movl	%eax, LPBX1+408	 # PROF_edge_counter.30, *LPBX1
 1133      00
 1134 0b38 8915DC01 		movl	%edx, LPBX1+412	 # PROF_edge_counter.30, *LPBX1
 1134      0000
 1135              		.loc 1 296 0
 1136 0b3e 8B442420 		movl	32(%esp), %eax	 # tcp, tmp84
 1137 0b42 8B4004   		movl	4(%eax), %eax	 # tcp_4(D)->setup, D.36839
 1138 0b45 FFD0     		call	*%eax	 # D.36839
 1139 0b47 A1E00100 		movl	LPBX1+416, %eax	 # *LPBX1, PROF_edge_counter.30
 1139      00
 1140 0b4c 8B15E401 		movl	LPBX1+420, %edx	 # *LPBX1, PROF_edge_counter.30
 1140      0000
 1141 0b52 83C001   		addl	$1, %eax	 #, PROF_edge_counter.30
 1142 0b55 83D200   		adcl	$0, %edx	 #, PROF_edge_counter.30
 1143 0b58 A3E00100 		movl	%eax, LPBX1+416	 # PROF_edge_counter.30, *LPBX1
 1143      00
 1144 0b5d 8915E401 		movl	%edx, LPBX1+420	 # PROF_edge_counter.30, *LPBX1
 1144      0000
 1145              	L50:
 1146              		.loc 1 297 0
 1147 0b63 8B442420 		movl	32(%esp), %eax	 # tcp, tmp85
 1148 0b67 8B400C   		movl	12(%eax), %eax	 # tcp_4(D)->execute, D.36840
 1149 0b6a FFD0     		call	*%eax	 # D.36840
 1150 0b6c A1E80100 		movl	LPBX1+424, %eax	 # *LPBX1, PROF_edge_counter.30
 1150      00
 1151 0b71 8B15EC01 		movl	LPBX1+428, %edx	 # *LPBX1, PROF_edge_counter.30
GAS LISTING C:\cygwin\tmp\ccs5iBND.s 			page 27


 1151      0000
 1152 0b77 83C001   		addl	$1, %eax	 #, PROF_edge_counter.30
 1153 0b7a 83D200   		adcl	$0, %edx	 #, PROF_edge_counter.30
 1154 0b7d A3E80100 		movl	%eax, LPBX1+424	 # PROF_edge_counter.30, *LPBX1
 1154      00
 1155 0b82 8915EC01 		movl	%edx, LPBX1+428	 # PROF_edge_counter.30, *LPBX1
 1155      0000
 1156              		.loc 1 298 0
 1157 0b88 8B442420 		movl	32(%esp), %eax	 # tcp, tmp86
 1158 0b8c 8B4008   		movl	8(%eax), %eax	 # tcp_4(D)->teardown, D.36841
 1159 0b8f 85C0     		testl	%eax, %eax	 # D.36841
 1160 0b91 7441     		je	L51	 #,
 1161 0b93 A1F00100 		movl	LPBX1+432, %eax	 # *LPBX1, PROF_edge_counter.30
 1161      00
 1162 0b98 8B15F401 		movl	LPBX1+436, %edx	 # *LPBX1, PROF_edge_counter.30
 1162      0000
 1163 0b9e 83C001   		addl	$1, %eax	 #, PROF_edge_counter.30
 1164 0ba1 83D200   		adcl	$0, %edx	 #, PROF_edge_counter.30
 1165 0ba4 A3F00100 		movl	%eax, LPBX1+432	 # PROF_edge_counter.30, *LPBX1
 1165      00
 1166 0ba9 8915F401 		movl	%edx, LPBX1+436	 # PROF_edge_counter.30, *LPBX1
 1166      0000
 1167              		.loc 1 299 0
 1168 0baf 8B442420 		movl	32(%esp), %eax	 # tcp, tmp87
 1169 0bb3 8B4008   		movl	8(%eax), %eax	 # tcp_4(D)->teardown, D.36844
 1170 0bb6 FFD0     		call	*%eax	 # D.36844
 1171 0bb8 A1F80100 		movl	LPBX1+440, %eax	 # *LPBX1, PROF_edge_counter.30
 1171      00
 1172 0bbd 8B15FC01 		movl	LPBX1+444, %edx	 # *LPBX1, PROF_edge_counter.30
 1172      0000
 1173 0bc3 83C001   		addl	$1, %eax	 #, PROF_edge_counter.30
 1174 0bc6 83D200   		adcl	$0, %edx	 #, PROF_edge_counter.30
 1175 0bc9 A3F80100 		movl	%eax, LPBX1+440	 # PROF_edge_counter.30, *LPBX1
 1175      00
 1176 0bce 8915FC01 		movl	%edx, LPBX1+444	 # PROF_edge_counter.30, *LPBX1
 1176      0000
 1177              	L51:
 1178              		.loc 1 301 0
 1179 0bd4 E8FDFAFF 		call	_test_wait_threads	 #
 1179      FF
 1180 0bd9 A1000200 		movl	LPBX1+448, %eax	 # *LPBX1, PROF_edge_counter.30
 1180      00
 1181 0bde 8B150402 		movl	LPBX1+452, %edx	 # *LPBX1, PROF_edge_counter.30
 1181      0000
 1182 0be4 83C001   		addl	$1, %eax	 #, PROF_edge_counter.30
 1183 0be7 83D200   		adcl	$0, %edx	 #, PROF_edge_counter.30
 1184 0bea A3000200 		movl	%eax, LPBX1+448	 # PROF_edge_counter.30, *LPBX1
 1184      00
 1185 0bef 89150402 		movl	%edx, LPBX1+452	 # PROF_edge_counter.30, *LPBX1
 1185      0000
 1186              		.loc 1 302 0
 1187 0bf5 83C41C   		addl	$28, %esp	 #,
 1188              	LCFI33:
 1189              		.cfi_def_cfa_offset 4
 1190 0bf8 C3       		ret
 1191              		.cfi_endproc
 1192              	LFE25:
GAS LISTING C:\cygwin\tmp\ccs5iBND.s 			page 28


 1193              		.def	_print_line;	.scl	3;	.type	32;	.endef
 1194              	_print_line:
 1195              	LFB26:
 1196              		.loc 1 304 0
 1197              		.cfi_startproc
 1198 0bf9 83EC2C   		subl	$44, %esp	 #,
 1199              	LCFI34:
 1200              		.cfi_def_cfa_offset 48
 1201              		.loc 1 307 0
 1202 0bfc C744241C 		movl	$0, 28(%esp)	 #, i
 1202      00000000 
 1203 0c04 EB58     		jmp	L53	 #
 1204              	L54:
 1205              		.loc 1 307 0 is_stmt 0 discriminator 2
 1206 0c06 A1A80100 		movl	LPBX1+360, %eax	 # *LPBX1, PROF_edge_counter.29
 1206      00
 1207 0c0b 8B15AC01 		movl	LPBX1+364, %edx	 # *LPBX1, PROF_edge_counter.29
 1207      0000
 1208 0c11 83C001   		addl	$1, %eax	 #, PROF_edge_counter.29
 1209 0c14 83D200   		adcl	$0, %edx	 #, PROF_edge_counter.29
 1210 0c17 A3A80100 		movl	%eax, LPBX1+360	 # PROF_edge_counter.29, *LPBX1
 1210      00
 1211 0c1c 8915AC01 		movl	%edx, LPBX1+364	 # PROF_edge_counter.29, *LPBX1
 1211      0000
 1212              		.loc 1 308 0 is_stmt 1 discriminator 2
 1213 0c22 A11C0000 		movl	_chp, %eax	 # chp, chp.7
 1213      00
 1214 0c27 8B00     		movl	(%eax), %eax	 # chp.7_3->vmt, D.36829
 1215 0c29 8B5008   		movl	8(%eax), %edx	 # D.36829_4->put, D.36830
 1216 0c2c A11C0000 		movl	_chp, %eax	 # chp, chp.8
 1216      00
 1217 0c31 C7442404 		movl	$45, 4(%esp)	 #,
 1217      2D000000 
 1218 0c39 890424   		movl	%eax, (%esp)	 # chp.8,
 1219 0c3c FFD2     		call	*%edx	 # D.36830
 1220              		.loc 1 307 0 discriminator 2
 1221 0c3e FF44241C 		incl	28(%esp)	 # i
 1222 0c42 A1A00100 		movl	LPBX1+352, %eax	 # *LPBX1, PROF_edge_counter.29
 1222      00
 1223 0c47 8B15A401 		movl	LPBX1+356, %edx	 # *LPBX1, PROF_edge_counter.29
 1223      0000
 1224 0c4d 83C001   		addl	$1, %eax	 #, PROF_edge_counter.29
 1225 0c50 83D200   		adcl	$0, %edx	 #, PROF_edge_counter.29
 1226 0c53 A3A00100 		movl	%eax, LPBX1+352	 # PROF_edge_counter.29, *LPBX1
 1226      00
 1227 0c58 8915A401 		movl	%edx, LPBX1+356	 # PROF_edge_counter.29, *LPBX1
 1227      0000
 1228              	L53:
 1229              		.loc 1 307 0 is_stmt 0 discriminator 1
 1230 0c5e 837C241C 		cmpl	$75, 28(%esp)	 #, i
 1230      4B
 1231 0c63 76A1     		jbe	L54	 #,
 1232              		.loc 1 307 0
 1233 0c65 A1B00100 		movl	LPBX1+368, %eax	 # *LPBX1, PROF_edge_counter.29
 1233      00
 1234 0c6a 8B15B401 		movl	LPBX1+372, %edx	 # *LPBX1, PROF_edge_counter.29
 1234      0000
GAS LISTING C:\cygwin\tmp\ccs5iBND.s 			page 29


 1235 0c70 83C001   		addl	$1, %eax	 #, PROF_edge_counter.29
 1236 0c73 83D200   		adcl	$0, %edx	 #, PROF_edge_counter.29
 1237 0c76 A3B00100 		movl	%eax, LPBX1+368	 # PROF_edge_counter.29, *LPBX1
 1237      00
 1238 0c7b 8915B401 		movl	%edx, LPBX1+372	 # PROF_edge_counter.29, *LPBX1
 1238      0000
 1239              		.loc 1 309 0 is_stmt 1
 1240 0c81 A11C0000 		movl	_chp, %eax	 # chp, chp.9
 1240      00
 1241 0c86 8B00     		movl	(%eax), %eax	 # chp.9_8->vmt, D.36833
 1242 0c88 8B10     		movl	(%eax), %edx	 # D.36833_9->write, D.36834
 1243 0c8a A11C0000 		movl	_chp, %eax	 # chp, chp.10
 1243      00
 1244 0c8f C7442408 		movl	$2, 8(%esp)	 #,
 1244      02000000 
 1245 0c97 C7442404 		movl	$LC0, 4(%esp)	 #,
 1245      14000000 
 1246 0c9f 890424   		movl	%eax, (%esp)	 # chp.10,
 1247 0ca2 FFD2     		call	*%edx	 # D.36834
 1248 0ca4 A1B80100 		movl	LPBX1+376, %eax	 # *LPBX1, PROF_edge_counter.29
 1248      00
 1249 0ca9 8B15BC01 		movl	LPBX1+380, %edx	 # *LPBX1, PROF_edge_counter.29
 1249      0000
 1250 0caf 83C001   		addl	$1, %eax	 #, PROF_edge_counter.29
 1251 0cb2 83D200   		adcl	$0, %edx	 #, PROF_edge_counter.29
 1252 0cb5 A3B80100 		movl	%eax, LPBX1+376	 # PROF_edge_counter.29, *LPBX1
 1252      00
 1253 0cba 8915BC01 		movl	%edx, LPBX1+380	 # PROF_edge_counter.29, *LPBX1
 1253      0000
 1254              		.loc 1 310 0
 1255 0cc0 83C42C   		addl	$44, %esp	 #,
 1256              	LCFI35:
 1257              		.cfi_def_cfa_offset 4
 1258 0cc3 C3       		ret
 1259              		.cfi_endproc
 1260              	LFE26:
 1261              		.section .rdata,"dr"
 1262              	LC1:
 1263 0017 00       		.ascii "\0"
 1264              	LC2:
 1265 0018 2A2A2A20 		.ascii "*** ChibiOS/RT test suite\0"
 1265      43686962 
 1265      694F532F 
 1265      52542074 
 1265      65737420 
 1266              	LC3:
 1267 0032 2A2A2A00 		.ascii "***\0"
 1268              	LC4:
 1269 0036 2A2A2A20 		.ascii "*** Kernel:       \0"
 1269      4B65726E 
 1269      656C3A20 
 1269      20202020 
 1269      202000
 1270              	LC5:
 1271 0049 322E352E 		.ascii "2.5.2unstable\0"
 1271      32756E73 
 1271      7461626C 
GAS LISTING C:\cygwin\tmp\ccs5iBND.s 			page 30


 1271      6500
 1272              	LC6:
 1273 0057 2A2A2A20 		.ascii "*** Compiled:     \0"
 1273      436F6D70 
 1273      696C6564 
 1273      3A202020 
 1273      202000
 1274              	LC7:
 1275 006a 4D617220 		.ascii "Mar 14 2013 - 04:38:52\0"
 1275      31342032 
 1275      30313320 
 1275      2D203034 
 1275      3A33383A 
 1276              	LC8:
 1277 0081 2A2A2A20 		.ascii "*** Compiler:     \0"
 1277      436F6D70 
 1277      696C6572 
 1277      3A202020 
 1277      202000
 1278              	LC9:
 1279 0094 47434320 		.ascii "GCC 4.6.2\0"
 1279      342E362E 
 1279      3200
 1280              	LC10:
 1281 009e 2A2A2A20 		.ascii "*** Architecture: \0"
 1281      41726368 
 1281      69746563 
 1281      74757265 
 1281      3A2000
 1282              	LC11:
 1283 00b1 53696D75 		.ascii "Simulator\0"
 1283      6C61746F 
 1283      7200
 1284              	LC12:
 1285 00bb 2A2A2A20 		.ascii "*** Core Variant: \0"
 1285      436F7265 
 1285      20566172 
 1285      69616E74 
 1285      3A2000
 1286              	LC13:
 1287 00ce 78383620 		.ascii "x86 (integer only)\0"
 1287      28696E74 
 1287      65676572 
 1287      206F6E6C 
 1287      792900
 1288              	LC14:
 1289 00e1 2A2A2A20 		.ascii "*** Port Info:    \0"
 1289      506F7274 
 1289      20496E66 
 1289      6F3A2020 
 1289      202000
 1290              	LC15:
 1291 00f4 4E6F2070 		.ascii "No preemption\0"
 1291      7265656D 
 1291      7074696F 
 1291      6E00
 1292              	LC16:
GAS LISTING C:\cygwin\tmp\ccs5iBND.s 			page 31


 1293 0102 2A2A2A20 		.ascii "*** Platform:     \0"
 1293      506C6174 
 1293      666F726D 
 1293      3A202020 
 1293      202000
 1294              	LC17:
 1295 0115 57696E33 		.ascii "Win32\0"
 1295      3200
 1296              	LC18:
 1297 011b 2D2D2D20 		.ascii "--- Test Case \0"
 1297      54657374 
 1297      20436173 
 1297      652000
 1298              	LC19:
 1299 012a 2E00     		.ascii ".\0"
 1300              	LC20:
 1301 012c 202800   		.ascii " (\0"
 1302              	LC21:
 1303 012f 2900     		.ascii ")\0"
 1304              	LC22:
 1305 0131 2D2D2D20 		.ascii "--- Result: FAILURE (#\0"
 1305      52657375 
 1305      6C743A20 
 1305      4641494C 
 1305      55524520 
 1306              	LC23:
 1307 0148 205B00   		.ascii " [\0"
 1308              	LC24:
 1309 014b 5D2900   		.ascii "])\0"
 1310              	LC25:
 1311 014e 2D2D2D20 		.ascii "--- Result: SUCCESS\0"
 1311      52657375 
 1311      6C743A20 
 1311      53554343 
 1311      45535300 
 1312              	LC26:
 1313 0162 46696E61 		.ascii "Final result: \0"
 1313      6C207265 
 1313      73756C74 
 1313      3A2000
 1314              	LC27:
 1315 0171 4641494C 		.ascii "FAILURE\0"
 1315      55524500 
 1316              	LC28:
 1317 0179 53554343 		.ascii "SUCCESS\0"
 1317      45535300 
 1318              		.text
 1319              		.globl	_TestThread
 1320              		.def	_TestThread;	.scl	2;	.type	32;	.endef
 1321              	_TestThread:
 1322              	LFB27:
 1323              		.loc 1 318 0
 1324              		.cfi_startproc
 1325 0cc4 83EC2C   		subl	$44, %esp	 #,
 1326              	LCFI36:
 1327              		.cfi_def_cfa_offset 48
 1328              		.loc 1 318 0
GAS LISTING C:\cygwin\tmp\ccs5iBND.s 			page 32


 1329 0cc7 A1400000 		movl	LPBX1, %eax	 # *LPBX1, PROF_edge_counter.28
 1329      00
 1330 0ccc 8B154400 		movl	LPBX1+4, %edx	 # *LPBX1, PROF_edge_counter.28
 1330      0000
 1331 0cd2 83C001   		addl	$1, %eax	 #, PROF_edge_counter.28
 1332 0cd5 83D200   		adcl	$0, %edx	 #, PROF_edge_counter.28
 1333 0cd8 A3400000 		movl	%eax, LPBX1	 # PROF_edge_counter.28, *LPBX1
 1333      00
 1334 0cdd 89154400 		movl	%edx, LPBX1+4	 # PROF_edge_counter.28, *LPBX1
 1334      0000
 1335              		.loc 1 321 0
 1336 0ce3 8B442430 		movl	48(%esp), %eax	 # p, tmp174
 1337 0ce7 A31C0000 		movl	%eax, _chp	 # tmp174, chp
 1337      00
 1338              		.loc 1 322 0
 1339 0cec C7042417 		movl	$LC1, (%esp)	 #,
 1339      000000
 1340 0cf3 E8EAF4FF 		call	_test_println	 #
 1340      FF
 1341 0cf8 A1480000 		movl	LPBX1+8, %eax	 # *LPBX1, PROF_edge_counter.28
 1341      00
 1342 0cfd 8B154C00 		movl	LPBX1+12, %edx	 # *LPBX1, PROF_edge_counter.28
 1342      0000
 1343 0d03 83C001   		addl	$1, %eax	 #, PROF_edge_counter.28
 1344 0d06 83D200   		adcl	$0, %edx	 #, PROF_edge_counter.28
 1345 0d09 A3480000 		movl	%eax, LPBX1+8	 # PROF_edge_counter.28, *LPBX1
 1345      00
 1346 0d0e 89154C00 		movl	%edx, LPBX1+12	 # PROF_edge_counter.28, *LPBX1
 1346      0000
 1347              		.loc 1 323 0
 1348 0d14 C7042418 		movl	$LC2, (%esp)	 #,
 1348      000000
 1349 0d1b E8C2F4FF 		call	_test_println	 #
 1349      FF
 1350 0d20 A1500000 		movl	LPBX1+16, %eax	 # *LPBX1, PROF_edge_counter.28
 1350      00
 1351 0d25 8B155400 		movl	LPBX1+20, %edx	 # *LPBX1, PROF_edge_counter.28
 1351      0000
 1352 0d2b 83C001   		addl	$1, %eax	 #, PROF_edge_counter.28
 1353 0d2e 83D200   		adcl	$0, %edx	 #, PROF_edge_counter.28
 1354 0d31 A3500000 		movl	%eax, LPBX1+16	 # PROF_edge_counter.28, *LPBX1
 1354      00
 1355 0d36 89155400 		movl	%edx, LPBX1+20	 # PROF_edge_counter.28, *LPBX1
 1355      0000
 1356              		.loc 1 324 0
 1357 0d3c C7042432 		movl	$LC3, (%esp)	 #,
 1357      000000
 1358 0d43 E89AF4FF 		call	_test_println	 #
 1358      FF
 1359 0d48 A1580000 		movl	LPBX1+24, %eax	 # *LPBX1, PROF_edge_counter.28
 1359      00
 1360 0d4d 8B155C00 		movl	LPBX1+28, %edx	 # *LPBX1, PROF_edge_counter.28
 1360      0000
 1361 0d53 83C001   		addl	$1, %eax	 #, PROF_edge_counter.28
 1362 0d56 83D200   		adcl	$0, %edx	 #, PROF_edge_counter.28
 1363 0d59 A3580000 		movl	%eax, LPBX1+24	 # PROF_edge_counter.28, *LPBX1
 1363      00
GAS LISTING C:\cygwin\tmp\ccs5iBND.s 			page 33


 1364 0d5e 89155C00 		movl	%edx, LPBX1+28	 # PROF_edge_counter.28, *LPBX1
 1364      0000
 1365              		.loc 1 325 0
 1366 0d64 C7042436 		movl	$LC4, (%esp)	 #,
 1366      000000
 1367 0d6b E8E6F3FF 		call	_test_print	 #
 1367      FF
 1368 0d70 A1600000 		movl	LPBX1+32, %eax	 # *LPBX1, PROF_edge_counter.28
 1368      00
 1369 0d75 8B156400 		movl	LPBX1+36, %edx	 # *LPBX1, PROF_edge_counter.28
 1369      0000
 1370 0d7b 83C001   		addl	$1, %eax	 #, PROF_edge_counter.28
 1371 0d7e 83D200   		adcl	$0, %edx	 #, PROF_edge_counter.28
 1372 0d81 A3600000 		movl	%eax, LPBX1+32	 # PROF_edge_counter.28, *LPBX1
 1372      00
 1373 0d86 89156400 		movl	%edx, LPBX1+36	 # PROF_edge_counter.28, *LPBX1
 1373      0000
 1374              		.loc 1 326 0
 1375 0d8c C7042449 		movl	$LC5, (%esp)	 #,
 1375      000000
 1376 0d93 E84AF4FF 		call	_test_println	 #
 1376      FF
 1377 0d98 A1680000 		movl	LPBX1+40, %eax	 # *LPBX1, PROF_edge_counter.28
 1377      00
 1378 0d9d 8B156C00 		movl	LPBX1+44, %edx	 # *LPBX1, PROF_edge_counter.28
 1378      0000
 1379 0da3 83C001   		addl	$1, %eax	 #, PROF_edge_counter.28
 1380 0da6 83D200   		adcl	$0, %edx	 #, PROF_edge_counter.28
 1381 0da9 A3680000 		movl	%eax, LPBX1+40	 # PROF_edge_counter.28, *LPBX1
 1381      00
 1382 0dae 89156C00 		movl	%edx, LPBX1+44	 # PROF_edge_counter.28, *LPBX1
 1382      0000
 1383              		.loc 1 327 0
 1384 0db4 C7042457 		movl	$LC6, (%esp)	 #,
 1384      000000
 1385 0dbb E896F3FF 		call	_test_print	 #
 1385      FF
 1386 0dc0 A1700000 		movl	LPBX1+48, %eax	 # *LPBX1, PROF_edge_counter.28
 1386      00
 1387 0dc5 8B157400 		movl	LPBX1+52, %edx	 # *LPBX1, PROF_edge_counter.28
 1387      0000
 1388 0dcb 83C001   		addl	$1, %eax	 #, PROF_edge_counter.28
 1389 0dce 83D200   		adcl	$0, %edx	 #, PROF_edge_counter.28
 1390 0dd1 A3700000 		movl	%eax, LPBX1+48	 # PROF_edge_counter.28, *LPBX1
 1390      00
 1391 0dd6 89157400 		movl	%edx, LPBX1+52	 # PROF_edge_counter.28, *LPBX1
 1391      0000
 1392              		.loc 1 328 0
 1393 0ddc C704246A 		movl	$LC7, (%esp)	 #,
 1393      000000
 1394 0de3 E8FAF3FF 		call	_test_println	 #
 1394      FF
 1395 0de8 A1780000 		movl	LPBX1+56, %eax	 # *LPBX1, PROF_edge_counter.28
 1395      00
 1396 0ded 8B157C00 		movl	LPBX1+60, %edx	 # *LPBX1, PROF_edge_counter.28
 1396      0000
 1397 0df3 83C001   		addl	$1, %eax	 #, PROF_edge_counter.28
GAS LISTING C:\cygwin\tmp\ccs5iBND.s 			page 34


 1398 0df6 83D200   		adcl	$0, %edx	 #, PROF_edge_counter.28
 1399 0df9 A3780000 		movl	%eax, LPBX1+56	 # PROF_edge_counter.28, *LPBX1
 1399      00
 1400 0dfe 89157C00 		movl	%edx, LPBX1+60	 # PROF_edge_counter.28, *LPBX1
 1400      0000
 1401              		.loc 1 330 0
 1402 0e04 C7042481 		movl	$LC8, (%esp)	 #,
 1402      000000
 1403 0e0b E846F3FF 		call	_test_print	 #
 1403      FF
 1404 0e10 A1800000 		movl	LPBX1+64, %eax	 # *LPBX1, PROF_edge_counter.28
 1404      00
 1405 0e15 8B158400 		movl	LPBX1+68, %edx	 # *LPBX1, PROF_edge_counter.28
 1405      0000
 1406 0e1b 83C001   		addl	$1, %eax	 #, PROF_edge_counter.28
 1407 0e1e 83D200   		adcl	$0, %edx	 #, PROF_edge_counter.28
 1408 0e21 A3800000 		movl	%eax, LPBX1+64	 # PROF_edge_counter.28, *LPBX1
 1408      00
 1409 0e26 89158400 		movl	%edx, LPBX1+68	 # PROF_edge_counter.28, *LPBX1
 1409      0000
 1410              		.loc 1 331 0
 1411 0e2c C7042494 		movl	$LC9, (%esp)	 #,
 1411      000000
 1412 0e33 E8AAF3FF 		call	_test_println	 #
 1412      FF
 1413 0e38 A1880000 		movl	LPBX1+72, %eax	 # *LPBX1, PROF_edge_counter.28
 1413      00
 1414 0e3d 8B158C00 		movl	LPBX1+76, %edx	 # *LPBX1, PROF_edge_counter.28
 1414      0000
 1415 0e43 83C001   		addl	$1, %eax	 #, PROF_edge_counter.28
 1416 0e46 83D200   		adcl	$0, %edx	 #, PROF_edge_counter.28
 1417 0e49 A3880000 		movl	%eax, LPBX1+72	 # PROF_edge_counter.28, *LPBX1
 1417      00
 1418 0e4e 89158C00 		movl	%edx, LPBX1+76	 # PROF_edge_counter.28, *LPBX1
 1418      0000
 1419              		.loc 1 333 0
 1420 0e54 C704249E 		movl	$LC10, (%esp)	 #,
 1420      000000
 1421 0e5b E8F6F2FF 		call	_test_print	 #
 1421      FF
 1422 0e60 A1900000 		movl	LPBX1+80, %eax	 # *LPBX1, PROF_edge_counter.28
 1422      00
 1423 0e65 8B159400 		movl	LPBX1+84, %edx	 # *LPBX1, PROF_edge_counter.28
 1423      0000
 1424 0e6b 83C001   		addl	$1, %eax	 #, PROF_edge_counter.28
 1425 0e6e 83D200   		adcl	$0, %edx	 #, PROF_edge_counter.28
 1426 0e71 A3900000 		movl	%eax, LPBX1+80	 # PROF_edge_counter.28, *LPBX1
 1426      00
 1427 0e76 89159400 		movl	%edx, LPBX1+84	 # PROF_edge_counter.28, *LPBX1
 1427      0000
 1428              		.loc 1 334 0
 1429 0e7c C70424B1 		movl	$LC11, (%esp)	 #,
 1429      000000
 1430 0e83 E85AF3FF 		call	_test_println	 #
 1430      FF
 1431 0e88 A1980000 		movl	LPBX1+88, %eax	 # *LPBX1, PROF_edge_counter.28
 1431      00
GAS LISTING C:\cygwin\tmp\ccs5iBND.s 			page 35


 1432 0e8d 8B159C00 		movl	LPBX1+92, %edx	 # *LPBX1, PROF_edge_counter.28
 1432      0000
 1433 0e93 83C001   		addl	$1, %eax	 #, PROF_edge_counter.28
 1434 0e96 83D200   		adcl	$0, %edx	 #, PROF_edge_counter.28
 1435 0e99 A3980000 		movl	%eax, LPBX1+88	 # PROF_edge_counter.28, *LPBX1
 1435      00
 1436 0e9e 89159C00 		movl	%edx, LPBX1+92	 # PROF_edge_counter.28, *LPBX1
 1436      0000
 1437              		.loc 1 336 0
 1438 0ea4 C70424BB 		movl	$LC12, (%esp)	 #,
 1438      000000
 1439 0eab E8A6F2FF 		call	_test_print	 #
 1439      FF
 1440 0eb0 A1A00000 		movl	LPBX1+96, %eax	 # *LPBX1, PROF_edge_counter.28
 1440      00
 1441 0eb5 8B15A400 		movl	LPBX1+100, %edx	 # *LPBX1, PROF_edge_counter.28
 1441      0000
 1442 0ebb 83C001   		addl	$1, %eax	 #, PROF_edge_counter.28
 1443 0ebe 83D200   		adcl	$0, %edx	 #, PROF_edge_counter.28
 1444 0ec1 A3A00000 		movl	%eax, LPBX1+96	 # PROF_edge_counter.28, *LPBX1
 1444      00
 1445 0ec6 8915A400 		movl	%edx, LPBX1+100	 # PROF_edge_counter.28, *LPBX1
 1445      0000
 1446              		.loc 1 337 0
 1447 0ecc C70424CE 		movl	$LC13, (%esp)	 #,
 1447      000000
 1448 0ed3 E80AF3FF 		call	_test_println	 #
 1448      FF
 1449 0ed8 A1A80000 		movl	LPBX1+104, %eax	 # *LPBX1, PROF_edge_counter.28
 1449      00
 1450 0edd 8B15AC00 		movl	LPBX1+108, %edx	 # *LPBX1, PROF_edge_counter.28
 1450      0000
 1451 0ee3 83C001   		addl	$1, %eax	 #, PROF_edge_counter.28
 1452 0ee6 83D200   		adcl	$0, %edx	 #, PROF_edge_counter.28
 1453 0ee9 A3A80000 		movl	%eax, LPBX1+104	 # PROF_edge_counter.28, *LPBX1
 1453      00
 1454 0eee 8915AC00 		movl	%edx, LPBX1+108	 # PROF_edge_counter.28, *LPBX1
 1454      0000
 1455              		.loc 1 340 0
 1456 0ef4 C70424E1 		movl	$LC14, (%esp)	 #,
 1456      000000
 1457 0efb E856F2FF 		call	_test_print	 #
 1457      FF
 1458 0f00 A1B00000 		movl	LPBX1+112, %eax	 # *LPBX1, PROF_edge_counter.28
 1458      00
 1459 0f05 8B15B400 		movl	LPBX1+116, %edx	 # *LPBX1, PROF_edge_counter.28
 1459      0000
 1460 0f0b 83C001   		addl	$1, %eax	 #, PROF_edge_counter.28
 1461 0f0e 83D200   		adcl	$0, %edx	 #, PROF_edge_counter.28
 1462 0f11 A3B00000 		movl	%eax, LPBX1+112	 # PROF_edge_counter.28, *LPBX1
 1462      00
 1463 0f16 8915B400 		movl	%edx, LPBX1+116	 # PROF_edge_counter.28, *LPBX1
 1463      0000
 1464              		.loc 1 341 0
 1465 0f1c C70424F4 		movl	$LC15, (%esp)	 #,
 1465      000000
 1466 0f23 E8BAF2FF 		call	_test_println	 #
GAS LISTING C:\cygwin\tmp\ccs5iBND.s 			page 36


 1466      FF
 1467 0f28 A1B80000 		movl	LPBX1+120, %eax	 # *LPBX1, PROF_edge_counter.28
 1467      00
 1468 0f2d 8B15BC00 		movl	LPBX1+124, %edx	 # *LPBX1, PROF_edge_counter.28
 1468      0000
 1469 0f33 83C001   		addl	$1, %eax	 #, PROF_edge_counter.28
 1470 0f36 83D200   		adcl	$0, %edx	 #, PROF_edge_counter.28
 1471 0f39 A3B80000 		movl	%eax, LPBX1+120	 # PROF_edge_counter.28, *LPBX1
 1471      00
 1472 0f3e 8915BC00 		movl	%edx, LPBX1+124	 # PROF_edge_counter.28, *LPBX1
 1472      0000
 1473              		.loc 1 344 0
 1474 0f44 C7042402 		movl	$LC16, (%esp)	 #,
 1474      010000
 1475 0f4b E806F2FF 		call	_test_print	 #
 1475      FF
 1476 0f50 A1C00000 		movl	LPBX1+128, %eax	 # *LPBX1, PROF_edge_counter.28
 1476      00
 1477 0f55 8B15C400 		movl	LPBX1+132, %edx	 # *LPBX1, PROF_edge_counter.28
 1477      0000
 1478 0f5b 83C001   		addl	$1, %eax	 #, PROF_edge_counter.28
 1479 0f5e 83D200   		adcl	$0, %edx	 #, PROF_edge_counter.28
 1480 0f61 A3C00000 		movl	%eax, LPBX1+128	 # PROF_edge_counter.28, *LPBX1
 1480      00
 1481 0f66 8915C400 		movl	%edx, LPBX1+132	 # PROF_edge_counter.28, *LPBX1
 1481      0000
 1482              		.loc 1 345 0
 1483 0f6c C7042415 		movl	$LC17, (%esp)	 #,
 1483      010000
 1484 0f73 E86AF2FF 		call	_test_println	 #
 1484      FF
 1485 0f78 A1C80000 		movl	LPBX1+136, %eax	 # *LPBX1, PROF_edge_counter.28
 1485      00
 1486 0f7d 8B15CC00 		movl	LPBX1+140, %edx	 # *LPBX1, PROF_edge_counter.28
 1486      0000
 1487 0f83 83C001   		addl	$1, %eax	 #, PROF_edge_counter.28
 1488 0f86 83D200   		adcl	$0, %edx	 #, PROF_edge_counter.28
 1489 0f89 A3C80000 		movl	%eax, LPBX1+136	 # PROF_edge_counter.28, *LPBX1
 1489      00
 1490 0f8e 8915CC00 		movl	%edx, LPBX1+140	 # PROF_edge_counter.28, *LPBX1
 1490      0000
 1491              		.loc 1 351 0
 1492 0f94 C7042417 		movl	$LC1, (%esp)	 #,
 1492      000000
 1493 0f9b E842F2FF 		call	_test_println	 #
 1493      FF
 1494              		.loc 1 353 0
 1495 0fa0 C6050100 		movb	$0, _global_fail	 #, global_fail
 1495      000000
 1496              		.loc 1 354 0
 1497 0fa7 C744241C 		movl	$0, 28(%esp)	 #, i
 1497      00000000 
 1498              		.loc 1 355 0
 1499 0faf E9310300 		jmp	L56	 #
 1499      00
 1500              	L61:
 1501 0fb4 A1600100 		movl	LPBX1+288, %eax	 # *LPBX1, PROF_edge_counter.28
GAS LISTING C:\cygwin\tmp\ccs5iBND.s 			page 37


 1501      00
 1502 0fb9 8B156401 		movl	LPBX1+292, %edx	 # *LPBX1, PROF_edge_counter.28
 1502      0000
 1503 0fbf 83C001   		addl	$1, %eax	 #, PROF_edge_counter.28
 1504 0fc2 83D200   		adcl	$0, %edx	 #, PROF_edge_counter.28
 1505 0fc5 A3600100 		movl	%eax, LPBX1+288	 # PROF_edge_counter.28, *LPBX1
 1505      00
 1506 0fca 89156401 		movl	%edx, LPBX1+292	 # PROF_edge_counter.28, *LPBX1
 1506      0000
 1507              		.loc 1 356 0
 1508 0fd0 C7442418 		movl	$0, 24(%esp)	 #, j
 1508      00000000 
 1509              		.loc 1 357 0
 1510 0fd8 E9CA0200 		jmp	L57	 #
 1510      00
 1511              	L60:
 1512 0fdd A1500100 		movl	LPBX1+272, %eax	 # *LPBX1, PROF_edge_counter.28
 1512      00
 1513 0fe2 8B155401 		movl	LPBX1+276, %edx	 # *LPBX1, PROF_edge_counter.28
 1513      0000
 1514 0fe8 83C001   		addl	$1, %eax	 #, PROF_edge_counter.28
 1515 0feb 83D200   		adcl	$0, %edx	 #, PROF_edge_counter.28
 1516 0fee A3500100 		movl	%eax, LPBX1+272	 # PROF_edge_counter.28, *LPBX1
 1516      00
 1517 0ff3 89155401 		movl	%edx, LPBX1+276	 # PROF_edge_counter.28, *LPBX1
 1517      0000
 1518              		.loc 1 358 0
 1519 0ff9 E8FBFBFF 		call	_print_line	 #
 1519      FF
 1520 0ffe A1D00000 		movl	LPBX1+144, %eax	 # *LPBX1, PROF_edge_counter.28
 1520      00
 1521 1003 8B15D400 		movl	LPBX1+148, %edx	 # *LPBX1, PROF_edge_counter.28
 1521      0000
 1522 1009 83C001   		addl	$1, %eax	 #, PROF_edge_counter.28
 1523 100c 83D200   		adcl	$0, %edx	 #, PROF_edge_counter.28
 1524 100f A3D00000 		movl	%eax, LPBX1+144	 # PROF_edge_counter.28, *LPBX1
 1524      00
 1525 1014 8915D400 		movl	%edx, LPBX1+148	 # PROF_edge_counter.28, *LPBX1
 1525      0000
 1526              		.loc 1 359 0
 1527 101a C704241B 		movl	$LC18, (%esp)	 #,
 1527      010000
 1528 1021 E830F1FF 		call	_test_print	 #
 1528      FF
 1529 1026 A1D80000 		movl	LPBX1+152, %eax	 # *LPBX1, PROF_edge_counter.28
 1529      00
 1530 102b 8B15DC00 		movl	LPBX1+156, %edx	 # *LPBX1, PROF_edge_counter.28
 1530      0000
 1531 1031 83C001   		addl	$1, %eax	 #, PROF_edge_counter.28
 1532 1034 83D200   		adcl	$0, %edx	 #, PROF_edge_counter.28
 1533 1037 A3D80000 		movl	%eax, LPBX1+152	 # PROF_edge_counter.28, *LPBX1
 1533      00
 1534 103c 8915DC00 		movl	%edx, LPBX1+156	 # PROF_edge_counter.28, *LPBX1
 1534      0000
 1535              		.loc 1 360 0
 1536 1042 8B44241C 		movl	28(%esp), %eax	 # i, tmp175
 1537 1046 40       		incl	%eax	 # D.36795
GAS LISTING C:\cygwin\tmp\ccs5iBND.s 			page 38


 1538 1047 890424   		movl	%eax, (%esp)	 # D.36796,
 1539 104a E8B1EFFF 		call	_test_printn	 #
 1539      FF
 1540 104f A1E00000 		movl	LPBX1+160, %eax	 # *LPBX1, PROF_edge_counter.28
 1540      00
 1541 1054 8B15E400 		movl	LPBX1+164, %edx	 # *LPBX1, PROF_edge_counter.28
 1541      0000
 1542 105a 83C001   		addl	$1, %eax	 #, PROF_edge_counter.28
 1543 105d 83D200   		adcl	$0, %edx	 #, PROF_edge_counter.28
 1544 1060 A3E00000 		movl	%eax, LPBX1+160	 # PROF_edge_counter.28, *LPBX1
 1544      00
 1545 1065 8915E400 		movl	%edx, LPBX1+164	 # PROF_edge_counter.28, *LPBX1
 1545      0000
 1546              		.loc 1 361 0
 1547 106b C704242A 		movl	$LC19, (%esp)	 #,
 1547      010000
 1548 1072 E8DFF0FF 		call	_test_print	 #
 1548      FF
 1549 1077 A1E80000 		movl	LPBX1+168, %eax	 # *LPBX1, PROF_edge_counter.28
 1549      00
 1550 107c 8B15EC00 		movl	LPBX1+172, %edx	 # *LPBX1, PROF_edge_counter.28
 1550      0000
 1551 1082 83C001   		addl	$1, %eax	 #, PROF_edge_counter.28
 1552 1085 83D200   		adcl	$0, %edx	 #, PROF_edge_counter.28
 1553 1088 A3E80000 		movl	%eax, LPBX1+168	 # PROF_edge_counter.28, *LPBX1
 1553      00
 1554 108d 8915EC00 		movl	%edx, LPBX1+172	 # PROF_edge_counter.28, *LPBX1
 1554      0000
 1555              		.loc 1 362 0
 1556 1093 8B442418 		movl	24(%esp), %eax	 # j, tmp176
 1557 1097 40       		incl	%eax	 # D.36797
 1558 1098 890424   		movl	%eax, (%esp)	 # D.36798,
 1559 109b E860EFFF 		call	_test_printn	 #
 1559      FF
 1560 10a0 A1F00000 		movl	LPBX1+176, %eax	 # *LPBX1, PROF_edge_counter.28
 1560      00
 1561 10a5 8B15F400 		movl	LPBX1+180, %edx	 # *LPBX1, PROF_edge_counter.28
 1561      0000
 1562 10ab 83C001   		addl	$1, %eax	 #, PROF_edge_counter.28
 1563 10ae 83D200   		adcl	$0, %edx	 #, PROF_edge_counter.28
 1564 10b1 A3F00000 		movl	%eax, LPBX1+176	 # PROF_edge_counter.28, *LPBX1
 1564      00
 1565 10b6 8915F400 		movl	%edx, LPBX1+180	 # PROF_edge_counter.28, *LPBX1
 1565      0000
 1566              		.loc 1 363 0
 1567 10bc C704242C 		movl	$LC20, (%esp)	 #,
 1567      010000
 1568 10c3 E88EF0FF 		call	_test_print	 #
 1568      FF
 1569 10c8 A1F80000 		movl	LPBX1+184, %eax	 # *LPBX1, PROF_edge_counter.28
 1569      00
 1570 10cd 8B15FC00 		movl	LPBX1+188, %edx	 # *LPBX1, PROF_edge_counter.28
 1570      0000
 1571 10d3 83C001   		addl	$1, %eax	 #, PROF_edge_counter.28
 1572 10d6 83D200   		adcl	$0, %edx	 #, PROF_edge_counter.28
 1573 10d9 A3F80000 		movl	%eax, LPBX1+184	 # PROF_edge_counter.28, *LPBX1
 1573      00
GAS LISTING C:\cygwin\tmp\ccs5iBND.s 			page 39


 1574 10de 8915FC00 		movl	%edx, LPBX1+188	 # PROF_edge_counter.28, *LPBX1
 1574      0000
 1575              		.loc 1 364 0
 1576 10e4 8B44241C 		movl	28(%esp), %eax	 # i, tmp177
 1577 10e8 8B048500 		movl	_patterns(,%eax,4), %eax	 # patterns, D.36799
 1577      000000
 1578 10ef 8B542418 		movl	24(%esp), %edx	 # j, j.0
 1579 10f3 C1E202   		sall	$2, %edx	 #, D.36801
 1580 10f6 01D0     		addl	%edx, %eax	 # D.36801, D.36802
 1581 10f8 8B00     		movl	(%eax), %eax	 # *D.36802_19, D.36803
 1582 10fa 8B00     		movl	(%eax), %eax	 # D.36803_20->name, D.36804
 1583 10fc 890424   		movl	%eax, (%esp)	 # D.36804,
 1584 10ff E852F0FF 		call	_test_print	 #
 1584      FF
 1585 1104 A1000100 		movl	LPBX1+192, %eax	 # *LPBX1, PROF_edge_counter.28
 1585      00
 1586 1109 8B150401 		movl	LPBX1+196, %edx	 # *LPBX1, PROF_edge_counter.28
 1586      0000
 1587 110f 83C001   		addl	$1, %eax	 #, PROF_edge_counter.28
 1588 1112 83D200   		adcl	$0, %edx	 #, PROF_edge_counter.28
 1589 1115 A3000100 		movl	%eax, LPBX1+192	 # PROF_edge_counter.28, *LPBX1
 1589      00
 1590 111a 89150401 		movl	%edx, LPBX1+196	 # PROF_edge_counter.28, *LPBX1
 1590      0000
 1591              		.loc 1 365 0
 1592 1120 C704242F 		movl	$LC21, (%esp)	 #,
 1592      010000
 1593 1127 E8B6F0FF 		call	_test_println	 #
 1593      FF
 1594 112c A1080100 		movl	LPBX1+200, %eax	 # *LPBX1, PROF_edge_counter.28
 1594      00
 1595 1131 8B150C01 		movl	LPBX1+204, %edx	 # *LPBX1, PROF_edge_counter.28
 1595      0000
 1596 1137 83C001   		addl	$1, %eax	 #, PROF_edge_counter.28
 1597 113a 83D200   		adcl	$0, %edx	 #, PROF_edge_counter.28
 1598 113d A3080100 		movl	%eax, LPBX1+200	 # PROF_edge_counter.28, *LPBX1
 1598      00
 1599 1142 89150C01 		movl	%edx, LPBX1+204	 # PROF_edge_counter.28, *LPBX1
 1599      0000
 1600              		.loc 1 367 0
 1601 1148 C70424C8 		movl	$200, (%esp)	 #,
 1601      000000
 1602 114f E8000000 		call	_chThdSleep	 #
 1602      00
 1603 1154 A1100100 		movl	LPBX1+208, %eax	 # *LPBX1, PROF_edge_counter.28
 1603      00
 1604 1159 8B151401 		movl	LPBX1+212, %edx	 # *LPBX1, PROF_edge_counter.28
 1604      0000
 1605 115f 83C001   		addl	$1, %eax	 #, PROF_edge_counter.28
 1606 1162 83D200   		adcl	$0, %edx	 #, PROF_edge_counter.28
 1607 1165 A3100100 		movl	%eax, LPBX1+208	 # PROF_edge_counter.28, *LPBX1
 1607      00
 1608 116a 89151401 		movl	%edx, LPBX1+212	 # PROF_edge_counter.28, *LPBX1
 1608      0000
 1609              		.loc 1 369 0
 1610 1170 8B44241C 		movl	28(%esp), %eax	 # i, tmp178
 1611 1174 8B048500 		movl	_patterns(,%eax,4), %eax	 # patterns, D.36805
GAS LISTING C:\cygwin\tmp\ccs5iBND.s 			page 40


 1611      000000
 1612 117b 8B542418 		movl	24(%esp), %edx	 # j, j.1
 1613 117f C1E202   		sall	$2, %edx	 #, D.36807
 1614 1182 01D0     		addl	%edx, %eax	 # D.36807, D.36808
 1615 1184 8B00     		movl	(%eax), %eax	 # *D.36808_25, D.36809
 1616 1186 890424   		movl	%eax, (%esp)	 # D.36809,
 1617 1189 E802F9FF 		call	_execute_test	 #
 1617      FF
 1618              		.loc 1 370 0
 1619 118e A0000000 		movb	_local_fail, %al	 # local_fail, local_fail.2
 1619      00
 1620 1193 84C0     		testb	%al, %al	 # local_fail.2
 1621 1195 0F84C400 		je	L58	 #,
 1621      0000
 1622 119b A1180100 		movl	LPBX1+216, %eax	 # *LPBX1, PROF_edge_counter.28
 1622      00
 1623 11a0 8B151C01 		movl	LPBX1+220, %edx	 # *LPBX1, PROF_edge_counter.28
 1623      0000
 1624 11a6 83C001   		addl	$1, %eax	 #, PROF_edge_counter.28
 1625 11a9 83D200   		adcl	$0, %edx	 #, PROF_edge_counter.28
 1626 11ac A3180100 		movl	%eax, LPBX1+216	 # PROF_edge_counter.28, *LPBX1
 1626      00
 1627 11b1 89151C01 		movl	%edx, LPBX1+220	 # PROF_edge_counter.28, *LPBX1
 1627      0000
 1628              		.loc 1 371 0
 1629 11b7 C7042431 		movl	$LC22, (%esp)	 #,
 1629      010000
 1630 11be E893EFFF 		call	_test_print	 #
 1630      FF
 1631 11c3 A1280100 		movl	LPBX1+232, %eax	 # *LPBX1, PROF_edge_counter.28
 1631      00
 1632 11c8 8B152C01 		movl	LPBX1+236, %edx	 # *LPBX1, PROF_edge_counter.28
 1632      0000
 1633 11ce 83C001   		addl	$1, %eax	 #, PROF_edge_counter.28
 1634 11d1 83D200   		adcl	$0, %edx	 #, PROF_edge_counter.28
 1635 11d4 A3280100 		movl	%eax, LPBX1+232	 # PROF_edge_counter.28, *LPBX1
 1635      00
 1636 11d9 89152C01 		movl	%edx, LPBX1+236	 # PROF_edge_counter.28, *LPBX1
 1636      0000
 1637              		.loc 1 372 0
 1638 11df A1040000 		movl	_failpoint, %eax	 # failpoint, failpoint.3
 1638      00
 1639 11e4 890424   		movl	%eax, (%esp)	 # failpoint.3,
 1640 11e7 E814EEFF 		call	_test_printn	 #
 1640      FF
 1641 11ec A1300100 		movl	LPBX1+240, %eax	 # *LPBX1, PROF_edge_counter.28
 1641      00
 1642 11f1 8B153401 		movl	LPBX1+244, %edx	 # *LPBX1, PROF_edge_counter.28
 1642      0000
 1643 11f7 83C001   		addl	$1, %eax	 #, PROF_edge_counter.28
 1644 11fa 83D200   		adcl	$0, %edx	 #, PROF_edge_counter.28
 1645 11fd A3300100 		movl	%eax, LPBX1+240	 # PROF_edge_counter.28, *LPBX1
 1645      00
 1646 1202 89153401 		movl	%edx, LPBX1+244	 # PROF_edge_counter.28, *LPBX1
 1646      0000
 1647              		.loc 1 373 0
 1648 1208 C7042448 		movl	$LC23, (%esp)	 #,
GAS LISTING C:\cygwin\tmp\ccs5iBND.s 			page 41


 1648      010000
 1649 120f E842EFFF 		call	_test_print	 #
 1649      FF
 1650 1214 A1380100 		movl	LPBX1+248, %eax	 # *LPBX1, PROF_edge_counter.28
 1650      00
 1651 1219 8B153C01 		movl	LPBX1+252, %edx	 # *LPBX1, PROF_edge_counter.28
 1651      0000
 1652 121f 83C001   		addl	$1, %eax	 #, PROF_edge_counter.28
 1653 1222 83D200   		adcl	$0, %edx	 #, PROF_edge_counter.28
 1654 1225 A3380100 		movl	%eax, LPBX1+248	 # PROF_edge_counter.28, *LPBX1
 1654      00
 1655 122a 89153C01 		movl	%edx, LPBX1+252	 # PROF_edge_counter.28, *LPBX1
 1655      0000
 1656              		.loc 1 374 0
 1657 1230 E864F0FF 		call	_print_tokens	 #
 1657      FF
 1658 1235 A1400100 		movl	LPBX1+256, %eax	 # *LPBX1, PROF_edge_counter.28
 1658      00
 1659 123a 8B154401 		movl	LPBX1+260, %edx	 # *LPBX1, PROF_edge_counter.28
 1659      0000
 1660 1240 83C001   		addl	$1, %eax	 #, PROF_edge_counter.28
 1661 1243 83D200   		adcl	$0, %edx	 #, PROF_edge_counter.28
 1662 1246 A3400100 		movl	%eax, LPBX1+256	 # PROF_edge_counter.28, *LPBX1
 1662      00
 1663 124b 89154401 		movl	%edx, LPBX1+260	 # PROF_edge_counter.28, *LPBX1
 1663      0000
 1664              		.loc 1 375 0
 1665 1251 C704244B 		movl	$LC24, (%esp)	 #,
 1665      010000
 1666 1258 E885EFFF 		call	_test_println	 #
 1666      FF
 1667 125d EB44     		jmp	L59	 #
 1668              	L58:
 1669 125f A1200100 		movl	LPBX1+224, %eax	 # *LPBX1, PROF_edge_counter.28
 1669      00
 1670 1264 8B152401 		movl	LPBX1+228, %edx	 # *LPBX1, PROF_edge_counter.28
 1670      0000
 1671 126a 83C001   		addl	$1, %eax	 #, PROF_edge_counter.28
 1672 126d 83D200   		adcl	$0, %edx	 #, PROF_edge_counter.28
 1673 1270 A3200100 		movl	%eax, LPBX1+224	 # PROF_edge_counter.28, *LPBX1
 1673      00
 1674 1275 89152401 		movl	%edx, LPBX1+228	 # PROF_edge_counter.28, *LPBX1
 1674      0000
 1675              		.loc 1 378 0
 1676 127b C704244E 		movl	$LC25, (%esp)	 #,
 1676      010000
 1677 1282 E85BEFFF 		call	_test_println	 #
 1677      FF
 1678 1287 A1480100 		movl	LPBX1+264, %eax	 # *LPBX1, PROF_edge_counter.28
 1678      00
 1679 128c 8B154C01 		movl	LPBX1+268, %edx	 # *LPBX1, PROF_edge_counter.28
 1679      0000
 1680 1292 83C001   		addl	$1, %eax	 #, PROF_edge_counter.28
 1681 1295 83D200   		adcl	$0, %edx	 #, PROF_edge_counter.28
 1682 1298 A3480100 		movl	%eax, LPBX1+264	 # PROF_edge_counter.28, *LPBX1
 1682      00
 1683 129d 89154C01 		movl	%edx, LPBX1+268	 # PROF_edge_counter.28, *LPBX1
GAS LISTING C:\cygwin\tmp\ccs5iBND.s 			page 42


 1683      0000
 1684              	L59:
 1685              		.loc 1 379 0
 1686 12a3 FF442418 		incl	24(%esp)	 # j
 1687              	L57:
 1688              		.loc 1 357 0 discriminator 1
 1689 12a7 8B44241C 		movl	28(%esp), %eax	 # i, tmp179
 1690 12ab 8B048500 		movl	_patterns(,%eax,4), %eax	 # patterns, D.36815
 1690      000000
 1691 12b2 8B542418 		movl	24(%esp), %edx	 # j, j.4
 1692 12b6 C1E202   		sall	$2, %edx	 #, D.36817
 1693 12b9 01D0     		addl	%edx, %eax	 # D.36817, D.36818
 1694 12bb 8B00     		movl	(%eax), %eax	 # *D.36818_10, D.36819
 1695 12bd 85C0     		testl	%eax, %eax	 # D.36819
 1696 12bf 0F8518FD 		jne	L60	 #,
 1696      FFFF
 1697              		.loc 1 381 0
 1698 12c5 FF44241C 		incl	28(%esp)	 # i
 1699 12c9 A1580100 		movl	LPBX1+280, %eax	 # *LPBX1, PROF_edge_counter.28
 1699      00
 1700 12ce 8B155C01 		movl	LPBX1+284, %edx	 # *LPBX1, PROF_edge_counter.28
 1700      0000
 1701 12d4 83C001   		addl	$1, %eax	 #, PROF_edge_counter.28
 1702 12d7 83D200   		adcl	$0, %edx	 #, PROF_edge_counter.28
 1703 12da A3580100 		movl	%eax, LPBX1+280	 # PROF_edge_counter.28, *LPBX1
 1703      00
 1704 12df 89155C01 		movl	%edx, LPBX1+284	 # PROF_edge_counter.28, *LPBX1
 1704      0000
 1705              	L56:
 1706              		.loc 1 355 0 discriminator 1
 1707 12e5 8B44241C 		movl	28(%esp), %eax	 # i, tmp180
 1708 12e9 8B048500 		movl	_patterns(,%eax,4), %eax	 # patterns, D.36820
 1708      000000
 1709 12f0 85C0     		testl	%eax, %eax	 # D.36820
 1710 12f2 0F85BCFC 		jne	L61	 #,
 1710      FFFF
 1711              		.loc 1 355 0 is_stmt 0
 1712 12f8 A1680100 		movl	LPBX1+296, %eax	 # *LPBX1, PROF_edge_counter.28
 1712      00
 1713 12fd 8B156C01 		movl	LPBX1+300, %edx	 # *LPBX1, PROF_edge_counter.28
 1713      0000
 1714 1303 83C001   		addl	$1, %eax	 #, PROF_edge_counter.28
 1715 1306 83D200   		adcl	$0, %edx	 #, PROF_edge_counter.28
 1716 1309 A3680100 		movl	%eax, LPBX1+296	 # PROF_edge_counter.28, *LPBX1
 1716      00
 1717 130e 89156C01 		movl	%edx, LPBX1+300	 # PROF_edge_counter.28, *LPBX1
 1717      0000
 1718              		.loc 1 383 0 is_stmt 1
 1719 1314 E8E0F8FF 		call	_print_line	 #
 1719      FF
 1720 1319 A1700100 		movl	LPBX1+304, %eax	 # *LPBX1, PROF_edge_counter.28
 1720      00
 1721 131e 8B157401 		movl	LPBX1+308, %edx	 # *LPBX1, PROF_edge_counter.28
 1721      0000
 1722 1324 83C001   		addl	$1, %eax	 #, PROF_edge_counter.28
 1723 1327 83D200   		adcl	$0, %edx	 #, PROF_edge_counter.28
 1724 132a A3700100 		movl	%eax, LPBX1+304	 # PROF_edge_counter.28, *LPBX1
GAS LISTING C:\cygwin\tmp\ccs5iBND.s 			page 43


 1724      00
 1725 132f 89157401 		movl	%edx, LPBX1+308	 # PROF_edge_counter.28, *LPBX1
 1725      0000
 1726              		.loc 1 384 0
 1727 1335 C7042417 		movl	$LC1, (%esp)	 #,
 1727      000000
 1728 133c E8A1EEFF 		call	_test_println	 #
 1728      FF
 1729 1341 A1780100 		movl	LPBX1+312, %eax	 # *LPBX1, PROF_edge_counter.28
 1729      00
 1730 1346 8B157C01 		movl	LPBX1+316, %edx	 # *LPBX1, PROF_edge_counter.28
 1730      0000
 1731 134c 83C001   		addl	$1, %eax	 #, PROF_edge_counter.28
 1732 134f 83D200   		adcl	$0, %edx	 #, PROF_edge_counter.28
 1733 1352 A3780100 		movl	%eax, LPBX1+312	 # PROF_edge_counter.28, *LPBX1
 1733      00
 1734 1357 89157C01 		movl	%edx, LPBX1+316	 # PROF_edge_counter.28, *LPBX1
 1734      0000
 1735              		.loc 1 385 0
 1736 135d C7042462 		movl	$LC26, (%esp)	 #,
 1736      010000
 1737 1364 E8EDEDFF 		call	_test_print	 #
 1737      FF
 1738              		.loc 1 386 0
 1739 1369 A0010000 		movb	_global_fail, %al	 # global_fail, global_fail.5
 1739      00
 1740 136e 84C0     		testb	%al, %al	 # global_fail.5
 1741 1370 7446     		je	L62	 #,
 1742 1372 A1800100 		movl	LPBX1+320, %eax	 # *LPBX1, PROF_edge_counter.28
 1742      00
 1743 1377 8B158401 		movl	LPBX1+324, %edx	 # *LPBX1, PROF_edge_counter.28
 1743      0000
 1744 137d 83C001   		addl	$1, %eax	 #, PROF_edge_counter.28
 1745 1380 83D200   		adcl	$0, %edx	 #, PROF_edge_counter.28
 1746 1383 A3800100 		movl	%eax, LPBX1+320	 # PROF_edge_counter.28, *LPBX1
 1746      00
 1747 1388 89158401 		movl	%edx, LPBX1+324	 # PROF_edge_counter.28, *LPBX1
 1747      0000
 1748              		.loc 1 387 0
 1749 138e C7042471 		movl	$LC27, (%esp)	 #,
 1749      010000
 1750 1395 E848EEFF 		call	_test_println	 #
 1750      FF
 1751 139a A1900100 		movl	LPBX1+336, %eax	 # *LPBX1, PROF_edge_counter.28
 1751      00
 1752 139f 8B159401 		movl	LPBX1+340, %edx	 # *LPBX1, PROF_edge_counter.28
 1752      0000
 1753 13a5 83C001   		addl	$1, %eax	 #, PROF_edge_counter.28
 1754 13a8 83D200   		adcl	$0, %edx	 #, PROF_edge_counter.28
 1755 13ab A3900100 		movl	%eax, LPBX1+336	 # PROF_edge_counter.28, *LPBX1
 1755      00
 1756 13b0 89159401 		movl	%edx, LPBX1+340	 # PROF_edge_counter.28, *LPBX1
 1756      0000
 1757 13b6 EB44     		jmp	L63	 #
 1758              	L62:
 1759 13b8 A1880100 		movl	LPBX1+328, %eax	 # *LPBX1, PROF_edge_counter.28
 1759      00
GAS LISTING C:\cygwin\tmp\ccs5iBND.s 			page 44


 1760 13bd 8B158C01 		movl	LPBX1+332, %edx	 # *LPBX1, PROF_edge_counter.28
 1760      0000
 1761 13c3 83C001   		addl	$1, %eax	 #, PROF_edge_counter.28
 1762 13c6 83D200   		adcl	$0, %edx	 #, PROF_edge_counter.28
 1763 13c9 A3880100 		movl	%eax, LPBX1+328	 # PROF_edge_counter.28, *LPBX1
 1763      00
 1764 13ce 89158C01 		movl	%edx, LPBX1+332	 # PROF_edge_counter.28, *LPBX1
 1764      0000
 1765              		.loc 1 389 0
 1766 13d4 C7042479 		movl	$LC28, (%esp)	 #,
 1766      010000
 1767 13db E802EEFF 		call	_test_println	 #
 1767      FF
 1768 13e0 A1980100 		movl	LPBX1+344, %eax	 # *LPBX1, PROF_edge_counter.28
 1768      00
 1769 13e5 8B159C01 		movl	LPBX1+348, %edx	 # *LPBX1, PROF_edge_counter.28
 1769      0000
 1770 13eb 83C001   		addl	$1, %eax	 #, PROF_edge_counter.28
 1771 13ee 83D200   		adcl	$0, %edx	 #, PROF_edge_counter.28
 1772 13f1 A3980100 		movl	%eax, LPBX1+344	 # PROF_edge_counter.28, *LPBX1
 1772      00
 1773 13f6 89159C01 		movl	%edx, LPBX1+348	 # PROF_edge_counter.28, *LPBX1
 1773      0000
 1774              	L63:
 1775              		.loc 1 391 0
 1776 13fc A0010000 		movb	_global_fail, %al	 # global_fail, global_fail.6
 1776      00
 1777 1401 0FB6C0   		movzbl	%al, %eax	 # global_fail.6, D.36825
 1778              		.loc 1 392 0
 1779 1404 83C42C   		addl	$44, %esp	 #,
 1780              	LCFI37:
 1781              		.cfi_def_cfa_offset 4
 1782 1407 C3       		ret
 1783              		.cfi_endproc
 1784              	LFE27:
 1785              	.lcomm LPBX1,904,32
 1786              		.section .rdata,"dr"
 1787 0181 000000   		.align 4
 1788              	LC29:
 1789 0184 433A5C64 		.ascii "C:\\develop\\gyro\\ChibiOS\\test\\coverage/../../test/test.gcda\0"
 1789      6576656C 
 1789      6F705C67 
 1789      79726F5C 
 1789      43686962 
 1790 01bf 00       		.data
 1791 0030 00000000 		.align 32
 1791      00000000 
 1791      00000000 
 1791      00000000 
 1792              	LC30:
 1793              	 # <anonymous>:
 1794 0040 1C000000 		.long	28
 1795              	 # <anonymous>:
 1796 0044 5613B00C 		.long	212865878
 1797              	 # <anonymous>:
 1798 0048 2C000000 		.long	44
 1799              	 # <anonymous>:
GAS LISTING C:\cygwin\tmp\ccs5iBND.s 			page 45


 1800 004c 1B000000 		.long	27
 1801              	 # <anonymous>:
 1802 0050 2FD53E93 		.long	-1824598737
 1803              	 # <anonymous>:
 1804 0054 04000000 		.long	4
 1805              	 # <anonymous>:
 1806 0058 1A000000 		.long	26
 1807              	 # <anonymous>:
 1808 005c 5C592D81 		.long	-2127734436
 1809              	 # <anonymous>:
 1810 0060 09000000 		.long	9
 1811              	 # <anonymous>:
 1812 0064 19000000 		.long	25
 1813              	 # <anonymous>:
 1814 0068 2E6C3A35 		.long	893021230
 1815              	 # <anonymous>:
 1816 006c 04000000 		.long	4
 1817              	 # <anonymous>:
 1818 0070 18000000 		.long	24
 1819              	 # <anonymous>:
 1820 0074 CE9BE17C 		.long	2095160270
 1821              	 # <anonymous>:
 1822 0078 01000000 		.long	1
 1823              	 # <anonymous>:
 1824 007c 17000000 		.long	23
 1825              	 # <anonymous>:
 1826 0080 8E2FBB40 		.long	1086009230
 1827              	 # <anonymous>:
 1828 0084 02000000 		.long	2
 1829              	 # <anonymous>:
 1830 0088 16000000 		.long	22
 1831              	 # <anonymous>:
 1832 008c 4C2CFC35 		.long	905718860
 1833              	 # <anonymous>:
 1834 0090 08000000 		.long	8
 1835              	 # <anonymous>:
 1836 0094 15000000 		.long	21
 1837              	 # <anonymous>:
 1838 0098 3E857581 		.long	-2123004610
 1839              	 # <anonymous>:
 1840 009c 04000000 		.long	4
 1841              	 # <anonymous>:
 1842 00a0 14000000 		.long	20
 1843              	 # <anonymous>:
 1844 00a4 91B9B518 		.long	414562705
 1845              	 # <anonymous>:
 1846 00a8 04000000 		.long	4
 1847              	 # <anonymous>:
 1848 00ac 13000000 		.long	19
 1849              	 # <anonymous>:
 1850 00b0 7241555A 		.long	1515536754
 1851              	 # <anonymous>:
 1852 00b4 03000000 		.long	3
 1853              	 # <anonymous>:
 1854 00b8 12000000 		.long	18
 1855              	 # <anonymous>:
 1856 00bc E0AF614C 		.long	1281470432
GAS LISTING C:\cygwin\tmp\ccs5iBND.s 			page 46


 1857              	 # <anonymous>:
 1858 00c0 07000000 		.long	7
 1859              	 # <anonymous>:
 1860 00c4 11000000 		.long	17
 1861              	 # <anonymous>:
 1862 00c8 AD0E46A6 		.long	-1505358163
 1863              	 # <anonymous>:
 1864 00cc 03000000 		.long	3
 1865              	 # <anonymous>:
 1866 00d0 10000000 		.long	16
 1867              	 # <anonymous>:
 1868 00d4 9F580D7C 		.long	2081249439
 1869              	 # <anonymous>:
 1870 00d8 01000000 		.long	1
 1871              	 # <anonymous>:
 1872 00dc 0F000000 		.long	15
 1873              	 # <anonymous>:
 1874 00e0 73404523 		.long	591741043
 1875              	 # <anonymous>:
 1876 00e4 03000000 		.long	3
 1877              	 # <anonymous>:
 1878 00e8 0E000000 		.long	14
 1879              	 # <anonymous>:
 1880 00ec 84B8B1C3 		.long	-1011763068
 1881              	 # <anonymous>:
 1882 00f0 03000000 		.long	3
 1883              	 # <anonymous>:
 1884 00f4 0D000000 		.long	13
 1885              	 # <anonymous>:
 1886 00f8 EB27E593 		.long	-1813698581
 1887              	 # <anonymous>:
 1888 00fc 01000000 		.long	1
 1889              	 # <anonymous>:
 1890 0100 0C000000 		.long	12
 1891              	 # <anonymous>:
 1892 0104 CA67EA75 		.long	1978296266
 1893              	 # <anonymous>:
 1894 0108 03000000 		.long	3
 1895              	 # <anonymous>:
 1896 010c 0B000000 		.long	11
 1897              	 # <anonymous>:
 1898 0110 BD5930AD 		.long	-1389340227
 1899              	 # <anonymous>:
 1900 0114 03000000 		.long	3
 1901              	 # <anonymous>:
 1902 0118 0A000000 		.long	10
 1903              	 # <anonymous>:
 1904 011c FB9CA375 		.long	1973656827
 1905              	 # <anonymous>:
 1906 0120 06000000 		.long	6
 1907 0124 00000000 		.align 32
 1907      00000000 
 1907      00000000 
 1907      00000000 
 1907      00000000 
 1908              	LPBX0:
 1909              	 # <anonymous>:
GAS LISTING C:\cygwin\tmp\ccs5iBND.s 			page 47


 1910 0140 2A363034 		.long	875574826
 1911              	 # <anonymous>:
 1912 0144 00000000 		.long	0
 1913              	 # <anonymous>:
 1914 0148 939AFA66 		.long	1727699603
 1915              	 # <anonymous>:
 1916 014c 84010000 		.long	LC29
 1917              	 # <anonymous>:
 1918 0150 13000000 		.long	19
 1919              	 # <anonymous>:
 1920 0154 40000000 		.long	LC30
 1921              	 # <anonymous>:
 1922 0158 01000000 		.long	1
 1923              	 # <anonymous>:
 1924              	 # <anonymous>:
 1925 015c 71000000 		.long	113
 1926              	 # <anonymous>:
 1927 0160 40000000 		.long	LPBX1
 1928              	 # <anonymous>:
 1929 0164 00000000 		.long	___gcov_merge_add
 1930 0168 00000000 		.space 12
 1930      00000000 
 1930      00000000 
 1931 0174 00000000 		.text
 1931      00000000 
 1931      00000000 
 1932              		.def	__GLOBAL__sub_I_65535_0_wa;	.scl	3;	.type	32;	.endef
 1933              	__GLOBAL__sub_I_65535_0_wa:
 1934              	LFB28:
 1935              		.loc 1 392 0
 1936              		.cfi_startproc
 1937 1408 83EC1C   		subl	$28, %esp	 #,
 1938              	LCFI38:
 1939              		.cfi_def_cfa_offset 32
 1940              		.loc 1 392 0
 1941 140b C7042440 		movl	$LPBX0, (%esp)	 #,
 1941      010000
 1942 1412 E8000000 		call	___gcov_init	 #
 1942      00
 1943 1417 83C41C   		addl	$28, %esp	 #,
 1944              	LCFI39:
 1945              		.cfi_def_cfa_offset 4
 1946 141a C3       		ret
 1947              		.cfi_endproc
 1948              	LFE28:
 1949              		.section	.ctors,"w"
 1950              		.align 4
 1951 0000 08140000 		.long	__GLOBAL__sub_I_65535_0_wa
 1952              		.text
 1953              	Letext0:
 1954              		.file 2 "c:/mingw/bin/../lib/gcc/mingw32/4.6.2/include/stddef.h"
 1955              		.file 3 "c:/mingw/bin/../lib/gcc/mingw32/4.6.2/../../../../include/stdint.h"
 1956              		.file 4 "../../os/ports/GCC/SIMIA32/chtypes.h"
 1957              		.file 5 "../../os/kernel/include/chlists.h"
 1958              		.file 6 "../../os/kernel/include/chthreads.h"
 1959              		.file 7 "../../os/ports/GCC/SIMIA32/chcore.h"
 1960              		.file 8 "../../os/kernel/include/chvt.h"
GAS LISTING C:\cygwin\tmp\ccs5iBND.s 			page 48


 1961              		.file 9 "../../os/kernel/include/chschd.h"
 1962              		.file 10 "../../os/kernel/include/chmtx.h"
 1963              		.file 11 "../../os/kernel/include/chstreams.h"
 1964              		.file 12 "c:/mingw/bin/../lib/gcc/mingw32/4.6.2/../../../../include/stdio.h"
 1965              		.file 13 "../../test/test.h"
 1966              		.file 14 "../../test/testthd.h"
 1967              		.file 15 "../../test/testsem.h"
 1968              		.file 16 "../../test/testmtx.h"
 1969              		.file 17 "../../test/testmsg.h"
 1970              		.file 18 "../../test/testmbox.h"
 1971              		.file 19 "../../test/testevt.h"
 1972              		.file 20 "../../test/testheap.h"
 1973              		.file 21 "../../test/testpools.h"
 1974              		.file 22 "../../test/testdyn.h"
 1975              		.file 23 "../../test/testqueues.h"
 1976              		.file 24 "../../test/testbmk.h"
 1977              		.file 25 "c:/mingw/bin/../lib/gcc/mingw32/4.6.2/../../../../include/wtypes.h"