GAS LISTING C:\cygwin\tmp\ccBlkykz.s 			page 1


   1              		.file	"testsem.c"
   2              	 # GNU C (GCC) version 4.6.2 (mingw32)
   3              	 #	compiled by GNU C version 4.6.2, GMP version 5.0.1, MPFR version 2.4.1, MPC version 0.8.1
   4              	 # GGC heuristics: --param ggc-min-expand=100 --param ggc-min-heapsize=131072
   5              	 # options passed:  -I . -I ../../os/ports/GCC/SIMIA32
   6              	 # -I ../../os/kernel/include -I ../../test -I ../../os/hal/include
   7              	 # -I ../../os/hal/platforms/Win32 -I ../../boards/simulator
   8              	 # -I ../../os/various -iprefix c:\mingw\bin\../lib/gcc/mingw32/4.6.2/
   9              	 # -MD ../../test/testsem.d -MF .dep/testsem.o.d -MP
  10              	 # -MQ ../../test/testsem.o -D SIMULATOR ../../test/testsem.c -mtune=i386
  11              	 # -march=i386 -auxbase-strip ../../test/testsem.o -ggdb -O0 -Wall -Wextra
  12              	 # -Wstrict-prototypes -fomit-frame-pointer -fprofile-arcs -ftest-coverage
  13              	 # -fverbose-asm
  14              	 # options enabled:  -fasynchronous-unwind-tables -fauto-inc-dec
  15              	 # -fbranch-count-reg -fcommon -fdelete-null-pointer-checks
  16              	 # -fdwarf2-cfi-asm -fearly-inlining -feliminate-unused-debug-types
  17              	 # -ffunction-cse -fgcse-lm -fident -finline-functions-called-once
  18              	 # -fira-share-save-slots -fira-share-spill-slots -fivopts
  19              	 # -fkeep-inline-dllexport -fkeep-static-consts -fleading-underscore
  20              	 # -fmath-errno -fmerge-debug-strings -fmove-loop-invariants
  21              	 # -fomit-frame-pointer -fpeephole -fprefetch-loop-arrays -fprofile-arcs
  22              	 # -freg-struct-return -fsched-critical-path-heuristic
  23              	 # -fsched-dep-count-heuristic -fsched-group-heuristic -fsched-interblock
  24              	 # -fsched-last-insn-heuristic -fsched-rank-heuristic -fsched-spec
  25              	 # -fsched-spec-insn-heuristic -fsched-stalled-insns-dep
  26              	 # -fset-stack-executable -fshow-column -fsigned-zeros
  27              	 # -fsplit-ivs-in-unroller -fstrict-volatile-bitfields -ftest-coverage
  28              	 # -ftrapping-math -ftree-cselim -ftree-forwprop -ftree-loop-if-convert
  29              	 # -ftree-loop-im -ftree-loop-ivcanon -ftree-loop-optimize
  30              	 # -ftree-parallelize-loops= -ftree-phiprop -ftree-pta -ftree-reassoc
  31              	 # -ftree-scev-cprop -ftree-slp-vectorize -ftree-vect-loop-version
  32              	 # -funit-at-a-time -funwind-tables -fvect-cost-model -fverbose-asm
  33              	 # -fzero-initialized-in-bss -m32 -m80387 -m96bit-long-double
  34              	 # -maccumulate-outgoing-args -malign-double -malign-stringops
  35              	 # -mfancy-math-387 -mfp-ret-in-387 -mieee-fp -mno-red-zone -mno-sse4
  36              	 # -mpush-args -msahf -mstack-arg-probe
  37              	
  38              		.text
  39              	Ltext0:
  40              	 # Compiler executable checksum: c20aed7c018482d7b62efcd5dcab2a9d
  41              	
  42              		.data
  43              		.align 4
  44              	_sem1:
  45              	 # s_queue:
  46              	 # p_next:
  47 0000 00000000 		.long	_sem1
  48              	 # p_prev:
  49 0004 00000000 		.long	_sem1
  50              	 # s_cnt:
  51 0008 00000000 		.long	0
  52              		.text
  53              		.def	_sem1_setup;	.scl	3;	.type	32;	.endef
  54              	_sem1_setup:
  55              	LFB0:
  56              		.file 1 "../../test/testsem.c"
  57              		.loc 1 76 0
GAS LISTING C:\cygwin\tmp\ccBlkykz.s 			page 2


  58              		.cfi_startproc
  59 0000 83EC1C   		subl	$28, %esp	 #,
  60              	LCFI0:
  61              		.cfi_def_cfa_offset 32
  62              		.loc 1 76 0
  63 0003 A1880300 		movl	LPBX1+904, %eax	 # *LPBX1, PROF_edge_counter.10
  63      00
  64 0008 8B158C03 		movl	LPBX1+908, %edx	 # *LPBX1, PROF_edge_counter.10
  64      0000
  65 000e 83C001   		addl	$1, %eax	 #, PROF_edge_counter.10
  66 0011 83D200   		adcl	$0, %edx	 #, PROF_edge_counter.10
  67 0014 A3880300 		movl	%eax, LPBX1+904	 # PROF_edge_counter.10, *LPBX1
  67      00
  68 0019 89158C03 		movl	%edx, LPBX1+908	 # PROF_edge_counter.10, *LPBX1
  68      0000
  69              		.loc 1 78 0
  70 001f C7442404 		movl	$0, 4(%esp)	 #,
  70      00000000 
  71 0027 C7042400 		movl	$_sem1, (%esp)	 #,
  71      000000
  72 002e E8000000 		call	_chSemInit	 #
  72      00
  73 0033 A1900300 		movl	LPBX1+912, %eax	 # *LPBX1, PROF_edge_counter.10
  73      00
  74 0038 8B159403 		movl	LPBX1+916, %edx	 # *LPBX1, PROF_edge_counter.10
  74      0000
  75 003e 83C001   		addl	$1, %eax	 #, PROF_edge_counter.10
  76 0041 83D200   		adcl	$0, %edx	 #, PROF_edge_counter.10
  77 0044 A3900300 		movl	%eax, LPBX1+912	 # PROF_edge_counter.10, *LPBX1
  77      00
  78 0049 89159403 		movl	%edx, LPBX1+916	 # PROF_edge_counter.10, *LPBX1
  78      0000
  79              		.loc 1 79 0
  80 004f 83C41C   		addl	$28, %esp	 #,
  81              	LCFI1:
  82              		.cfi_def_cfa_offset 4
  83 0052 C3       		ret
  84              		.cfi_endproc
  85              	LFE0:
  86              		.def	_thread1;	.scl	3;	.type	32;	.endef
  87              	_thread1:
  88              	LFB1:
  89              		.loc 1 81 0
  90              		.cfi_startproc
  91 0053 83EC1C   		subl	$28, %esp	 #,
  92              	LCFI2:
  93              		.cfi_def_cfa_offset 32
  94              		.loc 1 81 0
  95 0056 A1700300 		movl	LPBX1+880, %eax	 # *LPBX1, PROF_edge_counter.9
  95      00
  96 005b 8B157403 		movl	LPBX1+884, %edx	 # *LPBX1, PROF_edge_counter.9
  96      0000
  97 0061 83C001   		addl	$1, %eax	 #, PROF_edge_counter.9
  98 0064 83D200   		adcl	$0, %edx	 #, PROF_edge_counter.9
  99 0067 A3700300 		movl	%eax, LPBX1+880	 # PROF_edge_counter.9, *LPBX1
  99      00
 100 006c 89157403 		movl	%edx, LPBX1+884	 # PROF_edge_counter.9, *LPBX1
GAS LISTING C:\cygwin\tmp\ccBlkykz.s 			page 3


 100      0000
 101              		.loc 1 83 0
 102 0072 C7042400 		movl	$_sem1, (%esp)	 #,
 102      000000
 103 0079 E8000000 		call	_chSemWait	 #
 103      00
 104 007e A1780300 		movl	LPBX1+888, %eax	 # *LPBX1, PROF_edge_counter.9
 104      00
 105 0083 8B157C03 		movl	LPBX1+892, %edx	 # *LPBX1, PROF_edge_counter.9
 105      0000
 106 0089 83C001   		addl	$1, %eax	 #, PROF_edge_counter.9
 107 008c 83D200   		adcl	$0, %edx	 #, PROF_edge_counter.9
 108 008f A3780300 		movl	%eax, LPBX1+888	 # PROF_edge_counter.9, *LPBX1
 108      00
 109 0094 89157C03 		movl	%edx, LPBX1+892	 # PROF_edge_counter.9, *LPBX1
 109      0000
 110              		.loc 1 84 0
 111 009a 8B442420 		movl	32(%esp), %eax	 # p, tmp69
 112 009e 8A00     		movb	(%eax), %al	 # MEM[(char *)p_1(D)], D.3015
 113 00a0 0FBEC0   		movsbl	%al, %eax	 # D.3015, D.3016
 114 00a3 890424   		movl	%eax, (%esp)	 # D.3016,
 115 00a6 E8000000 		call	_test_emit_token	 #
 115      00
 116 00ab A1800300 		movl	LPBX1+896, %eax	 # *LPBX1, PROF_edge_counter.9
 116      00
 117 00b0 8B158403 		movl	LPBX1+900, %edx	 # *LPBX1, PROF_edge_counter.9
 117      0000
 118 00b6 83C001   		addl	$1, %eax	 #, PROF_edge_counter.9
 119 00b9 83D200   		adcl	$0, %edx	 #, PROF_edge_counter.9
 120 00bc A3800300 		movl	%eax, LPBX1+896	 # PROF_edge_counter.9, *LPBX1
 120      00
 121 00c1 89158403 		movl	%edx, LPBX1+900	 # PROF_edge_counter.9, *LPBX1
 121      0000
 122              		.loc 1 85 0
 123 00c7 B8000000 		movl	$0, %eax	 #, D.3017
 123      00
 124              		.loc 1 86 0
 125 00cc 83C41C   		addl	$28, %esp	 #,
 126              	LCFI3:
 127              		.cfi_def_cfa_offset 4
 128 00cf C3       		ret
 129              		.cfi_endproc
 130              	LFE1:
 131              		.section .rdata,"dr"
 132              	LC0:
 133 0000 4100     		.ascii "A\0"
 134              	LC1:
 135 0002 4200     		.ascii "B\0"
 136              	LC2:
 137 0004 4300     		.ascii "C\0"
 138              	LC3:
 139 0006 4400     		.ascii "D\0"
 140              	LC4:
 141 0008 4500     		.ascii "E\0"
 142              	LC5:
 143 000a 41424344 		.ascii "ABCDE\0"
 143      4500
GAS LISTING C:\cygwin\tmp\ccBlkykz.s 			page 4


 144              		.text
 145              		.def	_sem1_execute;	.scl	3;	.type	32;	.endef
 146              	_sem1_execute:
 147              	LFB2:
 148              		.loc 1 88 0
 149              		.cfi_startproc
 150 00d0 83EC2C   		subl	$44, %esp	 #,
 151              	LCFI4:
 152              		.cfi_def_cfa_offset 48
 153              		.loc 1 88 0
 154 00d3 A1C80200 		movl	LPBX1+712, %eax	 # *LPBX1, PROF_edge_counter.8
 154      00
 155 00d8 8B15CC02 		movl	LPBX1+716, %edx	 # *LPBX1, PROF_edge_counter.8
 155      0000
 156 00de 83C001   		addl	$1, %eax	 #, PROF_edge_counter.8
 157 00e1 83D200   		adcl	$0, %edx	 #, PROF_edge_counter.8
 158 00e4 A3C80200 		movl	%eax, LPBX1+712	 # PROF_edge_counter.8, *LPBX1
 158      00
 159 00e9 8915CC02 		movl	%edx, LPBX1+716	 # PROF_edge_counter.8, *LPBX1
 159      0000
 160              		.loc 1 90 0
 161 00ef A1180000 		movl	_rlist+24, %eax	 # rlist.r_current, D.2976
 161      00
 162 00f4 8B4008   		movl	8(%eax), %eax	 # D.2976_1->p_prio, D.2977
 163 00f7 8D5005   		leal	5(%eax), %edx	 #, D.2978
 164 00fa A1000000 		movl	_wa, %eax	 # wa, D.2979
 164      00
 165 00ff C7442410 		movl	$LC0, 16(%esp)	 #,
 165      00000000 
 166 0107 C744240C 		movl	$_thread1, 12(%esp)	 #,
 166      53000000 
 167 010f 89542408 		movl	%edx, 8(%esp)	 # D.2978,
 168 0113 C7442404 		movl	$17008, 4(%esp)	 #,
 168      70420000 
 169 011b 890424   		movl	%eax, (%esp)	 # D.2979,
 170 011e E8000000 		call	_chThdCreateStatic	 #
 170      00
 171 0123 89C1     		movl	%eax, %ecx	 #, D.2980
 172 0125 A1D00200 		movl	LPBX1+720, %eax	 # *LPBX1, PROF_edge_counter.8
 172      00
 173 012a 8B15D402 		movl	LPBX1+724, %edx	 # *LPBX1, PROF_edge_counter.8
 173      0000
 174 0130 83C001   		addl	$1, %eax	 #, PROF_edge_counter.8
 175 0133 83D200   		adcl	$0, %edx	 #, PROF_edge_counter.8
 176 0136 A3D00200 		movl	%eax, LPBX1+720	 # PROF_edge_counter.8, *LPBX1
 176      00
 177 013b 8915D402 		movl	%edx, LPBX1+724	 # PROF_edge_counter.8, *LPBX1
 177      0000
 178 0141 890D0000 		movl	%ecx, _threads	 # D.2980, threads
 178      0000
 179              		.loc 1 91 0
 180 0147 A1180000 		movl	_rlist+24, %eax	 # rlist.r_current, D.2981
 180      00
 181 014c 8B4008   		movl	8(%eax), %eax	 # D.2981_6->p_prio, D.2982
 182 014f 8D5001   		leal	1(%eax), %edx	 #, D.2983
 183 0152 A1040000 		movl	_wa+4, %eax	 # wa, D.2984
 183      00
GAS LISTING C:\cygwin\tmp\ccBlkykz.s 			page 5


 184 0157 C7442410 		movl	$LC1, 16(%esp)	 #,
 184      02000000 
 185 015f C744240C 		movl	$_thread1, 12(%esp)	 #,
 185      53000000 
 186 0167 89542408 		movl	%edx, 8(%esp)	 # D.2983,
 187 016b C7442404 		movl	$17008, 4(%esp)	 #,
 187      70420000 
 188 0173 890424   		movl	%eax, (%esp)	 # D.2984,
 189 0176 E8000000 		call	_chThdCreateStatic	 #
 189      00
 190 017b 89C1     		movl	%eax, %ecx	 #, D.2985
 191 017d A1D80200 		movl	LPBX1+728, %eax	 # *LPBX1, PROF_edge_counter.8
 191      00
 192 0182 8B15DC02 		movl	LPBX1+732, %edx	 # *LPBX1, PROF_edge_counter.8
 192      0000
 193 0188 83C001   		addl	$1, %eax	 #, PROF_edge_counter.8
 194 018b 83D200   		adcl	$0, %edx	 #, PROF_edge_counter.8
 195 018e A3D80200 		movl	%eax, LPBX1+728	 # PROF_edge_counter.8, *LPBX1
 195      00
 196 0193 8915DC02 		movl	%edx, LPBX1+732	 # PROF_edge_counter.8, *LPBX1
 196      0000
 197 0199 890D0400 		movl	%ecx, _threads+4	 # D.2985, threads
 197      0000
 198              		.loc 1 92 0
 199 019f A1180000 		movl	_rlist+24, %eax	 # rlist.r_current, D.2986
 199      00
 200 01a4 8B4008   		movl	8(%eax), %eax	 # D.2986_11->p_prio, D.2987
 201 01a7 8D5003   		leal	3(%eax), %edx	 #, D.2988
 202 01aa A1080000 		movl	_wa+8, %eax	 # wa, D.2989
 202      00
 203 01af C7442410 		movl	$LC2, 16(%esp)	 #,
 203      04000000 
 204 01b7 C744240C 		movl	$_thread1, 12(%esp)	 #,
 204      53000000 
 205 01bf 89542408 		movl	%edx, 8(%esp)	 # D.2988,
 206 01c3 C7442404 		movl	$17008, 4(%esp)	 #,
 206      70420000 
 207 01cb 890424   		movl	%eax, (%esp)	 # D.2989,
 208 01ce E8000000 		call	_chThdCreateStatic	 #
 208      00
 209 01d3 89C1     		movl	%eax, %ecx	 #, D.2990
 210 01d5 A1E00200 		movl	LPBX1+736, %eax	 # *LPBX1, PROF_edge_counter.8
 210      00
 211 01da 8B15E402 		movl	LPBX1+740, %edx	 # *LPBX1, PROF_edge_counter.8
 211      0000
 212 01e0 83C001   		addl	$1, %eax	 #, PROF_edge_counter.8
 213 01e3 83D200   		adcl	$0, %edx	 #, PROF_edge_counter.8
 214 01e6 A3E00200 		movl	%eax, LPBX1+736	 # PROF_edge_counter.8, *LPBX1
 214      00
 215 01eb 8915E402 		movl	%edx, LPBX1+740	 # PROF_edge_counter.8, *LPBX1
 215      0000
 216 01f1 890D0800 		movl	%ecx, _threads+8	 # D.2990, threads
 216      0000
 217              		.loc 1 93 0
 218 01f7 A1180000 		movl	_rlist+24, %eax	 # rlist.r_current, D.2991
 218      00
 219 01fc 8B4008   		movl	8(%eax), %eax	 # D.2991_16->p_prio, D.2992
GAS LISTING C:\cygwin\tmp\ccBlkykz.s 			page 6


 220 01ff 8D5004   		leal	4(%eax), %edx	 #, D.2993
 221 0202 A10C0000 		movl	_wa+12, %eax	 # wa, D.2994
 221      00
 222 0207 C7442410 		movl	$LC3, 16(%esp)	 #,
 222      06000000 
 223 020f C744240C 		movl	$_thread1, 12(%esp)	 #,
 223      53000000 
 224 0217 89542408 		movl	%edx, 8(%esp)	 # D.2993,
 225 021b C7442404 		movl	$17008, 4(%esp)	 #,
 225      70420000 
 226 0223 890424   		movl	%eax, (%esp)	 # D.2994,
 227 0226 E8000000 		call	_chThdCreateStatic	 #
 227      00
 228 022b 89C1     		movl	%eax, %ecx	 #, D.2995
 229 022d A1E80200 		movl	LPBX1+744, %eax	 # *LPBX1, PROF_edge_counter.8
 229      00
 230 0232 8B15EC02 		movl	LPBX1+748, %edx	 # *LPBX1, PROF_edge_counter.8
 230      0000
 231 0238 83C001   		addl	$1, %eax	 #, PROF_edge_counter.8
 232 023b 83D200   		adcl	$0, %edx	 #, PROF_edge_counter.8
 233 023e A3E80200 		movl	%eax, LPBX1+744	 # PROF_edge_counter.8, *LPBX1
 233      00
 234 0243 8915EC02 		movl	%edx, LPBX1+748	 # PROF_edge_counter.8, *LPBX1
 234      0000
 235 0249 890D0C00 		movl	%ecx, _threads+12	 # D.2995, threads
 235      0000
 236              		.loc 1 94 0
 237 024f A1180000 		movl	_rlist+24, %eax	 # rlist.r_current, D.2996
 237      00
 238 0254 8B4008   		movl	8(%eax), %eax	 # D.2996_21->p_prio, D.2997
 239 0257 8D5002   		leal	2(%eax), %edx	 #, D.2998
 240 025a A1100000 		movl	_wa+16, %eax	 # wa, D.2999
 240      00
 241 025f C7442410 		movl	$LC4, 16(%esp)	 #,
 241      08000000 
 242 0267 C744240C 		movl	$_thread1, 12(%esp)	 #,
 242      53000000 
 243 026f 89542408 		movl	%edx, 8(%esp)	 # D.2998,
 244 0273 C7442404 		movl	$17008, 4(%esp)	 #,
 244      70420000 
 245 027b 890424   		movl	%eax, (%esp)	 # D.2999,
 246 027e E8000000 		call	_chThdCreateStatic	 #
 246      00
 247 0283 89C1     		movl	%eax, %ecx	 #, D.3000
 248 0285 A1F00200 		movl	LPBX1+752, %eax	 # *LPBX1, PROF_edge_counter.8
 248      00
 249 028a 8B15F402 		movl	LPBX1+756, %edx	 # *LPBX1, PROF_edge_counter.8
 249      0000
 250 0290 83C001   		addl	$1, %eax	 #, PROF_edge_counter.8
 251 0293 83D200   		adcl	$0, %edx	 #, PROF_edge_counter.8
 252 0296 A3F00200 		movl	%eax, LPBX1+752	 # PROF_edge_counter.8, *LPBX1
 252      00
 253 029b 8915F402 		movl	%edx, LPBX1+756	 # PROF_edge_counter.8, *LPBX1
 253      0000
 254 02a1 890D1000 		movl	%ecx, _threads+16	 # D.3000, threads
 254      0000
 255              		.loc 1 95 0
GAS LISTING C:\cygwin\tmp\ccBlkykz.s 			page 7


 256 02a7 C7042400 		movl	$_sem1, (%esp)	 #,
 256      000000
 257 02ae E8000000 		call	_chSemSignal	 #
 257      00
 258 02b3 A1F80200 		movl	LPBX1+760, %eax	 # *LPBX1, PROF_edge_counter.8
 258      00
 259 02b8 8B15FC02 		movl	LPBX1+764, %edx	 # *LPBX1, PROF_edge_counter.8
 259      0000
 260 02be 83C001   		addl	$1, %eax	 #, PROF_edge_counter.8
 261 02c1 83D200   		adcl	$0, %edx	 #, PROF_edge_counter.8
 262 02c4 A3F80200 		movl	%eax, LPBX1+760	 # PROF_edge_counter.8, *LPBX1
 262      00
 263 02c9 8915FC02 		movl	%edx, LPBX1+764	 # PROF_edge_counter.8, *LPBX1
 263      0000
 264              		.loc 1 96 0
 265 02cf C7042400 		movl	$_sem1, (%esp)	 #,
 265      000000
 266 02d6 E8000000 		call	_chSemSignal	 #
 266      00
 267 02db A1000300 		movl	LPBX1+768, %eax	 # *LPBX1, PROF_edge_counter.8
 267      00
 268 02e0 8B150403 		movl	LPBX1+772, %edx	 # *LPBX1, PROF_edge_counter.8
 268      0000
 269 02e6 83C001   		addl	$1, %eax	 #, PROF_edge_counter.8
 270 02e9 83D200   		adcl	$0, %edx	 #, PROF_edge_counter.8
 271 02ec A3000300 		movl	%eax, LPBX1+768	 # PROF_edge_counter.8, *LPBX1
 271      00
 272 02f1 89150403 		movl	%edx, LPBX1+772	 # PROF_edge_counter.8, *LPBX1
 272      0000
 273              		.loc 1 97 0
 274 02f7 C7042400 		movl	$_sem1, (%esp)	 #,
 274      000000
 275 02fe E8000000 		call	_chSemSignal	 #
 275      00
 276 0303 A1080300 		movl	LPBX1+776, %eax	 # *LPBX1, PROF_edge_counter.8
 276      00
 277 0308 8B150C03 		movl	LPBX1+780, %edx	 # *LPBX1, PROF_edge_counter.8
 277      0000
 278 030e 83C001   		addl	$1, %eax	 #, PROF_edge_counter.8
 279 0311 83D200   		adcl	$0, %edx	 #, PROF_edge_counter.8
 280 0314 A3080300 		movl	%eax, LPBX1+776	 # PROF_edge_counter.8, *LPBX1
 280      00
 281 0319 89150C03 		movl	%edx, LPBX1+780	 # PROF_edge_counter.8, *LPBX1
 281      0000
 282              		.loc 1 98 0
 283 031f C7042400 		movl	$_sem1, (%esp)	 #,
 283      000000
 284 0326 E8000000 		call	_chSemSignal	 #
 284      00
 285 032b A1100300 		movl	LPBX1+784, %eax	 # *LPBX1, PROF_edge_counter.8
 285      00
 286 0330 8B151403 		movl	LPBX1+788, %edx	 # *LPBX1, PROF_edge_counter.8
 286      0000
 287 0336 83C001   		addl	$1, %eax	 #, PROF_edge_counter.8
 288 0339 83D200   		adcl	$0, %edx	 #, PROF_edge_counter.8
 289 033c A3100300 		movl	%eax, LPBX1+784	 # PROF_edge_counter.8, *LPBX1
 289      00
GAS LISTING C:\cygwin\tmp\ccBlkykz.s 			page 8


 290 0341 89151403 		movl	%edx, LPBX1+788	 # PROF_edge_counter.8, *LPBX1
 290      0000
 291              		.loc 1 99 0
 292 0347 C7042400 		movl	$_sem1, (%esp)	 #,
 292      000000
 293 034e E8000000 		call	_chSemSignal	 #
 293      00
 294 0353 A1180300 		movl	LPBX1+792, %eax	 # *LPBX1, PROF_edge_counter.8
 294      00
 295 0358 8B151C03 		movl	LPBX1+796, %edx	 # *LPBX1, PROF_edge_counter.8
 295      0000
 296 035e 83C001   		addl	$1, %eax	 #, PROF_edge_counter.8
 297 0361 83D200   		adcl	$0, %edx	 #, PROF_edge_counter.8
 298 0364 A3180300 		movl	%eax, LPBX1+792	 # PROF_edge_counter.8, *LPBX1
 298      00
 299 0369 89151C03 		movl	%edx, LPBX1+796	 # PROF_edge_counter.8, *LPBX1
 299      0000
 300              		.loc 1 100 0
 301 036f E8000000 		call	_test_wait_threads	 #
 301      00
 302 0374 A1200300 		movl	LPBX1+800, %eax	 # *LPBX1, PROF_edge_counter.8
 302      00
 303 0379 8B152403 		movl	LPBX1+804, %edx	 # *LPBX1, PROF_edge_counter.8
 303      0000
 304 037f 83C001   		addl	$1, %eax	 #, PROF_edge_counter.8
 305 0382 83D200   		adcl	$0, %edx	 #, PROF_edge_counter.8
 306 0385 A3200300 		movl	%eax, LPBX1+800	 # PROF_edge_counter.8, *LPBX1
 306      00
 307 038a 89152403 		movl	%edx, LPBX1+804	 # PROF_edge_counter.8, *LPBX1
 307      0000
 308              		.loc 1 104 0
 309 0390 C7442404 		movl	$LC5, 4(%esp)	 #,
 309      0A000000 
 310 0398 C7042401 		movl	$1, (%esp)	 #,
 310      000000
 311 039f E8000000 		call	__test_assert_sequence	 #
 311      00
 312 03a4 84C0     		testb	%al, %al	 # D.3001
 313 03a6 7421     		je	L4	 #,
 314              		.loc 1 104 0 is_stmt 0 discriminator 1
 315 03a8 A1300300 		movl	LPBX1+816, %eax	 # *LPBX1, PROF_edge_counter.8
 315      00
 316 03ad 8B153403 		movl	LPBX1+820, %edx	 # *LPBX1, PROF_edge_counter.8
 316      0000
 317 03b3 83C001   		addl	$1, %eax	 #, PROF_edge_counter.8
 318 03b6 83D200   		adcl	$0, %edx	 #, PROF_edge_counter.8
 319 03b9 A3300300 		movl	%eax, LPBX1+816	 # PROF_edge_counter.8, *LPBX1
 319      00
 320 03be 89153403 		movl	%edx, LPBX1+820	 # PROF_edge_counter.8, *LPBX1
 320      0000
 321 03c4 E95B0100 		jmp	L3	 #
 321      00
 322              	L4:
 323              		.loc 1 104 0
 324 03c9 A1280300 		movl	LPBX1+808, %eax	 # *LPBX1, PROF_edge_counter.8
 324      00
 325 03ce 8B152C03 		movl	LPBX1+812, %edx	 # *LPBX1, PROF_edge_counter.8
GAS LISTING C:\cygwin\tmp\ccBlkykz.s 			page 9


 325      0000
 326 03d4 83C001   		addl	$1, %eax	 #, PROF_edge_counter.8
 327 03d7 83D200   		adcl	$0, %edx	 #, PROF_edge_counter.8
 328 03da A3280300 		movl	%eax, LPBX1+808	 # PROF_edge_counter.8, *LPBX1
 328      00
 329 03df 89152C03 		movl	%edx, LPBX1+812	 # PROF_edge_counter.8, *LPBX1
 329      0000
 330              		.loc 1 106 0 is_stmt 1
 331 03e5 A1180000 		movl	_rlist+24, %eax	 # rlist.r_current, D.3004
 331      00
 332 03ea 8B4008   		movl	8(%eax), %eax	 # D.3004_27->p_prio, D.3005
 333 03ed 8D5005   		leal	5(%eax), %edx	 #, D.3006
 334 03f0 A1000000 		movl	_wa, %eax	 # wa, D.3007
 334      00
 335 03f5 C7442410 		movl	$LC0, 16(%esp)	 #,
 335      00000000 
 336 03fd C744240C 		movl	$_thread1, 12(%esp)	 #,
 336      53000000 
 337 0405 89542408 		movl	%edx, 8(%esp)	 # D.3006,
 338 0409 C7442404 		movl	$17008, 4(%esp)	 #,
 338      70420000 
 339 0411 890424   		movl	%eax, (%esp)	 # D.3007,
 340 0414 E8000000 		call	_chThdCreateStatic	 #
 340      00
 341 0419 89C1     		movl	%eax, %ecx	 #, D.3008
 342 041b A1380300 		movl	LPBX1+824, %eax	 # *LPBX1, PROF_edge_counter.8
 342      00
 343 0420 8B153C03 		movl	LPBX1+828, %edx	 # *LPBX1, PROF_edge_counter.8
 343      0000
 344 0426 83C001   		addl	$1, %eax	 #, PROF_edge_counter.8
 345 0429 83D200   		adcl	$0, %edx	 #, PROF_edge_counter.8
 346 042c A3380300 		movl	%eax, LPBX1+824	 # PROF_edge_counter.8, *LPBX1
 346      00
 347 0431 89153C03 		movl	%edx, LPBX1+828	 # PROF_edge_counter.8, *LPBX1
 347      0000
 348 0437 890D0000 		movl	%ecx, _threads	 # D.3008, threads
 348      0000
 349              		.loc 1 107 0
 350              	/APP
 351              	 # 107 "../../test/testsem.c" 1
 352 043d 90       		nop
 353              	 # 0 "" 2
 354              	/NO_APP
 355 043e A1400300 		movl	LPBX1+832, %eax	 # *LPBX1, PROF_edge_counter.8
 355      00
 356 0443 8B154403 		movl	LPBX1+836, %edx	 # *LPBX1, PROF_edge_counter.8
 356      0000
 357 0449 83C001   		addl	$1, %eax	 #, PROF_edge_counter.8
 358 044c 83D200   		adcl	$0, %edx	 #, PROF_edge_counter.8
 359 044f A3400300 		movl	%eax, LPBX1+832	 # PROF_edge_counter.8, *LPBX1
 359      00
 360 0454 89154403 		movl	%edx, LPBX1+836	 # PROF_edge_counter.8, *LPBX1
 360      0000
 361              		.loc 1 108 0
 362 045a C7442404 		movl	$2, 4(%esp)	 #,
 362      02000000 
 363 0462 C7042400 		movl	$_sem1, (%esp)	 #,
GAS LISTING C:\cygwin\tmp\ccBlkykz.s 			page 10


 363      000000
 364 0469 E8000000 		call	_chSemAddCounterI	 #
 364      00
 365 046e A1480300 		movl	LPBX1+840, %eax	 # *LPBX1, PROF_edge_counter.8
 365      00
 366 0473 8B154C03 		movl	LPBX1+844, %edx	 # *LPBX1, PROF_edge_counter.8
 366      0000
 367 0479 83C001   		addl	$1, %eax	 #, PROF_edge_counter.8
 368 047c 83D200   		adcl	$0, %edx	 #, PROF_edge_counter.8
 369 047f A3480300 		movl	%eax, LPBX1+840	 # PROF_edge_counter.8, *LPBX1
 369      00
 370 0484 89154C03 		movl	%edx, LPBX1+844	 # PROF_edge_counter.8, *LPBX1
 370      0000
 371              		.loc 1 109 0
 372              	/APP
 373              	 # 109 "../../test/testsem.c" 1
 374 048a 90       		nop
 375              	 # 0 "" 2
 376              	/NO_APP
 377 048b A1500300 		movl	LPBX1+848, %eax	 # *LPBX1, PROF_edge_counter.8
 377      00
 378 0490 8B155403 		movl	LPBX1+852, %edx	 # *LPBX1, PROF_edge_counter.8
 378      0000
 379 0496 83C001   		addl	$1, %eax	 #, PROF_edge_counter.8
 380 0499 83D200   		adcl	$0, %edx	 #, PROF_edge_counter.8
 381 049c A3500300 		movl	%eax, LPBX1+848	 # PROF_edge_counter.8, *LPBX1
 381      00
 382 04a1 89155403 		movl	%edx, LPBX1+852	 # PROF_edge_counter.8, *LPBX1
 382      0000
 383              		.loc 1 110 0
 384 04a7 E8000000 		call	_test_wait_threads	 #
 384      00
 385 04ac A1580300 		movl	LPBX1+856, %eax	 # *LPBX1, PROF_edge_counter.8
 385      00
 386 04b1 8B155C03 		movl	LPBX1+860, %edx	 # *LPBX1, PROF_edge_counter.8
 386      0000
 387 04b7 83C001   		addl	$1, %eax	 #, PROF_edge_counter.8
 388 04ba 83D200   		adcl	$0, %edx	 #, PROF_edge_counter.8
 389 04bd A3580300 		movl	%eax, LPBX1+856	 # PROF_edge_counter.8, *LPBX1
 389      00
 390 04c2 89155C03 		movl	%edx, LPBX1+860	 # PROF_edge_counter.8, *LPBX1
 390      0000
 391              		.loc 1 111 0
 392 04c8 A1080000 		movl	_sem1+8, %eax	 # sem1.s_cnt, D.3009
 392      00
 393 04cd 83F801   		cmpl	$1, %eax	 #, D.3009
 394 04d0 0F94C0   		sete	%al	 #, tmp135
 395 04d3 0FB6C0   		movzbl	%al, %eax	 # tmp135, D.3010
 396 04d6 89442404 		movl	%eax, 4(%esp)	 # D.3010,
 397 04da C7042402 		movl	$2, (%esp)	 #,
 397      000000
 398 04e1 E8000000 		call	__test_assert	 #
 398      00
 399 04e6 88C1     		movb	%al, %cl	 #, D.3011
 400 04e8 A1600300 		movl	LPBX1+864, %eax	 # *LPBX1, PROF_edge_counter.8
 400      00
 401 04ed 8B156403 		movl	LPBX1+868, %edx	 # *LPBX1, PROF_edge_counter.8
GAS LISTING C:\cygwin\tmp\ccBlkykz.s 			page 11


 401      0000
 402 04f3 83C001   		addl	$1, %eax	 #, PROF_edge_counter.8
 403 04f6 83D200   		adcl	$0, %edx	 #, PROF_edge_counter.8
 404 04f9 A3600300 		movl	%eax, LPBX1+864	 # PROF_edge_counter.8, *LPBX1
 404      00
 405 04fe 89156403 		movl	%edx, LPBX1+868	 # PROF_edge_counter.8, *LPBX1
 405      0000
 406 0504 84C9     		testb	%cl, %cl	 # D.3011
 407 0506 741C     		je	L3	 #,
 408              		.loc 1 111 0 is_stmt 0 discriminator 1
 409 0508 A1680300 		movl	LPBX1+872, %eax	 # *LPBX1, PROF_edge_counter.8
 409      00
 410 050d 8B156C03 		movl	LPBX1+876, %edx	 # *LPBX1, PROF_edge_counter.8
 410      0000
 411 0513 83C001   		addl	$1, %eax	 #, PROF_edge_counter.8
 412 0516 83D200   		adcl	$0, %edx	 #, PROF_edge_counter.8
 413 0519 A3680300 		movl	%eax, LPBX1+872	 # PROF_edge_counter.8, *LPBX1
 413      00
 414 051e 89156C03 		movl	%edx, LPBX1+876	 # PROF_edge_counter.8, *LPBX1
 414      0000
 415              	L3:
 416              		.loc 1 112 0 is_stmt 1
 417 0524 83C42C   		addl	$44, %esp	 #,
 418              	LCFI5:
 419              		.cfi_def_cfa_offset 4
 420 0527 C3       		ret
 421              		.cfi_endproc
 422              	LFE2:
 423              		.globl	_testsem1
 424              		.section .rdata,"dr"
 425              	LC6:
 426 0010 53656D61 		.ascii "Semaphores, enqueuing\0"
 426      70686F72 
 426      65732C20 
 426      656E7175 
 426      6575696E 
 427 0026 0000     		.align 4
 428              	_testsem1:
 429              	 # name:
 430 0028 10000000 		.long	LC6
 431              	 # setup:
 432 002c 00000000 		.long	_sem1_setup
 433              	 # teardown:
 434 0030 00000000 		.long	0
 435              	 # execute:
 436 0034 D0000000 		.long	_sem1_execute
 437              		.text
 438              		.def	_sem2_setup;	.scl	3;	.type	32;	.endef
 439              	_sem2_setup:
 440              	LFB3:
 441              		.loc 1 132 0
 442              		.cfi_startproc
 443 0528 83EC1C   		subl	$28, %esp	 #,
 444              	LCFI6:
 445              		.cfi_def_cfa_offset 32
 446              		.loc 1 132 0
 447 052b A1B80200 		movl	LPBX1+696, %eax	 # *LPBX1, PROF_edge_counter.7
GAS LISTING C:\cygwin\tmp\ccBlkykz.s 			page 12


 447      00
 448 0530 8B15BC02 		movl	LPBX1+700, %edx	 # *LPBX1, PROF_edge_counter.7
 448      0000
 449 0536 83C001   		addl	$1, %eax	 #, PROF_edge_counter.7
 450 0539 83D200   		adcl	$0, %edx	 #, PROF_edge_counter.7
 451 053c A3B80200 		movl	%eax, LPBX1+696	 # PROF_edge_counter.7, *LPBX1
 451      00
 452 0541 8915BC02 		movl	%edx, LPBX1+700	 # PROF_edge_counter.7, *LPBX1
 452      0000
 453              		.loc 1 134 0
 454 0547 C7442404 		movl	$0, 4(%esp)	 #,
 454      00000000 
 455 054f C7042400 		movl	$_sem1, (%esp)	 #,
 455      000000
 456 0556 E8000000 		call	_chSemInit	 #
 456      00
 457 055b A1C00200 		movl	LPBX1+704, %eax	 # *LPBX1, PROF_edge_counter.7
 457      00
 458 0560 8B15C402 		movl	LPBX1+708, %edx	 # *LPBX1, PROF_edge_counter.7
 458      0000
 459 0566 83C001   		addl	$1, %eax	 #, PROF_edge_counter.7
 460 0569 83D200   		adcl	$0, %edx	 #, PROF_edge_counter.7
 461 056c A3C00200 		movl	%eax, LPBX1+704	 # PROF_edge_counter.7, *LPBX1
 461      00
 462 0571 8915C402 		movl	%edx, LPBX1+708	 # PROF_edge_counter.7, *LPBX1
 462      0000
 463              		.loc 1 135 0
 464 0577 83C41C   		addl	$28, %esp	 #,
 465              	LCFI7:
 466              		.cfi_def_cfa_offset 4
 467 057a C3       		ret
 468              		.cfi_endproc
 469              	LFE3:
 470              		.def	_thread2;	.scl	3;	.type	32;	.endef
 471              	_thread2:
 472              	LFB4:
 473              		.loc 1 137 0
 474              		.cfi_startproc
 475 057b 83EC1C   		subl	$28, %esp	 #,
 476              	LCFI8:
 477              		.cfi_def_cfa_offset 32
 478              		.loc 1 137 0
 479 057e A1880200 		movl	LPBX1+648, %eax	 # *LPBX1, PROF_edge_counter.6
 479      00
 480 0583 8B158C02 		movl	LPBX1+652, %edx	 # *LPBX1, PROF_edge_counter.6
 480      0000
 481 0589 83C001   		addl	$1, %eax	 #, PROF_edge_counter.6
 482 058c 83D200   		adcl	$0, %edx	 #, PROF_edge_counter.6
 483 058f A3880200 		movl	%eax, LPBX1+648	 # PROF_edge_counter.6, *LPBX1
 483      00
 484 0594 89158C02 		movl	%edx, LPBX1+652	 # PROF_edge_counter.6, *LPBX1
 484      0000
 485              		.loc 1 140 0
 486 059a C7042432 		movl	$50, (%esp)	 #,
 486      000000
 487 05a1 E8000000 		call	_chThdSleep	 #
 487      00
GAS LISTING C:\cygwin\tmp\ccBlkykz.s 			page 13


 488 05a6 A1900200 		movl	LPBX1+656, %eax	 # *LPBX1, PROF_edge_counter.6
 488      00
 489 05ab 8B159402 		movl	LPBX1+660, %edx	 # *LPBX1, PROF_edge_counter.6
 489      0000
 490 05b1 83C001   		addl	$1, %eax	 #, PROF_edge_counter.6
 491 05b4 83D200   		adcl	$0, %edx	 #, PROF_edge_counter.6
 492 05b7 A3900200 		movl	%eax, LPBX1+656	 # PROF_edge_counter.6, *LPBX1
 492      00
 493 05bc 89159402 		movl	%edx, LPBX1+660	 # PROF_edge_counter.6, *LPBX1
 493      0000
 494              		.loc 1 141 0
 495              	/APP
 496              	 # 141 "../../test/testsem.c" 1
 497 05c2 90       		nop
 498              	 # 0 "" 2
 499              	/NO_APP
 500 05c3 A1980200 		movl	LPBX1+664, %eax	 # *LPBX1, PROF_edge_counter.6
 500      00
 501 05c8 8B159C02 		movl	LPBX1+668, %edx	 # *LPBX1, PROF_edge_counter.6
 501      0000
 502 05ce 83C001   		addl	$1, %eax	 #, PROF_edge_counter.6
 503 05d1 83D200   		adcl	$0, %edx	 #, PROF_edge_counter.6
 504 05d4 A3980200 		movl	%eax, LPBX1+664	 # PROF_edge_counter.6, *LPBX1
 504      00
 505 05d9 89159C02 		movl	%edx, LPBX1+668	 # PROF_edge_counter.6, *LPBX1
 505      0000
 506              		.loc 1 142 0
 507 05df C7042400 		movl	$_sem1, (%esp)	 #,
 507      000000
 508 05e6 E8000000 		call	_chSemSignalI	 #
 508      00
 509 05eb A1A00200 		movl	LPBX1+672, %eax	 # *LPBX1, PROF_edge_counter.6
 509      00
 510 05f0 8B15A402 		movl	LPBX1+676, %edx	 # *LPBX1, PROF_edge_counter.6
 510      0000
 511 05f6 83C001   		addl	$1, %eax	 #, PROF_edge_counter.6
 512 05f9 83D200   		adcl	$0, %edx	 #, PROF_edge_counter.6
 513 05fc A3A00200 		movl	%eax, LPBX1+672	 # PROF_edge_counter.6, *LPBX1
 513      00
 514 0601 8915A402 		movl	%edx, LPBX1+676	 # PROF_edge_counter.6, *LPBX1
 514      0000
 515              		.loc 1 143 0
 516 0607 E8000000 		call	_chSchRescheduleS	 #
 516      00
 517 060c A1A80200 		movl	LPBX1+680, %eax	 # *LPBX1, PROF_edge_counter.6
 517      00
 518 0611 8B15AC02 		movl	LPBX1+684, %edx	 # *LPBX1, PROF_edge_counter.6
 518      0000
 519 0617 83C001   		addl	$1, %eax	 #, PROF_edge_counter.6
 520 061a 83D200   		adcl	$0, %edx	 #, PROF_edge_counter.6
 521 061d A3A80200 		movl	%eax, LPBX1+680	 # PROF_edge_counter.6, *LPBX1
 521      00
 522 0622 8915AC02 		movl	%edx, LPBX1+684	 # PROF_edge_counter.6, *LPBX1
 522      0000
 523              		.loc 1 144 0
 524              	/APP
 525              	 # 144 "../../test/testsem.c" 1
GAS LISTING C:\cygwin\tmp\ccBlkykz.s 			page 14


 526 0628 90       		nop
 527              	 # 0 "" 2
 528              	/NO_APP
 529 0629 A1B00200 		movl	LPBX1+688, %eax	 # *LPBX1, PROF_edge_counter.6
 529      00
 530 062e 8B15B402 		movl	LPBX1+692, %edx	 # *LPBX1, PROF_edge_counter.6
 530      0000
 531 0634 83C001   		addl	$1, %eax	 #, PROF_edge_counter.6
 532 0637 83D200   		adcl	$0, %edx	 #, PROF_edge_counter.6
 533 063a A3B00200 		movl	%eax, LPBX1+688	 # PROF_edge_counter.6, *LPBX1
 533      00
 534 063f 8915B402 		movl	%edx, LPBX1+692	 # PROF_edge_counter.6, *LPBX1
 534      0000
 535              		.loc 1 145 0
 536 0645 B8000000 		movl	$0, %eax	 #, D.2974
 536      00
 537              		.loc 1 146 0
 538 064a 83C41C   		addl	$28, %esp	 #,
 539              	LCFI9:
 540              		.cfi_def_cfa_offset 4
 541 064d C3       		ret
 542              		.cfi_endproc
 543              	LFE4:
 544              		.def	_sem2_execute;	.scl	3;	.type	32;	.endef
 545              	_sem2_execute:
 546              	LFB5:
 547              		.loc 1 148 0
 548              		.cfi_startproc
 549 064e 83EC3C   		subl	$60, %esp	 #,
 550              	LCFI10:
 551              		.cfi_def_cfa_offset 64
 552              		.loc 1 148 0
 553 0651 A1900100 		movl	LPBX1+400, %eax	 # *LPBX1, PROF_edge_counter.5
 553      00
 554 0656 8B159401 		movl	LPBX1+404, %edx	 # *LPBX1, PROF_edge_counter.5
 554      0000
 555 065c 83C001   		addl	$1, %eax	 #, PROF_edge_counter.5
 556 065f 83D200   		adcl	$0, %edx	 #, PROF_edge_counter.5
 557 0662 A3900100 		movl	%eax, LPBX1+400	 # PROF_edge_counter.5, *LPBX1
 557      00
 558 0667 89159401 		movl	%edx, LPBX1+404	 # PROF_edge_counter.5, *LPBX1
 558      0000
 559              		.loc 1 156 0
 560 066d C7442404 		movl	$0, 4(%esp)	 #,
 560      00000000 
 561 0675 C7042400 		movl	$_sem1, (%esp)	 #,
 561      000000
 562 067c E8000000 		call	_chSemWaitTimeout	 #
 562      00
 563 0681 89442428 		movl	%eax, 40(%esp)	 # tmp158, msg
 564 0685 A1980100 		movl	LPBX1+408, %eax	 # *LPBX1, PROF_edge_counter.5
 564      00
 565 068a 8B159C01 		movl	LPBX1+412, %edx	 # *LPBX1, PROF_edge_counter.5
 565      0000
 566 0690 83C001   		addl	$1, %eax	 #, PROF_edge_counter.5
 567 0693 83D200   		adcl	$0, %edx	 #, PROF_edge_counter.5
 568 0696 A3980100 		movl	%eax, LPBX1+408	 # PROF_edge_counter.5, *LPBX1
GAS LISTING C:\cygwin\tmp\ccBlkykz.s 			page 15


 568      00
 569 069b 89159C01 		movl	%edx, LPBX1+412	 # PROF_edge_counter.5, *LPBX1
 569      0000
 570              		.loc 1 157 0
 571 06a1 837C2428 		cmpl	$-1, 40(%esp)	 #, msg
 571      FF
 572 06a6 0F94C0   		sete	%al	 #, tmp159
 573 06a9 0FB6C0   		movzbl	%al, %eax	 # tmp159, D.2914
 574 06ac 89442404 		movl	%eax, 4(%esp)	 # D.2914,
 575 06b0 C7042401 		movl	$1, (%esp)	 #,
 575      000000
 576 06b7 E8000000 		call	__test_assert	 #
 576      00
 577 06bc 84C0     		testb	%al, %al	 # D.2915
 578 06be 7421     		je	L9	 #,
 579              		.loc 1 157 0 is_stmt 0 discriminator 1
 580 06c0 A1A80100 		movl	LPBX1+424, %eax	 # *LPBX1, PROF_edge_counter.5
 580      00
 581 06c5 8B15AC01 		movl	LPBX1+428, %edx	 # *LPBX1, PROF_edge_counter.5
 581      0000
 582 06cb 83C001   		addl	$1, %eax	 #, PROF_edge_counter.5
 583 06ce 83D200   		adcl	$0, %edx	 #, PROF_edge_counter.5
 584 06d1 A3A80100 		movl	%eax, LPBX1+424	 # PROF_edge_counter.5, *LPBX1
 584      00
 585 06d6 8915AC01 		movl	%edx, LPBX1+428	 # PROF_edge_counter.5, *LPBX1
 585      0000
 586 06dc E9360500 		jmp	L8	 #
 586      00
 587              	L9:
 588              		.loc 1 157 0
 589 06e1 A1A00100 		movl	LPBX1+416, %eax	 # *LPBX1, PROF_edge_counter.5
 589      00
 590 06e6 8B15A401 		movl	LPBX1+420, %edx	 # *LPBX1, PROF_edge_counter.5
 590      0000
 591 06ec 83C001   		addl	$1, %eax	 #, PROF_edge_counter.5
 592 06ef 83D200   		adcl	$0, %edx	 #, PROF_edge_counter.5
 593 06f2 A3A00100 		movl	%eax, LPBX1+416	 # PROF_edge_counter.5, *LPBX1
 593      00
 594 06f7 8915A401 		movl	%edx, LPBX1+420	 # PROF_edge_counter.5, *LPBX1
 594      0000
 595              		.loc 1 158 0 is_stmt 1
 596 06fd A1000000 		movl	_sem1, %eax	 # sem1.s_queue.p_next, D.2918
 596      00
 597 0702 3D000000 		cmpl	$_sem1, %eax	 #, D.2918
 597      00
 598 0707 0F94C0   		sete	%al	 #, tmp160
 599 070a 0FB6C0   		movzbl	%al, %eax	 # tmp160, D.2919
 600 070d 89442404 		movl	%eax, 4(%esp)	 # D.2919,
 601 0711 C7042402 		movl	$2, (%esp)	 #,
 601      000000
 602 0718 E8000000 		call	__test_assert	 #
 602      00
 603 071d 84C0     		testb	%al, %al	 # D.2920
 604 071f 7421     		je	L11	 #,
 605              		.loc 1 158 0 is_stmt 0 discriminator 1
 606 0721 A1B80100 		movl	LPBX1+440, %eax	 # *LPBX1, PROF_edge_counter.5
 606      00
GAS LISTING C:\cygwin\tmp\ccBlkykz.s 			page 16


 607 0726 8B15BC01 		movl	LPBX1+444, %edx	 # *LPBX1, PROF_edge_counter.5
 607      0000
 608 072c 83C001   		addl	$1, %eax	 #, PROF_edge_counter.5
 609 072f 83D200   		adcl	$0, %edx	 #, PROF_edge_counter.5
 610 0732 A3B80100 		movl	%eax, LPBX1+440	 # PROF_edge_counter.5, *LPBX1
 610      00
 611 0737 8915BC01 		movl	%edx, LPBX1+444	 # PROF_edge_counter.5, *LPBX1
 611      0000
 612 073d E9D50400 		jmp	L8	 #
 612      00
 613              	L11:
 614              		.loc 1 158 0
 615 0742 A1B00100 		movl	LPBX1+432, %eax	 # *LPBX1, PROF_edge_counter.5
 615      00
 616 0747 8B15B401 		movl	LPBX1+436, %edx	 # *LPBX1, PROF_edge_counter.5
 616      0000
 617 074d 83C001   		addl	$1, %eax	 #, PROF_edge_counter.5
 618 0750 83D200   		adcl	$0, %edx	 #, PROF_edge_counter.5
 619 0753 A3B00100 		movl	%eax, LPBX1+432	 # PROF_edge_counter.5, *LPBX1
 619      00
 620 0758 8915B401 		movl	%edx, LPBX1+436	 # PROF_edge_counter.5, *LPBX1
 620      0000
 621              		.loc 1 159 0 is_stmt 1
 622 075e A1080000 		movl	_sem1+8, %eax	 # sem1.s_cnt, D.2923
 622      00
 623 0763 85C0     		testl	%eax, %eax	 # D.2923
 624 0765 0F94C0   		sete	%al	 #, tmp161
 625 0768 0FB6C0   		movzbl	%al, %eax	 # tmp161, D.2924
 626 076b 89442404 		movl	%eax, 4(%esp)	 # D.2924,
 627 076f C7042403 		movl	$3, (%esp)	 #,
 627      000000
 628 0776 E8000000 		call	__test_assert	 #
 628      00
 629 077b 84C0     		testb	%al, %al	 # D.2925
 630 077d 7421     		je	L12	 #,
 631              		.loc 1 159 0 is_stmt 0 discriminator 1
 632 077f A1C80100 		movl	LPBX1+456, %eax	 # *LPBX1, PROF_edge_counter.5
 632      00
 633 0784 8B15CC01 		movl	LPBX1+460, %edx	 # *LPBX1, PROF_edge_counter.5
 633      0000
 634 078a 83C001   		addl	$1, %eax	 #, PROF_edge_counter.5
 635 078d 83D200   		adcl	$0, %edx	 #, PROF_edge_counter.5
 636 0790 A3C80100 		movl	%eax, LPBX1+456	 # PROF_edge_counter.5, *LPBX1
 636      00
 637 0795 8915CC01 		movl	%edx, LPBX1+460	 # PROF_edge_counter.5, *LPBX1
 637      0000
 638 079b E9770400 		jmp	L8	 #
 638      00
 639              	L12:
 640              		.loc 1 159 0
 641 07a0 A1C00100 		movl	LPBX1+448, %eax	 # *LPBX1, PROF_edge_counter.5
 641      00
 642 07a5 8B15C401 		movl	LPBX1+452, %edx	 # *LPBX1, PROF_edge_counter.5
 642      0000
 643 07ab 83C001   		addl	$1, %eax	 #, PROF_edge_counter.5
 644 07ae 83D200   		adcl	$0, %edx	 #, PROF_edge_counter.5
 645 07b1 A3C00100 		movl	%eax, LPBX1+448	 # PROF_edge_counter.5, *LPBX1
GAS LISTING C:\cygwin\tmp\ccBlkykz.s 			page 17


 645      00
 646 07b6 8915C401 		movl	%edx, LPBX1+452	 # PROF_edge_counter.5, *LPBX1
 646      0000
 647              		.loc 1 164 0 is_stmt 1
 648 07bc A1180000 		movl	_rlist+24, %eax	 # rlist.r_current, D.2928
 648      00
 649 07c1 8B4008   		movl	8(%eax), %eax	 # D.2928_11->p_prio, D.2929
 650 07c4 8D50FF   		leal	-1(%eax), %edx	 #, D.2930
 651 07c7 A1000000 		movl	_wa, %eax	 # wa, D.2931
 651      00
 652 07cc C7442410 		movl	$0, 16(%esp)	 #,
 652      00000000 
 653 07d4 C744240C 		movl	$_thread2, 12(%esp)	 #,
 653      7B050000 
 654 07dc 89542408 		movl	%edx, 8(%esp)	 # D.2930,
 655 07e0 C7442404 		movl	$17008, 4(%esp)	 #,
 655      70420000 
 656 07e8 890424   		movl	%eax, (%esp)	 # D.2931,
 657 07eb E8000000 		call	_chThdCreateStatic	 #
 657      00
 658 07f0 89C1     		movl	%eax, %ecx	 #, D.2932
 659 07f2 A1D00100 		movl	LPBX1+464, %eax	 # *LPBX1, PROF_edge_counter.5
 659      00
 660 07f7 8B15D401 		movl	LPBX1+468, %edx	 # *LPBX1, PROF_edge_counter.5
 660      0000
 661 07fd 83C001   		addl	$1, %eax	 #, PROF_edge_counter.5
 662 0800 83D200   		adcl	$0, %edx	 #, PROF_edge_counter.5
 663 0803 A3D00100 		movl	%eax, LPBX1+464	 # PROF_edge_counter.5, *LPBX1
 663      00
 664 0808 8915D401 		movl	%edx, LPBX1+468	 # PROF_edge_counter.5, *LPBX1
 664      0000
 665 080e 890D0000 		movl	%ecx, _threads	 # D.2932, threads
 665      0000
 666              		.loc 1 166 0
 667 0814 C7442404 		movl	$500, 4(%esp)	 #,
 667      F4010000 
 668 081c C7042400 		movl	$_sem1, (%esp)	 #,
 668      000000
 669 0823 E8000000 		call	_chSemWaitTimeout	 #
 669      00
 670 0828 89442428 		movl	%eax, 40(%esp)	 # tmp162, msg
 671 082c A1D80100 		movl	LPBX1+472, %eax	 # *LPBX1, PROF_edge_counter.5
 671      00
 672 0831 8B15DC01 		movl	LPBX1+476, %edx	 # *LPBX1, PROF_edge_counter.5
 672      0000
 673 0837 83C001   		addl	$1, %eax	 #, PROF_edge_counter.5
 674 083a 83D200   		adcl	$0, %edx	 #, PROF_edge_counter.5
 675 083d A3D80100 		movl	%eax, LPBX1+472	 # PROF_edge_counter.5, *LPBX1
 675      00
 676 0842 8915DC01 		movl	%edx, LPBX1+476	 # PROF_edge_counter.5, *LPBX1
 676      0000
 677              		.loc 1 167 0
 678 0848 E8000000 		call	_test_wait_threads	 #
 678      00
 679 084d A1E00100 		movl	LPBX1+480, %eax	 # *LPBX1, PROF_edge_counter.5
 679      00
 680 0852 8B15E401 		movl	LPBX1+484, %edx	 # *LPBX1, PROF_edge_counter.5
GAS LISTING C:\cygwin\tmp\ccBlkykz.s 			page 18


 680      0000
 681 0858 83C001   		addl	$1, %eax	 #, PROF_edge_counter.5
 682 085b 83D200   		adcl	$0, %edx	 #, PROF_edge_counter.5
 683 085e A3E00100 		movl	%eax, LPBX1+480	 # PROF_edge_counter.5, *LPBX1
 683      00
 684 0863 8915E401 		movl	%edx, LPBX1+484	 # PROF_edge_counter.5, *LPBX1
 684      0000
 685              		.loc 1 168 0
 686 0869 837C2428 		cmpl	$0, 40(%esp)	 #, msg
 686      00
 687 086e 0F94C0   		sete	%al	 #, tmp163
 688 0871 0FB6C0   		movzbl	%al, %eax	 # tmp163, D.2933
 689 0874 89442404 		movl	%eax, 4(%esp)	 # D.2933,
 690 0878 C7042404 		movl	$4, (%esp)	 #,
 690      000000
 691 087f E8000000 		call	__test_assert	 #
 691      00
 692 0884 84C0     		testb	%al, %al	 # D.2934
 693 0886 7421     		je	L13	 #,
 694              		.loc 1 168 0 is_stmt 0 discriminator 1
 695 0888 A1F00100 		movl	LPBX1+496, %eax	 # *LPBX1, PROF_edge_counter.5
 695      00
 696 088d 8B15F401 		movl	LPBX1+500, %edx	 # *LPBX1, PROF_edge_counter.5
 696      0000
 697 0893 83C001   		addl	$1, %eax	 #, PROF_edge_counter.5
 698 0896 83D200   		adcl	$0, %edx	 #, PROF_edge_counter.5
 699 0899 A3F00100 		movl	%eax, LPBX1+496	 # PROF_edge_counter.5, *LPBX1
 699      00
 700 089e 8915F401 		movl	%edx, LPBX1+500	 # PROF_edge_counter.5, *LPBX1
 700      0000
 701 08a4 E96E0300 		jmp	L8	 #
 701      00
 702              	L13:
 703              		.loc 1 168 0
 704 08a9 A1E80100 		movl	LPBX1+488, %eax	 # *LPBX1, PROF_edge_counter.5
 704      00
 705 08ae 8B15EC01 		movl	LPBX1+492, %edx	 # *LPBX1, PROF_edge_counter.5
 705      0000
 706 08b4 83C001   		addl	$1, %eax	 #, PROF_edge_counter.5
 707 08b7 83D200   		adcl	$0, %edx	 #, PROF_edge_counter.5
 708 08ba A3E80100 		movl	%eax, LPBX1+488	 # PROF_edge_counter.5, *LPBX1
 708      00
 709 08bf 8915EC01 		movl	%edx, LPBX1+492	 # PROF_edge_counter.5, *LPBX1
 709      0000
 710              		.loc 1 169 0 is_stmt 1
 711 08c5 A1000000 		movl	_sem1, %eax	 # sem1.s_queue.p_next, D.2937
 711      00
 712 08ca 3D000000 		cmpl	$_sem1, %eax	 #, D.2937
 712      00
 713 08cf 0F94C0   		sete	%al	 #, tmp164
 714 08d2 0FB6C0   		movzbl	%al, %eax	 # tmp164, D.2938
 715 08d5 89442404 		movl	%eax, 4(%esp)	 # D.2938,
 716 08d9 C7042405 		movl	$5, (%esp)	 #,
 716      000000
 717 08e0 E8000000 		call	__test_assert	 #
 717      00
 718 08e5 84C0     		testb	%al, %al	 # D.2939
GAS LISTING C:\cygwin\tmp\ccBlkykz.s 			page 19


 719 08e7 7421     		je	L14	 #,
 720              		.loc 1 169 0 is_stmt 0 discriminator 1
 721 08e9 A1000200 		movl	LPBX1+512, %eax	 # *LPBX1, PROF_edge_counter.5
 721      00
 722 08ee 8B150402 		movl	LPBX1+516, %edx	 # *LPBX1, PROF_edge_counter.5
 722      0000
 723 08f4 83C001   		addl	$1, %eax	 #, PROF_edge_counter.5
 724 08f7 83D200   		adcl	$0, %edx	 #, PROF_edge_counter.5
 725 08fa A3000200 		movl	%eax, LPBX1+512	 # PROF_edge_counter.5, *LPBX1
 725      00
 726 08ff 89150402 		movl	%edx, LPBX1+516	 # PROF_edge_counter.5, *LPBX1
 726      0000
 727 0905 E90D0300 		jmp	L8	 #
 727      00
 728              	L14:
 729              		.loc 1 169 0
 730 090a A1F80100 		movl	LPBX1+504, %eax	 # *LPBX1, PROF_edge_counter.5
 730      00
 731 090f 8B15FC01 		movl	LPBX1+508, %edx	 # *LPBX1, PROF_edge_counter.5
 731      0000
 732 0915 83C001   		addl	$1, %eax	 #, PROF_edge_counter.5
 733 0918 83D200   		adcl	$0, %edx	 #, PROF_edge_counter.5
 734 091b A3F80100 		movl	%eax, LPBX1+504	 # PROF_edge_counter.5, *LPBX1
 734      00
 735 0920 8915FC01 		movl	%edx, LPBX1+508	 # PROF_edge_counter.5, *LPBX1
 735      0000
 736              		.loc 1 170 0 is_stmt 1
 737 0926 A1080000 		movl	_sem1+8, %eax	 # sem1.s_cnt, D.2942
 737      00
 738 092b 85C0     		testl	%eax, %eax	 # D.2942
 739 092d 0F94C0   		sete	%al	 #, tmp165
 740 0930 0FB6C0   		movzbl	%al, %eax	 # tmp165, D.2943
 741 0933 89442404 		movl	%eax, 4(%esp)	 # D.2943,
 742 0937 C7042406 		movl	$6, (%esp)	 #,
 742      000000
 743 093e E8000000 		call	__test_assert	 #
 743      00
 744 0943 84C0     		testb	%al, %al	 # D.2944
 745 0945 7421     		je	L15	 #,
 746              		.loc 1 170 0 is_stmt 0 discriminator 1
 747 0947 A1100200 		movl	LPBX1+528, %eax	 # *LPBX1, PROF_edge_counter.5
 747      00
 748 094c 8B151402 		movl	LPBX1+532, %edx	 # *LPBX1, PROF_edge_counter.5
 748      0000
 749 0952 83C001   		addl	$1, %eax	 #, PROF_edge_counter.5
 750 0955 83D200   		adcl	$0, %edx	 #, PROF_edge_counter.5
 751 0958 A3100200 		movl	%eax, LPBX1+528	 # PROF_edge_counter.5, *LPBX1
 751      00
 752 095d 89151402 		movl	%edx, LPBX1+532	 # PROF_edge_counter.5, *LPBX1
 752      0000
 753 0963 E9AF0200 		jmp	L8	 #
 753      00
 754              	L15:
 755              		.loc 1 170 0
 756 0968 A1080200 		movl	LPBX1+520, %eax	 # *LPBX1, PROF_edge_counter.5
 756      00
 757 096d 8B150C02 		movl	LPBX1+524, %edx	 # *LPBX1, PROF_edge_counter.5
GAS LISTING C:\cygwin\tmp\ccBlkykz.s 			page 20


 757      0000
 758 0973 83C001   		addl	$1, %eax	 #, PROF_edge_counter.5
 759 0976 83D200   		adcl	$0, %edx	 #, PROF_edge_counter.5
 760 0979 A3080200 		movl	%eax, LPBX1+520	 # PROF_edge_counter.5, *LPBX1
 760      00
 761 097e 89150C02 		movl	%edx, LPBX1+524	 # PROF_edge_counter.5, *LPBX1
 761      0000
 762              		.loc 1 175 0 is_stmt 1
 763 0984 E8000000 		call	_test_wait_tick	 #
 763      00
 764              		.loc 1 176 0
 765 0989 A10C0000 		movl	_vtlist+12, %eax	 # vtlist.vt_systime, D.2947
 765      00
 766 098e 05C40900 		addl	$2500, %eax	 #, tmp166
 766      00
 767 0993 89442424 		movl	%eax, 36(%esp)	 # tmp166, target_time
 768              		.loc 1 177 0
 769 0997 C744242C 		movl	$0, 44(%esp)	 #, i
 769      00000000 
 770 099f E99D0100 		jmp	L16	 #
 770      00
 771              	L20:
 772 09a4 A1580200 		movl	LPBX1+600, %eax	 # *LPBX1, PROF_edge_counter.5
 772      00
 773 09a9 8B155C02 		movl	LPBX1+604, %edx	 # *LPBX1, PROF_edge_counter.5
 773      0000
 774 09af 83C001   		addl	$1, %eax	 #, PROF_edge_counter.5
 775 09b2 83D200   		adcl	$0, %edx	 #, PROF_edge_counter.5
 776 09b5 A3580200 		movl	%eax, LPBX1+600	 # PROF_edge_counter.5, *LPBX1
 776      00
 777 09ba 89155C02 		movl	%edx, LPBX1+604	 # PROF_edge_counter.5, *LPBX1
 777      0000
 778              		.loc 1 178 0
 779 09c0 8B44242C 		movl	44(%esp), %eax	 # i, tmp167
 780 09c4 83C041   		addl	$65, %eax	 #, D.2949
 781 09c7 0FBEC0   		movsbl	%al, %eax	 # D.2950, D.2951
 782 09ca 890424   		movl	%eax, (%esp)	 # D.2951,
 783 09cd E8000000 		call	_test_emit_token	 #
 783      00
 784 09d2 A1180200 		movl	LPBX1+536, %eax	 # *LPBX1, PROF_edge_counter.5
 784      00
 785 09d7 8B151C02 		movl	LPBX1+540, %edx	 # *LPBX1, PROF_edge_counter.5
 785      0000
 786 09dd 83C001   		addl	$1, %eax	 #, PROF_edge_counter.5
 787 09e0 83D200   		adcl	$0, %edx	 #, PROF_edge_counter.5
 788 09e3 A3180200 		movl	%eax, LPBX1+536	 # PROF_edge_counter.5, *LPBX1
 788      00
 789 09e8 89151C02 		movl	%edx, LPBX1+540	 # PROF_edge_counter.5, *LPBX1
 789      0000
 790              		.loc 1 179 0
 791 09ee C7442404 		movl	$500, 4(%esp)	 #,
 791      F4010000 
 792 09f6 C7042400 		movl	$_sem1, (%esp)	 #,
 792      000000
 793 09fd E8000000 		call	_chSemWaitTimeout	 #
 793      00
 794 0a02 89442428 		movl	%eax, 40(%esp)	 # tmp168, msg
GAS LISTING C:\cygwin\tmp\ccBlkykz.s 			page 21


 795 0a06 A1200200 		movl	LPBX1+544, %eax	 # *LPBX1, PROF_edge_counter.5
 795      00
 796 0a0b 8B152402 		movl	LPBX1+548, %edx	 # *LPBX1, PROF_edge_counter.5
 796      0000
 797 0a11 83C001   		addl	$1, %eax	 #, PROF_edge_counter.5
 798 0a14 83D200   		adcl	$0, %edx	 #, PROF_edge_counter.5
 799 0a17 A3200200 		movl	%eax, LPBX1+544	 # PROF_edge_counter.5, *LPBX1
 799      00
 800 0a1c 89152402 		movl	%edx, LPBX1+548	 # PROF_edge_counter.5, *LPBX1
 800      0000
 801              		.loc 1 180 0
 802 0a22 837C2428 		cmpl	$-1, 40(%esp)	 #, msg
 802      FF
 803 0a27 0F94C0   		sete	%al	 #, tmp169
 804 0a2a 0FB6C0   		movzbl	%al, %eax	 # tmp169, D.2952
 805 0a2d 89442404 		movl	%eax, 4(%esp)	 # D.2952,
 806 0a31 C7042407 		movl	$7, (%esp)	 #,
 806      000000
 807 0a38 E8000000 		call	__test_assert	 #
 807      00
 808 0a3d 84C0     		testb	%al, %al	 # D.2953
 809 0a3f 7421     		je	L17	 #,
 810              		.loc 1 180 0 is_stmt 0 discriminator 1
 811 0a41 A1300200 		movl	LPBX1+560, %eax	 # *LPBX1, PROF_edge_counter.5
 811      00
 812 0a46 8B153402 		movl	LPBX1+564, %edx	 # *LPBX1, PROF_edge_counter.5
 812      0000
 813 0a4c 83C001   		addl	$1, %eax	 #, PROF_edge_counter.5
 814 0a4f 83D200   		adcl	$0, %edx	 #, PROF_edge_counter.5
 815 0a52 A3300200 		movl	%eax, LPBX1+560	 # PROF_edge_counter.5, *LPBX1
 815      00
 816 0a57 89153402 		movl	%edx, LPBX1+564	 # PROF_edge_counter.5, *LPBX1
 816      0000
 817 0a5d E9B50100 		jmp	L8	 #
 817      00
 818              	L17:
 819              		.loc 1 180 0
 820 0a62 A1280200 		movl	LPBX1+552, %eax	 # *LPBX1, PROF_edge_counter.5
 820      00
 821 0a67 8B152C02 		movl	LPBX1+556, %edx	 # *LPBX1, PROF_edge_counter.5
 821      0000
 822 0a6d 83C001   		addl	$1, %eax	 #, PROF_edge_counter.5
 823 0a70 83D200   		adcl	$0, %edx	 #, PROF_edge_counter.5
 824 0a73 A3280200 		movl	%eax, LPBX1+552	 # PROF_edge_counter.5, *LPBX1
 824      00
 825 0a78 89152C02 		movl	%edx, LPBX1+556	 # PROF_edge_counter.5, *LPBX1
 825      0000
 826              		.loc 1 181 0 is_stmt 1
 827 0a7e A1000000 		movl	_sem1, %eax	 # sem1.s_queue.p_next, D.2956
 827      00
 828 0a83 3D000000 		cmpl	$_sem1, %eax	 #, D.2956
 828      00
 829 0a88 0F94C0   		sete	%al	 #, tmp170
 830 0a8b 0FB6C0   		movzbl	%al, %eax	 # tmp170, D.2957
 831 0a8e 89442404 		movl	%eax, 4(%esp)	 # D.2957,
 832 0a92 C7042408 		movl	$8, (%esp)	 #,
 832      000000
GAS LISTING C:\cygwin\tmp\ccBlkykz.s 			page 22


 833 0a99 E8000000 		call	__test_assert	 #
 833      00
 834 0a9e 84C0     		testb	%al, %al	 # D.2958
 835 0aa0 7421     		je	L18	 #,
 836              		.loc 1 181 0 is_stmt 0 discriminator 1
 837 0aa2 A1400200 		movl	LPBX1+576, %eax	 # *LPBX1, PROF_edge_counter.5
 837      00
 838 0aa7 8B154402 		movl	LPBX1+580, %edx	 # *LPBX1, PROF_edge_counter.5
 838      0000
 839 0aad 83C001   		addl	$1, %eax	 #, PROF_edge_counter.5
 840 0ab0 83D200   		adcl	$0, %edx	 #, PROF_edge_counter.5
 841 0ab3 A3400200 		movl	%eax, LPBX1+576	 # PROF_edge_counter.5, *LPBX1
 841      00
 842 0ab8 89154402 		movl	%edx, LPBX1+580	 # PROF_edge_counter.5, *LPBX1
 842      0000
 843 0abe E9540100 		jmp	L8	 #
 843      00
 844              	L18:
 845              		.loc 1 181 0
 846 0ac3 A1380200 		movl	LPBX1+568, %eax	 # *LPBX1, PROF_edge_counter.5
 846      00
 847 0ac8 8B153C02 		movl	LPBX1+572, %edx	 # *LPBX1, PROF_edge_counter.5
 847      0000
 848 0ace 83C001   		addl	$1, %eax	 #, PROF_edge_counter.5
 849 0ad1 83D200   		adcl	$0, %edx	 #, PROF_edge_counter.5
 850 0ad4 A3380200 		movl	%eax, LPBX1+568	 # PROF_edge_counter.5, *LPBX1
 850      00
 851 0ad9 89153C02 		movl	%edx, LPBX1+572	 # PROF_edge_counter.5, *LPBX1
 851      0000
 852              		.loc 1 182 0 is_stmt 1
 853 0adf A1080000 		movl	_sem1+8, %eax	 # sem1.s_cnt, D.2961
 853      00
 854 0ae4 85C0     		testl	%eax, %eax	 # D.2961
 855 0ae6 0F94C0   		sete	%al	 #, tmp171
 856 0ae9 0FB6C0   		movzbl	%al, %eax	 # tmp171, D.2962
 857 0aec 89442404 		movl	%eax, 4(%esp)	 # D.2962,
 858 0af0 C7042409 		movl	$9, (%esp)	 #,
 858      000000
 859 0af7 E8000000 		call	__test_assert	 #
 859      00
 860 0afc 84C0     		testb	%al, %al	 # D.2963
 861 0afe 7421     		je	L19	 #,
 862              		.loc 1 182 0 is_stmt 0 discriminator 1
 863 0b00 A1480200 		movl	LPBX1+584, %eax	 # *LPBX1, PROF_edge_counter.5
 863      00
 864 0b05 8B154C02 		movl	LPBX1+588, %edx	 # *LPBX1, PROF_edge_counter.5
 864      0000
 865 0b0b 83C001   		addl	$1, %eax	 #, PROF_edge_counter.5
 866 0b0e 83D200   		adcl	$0, %edx	 #, PROF_edge_counter.5
 867 0b11 A3480200 		movl	%eax, LPBX1+584	 # PROF_edge_counter.5, *LPBX1
 867      00
 868 0b16 89154C02 		movl	%edx, LPBX1+588	 # PROF_edge_counter.5, *LPBX1
 868      0000
 869 0b1c E9F60000 		jmp	L8	 #
 869      00
 870              	L19:
 871              		.loc 1 177 0 is_stmt 1
GAS LISTING C:\cygwin\tmp\ccBlkykz.s 			page 23


 872 0b21 FF44242C 		incl	44(%esp)	 # i
 873 0b25 A1500200 		movl	LPBX1+592, %eax	 # *LPBX1, PROF_edge_counter.5
 873      00
 874 0b2a 8B155402 		movl	LPBX1+596, %edx	 # *LPBX1, PROF_edge_counter.5
 874      0000
 875 0b30 83C001   		addl	$1, %eax	 #, PROF_edge_counter.5
 876 0b33 83D200   		adcl	$0, %edx	 #, PROF_edge_counter.5
 877 0b36 A3500200 		movl	%eax, LPBX1+592	 # PROF_edge_counter.5, *LPBX1
 877      00
 878 0b3b 89155402 		movl	%edx, LPBX1+596	 # PROF_edge_counter.5, *LPBX1
 878      0000
 879              	L16:
 880              		.loc 1 177 0 is_stmt 0 discriminator 1
 881 0b41 837C242C 		cmpl	$4, 44(%esp)	 #, i
 881      04
 882 0b46 0F8E58FE 		jle	L20	 #,
 882      FFFF
 883              		.loc 1 177 0
 884 0b4c A1600200 		movl	LPBX1+608, %eax	 # *LPBX1, PROF_edge_counter.5
 884      00
 885 0b51 8B156402 		movl	LPBX1+612, %edx	 # *LPBX1, PROF_edge_counter.5
 885      0000
 886 0b57 83C001   		addl	$1, %eax	 #, PROF_edge_counter.5
 887 0b5a 83D200   		adcl	$0, %edx	 #, PROF_edge_counter.5
 888 0b5d A3600200 		movl	%eax, LPBX1+608	 # PROF_edge_counter.5, *LPBX1
 888      00
 889 0b62 89156402 		movl	%edx, LPBX1+612	 # PROF_edge_counter.5, *LPBX1
 889      0000
 890              		.loc 1 184 0 is_stmt 1
 891 0b68 C7442404 		movl	$LC5, 4(%esp)	 #,
 891      0A000000 
 892 0b70 C704240A 		movl	$10, (%esp)	 #,
 892      000000
 893 0b77 E8000000 		call	__test_assert_sequence	 #
 893      00
 894 0b7c 84C0     		testb	%al, %al	 # D.2966
 895 0b7e 741E     		je	L21	 #,
 896              		.loc 1 184 0 is_stmt 0 discriminator 1
 897 0b80 A1700200 		movl	LPBX1+624, %eax	 # *LPBX1, PROF_edge_counter.5
 897      00
 898 0b85 8B157402 		movl	LPBX1+628, %edx	 # *LPBX1, PROF_edge_counter.5
 898      0000
 899 0b8b 83C001   		addl	$1, %eax	 #, PROF_edge_counter.5
 900 0b8e 83D200   		adcl	$0, %edx	 #, PROF_edge_counter.5
 901 0b91 A3700200 		movl	%eax, LPBX1+624	 # PROF_edge_counter.5, *LPBX1
 901      00
 902 0b96 89157402 		movl	%edx, LPBX1+628	 # PROF_edge_counter.5, *LPBX1
 902      0000
 903 0b9c EB79     		jmp	L8	 #
 904              	L21:
 905              		.loc 1 184 0
 906 0b9e A1680200 		movl	LPBX1+616, %eax	 # *LPBX1, PROF_edge_counter.5
 906      00
 907 0ba3 8B156C02 		movl	LPBX1+620, %edx	 # *LPBX1, PROF_edge_counter.5
 907      0000
 908 0ba9 83C001   		addl	$1, %eax	 #, PROF_edge_counter.5
 909 0bac 83D200   		adcl	$0, %edx	 #, PROF_edge_counter.5
GAS LISTING C:\cygwin\tmp\ccBlkykz.s 			page 24


 910 0baf A3680200 		movl	%eax, LPBX1+616	 # PROF_edge_counter.5, *LPBX1
 910      00
 911 0bb4 89156C02 		movl	%edx, LPBX1+620	 # PROF_edge_counter.5, *LPBX1
 911      0000
 912              		.loc 1 185 0 is_stmt 1
 913 0bba 8B442424 		movl	36(%esp), %eax	 # target_time, tmp172
 914 0bbe 83C005   		addl	$5, %eax	 #, D.2969
 915 0bc1 89442408 		movl	%eax, 8(%esp)	 # D.2969,
 916 0bc5 8B442424 		movl	36(%esp), %eax	 # target_time, tmp173
 917 0bc9 89442404 		movl	%eax, 4(%esp)	 # tmp173,
 918 0bcd C704240B 		movl	$11, (%esp)	 #,
 918      000000
 919 0bd4 E8000000 		call	__test_assert_time_window	 #
 919      00
 920 0bd9 88C1     		movb	%al, %cl	 #, D.2970
 921 0bdb A1780200 		movl	LPBX1+632, %eax	 # *LPBX1, PROF_edge_counter.5
 921      00
 922 0be0 8B157C02 		movl	LPBX1+636, %edx	 # *LPBX1, PROF_edge_counter.5
 922      0000
 923 0be6 83C001   		addl	$1, %eax	 #, PROF_edge_counter.5
 924 0be9 83D200   		adcl	$0, %edx	 #, PROF_edge_counter.5
 925 0bec A3780200 		movl	%eax, LPBX1+632	 # PROF_edge_counter.5, *LPBX1
 925      00
 926 0bf1 89157C02 		movl	%edx, LPBX1+636	 # PROF_edge_counter.5, *LPBX1
 926      0000
 927 0bf7 84C9     		testb	%cl, %cl	 # D.2970
 928 0bf9 741C     		je	L8	 #,
 929              		.loc 1 185 0 is_stmt 0 discriminator 1
 930 0bfb A1800200 		movl	LPBX1+640, %eax	 # *LPBX1, PROF_edge_counter.5
 930      00
 931 0c00 8B158402 		movl	LPBX1+644, %edx	 # *LPBX1, PROF_edge_counter.5
 931      0000
 932 0c06 83C001   		addl	$1, %eax	 #, PROF_edge_counter.5
 933 0c09 83D200   		adcl	$0, %edx	 #, PROF_edge_counter.5
 934 0c0c A3800200 		movl	%eax, LPBX1+640	 # PROF_edge_counter.5, *LPBX1
 934      00
 935 0c11 89158402 		movl	%edx, LPBX1+644	 # PROF_edge_counter.5, *LPBX1
 935      0000
 936              	L8:
 937              		.loc 1 186 0 is_stmt 1
 938 0c17 83C43C   		addl	$60, %esp	 #,
 939              	LCFI11:
 940              		.cfi_def_cfa_offset 4
 941 0c1a C3       		ret
 942              		.cfi_endproc
 943              	LFE5:
 944              		.globl	_testsem2
 945              		.section .rdata,"dr"
 946              	LC7:
 947 0038 53656D61 		.ascii "Semaphores, timeout\0"
 947      70686F72 
 947      65732C20 
 947      74696D65 
 947      6F757400 
 948              		.align 4
 949              	_testsem2:
 950              	 # name:
GAS LISTING C:\cygwin\tmp\ccBlkykz.s 			page 25


 951 004c 38000000 		.long	LC7
 952              	 # setup:
 953 0050 28050000 		.long	_sem2_setup
 954              	 # teardown:
 955 0054 00000000 		.long	0
 956              	 # execute:
 957 0058 4E060000 		.long	_sem2_execute
 958              		.text
 959              		.def	_sem3_setup;	.scl	3;	.type	32;	.endef
 960              	_sem3_setup:
 961              	LFB6:
 962              		.loc 1 208 0
 963              		.cfi_startproc
 964 0c1b 83EC1C   		subl	$28, %esp	 #,
 965              	LCFI12:
 966              		.cfi_def_cfa_offset 32
 967              		.loc 1 208 0
 968 0c1e A1800100 		movl	LPBX1+384, %eax	 # *LPBX1, PROF_edge_counter.4
 968      00
 969 0c23 8B158401 		movl	LPBX1+388, %edx	 # *LPBX1, PROF_edge_counter.4
 969      0000
 970 0c29 83C001   		addl	$1, %eax	 #, PROF_edge_counter.4
 971 0c2c 83D200   		adcl	$0, %edx	 #, PROF_edge_counter.4
 972 0c2f A3800100 		movl	%eax, LPBX1+384	 # PROF_edge_counter.4, *LPBX1
 972      00
 973 0c34 89158401 		movl	%edx, LPBX1+388	 # PROF_edge_counter.4, *LPBX1
 973      0000
 974              		.loc 1 210 0
 975 0c3a C7442404 		movl	$0, 4(%esp)	 #,
 975      00000000 
 976 0c42 C7042400 		movl	$_sem1, (%esp)	 #,
 976      000000
 977 0c49 E8000000 		call	_chSemInit	 #
 977      00
 978 0c4e A1880100 		movl	LPBX1+392, %eax	 # *LPBX1, PROF_edge_counter.4
 978      00
 979 0c53 8B158C01 		movl	LPBX1+396, %edx	 # *LPBX1, PROF_edge_counter.4
 979      0000
 980 0c59 83C001   		addl	$1, %eax	 #, PROF_edge_counter.4
 981 0c5c 83D200   		adcl	$0, %edx	 #, PROF_edge_counter.4
 982 0c5f A3880100 		movl	%eax, LPBX1+392	 # PROF_edge_counter.4, *LPBX1
 982      00
 983 0c64 89158C01 		movl	%edx, LPBX1+396	 # PROF_edge_counter.4, *LPBX1
 983      0000
 984              		.loc 1 211 0
 985 0c6a 83C41C   		addl	$28, %esp	 #,
 986              	LCFI13:
 987              		.cfi_def_cfa_offset 4
 988 0c6d C3       		ret
 989              		.cfi_endproc
 990              	LFE6:
 991              		.def	_thread3;	.scl	3;	.type	32;	.endef
 992              	_thread3:
 993              	LFB7:
 994              		.loc 1 213 0
 995              		.cfi_startproc
 996 0c6e 83EC1C   		subl	$28, %esp	 #,
GAS LISTING C:\cygwin\tmp\ccBlkykz.s 			page 26


 997              	LCFI14:
 998              		.cfi_def_cfa_offset 32
 999              		.loc 1 213 0
 1000 0c71 A1680100 		movl	LPBX1+360, %eax	 # *LPBX1, PROF_edge_counter.3
 1000      00
 1001 0c76 8B156C01 		movl	LPBX1+364, %edx	 # *LPBX1, PROF_edge_counter.3
 1001      0000
 1002 0c7c 83C001   		addl	$1, %eax	 #, PROF_edge_counter.3
 1003 0c7f 83D200   		adcl	$0, %edx	 #, PROF_edge_counter.3
 1004 0c82 A3680100 		movl	%eax, LPBX1+360	 # PROF_edge_counter.3, *LPBX1
 1004      00
 1005 0c87 89156C01 		movl	%edx, LPBX1+364	 # PROF_edge_counter.3, *LPBX1
 1005      0000
 1006              		.loc 1 216 0
 1007 0c8d C7042400 		movl	$_sem1, (%esp)	 #,
 1007      000000
 1008 0c94 E8000000 		call	_chSemWait	 #
 1008      00
 1009 0c99 A1700100 		movl	LPBX1+368, %eax	 # *LPBX1, PROF_edge_counter.3
 1009      00
 1010 0c9e 8B157401 		movl	LPBX1+372, %edx	 # *LPBX1, PROF_edge_counter.3
 1010      0000
 1011 0ca4 83C001   		addl	$1, %eax	 #, PROF_edge_counter.3
 1012 0ca7 83D200   		adcl	$0, %edx	 #, PROF_edge_counter.3
 1013 0caa A3700100 		movl	%eax, LPBX1+368	 # PROF_edge_counter.3, *LPBX1
 1013      00
 1014 0caf 89157401 		movl	%edx, LPBX1+372	 # PROF_edge_counter.3, *LPBX1
 1014      0000
 1015              		.loc 1 217 0
 1016 0cb5 C7042400 		movl	$_sem1, (%esp)	 #,
 1016      000000
 1017 0cbc E8000000 		call	_chSemSignal	 #
 1017      00
 1018 0cc1 A1780100 		movl	LPBX1+376, %eax	 # *LPBX1, PROF_edge_counter.3
 1018      00
 1019 0cc6 8B157C01 		movl	LPBX1+380, %edx	 # *LPBX1, PROF_edge_counter.3
 1019      0000
 1020 0ccc 83C001   		addl	$1, %eax	 #, PROF_edge_counter.3
 1021 0ccf 83D200   		adcl	$0, %edx	 #, PROF_edge_counter.3
 1022 0cd2 A3780100 		movl	%eax, LPBX1+376	 # PROF_edge_counter.3, *LPBX1
 1022      00
 1023 0cd7 89157C01 		movl	%edx, LPBX1+380	 # PROF_edge_counter.3, *LPBX1
 1023      0000
 1024              		.loc 1 218 0
 1025 0cdd B8000000 		movl	$0, %eax	 #, D.2912
 1025      00
 1026              		.loc 1 219 0
 1027 0ce2 83C41C   		addl	$28, %esp	 #,
 1028              	LCFI15:
 1029              		.cfi_def_cfa_offset 4
 1030 0ce5 C3       		ret
 1031              		.cfi_endproc
 1032              	LFE7:
 1033              		.def	_sem3_execute;	.scl	3;	.type	32;	.endef
 1034              	_sem3_execute:
 1035              	LFB8:
 1036              		.loc 1 221 0
GAS LISTING C:\cygwin\tmp\ccBlkykz.s 			page 27


 1037              		.cfi_startproc
 1038 0ce6 83EC2C   		subl	$44, %esp	 #,
 1039              	LCFI16:
 1040              		.cfi_def_cfa_offset 48
 1041              		.loc 1 221 0
 1042 0ce9 A1080100 		movl	LPBX1+264, %eax	 # *LPBX1, PROF_edge_counter.2
 1042      00
 1043 0cee 8B150C01 		movl	LPBX1+268, %edx	 # *LPBX1, PROF_edge_counter.2
 1043      0000
 1044 0cf4 83C001   		addl	$1, %eax	 #, PROF_edge_counter.2
 1045 0cf7 83D200   		adcl	$0, %edx	 #, PROF_edge_counter.2
 1046 0cfa A3080100 		movl	%eax, LPBX1+264	 # PROF_edge_counter.2, *LPBX1
 1046      00
 1047 0cff 89150C01 		movl	%edx, LPBX1+268	 # PROF_edge_counter.2, *LPBX1
 1047      0000
 1048              		.loc 1 223 0
 1049 0d05 A1180000 		movl	_rlist+24, %eax	 # rlist.r_current, D.2886
 1049      00
 1050 0d0a 8B4008   		movl	8(%eax), %eax	 # D.2886_1->p_prio, D.2887
 1051 0d0d 8D5001   		leal	1(%eax), %edx	 #, D.2888
 1052 0d10 A1000000 		movl	_wa, %eax	 # wa, D.2889
 1052      00
 1053 0d15 C7442410 		movl	$0, 16(%esp)	 #,
 1053      00000000 
 1054 0d1d C744240C 		movl	$_thread3, 12(%esp)	 #,
 1054      6E0C0000 
 1055 0d25 89542408 		movl	%edx, 8(%esp)	 # D.2888,
 1056 0d29 C7442404 		movl	$17008, 4(%esp)	 #,
 1056      70420000 
 1057 0d31 890424   		movl	%eax, (%esp)	 # D.2889,
 1058 0d34 E8000000 		call	_chThdCreateStatic	 #
 1058      00
 1059 0d39 89C1     		movl	%eax, %ecx	 #, D.2890
 1060 0d3b A1100100 		movl	LPBX1+272, %eax	 # *LPBX1, PROF_edge_counter.2
 1060      00
 1061 0d40 8B151401 		movl	LPBX1+276, %edx	 # *LPBX1, PROF_edge_counter.2
 1061      0000
 1062 0d46 83C001   		addl	$1, %eax	 #, PROF_edge_counter.2
 1063 0d49 83D200   		adcl	$0, %edx	 #, PROF_edge_counter.2
 1064 0d4c A3100100 		movl	%eax, LPBX1+272	 # PROF_edge_counter.2, *LPBX1
 1064      00
 1065 0d51 89151401 		movl	%edx, LPBX1+276	 # PROF_edge_counter.2, *LPBX1
 1065      0000
 1066 0d57 890D0000 		movl	%ecx, _threads	 # D.2890, threads
 1066      0000
 1067              		.loc 1 224 0
 1068 0d5d C7442404 		movl	$_sem1, 4(%esp)	 #,
 1068      00000000 
 1069 0d65 C7042400 		movl	$_sem1, (%esp)	 #,
 1069      000000
 1070 0d6c E8000000 		call	_chSemSignalWait	 #
 1070      00
 1071 0d71 A1180100 		movl	LPBX1+280, %eax	 # *LPBX1, PROF_edge_counter.2
 1071      00
 1072 0d76 8B151C01 		movl	LPBX1+284, %edx	 # *LPBX1, PROF_edge_counter.2
 1072      0000
 1073 0d7c 83C001   		addl	$1, %eax	 #, PROF_edge_counter.2
GAS LISTING C:\cygwin\tmp\ccBlkykz.s 			page 28


 1074 0d7f 83D200   		adcl	$0, %edx	 #, PROF_edge_counter.2
 1075 0d82 A3180100 		movl	%eax, LPBX1+280	 # PROF_edge_counter.2, *LPBX1
 1075      00
 1076 0d87 89151C01 		movl	%edx, LPBX1+284	 # PROF_edge_counter.2, *LPBX1
 1076      0000
 1077              		.loc 1 225 0
 1078 0d8d A1000000 		movl	_sem1, %eax	 # sem1.s_queue.p_next, D.2891
 1078      00
 1079 0d92 3D000000 		cmpl	$_sem1, %eax	 #, D.2891
 1079      00
 1080 0d97 0F94C0   		sete	%al	 #, tmp100
 1081 0d9a 0FB6C0   		movzbl	%al, %eax	 # tmp100, D.2892
 1082 0d9d 89442404 		movl	%eax, 4(%esp)	 # D.2892,
 1083 0da1 C7042401 		movl	$1, (%esp)	 #,
 1083      000000
 1084 0da8 E8000000 		call	__test_assert	 #
 1084      00
 1085 0dad 84C0     		testb	%al, %al	 # D.2893
 1086 0daf 7421     		je	L25	 #,
 1087              		.loc 1 225 0 is_stmt 0 discriminator 1
 1088 0db1 A1280100 		movl	LPBX1+296, %eax	 # *LPBX1, PROF_edge_counter.2
 1088      00
 1089 0db6 8B152C01 		movl	LPBX1+300, %edx	 # *LPBX1, PROF_edge_counter.2
 1089      0000
 1090 0dbc 83C001   		addl	$1, %eax	 #, PROF_edge_counter.2
 1091 0dbf 83D200   		adcl	$0, %edx	 #, PROF_edge_counter.2
 1092 0dc2 A3280100 		movl	%eax, LPBX1+296	 # PROF_edge_counter.2, *LPBX1
 1092      00
 1093 0dc7 89152C01 		movl	%edx, LPBX1+300	 # PROF_edge_counter.2, *LPBX1
 1093      0000
 1094 0dcd E9630100 		jmp	L24	 #
 1094      00
 1095              	L25:
 1096              		.loc 1 225 0
 1097 0dd2 A1200100 		movl	LPBX1+288, %eax	 # *LPBX1, PROF_edge_counter.2
 1097      00
 1098 0dd7 8B152401 		movl	LPBX1+292, %edx	 # *LPBX1, PROF_edge_counter.2
 1098      0000
 1099 0ddd 83C001   		addl	$1, %eax	 #, PROF_edge_counter.2
 1100 0de0 83D200   		adcl	$0, %edx	 #, PROF_edge_counter.2
 1101 0de3 A3200100 		movl	%eax, LPBX1+288	 # PROF_edge_counter.2, *LPBX1
 1101      00
 1102 0de8 89152401 		movl	%edx, LPBX1+292	 # PROF_edge_counter.2, *LPBX1
 1102      0000
 1103              		.loc 1 226 0 is_stmt 1
 1104 0dee A1080000 		movl	_sem1+8, %eax	 # sem1.s_cnt, D.2896
 1104      00
 1105 0df3 85C0     		testl	%eax, %eax	 # D.2896
 1106 0df5 0F94C0   		sete	%al	 #, tmp101
 1107 0df8 0FB6C0   		movzbl	%al, %eax	 # tmp101, D.2897
 1108 0dfb 89442404 		movl	%eax, 4(%esp)	 # D.2897,
 1109 0dff C7042402 		movl	$2, (%esp)	 #,
 1109      000000
 1110 0e06 E8000000 		call	__test_assert	 #
 1110      00
 1111 0e0b 84C0     		testb	%al, %al	 # D.2898
 1112 0e0d 7421     		je	L27	 #,
GAS LISTING C:\cygwin\tmp\ccBlkykz.s 			page 29


 1113              		.loc 1 226 0 is_stmt 0 discriminator 1
 1114 0e0f A1380100 		movl	LPBX1+312, %eax	 # *LPBX1, PROF_edge_counter.2
 1114      00
 1115 0e14 8B153C01 		movl	LPBX1+316, %edx	 # *LPBX1, PROF_edge_counter.2
 1115      0000
 1116 0e1a 83C001   		addl	$1, %eax	 #, PROF_edge_counter.2
 1117 0e1d 83D200   		adcl	$0, %edx	 #, PROF_edge_counter.2
 1118 0e20 A3380100 		movl	%eax, LPBX1+312	 # PROF_edge_counter.2, *LPBX1
 1118      00
 1119 0e25 89153C01 		movl	%edx, LPBX1+316	 # PROF_edge_counter.2, *LPBX1
 1119      0000
 1120 0e2b E9050100 		jmp	L24	 #
 1120      00
 1121              	L27:
 1122              		.loc 1 226 0
 1123 0e30 A1300100 		movl	LPBX1+304, %eax	 # *LPBX1, PROF_edge_counter.2
 1123      00
 1124 0e35 8B153401 		movl	LPBX1+308, %edx	 # *LPBX1, PROF_edge_counter.2
 1124      0000
 1125 0e3b 83C001   		addl	$1, %eax	 #, PROF_edge_counter.2
 1126 0e3e 83D200   		adcl	$0, %edx	 #, PROF_edge_counter.2
 1127 0e41 A3300100 		movl	%eax, LPBX1+304	 # PROF_edge_counter.2, *LPBX1
 1127      00
 1128 0e46 89153401 		movl	%edx, LPBX1+308	 # PROF_edge_counter.2, *LPBX1
 1128      0000
 1129              		.loc 1 228 0 is_stmt 1
 1130 0e4c C7442404 		movl	$_sem1, 4(%esp)	 #,
 1130      00000000 
 1131 0e54 C7042400 		movl	$_sem1, (%esp)	 #,
 1131      000000
 1132 0e5b E8000000 		call	_chSemSignalWait	 #
 1132      00
 1133 0e60 A1400100 		movl	LPBX1+320, %eax	 # *LPBX1, PROF_edge_counter.2
 1133      00
 1134 0e65 8B154401 		movl	LPBX1+324, %edx	 # *LPBX1, PROF_edge_counter.2
 1134      0000
 1135 0e6b 83C001   		addl	$1, %eax	 #, PROF_edge_counter.2
 1136 0e6e 83D200   		adcl	$0, %edx	 #, PROF_edge_counter.2
 1137 0e71 A3400100 		movl	%eax, LPBX1+320	 # PROF_edge_counter.2, *LPBX1
 1137      00
 1138 0e76 89154401 		movl	%edx, LPBX1+324	 # PROF_edge_counter.2, *LPBX1
 1138      0000
 1139              		.loc 1 229 0
 1140 0e7c A1000000 		movl	_sem1, %eax	 # sem1.s_queue.p_next, D.2901
 1140      00
 1141 0e81 3D000000 		cmpl	$_sem1, %eax	 #, D.2901
 1141      00
 1142 0e86 0F94C0   		sete	%al	 #, tmp102
 1143 0e89 0FB6C0   		movzbl	%al, %eax	 # tmp102, D.2902
 1144 0e8c 89442404 		movl	%eax, 4(%esp)	 # D.2902,
 1145 0e90 C7042403 		movl	$3, (%esp)	 #,
 1145      000000
 1146 0e97 E8000000 		call	__test_assert	 #
 1146      00
 1147 0e9c 84C0     		testb	%al, %al	 # D.2903
 1148 0e9e 741E     		je	L28	 #,
 1149              		.loc 1 229 0 is_stmt 0 discriminator 1
GAS LISTING C:\cygwin\tmp\ccBlkykz.s 			page 30


 1150 0ea0 A1500100 		movl	LPBX1+336, %eax	 # *LPBX1, PROF_edge_counter.2
 1150      00
 1151 0ea5 8B155401 		movl	LPBX1+340, %edx	 # *LPBX1, PROF_edge_counter.2
 1151      0000
 1152 0eab 83C001   		addl	$1, %eax	 #, PROF_edge_counter.2
 1153 0eae 83D200   		adcl	$0, %edx	 #, PROF_edge_counter.2
 1154 0eb1 A3500100 		movl	%eax, LPBX1+336	 # PROF_edge_counter.2, *LPBX1
 1154      00
 1155 0eb6 89155401 		movl	%edx, LPBX1+340	 # PROF_edge_counter.2, *LPBX1
 1155      0000
 1156 0ebc EB77     		jmp	L24	 #
 1157              	L28:
 1158              		.loc 1 229 0
 1159 0ebe A1480100 		movl	LPBX1+328, %eax	 # *LPBX1, PROF_edge_counter.2
 1159      00
 1160 0ec3 8B154C01 		movl	LPBX1+332, %edx	 # *LPBX1, PROF_edge_counter.2
 1160      0000
 1161 0ec9 83C001   		addl	$1, %eax	 #, PROF_edge_counter.2
 1162 0ecc 83D200   		adcl	$0, %edx	 #, PROF_edge_counter.2
 1163 0ecf A3480100 		movl	%eax, LPBX1+328	 # PROF_edge_counter.2, *LPBX1
 1163      00
 1164 0ed4 89154C01 		movl	%edx, LPBX1+332	 # PROF_edge_counter.2, *LPBX1
 1164      0000
 1165              		.loc 1 230 0 is_stmt 1
 1166 0eda A1080000 		movl	_sem1+8, %eax	 # sem1.s_cnt, D.2906
 1166      00
 1167 0edf 85C0     		testl	%eax, %eax	 # D.2906
 1168 0ee1 0F94C0   		sete	%al	 #, tmp103
 1169 0ee4 0FB6C0   		movzbl	%al, %eax	 # tmp103, D.2907
 1170 0ee7 89442404 		movl	%eax, 4(%esp)	 # D.2907,
 1171 0eeb C7042404 		movl	$4, (%esp)	 #,
 1171      000000
 1172 0ef2 E8000000 		call	__test_assert	 #
 1172      00
 1173 0ef7 88C1     		movb	%al, %cl	 #, D.2908
 1174 0ef9 A1580100 		movl	LPBX1+344, %eax	 # *LPBX1, PROF_edge_counter.2
 1174      00
 1175 0efe 8B155C01 		movl	LPBX1+348, %edx	 # *LPBX1, PROF_edge_counter.2
 1175      0000
 1176 0f04 83C001   		addl	$1, %eax	 #, PROF_edge_counter.2
 1177 0f07 83D200   		adcl	$0, %edx	 #, PROF_edge_counter.2
 1178 0f0a A3580100 		movl	%eax, LPBX1+344	 # PROF_edge_counter.2, *LPBX1
 1178      00
 1179 0f0f 89155C01 		movl	%edx, LPBX1+348	 # PROF_edge_counter.2, *LPBX1
 1179      0000
 1180 0f15 84C9     		testb	%cl, %cl	 # D.2908
 1181 0f17 741C     		je	L24	 #,
 1182              		.loc 1 230 0 is_stmt 0 discriminator 1
 1183 0f19 A1600100 		movl	LPBX1+352, %eax	 # *LPBX1, PROF_edge_counter.2
 1183      00
 1184 0f1e 8B156401 		movl	LPBX1+356, %edx	 # *LPBX1, PROF_edge_counter.2
 1184      0000
 1185 0f24 83C001   		addl	$1, %eax	 #, PROF_edge_counter.2
 1186 0f27 83D200   		adcl	$0, %edx	 #, PROF_edge_counter.2
 1187 0f2a A3600100 		movl	%eax, LPBX1+352	 # PROF_edge_counter.2, *LPBX1
 1187      00
 1188 0f2f 89156401 		movl	%edx, LPBX1+356	 # PROF_edge_counter.2, *LPBX1
GAS LISTING C:\cygwin\tmp\ccBlkykz.s 			page 31


 1188      0000
 1189              	L24:
 1190              		.loc 1 231 0 is_stmt 1
 1191 0f35 83C42C   		addl	$44, %esp	 #,
 1192              	LCFI17:
 1193              		.cfi_def_cfa_offset 4
 1194 0f38 C3       		ret
 1195              		.cfi_endproc
 1196              	LFE8:
 1197              		.globl	_testsem3
 1198              		.section .rdata,"dr"
 1199              		.align 4
 1200              	LC8:
 1201 005c 53656D61 		.ascii "Semaphores, atomic signal-wait\0"
 1201      70686F72 
 1201      65732C20 
 1201      61746F6D 
 1201      69632073 
 1202 007b 00       		.align 4
 1203              	_testsem3:
 1204              	 # name:
 1205 007c 5C000000 		.long	LC8
 1206              	 # setup:
 1207 0080 1B0C0000 		.long	_sem3_setup
 1208              	 # teardown:
 1209 0084 00000000 		.long	0
 1210              	 # execute:
 1211 0088 E60C0000 		.long	_sem3_execute
 1212              		.text
 1213              		.def	_thread4;	.scl	3;	.type	32;	.endef
 1214              	_thread4:
 1215              	LFB9:
 1216              		.loc 1 249 0
 1217              		.cfi_startproc
 1218 0f39 83EC1C   		subl	$28, %esp	 #,
 1219              	LCFI18:
 1220              		.cfi_def_cfa_offset 32
 1221              		.loc 1 249 0
 1222 0f3c A1D80000 		movl	LPBX1+216, %eax	 # *LPBX1, PROF_edge_counter.1
 1222      00
 1223 0f41 8B15DC00 		movl	LPBX1+220, %edx	 # *LPBX1, PROF_edge_counter.1
 1223      0000
 1224 0f47 83C001   		addl	$1, %eax	 #, PROF_edge_counter.1
 1225 0f4a 83D200   		adcl	$0, %edx	 #, PROF_edge_counter.1
 1226 0f4d A3D80000 		movl	%eax, LPBX1+216	 # PROF_edge_counter.1, *LPBX1
 1226      00
 1227 0f52 8915DC00 		movl	%edx, LPBX1+220	 # PROF_edge_counter.1, *LPBX1
 1227      0000
 1228              		.loc 1 251 0
 1229              	/APP
 1230              	 # 251 "../../test/testsem.c" 1
 1231 0f58 90       		nop
 1232              	 # 0 "" 2
 1233              	/NO_APP
 1234 0f59 A1E00000 		movl	LPBX1+224, %eax	 # *LPBX1, PROF_edge_counter.1
 1234      00
 1235 0f5e 8B15E400 		movl	LPBX1+228, %edx	 # *LPBX1, PROF_edge_counter.1
GAS LISTING C:\cygwin\tmp\ccBlkykz.s 			page 32


 1235      0000
 1236 0f64 83C001   		addl	$1, %eax	 #, PROF_edge_counter.1
 1237 0f67 83D200   		adcl	$0, %edx	 #, PROF_edge_counter.1
 1238 0f6a A3E00000 		movl	%eax, LPBX1+224	 # PROF_edge_counter.1, *LPBX1
 1238      00
 1239 0f6f 8915E400 		movl	%edx, LPBX1+228	 # PROF_edge_counter.1, *LPBX1
 1239      0000
 1240 0f75 8B442420 		movl	32(%esp), %eax	 # p, tmp75
 1241 0f79 8B4008   		movl	8(%eax), %eax	 # MEM[(struct BinarySemaphore *)p_1(D)].bs_sem.s_cnt, D.2880
 1242 0f7c 85C0     		testl	%eax, %eax	 # D.2880
 1243 0f7e 7F44     		jg	L30	 #,
 1244              		.loc 1 251 0 is_stmt 0 discriminator 1
 1245 0f80 A1E80000 		movl	LPBX1+232, %eax	 # *LPBX1, PROF_edge_counter.1
 1245      00
 1246 0f85 8B15EC00 		movl	LPBX1+236, %edx	 # *LPBX1, PROF_edge_counter.1
 1246      0000
 1247 0f8b 83C001   		addl	$1, %eax	 #, PROF_edge_counter.1
 1248 0f8e 83D200   		adcl	$0, %edx	 #, PROF_edge_counter.1
 1249 0f91 A3E80000 		movl	%eax, LPBX1+232	 # PROF_edge_counter.1, *LPBX1
 1249      00
 1250 0f96 8915EC00 		movl	%edx, LPBX1+236	 # PROF_edge_counter.1, *LPBX1
 1250      0000
 1251 0f9c 8B442420 		movl	32(%esp), %eax	 # p, D.2883
 1252 0fa0 890424   		movl	%eax, (%esp)	 # D.2883,
 1253 0fa3 E8000000 		call	_chSemSignalI	 #
 1253      00
 1254 0fa8 A1F00000 		movl	LPBX1+240, %eax	 # *LPBX1, PROF_edge_counter.1
 1254      00
 1255 0fad 8B15F400 		movl	LPBX1+244, %edx	 # *LPBX1, PROF_edge_counter.1
 1255      0000
 1256 0fb3 83C001   		addl	$1, %eax	 #, PROF_edge_counter.1
 1257 0fb6 83D200   		adcl	$0, %edx	 #, PROF_edge_counter.1
 1258 0fb9 A3F00000 		movl	%eax, LPBX1+240	 # PROF_edge_counter.1, *LPBX1
 1258      00
 1259 0fbe 8915F400 		movl	%edx, LPBX1+244	 # PROF_edge_counter.1, *LPBX1
 1259      0000
 1260              	L30:
 1261              		.loc 1 251 0 discriminator 2
 1262 0fc4 E8000000 		call	_chSchRescheduleS	 #
 1262      00
 1263 0fc9 A1F80000 		movl	LPBX1+248, %eax	 # *LPBX1, PROF_edge_counter.1
 1263      00
 1264 0fce 8B15FC00 		movl	LPBX1+252, %edx	 # *LPBX1, PROF_edge_counter.1
 1264      0000
 1265 0fd4 83C001   		addl	$1, %eax	 #, PROF_edge_counter.1
 1266 0fd7 83D200   		adcl	$0, %edx	 #, PROF_edge_counter.1
 1267 0fda A3F80000 		movl	%eax, LPBX1+248	 # PROF_edge_counter.1, *LPBX1
 1267      00
 1268 0fdf 8915FC00 		movl	%edx, LPBX1+252	 # PROF_edge_counter.1, *LPBX1
 1268      0000
 1269              	/APP
 1270              	 # 251 "../../test/testsem.c" 1
 1271 0fe5 90       		nop
 1272              	 # 0 "" 2
 1273              	/NO_APP
 1274 0fe6 A1000100 		movl	LPBX1+256, %eax	 # *LPBX1, PROF_edge_counter.1
 1274      00
GAS LISTING C:\cygwin\tmp\ccBlkykz.s 			page 33


 1275 0feb 8B150401 		movl	LPBX1+260, %edx	 # *LPBX1, PROF_edge_counter.1
 1275      0000
 1276 0ff1 83C001   		addl	$1, %eax	 #, PROF_edge_counter.1
 1277 0ff4 83D200   		adcl	$0, %edx	 #, PROF_edge_counter.1
 1278 0ff7 A3000100 		movl	%eax, LPBX1+256	 # PROF_edge_counter.1, *LPBX1
 1278      00
 1279 0ffc 89150401 		movl	%edx, LPBX1+260	 # PROF_edge_counter.1, *LPBX1
 1279      0000
 1280              		.loc 1 252 0 is_stmt 1 discriminator 2
 1281 1002 B8000000 		movl	$0, %eax	 #, D.2884
 1281      00
 1282              		.loc 1 253 0 discriminator 2
 1283 1007 83C41C   		addl	$28, %esp	 #,
 1284              	LCFI19:
 1285              		.cfi_def_cfa_offset 4
 1286 100a C3       		ret
 1287              		.cfi_endproc
 1288              	LFE9:
 1289              		.def	_sem4_execute;	.scl	3;	.type	32;	.endef
 1290              	_sem4_execute:
 1291              	LFB10:
 1292              		.loc 1 255 0
 1293              		.cfi_startproc
 1294 100b 83EC3C   		subl	$60, %esp	 #,
 1295              	LCFI20:
 1296              		.cfi_def_cfa_offset 64
 1297              		.loc 1 255 0
 1298 100e A1000000 		movl	LPBX1, %eax	 # *LPBX1, PROF_edge_counter.0
 1298      00
 1299 1013 8B150400 		movl	LPBX1+4, %edx	 # *LPBX1, PROF_edge_counter.0
 1299      0000
 1300 1019 83C001   		addl	$1, %eax	 #, PROF_edge_counter.0
 1301 101c 83D200   		adcl	$0, %edx	 #, PROF_edge_counter.0
 1302 101f A3000000 		movl	%eax, LPBX1	 # PROF_edge_counter.0, *LPBX1
 1302      00
 1303 1024 89150400 		movl	%edx, LPBX1+4	 # PROF_edge_counter.0, *LPBX1
 1303      0000
 1304              		.loc 1 259 0
 1305 102a C7442404 		movl	$0, 4(%esp)	 #,
 1305      00000000 
 1306 1032 8D442424 		leal	36(%esp), %eax	 #, tmp138
 1307 1036 890424   		movl	%eax, (%esp)	 # tmp138,
 1308 1039 E8000000 		call	_chSemInit	 #
 1308      00
 1309 103e A1080000 		movl	LPBX1+8, %eax	 # *LPBX1, PROF_edge_counter.0
 1309      00
 1310 1043 8B150C00 		movl	LPBX1+12, %edx	 # *LPBX1, PROF_edge_counter.0
 1310      0000
 1311 1049 83C001   		addl	$1, %eax	 #, PROF_edge_counter.0
 1312 104c 83D200   		adcl	$0, %edx	 #, PROF_edge_counter.0
 1313 104f A3080000 		movl	%eax, LPBX1+8	 # PROF_edge_counter.0, *LPBX1
 1313      00
 1314 1054 89150C00 		movl	%edx, LPBX1+12	 # PROF_edge_counter.0, *LPBX1
 1314      0000
 1315              		.loc 1 260 0
 1316 105a C7442404 		movl	$0, 4(%esp)	 #,
 1316      00000000 
GAS LISTING C:\cygwin\tmp\ccBlkykz.s 			page 34


 1317 1062 8D442424 		leal	36(%esp), %eax	 #, tmp139
 1318 1066 890424   		movl	%eax, (%esp)	 # tmp139,
 1319 1069 E8000000 		call	_chSemReset	 #
 1319      00
 1320 106e A1100000 		movl	LPBX1+16, %eax	 # *LPBX1, PROF_edge_counter.0
 1320      00
 1321 1073 8B151400 		movl	LPBX1+20, %edx	 # *LPBX1, PROF_edge_counter.0
 1321      0000
 1322 1079 83C001   		addl	$1, %eax	 #, PROF_edge_counter.0
 1323 107c 83D200   		adcl	$0, %edx	 #, PROF_edge_counter.0
 1324 107f A3100000 		movl	%eax, LPBX1+16	 # PROF_edge_counter.0, *LPBX1
 1324      00
 1325 1084 89151400 		movl	%edx, LPBX1+20	 # PROF_edge_counter.0, *LPBX1
 1325      0000
 1326              		.loc 1 261 0
 1327 108a 8B44242C 		movl	44(%esp), %eax	 # bsem.bs_sem.s_cnt, D.2838
 1328 108e 85C0     		testl	%eax, %eax	 # D.2838
 1329 1090 0F9EC0   		setle	%al	 #, tmp140
 1330 1093 0FB6C0   		movzbl	%al, %eax	 # tmp140, D.2839
 1331 1096 89442404 		movl	%eax, 4(%esp)	 # D.2839,
 1332 109a C7042401 		movl	$1, (%esp)	 #,
 1332      000000
 1333 10a1 E8000000 		call	__test_assert	 #
 1333      00
 1334 10a6 84C0     		testb	%al, %al	 # D.2840
 1335 10a8 7421     		je	L32	 #,
 1336              		.loc 1 261 0 is_stmt 0 discriminator 1
 1337 10aa A1200000 		movl	LPBX1+32, %eax	 # *LPBX1, PROF_edge_counter.0
 1337      00
 1338 10af 8B152400 		movl	LPBX1+36, %edx	 # *LPBX1, PROF_edge_counter.0
 1338      0000
 1339 10b5 83C001   		addl	$1, %eax	 #, PROF_edge_counter.0
 1340 10b8 83D200   		adcl	$0, %edx	 #, PROF_edge_counter.0
 1341 10bb A3200000 		movl	%eax, LPBX1+32	 # PROF_edge_counter.0, *LPBX1
 1341      00
 1342 10c0 89152400 		movl	%edx, LPBX1+36	 # PROF_edge_counter.0, *LPBX1
 1342      0000
 1343 10c6 E9B70300 		jmp	L31	 #
 1343      00
 1344              	L32:
 1345              		.loc 1 261 0
 1346 10cb A1180000 		movl	LPBX1+24, %eax	 # *LPBX1, PROF_edge_counter.0
 1346      00
 1347 10d0 8B151C00 		movl	LPBX1+28, %edx	 # *LPBX1, PROF_edge_counter.0
 1347      0000
 1348 10d6 83C001   		addl	$1, %eax	 #, PROF_edge_counter.0
 1349 10d9 83D200   		adcl	$0, %edx	 #, PROF_edge_counter.0
 1350 10dc A3180000 		movl	%eax, LPBX1+24	 # PROF_edge_counter.0, *LPBX1
 1350      00
 1351 10e1 89151C00 		movl	%edx, LPBX1+28	 # PROF_edge_counter.0, *LPBX1
 1351      0000
 1352              		.loc 1 265 0 is_stmt 1
 1353 10e7 A1180000 		movl	_rlist+24, %eax	 # rlist.r_current, D.2843
 1353      00
 1354 10ec 8B4008   		movl	8(%eax), %eax	 # D.2843_4->p_prio, D.2844
 1355              		.loc 1 264 0
 1356 10ef 8D48FF   		leal	-1(%eax), %ecx	 #, D.2845
GAS LISTING C:\cygwin\tmp\ccBlkykz.s 			page 35


 1357 10f2 A1000000 		movl	_wa, %eax	 # wa, D.2846
 1357      00
 1358 10f7 8D542424 		leal	36(%esp), %edx	 #, tmp141
 1359 10fb 89542410 		movl	%edx, 16(%esp)	 # tmp141,
 1360 10ff C744240C 		movl	$_thread4, 12(%esp)	 #,
 1360      390F0000 
 1361 1107 894C2408 		movl	%ecx, 8(%esp)	 # D.2845,
 1362 110b C7442404 		movl	$17008, 4(%esp)	 #,
 1362      70420000 
 1363 1113 890424   		movl	%eax, (%esp)	 # D.2846,
 1364 1116 E8000000 		call	_chThdCreateStatic	 #
 1364      00
 1365 111b 89C1     		movl	%eax, %ecx	 #, D.2847
 1366 111d A1280000 		movl	LPBX1+40, %eax	 # *LPBX1, PROF_edge_counter.0
 1366      00
 1367 1122 8B152C00 		movl	LPBX1+44, %edx	 # *LPBX1, PROF_edge_counter.0
 1367      0000
 1368 1128 83C001   		addl	$1, %eax	 #, PROF_edge_counter.0
 1369 112b 83D200   		adcl	$0, %edx	 #, PROF_edge_counter.0
 1370 112e A3280000 		movl	%eax, LPBX1+40	 # PROF_edge_counter.0, *LPBX1
 1370      00
 1371 1133 89152C00 		movl	%edx, LPBX1+44	 # PROF_edge_counter.0, *LPBX1
 1371      0000
 1372 1139 890D0000 		movl	%ecx, _threads	 # D.2847, threads
 1372      0000
 1373              		.loc 1 268 0
 1374 113f 8D442424 		leal	36(%esp), %eax	 #, tmp142
 1375 1143 890424   		movl	%eax, (%esp)	 # tmp142,
 1376 1146 E8000000 		call	_chSemWait	 #
 1376      00
 1377 114b A1300000 		movl	LPBX1+48, %eax	 # *LPBX1, PROF_edge_counter.0
 1377      00
 1378 1150 8B153400 		movl	LPBX1+52, %edx	 # *LPBX1, PROF_edge_counter.0
 1378      0000
 1379 1156 83C001   		addl	$1, %eax	 #, PROF_edge_counter.0
 1380 1159 83D200   		adcl	$0, %edx	 #, PROF_edge_counter.0
 1381 115c A3300000 		movl	%eax, LPBX1+48	 # PROF_edge_counter.0, *LPBX1
 1381      00
 1382 1161 89153400 		movl	%edx, LPBX1+52	 # PROF_edge_counter.0, *LPBX1
 1382      0000
 1383              		.loc 1 271 0
 1384 1167 8B44242C 		movl	44(%esp), %eax	 # bsem.bs_sem.s_cnt, D.2848
 1385 116b 85C0     		testl	%eax, %eax	 # D.2848
 1386 116d 0F9EC0   		setle	%al	 #, tmp143
 1387 1170 0FB6C0   		movzbl	%al, %eax	 # tmp143, D.2849
 1388 1173 89442404 		movl	%eax, 4(%esp)	 # D.2849,
 1389 1177 C7042402 		movl	$2, (%esp)	 #,
 1389      000000
 1390 117e E8000000 		call	__test_assert	 #
 1390      00
 1391 1183 84C0     		testb	%al, %al	 # D.2850
 1392 1185 7421     		je	L34	 #,
 1393              		.loc 1 271 0 is_stmt 0 discriminator 1
 1394 1187 A1400000 		movl	LPBX1+64, %eax	 # *LPBX1, PROF_edge_counter.0
 1394      00
 1395 118c 8B154400 		movl	LPBX1+68, %edx	 # *LPBX1, PROF_edge_counter.0
 1395      0000
GAS LISTING C:\cygwin\tmp\ccBlkykz.s 			page 36


 1396 1192 83C001   		addl	$1, %eax	 #, PROF_edge_counter.0
 1397 1195 83D200   		adcl	$0, %edx	 #, PROF_edge_counter.0
 1398 1198 A3400000 		movl	%eax, LPBX1+64	 # PROF_edge_counter.0, *LPBX1
 1398      00
 1399 119d 89154400 		movl	%edx, LPBX1+68	 # PROF_edge_counter.0, *LPBX1
 1399      0000
 1400 11a3 E9DA0200 		jmp	L31	 #
 1400      00
 1401              	L34:
 1402              		.loc 1 271 0
 1403 11a8 A1380000 		movl	LPBX1+56, %eax	 # *LPBX1, PROF_edge_counter.0
 1403      00
 1404 11ad 8B153C00 		movl	LPBX1+60, %edx	 # *LPBX1, PROF_edge_counter.0
 1404      0000
 1405 11b3 83C001   		addl	$1, %eax	 #, PROF_edge_counter.0
 1406 11b6 83D200   		adcl	$0, %edx	 #, PROF_edge_counter.0
 1407 11b9 A3380000 		movl	%eax, LPBX1+56	 # PROF_edge_counter.0, *LPBX1
 1407      00
 1408 11be 89153C00 		movl	%edx, LPBX1+60	 # PROF_edge_counter.0, *LPBX1
 1408      0000
 1409              		.loc 1 275 0 is_stmt 1
 1410              	/APP
 1411              	 # 275 "../../test/testsem.c" 1
 1412 11c4 90       		nop
 1413              	 # 0 "" 2
 1414              	/NO_APP
 1415 11c5 A1480000 		movl	LPBX1+72, %eax	 # *LPBX1, PROF_edge_counter.0
 1415      00
 1416 11ca 8B154C00 		movl	LPBX1+76, %edx	 # *LPBX1, PROF_edge_counter.0
 1416      0000
 1417 11d0 83C001   		addl	$1, %eax	 #, PROF_edge_counter.0
 1418 11d3 83D200   		adcl	$0, %edx	 #, PROF_edge_counter.0
 1419 11d6 A3480000 		movl	%eax, LPBX1+72	 # PROF_edge_counter.0, *LPBX1
 1419      00
 1420 11db 89154C00 		movl	%edx, LPBX1+76	 # PROF_edge_counter.0, *LPBX1
 1420      0000
 1421 11e1 8B44242C 		movl	44(%esp), %eax	 # bsem.bs_sem.s_cnt, D.2853
 1422 11e5 85C0     		testl	%eax, %eax	 # D.2853
 1423 11e7 7F44     		jg	L35	 #,
 1424              		.loc 1 275 0 is_stmt 0 discriminator 1
 1425 11e9 A1500000 		movl	LPBX1+80, %eax	 # *LPBX1, PROF_edge_counter.0
 1425      00
 1426 11ee 8B155400 		movl	LPBX1+84, %edx	 # *LPBX1, PROF_edge_counter.0
 1426      0000
 1427 11f4 83C001   		addl	$1, %eax	 #, PROF_edge_counter.0
 1428 11f7 83D200   		adcl	$0, %edx	 #, PROF_edge_counter.0
 1429 11fa A3500000 		movl	%eax, LPBX1+80	 # PROF_edge_counter.0, *LPBX1
 1429      00
 1430 11ff 89155400 		movl	%edx, LPBX1+84	 # PROF_edge_counter.0, *LPBX1
 1430      0000
 1431 1205 8D442424 		leal	36(%esp), %eax	 #, tmp144
 1432 1209 890424   		movl	%eax, (%esp)	 # tmp144,
 1433 120c E8000000 		call	_chSemSignalI	 #
 1433      00
 1434 1211 A1580000 		movl	LPBX1+88, %eax	 # *LPBX1, PROF_edge_counter.0
 1434      00
 1435 1216 8B155C00 		movl	LPBX1+92, %edx	 # *LPBX1, PROF_edge_counter.0
GAS LISTING C:\cygwin\tmp\ccBlkykz.s 			page 37


 1435      0000
 1436 121c 83C001   		addl	$1, %eax	 #, PROF_edge_counter.0
 1437 121f 83D200   		adcl	$0, %edx	 #, PROF_edge_counter.0
 1438 1222 A3580000 		movl	%eax, LPBX1+88	 # PROF_edge_counter.0, *LPBX1
 1438      00
 1439 1227 89155C00 		movl	%edx, LPBX1+92	 # PROF_edge_counter.0, *LPBX1
 1439      0000
 1440              	L35:
 1441              		.loc 1 275 0 discriminator 2
 1442 122d E8000000 		call	_chSchRescheduleS	 #
 1442      00
 1443 1232 A1600000 		movl	LPBX1+96, %eax	 # *LPBX1, PROF_edge_counter.0
 1443      00
 1444 1237 8B156400 		movl	LPBX1+100, %edx	 # *LPBX1, PROF_edge_counter.0
 1444      0000
 1445 123d 83C001   		addl	$1, %eax	 #, PROF_edge_counter.0
 1446 1240 83D200   		adcl	$0, %edx	 #, PROF_edge_counter.0
 1447 1243 A3600000 		movl	%eax, LPBX1+96	 # PROF_edge_counter.0, *LPBX1
 1447      00
 1448 1248 89156400 		movl	%edx, LPBX1+100	 # PROF_edge_counter.0, *LPBX1
 1448      0000
 1449              	/APP
 1450              	 # 275 "../../test/testsem.c" 1
 1451 124e 90       		nop
 1452              	 # 0 "" 2
 1453              	/NO_APP
 1454 124f A1680000 		movl	LPBX1+104, %eax	 # *LPBX1, PROF_edge_counter.0
 1454      00
 1455 1254 8B156C00 		movl	LPBX1+108, %edx	 # *LPBX1, PROF_edge_counter.0
 1455      0000
 1456 125a 83C001   		addl	$1, %eax	 #, PROF_edge_counter.0
 1457 125d 83D200   		adcl	$0, %edx	 #, PROF_edge_counter.0
 1458 1260 A3680000 		movl	%eax, LPBX1+104	 # PROF_edge_counter.0, *LPBX1
 1458      00
 1459 1265 89156C00 		movl	%edx, LPBX1+108	 # PROF_edge_counter.0, *LPBX1
 1459      0000
 1460              		.loc 1 276 0 is_stmt 1 discriminator 2
 1461 126b 8B44242C 		movl	44(%esp), %eax	 # bsem.bs_sem.s_cnt, D.2856
 1462 126f 85C0     		testl	%eax, %eax	 # D.2856
 1463 1271 0F9FC0   		setg	%al	 #, tmp145
 1464 1274 0FB6C0   		movzbl	%al, %eax	 # tmp145, D.2857
 1465 1277 89442404 		movl	%eax, 4(%esp)	 # D.2857,
 1466 127b C7042403 		movl	$3, (%esp)	 #,
 1466      000000
 1467 1282 E8000000 		call	__test_assert	 #
 1467      00
 1468 1287 84C0     		testb	%al, %al	 # D.2858
 1469 1289 7421     		je	L36	 #,
 1470              		.loc 1 276 0 is_stmt 0 discriminator 1
 1471 128b A1780000 		movl	LPBX1+120, %eax	 # *LPBX1, PROF_edge_counter.0
 1471      00
 1472 1290 8B157C00 		movl	LPBX1+124, %edx	 # *LPBX1, PROF_edge_counter.0
 1472      0000
 1473 1296 83C001   		addl	$1, %eax	 #, PROF_edge_counter.0
 1474 1299 83D200   		adcl	$0, %edx	 #, PROF_edge_counter.0
 1475 129c A3780000 		movl	%eax, LPBX1+120	 # PROF_edge_counter.0, *LPBX1
 1475      00
GAS LISTING C:\cygwin\tmp\ccBlkykz.s 			page 38


 1476 12a1 89157C00 		movl	%edx, LPBX1+124	 # PROF_edge_counter.0, *LPBX1
 1476      0000
 1477 12a7 E9D60100 		jmp	L31	 #
 1477      00
 1478              	L36:
 1479              		.loc 1 276 0
 1480 12ac A1700000 		movl	LPBX1+112, %eax	 # *LPBX1, PROF_edge_counter.0
 1480      00
 1481 12b1 8B157400 		movl	LPBX1+116, %edx	 # *LPBX1, PROF_edge_counter.0
 1481      0000
 1482 12b7 83C001   		addl	$1, %eax	 #, PROF_edge_counter.0
 1483 12ba 83D200   		adcl	$0, %edx	 #, PROF_edge_counter.0
 1484 12bd A3700000 		movl	%eax, LPBX1+112	 # PROF_edge_counter.0, *LPBX1
 1484      00
 1485 12c2 89157400 		movl	%edx, LPBX1+116	 # PROF_edge_counter.0, *LPBX1
 1485      0000
 1486              		.loc 1 277 0 is_stmt 1
 1487 12c8 8B44242C 		movl	44(%esp), %eax	 # bsem.bs_sem.s_cnt, D.2861
 1488 12cc 83F801   		cmpl	$1, %eax	 #, D.2861
 1489 12cf 0F94C0   		sete	%al	 #, tmp146
 1490 12d2 0FB6C0   		movzbl	%al, %eax	 # tmp146, D.2862
 1491 12d5 89442404 		movl	%eax, 4(%esp)	 # D.2862,
 1492 12d9 C7042404 		movl	$4, (%esp)	 #,
 1492      000000
 1493 12e0 E8000000 		call	__test_assert	 #
 1493      00
 1494 12e5 84C0     		testb	%al, %al	 # D.2863
 1495 12e7 7421     		je	L37	 #,
 1496              		.loc 1 277 0 is_stmt 0 discriminator 1
 1497 12e9 A1880000 		movl	LPBX1+136, %eax	 # *LPBX1, PROF_edge_counter.0
 1497      00
 1498 12ee 8B158C00 		movl	LPBX1+140, %edx	 # *LPBX1, PROF_edge_counter.0
 1498      0000
 1499 12f4 83C001   		addl	$1, %eax	 #, PROF_edge_counter.0
 1500 12f7 83D200   		adcl	$0, %edx	 #, PROF_edge_counter.0
 1501 12fa A3880000 		movl	%eax, LPBX1+136	 # PROF_edge_counter.0, *LPBX1
 1501      00
 1502 12ff 89158C00 		movl	%edx, LPBX1+140	 # PROF_edge_counter.0, *LPBX1
 1502      0000
 1503 1305 E9780100 		jmp	L31	 #
 1503      00
 1504              	L37:
 1505              		.loc 1 277 0
 1506 130a A1800000 		movl	LPBX1+128, %eax	 # *LPBX1, PROF_edge_counter.0
 1506      00
 1507 130f 8B158400 		movl	LPBX1+132, %edx	 # *LPBX1, PROF_edge_counter.0
 1507      0000
 1508 1315 83C001   		addl	$1, %eax	 #, PROF_edge_counter.0
 1509 1318 83D200   		adcl	$0, %edx	 #, PROF_edge_counter.0
 1510 131b A3800000 		movl	%eax, LPBX1+128	 # PROF_edge_counter.0, *LPBX1
 1510      00
 1511 1320 89158400 		movl	%edx, LPBX1+132	 # PROF_edge_counter.0, *LPBX1
 1511      0000
 1512              		.loc 1 280 0 is_stmt 1
 1513              	/APP
 1514              	 # 280 "../../test/testsem.c" 1
 1515 1326 90       		nop
GAS LISTING C:\cygwin\tmp\ccBlkykz.s 			page 39


 1516              	 # 0 "" 2
 1517              	/NO_APP
 1518 1327 A1900000 		movl	LPBX1+144, %eax	 # *LPBX1, PROF_edge_counter.0
 1518      00
 1519 132c 8B159400 		movl	LPBX1+148, %edx	 # *LPBX1, PROF_edge_counter.0
 1519      0000
 1520 1332 83C001   		addl	$1, %eax	 #, PROF_edge_counter.0
 1521 1335 83D200   		adcl	$0, %edx	 #, PROF_edge_counter.0
 1522 1338 A3900000 		movl	%eax, LPBX1+144	 # PROF_edge_counter.0, *LPBX1
 1522      00
 1523 133d 89159400 		movl	%edx, LPBX1+148	 # PROF_edge_counter.0, *LPBX1
 1523      0000
 1524 1343 8B44242C 		movl	44(%esp), %eax	 # bsem.bs_sem.s_cnt, D.2866
 1525 1347 85C0     		testl	%eax, %eax	 # D.2866
 1526 1349 7F44     		jg	L38	 #,
 1527              		.loc 1 280 0 is_stmt 0 discriminator 1
 1528 134b A1980000 		movl	LPBX1+152, %eax	 # *LPBX1, PROF_edge_counter.0
 1528      00
 1529 1350 8B159C00 		movl	LPBX1+156, %edx	 # *LPBX1, PROF_edge_counter.0
 1529      0000
 1530 1356 83C001   		addl	$1, %eax	 #, PROF_edge_counter.0
 1531 1359 83D200   		adcl	$0, %edx	 #, PROF_edge_counter.0
 1532 135c A3980000 		movl	%eax, LPBX1+152	 # PROF_edge_counter.0, *LPBX1
 1532      00
 1533 1361 89159C00 		movl	%edx, LPBX1+156	 # PROF_edge_counter.0, *LPBX1
 1533      0000
 1534 1367 8D442424 		leal	36(%esp), %eax	 #, tmp147
 1535 136b 890424   		movl	%eax, (%esp)	 # tmp147,
 1536 136e E8000000 		call	_chSemSignalI	 #
 1536      00
 1537 1373 A1A00000 		movl	LPBX1+160, %eax	 # *LPBX1, PROF_edge_counter.0
 1537      00
 1538 1378 8B15A400 		movl	LPBX1+164, %edx	 # *LPBX1, PROF_edge_counter.0
 1538      0000
 1539 137e 83C001   		addl	$1, %eax	 #, PROF_edge_counter.0
 1540 1381 83D200   		adcl	$0, %edx	 #, PROF_edge_counter.0
 1541 1384 A3A00000 		movl	%eax, LPBX1+160	 # PROF_edge_counter.0, *LPBX1
 1541      00
 1542 1389 8915A400 		movl	%edx, LPBX1+164	 # PROF_edge_counter.0, *LPBX1
 1542      0000
 1543              	L38:
 1544              		.loc 1 280 0 discriminator 2
 1545 138f E8000000 		call	_chSchRescheduleS	 #
 1545      00
 1546 1394 A1A80000 		movl	LPBX1+168, %eax	 # *LPBX1, PROF_edge_counter.0
 1546      00
 1547 1399 8B15AC00 		movl	LPBX1+172, %edx	 # *LPBX1, PROF_edge_counter.0
 1547      0000
 1548 139f 83C001   		addl	$1, %eax	 #, PROF_edge_counter.0
 1549 13a2 83D200   		adcl	$0, %edx	 #, PROF_edge_counter.0
 1550 13a5 A3A80000 		movl	%eax, LPBX1+168	 # PROF_edge_counter.0, *LPBX1
 1550      00
 1551 13aa 8915AC00 		movl	%edx, LPBX1+172	 # PROF_edge_counter.0, *LPBX1
 1551      0000
 1552              	/APP
 1553              	 # 280 "../../test/testsem.c" 1
 1554 13b0 90       		nop
GAS LISTING C:\cygwin\tmp\ccBlkykz.s 			page 40


 1555              	 # 0 "" 2
 1556              	/NO_APP
 1557 13b1 A1B00000 		movl	LPBX1+176, %eax	 # *LPBX1, PROF_edge_counter.0
 1557      00
 1558 13b6 8B15B400 		movl	LPBX1+180, %edx	 # *LPBX1, PROF_edge_counter.0
 1558      0000
 1559 13bc 83C001   		addl	$1, %eax	 #, PROF_edge_counter.0
 1560 13bf 83D200   		adcl	$0, %edx	 #, PROF_edge_counter.0
 1561 13c2 A3B00000 		movl	%eax, LPBX1+176	 # PROF_edge_counter.0, *LPBX1
 1561      00
 1562 13c7 8915B400 		movl	%edx, LPBX1+180	 # PROF_edge_counter.0, *LPBX1
 1562      0000
 1563              		.loc 1 281 0 is_stmt 1 discriminator 2
 1564 13cd 8B44242C 		movl	44(%esp), %eax	 # bsem.bs_sem.s_cnt, D.2869
 1565 13d1 85C0     		testl	%eax, %eax	 # D.2869
 1566 13d3 0F9FC0   		setg	%al	 #, tmp148
 1567 13d6 0FB6C0   		movzbl	%al, %eax	 # tmp148, D.2870
 1568 13d9 89442404 		movl	%eax, 4(%esp)	 # D.2870,
 1569 13dd C7042403 		movl	$3, (%esp)	 #,
 1569      000000
 1570 13e4 E8000000 		call	__test_assert	 #
 1570      00
 1571 13e9 84C0     		testb	%al, %al	 # D.2871
 1572 13eb 741E     		je	L39	 #,
 1573              		.loc 1 281 0 is_stmt 0 discriminator 1
 1574 13ed A1C00000 		movl	LPBX1+192, %eax	 # *LPBX1, PROF_edge_counter.0
 1574      00
 1575 13f2 8B15C400 		movl	LPBX1+196, %edx	 # *LPBX1, PROF_edge_counter.0
 1575      0000
 1576 13f8 83C001   		addl	$1, %eax	 #, PROF_edge_counter.0
 1577 13fb 83D200   		adcl	$0, %edx	 #, PROF_edge_counter.0
 1578 13fe A3C00000 		movl	%eax, LPBX1+192	 # PROF_edge_counter.0, *LPBX1
 1578      00
 1579 1403 8915C400 		movl	%edx, LPBX1+196	 # PROF_edge_counter.0, *LPBX1
 1579      0000
 1580 1409 EB77     		jmp	L31	 #
 1581              	L39:
 1582              		.loc 1 281 0
 1583 140b A1B80000 		movl	LPBX1+184, %eax	 # *LPBX1, PROF_edge_counter.0
 1583      00
 1584 1410 8B15BC00 		movl	LPBX1+188, %edx	 # *LPBX1, PROF_edge_counter.0
 1584      0000
 1585 1416 83C001   		addl	$1, %eax	 #, PROF_edge_counter.0
 1586 1419 83D200   		adcl	$0, %edx	 #, PROF_edge_counter.0
 1587 141c A3B80000 		movl	%eax, LPBX1+184	 # PROF_edge_counter.0, *LPBX1
 1587      00
 1588 1421 8915BC00 		movl	%edx, LPBX1+188	 # PROF_edge_counter.0, *LPBX1
 1588      0000
 1589              		.loc 1 282 0 is_stmt 1
 1590 1427 8B44242C 		movl	44(%esp), %eax	 # bsem.bs_sem.s_cnt, D.2874
 1591 142b 83F801   		cmpl	$1, %eax	 #, D.2874
 1592 142e 0F94C0   		sete	%al	 #, tmp149
 1593 1431 0FB6C0   		movzbl	%al, %eax	 # tmp149, D.2875
 1594 1434 89442404 		movl	%eax, 4(%esp)	 # D.2875,
 1595 1438 C7042405 		movl	$5, (%esp)	 #,
 1595      000000
 1596 143f E8000000 		call	__test_assert	 #
GAS LISTING C:\cygwin\tmp\ccBlkykz.s 			page 41


 1596      00
 1597 1444 88C1     		movb	%al, %cl	 #, D.2876
 1598 1446 A1C80000 		movl	LPBX1+200, %eax	 # *LPBX1, PROF_edge_counter.0
 1598      00
 1599 144b 8B15CC00 		movl	LPBX1+204, %edx	 # *LPBX1, PROF_edge_counter.0
 1599      0000
 1600 1451 83C001   		addl	$1, %eax	 #, PROF_edge_counter.0
 1601 1454 83D200   		adcl	$0, %edx	 #, PROF_edge_counter.0
 1602 1457 A3C80000 		movl	%eax, LPBX1+200	 # PROF_edge_counter.0, *LPBX1
 1602      00
 1603 145c 8915CC00 		movl	%edx, LPBX1+204	 # PROF_edge_counter.0, *LPBX1
 1603      0000
 1604 1462 84C9     		testb	%cl, %cl	 # D.2876
 1605 1464 741C     		je	L31	 #,
 1606              		.loc 1 282 0 is_stmt 0 discriminator 1
 1607 1466 A1D00000 		movl	LPBX1+208, %eax	 # *LPBX1, PROF_edge_counter.0
 1607      00
 1608 146b 8B15D400 		movl	LPBX1+212, %edx	 # *LPBX1, PROF_edge_counter.0
 1608      0000
 1609 1471 83C001   		addl	$1, %eax	 #, PROF_edge_counter.0
 1610 1474 83D200   		adcl	$0, %edx	 #, PROF_edge_counter.0
 1611 1477 A3D00000 		movl	%eax, LPBX1+208	 # PROF_edge_counter.0, *LPBX1
 1611      00
 1612 147c 8915D400 		movl	%edx, LPBX1+212	 # PROF_edge_counter.0, *LPBX1
 1612      0000
 1613              	L31:
 1614              		.loc 1 283 0 is_stmt 1
 1615 1482 83C43C   		addl	$60, %esp	 #,
 1616              	LCFI21:
 1617              		.cfi_def_cfa_offset 4
 1618 1485 C3       		ret
 1619              		.cfi_endproc
 1620              	LFE10:
 1621              		.globl	_testsem4
 1622              		.section .rdata,"dr"
 1623              		.align 4
 1624              	LC9:
 1625 008c 42696E61 		.ascii "Binary Semaphores, functionality\0"
 1625      72792053 
 1625      656D6170 
 1625      686F7265 
 1625      732C2066 
 1626 00ad 000000   		.align 4
 1627              	_testsem4:
 1628              	 # name:
 1629 00b0 8C000000 		.long	LC9
 1630              	 # setup:
 1631 00b4 00000000 		.long	0
 1632              	 # teardown:
 1633 00b8 00000000 		.long	0
 1634              	 # execute:
 1635 00bc 0B100000 		.long	_sem4_execute
 1636              		.globl	_patternsem
 1637              		.align 4
 1638              	_patternsem:
 1639 00c0 28000000 		.long	_testsem1
 1640 00c4 4C000000 		.long	_testsem2
GAS LISTING C:\cygwin\tmp\ccBlkykz.s 			page 42


 1641 00c8 7C000000 		.long	_testsem3
 1642 00cc B0000000 		.long	_testsem4
 1643 00d0 00000000 		.long	0
 1644              	.lcomm LPBX1,920,32
 1645              		.align 4
 1646              	LC10:
 1647 00d4 433A5C64 		.ascii "C:\\develop\\gyro\\ChibiOS\\test\\coverage/../../test/testsem.gcda\0"
 1647      6576656C 
 1647      6F705C67 
 1647      79726F5C 
 1647      43686962 
 1648 0112 0000     		.data
 1649 000c 00000000 		.align 32
 1649      00000000 
 1649      00000000 
 1649      00000000 
 1649      00000000 
 1650              	LC11:
 1651              	 # <anonymous>:
 1652 0020 0B000000 		.long	11
 1653              	 # <anonymous>:
 1654 0024 8B32A329 		.long	698561163
 1655              	 # <anonymous>:
 1656 0028 1B000000 		.long	27
 1657              	 # <anonymous>:
 1658 002c 0A000000 		.long	10
 1659              	 # <anonymous>:
 1660 0030 F72780FA 		.long	-92264457
 1661              	 # <anonymous>:
 1662 0034 06000000 		.long	6
 1663              	 # <anonymous>:
 1664 0038 09000000 		.long	9
 1665              	 # <anonymous>:
 1666 003c 4B94CAC6 		.long	-959802293
 1667              	 # <anonymous>:
 1668 0040 0C000000 		.long	12
 1669              	 # <anonymous>:
 1670 0044 08000000 		.long	8
 1671              	 # <anonymous>:
 1672 0048 7D91F125 		.long	636588413
 1673              	 # <anonymous>:
 1674 004c 03000000 		.long	3
 1675              	 # <anonymous>:
 1676 0050 07000000 		.long	7
 1677              	 # <anonymous>:
 1678 0054 E0F9E8BC 		.long	-1125582368
 1679              	 # <anonymous>:
 1680 0058 02000000 		.long	2
 1681              	 # <anonymous>:
 1682 005c 06000000 		.long	6
 1683              	 # <anonymous>:
 1684 0060 9BB5EE2A 		.long	720287131
 1685              	 # <anonymous>:
 1686 0064 1F000000 		.long	31
 1687              	 # <anonymous>:
 1688 0068 05000000 		.long	5
 1689              	 # <anonymous>:
GAS LISTING C:\cygwin\tmp\ccBlkykz.s 			page 43


 1690 006c 077759AF 		.long	-1353091321
 1691              	 # <anonymous>:
 1692 0070 06000000 		.long	6
 1693              	 # <anonymous>:
 1694 0074 04000000 		.long	4
 1695              	 # <anonymous>:
 1696 0078 57E99F62 		.long	1654647127
 1697              	 # <anonymous>:
 1698 007c 02000000 		.long	2
 1699              	 # <anonymous>:
 1700 0080 03000000 		.long	3
 1701              	 # <anonymous>:
 1702 0084 DA138BEF 		.long	-276098086
 1703              	 # <anonymous>:
 1704 0088 15000000 		.long	21
 1705              	 # <anonymous>:
 1706 008c 02000000 		.long	2
 1707              	 # <anonymous>:
 1708 0090 641C6BE1 		.long	-513074076
 1709              	 # <anonymous>:
 1710 0094 03000000 		.long	3
 1711              	 # <anonymous>:
 1712 0098 01000000 		.long	1
 1713              	 # <anonymous>:
 1714 009c CD8F1A18 		.long	404393933
 1715              	 # <anonymous>:
 1716 00a0 02000000 		.long	2
 1717 00a4 00000000 		.align 32
 1717      00000000 
 1717      00000000 
 1717      00000000 
 1717      00000000 
 1718              	LPBX0:
 1719              	 # <anonymous>:
 1720 00c0 2A363034 		.long	875574826
 1721              	 # <anonymous>:
 1722 00c4 00000000 		.long	0
 1723              	 # <anonymous>:
 1724 00c8 FB2D7060 		.long	1617964539
 1725              	 # <anonymous>:
 1726 00cc D4000000 		.long	LC10
 1727              	 # <anonymous>:
 1728 00d0 0B000000 		.long	11
 1729              	 # <anonymous>:
 1730 00d4 20000000 		.long	LC11
 1731              	 # <anonymous>:
 1732 00d8 01000000 		.long	1
 1733              	 # <anonymous>:
 1734              	 # <anonymous>:
 1735 00dc 73000000 		.long	115
 1736              	 # <anonymous>:
 1737 00e0 00000000 		.long	LPBX1
 1738              	 # <anonymous>:
 1739 00e4 00000000 		.long	___gcov_merge_add
 1740 00e8 00000000 		.space 12
 1740      00000000 
 1740      00000000 
GAS LISTING C:\cygwin\tmp\ccBlkykz.s 			page 44


 1741 00f4 00000000 		.text
 1741      00000000 
 1741      00000000 
 1742              		.def	__GLOBAL__sub_I_65535_0_testsem1;	.scl	3;	.type	32;	.endef
 1743              	__GLOBAL__sub_I_65535_0_testsem1:
 1744              	LFB11:
 1745              		.loc 1 306 0
 1746              		.cfi_startproc
 1747 1486 83EC1C   		subl	$28, %esp	 #,
 1748              	LCFI22:
 1749              		.cfi_def_cfa_offset 32
 1750              		.loc 1 306 0
 1751 1489 C70424C0 		movl	$LPBX0, (%esp)	 #,
 1751      000000
 1752 1490 E8000000 		call	___gcov_init	 #
 1752      00
 1753 1495 83C41C   		addl	$28, %esp	 #,
 1754              	LCFI23:
 1755              		.cfi_def_cfa_offset 4
 1756 1498 C3       		ret
 1757              		.cfi_endproc
 1758              	LFE11:
 1759              		.section	.ctors,"w"
 1760              		.align 4
 1761 0000 86140000 		.long	__GLOBAL__sub_I_65535_0_testsem1
 1762              		.text
 1763              	Letext0:
 1764              		.file 2 "c:/mingw/bin/../lib/gcc/mingw32/4.6.2/../../../../include/stdint.h"
 1765              		.file 3 "../../os/ports/GCC/SIMIA32/chtypes.h"
 1766              		.file 4 "../../os/kernel/include/chlists.h"
 1767              		.file 5 "../../os/kernel/include/chthreads.h"
 1768              		.file 6 "../../os/ports/GCC/SIMIA32/chcore.h"
 1769              		.file 7 "../../os/kernel/include/chvt.h"
 1770              		.file 8 "../../os/kernel/include/chschd.h"
 1771              		.file 9 "../../os/kernel/include/chsem.h"
 1772              		.file 10 "../../os/kernel/include/chbsem.h"
 1773              		.file 11 "../../os/kernel/include/chmtx.h"
 1774              		.file 12 "../../test/test.h"
 1775 1499 909090   		.section	.debug_info,"dr"
 1776              	Ldebug_info0:
 1777 0000 7F0A0000 		.long	0xa7f
 1778 0004 0200     		.word	0x2
 1779 0006 00000000 		.secrel32	Ldebug_abbrev0
 1780 000a 04       		.byte	0x4
 1781 000b 01       		.uleb128 0x1
 1782 000c 474E5520 		.ascii "GNU C 4.6.2\0"
 1782      4320342E 
 1782      362E3200 
 1783 0018 01       		.byte	0x1
 1784 0019 2E2E2F2E 		.ascii "../../test/testsem.c\0"
 1784      2E2F7465 
 1784      73742F74 
 1784      65737473 
 1784      656D2E63 
 1785 002e 433A5C64 		.ascii "C:\\develop\\gyro\\ChibiOS\\test\\coverage\0"
 1785      6576656C 
 1785      6F705C67 
GAS LISTING C:\cygwin\tmp\ccBlkykz.s 			page 45


 1785      79726F5C 
 1785      43686962 
 1786 0054 00000000 		.long	Ltext0
 1787 0058 99140000 		.long	Letext0
 1788 005c 00000000 		.secrel32	Ldebug_line0
 1789 0060 02       		.uleb128 0x2
 1790 0061 04       		.byte	0x4
 1791 0062 05       		.byte	0x5
 1792 0063 696E7400 		.ascii "int\0"
 1793 0067 02       		.uleb128 0x2
 1794 0068 04       		.byte	0x4
 1795 0069 07       		.byte	0x7
 1796 006a 756E7369 		.ascii "unsigned int\0"
 1796      676E6564 
 1796      20696E74 
 1796      00
 1797 0077 02       		.uleb128 0x2
 1798 0078 02       		.byte	0x2
 1799 0079 07       		.byte	0x7
 1800 007a 73686F72 		.ascii "short unsigned int\0"
 1800      7420756E 
 1800      7369676E 
 1800      65642069 
 1800      6E7400
 1801 008d 02       		.uleb128 0x2
 1802 008e 01       		.byte	0x1
 1803 008f 06       		.byte	0x6
 1804 0090 7369676E 		.ascii "signed char\0"
 1804      65642063 
 1804      68617200 
 1805 009c 03       		.uleb128 0x3
 1806 009d 75696E74 		.ascii "uint8_t\0"
 1806      385F7400 
 1807 00a5 02       		.byte	0x2
 1808 00a6 1C       		.byte	0x1c
 1809 00a7 AB000000 		.long	0xab
 1810 00ab 02       		.uleb128 0x2
 1811 00ac 01       		.byte	0x1
 1812 00ad 08       		.byte	0x8
 1813 00ae 756E7369 		.ascii "unsigned char\0"
 1813      676E6564 
 1813      20636861 
 1813      7200
 1814 00bc 02       		.uleb128 0x2
 1815 00bd 02       		.byte	0x2
 1816 00be 05       		.byte	0x5
 1817 00bf 73686F72 		.ascii "short int\0"
 1817      7420696E 
 1817      7400
 1818 00c9 03       		.uleb128 0x3
 1819 00ca 696E7433 		.ascii "int32_t\0"
 1819      325F7400 
 1820 00d2 02       		.byte	0x2
 1821 00d3 1F       		.byte	0x1f
 1822 00d4 60000000 		.long	0x60
 1823 00d8 03       		.uleb128 0x3
 1824 00d9 75696E74 		.ascii "uint32_t\0"
GAS LISTING C:\cygwin\tmp\ccBlkykz.s 			page 46


 1824      33325F74 
 1824      00
 1825 00e2 02       		.byte	0x2
 1826 00e3 20       		.byte	0x20
 1827 00e4 67000000 		.long	0x67
 1828 00e8 02       		.uleb128 0x2
 1829 00e9 08       		.byte	0x8
 1830 00ea 05       		.byte	0x5
 1831 00eb 6C6F6E67 		.ascii "long long int\0"
 1831      206C6F6E 
 1831      6720696E 
 1831      7400
 1832 00f9 02       		.uleb128 0x2
 1833 00fa 08       		.byte	0x8
 1834 00fb 07       		.byte	0x7
 1835 00fc 6C6F6E67 		.ascii "long long unsigned int\0"
 1835      206C6F6E 
 1835      6720756E 
 1835      7369676E 
 1835      65642069 
 1836 0113 02       		.uleb128 0x2
 1837 0114 01       		.byte	0x1
 1838 0115 02       		.byte	0x2
 1839 0116 5F426F6F 		.ascii "_Bool\0"
 1839      6C00
 1840 011c 03       		.uleb128 0x3
 1841 011d 746D6F64 		.ascii "tmode_t\0"
 1841      655F7400 
 1842 0125 03       		.byte	0x3
 1843 0126 1D       		.byte	0x1d
 1844 0127 9C000000 		.long	0x9c
 1845 012b 03       		.uleb128 0x3
 1846 012c 74737461 		.ascii "tstate_t\0"
 1846      74655F74 
 1846      00
 1847 0135 03       		.byte	0x3
 1848 0136 1E       		.byte	0x1e
 1849 0137 9C000000 		.long	0x9c
 1850 013b 03       		.uleb128 0x3
 1851 013c 74726566 		.ascii "trefs_t\0"
 1851      735F7400 
 1852 0144 03       		.byte	0x3
 1853 0145 1F       		.byte	0x1f
 1854 0146 9C000000 		.long	0x9c
 1855 014a 03       		.uleb128 0x3
 1856 014b 74736C69 		.ascii "tslices_t\0"
 1856      6365735F 
 1856      7400
 1857 0155 03       		.byte	0x3
 1858 0156 20       		.byte	0x20
 1859 0157 9C000000 		.long	0x9c
 1860 015b 03       		.uleb128 0x3
 1861 015c 74707269 		.ascii "tprio_t\0"
 1861      6F5F7400 
 1862 0164 03       		.byte	0x3
 1863 0165 21       		.byte	0x21
 1864 0166 D8000000 		.long	0xd8
GAS LISTING C:\cygwin\tmp\ccBlkykz.s 			page 47


 1865 016a 03       		.uleb128 0x3
 1866 016b 6D73675F 		.ascii "msg_t\0"
 1866      7400
 1867 0171 03       		.byte	0x3
 1868 0172 22       		.byte	0x22
 1869 0173 C9000000 		.long	0xc9
 1870 0177 03       		.uleb128 0x3
 1871 0178 6576656E 		.ascii "eventmask_t\0"
 1871      746D6173 
 1871      6B5F7400 
 1872 0184 03       		.byte	0x3
 1873 0185 24       		.byte	0x24
 1874 0186 D8000000 		.long	0xd8
 1875 018a 03       		.uleb128 0x3
 1876 018b 73797374 		.ascii "systime_t\0"
 1876      696D655F 
 1876      7400
 1877 0195 03       		.byte	0x3
 1878 0196 26       		.byte	0x26
 1879 0197 D8000000 		.long	0xd8
 1880 019b 03       		.uleb128 0x3
 1881 019c 636E745F 		.ascii "cnt_t\0"
 1881      7400
 1882 01a2 03       		.byte	0x3
 1883 01a3 27       		.byte	0x27
 1884 01a4 C9000000 		.long	0xc9
 1885 01a8 03       		.uleb128 0x3
 1886 01a9 54687265 		.ascii "Thread\0"
 1886      616400
 1887 01b0 04       		.byte	0x4
 1888 01b1 23       		.byte	0x23
 1889 01b2 B6010000 		.long	0x1b6
 1890 01b6 04       		.uleb128 0x4
 1891 01b7 54687265 		.ascii "Thread\0"
 1891      616400
 1892 01be 48       		.byte	0x48
 1893 01bf 05       		.byte	0x5
 1894 01c0 57       		.byte	0x57
 1895 01c1 2C030000 		.long	0x32c
 1896 01c5 05       		.uleb128 0x5
 1897 01c6 00000000 		.secrel32	LASF0
 1898 01ca 05       		.byte	0x5
 1899 01cb 58       		.byte	0x58
 1900 01cc 54030000 		.long	0x354
 1901 01d0 02       		.byte	0x2
 1902 01d1 23       		.byte	0x23
 1903 01d2 00       		.uleb128 0
 1904 01d3 06       		.uleb128 0x6
 1905 01d4 705F7072 		.ascii "p_prev\0"
 1905      657600
 1906 01db 05       		.byte	0x5
 1907 01dc 5A       		.byte	0x5a
 1908 01dd 54030000 		.long	0x354
 1909 01e1 02       		.byte	0x2
 1910 01e2 23       		.byte	0x23
 1911 01e3 04       		.uleb128 0x4
 1912 01e4 06       		.uleb128 0x6
GAS LISTING C:\cygwin\tmp\ccBlkykz.s 			page 48


 1913 01e5 705F7072 		.ascii "p_prio\0"
 1913      696F00
 1914 01ec 05       		.byte	0x5
 1915 01ed 5C       		.byte	0x5c
 1916 01ee 5B010000 		.long	0x15b
 1917 01f2 02       		.byte	0x2
 1918 01f3 23       		.byte	0x23
 1919 01f4 08       		.uleb128 0x8
 1920 01f5 06       		.uleb128 0x6
 1921 01f6 705F6374 		.ascii "p_ctx\0"
 1921      7800
 1922 01fc 05       		.byte	0x5
 1923 01fd 5D       		.byte	0x5d
 1924 01fe FE030000 		.long	0x3fe
 1925 0202 02       		.byte	0x2
 1926 0203 23       		.byte	0x23
 1927 0204 0C       		.uleb128 0xc
 1928 0205 06       		.uleb128 0x6
 1929 0206 705F6E65 		.ascii "p_newer\0"
 1929      77657200 
 1930 020e 05       		.byte	0x5
 1931 020f 5F       		.byte	0x5f
 1932 0210 54030000 		.long	0x354
 1933 0214 02       		.byte	0x2
 1934 0215 23       		.byte	0x23
 1935 0216 10       		.uleb128 0x10
 1936 0217 06       		.uleb128 0x6
 1937 0218 705F6F6C 		.ascii "p_older\0"
 1937      64657200 
 1938 0220 05       		.byte	0x5
 1939 0221 60       		.byte	0x60
 1940 0222 54030000 		.long	0x354
 1941 0226 02       		.byte	0x2
 1942 0227 23       		.byte	0x23
 1943 0228 14       		.uleb128 0x14
 1944 0229 06       		.uleb128 0x6
 1945 022a 705F6E61 		.ascii "p_name\0"
 1945      6D6500
 1946 0231 05       		.byte	0x5
 1947 0232 67       		.byte	0x67
 1948 0233 B2060000 		.long	0x6b2
 1949 0237 02       		.byte	0x2
 1950 0238 23       		.byte	0x23
 1951 0239 18       		.uleb128 0x18
 1952 023a 06       		.uleb128 0x6
 1953 023b 705F7374 		.ascii "p_state\0"
 1953      61746500 
 1954 0243 05       		.byte	0x5
 1955 0244 72       		.byte	0x72
 1956 0245 2B010000 		.long	0x12b
 1957 0249 02       		.byte	0x2
 1958 024a 23       		.byte	0x23
 1959 024b 1C       		.uleb128 0x1c
 1960 024c 06       		.uleb128 0x6
 1961 024d 705F666C 		.ascii "p_flags\0"
 1961      61677300 
 1962 0255 05       		.byte	0x5
GAS LISTING C:\cygwin\tmp\ccBlkykz.s 			page 49


 1963 0256 76       		.byte	0x76
 1964 0257 1C010000 		.long	0x11c
 1965 025b 02       		.byte	0x2
 1966 025c 23       		.byte	0x23
 1967 025d 1D       		.uleb128 0x1d
 1968 025e 06       		.uleb128 0x6
 1969 025f 705F7265 		.ascii "p_refs\0"
 1969      667300
 1970 0266 05       		.byte	0x5
 1971 0267 7B       		.byte	0x7b
 1972 0268 3B010000 		.long	0x13b
 1973 026c 02       		.byte	0x2
 1974 026d 23       		.byte	0x23
 1975 026e 1E       		.uleb128 0x1e
 1976 026f 06       		.uleb128 0x6
 1977 0270 705F7072 		.ascii "p_preempt\0"
 1977      65656D70 
 1977      7400
 1978 027a 05       		.byte	0x5
 1979 027b 81       		.byte	0x81
 1980 027c 4A010000 		.long	0x14a
 1981 0280 02       		.byte	0x2
 1982 0281 23       		.byte	0x23
 1983 0282 1F       		.uleb128 0x1f
 1984 0283 06       		.uleb128 0x6
 1985 0284 705F7469 		.ascii "p_time\0"
 1985      6D6500
 1986 028b 05       		.byte	0x5
 1987 028c 88       		.byte	0x88
 1988 028d 15050000 		.long	0x515
 1989 0291 02       		.byte	0x2
 1990 0292 23       		.byte	0x23
 1991 0293 20       		.uleb128 0x20
 1992 0294 06       		.uleb128 0x6
 1993 0295 705F7500 		.ascii "p_u\0"
 1994 0299 05       		.byte	0x5
 1995 029a AD       		.byte	0xad
 1996 029b 6F060000 		.long	0x66f
 1997 029f 02       		.byte	0x2
 1998 02a0 23       		.byte	0x23
 1999 02a1 24       		.uleb128 0x24
 2000 02a2 06       		.uleb128 0x6
 2001 02a3 705F7761 		.ascii "p_waiting\0"
 2001      6974696E 
 2001      6700
 2002 02ad 05       		.byte	0x5
 2003 02ae B2       		.byte	0xb2
 2004 02af 85030000 		.long	0x385
 2005 02b3 02       		.byte	0x2
 2006 02b4 23       		.byte	0x23
 2007 02b5 28       		.uleb128 0x28
 2008 02b6 06       		.uleb128 0x6
 2009 02b7 705F6D73 		.ascii "p_msgqueue\0"
 2009      67717565 
 2009      756500
 2010 02c2 05       		.byte	0x5
 2011 02c3 B8       		.byte	0xb8
GAS LISTING C:\cygwin\tmp\ccBlkykz.s 			page 50


 2012 02c4 5A030000 		.long	0x35a
 2013 02c8 02       		.byte	0x2
 2014 02c9 23       		.byte	0x23
 2015 02ca 2C       		.uleb128 0x2c
 2016 02cb 06       		.uleb128 0x6
 2017 02cc 705F6D73 		.ascii "p_msg\0"
 2017      6700
 2018 02d2 05       		.byte	0x5
 2019 02d3 BC       		.byte	0xbc
 2020 02d4 6A010000 		.long	0x16a
 2021 02d8 02       		.byte	0x2
 2022 02d9 23       		.byte	0x23
 2023 02da 34       		.uleb128 0x34
 2024 02db 06       		.uleb128 0x6
 2025 02dc 705F6570 		.ascii "p_epending\0"
 2025      656E6469 
 2025      6E6700
 2026 02e7 05       		.byte	0x5
 2027 02e8 C2       		.byte	0xc2
 2028 02e9 77010000 		.long	0x177
 2029 02ed 02       		.byte	0x2
 2030 02ee 23       		.byte	0x23
 2031 02ef 38       		.uleb128 0x38
 2032 02f0 06       		.uleb128 0x6
 2033 02f1 705F6D74 		.ascii "p_mtxlist\0"
 2033      786C6973 
 2033      7400
 2034 02fb 05       		.byte	0x5
 2035 02fc C9       		.byte	0xc9
 2036 02fd C5060000 		.long	0x6c5
 2037 0301 02       		.byte	0x2
 2038 0302 23       		.byte	0x23
 2039 0303 3C       		.uleb128 0x3c
 2040 0304 06       		.uleb128 0x6
 2041 0305 705F7265 		.ascii "p_realprio\0"
 2041      616C7072 
 2041      696F00
 2042 0310 05       		.byte	0x5
 2043 0311 CD       		.byte	0xcd
 2044 0312 5B010000 		.long	0x15b
 2045 0316 02       		.byte	0x2
 2046 0317 23       		.byte	0x23
 2047 0318 40       		.uleb128 0x40
 2048 0319 06       		.uleb128 0x6
 2049 031a 705F6D70 		.ascii "p_mpool\0"
 2049      6F6F6C00 
 2050 0322 05       		.byte	0x5
 2051 0323 D3       		.byte	0xd3
 2052 0324 A6030000 		.long	0x3a6
 2053 0328 02       		.byte	0x2
 2054 0329 23       		.byte	0x23
 2055 032a 44       		.uleb128 0x44
 2056 032b 00       		.byte	0
 2057 032c 07       		.uleb128 0x7
 2058 032d 08       		.byte	0x8
 2059 032e 04       		.byte	0x4
 2060 032f 5A       		.byte	0x5a
GAS LISTING C:\cygwin\tmp\ccBlkykz.s 			page 51


 2061 0330 54030000 		.long	0x354
 2062 0334 05       		.uleb128 0x5
 2063 0335 00000000 		.secrel32	LASF0
 2064 0339 04       		.byte	0x4
 2065 033a 5B       		.byte	0x5b
 2066 033b 54030000 		.long	0x354
 2067 033f 02       		.byte	0x2
 2068 0340 23       		.byte	0x23
 2069 0341 00       		.uleb128 0
 2070 0342 06       		.uleb128 0x6
 2071 0343 705F7072 		.ascii "p_prev\0"
 2071      657600
 2072 034a 04       		.byte	0x4
 2073 034b 5D       		.byte	0x5d
 2074 034c 54030000 		.long	0x354
 2075 0350 02       		.byte	0x2
 2076 0351 23       		.byte	0x23
 2077 0352 04       		.uleb128 0x4
 2078 0353 00       		.byte	0
 2079 0354 08       		.uleb128 0x8
 2080 0355 04       		.byte	0x4
 2081 0356 A8010000 		.long	0x1a8
 2082 035a 03       		.uleb128 0x3
 2083 035b 54687265 		.ascii "ThreadsQueue\0"
 2083      61647351 
 2083      75657565 
 2083      00
 2084 0368 04       		.byte	0x4
 2085 0369 5F       		.byte	0x5f
 2086 036a 2C030000 		.long	0x32c
 2087 036e 07       		.uleb128 0x7
 2088 036f 04       		.byte	0x4
 2089 0370 04       		.byte	0x4
 2090 0371 64       		.byte	0x64
 2091 0372 85030000 		.long	0x385
 2092 0376 05       		.uleb128 0x5
 2093 0377 00000000 		.secrel32	LASF0
 2094 037b 04       		.byte	0x4
 2095 037c 66       		.byte	0x66
 2096 037d 54030000 		.long	0x354
 2097 0381 02       		.byte	0x2
 2098 0382 23       		.byte	0x23
 2099 0383 00       		.uleb128 0
 2100 0384 00       		.byte	0
 2101 0385 03       		.uleb128 0x3
 2102 0386 54687265 		.ascii "ThreadsList\0"
 2102      6164734C 
 2102      69737400 
 2103 0392 04       		.byte	0x4
 2104 0393 69       		.byte	0x69
 2105 0394 6E030000 		.long	0x36e
 2106 0398 03       		.uleb128 0x3
 2107 0399 72656778 		.ascii "regx86\0"
 2107      383600
 2108 03a0 06       		.byte	0x6
 2109 03a1 44       		.byte	0x44
 2110 03a2 A6030000 		.long	0x3a6
GAS LISTING C:\cygwin\tmp\ccBlkykz.s 			page 52


 2111 03a6 09       		.uleb128 0x9
 2112 03a7 04       		.byte	0x4
 2113 03a8 04       		.uleb128 0x4
 2114 03a9 696E7463 		.ascii "intctx\0"
 2114      747800
 2115 03b0 14       		.byte	0x14
 2116 03b1 06       		.byte	0x6
 2117 03b2 52       		.byte	0x52
 2118 03b3 FE030000 		.long	0x3fe
 2119 03b7 06       		.uleb128 0x6
 2120 03b8 65627800 		.ascii "ebx\0"
 2121 03bc 06       		.byte	0x6
 2122 03bd 53       		.byte	0x53
 2123 03be 98030000 		.long	0x398
 2124 03c2 02       		.byte	0x2
 2125 03c3 23       		.byte	0x23
 2126 03c4 00       		.uleb128 0
 2127 03c5 06       		.uleb128 0x6
 2128 03c6 65646900 		.ascii "edi\0"
 2129 03ca 06       		.byte	0x6
 2130 03cb 54       		.byte	0x54
 2131 03cc 98030000 		.long	0x398
 2132 03d0 02       		.byte	0x2
 2133 03d1 23       		.byte	0x23
 2134 03d2 04       		.uleb128 0x4
 2135 03d3 06       		.uleb128 0x6
 2136 03d4 65736900 		.ascii "esi\0"
 2137 03d8 06       		.byte	0x6
 2138 03d9 55       		.byte	0x55
 2139 03da 98030000 		.long	0x398
 2140 03de 02       		.byte	0x2
 2141 03df 23       		.byte	0x23
 2142 03e0 08       		.uleb128 0x8
 2143 03e1 06       		.uleb128 0x6
 2144 03e2 65627000 		.ascii "ebp\0"
 2145 03e6 06       		.byte	0x6
 2146 03e7 56       		.byte	0x56
 2147 03e8 98030000 		.long	0x398
 2148 03ec 02       		.byte	0x2
 2149 03ed 23       		.byte	0x23
 2150 03ee 0C       		.uleb128 0xc
 2151 03ef 06       		.uleb128 0x6
 2152 03f0 65697000 		.ascii "eip\0"
 2153 03f4 06       		.byte	0x6
 2154 03f5 57       		.byte	0x57
 2155 03f6 98030000 		.long	0x398
 2156 03fa 02       		.byte	0x2
 2157 03fb 23       		.byte	0x23
 2158 03fc 10       		.uleb128 0x10
 2159 03fd 00       		.byte	0
 2160 03fe 04       		.uleb128 0x4
 2161 03ff 636F6E74 		.ascii "context\0"
 2161      65787400 
 2162 0407 04       		.byte	0x4
 2163 0408 06       		.byte	0x6
 2164 0409 5F       		.byte	0x5f
 2165 040a 1D040000 		.long	0x41d
GAS LISTING C:\cygwin\tmp\ccBlkykz.s 			page 53


 2166 040e 06       		.uleb128 0x6
 2167 040f 65737000 		.ascii "esp\0"
 2168 0413 06       		.byte	0x6
 2169 0414 60       		.byte	0x60
 2170 0415 1D040000 		.long	0x41d
 2171 0419 02       		.byte	0x2
 2172 041a 23       		.byte	0x23
 2173 041b 00       		.uleb128 0
 2174 041c 00       		.byte	0
 2175 041d 08       		.uleb128 0x8
 2176 041e 04       		.byte	0x4
 2177 041f 23040000 		.long	0x423
 2178 0423 0A       		.uleb128 0xa
 2179 0424 A8030000 		.long	0x3a8
 2180 0428 03       		.uleb128 0x3
 2181 0429 76746675 		.ascii "vtfunc_t\0"
 2181      6E635F74 
 2181      00
 2182 0432 07       		.byte	0x7
 2183 0433 4E       		.byte	0x4e
 2184 0434 38040000 		.long	0x438
 2185 0438 08       		.uleb128 0x8
 2186 0439 04       		.byte	0x4
 2187 043a 3E040000 		.long	0x43e
 2188 043e 0B       		.uleb128 0xb
 2189 043f 01       		.byte	0x1
 2190 0440 4A040000 		.long	0x44a
 2191 0444 0C       		.uleb128 0xc
 2192 0445 A6030000 		.long	0x3a6
 2193 0449 00       		.byte	0
 2194 044a 0D       		.uleb128 0xd
 2195 044b 11000000 		.secrel32	LASF1
 2196 044f 07       		.byte	0x7
 2197 0450 53       		.byte	0x53
 2198 0451 55040000 		.long	0x455
 2199 0455 0E       		.uleb128 0xe
 2200 0456 11000000 		.secrel32	LASF1
 2201 045a 14       		.byte	0x14
 2202 045b 07       		.byte	0x7
 2203 045c 5A       		.byte	0x5a
 2204 045d BB040000 		.long	0x4bb
 2205 0461 06       		.uleb128 0x6
 2206 0462 76745F6E 		.ascii "vt_next\0"
 2206      65787400 
 2207 046a 07       		.byte	0x7
 2208 046b 5B       		.byte	0x5b
 2209 046c BB040000 		.long	0x4bb
 2210 0470 02       		.byte	0x2
 2211 0471 23       		.byte	0x23
 2212 0472 00       		.uleb128 0
 2213 0473 06       		.uleb128 0x6
 2214 0474 76745F70 		.ascii "vt_prev\0"
 2214      72657600 
 2215 047c 07       		.byte	0x7
 2216 047d 5D       		.byte	0x5d
 2217 047e BB040000 		.long	0x4bb
 2218 0482 02       		.byte	0x2
GAS LISTING C:\cygwin\tmp\ccBlkykz.s 			page 54


 2219 0483 23       		.byte	0x23
 2220 0484 04       		.uleb128 0x4
 2221 0485 06       		.uleb128 0x6
 2222 0486 76745F74 		.ascii "vt_time\0"
 2222      696D6500 
 2223 048e 07       		.byte	0x7
 2224 048f 5F       		.byte	0x5f
 2225 0490 8A010000 		.long	0x18a
 2226 0494 02       		.byte	0x2
 2227 0495 23       		.byte	0x23
 2228 0496 08       		.uleb128 0x8
 2229 0497 06       		.uleb128 0x6
 2230 0498 76745F66 		.ascii "vt_func\0"
 2230      756E6300 
 2231 04a0 07       		.byte	0x7
 2232 04a1 60       		.byte	0x60
 2233 04a2 28040000 		.long	0x428
 2234 04a6 02       		.byte	0x2
 2235 04a7 23       		.byte	0x23
 2236 04a8 0C       		.uleb128 0xc
 2237 04a9 06       		.uleb128 0x6
 2238 04aa 76745F70 		.ascii "vt_par\0"
 2238      617200
 2239 04b1 07       		.byte	0x7
 2240 04b2 62       		.byte	0x62
 2241 04b3 A6030000 		.long	0x3a6
 2242 04b7 02       		.byte	0x2
 2243 04b8 23       		.byte	0x23
 2244 04b9 10       		.uleb128 0x10
 2245 04ba 00       		.byte	0
 2246 04bb 08       		.uleb128 0x8
 2247 04bc 04       		.byte	0x4
 2248 04bd 4A040000 		.long	0x44a
 2249 04c1 07       		.uleb128 0x7
 2250 04c2 10       		.byte	0x10
 2251 04c3 07       		.byte	0x7
 2252 04c4 6C       		.byte	0x6c
 2253 04c5 15050000 		.long	0x515
 2254 04c9 06       		.uleb128 0x6
 2255 04ca 76745F6E 		.ascii "vt_next\0"
 2255      65787400 
 2256 04d2 07       		.byte	0x7
 2257 04d3 6D       		.byte	0x6d
 2258 04d4 BB040000 		.long	0x4bb
 2259 04d8 02       		.byte	0x2
 2260 04d9 23       		.byte	0x23
 2261 04da 00       		.uleb128 0
 2262 04db 06       		.uleb128 0x6
 2263 04dc 76745F70 		.ascii "vt_prev\0"
 2263      72657600 
 2264 04e4 07       		.byte	0x7
 2265 04e5 6F       		.byte	0x6f
 2266 04e6 BB040000 		.long	0x4bb
 2267 04ea 02       		.byte	0x2
 2268 04eb 23       		.byte	0x23
 2269 04ec 04       		.uleb128 0x4
 2270 04ed 06       		.uleb128 0x6
GAS LISTING C:\cygwin\tmp\ccBlkykz.s 			page 55


 2271 04ee 76745F74 		.ascii "vt_time\0"
 2271      696D6500 
 2272 04f6 07       		.byte	0x7
 2273 04f7 71       		.byte	0x71
 2274 04f8 8A010000 		.long	0x18a
 2275 04fc 02       		.byte	0x2
 2276 04fd 23       		.byte	0x23
 2277 04fe 08       		.uleb128 0x8
 2278 04ff 06       		.uleb128 0x6
 2279 0500 76745F73 		.ascii "vt_systime\0"
 2279      79737469 
 2279      6D6500
 2280 050b 07       		.byte	0x7
 2281 050c 72       		.byte	0x72
 2282 050d 15050000 		.long	0x515
 2283 0511 02       		.byte	0x2
 2284 0512 23       		.byte	0x23
 2285 0513 0C       		.uleb128 0xc
 2286 0514 00       		.byte	0
 2287 0515 0A       		.uleb128 0xa
 2288 0516 8A010000 		.long	0x18a
 2289 051a 03       		.uleb128 0x3
 2290 051b 56544C69 		.ascii "VTList\0"
 2290      737400
 2291 0522 07       		.byte	0x7
 2292 0523 73       		.byte	0x73
 2293 0524 C1040000 		.long	0x4c1
 2294 0528 07       		.uleb128 0x7
 2295 0529 1C       		.byte	0x1c
 2296 052a 08       		.byte	0x8
 2297 052b 57       		.byte	0x57
 2298 052c 9C050000 		.long	0x59c
 2299 0530 06       		.uleb128 0x6
 2300 0531 725F7175 		.ascii "r_queue\0"
 2300      65756500 
 2301 0539 08       		.byte	0x8
 2302 053a 58       		.byte	0x58
 2303 053b 5A030000 		.long	0x35a
 2304 053f 02       		.byte	0x2
 2305 0540 23       		.byte	0x23
 2306 0541 00       		.uleb128 0
 2307 0542 06       		.uleb128 0x6
 2308 0543 725F7072 		.ascii "r_prio\0"
 2308      696F00
 2309 054a 08       		.byte	0x8
 2310 054b 59       		.byte	0x59
 2311 054c 5B010000 		.long	0x15b
 2312 0550 02       		.byte	0x2
 2313 0551 23       		.byte	0x23
 2314 0552 08       		.uleb128 0x8
 2315 0553 06       		.uleb128 0x6
 2316 0554 725F6374 		.ascii "r_ctx\0"
 2316      7800
 2317 055a 08       		.byte	0x8
 2318 055b 5B       		.byte	0x5b
 2319 055c FE030000 		.long	0x3fe
 2320 0560 02       		.byte	0x2
GAS LISTING C:\cygwin\tmp\ccBlkykz.s 			page 56


 2321 0561 23       		.byte	0x23
 2322 0562 0C       		.uleb128 0xc
 2323 0563 06       		.uleb128 0x6
 2324 0564 725F6E65 		.ascii "r_newer\0"
 2324      77657200 
 2325 056c 08       		.byte	0x8
 2326 056d 5E       		.byte	0x5e
 2327 056e 54030000 		.long	0x354
 2328 0572 02       		.byte	0x2
 2329 0573 23       		.byte	0x23
 2330 0574 10       		.uleb128 0x10
 2331 0575 06       		.uleb128 0x6
 2332 0576 725F6F6C 		.ascii "r_older\0"
 2332      64657200 
 2333 057e 08       		.byte	0x8
 2334 057f 5F       		.byte	0x5f
 2335 0580 54030000 		.long	0x354
 2336 0584 02       		.byte	0x2
 2337 0585 23       		.byte	0x23
 2338 0586 14       		.uleb128 0x14
 2339 0587 06       		.uleb128 0x6
 2340 0588 725F6375 		.ascii "r_current\0"
 2340      7272656E 
 2340      7400
 2341 0592 08       		.byte	0x8
 2342 0593 62       		.byte	0x62
 2343 0594 54030000 		.long	0x354
 2344 0598 02       		.byte	0x2
 2345 0599 23       		.byte	0x23
 2346 059a 18       		.uleb128 0x18
 2347 059b 00       		.byte	0
 2348 059c 03       		.uleb128 0x3
 2349 059d 52656164 		.ascii "ReadyList\0"
 2349      794C6973 
 2349      7400
 2350 05a7 08       		.byte	0x8
 2351 05a8 64       		.byte	0x64
 2352 05a9 28050000 		.long	0x528
 2353 05ad 0E       		.uleb128 0xe
 2354 05ae 07000000 		.secrel32	LASF2
 2355 05b2 0C       		.byte	0xc
 2356 05b3 09       		.byte	0x9
 2357 05b4 25       		.byte	0x25
 2358 05b5 DC050000 		.long	0x5dc
 2359 05b9 06       		.uleb128 0x6
 2360 05ba 735F7175 		.ascii "s_queue\0"
 2360      65756500 
 2361 05c2 09       		.byte	0x9
 2362 05c3 26       		.byte	0x26
 2363 05c4 5A030000 		.long	0x35a
 2364 05c8 02       		.byte	0x2
 2365 05c9 23       		.byte	0x23
 2366 05ca 00       		.uleb128 0
 2367 05cb 06       		.uleb128 0x6
 2368 05cc 735F636E 		.ascii "s_cnt\0"
 2368      7400
 2369 05d2 09       		.byte	0x9
GAS LISTING C:\cygwin\tmp\ccBlkykz.s 			page 57


 2370 05d3 28       		.byte	0x28
 2371 05d4 9B010000 		.long	0x19b
 2372 05d8 02       		.byte	0x2
 2373 05d9 23       		.byte	0x23
 2374 05da 08       		.uleb128 0x8
 2375 05db 00       		.byte	0
 2376 05dc 0D       		.uleb128 0xd
 2377 05dd 07000000 		.secrel32	LASF2
 2378 05e1 09       		.byte	0x9
 2379 05e2 29       		.byte	0x29
 2380 05e3 AD050000 		.long	0x5ad
 2381 05e7 07       		.uleb128 0x7
 2382 05e8 0C       		.byte	0xc
 2383 05e9 0A       		.byte	0xa
 2384 05ea 3D       		.byte	0x3d
 2385 05eb 01060000 		.long	0x601
 2386 05ef 06       		.uleb128 0x6
 2387 05f0 62735F73 		.ascii "bs_sem\0"
 2387      656D00
 2388 05f7 0A       		.byte	0xa
 2389 05f8 3E       		.byte	0x3e
 2390 05f9 DC050000 		.long	0x5dc
 2391 05fd 02       		.byte	0x2
 2392 05fe 23       		.byte	0x23
 2393 05ff 00       		.uleb128 0
 2394 0600 00       		.byte	0
 2395 0601 03       		.uleb128 0x3
 2396 0602 42696E61 		.ascii "BinarySemaphore\0"
 2396      72795365 
 2396      6D617068 
 2396      6F726500 
 2397 0612 0A       		.byte	0xa
 2398 0613 3F       		.byte	0x3f
 2399 0614 E7050000 		.long	0x5e7
 2400 0618 04       		.uleb128 0x4
 2401 0619 4D757465 		.ascii "Mutex\0"
 2401      7800
 2402 061f 10       		.byte	0x10
 2403 0620 0B       		.byte	0xb
 2404 0621 25       		.byte	0x25
 2405 0622 5C060000 		.long	0x65c
 2406 0626 06       		.uleb128 0x6
 2407 0627 6D5F7175 		.ascii "m_queue\0"
 2407      65756500 
 2408 062f 0B       		.byte	0xb
 2409 0630 26       		.byte	0x26
 2410 0631 5A030000 		.long	0x35a
 2411 0635 02       		.byte	0x2
 2412 0636 23       		.byte	0x23
 2413 0637 00       		.uleb128 0
 2414 0638 06       		.uleb128 0x6
 2415 0639 6D5F6F77 		.ascii "m_owner\0"
 2415      6E657200 
 2416 0641 0B       		.byte	0xb
 2417 0642 28       		.byte	0x28
 2418 0643 54030000 		.long	0x354
 2419 0647 02       		.byte	0x2
GAS LISTING C:\cygwin\tmp\ccBlkykz.s 			page 58


 2420 0648 23       		.byte	0x23
 2421 0649 08       		.uleb128 0x8
 2422 064a 06       		.uleb128 0x6
 2423 064b 6D5F6E65 		.ascii "m_next\0"
 2423      787400
 2424 0652 0B       		.byte	0xb
 2425 0653 2A       		.byte	0x2a
 2426 0654 5C060000 		.long	0x65c
 2427 0658 02       		.byte	0x2
 2428 0659 23       		.byte	0x23
 2429 065a 0C       		.uleb128 0xc
 2430 065b 00       		.byte	0
 2431 065c 08       		.uleb128 0x8
 2432 065d 04       		.byte	0x4
 2433 065e 18060000 		.long	0x618
 2434 0662 03       		.uleb128 0x3
 2435 0663 4D757465 		.ascii "Mutex\0"
 2435      7800
 2436 0669 0B       		.byte	0xb
 2437 066a 2C       		.byte	0x2c
 2438 066b 18060000 		.long	0x618
 2439 066f 0F       		.uleb128 0xf
 2440 0670 04       		.byte	0x4
 2441 0671 05       		.byte	0x5
 2442 0672 8F       		.byte	0x8f
 2443 0673 B2060000 		.long	0x6b2
 2444 0677 10       		.uleb128 0x10
 2445 0678 7264796D 		.ascii "rdymsg\0"
 2445      736700
 2446 067f 05       		.byte	0x5
 2447 0680 96       		.byte	0x96
 2448 0681 6A010000 		.long	0x16a
 2449 0685 10       		.uleb128 0x10
 2450 0686 65786974 		.ascii "exitcode\0"
 2450      636F6465 
 2450      00
 2451 068f 05       		.byte	0x5
 2452 0690 9D       		.byte	0x9d
 2453 0691 6A010000 		.long	0x16a
 2454 0695 10       		.uleb128 0x10
 2455 0696 77746F62 		.ascii "wtobjp\0"
 2455      6A7000
 2456 069d 05       		.byte	0x5
 2457 069e A4       		.byte	0xa4
 2458 069f A6030000 		.long	0x3a6
 2459 06a3 10       		.uleb128 0x10
 2460 06a4 65776D61 		.ascii "ewmask\0"
 2460      736B00
 2461 06ab 05       		.byte	0x5
 2462 06ac AB       		.byte	0xab
 2463 06ad 77010000 		.long	0x177
 2464 06b1 00       		.byte	0
 2465 06b2 08       		.uleb128 0x8
 2466 06b3 04       		.byte	0x4
 2467 06b4 B8060000 		.long	0x6b8
 2468 06b8 11       		.uleb128 0x11
 2469 06b9 BD060000 		.long	0x6bd
GAS LISTING C:\cygwin\tmp\ccBlkykz.s 			page 59


 2470 06bd 02       		.uleb128 0x2
 2471 06be 01       		.byte	0x1
 2472 06bf 06       		.byte	0x6
 2473 06c0 63686172 		.ascii "char\0"
 2473      00
 2474 06c5 08       		.uleb128 0x8
 2475 06c6 04       		.byte	0x4
 2476 06c7 62060000 		.long	0x662
 2477 06cb 04       		.uleb128 0x4
 2478 06cc 74657374 		.ascii "testcase\0"
 2478      63617365 
 2478      00
 2479 06d5 10       		.byte	0x10
 2480 06d6 0C       		.byte	0xc
 2481 06d7 3F       		.byte	0x3f
 2482 06d8 21070000 		.long	0x721
 2483 06dc 06       		.uleb128 0x6
 2484 06dd 6E616D65 		.ascii "name\0"
 2484      00
 2485 06e2 0C       		.byte	0xc
 2486 06e3 40       		.byte	0x40
 2487 06e4 B2060000 		.long	0x6b2
 2488 06e8 02       		.byte	0x2
 2489 06e9 23       		.byte	0x23
 2490 06ea 00       		.uleb128 0
 2491 06eb 06       		.uleb128 0x6
 2492 06ec 73657475 		.ascii "setup\0"
 2492      7000
 2493 06f2 0C       		.byte	0xc
 2494 06f3 41       		.byte	0x41
 2495 06f4 23070000 		.long	0x723
 2496 06f8 02       		.byte	0x2
 2497 06f9 23       		.byte	0x23
 2498 06fa 04       		.uleb128 0x4
 2499 06fb 06       		.uleb128 0x6
 2500 06fc 74656172 		.ascii "teardown\0"
 2500      646F776E 
 2500      00
 2501 0705 0C       		.byte	0xc
 2502 0706 42       		.byte	0x42
 2503 0707 23070000 		.long	0x723
 2504 070b 02       		.byte	0x2
 2505 070c 23       		.byte	0x23
 2506 070d 08       		.uleb128 0x8
 2507 070e 06       		.uleb128 0x6
 2508 070f 65786563 		.ascii "execute\0"
 2508      75746500 
 2509 0717 0C       		.byte	0xc
 2510 0718 43       		.byte	0x43
 2511 0719 23070000 		.long	0x723
 2512 071d 02       		.byte	0x2
 2513 071e 23       		.byte	0x23
 2514 071f 0C       		.uleb128 0xc
 2515 0720 00       		.byte	0
 2516 0721 12       		.uleb128 0x12
 2517 0722 01       		.byte	0x1
 2518 0723 08       		.uleb128 0x8
GAS LISTING C:\cygwin\tmp\ccBlkykz.s 			page 60


 2519 0724 04       		.byte	0x4
 2520 0725 21070000 		.long	0x721
 2521 0729 13       		.uleb128 0x13
 2522 072a 73656D31 		.ascii "sem1_setup\0"
 2522      5F736574 
 2522      757000
 2523 0735 01       		.byte	0x1
 2524 0736 4C       		.byte	0x4c
 2525 0737 01       		.byte	0x1
 2526 0738 00000000 		.long	LFB0
 2527 073c 53000000 		.long	LFE0
 2528 0740 00000000 		.secrel32	LLST0
 2529 0744 14       		.uleb128 0x14
 2530 0745 74687265 		.ascii "thread1\0"
 2530      61643100 
 2531 074d 01       		.byte	0x1
 2532 074e 51       		.byte	0x51
 2533 074f 01       		.byte	0x1
 2534 0750 6A010000 		.long	0x16a
 2535 0754 53000000 		.long	LFB1
 2536 0758 D0000000 		.long	LFE1
 2537 075c 2C000000 		.secrel32	LLST1
 2538 0760 71070000 		.long	0x771
 2539 0764 15       		.uleb128 0x15
 2540 0765 7000     		.ascii "p\0"
 2541 0767 01       		.byte	0x1
 2542 0768 51       		.byte	0x51
 2543 0769 A6030000 		.long	0x3a6
 2544 076d 02       		.byte	0x2
 2545 076e 91       		.byte	0x91
 2546 076f 00       		.sleb128 0
 2547 0770 00       		.byte	0
 2548 0771 13       		.uleb128 0x13
 2549 0772 73656D31 		.ascii "sem1_execute\0"
 2549      5F657865 
 2549      63757465 
 2549      00
 2550 077f 01       		.byte	0x1
 2551 0780 58       		.byte	0x58
 2552 0781 01       		.byte	0x1
 2553 0782 D0000000 		.long	LFB2
 2554 0786 28050000 		.long	LFE2
 2555 078a 58000000 		.secrel32	LLST2
 2556 078e 13       		.uleb128 0x13
 2557 078f 73656D32 		.ascii "sem2_setup\0"
 2557      5F736574 
 2557      757000
 2558 079a 01       		.byte	0x1
 2559 079b 84       		.byte	0x84
 2560 079c 01       		.byte	0x1
 2561 079d 28050000 		.long	LFB3
 2562 07a1 7B050000 		.long	LFE3
 2563 07a5 84000000 		.secrel32	LLST3
 2564 07a9 14       		.uleb128 0x14
 2565 07aa 74687265 		.ascii "thread2\0"
 2565      61643200 
 2566 07b2 01       		.byte	0x1
GAS LISTING C:\cygwin\tmp\ccBlkykz.s 			page 61


 2567 07b3 89       		.byte	0x89
 2568 07b4 01       		.byte	0x1
 2569 07b5 6A010000 		.long	0x16a
 2570 07b9 7B050000 		.long	LFB4
 2571 07bd 4E060000 		.long	LFE4
 2572 07c1 B0000000 		.secrel32	LLST4
 2573 07c5 D6070000 		.long	0x7d6
 2574 07c9 15       		.uleb128 0x15
 2575 07ca 7000     		.ascii "p\0"
 2576 07cc 01       		.byte	0x1
 2577 07cd 89       		.byte	0x89
 2578 07ce A6030000 		.long	0x3a6
 2579 07d2 02       		.byte	0x2
 2580 07d3 91       		.byte	0x91
 2581 07d4 00       		.sleb128 0
 2582 07d5 00       		.byte	0
 2583 07d6 16       		.uleb128 0x16
 2584 07d7 73656D32 		.ascii "sem2_execute\0"
 2584      5F657865 
 2584      63757465 
 2584      00
 2585 07e4 01       		.byte	0x1
 2586 07e5 94       		.byte	0x94
 2587 07e6 01       		.byte	0x1
 2588 07e7 4E060000 		.long	LFB5
 2589 07eb 1B0C0000 		.long	LFE5
 2590 07ef DC000000 		.secrel32	LLST5
 2591 07f3 28080000 		.long	0x828
 2592 07f7 17       		.uleb128 0x17
 2593 07f8 6900     		.ascii "i\0"
 2594 07fa 01       		.byte	0x1
 2595 07fb 95       		.byte	0x95
 2596 07fc 60000000 		.long	0x60
 2597 0800 02       		.byte	0x2
 2598 0801 91       		.byte	0x91
 2599 0802 6C       		.sleb128 -20
 2600 0803 17       		.uleb128 0x17
 2601 0804 74617267 		.ascii "target_time\0"
 2601      65745F74 
 2601      696D6500 
 2602 0810 01       		.byte	0x1
 2603 0811 96       		.byte	0x96
 2604 0812 8A010000 		.long	0x18a
 2605 0816 02       		.byte	0x2
 2606 0817 91       		.byte	0x91
 2607 0818 64       		.sleb128 -28
 2608 0819 17       		.uleb128 0x17
 2609 081a 6D736700 		.ascii "msg\0"
 2610 081e 01       		.byte	0x1
 2611 081f 97       		.byte	0x97
 2612 0820 6A010000 		.long	0x16a
 2613 0824 02       		.byte	0x2
 2614 0825 91       		.byte	0x91
 2615 0826 68       		.sleb128 -24
 2616 0827 00       		.byte	0
 2617 0828 13       		.uleb128 0x13
 2618 0829 73656D33 		.ascii "sem3_setup\0"
GAS LISTING C:\cygwin\tmp\ccBlkykz.s 			page 62


 2618      5F736574 
 2618      757000
 2619 0834 01       		.byte	0x1
 2620 0835 D0       		.byte	0xd0
 2621 0836 01       		.byte	0x1
 2622 0837 1B0C0000 		.long	LFB6
 2623 083b 6E0C0000 		.long	LFE6
 2624 083f 09010000 		.secrel32	LLST6
 2625 0843 14       		.uleb128 0x14
 2626 0844 74687265 		.ascii "thread3\0"
 2626      61643300 
 2627 084c 01       		.byte	0x1
 2628 084d D5       		.byte	0xd5
 2629 084e 01       		.byte	0x1
 2630 084f 6A010000 		.long	0x16a
 2631 0853 6E0C0000 		.long	LFB7
 2632 0857 E60C0000 		.long	LFE7
 2633 085b 35010000 		.secrel32	LLST7
 2634 085f 70080000 		.long	0x870
 2635 0863 15       		.uleb128 0x15
 2636 0864 7000     		.ascii "p\0"
 2637 0866 01       		.byte	0x1
 2638 0867 D5       		.byte	0xd5
 2639 0868 A6030000 		.long	0x3a6
 2640 086c 02       		.byte	0x2
 2641 086d 91       		.byte	0x91
 2642 086e 00       		.sleb128 0
 2643 086f 00       		.byte	0
 2644 0870 13       		.uleb128 0x13
 2645 0871 73656D33 		.ascii "sem3_execute\0"
 2645      5F657865 
 2645      63757465 
 2645      00
 2646 087e 01       		.byte	0x1
 2647 087f DD       		.byte	0xdd
 2648 0880 01       		.byte	0x1
 2649 0881 E60C0000 		.long	LFB8
 2650 0885 390F0000 		.long	LFE8
 2651 0889 61010000 		.secrel32	LLST8
 2652 088d 14       		.uleb128 0x14
 2653 088e 74687265 		.ascii "thread4\0"
 2653      61643400 
 2654 0896 01       		.byte	0x1
 2655 0897 F9       		.byte	0xf9
 2656 0898 01       		.byte	0x1
 2657 0899 6A010000 		.long	0x16a
 2658 089d 390F0000 		.long	LFB9
 2659 08a1 0B100000 		.long	LFE9
 2660 08a5 8D010000 		.secrel32	LLST9
 2661 08a9 BA080000 		.long	0x8ba
 2662 08ad 15       		.uleb128 0x15
 2663 08ae 7000     		.ascii "p\0"
 2664 08b0 01       		.byte	0x1
 2665 08b1 F9       		.byte	0xf9
 2666 08b2 A6030000 		.long	0x3a6
 2667 08b6 02       		.byte	0x2
 2668 08b7 91       		.byte	0x91
GAS LISTING C:\cygwin\tmp\ccBlkykz.s 			page 63


 2669 08b8 00       		.sleb128 0
 2670 08b9 00       		.byte	0
 2671 08ba 16       		.uleb128 0x16
 2672 08bb 73656D34 		.ascii "sem4_execute\0"
 2672      5F657865 
 2672      63757465 
 2672      00
 2673 08c8 01       		.byte	0x1
 2674 08c9 FF       		.byte	0xff
 2675 08ca 01       		.byte	0x1
 2676 08cb 0B100000 		.long	LFB10
 2677 08cf 86140000 		.long	LFE10
 2678 08d3 B9010000 		.secrel32	LLST10
 2679 08d7 EC080000 		.long	0x8ec
 2680 08db 18       		.uleb128 0x18
 2681 08dc 6273656D 		.ascii "bsem\0"
 2681      00
 2682 08e1 01       		.byte	0x1
 2683 08e2 0001     		.word	0x100
 2684 08e4 01060000 		.long	0x601
 2685 08e8 02       		.byte	0x2
 2686 08e9 91       		.byte	0x91
 2687 08ea 64       		.sleb128 -28
 2688 08eb 00       		.byte	0
 2689 08ec 19       		.uleb128 0x19
 2690 08ed 5F474C4F 		.ascii "_GLOBAL__sub_I_65535_0_testsem1\0"
 2690      42414C5F 
 2690      5F737562 
 2690      5F495F36 
 2690      35353335 
 2691 090d 01       		.byte	0x1
 2692 090e 01       		.byte	0x1
 2693 090f 86140000 		.long	LFB11
 2694 0913 99140000 		.long	LFE11
 2695 0917 E6010000 		.secrel32	LLST11
 2696 091b 1A       		.uleb128 0x1a
 2697 091c 76746C69 		.ascii "vtlist\0"
 2697      737400
 2698 0923 07       		.byte	0x7
 2699 0924 D1       		.byte	0xd1
 2700 0925 1A050000 		.long	0x51a
 2701 0929 01       		.byte	0x1
 2702 092a 01       		.byte	0x1
 2703 092b 1A       		.uleb128 0x1a
 2704 092c 726C6973 		.ascii "rlist\0"
 2704      7400
 2705 0932 08       		.byte	0x8
 2706 0933 68       		.byte	0x68
 2707 0934 9C050000 		.long	0x59c
 2708 0938 01       		.byte	0x1
 2709 0939 01       		.byte	0x1
 2710 093a 1B       		.uleb128 0x1b
 2711 093b 54030000 		.long	0x354
 2712 093f 4A090000 		.long	0x94a
 2713 0943 1C       		.uleb128 0x1c
 2714 0944 67000000 		.long	0x67
 2715 0948 04       		.byte	0x4
GAS LISTING C:\cygwin\tmp\ccBlkykz.s 			page 64


 2716 0949 00       		.byte	0
 2717 094a 1A       		.uleb128 0x1a
 2718 094b 74687265 		.ascii "threads\0"
 2718      61647300 
 2719 0953 0C       		.byte	0xc
 2720 0954 A9       		.byte	0xa9
 2721 0955 3A090000 		.long	0x93a
 2722 0959 01       		.byte	0x1
 2723 095a 01       		.byte	0x1
 2724 095b 1B       		.uleb128 0x1b
 2725 095c A6030000 		.long	0x3a6
 2726 0960 66090000 		.long	0x966
 2727 0964 1D       		.uleb128 0x1d
 2728 0965 00       		.byte	0
 2729 0966 1A       		.uleb128 0x1a
 2730 0967 776100   		.ascii "wa\0"
 2731 096a 0C       		.byte	0xc
 2732 096b AB       		.byte	0xab
 2733 096c 72090000 		.long	0x972
 2734 0970 01       		.byte	0x1
 2735 0971 01       		.byte	0x1
 2736 0972 11       		.uleb128 0x11
 2737 0973 5B090000 		.long	0x95b
 2738 0977 17       		.uleb128 0x17
 2739 0978 73656D31 		.ascii "sem1\0"
 2739      00
 2740 097d 01       		.byte	0x1
 2741 097e 3F       		.byte	0x3f
 2742 097f DC050000 		.long	0x5dc
 2743 0983 05       		.byte	0x5
 2744 0984 03       		.byte	0x3
 2745 0985 00000000 		.long	_sem1
 2746 0989 1E       		.uleb128 0x1e
 2747 098a 1E000000 		.secrel32	LASF3
 2748 098e 01       		.byte	0x1
 2749 098f 72       		.byte	0x72
 2750 0990 96090000 		.long	0x996
 2751 0994 01       		.byte	0x1
 2752 0995 01       		.byte	0x1
 2753 0996 11       		.uleb128 0x11
 2754 0997 CB060000 		.long	0x6cb
 2755 099b 1E       		.uleb128 0x1e
 2756 099c 27000000 		.secrel32	LASF4
 2757 09a0 01       		.byte	0x1
 2758 09a1 BC       		.byte	0xbc
 2759 09a2 96090000 		.long	0x996
 2760 09a6 01       		.byte	0x1
 2761 09a7 01       		.byte	0x1
 2762 09a8 1E       		.uleb128 0x1e
 2763 09a9 30000000 		.secrel32	LASF5
 2764 09ad 01       		.byte	0x1
 2765 09ae E9       		.byte	0xe9
 2766 09af 96090000 		.long	0x996
 2767 09b3 01       		.byte	0x1
 2768 09b4 01       		.byte	0x1
 2769 09b5 1F       		.uleb128 0x1f
 2770 09b6 39000000 		.secrel32	LASF6
GAS LISTING C:\cygwin\tmp\ccBlkykz.s 			page 65


 2771 09ba 01       		.byte	0x1
 2772 09bb 1D01     		.word	0x11d
 2773 09bd 96090000 		.long	0x996
 2774 09c1 01       		.byte	0x1
 2775 09c2 01       		.byte	0x1
 2776 09c3 1A       		.uleb128 0x1a
 2777 09c4 76746C69 		.ascii "vtlist\0"
 2777      737400
 2778 09cb 07       		.byte	0x7
 2779 09cc D1       		.byte	0xd1
 2780 09cd 1A050000 		.long	0x51a
 2781 09d1 01       		.byte	0x1
 2782 09d2 01       		.byte	0x1
 2783 09d3 1A       		.uleb128 0x1a
 2784 09d4 726C6973 		.ascii "rlist\0"
 2784      7400
 2785 09da 08       		.byte	0x8
 2786 09db 68       		.byte	0x68
 2787 09dc 9C050000 		.long	0x59c
 2788 09e0 01       		.byte	0x1
 2789 09e1 01       		.byte	0x1
 2790 09e2 1A       		.uleb128 0x1a
 2791 09e3 74687265 		.ascii "threads\0"
 2791      61647300 
 2792 09eb 0C       		.byte	0xc
 2793 09ec A9       		.byte	0xa9
 2794 09ed 3A090000 		.long	0x93a
 2795 09f1 01       		.byte	0x1
 2796 09f2 01       		.byte	0x1
 2797 09f3 1A       		.uleb128 0x1a
 2798 09f4 776100   		.ascii "wa\0"
 2799 09f7 0C       		.byte	0xc
 2800 09f8 AB       		.byte	0xab
 2801 09f9 FF090000 		.long	0x9ff
 2802 09fd 01       		.byte	0x1
 2803 09fe 01       		.byte	0x1
 2804 09ff 11       		.uleb128 0x11
 2805 0a00 5B090000 		.long	0x95b
 2806 0a04 20       		.uleb128 0x20
 2807 0a05 1E000000 		.secrel32	LASF3
 2808 0a09 01       		.byte	0x1
 2809 0a0a 72       		.byte	0x72
 2810 0a0b 96090000 		.long	0x996
 2811 0a0f 01       		.byte	0x1
 2812 0a10 05       		.byte	0x5
 2813 0a11 03       		.byte	0x3
 2814 0a12 28000000 		.long	_testsem1
 2815 0a16 20       		.uleb128 0x20
 2816 0a17 27000000 		.secrel32	LASF4
 2817 0a1b 01       		.byte	0x1
 2818 0a1c BC       		.byte	0xbc
 2819 0a1d 96090000 		.long	0x996
 2820 0a21 01       		.byte	0x1
 2821 0a22 05       		.byte	0x5
 2822 0a23 03       		.byte	0x3
 2823 0a24 4C000000 		.long	_testsem2
 2824 0a28 20       		.uleb128 0x20
GAS LISTING C:\cygwin\tmp\ccBlkykz.s 			page 66


 2825 0a29 30000000 		.secrel32	LASF5
 2826 0a2d 01       		.byte	0x1
 2827 0a2e E9       		.byte	0xe9
 2828 0a2f 96090000 		.long	0x996
 2829 0a33 01       		.byte	0x1
 2830 0a34 05       		.byte	0x5
 2831 0a35 03       		.byte	0x3
 2832 0a36 7C000000 		.long	_testsem3
 2833 0a3a 21       		.uleb128 0x21
 2834 0a3b 39000000 		.secrel32	LASF6
 2835 0a3f 01       		.byte	0x1
 2836 0a40 1D01     		.word	0x11d
 2837 0a42 96090000 		.long	0x996
 2838 0a46 01       		.byte	0x1
 2839 0a47 05       		.byte	0x5
 2840 0a48 03       		.byte	0x3
 2841 0a49 B0000000 		.long	_testsem4
 2842 0a4d 1B       		.uleb128 0x1b
 2843 0a4e 5D0A0000 		.long	0xa5d
 2844 0a52 5D0A0000 		.long	0xa5d
 2845 0a56 1C       		.uleb128 0x1c
 2846 0a57 67000000 		.long	0x67
 2847 0a5b 04       		.byte	0x4
 2848 0a5c 00       		.byte	0
 2849 0a5d 08       		.uleb128 0x8
 2850 0a5e 04       		.byte	0x4
 2851 0a5f 96090000 		.long	0x996
 2852 0a63 22       		.uleb128 0x22
 2853 0a64 70617474 		.ascii "patternsem\0"
 2853      65726E73 
 2853      656D00
 2854 0a6f 01       		.byte	0x1
 2855 0a70 2801     		.word	0x128
 2856 0a72 7D0A0000 		.long	0xa7d
 2857 0a76 01       		.byte	0x1
 2858 0a77 05       		.byte	0x5
 2859 0a78 03       		.byte	0x3
 2860 0a79 C0000000 		.long	_patternsem
 2861 0a7d 11       		.uleb128 0x11
 2862 0a7e 4D0A0000 		.long	0xa4d
 2863 0a82 00       		.byte	0
 2864              		.section	.debug_abbrev,"dr"
 2865              	Ldebug_abbrev0:
 2866 0000 01       		.uleb128 0x1
 2867 0001 11       		.uleb128 0x11
 2868 0002 01       		.byte	0x1
 2869 0003 25       		.uleb128 0x25
 2870 0004 08       		.uleb128 0x8
 2871 0005 13       		.uleb128 0x13
 2872 0006 0B       		.uleb128 0xb
 2873 0007 03       		.uleb128 0x3
 2874 0008 08       		.uleb128 0x8
 2875 0009 1B       		.uleb128 0x1b
 2876 000a 08       		.uleb128 0x8
 2877 000b 11       		.uleb128 0x11
 2878 000c 01       		.uleb128 0x1
 2879 000d 12       		.uleb128 0x12
GAS LISTING C:\cygwin\tmp\ccBlkykz.s 			page 67


 2880 000e 01       		.uleb128 0x1
 2881 000f 10       		.uleb128 0x10
 2882 0010 06       		.uleb128 0x6
 2883 0011 00       		.byte	0
 2884 0012 00       		.byte	0
 2885 0013 02       		.uleb128 0x2
 2886 0014 24       		.uleb128 0x24
 2887 0015 00       		.byte	0
 2888 0016 0B       		.uleb128 0xb
 2889 0017 0B       		.uleb128 0xb
 2890 0018 3E       		.uleb128 0x3e
 2891 0019 0B       		.uleb128 0xb
 2892 001a 03       		.uleb128 0x3
 2893 001b 08       		.uleb128 0x8
 2894 001c 00       		.byte	0
 2895 001d 00       		.byte	0
 2896 001e 03       		.uleb128 0x3
 2897 001f 16       		.uleb128 0x16
 2898 0020 00       		.byte	0
 2899 0021 03       		.uleb128 0x3
 2900 0022 08       		.uleb128 0x8
 2901 0023 3A       		.uleb128 0x3a
 2902 0024 0B       		.uleb128 0xb
 2903 0025 3B       		.uleb128 0x3b
 2904 0026 0B       		.uleb128 0xb
 2905 0027 49       		.uleb128 0x49
 2906 0028 13       		.uleb128 0x13
 2907 0029 00       		.byte	0
 2908 002a 00       		.byte	0
 2909 002b 04       		.uleb128 0x4
 2910 002c 13       		.uleb128 0x13
 2911 002d 01       		.byte	0x1
 2912 002e 03       		.uleb128 0x3
 2913 002f 08       		.uleb128 0x8
 2914 0030 0B       		.uleb128 0xb
 2915 0031 0B       		.uleb128 0xb
 2916 0032 3A       		.uleb128 0x3a
 2917 0033 0B       		.uleb128 0xb
 2918 0034 3B       		.uleb128 0x3b
 2919 0035 0B       		.uleb128 0xb
 2920 0036 01       		.uleb128 0x1
 2921 0037 13       		.uleb128 0x13
 2922 0038 00       		.byte	0
 2923 0039 00       		.byte	0
 2924 003a 05       		.uleb128 0x5
 2925 003b 0D       		.uleb128 0xd
 2926 003c 00       		.byte	0
 2927 003d 03       		.uleb128 0x3
 2928 003e 0E       		.uleb128 0xe
 2929 003f 3A       		.uleb128 0x3a
 2930 0040 0B       		.uleb128 0xb
 2931 0041 3B       		.uleb128 0x3b
 2932 0042 0B       		.uleb128 0xb
 2933 0043 49       		.uleb128 0x49
 2934 0044 13       		.uleb128 0x13
 2935 0045 38       		.uleb128 0x38
 2936 0046 0A       		.uleb128 0xa
GAS LISTING C:\cygwin\tmp\ccBlkykz.s 			page 68


 2937 0047 00       		.byte	0
 2938 0048 00       		.byte	0
 2939 0049 06       		.uleb128 0x6
 2940 004a 0D       		.uleb128 0xd
 2941 004b 00       		.byte	0
 2942 004c 03       		.uleb128 0x3
 2943 004d 08       		.uleb128 0x8
 2944 004e 3A       		.uleb128 0x3a
 2945 004f 0B       		.uleb128 0xb
 2946 0050 3B       		.uleb128 0x3b
 2947 0051 0B       		.uleb128 0xb
 2948 0052 49       		.uleb128 0x49
 2949 0053 13       		.uleb128 0x13
 2950 0054 38       		.uleb128 0x38
 2951 0055 0A       		.uleb128 0xa
 2952 0056 00       		.byte	0
 2953 0057 00       		.byte	0
 2954 0058 07       		.uleb128 0x7
 2955 0059 13       		.uleb128 0x13
 2956 005a 01       		.byte	0x1
 2957 005b 0B       		.uleb128 0xb
 2958 005c 0B       		.uleb128 0xb
 2959 005d 3A       		.uleb128 0x3a
 2960 005e 0B       		.uleb128 0xb
 2961 005f 3B       		.uleb128 0x3b
 2962 0060 0B       		.uleb128 0xb
 2963 0061 01       		.uleb128 0x1
 2964 0062 13       		.uleb128 0x13
 2965 0063 00       		.byte	0
 2966 0064 00       		.byte	0
 2967 0065 08       		.uleb128 0x8
 2968 0066 0F       		.uleb128 0xf
 2969 0067 00       		.byte	0
 2970 0068 0B       		.uleb128 0xb
 2971 0069 0B       		.uleb128 0xb
 2972 006a 49       		.uleb128 0x49
 2973 006b 13       		.uleb128 0x13
 2974 006c 00       		.byte	0
 2975 006d 00       		.byte	0
 2976 006e 09       		.uleb128 0x9
 2977 006f 0F       		.uleb128 0xf
 2978 0070 00       		.byte	0
 2979 0071 0B       		.uleb128 0xb
 2980 0072 0B       		.uleb128 0xb
 2981 0073 00       		.byte	0
 2982 0074 00       		.byte	0
 2983 0075 0A       		.uleb128 0xa
 2984 0076 35       		.uleb128 0x35
 2985 0077 00       		.byte	0
 2986 0078 49       		.uleb128 0x49
 2987 0079 13       		.uleb128 0x13
 2988 007a 00       		.byte	0
 2989 007b 00       		.byte	0
 2990 007c 0B       		.uleb128 0xb
 2991 007d 15       		.uleb128 0x15
 2992 007e 01       		.byte	0x1
 2993 007f 27       		.uleb128 0x27
GAS LISTING C:\cygwin\tmp\ccBlkykz.s 			page 69


 2994 0080 0C       		.uleb128 0xc
 2995 0081 01       		.uleb128 0x1
 2996 0082 13       		.uleb128 0x13
 2997 0083 00       		.byte	0
 2998 0084 00       		.byte	0
 2999 0085 0C       		.uleb128 0xc
 3000 0086 05       		.uleb128 0x5
 3001 0087 00       		.byte	0
 3002 0088 49       		.uleb128 0x49
 3003 0089 13       		.uleb128 0x13
 3004 008a 00       		.byte	0
 3005 008b 00       		.byte	0
 3006 008c 0D       		.uleb128 0xd
 3007 008d 16       		.uleb128 0x16
 3008 008e 00       		.byte	0
 3009 008f 03       		.uleb128 0x3
 3010 0090 0E       		.uleb128 0xe
 3011 0091 3A       		.uleb128 0x3a
 3012 0092 0B       		.uleb128 0xb
 3013 0093 3B       		.uleb128 0x3b
 3014 0094 0B       		.uleb128 0xb
 3015 0095 49       		.uleb128 0x49
 3016 0096 13       		.uleb128 0x13
 3017 0097 00       		.byte	0
 3018 0098 00       		.byte	0
 3019 0099 0E       		.uleb128 0xe
 3020 009a 13       		.uleb128 0x13
 3021 009b 01       		.byte	0x1
 3022 009c 03       		.uleb128 0x3
 3023 009d 0E       		.uleb128 0xe
 3024 009e 0B       		.uleb128 0xb
 3025 009f 0B       		.uleb128 0xb
 3026 00a0 3A       		.uleb128 0x3a
 3027 00a1 0B       		.uleb128 0xb
 3028 00a2 3B       		.uleb128 0x3b
 3029 00a3 0B       		.uleb128 0xb
 3030 00a4 01       		.uleb128 0x1
 3031 00a5 13       		.uleb128 0x13
 3032 00a6 00       		.byte	0
 3033 00a7 00       		.byte	0
 3034 00a8 0F       		.uleb128 0xf
 3035 00a9 17       		.uleb128 0x17
 3036 00aa 01       		.byte	0x1
 3037 00ab 0B       		.uleb128 0xb
 3038 00ac 0B       		.uleb128 0xb
 3039 00ad 3A       		.uleb128 0x3a
 3040 00ae 0B       		.uleb128 0xb
 3041 00af 3B       		.uleb128 0x3b
 3042 00b0 0B       		.uleb128 0xb
 3043 00b1 01       		.uleb128 0x1
 3044 00b2 13       		.uleb128 0x13
 3045 00b3 00       		.byte	0
 3046 00b4 00       		.byte	0
 3047 00b5 10       		.uleb128 0x10
 3048 00b6 0D       		.uleb128 0xd
 3049 00b7 00       		.byte	0
 3050 00b8 03       		.uleb128 0x3
GAS LISTING C:\cygwin\tmp\ccBlkykz.s 			page 70


 3051 00b9 08       		.uleb128 0x8
 3052 00ba 3A       		.uleb128 0x3a
 3053 00bb 0B       		.uleb128 0xb
 3054 00bc 3B       		.uleb128 0x3b
 3055 00bd 0B       		.uleb128 0xb
 3056 00be 49       		.uleb128 0x49
 3057 00bf 13       		.uleb128 0x13
 3058 00c0 00       		.byte	0
 3059 00c1 00       		.byte	0
 3060 00c2 11       		.uleb128 0x11
 3061 00c3 26       		.uleb128 0x26
 3062 00c4 00       		.byte	0
 3063 00c5 49       		.uleb128 0x49
 3064 00c6 13       		.uleb128 0x13
 3065 00c7 00       		.byte	0
 3066 00c8 00       		.byte	0
 3067 00c9 12       		.uleb128 0x12
 3068 00ca 15       		.uleb128 0x15
 3069 00cb 00       		.byte	0
 3070 00cc 27       		.uleb128 0x27
 3071 00cd 0C       		.uleb128 0xc
 3072 00ce 00       		.byte	0
 3073 00cf 00       		.byte	0
 3074 00d0 13       		.uleb128 0x13
 3075 00d1 2E       		.uleb128 0x2e
 3076 00d2 00       		.byte	0
 3077 00d3 03       		.uleb128 0x3
 3078 00d4 08       		.uleb128 0x8
 3079 00d5 3A       		.uleb128 0x3a
 3080 00d6 0B       		.uleb128 0xb
 3081 00d7 3B       		.uleb128 0x3b
 3082 00d8 0B       		.uleb128 0xb
 3083 00d9 27       		.uleb128 0x27
 3084 00da 0C       		.uleb128 0xc
 3085 00db 11       		.uleb128 0x11
 3086 00dc 01       		.uleb128 0x1
 3087 00dd 12       		.uleb128 0x12
 3088 00de 01       		.uleb128 0x1
 3089 00df 40       		.uleb128 0x40
 3090 00e0 06       		.uleb128 0x6
 3091 00e1 00       		.byte	0
 3092 00e2 00       		.byte	0
 3093 00e3 14       		.uleb128 0x14
 3094 00e4 2E       		.uleb128 0x2e
 3095 00e5 01       		.byte	0x1
 3096 00e6 03       		.uleb128 0x3
 3097 00e7 08       		.uleb128 0x8
 3098 00e8 3A       		.uleb128 0x3a
 3099 00e9 0B       		.uleb128 0xb
 3100 00ea 3B       		.uleb128 0x3b
 3101 00eb 0B       		.uleb128 0xb
 3102 00ec 27       		.uleb128 0x27
 3103 00ed 0C       		.uleb128 0xc
 3104 00ee 49       		.uleb128 0x49
 3105 00ef 13       		.uleb128 0x13
 3106 00f0 11       		.uleb128 0x11
 3107 00f1 01       		.uleb128 0x1
GAS LISTING C:\cygwin\tmp\ccBlkykz.s 			page 71


 3108 00f2 12       		.uleb128 0x12
 3109 00f3 01       		.uleb128 0x1
 3110 00f4 40       		.uleb128 0x40
 3111 00f5 06       		.uleb128 0x6
 3112 00f6 01       		.uleb128 0x1
 3113 00f7 13       		.uleb128 0x13
 3114 00f8 00       		.byte	0
 3115 00f9 00       		.byte	0
 3116 00fa 15       		.uleb128 0x15
 3117 00fb 05       		.uleb128 0x5
 3118 00fc 00       		.byte	0
 3119 00fd 03       		.uleb128 0x3
 3120 00fe 08       		.uleb128 0x8
 3121 00ff 3A       		.uleb128 0x3a
 3122 0100 0B       		.uleb128 0xb
 3123 0101 3B       		.uleb128 0x3b
 3124 0102 0B       		.uleb128 0xb
 3125 0103 49       		.uleb128 0x49
 3126 0104 13       		.uleb128 0x13
 3127 0105 02       		.uleb128 0x2
 3128 0106 0A       		.uleb128 0xa
 3129 0107 00       		.byte	0
 3130 0108 00       		.byte	0
 3131 0109 16       		.uleb128 0x16
 3132 010a 2E       		.uleb128 0x2e
 3133 010b 01       		.byte	0x1
 3134 010c 03       		.uleb128 0x3
 3135 010d 08       		.uleb128 0x8
 3136 010e 3A       		.uleb128 0x3a
 3137 010f 0B       		.uleb128 0xb
 3138 0110 3B       		.uleb128 0x3b
 3139 0111 0B       		.uleb128 0xb
 3140 0112 27       		.uleb128 0x27
 3141 0113 0C       		.uleb128 0xc
 3142 0114 11       		.uleb128 0x11
 3143 0115 01       		.uleb128 0x1
 3144 0116 12       		.uleb128 0x12
 3145 0117 01       		.uleb128 0x1
 3146 0118 40       		.uleb128 0x40
 3147 0119 06       		.uleb128 0x6
 3148 011a 01       		.uleb128 0x1
 3149 011b 13       		.uleb128 0x13
 3150 011c 00       		.byte	0
 3151 011d 00       		.byte	0
 3152 011e 17       		.uleb128 0x17
 3153 011f 34       		.uleb128 0x34
 3154 0120 00       		.byte	0
 3155 0121 03       		.uleb128 0x3
 3156 0122 08       		.uleb128 0x8
 3157 0123 3A       		.uleb128 0x3a
 3158 0124 0B       		.uleb128 0xb
 3159 0125 3B       		.uleb128 0x3b
 3160 0126 0B       		.uleb128 0xb
 3161 0127 49       		.uleb128 0x49
 3162 0128 13       		.uleb128 0x13
 3163 0129 02       		.uleb128 0x2
 3164 012a 0A       		.uleb128 0xa
GAS LISTING C:\cygwin\tmp\ccBlkykz.s 			page 72


 3165 012b 00       		.byte	0
 3166 012c 00       		.byte	0
 3167 012d 18       		.uleb128 0x18
 3168 012e 34       		.uleb128 0x34
 3169 012f 00       		.byte	0
 3170 0130 03       		.uleb128 0x3
 3171 0131 08       		.uleb128 0x8
 3172 0132 3A       		.uleb128 0x3a
 3173 0133 0B       		.uleb128 0xb
 3174 0134 3B       		.uleb128 0x3b
 3175 0135 05       		.uleb128 0x5
 3176 0136 49       		.uleb128 0x49
 3177 0137 13       		.uleb128 0x13
 3178 0138 02       		.uleb128 0x2
 3179 0139 0A       		.uleb128 0xa
 3180 013a 00       		.byte	0
 3181 013b 00       		.byte	0
 3182 013c 19       		.uleb128 0x19
 3183 013d 2E       		.uleb128 0x2e
 3184 013e 00       		.byte	0
 3185 013f 03       		.uleb128 0x3
 3186 0140 08       		.uleb128 0x8
 3187 0141 27       		.uleb128 0x27
 3188 0142 0C       		.uleb128 0xc
 3189 0143 34       		.uleb128 0x34
 3190 0144 0C       		.uleb128 0xc
 3191 0145 11       		.uleb128 0x11
 3192 0146 01       		.uleb128 0x1
 3193 0147 12       		.uleb128 0x12
 3194 0148 01       		.uleb128 0x1
 3195 0149 40       		.uleb128 0x40
 3196 014a 06       		.uleb128 0x6
 3197 014b 00       		.byte	0
 3198 014c 00       		.byte	0
 3199 014d 1A       		.uleb128 0x1a
 3200 014e 34       		.uleb128 0x34
 3201 014f 00       		.byte	0
 3202 0150 03       		.uleb128 0x3
 3203 0151 08       		.uleb128 0x8
 3204 0152 3A       		.uleb128 0x3a
 3205 0153 0B       		.uleb128 0xb
 3206 0154 3B       		.uleb128 0x3b
 3207 0155 0B       		.uleb128 0xb
 3208 0156 49       		.uleb128 0x49
 3209 0157 13       		.uleb128 0x13
 3210 0158 3F       		.uleb128 0x3f
 3211 0159 0C       		.uleb128 0xc
 3212 015a 3C       		.uleb128 0x3c
 3213 015b 0C       		.uleb128 0xc
 3214 015c 00       		.byte	0
 3215 015d 00       		.byte	0
 3216 015e 1B       		.uleb128 0x1b
 3217 015f 01       		.uleb128 0x1
 3218 0160 01       		.byte	0x1
 3219 0161 49       		.uleb128 0x49
 3220 0162 13       		.uleb128 0x13
 3221 0163 01       		.uleb128 0x1
GAS LISTING C:\cygwin\tmp\ccBlkykz.s 			page 73


 3222 0164 13       		.uleb128 0x13
 3223 0165 00       		.byte	0
 3224 0166 00       		.byte	0
 3225 0167 1C       		.uleb128 0x1c
 3226 0168 21       		.uleb128 0x21
 3227 0169 00       		.byte	0
 3228 016a 49       		.uleb128 0x49
 3229 016b 13       		.uleb128 0x13
 3230 016c 2F       		.uleb128 0x2f
 3231 016d 0B       		.uleb128 0xb
 3232 016e 00       		.byte	0
 3233 016f 00       		.byte	0
 3234 0170 1D       		.uleb128 0x1d
 3235 0171 21       		.uleb128 0x21
 3236 0172 00       		.byte	0
 3237 0173 00       		.byte	0
 3238 0174 00       		.byte	0
 3239 0175 1E       		.uleb128 0x1e
 3240 0176 34       		.uleb128 0x34
 3241 0177 00       		.byte	0
 3242 0178 03       		.uleb128 0x3
 3243 0179 0E       		.uleb128 0xe
 3244 017a 3A       		.uleb128 0x3a
 3245 017b 0B       		.uleb128 0xb
 3246 017c 3B       		.uleb128 0x3b
 3247 017d 0B       		.uleb128 0xb
 3248 017e 49       		.uleb128 0x49
 3249 017f 13       		.uleb128 0x13
 3250 0180 3F       		.uleb128 0x3f
 3251 0181 0C       		.uleb128 0xc
 3252 0182 3C       		.uleb128 0x3c
 3253 0183 0C       		.uleb128 0xc
 3254 0184 00       		.byte	0
 3255 0185 00       		.byte	0
 3256 0186 1F       		.uleb128 0x1f
 3257 0187 34       		.uleb128 0x34
 3258 0188 00       		.byte	0
 3259 0189 03       		.uleb128 0x3
 3260 018a 0E       		.uleb128 0xe
 3261 018b 3A       		.uleb128 0x3a
 3262 018c 0B       		.uleb128 0xb
 3263 018d 3B       		.uleb128 0x3b
 3264 018e 05       		.uleb128 0x5
 3265 018f 49       		.uleb128 0x49
 3266 0190 13       		.uleb128 0x13
 3267 0191 3F       		.uleb128 0x3f
 3268 0192 0C       		.uleb128 0xc
 3269 0193 3C       		.uleb128 0x3c
 3270 0194 0C       		.uleb128 0xc
 3271 0195 00       		.byte	0
 3272 0196 00       		.byte	0
 3273 0197 20       		.uleb128 0x20
 3274 0198 34       		.uleb128 0x34
 3275 0199 00       		.byte	0
 3276 019a 03       		.uleb128 0x3
 3277 019b 0E       		.uleb128 0xe
 3278 019c 3A       		.uleb128 0x3a
GAS LISTING C:\cygwin\tmp\ccBlkykz.s 			page 74


 3279 019d 0B       		.uleb128 0xb
 3280 019e 3B       		.uleb128 0x3b
 3281 019f 0B       		.uleb128 0xb
 3282 01a0 49       		.uleb128 0x49
 3283 01a1 13       		.uleb128 0x13
 3284 01a2 3F       		.uleb128 0x3f
 3285 01a3 0C       		.uleb128 0xc
 3286 01a4 02       		.uleb128 0x2
 3287 01a5 0A       		.uleb128 0xa
 3288 01a6 00       		.byte	0
 3289 01a7 00       		.byte	0
 3290 01a8 21       		.uleb128 0x21
 3291 01a9 34       		.uleb128 0x34
 3292 01aa 00       		.byte	0
 3293 01ab 03       		.uleb128 0x3
 3294 01ac 0E       		.uleb128 0xe
 3295 01ad 3A       		.uleb128 0x3a
 3296 01ae 0B       		.uleb128 0xb
 3297 01af 3B       		.uleb128 0x3b
 3298 01b0 05       		.uleb128 0x5
 3299 01b1 49       		.uleb128 0x49
 3300 01b2 13       		.uleb128 0x13
 3301 01b3 3F       		.uleb128 0x3f
 3302 01b4 0C       		.uleb128 0xc
 3303 01b5 02       		.uleb128 0x2
 3304 01b6 0A       		.uleb128 0xa
 3305 01b7 00       		.byte	0
 3306 01b8 00       		.byte	0
 3307 01b9 22       		.uleb128 0x22
 3308 01ba 34       		.uleb128 0x34
 3309 01bb 00       		.byte	0
 3310 01bc 03       		.uleb128 0x3
 3311 01bd 08       		.uleb128 0x8
 3312 01be 3A       		.uleb128 0x3a
 3313 01bf 0B       		.uleb128 0xb
 3314 01c0 3B       		.uleb128 0x3b
 3315 01c1 05       		.uleb128 0x5
 3316 01c2 49       		.uleb128 0x49
 3317 01c3 13       		.uleb128 0x13
 3318 01c4 3F       		.uleb128 0x3f
 3319 01c5 0C       		.uleb128 0xc
 3320 01c6 02       		.uleb128 0x2
 3321 01c7 0A       		.uleb128 0xa
 3322 01c8 00       		.byte	0
 3323 01c9 00       		.byte	0
 3324 01ca 00       		.byte	0
 3325              		.section	.debug_loc,"dr"
 3326              	Ldebug_loc0:
 3327              	LLST0:
 3328 0000 00000000 		.long	LFB0-Ltext0
 3329 0004 03000000 		.long	LCFI0-Ltext0
 3330 0008 0200     		.word	0x2
 3331 000a 74       		.byte	0x74
 3332 000b 04       		.sleb128 4
 3333 000c 03000000 		.long	LCFI0-Ltext0
 3334 0010 52000000 		.long	LCFI1-Ltext0
 3335 0014 0200     		.word	0x2
GAS LISTING C:\cygwin\tmp\ccBlkykz.s 			page 75


 3336 0016 74       		.byte	0x74
 3337 0017 20       		.sleb128 32
 3338 0018 52000000 		.long	LCFI1-Ltext0
 3339 001c 53000000 		.long	LFE0-Ltext0
 3340 0020 0200     		.word	0x2
 3341 0022 74       		.byte	0x74
 3342 0023 04       		.sleb128 4
 3343 0024 00000000 		.long	0
 3344 0028 00000000 		.long	0
 3345              	LLST1:
 3346 002c 53000000 		.long	LFB1-Ltext0
 3347 0030 56000000 		.long	LCFI2-Ltext0
 3348 0034 0200     		.word	0x2
 3349 0036 74       		.byte	0x74
 3350 0037 04       		.sleb128 4
 3351 0038 56000000 		.long	LCFI2-Ltext0
 3352 003c CF000000 		.long	LCFI3-Ltext0
 3353 0040 0200     		.word	0x2
 3354 0042 74       		.byte	0x74
 3355 0043 20       		.sleb128 32
 3356 0044 CF000000 		.long	LCFI3-Ltext0
 3357 0048 D0000000 		.long	LFE1-Ltext0
 3358 004c 0200     		.word	0x2
 3359 004e 74       		.byte	0x74
 3360 004f 04       		.sleb128 4
 3361 0050 00000000 		.long	0
 3362 0054 00000000 		.long	0
 3363              	LLST2:
 3364 0058 D0000000 		.long	LFB2-Ltext0
 3365 005c D3000000 		.long	LCFI4-Ltext0
 3366 0060 0200     		.word	0x2
 3367 0062 74       		.byte	0x74
 3368 0063 04       		.sleb128 4
 3369 0064 D3000000 		.long	LCFI4-Ltext0
 3370 0068 27050000 		.long	LCFI5-Ltext0
 3371 006c 0200     		.word	0x2
 3372 006e 74       		.byte	0x74
 3373 006f 30       		.sleb128 48
 3374 0070 27050000 		.long	LCFI5-Ltext0
 3375 0074 28050000 		.long	LFE2-Ltext0
 3376 0078 0200     		.word	0x2
 3377 007a 74       		.byte	0x74
 3378 007b 04       		.sleb128 4
 3379 007c 00000000 		.long	0
 3380 0080 00000000 		.long	0
 3381              	LLST3:
 3382 0084 28050000 		.long	LFB3-Ltext0
 3383 0088 2B050000 		.long	LCFI6-Ltext0
 3384 008c 0200     		.word	0x2
 3385 008e 74       		.byte	0x74
 3386 008f 04       		.sleb128 4
 3387 0090 2B050000 		.long	LCFI6-Ltext0
 3388 0094 7A050000 		.long	LCFI7-Ltext0
 3389 0098 0200     		.word	0x2
 3390 009a 74       		.byte	0x74
 3391 009b 20       		.sleb128 32
 3392 009c 7A050000 		.long	LCFI7-Ltext0
GAS LISTING C:\cygwin\tmp\ccBlkykz.s 			page 76


 3393 00a0 7B050000 		.long	LFE3-Ltext0
 3394 00a4 0200     		.word	0x2
 3395 00a6 74       		.byte	0x74
 3396 00a7 04       		.sleb128 4
 3397 00a8 00000000 		.long	0
 3398 00ac 00000000 		.long	0
 3399              	LLST4:
 3400 00b0 7B050000 		.long	LFB4-Ltext0
 3401 00b4 7E050000 		.long	LCFI8-Ltext0
 3402 00b8 0200     		.word	0x2
 3403 00ba 74       		.byte	0x74
 3404 00bb 04       		.sleb128 4
 3405 00bc 7E050000 		.long	LCFI8-Ltext0
 3406 00c0 4D060000 		.long	LCFI9-Ltext0
 3407 00c4 0200     		.word	0x2
 3408 00c6 74       		.byte	0x74
 3409 00c7 20       		.sleb128 32
 3410 00c8 4D060000 		.long	LCFI9-Ltext0
 3411 00cc 4E060000 		.long	LFE4-Ltext0
 3412 00d0 0200     		.word	0x2
 3413 00d2 74       		.byte	0x74
 3414 00d3 04       		.sleb128 4
 3415 00d4 00000000 		.long	0
 3416 00d8 00000000 		.long	0
 3417              	LLST5:
 3418 00dc 4E060000 		.long	LFB5-Ltext0
 3419 00e0 51060000 		.long	LCFI10-Ltext0
 3420 00e4 0200     		.word	0x2
 3421 00e6 74       		.byte	0x74
 3422 00e7 04       		.sleb128 4
 3423 00e8 51060000 		.long	LCFI10-Ltext0
 3424 00ec 1A0C0000 		.long	LCFI11-Ltext0
 3425 00f0 0300     		.word	0x3
 3426 00f2 74       		.byte	0x74
 3427 00f3 C000     		.sleb128 64
 3428 00f5 1A0C0000 		.long	LCFI11-Ltext0
 3429 00f9 1B0C0000 		.long	LFE5-Ltext0
 3430 00fd 0200     		.word	0x2
 3431 00ff 74       		.byte	0x74
 3432 0100 04       		.sleb128 4
 3433 0101 00000000 		.long	0
 3434 0105 00000000 		.long	0
 3435              	LLST6:
 3436 0109 1B0C0000 		.long	LFB6-Ltext0
 3437 010d 1E0C0000 		.long	LCFI12-Ltext0
 3438 0111 0200     		.word	0x2
 3439 0113 74       		.byte	0x74
 3440 0114 04       		.sleb128 4
 3441 0115 1E0C0000 		.long	LCFI12-Ltext0
 3442 0119 6D0C0000 		.long	LCFI13-Ltext0
 3443 011d 0200     		.word	0x2
 3444 011f 74       		.byte	0x74
 3445 0120 20       		.sleb128 32
 3446 0121 6D0C0000 		.long	LCFI13-Ltext0
 3447 0125 6E0C0000 		.long	LFE6-Ltext0
 3448 0129 0200     		.word	0x2
 3449 012b 74       		.byte	0x74
GAS LISTING C:\cygwin\tmp\ccBlkykz.s 			page 77


 3450 012c 04       		.sleb128 4
 3451 012d 00000000 		.long	0
 3452 0131 00000000 		.long	0
 3453              	LLST7:
 3454 0135 6E0C0000 		.long	LFB7-Ltext0
 3455 0139 710C0000 		.long	LCFI14-Ltext0
 3456 013d 0200     		.word	0x2
 3457 013f 74       		.byte	0x74
 3458 0140 04       		.sleb128 4
 3459 0141 710C0000 		.long	LCFI14-Ltext0
 3460 0145 E50C0000 		.long	LCFI15-Ltext0
 3461 0149 0200     		.word	0x2
 3462 014b 74       		.byte	0x74
 3463 014c 20       		.sleb128 32
 3464 014d E50C0000 		.long	LCFI15-Ltext0
 3465 0151 E60C0000 		.long	LFE7-Ltext0
 3466 0155 0200     		.word	0x2
 3467 0157 74       		.byte	0x74
 3468 0158 04       		.sleb128 4
 3469 0159 00000000 		.long	0
 3470 015d 00000000 		.long	0
 3471              	LLST8:
 3472 0161 E60C0000 		.long	LFB8-Ltext0
 3473 0165 E90C0000 		.long	LCFI16-Ltext0
 3474 0169 0200     		.word	0x2
 3475 016b 74       		.byte	0x74
 3476 016c 04       		.sleb128 4
 3477 016d E90C0000 		.long	LCFI16-Ltext0
 3478 0171 380F0000 		.long	LCFI17-Ltext0
 3479 0175 0200     		.word	0x2
 3480 0177 74       		.byte	0x74
 3481 0178 30       		.sleb128 48
 3482 0179 380F0000 		.long	LCFI17-Ltext0
 3483 017d 390F0000 		.long	LFE8-Ltext0
 3484 0181 0200     		.word	0x2
 3485 0183 74       		.byte	0x74
 3486 0184 04       		.sleb128 4
 3487 0185 00000000 		.long	0
 3488 0189 00000000 		.long	0
 3489              	LLST9:
 3490 018d 390F0000 		.long	LFB9-Ltext0
 3491 0191 3C0F0000 		.long	LCFI18-Ltext0
 3492 0195 0200     		.word	0x2
 3493 0197 74       		.byte	0x74
 3494 0198 04       		.sleb128 4
 3495 0199 3C0F0000 		.long	LCFI18-Ltext0
 3496 019d 0A100000 		.long	LCFI19-Ltext0
 3497 01a1 0200     		.word	0x2
 3498 01a3 74       		.byte	0x74
 3499 01a4 20       		.sleb128 32
 3500 01a5 0A100000 		.long	LCFI19-Ltext0
 3501 01a9 0B100000 		.long	LFE9-Ltext0
 3502 01ad 0200     		.word	0x2
 3503 01af 74       		.byte	0x74
 3504 01b0 04       		.sleb128 4
 3505 01b1 00000000 		.long	0
 3506 01b5 00000000 		.long	0
GAS LISTING C:\cygwin\tmp\ccBlkykz.s 			page 78


 3507              	LLST10:
 3508 01b9 0B100000 		.long	LFB10-Ltext0
 3509 01bd 0E100000 		.long	LCFI20-Ltext0
 3510 01c1 0200     		.word	0x2
 3511 01c3 74       		.byte	0x74
 3512 01c4 04       		.sleb128 4
 3513 01c5 0E100000 		.long	LCFI20-Ltext0
 3514 01c9 85140000 		.long	LCFI21-Ltext0
 3515 01cd 0300     		.word	0x3
 3516 01cf 74       		.byte	0x74
 3517 01d0 C000     		.sleb128 64
 3518 01d2 85140000 		.long	LCFI21-Ltext0
 3519 01d6 86140000 		.long	LFE10-Ltext0
 3520 01da 0200     		.word	0x2
 3521 01dc 74       		.byte	0x74
 3522 01dd 04       		.sleb128 4
 3523 01de 00000000 		.long	0
 3524 01e2 00000000 		.long	0
 3525              	LLST11:
 3526 01e6 86140000 		.long	LFB11-Ltext0
 3527 01ea 89140000 		.long	LCFI22-Ltext0
 3528 01ee 0200     		.word	0x2
 3529 01f0 74       		.byte	0x74
 3530 01f1 04       		.sleb128 4
 3531 01f2 89140000 		.long	LCFI22-Ltext0
 3532 01f6 98140000 		.long	LCFI23-Ltext0
 3533 01fa 0200     		.word	0x2
 3534 01fc 74       		.byte	0x74
 3535 01fd 20       		.sleb128 32
 3536 01fe 98140000 		.long	LCFI23-Ltext0
 3537 0202 99140000 		.long	LFE11-Ltext0
 3538 0206 0200     		.word	0x2
 3539 0208 74       		.byte	0x74
 3540 0209 04       		.sleb128 4
 3541 020a 00000000 		.long	0
 3542 020e 00000000 		.long	0
 3543              		.section	.debug_aranges,"dr"
 3544 0000 1C000000 		.long	0x1c
 3545 0004 0200     		.word	0x2
 3546 0006 00000000 		.secrel32	Ldebug_info0
 3547 000a 04       		.byte	0x4
 3548 000b 00       		.byte	0
 3549 000c 0000     		.word	0
 3550 000e 0000     		.word	0
 3551 0010 00000000 		.long	Ltext0
 3552 0014 99140000 		.long	Letext0-Ltext0
 3553 0018 00000000 		.long	0
 3554 001c 00000000 		.long	0
 3555              		.section	.debug_line,"dr"
 3556              	Ldebug_line0:
 3557 0000 4A030000 		.section	.debug_str,"dr"
 3557      02001B01 
 3557      00000101 
 3557      FB0E0D00 
 3557      01010101 
 3558              	LASF0:
 3559 0000 705F6E65 		.ascii "p_next\0"
GAS LISTING C:\cygwin\tmp\ccBlkykz.s 			page 79


 3559      787400
 3560              	LASF2:
 3561 0007 53656D61 		.ascii "Semaphore\0"
 3561      70686F72 
 3561      6500
 3562              	LASF1:
 3563 0011 56697274 		.ascii "VirtualTimer\0"
 3563      75616C54 
 3563      696D6572 
 3563      00
 3564              	LASF3:
 3565 001e 74657374 		.ascii "testsem1\0"
 3565      73656D31 
 3565      00
 3566              	LASF4:
 3567 0027 74657374 		.ascii "testsem2\0"
 3567      73656D32 
 3567      00
 3568              	LASF5:
 3569 0030 74657374 		.ascii "testsem3\0"
 3569      73656D33 
 3569      00
 3570              	LASF6:
 3571 0039 74657374 		.ascii "testsem4\0"
 3571      73656D34 
 3571      00
 3572              		.def	_chSemInit;	.scl	2;	.type	32;	.endef
 3573              		.def	_chSemWait;	.scl	2;	.type	32;	.endef
 3574              		.def	_test_emit_token;	.scl	2;	.type	32;	.endef
 3575              		.def	_chThdCreateStatic;	.scl	2;	.type	32;	.endef
 3576              		.def	_chSemSignal;	.scl	2;	.type	32;	.endef
 3577              		.def	_test_wait_threads;	.scl	2;	.type	32;	.endef
 3578              		.def	__test_assert_sequence;	.scl	2;	.type	32;	.endef
 3579              		.def	_chSemAddCounterI;	.scl	2;	.type	32;	.endef
 3580              		.def	__test_assert;	.scl	2;	.type	32;	.endef
 3581              		.def	_chThdSleep;	.scl	2;	.type	32;	.endef
 3582              		.def	_chSemSignalI;	.scl	2;	.type	32;	.endef
 3583              		.def	_chSchRescheduleS;	.scl	2;	.type	32;	.endef
 3584              		.def	_chSemWaitTimeout;	.scl	2;	.type	32;	.endef
 3585              		.def	_test_wait_tick;	.scl	2;	.type	32;	.endef
 3586              		.def	__test_assert_time_window;	.scl	2;	.type	32;	.endef
 3587              		.def	_chSemSignalWait;	.scl	2;	.type	32;	.endef
 3588              		.def	_chSemReset;	.scl	2;	.type	32;	.endef
 3589              		.def	___gcov_merge_add;	.scl	2;	.type	32;	.endef
 3590              		.def	___gcov_init;	.scl	2;	.type	32;	.endef
GAS LISTING C:\cygwin\tmp\ccBlkykz.s 			page 80


DEFINED SYMBOLS
                            *ABS*:00000000 testsem.c
C:\cygwin\tmp\ccBlkykz.s:44     .data:00000000 _sem1
C:\cygwin\tmp\ccBlkykz.s:54     .text:00000000 _sem1_setup
C:\cygwin\tmp\ccBlkykz.s:87     .text:00000053 _thread1
C:\cygwin\tmp\ccBlkykz.s:146    .text:000000d0 _sem1_execute
C:\cygwin\tmp\ccBlkykz.s:428    .rdata:00000028 _testsem1
C:\cygwin\tmp\ccBlkykz.s:439    .text:00000528 _sem2_setup
C:\cygwin\tmp\ccBlkykz.s:471    .text:0000057b _thread2
C:\cygwin\tmp\ccBlkykz.s:545    .text:0000064e _sem2_execute
C:\cygwin\tmp\ccBlkykz.s:949    .rdata:0000004c _testsem2
C:\cygwin\tmp\ccBlkykz.s:960    .text:00000c1b _sem3_setup
C:\cygwin\tmp\ccBlkykz.s:992    .text:00000c6e _thread3
C:\cygwin\tmp\ccBlkykz.s:1034   .text:00000ce6 _sem3_execute
C:\cygwin\tmp\ccBlkykz.s:1203   .rdata:0000007c _testsem3
C:\cygwin\tmp\ccBlkykz.s:1214   .text:00000f39 _thread4
C:\cygwin\tmp\ccBlkykz.s:1290   .text:0000100b _sem4_execute
C:\cygwin\tmp\ccBlkykz.s:1627   .rdata:000000b0 _testsem4
C:\cygwin\tmp\ccBlkykz.s:1638   .rdata:000000c0 _patternsem
C:\cygwin\tmp\ccBlkykz.s:1743   .text:00001486 __GLOBAL__sub_I_65535_0_testsem1

UNDEFINED SYMBOLS
_rlist
_wa
_threads
_vtlist
_chSemInit
_chSemWait
_test_emit_token
_chThdCreateStatic
_chSemSignal
_test_wait_threads
__test_assert_sequence
_chSemAddCounterI
__test_assert
_chThdSleep
_chSemSignalI
_chSchRescheduleS
_chSemWaitTimeout
_test_wait_tick
__test_assert_time_window
_chSemSignalWait
_chSemReset
___gcov_merge_add
___gcov_init
