GAS LISTING C:\cygwin\tmp\cc422TGv.s 			page 1


   1              		.file	"testdyn.c"
   2              	 # GNU C (GCC) version 4.6.2 (mingw32)
   3              	 #	compiled by GNU C version 4.6.2, GMP version 5.0.1, MPFR version 2.4.1, MPC version 0.8.1
   4              	 # GGC heuristics: --param ggc-min-expand=100 --param ggc-min-heapsize=131072
   5              	 # options passed:  -I . -I ../../os/ports/GCC/SIMIA32
   6              	 # -I ../../os/kernel/include -I ../../test -I ../../os/hal/include
   7              	 # -I ../../os/hal/platforms/Win32 -I ../../boards/simulator
   8              	 # -I ../../os/various -iprefix c:\mingw\bin\../lib/gcc/mingw32/4.6.2/
   9              	 # -MD ../../test/testdyn.d -MF .dep/testdyn.o.d -MP
  10              	 # -MQ ../../test/testdyn.o -D SIMULATOR ../../test/testdyn.c -mtune=i386
  11              	 # -march=i386 -auxbase-strip ../../test/testdyn.o -ggdb -O0 -Wall -Wextra
  12              	 # -Wstrict-prototypes -fomit-frame-pointer -fprofile-arcs -ftest-coverage
  13              	 # -fverbose-asm
  14              	 # options enabled:  -fasynchronous-unwind-tables -fauto-inc-dec
  15              	 # -fbranch-count-reg -fcommon -fdelete-null-pointer-checks
  16              	 # -fdwarf2-cfi-asm -fearly-inlining -feliminate-unused-debug-types
  17              	 # -ffunction-cse -fgcse-lm -fident -finline-functions-called-once
  18              	 # -fira-share-save-slots -fira-share-spill-slots -fivopts
  19              	 # -fkeep-inline-dllexport -fkeep-static-consts -fleading-underscore
  20              	 # -fmath-errno -fmerge-debug-strings -fmove-loop-invariants
  21              	 # -fomit-frame-pointer -fpeephole -fprefetch-loop-arrays -fprofile-arcs
  22              	 # -freg-struct-return -fsched-critical-path-heuristic
  23              	 # -fsched-dep-count-heuristic -fsched-group-heuristic -fsched-interblock
  24              	 # -fsched-last-insn-heuristic -fsched-rank-heuristic -fsched-spec
  25              	 # -fsched-spec-insn-heuristic -fsched-stalled-insns-dep
  26              	 # -fset-stack-executable -fshow-column -fsigned-zeros
  27              	 # -fsplit-ivs-in-unroller -fstrict-volatile-bitfields -ftest-coverage
  28              	 # -ftrapping-math -ftree-cselim -ftree-forwprop -ftree-loop-if-convert
  29              	 # -ftree-loop-im -ftree-loop-ivcanon -ftree-loop-optimize
  30              	 # -ftree-parallelize-loops= -ftree-phiprop -ftree-pta -ftree-reassoc
  31              	 # -ftree-scev-cprop -ftree-slp-vectorize -ftree-vect-loop-version
  32              	 # -funit-at-a-time -funwind-tables -fvect-cost-model -fverbose-asm
  33              	 # -fzero-initialized-in-bss -m32 -m80387 -m96bit-long-double
  34              	 # -maccumulate-outgoing-args -malign-double -malign-stringops
  35              	 # -mfancy-math-387 -mfp-ret-in-387 -mieee-fp -mno-red-zone -mno-sse4
  36              	 # -mpush-args -msahf -mstack-arg-probe
  37              	
  38              		.text
  39              	Ltext0:
  40              	 # Compiler executable checksum: c20aed7c018482d7b62efcd5dcab2a9d
  41              	
  42              	.lcomm _heap1,48,32
  43              	.lcomm _mp1,12,4
  44              		.def	_thread;	.scl	3;	.type	32;	.endef
  45              	_thread:
  46              	LFB0:
  47              		.file 1 "../../test/testdyn.c"
  48              		.loc 1 75 0
  49              		.cfi_startproc
  50 0000 83EC1C   		subl	$28, %esp	 #,
  51              	LCFI0:
  52              		.cfi_def_cfa_offset 32
  53              		.loc 1 75 0
  54 0003 A1300300 		movl	LPBX1+752, %eax	 # *LPBX1, PROF_edge_counter.12
  54      00
  55 0008 8B153403 		movl	LPBX1+756, %edx	 # *LPBX1, PROF_edge_counter.12
  55      0000
GAS LISTING C:\cygwin\tmp\cc422TGv.s 			page 2


  56 000e 83C001   		addl	$1, %eax	 #, PROF_edge_counter.12
  57 0011 83D200   		adcl	$0, %edx	 #, PROF_edge_counter.12
  58 0014 A3300300 		movl	%eax, LPBX1+752	 # PROF_edge_counter.12, *LPBX1
  58      00
  59 0019 89153403 		movl	%edx, LPBX1+756	 # PROF_edge_counter.12, *LPBX1
  59      0000
  60              		.loc 1 77 0
  61 001f 8B442420 		movl	32(%esp), %eax	 # p, tmp67
  62 0023 8A00     		movb	(%eax), %al	 # MEM[(char *)p_1(D)], D.2997
  63 0025 0FBEC0   		movsbl	%al, %eax	 # D.2997, D.2998
  64 0028 890424   		movl	%eax, (%esp)	 # D.2998,
  65 002b E8000000 		call	_test_emit_token	 #
  65      00
  66 0030 A1380300 		movl	LPBX1+760, %eax	 # *LPBX1, PROF_edge_counter.12
  66      00
  67 0035 8B153C03 		movl	LPBX1+764, %edx	 # *LPBX1, PROF_edge_counter.12
  67      0000
  68 003b 83C001   		addl	$1, %eax	 #, PROF_edge_counter.12
  69 003e 83D200   		adcl	$0, %edx	 #, PROF_edge_counter.12
  70 0041 A3380300 		movl	%eax, LPBX1+760	 # PROF_edge_counter.12, *LPBX1
  70      00
  71 0046 89153C03 		movl	%edx, LPBX1+764	 # PROF_edge_counter.12, *LPBX1
  71      0000
  72              		.loc 1 78 0
  73 004c B8000000 		movl	$0, %eax	 #, D.2999
  73      00
  74              		.loc 1 79 0
  75 0051 83C41C   		addl	$28, %esp	 #,
  76              	LCFI1:
  77              		.cfi_def_cfa_offset 4
  78 0054 C3       		ret
  79              		.cfi_endproc
  80              	LFE0:
  81              		.def	_dyn1_setup;	.scl	3;	.type	32;	.endef
  82              	_dyn1_setup:
  83              	LFB1:
  84              		.loc 1 82 0
  85              		.cfi_startproc
  86 0055 83EC1C   		subl	$28, %esp	 #,
  87              	LCFI2:
  88              		.cfi_def_cfa_offset 32
  89              		.loc 1 82 0
  90 0058 A1200300 		movl	LPBX1+736, %eax	 # *LPBX1, PROF_edge_counter.11
  90      00
  91 005d 8B152403 		movl	LPBX1+740, %edx	 # *LPBX1, PROF_edge_counter.11
  91      0000
  92 0063 83C001   		addl	$1, %eax	 #, PROF_edge_counter.11
  93 0066 83D200   		adcl	$0, %edx	 #, PROF_edge_counter.11
  94 0069 A3200300 		movl	%eax, LPBX1+736	 # PROF_edge_counter.11, *LPBX1
  94      00
  95 006e 89152403 		movl	%edx, LPBX1+740	 # PROF_edge_counter.11, *LPBX1
  95      0000
  96              		.loc 1 84 0
  97 0074 C7442408 		movl	$85040, 8(%esp)	 #,
  97      304C0100 
  98 007c C7442404 		movl	$_test, 4(%esp)	 #,
  98      00000000 
GAS LISTING C:\cygwin\tmp\cc422TGv.s 			page 3


  99 0084 C7042400 		movl	$_heap1, (%esp)	 #,
  99      000000
 100 008b E8000000 		call	_chHeapInit	 #
 100      00
 101 0090 A1280300 		movl	LPBX1+744, %eax	 # *LPBX1, PROF_edge_counter.11
 101      00
 102 0095 8B152C03 		movl	LPBX1+748, %edx	 # *LPBX1, PROF_edge_counter.11
 102      0000
 103 009b 83C001   		addl	$1, %eax	 #, PROF_edge_counter.11
 104 009e 83D200   		adcl	$0, %edx	 #, PROF_edge_counter.11
 105 00a1 A3280300 		movl	%eax, LPBX1+744	 # PROF_edge_counter.11, *LPBX1
 105      00
 106 00a6 89152C03 		movl	%edx, LPBX1+748	 # PROF_edge_counter.11, *LPBX1
 106      0000
 107              		.loc 1 85 0
 108 00ac 83C41C   		addl	$28, %esp	 #,
 109              	LCFI3:
 110              		.cfi_def_cfa_offset 4
 111 00af C3       		ret
 112              		.cfi_endproc
 113              	LFE1:
 114              		.section .rdata,"dr"
 115              	LC0:
 116 0000 4100     		.ascii "A\0"
 117              	LC1:
 118 0002 4200     		.ascii "B\0"
 119              	LC2:
 120 0004 4300     		.ascii "C\0"
 121              	LC3:
 122 0006 414200   		.ascii "AB\0"
 123              		.text
 124              		.def	_dyn1_execute;	.scl	3;	.type	32;	.endef
 125              	_dyn1_execute:
 126              	LFB2:
 127              		.loc 1 87 0
 128              		.cfi_startproc
 129 00b0 83EC3C   		subl	$60, %esp	 #,
 130              	LCFI4:
 131              		.cfi_def_cfa_offset 64
 132              		.loc 1 87 0
 133 00b3 A1680200 		movl	LPBX1+552, %eax	 # *LPBX1, PROF_edge_counter.10
 133      00
 134 00b8 8B156C02 		movl	LPBX1+556, %edx	 # *LPBX1, PROF_edge_counter.10
 134      0000
 135 00be 83C001   		addl	$1, %eax	 #, PROF_edge_counter.10
 136 00c1 83D200   		adcl	$0, %edx	 #, PROF_edge_counter.10
 137 00c4 A3680200 		movl	%eax, LPBX1+552	 # PROF_edge_counter.10, *LPBX1
 137      00
 138 00c9 89156C02 		movl	%edx, LPBX1+556	 # PROF_edge_counter.10, *LPBX1
 138      0000
 139              		.loc 1 90 0
 140 00cf A1180000 		movl	_rlist+24, %eax	 # rlist.r_current, D.2956
 140      00
 141 00d4 8B4008   		movl	8(%eax), %eax	 # D.2956_2->p_prio, tmp130
 142 00d7 8944242C 		movl	%eax, 44(%esp)	 # tmp130, prio
 143              		.loc 1 92 0
 144 00db 8D442420 		leal	32(%esp), %eax	 #, tmp131
GAS LISTING C:\cygwin\tmp\cc422TGv.s 			page 4


 145 00df 89442404 		movl	%eax, 4(%esp)	 # tmp131,
 146 00e3 C7042400 		movl	$_heap1, (%esp)	 #,
 146      000000
 147 00ea E8000000 		call	_chHeapStatus	 #
 147      00
 148 00ef A1700200 		movl	LPBX1+560, %eax	 # *LPBX1, PROF_edge_counter.10
 148      00
 149 00f4 8B157402 		movl	LPBX1+564, %edx	 # *LPBX1, PROF_edge_counter.10
 149      0000
 150 00fa 83C001   		addl	$1, %eax	 #, PROF_edge_counter.10
 151 00fd 83D200   		adcl	$0, %edx	 #, PROF_edge_counter.10
 152 0100 A3700200 		movl	%eax, LPBX1+560	 # PROF_edge_counter.10, *LPBX1
 152      00
 153 0105 89157402 		movl	%edx, LPBX1+564	 # PROF_edge_counter.10, *LPBX1
 153      0000
 154              		.loc 1 94 0
 155 010b 8B44242C 		movl	44(%esp), %eax	 # prio, tmp132
 156 010f 48       		decl	%eax	 # D.2957
 157 0110 C7442410 		movl	$LC0, 16(%esp)	 #,
 157      00000000 
 158 0118 C744240C 		movl	$_thread, 12(%esp)	 #,
 158      00000000 
 159 0120 89442408 		movl	%eax, 8(%esp)	 # D.2957,
 160 0124 C7442404 		movl	$17008, 4(%esp)	 #,
 160      70420000 
 161 012c C7042400 		movl	$_heap1, (%esp)	 #,
 161      000000
 162 0133 E8000000 		call	_chThdCreateFromHeap	 #
 162      00
 163 0138 89C1     		movl	%eax, %ecx	 #, D.2958
 164 013a A1780200 		movl	LPBX1+568, %eax	 # *LPBX1, PROF_edge_counter.10
 164      00
 165 013f 8B157C02 		movl	LPBX1+572, %edx	 # *LPBX1, PROF_edge_counter.10
 165      0000
 166 0145 83C001   		addl	$1, %eax	 #, PROF_edge_counter.10
 167 0148 83D200   		adcl	$0, %edx	 #, PROF_edge_counter.10
 168 014b A3780200 		movl	%eax, LPBX1+568	 # PROF_edge_counter.10, *LPBX1
 168      00
 169 0150 89157C02 		movl	%edx, LPBX1+572	 # PROF_edge_counter.10, *LPBX1
 169      0000
 170 0156 890D0000 		movl	%ecx, _threads	 # D.2958, threads
 170      0000
 171              		.loc 1 96 0
 172 015c 8B44242C 		movl	44(%esp), %eax	 # prio, tmp133
 173 0160 83E802   		subl	$2, %eax	 #, D.2959
 174 0163 C7442410 		movl	$LC1, 16(%esp)	 #,
 174      02000000 
 175 016b C744240C 		movl	$_thread, 12(%esp)	 #,
 175      00000000 
 176 0173 89442408 		movl	%eax, 8(%esp)	 # D.2959,
 177 0177 C7442404 		movl	$17008, 4(%esp)	 #,
 177      70420000 
 178 017f C7042400 		movl	$_heap1, (%esp)	 #,
 178      000000
 179 0186 E8000000 		call	_chThdCreateFromHeap	 #
 179      00
 180 018b 89C1     		movl	%eax, %ecx	 #, D.2960
GAS LISTING C:\cygwin\tmp\cc422TGv.s 			page 5


 181 018d A1800200 		movl	LPBX1+576, %eax	 # *LPBX1, PROF_edge_counter.10
 181      00
 182 0192 8B158402 		movl	LPBX1+580, %edx	 # *LPBX1, PROF_edge_counter.10
 182      0000
 183 0198 83C001   		addl	$1, %eax	 #, PROF_edge_counter.10
 184 019b 83D200   		adcl	$0, %edx	 #, PROF_edge_counter.10
 185 019e A3800200 		movl	%eax, LPBX1+576	 # PROF_edge_counter.10, *LPBX1
 185      00
 186 01a3 89158402 		movl	%edx, LPBX1+580	 # PROF_edge_counter.10, *LPBX1
 186      0000
 187 01a9 890D0400 		movl	%ecx, _threads+4	 # D.2960, threads
 187      0000
 188              		.loc 1 99 0
 189 01af 8D442424 		leal	36(%esp), %eax	 #, tmp134
 190 01b3 89442404 		movl	%eax, 4(%esp)	 # tmp134,
 191 01b7 C7042400 		movl	$_heap1, (%esp)	 #,
 191      000000
 192 01be E8000000 		call	_chHeapStatus	 #
 192      00
 193 01c3 A1880200 		movl	LPBX1+584, %eax	 # *LPBX1, PROF_edge_counter.10
 193      00
 194 01c8 8B158C02 		movl	LPBX1+588, %edx	 # *LPBX1, PROF_edge_counter.10
 194      0000
 195 01ce 83C001   		addl	$1, %eax	 #, PROF_edge_counter.10
 196 01d1 83D200   		adcl	$0, %edx	 #, PROF_edge_counter.10
 197 01d4 A3880200 		movl	%eax, LPBX1+584	 # PROF_edge_counter.10, *LPBX1
 197      00
 198 01d9 89158C02 		movl	%edx, LPBX1+588	 # PROF_edge_counter.10, *LPBX1
 198      0000
 199              		.loc 1 100 0
 200 01df 8B442424 		movl	36(%esp), %eax	 # n, n.1
 201 01e3 89442404 		movl	%eax, 4(%esp)	 # n.1,
 202 01e7 C7042400 		movl	$_heap1, (%esp)	 #,
 202      000000
 203 01ee E8000000 		call	_chHeapAlloc	 #
 203      00
 204 01f3 89442428 		movl	%eax, 40(%esp)	 # tmp135, p1
 205 01f7 A1900200 		movl	LPBX1+592, %eax	 # *LPBX1, PROF_edge_counter.10
 205      00
 206 01fc 8B159402 		movl	LPBX1+596, %edx	 # *LPBX1, PROF_edge_counter.10
 206      0000
 207 0202 83C001   		addl	$1, %eax	 #, PROF_edge_counter.10
 208 0205 83D200   		adcl	$0, %edx	 #, PROF_edge_counter.10
 209 0208 A3900200 		movl	%eax, LPBX1+592	 # PROF_edge_counter.10, *LPBX1
 209      00
 210 020d 89159402 		movl	%edx, LPBX1+596	 # PROF_edge_counter.10, *LPBX1
 210      0000
 211              		.loc 1 101 0
 212 0213 8B44242C 		movl	44(%esp), %eax	 # prio, tmp136
 213 0217 83E803   		subl	$3, %eax	 #, D.2962
 214 021a C7442410 		movl	$LC2, 16(%esp)	 #,
 214      04000000 
 215 0222 C744240C 		movl	$_thread, 12(%esp)	 #,
 215      00000000 
 216 022a 89442408 		movl	%eax, 8(%esp)	 # D.2962,
 217 022e C7442404 		movl	$17008, 4(%esp)	 #,
 217      70420000 
GAS LISTING C:\cygwin\tmp\cc422TGv.s 			page 6


 218 0236 C7042400 		movl	$_heap1, (%esp)	 #,
 218      000000
 219 023d E8000000 		call	_chThdCreateFromHeap	 #
 219      00
 220 0242 89C1     		movl	%eax, %ecx	 #, D.2963
 221 0244 A1980200 		movl	LPBX1+600, %eax	 # *LPBX1, PROF_edge_counter.10
 221      00
 222 0249 8B159C02 		movl	LPBX1+604, %edx	 # *LPBX1, PROF_edge_counter.10
 222      0000
 223 024f 83C001   		addl	$1, %eax	 #, PROF_edge_counter.10
 224 0252 83D200   		adcl	$0, %edx	 #, PROF_edge_counter.10
 225 0255 A3980200 		movl	%eax, LPBX1+600	 # PROF_edge_counter.10, *LPBX1
 225      00
 226 025a 89159C02 		movl	%edx, LPBX1+604	 # PROF_edge_counter.10, *LPBX1
 226      0000
 227 0260 890D0800 		movl	%ecx, _threads+8	 # D.2963, threads
 227      0000
 228              		.loc 1 103 0
 229 0266 8B442428 		movl	40(%esp), %eax	 # p1, tmp137
 230 026a 890424   		movl	%eax, (%esp)	 # tmp137,
 231 026d E8000000 		call	_chHeapFree	 #
 231      00
 232              		.loc 1 105 0
 233 0272 A1000000 		movl	_threads, %eax	 # threads, D.2967
 233      00
 234 0277 85C0     		testl	%eax, %eax	 # D.2967
 235 0279 0F84BB00 		je	L4	 #,
 235      0000
 236              		.loc 1 105 0 is_stmt 0 discriminator 1
 237 027f A1A00200 		movl	LPBX1+608, %eax	 # *LPBX1, PROF_edge_counter.10
 237      00
 238 0284 8B15A402 		movl	LPBX1+612, %edx	 # *LPBX1, PROF_edge_counter.10
 238      0000
 239 028a 83C001   		addl	$1, %eax	 #, PROF_edge_counter.10
 240 028d 83D200   		adcl	$0, %edx	 #, PROF_edge_counter.10
 241 0290 A3A00200 		movl	%eax, LPBX1+608	 # PROF_edge_counter.10, *LPBX1
 241      00
 242 0295 8915A402 		movl	%edx, LPBX1+612	 # PROF_edge_counter.10, *LPBX1
 242      0000
 243 029b A1040000 		movl	_threads+4, %eax	 # threads, D.2969
 243      00
 244 02a0 85C0     		testl	%eax, %eax	 # D.2969
 245 02a2 0F849200 		je	L4	 #,
 245      0000
 246              		.loc 1 105 0 discriminator 3
 247 02a8 A1A80200 		movl	LPBX1+616, %eax	 # *LPBX1, PROF_edge_counter.10
 247      00
 248 02ad 8B15AC02 		movl	LPBX1+620, %edx	 # *LPBX1, PROF_edge_counter.10
 248      0000
 249 02b3 83C001   		addl	$1, %eax	 #, PROF_edge_counter.10
 250 02b6 83D200   		adcl	$0, %edx	 #, PROF_edge_counter.10
 251 02b9 A3A80200 		movl	%eax, LPBX1+616	 # PROF_edge_counter.10, *LPBX1
 251      00
 252 02be 8915AC02 		movl	%edx, LPBX1+620	 # PROF_edge_counter.10, *LPBX1
 252      0000
 253 02c4 A1080000 		movl	_threads+8, %eax	 # threads, D.2971
 253      00
GAS LISTING C:\cygwin\tmp\cc422TGv.s 			page 7


 254 02c9 85C0     		testl	%eax, %eax	 # D.2971
 255 02cb 756D     		jne	L4	 #,
 256              		.loc 1 105 0 discriminator 4
 257 02cd A1B00200 		movl	LPBX1+624, %eax	 # *LPBX1, PROF_edge_counter.10
 257      00
 258 02d2 8B15B402 		movl	LPBX1+628, %edx	 # *LPBX1, PROF_edge_counter.10
 258      0000
 259 02d8 83C001   		addl	$1, %eax	 #, PROF_edge_counter.10
 260 02db 83D200   		adcl	$0, %edx	 #, PROF_edge_counter.10
 261 02de A3B00200 		movl	%eax, LPBX1+624	 # PROF_edge_counter.10, *LPBX1
 261      00
 262 02e3 8915B402 		movl	%edx, LPBX1+628	 # PROF_edge_counter.10, *LPBX1
 262      0000
 263 02e9 A10C0000 		movl	_threads+12, %eax	 # threads, D.2973
 263      00
 264 02ee 85C0     		testl	%eax, %eax	 # D.2973
 265 02f0 7548     		jne	L4	 #,
 266              		.loc 1 105 0 discriminator 5
 267 02f2 A1B80200 		movl	LPBX1+632, %eax	 # *LPBX1, PROF_edge_counter.10
 267      00
 268 02f7 8B15BC02 		movl	LPBX1+636, %edx	 # *LPBX1, PROF_edge_counter.10
 268      0000
 269 02fd 83C001   		addl	$1, %eax	 #, PROF_edge_counter.10
 270 0300 83D200   		adcl	$0, %edx	 #, PROF_edge_counter.10
 271 0303 A3B80200 		movl	%eax, LPBX1+632	 # PROF_edge_counter.10, *LPBX1
 271      00
 272 0308 8915BC02 		movl	%edx, LPBX1+636	 # PROF_edge_counter.10, *LPBX1
 272      0000
 273 030e A1100000 		movl	_threads+16, %eax	 # threads, D.2975
 273      00
 274 0313 85C0     		testl	%eax, %eax	 # D.2975
 275 0315 7523     		jne	L4	 #,
 276              		.loc 1 105 0 discriminator 6
 277 0317 B9010000 		movl	$1, %ecx	 #, iftmp.2
 277      00
 278 031c A1C00200 		movl	LPBX1+640, %eax	 # *LPBX1, PROF_edge_counter.10
 278      00
 279 0321 8B15C402 		movl	LPBX1+644, %edx	 # *LPBX1, PROF_edge_counter.10
 279      0000
 280 0327 83C001   		addl	$1, %eax	 #, PROF_edge_counter.10
 281 032a 83D200   		adcl	$0, %edx	 #, PROF_edge_counter.10
 282 032d A3C00200 		movl	%eax, LPBX1+640	 # PROF_edge_counter.10, *LPBX1
 282      00
 283 0332 8915C402 		movl	%edx, LPBX1+644	 # PROF_edge_counter.10, *LPBX1
 283      0000
 284 0338 EB21     		jmp	L5	 #
 285              	L4:
 286              		.loc 1 105 0 discriminator 2
 287 033a B9000000 		movl	$0, %ecx	 #, iftmp.2
 287      00
 288 033f A1C80200 		movl	LPBX1+648, %eax	 # *LPBX1, PROF_edge_counter.10
 288      00
 289 0344 8B15CC02 		movl	LPBX1+652, %edx	 # *LPBX1, PROF_edge_counter.10
 289      0000
 290 034a 83C001   		addl	$1, %eax	 #, PROF_edge_counter.10
 291 034d 83D200   		adcl	$0, %edx	 #, PROF_edge_counter.10
 292 0350 A3C80200 		movl	%eax, LPBX1+648	 # PROF_edge_counter.10, *LPBX1
GAS LISTING C:\cygwin\tmp\cc422TGv.s 			page 8


 292      00
 293 0355 8915CC02 		movl	%edx, LPBX1+652	 # PROF_edge_counter.10, *LPBX1
 293      0000
 294              	L5:
 295              		.loc 1 105 0 discriminator 7
 296 035b 88C8     		movb	%cl, %al	 # iftmp.2, D.2977
 297 035d 0FB6C0   		movzbl	%al, %eax	 # D.2977, D.2978
 298 0360 89442404 		movl	%eax, 4(%esp)	 # D.2978,
 299 0364 C7042401 		movl	$1, (%esp)	 #,
 299      000000
 300 036b E8000000 		call	__test_assert	 #
 300      00
 301 0370 84C0     		testb	%al, %al	 # D.2979
 302 0372 7421     		je	L6	 #,
 303              		.loc 1 105 0 discriminator 8
 304 0374 A1D80200 		movl	LPBX1+664, %eax	 # *LPBX1, PROF_edge_counter.10
 304      00
 305 0379 8B15DC02 		movl	LPBX1+668, %edx	 # *LPBX1, PROF_edge_counter.10
 305      0000
 306 037f 83C001   		addl	$1, %eax	 #, PROF_edge_counter.10
 307 0382 83D200   		adcl	$0, %edx	 #, PROF_edge_counter.10
 308 0385 A3D80200 		movl	%eax, LPBX1+664	 # PROF_edge_counter.10, *LPBX1
 308      00
 309 038a 8915DC02 		movl	%edx, LPBX1+668	 # PROF_edge_counter.10, *LPBX1
 309      0000
 310 0390 E9790100 		jmp	L3	 #
 310      00
 311              	L6:
 312              		.loc 1 105 0
 313 0395 A1D00200 		movl	LPBX1+656, %eax	 # *LPBX1, PROF_edge_counter.10
 313      00
 314 039a 8B15D402 		movl	LPBX1+660, %edx	 # *LPBX1, PROF_edge_counter.10
 314      0000
 315 03a0 83C001   		addl	$1, %eax	 #, PROF_edge_counter.10
 316 03a3 83D200   		adcl	$0, %edx	 #, PROF_edge_counter.10
 317 03a6 A3D00200 		movl	%eax, LPBX1+656	 # PROF_edge_counter.10, *LPBX1
 317      00
 318 03ab 8915D402 		movl	%edx, LPBX1+660	 # PROF_edge_counter.10, *LPBX1
 318      0000
 319              		.loc 1 113 0 is_stmt 1
 320 03b1 E8000000 		call	_test_wait_threads	 #
 320      00
 321 03b6 A1E00200 		movl	LPBX1+672, %eax	 # *LPBX1, PROF_edge_counter.10
 321      00
 322 03bb 8B15E402 		movl	LPBX1+676, %edx	 # *LPBX1, PROF_edge_counter.10
 322      0000
 323 03c1 83C001   		addl	$1, %eax	 #, PROF_edge_counter.10
 324 03c4 83D200   		adcl	$0, %edx	 #, PROF_edge_counter.10
 325 03c7 A3E00200 		movl	%eax, LPBX1+672	 # PROF_edge_counter.10, *LPBX1
 325      00
 326 03cc 8915E402 		movl	%edx, LPBX1+676	 # PROF_edge_counter.10, *LPBX1
 326      0000
 327              		.loc 1 114 0
 328 03d2 C7442404 		movl	$LC3, 4(%esp)	 #,
 328      06000000 
 329 03da C7042402 		movl	$2, (%esp)	 #,
 329      000000
GAS LISTING C:\cygwin\tmp\cc422TGv.s 			page 9


 330 03e1 E8000000 		call	__test_assert_sequence	 #
 330      00
 331 03e6 84C0     		testb	%al, %al	 # D.2982
 332 03e8 7421     		je	L8	 #,
 333              		.loc 1 114 0 is_stmt 0 discriminator 1
 334 03ea A1F00200 		movl	LPBX1+688, %eax	 # *LPBX1, PROF_edge_counter.10
 334      00
 335 03ef 8B15F402 		movl	LPBX1+692, %edx	 # *LPBX1, PROF_edge_counter.10
 335      0000
 336 03f5 83C001   		addl	$1, %eax	 #, PROF_edge_counter.10
 337 03f8 83D200   		adcl	$0, %edx	 #, PROF_edge_counter.10
 338 03fb A3F00200 		movl	%eax, LPBX1+688	 # PROF_edge_counter.10, *LPBX1
 338      00
 339 0400 8915F402 		movl	%edx, LPBX1+692	 # PROF_edge_counter.10, *LPBX1
 339      0000
 340 0406 E9030100 		jmp	L3	 #
 340      00
 341              	L8:
 342              		.loc 1 114 0
 343 040b A1E80200 		movl	LPBX1+680, %eax	 # *LPBX1, PROF_edge_counter.10
 343      00
 344 0410 8B15EC02 		movl	LPBX1+684, %edx	 # *LPBX1, PROF_edge_counter.10
 344      0000
 345 0416 83C001   		addl	$1, %eax	 #, PROF_edge_counter.10
 346 0419 83D200   		adcl	$0, %edx	 #, PROF_edge_counter.10
 347 041c A3E80200 		movl	%eax, LPBX1+680	 # PROF_edge_counter.10, *LPBX1
 347      00
 348 0421 8915EC02 		movl	%edx, LPBX1+684	 # PROF_edge_counter.10, *LPBX1
 348      0000
 349              		.loc 1 117 0 is_stmt 1
 350 0427 8D442424 		leal	36(%esp), %eax	 #, tmp138
 351 042b 89442404 		movl	%eax, 4(%esp)	 # tmp138,
 352 042f C7042400 		movl	$_heap1, (%esp)	 #,
 352      000000
 353 0436 E8000000 		call	_chHeapStatus	 #
 353      00
 354 043b 89C1     		movl	%eax, %ecx	 #, D.2985
 355 043d A1F80200 		movl	LPBX1+696, %eax	 # *LPBX1, PROF_edge_counter.10
 355      00
 356 0442 8B15FC02 		movl	LPBX1+700, %edx	 # *LPBX1, PROF_edge_counter.10
 356      0000
 357 0448 83C001   		addl	$1, %eax	 #, PROF_edge_counter.10
 358 044b 83D200   		adcl	$0, %edx	 #, PROF_edge_counter.10
 359 044e A3F80200 		movl	%eax, LPBX1+696	 # PROF_edge_counter.10, *LPBX1
 359      00
 360 0453 8915FC02 		movl	%edx, LPBX1+700	 # PROF_edge_counter.10, *LPBX1
 360      0000
 361 0459 83F901   		cmpl	$1, %ecx	 #, D.2985
 362 045c 0F94C0   		sete	%al	 #, tmp139
 363 045f 0FB6C0   		movzbl	%al, %eax	 # tmp139, D.2986
 364 0462 89442404 		movl	%eax, 4(%esp)	 # D.2986,
 365 0466 C7042403 		movl	$3, (%esp)	 #,
 365      000000
 366 046d E8000000 		call	__test_assert	 #
 366      00
 367 0472 84C0     		testb	%al, %al	 # D.2987
 368 0474 741E     		je	L9	 #,
GAS LISTING C:\cygwin\tmp\cc422TGv.s 			page 10


 369              		.loc 1 117 0 is_stmt 0 discriminator 1
 370 0476 A1080300 		movl	LPBX1+712, %eax	 # *LPBX1, PROF_edge_counter.10
 370      00
 371 047b 8B150C03 		movl	LPBX1+716, %edx	 # *LPBX1, PROF_edge_counter.10
 371      0000
 372 0481 83C001   		addl	$1, %eax	 #, PROF_edge_counter.10
 373 0484 83D200   		adcl	$0, %edx	 #, PROF_edge_counter.10
 374 0487 A3080300 		movl	%eax, LPBX1+712	 # PROF_edge_counter.10, *LPBX1
 374      00
 375 048c 89150C03 		movl	%edx, LPBX1+716	 # PROF_edge_counter.10, *LPBX1
 375      0000
 376 0492 EB7A     		jmp	L3	 #
 377              	L9:
 378              		.loc 1 117 0
 379 0494 A1000300 		movl	LPBX1+704, %eax	 # *LPBX1, PROF_edge_counter.10
 379      00
 380 0499 8B150403 		movl	LPBX1+708, %edx	 # *LPBX1, PROF_edge_counter.10
 380      0000
 381 049f 83C001   		addl	$1, %eax	 #, PROF_edge_counter.10
 382 04a2 83D200   		adcl	$0, %edx	 #, PROF_edge_counter.10
 383 04a5 A3000300 		movl	%eax, LPBX1+704	 # PROF_edge_counter.10, *LPBX1
 383      00
 384 04aa 89150403 		movl	%edx, LPBX1+708	 # PROF_edge_counter.10, *LPBX1
 384      0000
 385              		.loc 1 118 0 is_stmt 1
 386 04b0 8B542424 		movl	36(%esp), %edx	 # n, n.3
 387 04b4 8B442420 		movl	32(%esp), %eax	 # sz, sz.4
 388 04b8 39C2     		cmpl	%eax, %edx	 # sz.4, n.3
 389 04ba 0F94C0   		sete	%al	 #, tmp140
 390 04bd 0FB6C0   		movzbl	%al, %eax	 # tmp140, D.2992
 391 04c0 89442404 		movl	%eax, 4(%esp)	 # D.2992,
 392 04c4 C7042404 		movl	$4, (%esp)	 #,
 392      000000
 393 04cb E8000000 		call	__test_assert	 #
 393      00
 394 04d0 88C1     		movb	%al, %cl	 #, D.2993
 395 04d2 A1100300 		movl	LPBX1+720, %eax	 # *LPBX1, PROF_edge_counter.10
 395      00
 396 04d7 8B151403 		movl	LPBX1+724, %edx	 # *LPBX1, PROF_edge_counter.10
 396      0000
 397 04dd 83C001   		addl	$1, %eax	 #, PROF_edge_counter.10
 398 04e0 83D200   		adcl	$0, %edx	 #, PROF_edge_counter.10
 399 04e3 A3100300 		movl	%eax, LPBX1+720	 # PROF_edge_counter.10, *LPBX1
 399      00
 400 04e8 89151403 		movl	%edx, LPBX1+724	 # PROF_edge_counter.10, *LPBX1
 400      0000
 401 04ee 84C9     		testb	%cl, %cl	 # D.2993
 402 04f0 741C     		je	L3	 #,
 403              		.loc 1 118 0 is_stmt 0 discriminator 1
 404 04f2 A1180300 		movl	LPBX1+728, %eax	 # *LPBX1, PROF_edge_counter.10
 404      00
 405 04f7 8B151C03 		movl	LPBX1+732, %edx	 # *LPBX1, PROF_edge_counter.10
 405      0000
 406 04fd 83C001   		addl	$1, %eax	 #, PROF_edge_counter.10
 407 0500 83D200   		adcl	$0, %edx	 #, PROF_edge_counter.10
 408 0503 A3180300 		movl	%eax, LPBX1+728	 # PROF_edge_counter.10, *LPBX1
 408      00
GAS LISTING C:\cygwin\tmp\cc422TGv.s 			page 11


 409 0508 89151C03 		movl	%edx, LPBX1+732	 # PROF_edge_counter.10, *LPBX1
 409      0000
 410              	L3:
 411              		.loc 1 119 0 is_stmt 1
 412 050e 83C43C   		addl	$60, %esp	 #,
 413              	LCFI5:
 414              		.cfi_def_cfa_offset 4
 415 0511 C3       		ret
 416              		.cfi_endproc
 417              	LFE2:
 418              		.globl	_testdyn1
 419              		.section .rdata,"dr"
 420 0009 000000   		.align 4
 421              	LC4:
 422 000c 44796E61 		.ascii "Dynamic APIs, threads creation from heap\0"
 422      6D696320 
 422      41504973 
 422      2C207468 
 422      72656164 
 423 0035 000000   		.align 4
 424              	_testdyn1:
 425              	 # name:
 426 0038 0C000000 		.long	LC4
 427              	 # setup:
 428 003c 55000000 		.long	_dyn1_setup
 429              	 # teardown:
 430 0040 00000000 		.long	0
 431              	 # execute:
 432 0044 B0000000 		.long	_dyn1_execute
 433              		.text
 434              		.def	_dyn2_setup;	.scl	3;	.type	32;	.endef
 435              	_dyn2_setup:
 436              	LFB3:
 437              		.loc 1 140 0
 438              		.cfi_startproc
 439 0512 83EC1C   		subl	$28, %esp	 #,
 440              	LCFI6:
 441              		.cfi_def_cfa_offset 32
 442              		.loc 1 140 0
 443 0515 A1580200 		movl	LPBX1+536, %eax	 # *LPBX1, PROF_edge_counter.9
 443      00
 444 051a 8B155C02 		movl	LPBX1+540, %edx	 # *LPBX1, PROF_edge_counter.9
 444      0000
 445 0520 83C001   		addl	$1, %eax	 #, PROF_edge_counter.9
 446 0523 83D200   		adcl	$0, %edx	 #, PROF_edge_counter.9
 447 0526 A3580200 		movl	%eax, LPBX1+536	 # PROF_edge_counter.9, *LPBX1
 447      00
 448 052b 89155C02 		movl	%edx, LPBX1+540	 # PROF_edge_counter.9, *LPBX1
 448      0000
 449              		.loc 1 142 0
 450 0531 C7442408 		movl	$0, 8(%esp)	 #,
 450      00000000 
 451 0539 C7442404 		movl	$17008, 4(%esp)	 #,
 451      70420000 
 452 0541 C7042430 		movl	$_mp1, (%esp)	 #,
 452      000000
 453 0548 E8000000 		call	_chPoolInit	 #
GAS LISTING C:\cygwin\tmp\cc422TGv.s 			page 12


 453      00
 454 054d A1600200 		movl	LPBX1+544, %eax	 # *LPBX1, PROF_edge_counter.9
 454      00
 455 0552 8B156402 		movl	LPBX1+548, %edx	 # *LPBX1, PROF_edge_counter.9
 455      0000
 456 0558 83C001   		addl	$1, %eax	 #, PROF_edge_counter.9
 457 055b 83D200   		adcl	$0, %edx	 #, PROF_edge_counter.9
 458 055e A3600200 		movl	%eax, LPBX1+544	 # PROF_edge_counter.9, *LPBX1
 458      00
 459 0563 89156402 		movl	%edx, LPBX1+548	 # PROF_edge_counter.9, *LPBX1
 459      0000
 460              		.loc 1 143 0
 461 0569 83C41C   		addl	$28, %esp	 #,
 462              	LCFI7:
 463              		.cfi_def_cfa_offset 4
 464 056c C3       		ret
 465              		.cfi_endproc
 466              	LFE3:
 467              		.section .rdata,"dr"
 468              	LC5:
 469 0048 4400     		.ascii "D\0"
 470              	LC6:
 471 004a 4500     		.ascii "E\0"
 472              	LC7:
 473 004c 41424344 		.ascii "ABCD\0"
 473      00
 474              		.text
 475              		.def	_dyn2_execute;	.scl	3;	.type	32;	.endef
 476              	_dyn2_execute:
 477              	LFB4:
 478              		.loc 1 145 0
 479              		.cfi_startproc
 480 056d 83EC2C   		subl	$44, %esp	 #,
 481              	LCFI8:
 482              		.cfi_def_cfa_offset 48
 483              		.loc 1 147 0
 484 0570 A1180000 		movl	_rlist+24, %eax	 # rlist.r_current, D.2912
 484      00
 485 0575 8B4008   		movl	8(%eax), %eax	 # D.2912_4->p_prio, tmp137
 486 0578 89442418 		movl	%eax, 24(%esp)	 # tmp137, prio
 487              		.loc 1 150 0
 488 057c C744241C 		movl	$0, 28(%esp)	 #, i
 488      00000000 
 489 0584 EB57     		jmp	L12	 #
 490              	L13:
 491              		.loc 1 150 0 is_stmt 0 discriminator 2
 492 0586 A1980100 		movl	LPBX1+344, %eax	 # *LPBX1, PROF_edge_counter.8
 492      00
 493 058b 8B159C01 		movl	LPBX1+348, %edx	 # *LPBX1, PROF_edge_counter.8
 493      0000
 494 0591 83C001   		addl	$1, %eax	 #, PROF_edge_counter.8
 495 0594 83D200   		adcl	$0, %edx	 #, PROF_edge_counter.8
 496 0597 A3980100 		movl	%eax, LPBX1+344	 # PROF_edge_counter.8, *LPBX1
 496      00
 497 059c 89159C01 		movl	%edx, LPBX1+348	 # PROF_edge_counter.8, *LPBX1
 497      0000
 498              		.loc 1 151 0 is_stmt 1 discriminator 2
GAS LISTING C:\cygwin\tmp\cc422TGv.s 			page 13


 499 05a2 8B44241C 		movl	28(%esp), %eax	 # i, tmp138
 500 05a6 8B048500 		movl	_wa(,%eax,4), %eax	 # wa, D.2913
 500      000000
 501 05ad 89442404 		movl	%eax, 4(%esp)	 # D.2913,
 502 05b1 C7042430 		movl	$_mp1, (%esp)	 #,
 502      000000
 503 05b8 E8000000 		call	_chPoolFree	 #
 503      00
 504              		.loc 1 150 0 discriminator 2
 505 05bd FF44241C 		incl	28(%esp)	 # i
 506 05c1 A1900100 		movl	LPBX1+336, %eax	 # *LPBX1, PROF_edge_counter.8
 506      00
 507 05c6 8B159401 		movl	LPBX1+340, %edx	 # *LPBX1, PROF_edge_counter.8
 507      0000
 508 05cc 83C001   		addl	$1, %eax	 #, PROF_edge_counter.8
 509 05cf 83D200   		adcl	$0, %edx	 #, PROF_edge_counter.8
 510 05d2 A3900100 		movl	%eax, LPBX1+336	 # PROF_edge_counter.8, *LPBX1
 510      00
 511 05d7 89159401 		movl	%edx, LPBX1+340	 # PROF_edge_counter.8, *LPBX1
 511      0000
 512              	L12:
 513              		.loc 1 150 0 is_stmt 0 discriminator 1
 514 05dd 837C241C 		cmpl	$3, 28(%esp)	 #, i
 514      03
 515 05e2 7EA2     		jle	L13	 #,
 516              		.loc 1 150 0
 517 05e4 A1A00100 		movl	LPBX1+352, %eax	 # *LPBX1, PROF_edge_counter.8
 517      00
 518 05e9 8B15A401 		movl	LPBX1+356, %edx	 # *LPBX1, PROF_edge_counter.8
 518      0000
 519 05ef 83C001   		addl	$1, %eax	 #, PROF_edge_counter.8
 520 05f2 83D200   		adcl	$0, %edx	 #, PROF_edge_counter.8
 521 05f5 A3A00100 		movl	%eax, LPBX1+352	 # PROF_edge_counter.8, *LPBX1
 521      00
 522 05fa 8915A401 		movl	%edx, LPBX1+356	 # PROF_edge_counter.8, *LPBX1
 522      0000
 523              		.loc 1 154 0 is_stmt 1
 524 0600 8B442418 		movl	24(%esp), %eax	 # prio, tmp139
 525 0604 48       		decl	%eax	 # D.2914
 526 0605 C744240C 		movl	$LC0, 12(%esp)	 #,
 526      00000000 
 527 060d C7442408 		movl	$_thread, 8(%esp)	 #,
 527      00000000 
 528 0615 89442404 		movl	%eax, 4(%esp)	 # D.2914,
 529 0619 C7042430 		movl	$_mp1, (%esp)	 #,
 529      000000
 530 0620 E8000000 		call	_chThdCreateFromMemoryPool	 #
 530      00
 531 0625 89C1     		movl	%eax, %ecx	 #, D.2915
 532 0627 A1A80100 		movl	LPBX1+360, %eax	 # *LPBX1, PROF_edge_counter.8
 532      00
 533 062c 8B15AC01 		movl	LPBX1+364, %edx	 # *LPBX1, PROF_edge_counter.8
 533      0000
 534 0632 83C001   		addl	$1, %eax	 #, PROF_edge_counter.8
 535 0635 83D200   		adcl	$0, %edx	 #, PROF_edge_counter.8
 536 0638 A3A80100 		movl	%eax, LPBX1+360	 # PROF_edge_counter.8, *LPBX1
 536      00
GAS LISTING C:\cygwin\tmp\cc422TGv.s 			page 14


 537 063d 8915AC01 		movl	%edx, LPBX1+364	 # PROF_edge_counter.8, *LPBX1
 537      0000
 538 0643 890D0000 		movl	%ecx, _threads	 # D.2915, threads
 538      0000
 539              		.loc 1 155 0
 540 0649 8B442418 		movl	24(%esp), %eax	 # prio, tmp140
 541 064d 83E802   		subl	$2, %eax	 #, D.2916
 542 0650 C744240C 		movl	$LC1, 12(%esp)	 #,
 542      02000000 
 543 0658 C7442408 		movl	$_thread, 8(%esp)	 #,
 543      00000000 
 544 0660 89442404 		movl	%eax, 4(%esp)	 # D.2916,
 545 0664 C7042430 		movl	$_mp1, (%esp)	 #,
 545      000000
 546 066b E8000000 		call	_chThdCreateFromMemoryPool	 #
 546      00
 547 0670 89C1     		movl	%eax, %ecx	 #, D.2917
 548 0672 A1B00100 		movl	LPBX1+368, %eax	 # *LPBX1, PROF_edge_counter.8
 548      00
 549 0677 8B15B401 		movl	LPBX1+372, %edx	 # *LPBX1, PROF_edge_counter.8
 549      0000
 550 067d 83C001   		addl	$1, %eax	 #, PROF_edge_counter.8
 551 0680 83D200   		adcl	$0, %edx	 #, PROF_edge_counter.8
 552 0683 A3B00100 		movl	%eax, LPBX1+368	 # PROF_edge_counter.8, *LPBX1
 552      00
 553 0688 8915B401 		movl	%edx, LPBX1+372	 # PROF_edge_counter.8, *LPBX1
 553      0000
 554 068e 890D0400 		movl	%ecx, _threads+4	 # D.2917, threads
 554      0000
 555              		.loc 1 156 0
 556 0694 8B442418 		movl	24(%esp), %eax	 # prio, tmp141
 557 0698 83E803   		subl	$3, %eax	 #, D.2918
 558 069b C744240C 		movl	$LC2, 12(%esp)	 #,
 558      04000000 
 559 06a3 C7442408 		movl	$_thread, 8(%esp)	 #,
 559      00000000 
 560 06ab 89442404 		movl	%eax, 4(%esp)	 # D.2918,
 561 06af C7042430 		movl	$_mp1, (%esp)	 #,
 561      000000
 562 06b6 E8000000 		call	_chThdCreateFromMemoryPool	 #
 562      00
 563 06bb 89C1     		movl	%eax, %ecx	 #, D.2919
 564 06bd A1B80100 		movl	LPBX1+376, %eax	 # *LPBX1, PROF_edge_counter.8
 564      00
 565 06c2 8B15BC01 		movl	LPBX1+380, %edx	 # *LPBX1, PROF_edge_counter.8
 565      0000
 566 06c8 83C001   		addl	$1, %eax	 #, PROF_edge_counter.8
 567 06cb 83D200   		adcl	$0, %edx	 #, PROF_edge_counter.8
 568 06ce A3B80100 		movl	%eax, LPBX1+376	 # PROF_edge_counter.8, *LPBX1
 568      00
 569 06d3 8915BC01 		movl	%edx, LPBX1+380	 # PROF_edge_counter.8, *LPBX1
 569      0000
 570 06d9 890D0800 		movl	%ecx, _threads+8	 # D.2919, threads
 570      0000
 571              		.loc 1 157 0
 572 06df 8B442418 		movl	24(%esp), %eax	 # prio, tmp142
 573 06e3 83E804   		subl	$4, %eax	 #, D.2920
GAS LISTING C:\cygwin\tmp\cc422TGv.s 			page 15


 574 06e6 C744240C 		movl	$LC5, 12(%esp)	 #,
 574      48000000 
 575 06ee C7442408 		movl	$_thread, 8(%esp)	 #,
 575      00000000 
 576 06f6 89442404 		movl	%eax, 4(%esp)	 # D.2920,
 577 06fa C7042430 		movl	$_mp1, (%esp)	 #,
 577      000000
 578 0701 E8000000 		call	_chThdCreateFromMemoryPool	 #
 578      00
 579 0706 89C1     		movl	%eax, %ecx	 #, D.2921
 580 0708 A1C00100 		movl	LPBX1+384, %eax	 # *LPBX1, PROF_edge_counter.8
 580      00
 581 070d 8B15C401 		movl	LPBX1+388, %edx	 # *LPBX1, PROF_edge_counter.8
 581      0000
 582 0713 83C001   		addl	$1, %eax	 #, PROF_edge_counter.8
 583 0716 83D200   		adcl	$0, %edx	 #, PROF_edge_counter.8
 584 0719 A3C00100 		movl	%eax, LPBX1+384	 # PROF_edge_counter.8, *LPBX1
 584      00
 585 071e 8915C401 		movl	%edx, LPBX1+388	 # PROF_edge_counter.8, *LPBX1
 585      0000
 586 0724 890D0C00 		movl	%ecx, _threads+12	 # D.2921, threads
 586      0000
 587              		.loc 1 158 0
 588 072a 8B442418 		movl	24(%esp), %eax	 # prio, tmp143
 589 072e 83E805   		subl	$5, %eax	 #, D.2922
 590 0731 C744240C 		movl	$LC6, 12(%esp)	 #,
 590      4A000000 
 591 0739 C7442408 		movl	$_thread, 8(%esp)	 #,
 591      00000000 
 592 0741 89442404 		movl	%eax, 4(%esp)	 # D.2922,
 593 0745 C7042430 		movl	$_mp1, (%esp)	 #,
 593      000000
 594 074c E8000000 		call	_chThdCreateFromMemoryPool	 #
 594      00
 595 0751 A3100000 		movl	%eax, _threads+16	 # D.2923, threads
 595      00
 596              		.loc 1 160 0
 597 0756 A1000000 		movl	_threads, %eax	 # threads, D.2927
 597      00
 598 075b 85C0     		testl	%eax, %eax	 # D.2927
 599 075d 0F84BB00 		je	L14	 #,
 599      0000
 600              		.loc 1 160 0 is_stmt 0 discriminator 1
 601 0763 A1C80100 		movl	LPBX1+392, %eax	 # *LPBX1, PROF_edge_counter.8
 601      00
 602 0768 8B15CC01 		movl	LPBX1+396, %edx	 # *LPBX1, PROF_edge_counter.8
 602      0000
 603 076e 83C001   		addl	$1, %eax	 #, PROF_edge_counter.8
 604 0771 83D200   		adcl	$0, %edx	 #, PROF_edge_counter.8
 605 0774 A3C80100 		movl	%eax, LPBX1+392	 # PROF_edge_counter.8, *LPBX1
 605      00
 606 0779 8915CC01 		movl	%edx, LPBX1+396	 # PROF_edge_counter.8, *LPBX1
 606      0000
 607 077f A1040000 		movl	_threads+4, %eax	 # threads, D.2929
 607      00
 608 0784 85C0     		testl	%eax, %eax	 # D.2929
 609 0786 0F849200 		je	L14	 #,
GAS LISTING C:\cygwin\tmp\cc422TGv.s 			page 16


 609      0000
 610              		.loc 1 160 0 discriminator 3
 611 078c A1D00100 		movl	LPBX1+400, %eax	 # *LPBX1, PROF_edge_counter.8
 611      00
 612 0791 8B15D401 		movl	LPBX1+404, %edx	 # *LPBX1, PROF_edge_counter.8
 612      0000
 613 0797 83C001   		addl	$1, %eax	 #, PROF_edge_counter.8
 614 079a 83D200   		adcl	$0, %edx	 #, PROF_edge_counter.8
 615 079d A3D00100 		movl	%eax, LPBX1+400	 # PROF_edge_counter.8, *LPBX1
 615      00
 616 07a2 8915D401 		movl	%edx, LPBX1+404	 # PROF_edge_counter.8, *LPBX1
 616      0000
 617 07a8 A1080000 		movl	_threads+8, %eax	 # threads, D.2931
 617      00
 618 07ad 85C0     		testl	%eax, %eax	 # D.2931
 619 07af 746D     		je	L14	 #,
 620              		.loc 1 160 0 discriminator 4
 621 07b1 A1D80100 		movl	LPBX1+408, %eax	 # *LPBX1, PROF_edge_counter.8
 621      00
 622 07b6 8B15DC01 		movl	LPBX1+412, %edx	 # *LPBX1, PROF_edge_counter.8
 622      0000
 623 07bc 83C001   		addl	$1, %eax	 #, PROF_edge_counter.8
 624 07bf 83D200   		adcl	$0, %edx	 #, PROF_edge_counter.8
 625 07c2 A3D80100 		movl	%eax, LPBX1+408	 # PROF_edge_counter.8, *LPBX1
 625      00
 626 07c7 8915DC01 		movl	%edx, LPBX1+412	 # PROF_edge_counter.8, *LPBX1
 626      0000
 627 07cd A10C0000 		movl	_threads+12, %eax	 # threads, D.2933
 627      00
 628 07d2 85C0     		testl	%eax, %eax	 # D.2933
 629 07d4 7448     		je	L14	 #,
 630              		.loc 1 160 0 discriminator 5
 631 07d6 A1E00100 		movl	LPBX1+416, %eax	 # *LPBX1, PROF_edge_counter.8
 631      00
 632 07db 8B15E401 		movl	LPBX1+420, %edx	 # *LPBX1, PROF_edge_counter.8
 632      0000
 633 07e1 83C001   		addl	$1, %eax	 #, PROF_edge_counter.8
 634 07e4 83D200   		adcl	$0, %edx	 #, PROF_edge_counter.8
 635 07e7 A3E00100 		movl	%eax, LPBX1+416	 # PROF_edge_counter.8, *LPBX1
 635      00
 636 07ec 8915E401 		movl	%edx, LPBX1+420	 # PROF_edge_counter.8, *LPBX1
 636      0000
 637 07f2 A1100000 		movl	_threads+16, %eax	 # threads, D.2935
 637      00
 638 07f7 85C0     		testl	%eax, %eax	 # D.2935
 639 07f9 7523     		jne	L14	 #,
 640              		.loc 1 160 0 discriminator 6
 641 07fb B9010000 		movl	$1, %ecx	 #, iftmp.0
 641      00
 642 0800 A1E80100 		movl	LPBX1+424, %eax	 # *LPBX1, PROF_edge_counter.8
 642      00
 643 0805 8B15EC01 		movl	LPBX1+428, %edx	 # *LPBX1, PROF_edge_counter.8
 643      0000
 644 080b 83C001   		addl	$1, %eax	 #, PROF_edge_counter.8
 645 080e 83D200   		adcl	$0, %edx	 #, PROF_edge_counter.8
 646 0811 A3E80100 		movl	%eax, LPBX1+424	 # PROF_edge_counter.8, *LPBX1
 646      00
GAS LISTING C:\cygwin\tmp\cc422TGv.s 			page 17


 647 0816 8915EC01 		movl	%edx, LPBX1+428	 # PROF_edge_counter.8, *LPBX1
 647      0000
 648 081c EB21     		jmp	L15	 #
 649              	L14:
 650              		.loc 1 160 0 discriminator 2
 651 081e B9000000 		movl	$0, %ecx	 #, iftmp.0
 651      00
 652 0823 A1F00100 		movl	LPBX1+432, %eax	 # *LPBX1, PROF_edge_counter.8
 652      00
 653 0828 8B15F401 		movl	LPBX1+436, %edx	 # *LPBX1, PROF_edge_counter.8
 653      0000
 654 082e 83C001   		addl	$1, %eax	 #, PROF_edge_counter.8
 655 0831 83D200   		adcl	$0, %edx	 #, PROF_edge_counter.8
 656 0834 A3F00100 		movl	%eax, LPBX1+432	 # PROF_edge_counter.8, *LPBX1
 656      00
 657 0839 8915F401 		movl	%edx, LPBX1+436	 # PROF_edge_counter.8, *LPBX1
 657      0000
 658              	L15:
 659              		.loc 1 160 0 discriminator 7
 660 083f 88C8     		movb	%cl, %al	 # iftmp.0, D.2937
 661 0841 0FB6C0   		movzbl	%al, %eax	 # D.2937, D.2938
 662 0844 89442404 		movl	%eax, 4(%esp)	 # D.2938,
 663 0848 C7042401 		movl	$1, (%esp)	 #,
 663      000000
 664 084f E8000000 		call	__test_assert	 #
 664      00
 665 0854 84C0     		testb	%al, %al	 # D.2939
 666 0856 7421     		je	L16	 #,
 667              		.loc 1 160 0 discriminator 8
 668 0858 A1000200 		movl	LPBX1+448, %eax	 # *LPBX1, PROF_edge_counter.8
 668      00
 669 085d 8B150402 		movl	LPBX1+452, %edx	 # *LPBX1, PROF_edge_counter.8
 669      0000
 670 0863 83C001   		addl	$1, %eax	 #, PROF_edge_counter.8
 671 0866 83D200   		adcl	$0, %edx	 #, PROF_edge_counter.8
 672 0869 A3000200 		movl	%eax, LPBX1+448	 # PROF_edge_counter.8, *LPBX1
 672      00
 673 086e 89150402 		movl	%edx, LPBX1+452	 # PROF_edge_counter.8, *LPBX1
 673      0000
 674 0874 E9CD0100 		jmp	L11	 #
 674      00
 675              	L16:
 676              		.loc 1 160 0
 677 0879 A1F80100 		movl	LPBX1+440, %eax	 # *LPBX1, PROF_edge_counter.8
 677      00
 678 087e 8B15FC01 		movl	LPBX1+444, %edx	 # *LPBX1, PROF_edge_counter.8
 678      0000
 679 0884 83C001   		addl	$1, %eax	 #, PROF_edge_counter.8
 680 0887 83D200   		adcl	$0, %edx	 #, PROF_edge_counter.8
 681 088a A3F80100 		movl	%eax, LPBX1+440	 # PROF_edge_counter.8, *LPBX1
 681      00
 682 088f 8915FC01 		movl	%edx, LPBX1+444	 # PROF_edge_counter.8, *LPBX1
 682      0000
 683              		.loc 1 168 0 is_stmt 1
 684 0895 E8000000 		call	_test_wait_threads	 #
 684      00
 685 089a A1080200 		movl	LPBX1+456, %eax	 # *LPBX1, PROF_edge_counter.8
GAS LISTING C:\cygwin\tmp\cc422TGv.s 			page 18


 685      00
 686 089f 8B150C02 		movl	LPBX1+460, %edx	 # *LPBX1, PROF_edge_counter.8
 686      0000
 687 08a5 83C001   		addl	$1, %eax	 #, PROF_edge_counter.8
 688 08a8 83D200   		adcl	$0, %edx	 #, PROF_edge_counter.8
 689 08ab A3080200 		movl	%eax, LPBX1+456	 # PROF_edge_counter.8, *LPBX1
 689      00
 690 08b0 89150C02 		movl	%edx, LPBX1+460	 # PROF_edge_counter.8, *LPBX1
 690      0000
 691              		.loc 1 169 0
 692 08b6 C7442404 		movl	$LC7, 4(%esp)	 #,
 692      4C000000 
 693 08be C7042402 		movl	$2, (%esp)	 #,
 693      000000
 694 08c5 E8000000 		call	__test_assert_sequence	 #
 694      00
 695 08ca 84C0     		testb	%al, %al	 # D.2942
 696 08cc 7421     		je	L18	 #,
 697              		.loc 1 169 0 is_stmt 0 discriminator 1
 698 08ce A1100200 		movl	LPBX1+464, %eax	 # *LPBX1, PROF_edge_counter.8
 698      00
 699 08d3 8B151402 		movl	LPBX1+468, %edx	 # *LPBX1, PROF_edge_counter.8
 699      0000
 700 08d9 83C001   		addl	$1, %eax	 #, PROF_edge_counter.8
 701 08dc 83D200   		adcl	$0, %edx	 #, PROF_edge_counter.8
 702 08df A3100200 		movl	%eax, LPBX1+464	 # PROF_edge_counter.8, *LPBX1
 702      00
 703 08e4 89151402 		movl	%edx, LPBX1+468	 # PROF_edge_counter.8, *LPBX1
 703      0000
 704 08ea E9570100 		jmp	L11	 #
 704      00
 705              	L18:
 706              		.loc 1 172 0 is_stmt 1
 707 08ef C744241C 		movl	$0, 28(%esp)	 #, i
 707      00000000 
 708 08f7 E9A30000 		jmp	L19	 #
 708      00
 709              	L21:
 710 08fc A1300200 		movl	LPBX1+496, %eax	 # *LPBX1, PROF_edge_counter.8
 710      00
 711 0901 8B153402 		movl	LPBX1+500, %edx	 # *LPBX1, PROF_edge_counter.8
 711      0000
 712 0907 83C001   		addl	$1, %eax	 #, PROF_edge_counter.8
 713 090a 83D200   		adcl	$0, %edx	 #, PROF_edge_counter.8
 714 090d A3300200 		movl	%eax, LPBX1+496	 # PROF_edge_counter.8, *LPBX1
 714      00
 715 0912 89153402 		movl	%edx, LPBX1+500	 # PROF_edge_counter.8, *LPBX1
 715      0000
 716              		.loc 1 173 0
 717 0918 C7042430 		movl	$_mp1, (%esp)	 #,
 717      000000
 718 091f E8000000 		call	_chPoolAlloc	 #
 718      00
 719 0924 89C1     		movl	%eax, %ecx	 #, D.2945
 720 0926 A1180200 		movl	LPBX1+472, %eax	 # *LPBX1, PROF_edge_counter.8
 720      00
 721 092b 8B151C02 		movl	LPBX1+476, %edx	 # *LPBX1, PROF_edge_counter.8
GAS LISTING C:\cygwin\tmp\cc422TGv.s 			page 19


 721      0000
 722 0931 83C001   		addl	$1, %eax	 #, PROF_edge_counter.8
 723 0934 83D200   		adcl	$0, %edx	 #, PROF_edge_counter.8
 724 0937 A3180200 		movl	%eax, LPBX1+472	 # PROF_edge_counter.8, *LPBX1
 724      00
 725 093c 89151C02 		movl	%edx, LPBX1+476	 # PROF_edge_counter.8, *LPBX1
 725      0000
 726 0942 85C9     		testl	%ecx, %ecx	 # D.2945
 727 0944 0F95C0   		setne	%al	 #, tmp144
 728 0947 0FB6C0   		movzbl	%al, %eax	 # tmp144, D.2946
 729 094a 89442404 		movl	%eax, 4(%esp)	 # D.2946,
 730 094e C7042403 		movl	$3, (%esp)	 #,
 730      000000
 731 0955 E8000000 		call	__test_assert	 #
 731      00
 732 095a 84C0     		testb	%al, %al	 # D.2947
 733 095c 7421     		je	L20	 #,
 734              		.loc 1 173 0 is_stmt 0 discriminator 1
 735 095e A1200200 		movl	LPBX1+480, %eax	 # *LPBX1, PROF_edge_counter.8
 735      00
 736 0963 8B152402 		movl	LPBX1+484, %edx	 # *LPBX1, PROF_edge_counter.8
 736      0000
 737 0969 83C001   		addl	$1, %eax	 #, PROF_edge_counter.8
 738 096c 83D200   		adcl	$0, %edx	 #, PROF_edge_counter.8
 739 096f A3200200 		movl	%eax, LPBX1+480	 # PROF_edge_counter.8, *LPBX1
 739      00
 740 0974 89152402 		movl	%edx, LPBX1+484	 # PROF_edge_counter.8, *LPBX1
 740      0000
 741 097a E9C70000 		jmp	L11	 #
 741      00
 742              	L20:
 743              		.loc 1 172 0 is_stmt 1
 744 097f FF44241C 		incl	28(%esp)	 # i
 745 0983 A1280200 		movl	LPBX1+488, %eax	 # *LPBX1, PROF_edge_counter.8
 745      00
 746 0988 8B152C02 		movl	LPBX1+492, %edx	 # *LPBX1, PROF_edge_counter.8
 746      0000
 747 098e 83C001   		addl	$1, %eax	 #, PROF_edge_counter.8
 748 0991 83D200   		adcl	$0, %edx	 #, PROF_edge_counter.8
 749 0994 A3280200 		movl	%eax, LPBX1+488	 # PROF_edge_counter.8, *LPBX1
 749      00
 750 0999 89152C02 		movl	%edx, LPBX1+492	 # PROF_edge_counter.8, *LPBX1
 750      0000
 751              	L19:
 752              		.loc 1 172 0 is_stmt 0 discriminator 1
 753 099f 837C241C 		cmpl	$3, 28(%esp)	 #, i
 753      03
 754 09a4 0F8E52FF 		jle	L21	 #,
 754      FFFF
 755              		.loc 1 172 0
 756 09aa A1380200 		movl	LPBX1+504, %eax	 # *LPBX1, PROF_edge_counter.8
 756      00
 757 09af 8B153C02 		movl	LPBX1+508, %edx	 # *LPBX1, PROF_edge_counter.8
 757      0000
 758 09b5 83C001   		addl	$1, %eax	 #, PROF_edge_counter.8
 759 09b8 83D200   		adcl	$0, %edx	 #, PROF_edge_counter.8
 760 09bb A3380200 		movl	%eax, LPBX1+504	 # PROF_edge_counter.8, *LPBX1
GAS LISTING C:\cygwin\tmp\cc422TGv.s 			page 20


 760      00
 761 09c0 89153C02 		movl	%edx, LPBX1+508	 # PROF_edge_counter.8, *LPBX1
 761      0000
 762              		.loc 1 174 0 is_stmt 1
 763 09c6 C7042430 		movl	$_mp1, (%esp)	 #,
 763      000000
 764 09cd E8000000 		call	_chPoolAlloc	 #
 764      00
 765 09d2 89C1     		movl	%eax, %ecx	 #, D.2950
 766 09d4 A1400200 		movl	LPBX1+512, %eax	 # *LPBX1, PROF_edge_counter.8
 766      00
 767 09d9 8B154402 		movl	LPBX1+516, %edx	 # *LPBX1, PROF_edge_counter.8
 767      0000
 768 09df 83C001   		addl	$1, %eax	 #, PROF_edge_counter.8
 769 09e2 83D200   		adcl	$0, %edx	 #, PROF_edge_counter.8
 770 09e5 A3400200 		movl	%eax, LPBX1+512	 # PROF_edge_counter.8, *LPBX1
 770      00
 771 09ea 89154402 		movl	%edx, LPBX1+516	 # PROF_edge_counter.8, *LPBX1
 771      0000
 772 09f0 85C9     		testl	%ecx, %ecx	 # D.2950
 773 09f2 0F94C0   		sete	%al	 #, tmp145
 774 09f5 0FB6C0   		movzbl	%al, %eax	 # tmp145, D.2951
 775 09f8 89442404 		movl	%eax, 4(%esp)	 # D.2951,
 776 09fc C7042404 		movl	$4, (%esp)	 #,
 776      000000
 777 0a03 E8000000 		call	__test_assert	 #
 777      00
 778 0a08 88C1     		movb	%al, %cl	 #, D.2952
 779 0a0a A1480200 		movl	LPBX1+520, %eax	 # *LPBX1, PROF_edge_counter.8
 779      00
 780 0a0f 8B154C02 		movl	LPBX1+524, %edx	 # *LPBX1, PROF_edge_counter.8
 780      0000
 781 0a15 83C001   		addl	$1, %eax	 #, PROF_edge_counter.8
 782 0a18 83D200   		adcl	$0, %edx	 #, PROF_edge_counter.8
 783 0a1b A3480200 		movl	%eax, LPBX1+520	 # PROF_edge_counter.8, *LPBX1
 783      00
 784 0a20 89154C02 		movl	%edx, LPBX1+524	 # PROF_edge_counter.8, *LPBX1
 784      0000
 785 0a26 84C9     		testb	%cl, %cl	 # D.2952
 786 0a28 741C     		je	L11	 #,
 787              		.loc 1 174 0 is_stmt 0 discriminator 1
 788 0a2a A1500200 		movl	LPBX1+528, %eax	 # *LPBX1, PROF_edge_counter.8
 788      00
 789 0a2f 8B155402 		movl	LPBX1+532, %edx	 # *LPBX1, PROF_edge_counter.8
 789      0000
 790 0a35 83C001   		addl	$1, %eax	 #, PROF_edge_counter.8
 791 0a38 83D200   		adcl	$0, %edx	 #, PROF_edge_counter.8
 792 0a3b A3500200 		movl	%eax, LPBX1+528	 # PROF_edge_counter.8, *LPBX1
 792      00
 793 0a40 89155402 		movl	%edx, LPBX1+532	 # PROF_edge_counter.8, *LPBX1
 793      0000
 794              	L11:
 795              		.loc 1 175 0 is_stmt 1
 796 0a46 83C42C   		addl	$44, %esp	 #,
 797              	LCFI9:
 798              		.cfi_def_cfa_offset 4
 799 0a49 C3       		ret
GAS LISTING C:\cygwin\tmp\cc422TGv.s 			page 21


 800              		.cfi_endproc
 801              	LFE4:
 802              		.globl	_testdyn2
 803              		.section .rdata,"dr"
 804 0051 000000   		.align 4
 805              	LC8:
 806 0054 44796E61 		.ascii "Dynamic APIs, threads creation from memory pool\0"
 806      6D696320 
 806      41504973 
 806      2C207468 
 806      72656164 
 807              		.align 4
 808              	_testdyn2:
 809              	 # name:
 810 0084 54000000 		.long	LC8
 811              	 # setup:
 812 0088 12050000 		.long	_dyn2_setup
 813              	 # teardown:
 814 008c 00000000 		.long	0
 815              	 # execute:
 816 0090 6D050000 		.long	_dyn2_execute
 817              		.text
 818              		.def	_regfind;	.scl	3;	.type	32;	.endef
 819              	_regfind:
 820              	LFB5:
 821              		.loc 1 195 0
 822              		.cfi_startproc
 823 0a4a 83EC2C   		subl	$44, %esp	 #,
 824              	LCFI10:
 825              		.cfi_def_cfa_offset 48
 826              		.loc 1 195 0
 827 0a4d A1700100 		movl	LPBX1+304, %eax	 # *LPBX1, PROF_edge_counter.7
 827      00
 828 0a52 8B157401 		movl	LPBX1+308, %edx	 # *LPBX1, PROF_edge_counter.7
 828      0000
 829 0a58 83C001   		addl	$1, %eax	 #, PROF_edge_counter.7
 830 0a5b 83D200   		adcl	$0, %edx	 #, PROF_edge_counter.7
 831 0a5e A3700100 		movl	%eax, LPBX1+304	 # PROF_edge_counter.7, *LPBX1
 831      00
 832 0a63 89157401 		movl	%edx, LPBX1+308	 # PROF_edge_counter.7, *LPBX1
 832      0000
 833              		.loc 1 197 0
 834 0a69 C644241B 		movb	$0, 27(%esp)	 #, found
 834      00
 835              		.loc 1 199 0
 836 0a6e E8000000 		call	_chRegFirstThread	 #
 836      00
 837 0a73 8944241C 		movl	%eax, 28(%esp)	 # tmp72, ftp
 838 0a77 A1780100 		movl	LPBX1+312, %eax	 # *LPBX1, PROF_edge_counter.7
 838      00
 839 0a7c 8B157C01 		movl	LPBX1+316, %edx	 # *LPBX1, PROF_edge_counter.7
 839      0000
 840 0a82 83C001   		addl	$1, %eax	 #, PROF_edge_counter.7
 841 0a85 83D200   		adcl	$0, %edx	 #, PROF_edge_counter.7
 842 0a88 A3780100 		movl	%eax, LPBX1+312	 # PROF_edge_counter.7, *LPBX1
 842      00
 843 0a8d 89157C01 		movl	%edx, LPBX1+316	 # PROF_edge_counter.7, *LPBX1
GAS LISTING C:\cygwin\tmp\cc422TGv.s 			page 22


 843      0000
 844              	L23:
 845              		.loc 1 201 0 discriminator 1
 846 0a93 0FB65424 		movzbl	27(%esp), %edx	 # found, D.2907
 846      1B
 847 0a98 8B44241C 		movl	28(%esp), %eax	 # ftp, tmp74
 848 0a9c 3B442430 		cmpl	48(%esp), %eax	 # tp, tmp74
 849 0aa0 0F94C0   		sete	%al	 #, tmp73
 850 0aa3 0FB6C0   		movzbl	%al, %eax	 # tmp73, D.2908
 851 0aa6 09D0     		orl	%edx, %eax	 # D.2907, D.2909
 852 0aa8 85C0     		testl	%eax, %eax	 # D.2909
 853 0aaa 0F95C0   		setne	%al	 #, tmp75
 854 0aad 8844241B 		movb	%al, 27(%esp)	 # tmp75, found
 855              		.loc 1 202 0 discriminator 1
 856 0ab1 8B44241C 		movl	28(%esp), %eax	 # ftp, tmp76
 857 0ab5 890424   		movl	%eax, (%esp)	 # tmp76,
 858 0ab8 E8000000 		call	_chRegNextThread	 #
 858      00
 859 0abd 8944241C 		movl	%eax, 28(%esp)	 # tmp77, ftp
 860 0ac1 A1800100 		movl	LPBX1+320, %eax	 # *LPBX1, PROF_edge_counter.7
 860      00
 861 0ac6 8B158401 		movl	LPBX1+324, %edx	 # *LPBX1, PROF_edge_counter.7
 861      0000
 862 0acc 83C001   		addl	$1, %eax	 #, PROF_edge_counter.7
 863 0acf 83D200   		adcl	$0, %edx	 #, PROF_edge_counter.7
 864 0ad2 A3800100 		movl	%eax, LPBX1+320	 # PROF_edge_counter.7, *LPBX1
 864      00
 865 0ad7 89158401 		movl	%edx, LPBX1+324	 # PROF_edge_counter.7, *LPBX1
 865      0000
 866              		.loc 1 203 0 discriminator 1
 867 0add 837C241C 		cmpl	$0, 28(%esp)	 #, ftp
 867      00
 868 0ae2 75AF     		jne	L23	 #,
 869              		.loc 1 203 0 is_stmt 0
 870 0ae4 A1880100 		movl	LPBX1+328, %eax	 # *LPBX1, PROF_edge_counter.7
 870      00
 871 0ae9 8B158C01 		movl	LPBX1+332, %edx	 # *LPBX1, PROF_edge_counter.7
 871      0000
 872 0aef 83C001   		addl	$1, %eax	 #, PROF_edge_counter.7
 873 0af2 83D200   		adcl	$0, %edx	 #, PROF_edge_counter.7
 874 0af5 A3880100 		movl	%eax, LPBX1+328	 # PROF_edge_counter.7, *LPBX1
 874      00
 875 0afa 89158C01 		movl	%edx, LPBX1+332	 # PROF_edge_counter.7, *LPBX1
 875      0000
 876              		.loc 1 204 0 is_stmt 1
 877 0b00 8A44241B 		movb	27(%esp), %al	 # found, D.2910
 878              		.loc 1 205 0
 879 0b04 83C42C   		addl	$44, %esp	 #,
 880              	LCFI11:
 881              		.cfi_def_cfa_offset 4
 882 0b07 C3       		ret
 883              		.cfi_endproc
 884              	LFE5:
 885              		.def	_dyn3_setup;	.scl	3;	.type	32;	.endef
 886              	_dyn3_setup:
 887              	LFB6:
 888              		.loc 1 207 0
GAS LISTING C:\cygwin\tmp\cc422TGv.s 			page 23


 889              		.cfi_startproc
 890 0b08 83EC1C   		subl	$28, %esp	 #,
 891              	LCFI12:
 892              		.cfi_def_cfa_offset 32
 893              		.loc 1 207 0
 894 0b0b A1600100 		movl	LPBX1+288, %eax	 # *LPBX1, PROF_edge_counter.6
 894      00
 895 0b10 8B156401 		movl	LPBX1+292, %edx	 # *LPBX1, PROF_edge_counter.6
 895      0000
 896 0b16 83C001   		addl	$1, %eax	 #, PROF_edge_counter.6
 897 0b19 83D200   		adcl	$0, %edx	 #, PROF_edge_counter.6
 898 0b1c A3600100 		movl	%eax, LPBX1+288	 # PROF_edge_counter.6, *LPBX1
 898      00
 899 0b21 89156401 		movl	%edx, LPBX1+292	 # PROF_edge_counter.6, *LPBX1
 899      0000
 900              		.loc 1 209 0
 901 0b27 C7442408 		movl	$85040, 8(%esp)	 #,
 901      304C0100 
 902 0b2f C7442404 		movl	$_test, 4(%esp)	 #,
 902      00000000 
 903 0b37 C7042400 		movl	$_heap1, (%esp)	 #,
 903      000000
 904 0b3e E8000000 		call	_chHeapInit	 #
 904      00
 905 0b43 A1680100 		movl	LPBX1+296, %eax	 # *LPBX1, PROF_edge_counter.6
 905      00
 906 0b48 8B156C01 		movl	LPBX1+300, %edx	 # *LPBX1, PROF_edge_counter.6
 906      0000
 907 0b4e 83C001   		addl	$1, %eax	 #, PROF_edge_counter.6
 908 0b51 83D200   		adcl	$0, %edx	 #, PROF_edge_counter.6
 909 0b54 A3680100 		movl	%eax, LPBX1+296	 # PROF_edge_counter.6, *LPBX1
 909      00
 910 0b59 89156C01 		movl	%edx, LPBX1+300	 # PROF_edge_counter.6, *LPBX1
 910      0000
 911              		.loc 1 210 0
 912 0b5f 83C41C   		addl	$28, %esp	 #,
 913              	LCFI13:
 914              		.cfi_def_cfa_offset 4
 915 0b62 C3       		ret
 916              		.cfi_endproc
 917              	LFE6:
 918              		.def	_dyn3_execute;	.scl	3;	.type	32;	.endef
 919              	_dyn3_execute:
 920              	LFB7:
 921              		.loc 1 212 0
 922              		.cfi_startproc
 923 0b63 83EC3C   		subl	$60, %esp	 #,
 924              	LCFI14:
 925              		.cfi_def_cfa_offset 64
 926              		.loc 1 212 0
 927 0b66 A1400000 		movl	LPBX1, %eax	 # *LPBX1, PROF_edge_counter.5
 927      00
 928 0b6b 8B154400 		movl	LPBX1+4, %edx	 # *LPBX1, PROF_edge_counter.5
 928      0000
 929 0b71 83C001   		addl	$1, %eax	 #, PROF_edge_counter.5
 930 0b74 83D200   		adcl	$0, %edx	 #, PROF_edge_counter.5
 931 0b77 A3400000 		movl	%eax, LPBX1	 # PROF_edge_counter.5, *LPBX1
GAS LISTING C:\cygwin\tmp\cc422TGv.s 			page 24


 931      00
 932 0b7c 89154400 		movl	%edx, LPBX1+4	 # PROF_edge_counter.5, *LPBX1
 932      0000
 933              		.loc 1 214 0
 934 0b82 A1180000 		movl	_rlist+24, %eax	 # rlist.r_current, D.2839
 934      00
 935 0b87 8B4008   		movl	8(%eax), %eax	 # D.2839_1->p_prio, tmp174
 936 0b8a 8944242C 		movl	%eax, 44(%esp)	 # tmp174, prio
 937              		.loc 1 217 0
 938 0b8e 8B44242C 		movl	44(%esp), %eax	 # prio, tmp175
 939 0b92 48       		decl	%eax	 # D.2840
 940 0b93 C7442410 		movl	$LC0, 16(%esp)	 #,
 940      00000000 
 941 0b9b C744240C 		movl	$_thread, 12(%esp)	 #,
 941      00000000 
 942 0ba3 89442408 		movl	%eax, 8(%esp)	 # D.2840,
 943 0ba7 C7442404 		movl	$17008, 4(%esp)	 #,
 943      70420000 
 944 0baf C7042400 		movl	$_heap1, (%esp)	 #,
 944      000000
 945 0bb6 E8000000 		call	_chThdCreateFromHeap	 #
 945      00
 946 0bbb 89442428 		movl	%eax, 40(%esp)	 # tmp176, tp
 947 0bbf A1480000 		movl	LPBX1+8, %eax	 # *LPBX1, PROF_edge_counter.5
 947      00
 948 0bc4 8B154C00 		movl	LPBX1+12, %edx	 # *LPBX1, PROF_edge_counter.5
 948      0000
 949 0bca 83C001   		addl	$1, %eax	 #, PROF_edge_counter.5
 950 0bcd 83D200   		adcl	$0, %edx	 #, PROF_edge_counter.5
 951 0bd0 A3480000 		movl	%eax, LPBX1+8	 # PROF_edge_counter.5, *LPBX1
 951      00
 952 0bd5 89154C00 		movl	%edx, LPBX1+12	 # PROF_edge_counter.5, *LPBX1
 952      0000
 953              		.loc 1 218 0
 954 0bdb 8B442428 		movl	40(%esp), %eax	 # tp, tmp177
 955 0bdf 8A401E   		movb	30(%eax), %al	 # tp_4->p_refs, D.2841
 956 0be2 3C01     		cmpb	$1, %al	 #, D.2841
 957 0be4 0F94C0   		sete	%al	 #, tmp178
 958 0be7 0FB6C0   		movzbl	%al, %eax	 # tmp178, D.2842
 959 0bea 89442404 		movl	%eax, 4(%esp)	 # D.2842,
 960 0bee C7042401 		movl	$1, (%esp)	 #,
 960      000000
 961 0bf5 E8000000 		call	__test_assert	 #
 961      00
 962 0bfa 84C0     		testb	%al, %al	 # D.2843
 963 0bfc 7421     		je	L26	 #,
 964              		.loc 1 218 0 is_stmt 0 discriminator 1
 965 0bfe A1580000 		movl	LPBX1+24, %eax	 # *LPBX1, PROF_edge_counter.5
 965      00
 966 0c03 8B155C00 		movl	LPBX1+28, %edx	 # *LPBX1, PROF_edge_counter.5
 966      0000
 967 0c09 83C001   		addl	$1, %eax	 #, PROF_edge_counter.5
 968 0c0c 83D200   		adcl	$0, %edx	 #, PROF_edge_counter.5
 969 0c0f A3580000 		movl	%eax, LPBX1+24	 # PROF_edge_counter.5, *LPBX1
 969      00
 970 0c14 89155C00 		movl	%edx, LPBX1+28	 # PROF_edge_counter.5, *LPBX1
 970      0000
GAS LISTING C:\cygwin\tmp\cc422TGv.s 			page 25


 971 0c1a E99B0500 		jmp	L25	 #
 971      00
 972              	L26:
 973              		.loc 1 218 0
 974 0c1f A1500000 		movl	LPBX1+16, %eax	 # *LPBX1, PROF_edge_counter.5
 974      00
 975 0c24 8B155400 		movl	LPBX1+20, %edx	 # *LPBX1, PROF_edge_counter.5
 975      0000
 976 0c2a 83C001   		addl	$1, %eax	 #, PROF_edge_counter.5
 977 0c2d 83D200   		adcl	$0, %edx	 #, PROF_edge_counter.5
 978 0c30 A3500000 		movl	%eax, LPBX1+16	 # PROF_edge_counter.5, *LPBX1
 978      00
 979 0c35 89155400 		movl	%edx, LPBX1+20	 # PROF_edge_counter.5, *LPBX1
 979      0000
 980              		.loc 1 219 0 is_stmt 1
 981 0c3b 8B442428 		movl	40(%esp), %eax	 # tp, tmp179
 982 0c3f 890424   		movl	%eax, (%esp)	 # tmp179,
 983 0c42 E8000000 		call	_chThdAddRef	 #
 983      00
 984 0c47 A1600000 		movl	LPBX1+32, %eax	 # *LPBX1, PROF_edge_counter.5
 984      00
 985 0c4c 8B156400 		movl	LPBX1+36, %edx	 # *LPBX1, PROF_edge_counter.5
 985      0000
 986 0c52 83C001   		addl	$1, %eax	 #, PROF_edge_counter.5
 987 0c55 83D200   		adcl	$0, %edx	 #, PROF_edge_counter.5
 988 0c58 A3600000 		movl	%eax, LPBX1+32	 # PROF_edge_counter.5, *LPBX1
 988      00
 989 0c5d 89156400 		movl	%edx, LPBX1+36	 # PROF_edge_counter.5, *LPBX1
 989      0000
 990              		.loc 1 220 0
 991 0c63 8B442428 		movl	40(%esp), %eax	 # tp, tmp180
 992 0c67 8A401E   		movb	30(%eax), %al	 # tp_4->p_refs, D.2846
 993 0c6a 3C02     		cmpb	$2, %al	 #, D.2846
 994 0c6c 0F94C0   		sete	%al	 #, tmp181
 995 0c6f 0FB6C0   		movzbl	%al, %eax	 # tmp181, D.2847
 996 0c72 89442404 		movl	%eax, 4(%esp)	 # D.2847,
 997 0c76 C7042402 		movl	$2, (%esp)	 #,
 997      000000
 998 0c7d E8000000 		call	__test_assert	 #
 998      00
 999 0c82 84C0     		testb	%al, %al	 # D.2848
 1000 0c84 7421     		je	L28	 #,
 1001              		.loc 1 220 0 is_stmt 0 discriminator 1
 1002 0c86 A1700000 		movl	LPBX1+48, %eax	 # *LPBX1, PROF_edge_counter.5
 1002      00
 1003 0c8b 8B157400 		movl	LPBX1+52, %edx	 # *LPBX1, PROF_edge_counter.5
 1003      0000
 1004 0c91 83C001   		addl	$1, %eax	 #, PROF_edge_counter.5
 1005 0c94 83D200   		adcl	$0, %edx	 #, PROF_edge_counter.5
 1006 0c97 A3700000 		movl	%eax, LPBX1+48	 # PROF_edge_counter.5, *LPBX1
 1006      00
 1007 0c9c 89157400 		movl	%edx, LPBX1+52	 # PROF_edge_counter.5, *LPBX1
 1007      0000
 1008 0ca2 E9130500 		jmp	L25	 #
 1008      00
 1009              	L28:
 1010              		.loc 1 220 0
GAS LISTING C:\cygwin\tmp\cc422TGv.s 			page 26


 1011 0ca7 A1680000 		movl	LPBX1+40, %eax	 # *LPBX1, PROF_edge_counter.5
 1011      00
 1012 0cac 8B156C00 		movl	LPBX1+44, %edx	 # *LPBX1, PROF_edge_counter.5
 1012      0000
 1013 0cb2 83C001   		addl	$1, %eax	 #, PROF_edge_counter.5
 1014 0cb5 83D200   		adcl	$0, %edx	 #, PROF_edge_counter.5
 1015 0cb8 A3680000 		movl	%eax, LPBX1+40	 # PROF_edge_counter.5, *LPBX1
 1015      00
 1016 0cbd 89156C00 		movl	%edx, LPBX1+44	 # PROF_edge_counter.5, *LPBX1
 1016      0000
 1017              		.loc 1 221 0 is_stmt 1
 1018 0cc3 8B442428 		movl	40(%esp), %eax	 # tp, tmp182
 1019 0cc7 890424   		movl	%eax, (%esp)	 # tmp182,
 1020 0cca E8000000 		call	_chThdRelease	 #
 1020      00
 1021 0ccf A1780000 		movl	LPBX1+56, %eax	 # *LPBX1, PROF_edge_counter.5
 1021      00
 1022 0cd4 8B157C00 		movl	LPBX1+60, %edx	 # *LPBX1, PROF_edge_counter.5
 1022      0000
 1023 0cda 83C001   		addl	$1, %eax	 #, PROF_edge_counter.5
 1024 0cdd 83D200   		adcl	$0, %edx	 #, PROF_edge_counter.5
 1025 0ce0 A3780000 		movl	%eax, LPBX1+56	 # PROF_edge_counter.5, *LPBX1
 1025      00
 1026 0ce5 89157C00 		movl	%edx, LPBX1+60	 # PROF_edge_counter.5, *LPBX1
 1026      0000
 1027              		.loc 1 222 0
 1028 0ceb 8B442428 		movl	40(%esp), %eax	 # tp, tmp183
 1029 0cef 8A401E   		movb	30(%eax), %al	 # tp_4->p_refs, D.2851
 1030 0cf2 3C01     		cmpb	$1, %al	 #, D.2851
 1031 0cf4 0F94C0   		sete	%al	 #, tmp184
 1032 0cf7 0FB6C0   		movzbl	%al, %eax	 # tmp184, D.2852
 1033 0cfa 89442404 		movl	%eax, 4(%esp)	 # D.2852,
 1034 0cfe C7042403 		movl	$3, (%esp)	 #,
 1034      000000
 1035 0d05 E8000000 		call	__test_assert	 #
 1035      00
 1036 0d0a 84C0     		testb	%al, %al	 # D.2853
 1037 0d0c 7421     		je	L29	 #,
 1038              		.loc 1 222 0 is_stmt 0 discriminator 1
 1039 0d0e A1880000 		movl	LPBX1+72, %eax	 # *LPBX1, PROF_edge_counter.5
 1039      00
 1040 0d13 8B158C00 		movl	LPBX1+76, %edx	 # *LPBX1, PROF_edge_counter.5
 1040      0000
 1041 0d19 83C001   		addl	$1, %eax	 #, PROF_edge_counter.5
 1042 0d1c 83D200   		adcl	$0, %edx	 #, PROF_edge_counter.5
 1043 0d1f A3880000 		movl	%eax, LPBX1+72	 # PROF_edge_counter.5, *LPBX1
 1043      00
 1044 0d24 89158C00 		movl	%edx, LPBX1+76	 # PROF_edge_counter.5, *LPBX1
 1044      0000
 1045 0d2a E98B0400 		jmp	L25	 #
 1045      00
 1046              	L29:
 1047              		.loc 1 222 0
 1048 0d2f A1800000 		movl	LPBX1+64, %eax	 # *LPBX1, PROF_edge_counter.5
 1048      00
 1049 0d34 8B158400 		movl	LPBX1+68, %edx	 # *LPBX1, PROF_edge_counter.5
 1049      0000
GAS LISTING C:\cygwin\tmp\cc422TGv.s 			page 27


 1050 0d3a 83C001   		addl	$1, %eax	 #, PROF_edge_counter.5
 1051 0d3d 83D200   		adcl	$0, %edx	 #, PROF_edge_counter.5
 1052 0d40 A3800000 		movl	%eax, LPBX1+64	 # PROF_edge_counter.5, *LPBX1
 1052      00
 1053 0d45 89158400 		movl	%edx, LPBX1+68	 # PROF_edge_counter.5, *LPBX1
 1053      0000
 1054              		.loc 1 225 0 is_stmt 1
 1055 0d4b 8B442428 		movl	40(%esp), %eax	 # tp, tmp185
 1056 0d4f 890424   		movl	%eax, (%esp)	 # tmp185,
 1057 0d52 E8F3FCFF 		call	_regfind	 #
 1057      FF
 1058 0d57 88C1     		movb	%al, %cl	 #, D.2856
 1059 0d59 A1900000 		movl	LPBX1+80, %eax	 # *LPBX1, PROF_edge_counter.5
 1059      00
 1060 0d5e 8B159400 		movl	LPBX1+84, %edx	 # *LPBX1, PROF_edge_counter.5
 1060      0000
 1061 0d64 83C001   		addl	$1, %eax	 #, PROF_edge_counter.5
 1062 0d67 83D200   		adcl	$0, %edx	 #, PROF_edge_counter.5
 1063 0d6a A3900000 		movl	%eax, LPBX1+80	 # PROF_edge_counter.5, *LPBX1
 1063      00
 1064 0d6f 89159400 		movl	%edx, LPBX1+84	 # PROF_edge_counter.5, *LPBX1
 1064      0000
 1065 0d75 0FB6C1   		movzbl	%cl, %eax	 # D.2856, D.2857
 1066 0d78 89442404 		movl	%eax, 4(%esp)	 # D.2857,
 1067 0d7c C7042404 		movl	$4, (%esp)	 #,
 1067      000000
 1068 0d83 E8000000 		call	__test_assert	 #
 1068      00
 1069 0d88 84C0     		testb	%al, %al	 # D.2858
 1070 0d8a 7421     		je	L30	 #,
 1071              		.loc 1 225 0 is_stmt 0 discriminator 1
 1072 0d8c A1A00000 		movl	LPBX1+96, %eax	 # *LPBX1, PROF_edge_counter.5
 1072      00
 1073 0d91 8B15A400 		movl	LPBX1+100, %edx	 # *LPBX1, PROF_edge_counter.5
 1073      0000
 1074 0d97 83C001   		addl	$1, %eax	 #, PROF_edge_counter.5
 1075 0d9a 83D200   		adcl	$0, %edx	 #, PROF_edge_counter.5
 1076 0d9d A3A00000 		movl	%eax, LPBX1+96	 # PROF_edge_counter.5, *LPBX1
 1076      00
 1077 0da2 8915A400 		movl	%edx, LPBX1+100	 # PROF_edge_counter.5, *LPBX1
 1077      0000
 1078 0da8 E90D0400 		jmp	L25	 #
 1078      00
 1079              	L30:
 1080              		.loc 1 225 0
 1081 0dad A1980000 		movl	LPBX1+88, %eax	 # *LPBX1, PROF_edge_counter.5
 1081      00
 1082 0db2 8B159C00 		movl	LPBX1+92, %edx	 # *LPBX1, PROF_edge_counter.5
 1082      0000
 1083 0db8 83C001   		addl	$1, %eax	 #, PROF_edge_counter.5
 1084 0dbb 83D200   		adcl	$0, %edx	 #, PROF_edge_counter.5
 1085 0dbe A3980000 		movl	%eax, LPBX1+88	 # PROF_edge_counter.5, *LPBX1
 1085      00
 1086 0dc3 89159C00 		movl	%edx, LPBX1+92	 # PROF_edge_counter.5, *LPBX1
 1086      0000
 1087              		.loc 1 226 0 is_stmt 1
 1088 0dc9 8B442428 		movl	40(%esp), %eax	 # tp, tmp186
GAS LISTING C:\cygwin\tmp\cc422TGv.s 			page 28


 1089 0dcd 890424   		movl	%eax, (%esp)	 # tmp186,
 1090 0dd0 E875FCFF 		call	_regfind	 #
 1090      FF
 1091 0dd5 88C1     		movb	%al, %cl	 #, D.2861
 1092 0dd7 A1A80000 		movl	LPBX1+104, %eax	 # *LPBX1, PROF_edge_counter.5
 1092      00
 1093 0ddc 8B15AC00 		movl	LPBX1+108, %edx	 # *LPBX1, PROF_edge_counter.5
 1093      0000
 1094 0de2 83C001   		addl	$1, %eax	 #, PROF_edge_counter.5
 1095 0de5 83D200   		adcl	$0, %edx	 #, PROF_edge_counter.5
 1096 0de8 A3A80000 		movl	%eax, LPBX1+104	 # PROF_edge_counter.5, *LPBX1
 1096      00
 1097 0ded 8915AC00 		movl	%edx, LPBX1+108	 # PROF_edge_counter.5, *LPBX1
 1097      0000
 1098 0df3 0FB6C1   		movzbl	%cl, %eax	 # D.2861, D.2862
 1099 0df6 89442404 		movl	%eax, 4(%esp)	 # D.2862,
 1100 0dfa C7042405 		movl	$5, (%esp)	 #,
 1100      000000
 1101 0e01 E8000000 		call	__test_assert	 #
 1101      00
 1102 0e06 84C0     		testb	%al, %al	 # D.2863
 1103 0e08 7421     		je	L31	 #,
 1104              		.loc 1 226 0 is_stmt 0 discriminator 1
 1105 0e0a A1B80000 		movl	LPBX1+120, %eax	 # *LPBX1, PROF_edge_counter.5
 1105      00
 1106 0e0f 8B15BC00 		movl	LPBX1+124, %edx	 # *LPBX1, PROF_edge_counter.5
 1106      0000
 1107 0e15 83C001   		addl	$1, %eax	 #, PROF_edge_counter.5
 1108 0e18 83D200   		adcl	$0, %edx	 #, PROF_edge_counter.5
 1109 0e1b A3B80000 		movl	%eax, LPBX1+120	 # PROF_edge_counter.5, *LPBX1
 1109      00
 1110 0e20 8915BC00 		movl	%edx, LPBX1+124	 # PROF_edge_counter.5, *LPBX1
 1110      0000
 1111 0e26 E98F0300 		jmp	L25	 #
 1111      00
 1112              	L31:
 1113              		.loc 1 226 0
 1114 0e2b A1B00000 		movl	LPBX1+112, %eax	 # *LPBX1, PROF_edge_counter.5
 1114      00
 1115 0e30 8B15B400 		movl	LPBX1+116, %edx	 # *LPBX1, PROF_edge_counter.5
 1115      0000
 1116 0e36 83C001   		addl	$1, %eax	 #, PROF_edge_counter.5
 1117 0e39 83D200   		adcl	$0, %edx	 #, PROF_edge_counter.5
 1118 0e3c A3B00000 		movl	%eax, LPBX1+112	 # PROF_edge_counter.5, *LPBX1
 1118      00
 1119 0e41 8915B400 		movl	%edx, LPBX1+116	 # PROF_edge_counter.5, *LPBX1
 1119      0000
 1120              		.loc 1 229 0 is_stmt 1
 1121 0e47 8B442428 		movl	40(%esp), %eax	 # tp, tmp187
 1122 0e4b 890424   		movl	%eax, (%esp)	 # tmp187,
 1123 0e4e E8000000 		call	_chThdRelease	 #
 1123      00
 1124 0e53 A1C00000 		movl	LPBX1+128, %eax	 # *LPBX1, PROF_edge_counter.5
 1124      00
 1125 0e58 8B15C400 		movl	LPBX1+132, %edx	 # *LPBX1, PROF_edge_counter.5
 1125      0000
 1126 0e5e 83C001   		addl	$1, %eax	 #, PROF_edge_counter.5
GAS LISTING C:\cygwin\tmp\cc422TGv.s 			page 29


 1127 0e61 83D200   		adcl	$0, %edx	 #, PROF_edge_counter.5
 1128 0e64 A3C00000 		movl	%eax, LPBX1+128	 # PROF_edge_counter.5, *LPBX1
 1128      00
 1129 0e69 8915C400 		movl	%edx, LPBX1+132	 # PROF_edge_counter.5, *LPBX1
 1129      0000
 1130              		.loc 1 230 0
 1131 0e6f 8B442428 		movl	40(%esp), %eax	 # tp, tmp188
 1132 0e73 8A401E   		movb	30(%eax), %al	 # tp_4->p_refs, D.2866
 1133 0e76 84C0     		testb	%al, %al	 # D.2866
 1134 0e78 0F94C0   		sete	%al	 #, tmp189
 1135 0e7b 0FB6C0   		movzbl	%al, %eax	 # tmp189, D.2867
 1136 0e7e 89442404 		movl	%eax, 4(%esp)	 # D.2867,
 1137 0e82 C7042406 		movl	$6, (%esp)	 #,
 1137      000000
 1138 0e89 E8000000 		call	__test_assert	 #
 1138      00
 1139 0e8e 84C0     		testb	%al, %al	 # D.2868
 1140 0e90 7421     		je	L32	 #,
 1141              		.loc 1 230 0 is_stmt 0 discriminator 1
 1142 0e92 A1D00000 		movl	LPBX1+144, %eax	 # *LPBX1, PROF_edge_counter.5
 1142      00
 1143 0e97 8B15D400 		movl	LPBX1+148, %edx	 # *LPBX1, PROF_edge_counter.5
 1143      0000
 1144 0e9d 83C001   		addl	$1, %eax	 #, PROF_edge_counter.5
 1145 0ea0 83D200   		adcl	$0, %edx	 #, PROF_edge_counter.5
 1146 0ea3 A3D00000 		movl	%eax, LPBX1+144	 # PROF_edge_counter.5, *LPBX1
 1146      00
 1147 0ea8 8915D400 		movl	%edx, LPBX1+148	 # PROF_edge_counter.5, *LPBX1
 1147      0000
 1148 0eae E9070300 		jmp	L25	 #
 1148      00
 1149              	L32:
 1150              		.loc 1 230 0
 1151 0eb3 A1C80000 		movl	LPBX1+136, %eax	 # *LPBX1, PROF_edge_counter.5
 1151      00
 1152 0eb8 8B15CC00 		movl	LPBX1+140, %edx	 # *LPBX1, PROF_edge_counter.5
 1152      0000
 1153 0ebe 83C001   		addl	$1, %eax	 #, PROF_edge_counter.5
 1154 0ec1 83D200   		adcl	$0, %edx	 #, PROF_edge_counter.5
 1155 0ec4 A3C80000 		movl	%eax, LPBX1+136	 # PROF_edge_counter.5, *LPBX1
 1155      00
 1156 0ec9 8915CC00 		movl	%edx, LPBX1+140	 # PROF_edge_counter.5, *LPBX1
 1156      0000
 1157              		.loc 1 231 0 is_stmt 1
 1158 0ecf 8B442428 		movl	40(%esp), %eax	 # tp, tmp190
 1159 0ed3 8A401C   		movb	28(%eax), %al	 # tp_4->p_state, D.2871
 1160 0ed6 84C0     		testb	%al, %al	 # D.2871
 1161 0ed8 0F94C0   		sete	%al	 #, tmp191
 1162 0edb 0FB6C0   		movzbl	%al, %eax	 # tmp191, D.2872
 1163 0ede 89442404 		movl	%eax, 4(%esp)	 # D.2872,
 1164 0ee2 C7042407 		movl	$7, (%esp)	 #,
 1164      000000
 1165 0ee9 E8000000 		call	__test_assert	 #
 1165      00
 1166 0eee 84C0     		testb	%al, %al	 # D.2873
 1167 0ef0 7421     		je	L33	 #,
 1168              		.loc 1 231 0 is_stmt 0 discriminator 1
GAS LISTING C:\cygwin\tmp\cc422TGv.s 			page 30


 1169 0ef2 A1E00000 		movl	LPBX1+160, %eax	 # *LPBX1, PROF_edge_counter.5
 1169      00
 1170 0ef7 8B15E400 		movl	LPBX1+164, %edx	 # *LPBX1, PROF_edge_counter.5
 1170      0000
 1171 0efd 83C001   		addl	$1, %eax	 #, PROF_edge_counter.5
 1172 0f00 83D200   		adcl	$0, %edx	 #, PROF_edge_counter.5
 1173 0f03 A3E00000 		movl	%eax, LPBX1+160	 # PROF_edge_counter.5, *LPBX1
 1173      00
 1174 0f08 8915E400 		movl	%edx, LPBX1+164	 # PROF_edge_counter.5, *LPBX1
 1174      0000
 1175 0f0e E9A70200 		jmp	L25	 #
 1175      00
 1176              	L33:
 1177              		.loc 1 231 0
 1178 0f13 A1D80000 		movl	LPBX1+152, %eax	 # *LPBX1, PROF_edge_counter.5
 1178      00
 1179 0f18 8B15DC00 		movl	LPBX1+156, %edx	 # *LPBX1, PROF_edge_counter.5
 1179      0000
 1180 0f1e 83C001   		addl	$1, %eax	 #, PROF_edge_counter.5
 1181 0f21 83D200   		adcl	$0, %edx	 #, PROF_edge_counter.5
 1182 0f24 A3D80000 		movl	%eax, LPBX1+152	 # PROF_edge_counter.5, *LPBX1
 1182      00
 1183 0f29 8915DC00 		movl	%edx, LPBX1+156	 # PROF_edge_counter.5, *LPBX1
 1183      0000
 1184              		.loc 1 232 0 is_stmt 1
 1185 0f2f 8B442428 		movl	40(%esp), %eax	 # tp, tmp192
 1186 0f33 890424   		movl	%eax, (%esp)	 # tmp192,
 1187 0f36 E80FFBFF 		call	_regfind	 #
 1187      FF
 1188 0f3b 88C1     		movb	%al, %cl	 #, D.2876
 1189 0f3d A1E80000 		movl	LPBX1+168, %eax	 # *LPBX1, PROF_edge_counter.5
 1189      00
 1190 0f42 8B15EC00 		movl	LPBX1+172, %edx	 # *LPBX1, PROF_edge_counter.5
 1190      0000
 1191 0f48 83C001   		addl	$1, %eax	 #, PROF_edge_counter.5
 1192 0f4b 83D200   		adcl	$0, %edx	 #, PROF_edge_counter.5
 1193 0f4e A3E80000 		movl	%eax, LPBX1+168	 # PROF_edge_counter.5, *LPBX1
 1193      00
 1194 0f53 8915EC00 		movl	%edx, LPBX1+172	 # PROF_edge_counter.5, *LPBX1
 1194      0000
 1195 0f59 0FB6C1   		movzbl	%cl, %eax	 # D.2876, D.2877
 1196 0f5c 89442404 		movl	%eax, 4(%esp)	 # D.2877,
 1197 0f60 C7042408 		movl	$8, (%esp)	 #,
 1197      000000
 1198 0f67 E8000000 		call	__test_assert	 #
 1198      00
 1199 0f6c 84C0     		testb	%al, %al	 # D.2878
 1200 0f6e 7421     		je	L34	 #,
 1201              		.loc 1 232 0 is_stmt 0 discriminator 1
 1202 0f70 A1F80000 		movl	LPBX1+184, %eax	 # *LPBX1, PROF_edge_counter.5
 1202      00
 1203 0f75 8B15FC00 		movl	LPBX1+188, %edx	 # *LPBX1, PROF_edge_counter.5
 1203      0000
 1204 0f7b 83C001   		addl	$1, %eax	 #, PROF_edge_counter.5
 1205 0f7e 83D200   		adcl	$0, %edx	 #, PROF_edge_counter.5
 1206 0f81 A3F80000 		movl	%eax, LPBX1+184	 # PROF_edge_counter.5, *LPBX1
 1206      00
GAS LISTING C:\cygwin\tmp\cc422TGv.s 			page 31


 1207 0f86 8915FC00 		movl	%edx, LPBX1+188	 # PROF_edge_counter.5, *LPBX1
 1207      0000
 1208 0f8c E9290200 		jmp	L25	 #
 1208      00
 1209              	L34:
 1210              		.loc 1 232 0
 1211 0f91 A1F00000 		movl	LPBX1+176, %eax	 # *LPBX1, PROF_edge_counter.5
 1211      00
 1212 0f96 8B15F400 		movl	LPBX1+180, %edx	 # *LPBX1, PROF_edge_counter.5
 1212      0000
 1213 0f9c 83C001   		addl	$1, %eax	 #, PROF_edge_counter.5
 1214 0f9f 83D200   		adcl	$0, %edx	 #, PROF_edge_counter.5
 1215 0fa2 A3F00000 		movl	%eax, LPBX1+176	 # PROF_edge_counter.5, *LPBX1
 1215      00
 1216 0fa7 8915F400 		movl	%edx, LPBX1+180	 # PROF_edge_counter.5, *LPBX1
 1216      0000
 1217              		.loc 1 233 0 is_stmt 1
 1218 0fad 8B442428 		movl	40(%esp), %eax	 # tp, tmp193
 1219 0fb1 890424   		movl	%eax, (%esp)	 # tmp193,
 1220 0fb4 E891FAFF 		call	_regfind	 #
 1220      FF
 1221 0fb9 88C1     		movb	%al, %cl	 #, D.2881
 1222 0fbb A1000100 		movl	LPBX1+192, %eax	 # *LPBX1, PROF_edge_counter.5
 1222      00
 1223 0fc0 8B150401 		movl	LPBX1+196, %edx	 # *LPBX1, PROF_edge_counter.5
 1223      0000
 1224 0fc6 83C001   		addl	$1, %eax	 #, PROF_edge_counter.5
 1225 0fc9 83D200   		adcl	$0, %edx	 #, PROF_edge_counter.5
 1226 0fcc A3000100 		movl	%eax, LPBX1+192	 # PROF_edge_counter.5, *LPBX1
 1226      00
 1227 0fd1 89150401 		movl	%edx, LPBX1+196	 # PROF_edge_counter.5, *LPBX1
 1227      0000
 1228 0fd7 0FB6C1   		movzbl	%cl, %eax	 # D.2881, D.2882
 1229 0fda 89442404 		movl	%eax, 4(%esp)	 # D.2882,
 1230 0fde C7042409 		movl	$9, (%esp)	 #,
 1230      000000
 1231 0fe5 E8000000 		call	__test_assert	 #
 1231      00
 1232 0fea 84C0     		testb	%al, %al	 # D.2883
 1233 0fec 7421     		je	L35	 #,
 1234              		.loc 1 233 0 is_stmt 0 discriminator 1
 1235 0fee A1100100 		movl	LPBX1+208, %eax	 # *LPBX1, PROF_edge_counter.5
 1235      00
 1236 0ff3 8B151401 		movl	LPBX1+212, %edx	 # *LPBX1, PROF_edge_counter.5
 1236      0000
 1237 0ff9 83C001   		addl	$1, %eax	 #, PROF_edge_counter.5
 1238 0ffc 83D200   		adcl	$0, %edx	 #, PROF_edge_counter.5
 1239 0fff A3100100 		movl	%eax, LPBX1+208	 # PROF_edge_counter.5, *LPBX1
 1239      00
 1240 1004 89151401 		movl	%edx, LPBX1+212	 # PROF_edge_counter.5, *LPBX1
 1240      0000
 1241 100a E9AB0100 		jmp	L25	 #
 1241      00
 1242              	L35:
 1243              		.loc 1 233 0
 1244 100f A1080100 		movl	LPBX1+200, %eax	 # *LPBX1, PROF_edge_counter.5
 1244      00
GAS LISTING C:\cygwin\tmp\cc422TGv.s 			page 32


 1245 1014 8B150C01 		movl	LPBX1+204, %edx	 # *LPBX1, PROF_edge_counter.5
 1245      0000
 1246 101a 83C001   		addl	$1, %eax	 #, PROF_edge_counter.5
 1247 101d 83D200   		adcl	$0, %edx	 #, PROF_edge_counter.5
 1248 1020 A3080100 		movl	%eax, LPBX1+200	 # PROF_edge_counter.5, *LPBX1
 1248      00
 1249 1025 89150C01 		movl	%edx, LPBX1+204	 # PROF_edge_counter.5, *LPBX1
 1249      0000
 1250              		.loc 1 234 0 is_stmt 1
 1251 102b C7042432 		movl	$50, (%esp)	 #,
 1251      000000
 1252 1032 E8000000 		call	_chThdSleep	 #
 1252      00
 1253 1037 A1180100 		movl	LPBX1+216, %eax	 # *LPBX1, PROF_edge_counter.5
 1253      00
 1254 103c 8B151C01 		movl	LPBX1+220, %edx	 # *LPBX1, PROF_edge_counter.5
 1254      0000
 1255 1042 83C001   		addl	$1, %eax	 #, PROF_edge_counter.5
 1256 1045 83D200   		adcl	$0, %edx	 #, PROF_edge_counter.5
 1257 1048 A3180100 		movl	%eax, LPBX1+216	 # PROF_edge_counter.5, *LPBX1
 1257      00
 1258 104d 89151C01 		movl	%edx, LPBX1+220	 # PROF_edge_counter.5, *LPBX1
 1258      0000
 1259              		.loc 1 235 0
 1260 1053 8B442428 		movl	40(%esp), %eax	 # tp, tmp194
 1261 1057 8A401C   		movb	28(%eax), %al	 # tp_4->p_state, D.2886
 1262 105a 3C0E     		cmpb	$14, %al	 #, D.2886
 1263 105c 0F94C0   		sete	%al	 #, tmp195
 1264 105f 0FB6C0   		movzbl	%al, %eax	 # tmp195, D.2887
 1265 1062 89442404 		movl	%eax, 4(%esp)	 # D.2887,
 1266 1066 C704240A 		movl	$10, (%esp)	 #,
 1266      000000
 1267 106d E8000000 		call	__test_assert	 #
 1267      00
 1268 1072 84C0     		testb	%al, %al	 # D.2888
 1269 1074 7421     		je	L36	 #,
 1270              		.loc 1 235 0 is_stmt 0 discriminator 1
 1271 1076 A1280100 		movl	LPBX1+232, %eax	 # *LPBX1, PROF_edge_counter.5
 1271      00
 1272 107b 8B152C01 		movl	LPBX1+236, %edx	 # *LPBX1, PROF_edge_counter.5
 1272      0000
 1273 1081 83C001   		addl	$1, %eax	 #, PROF_edge_counter.5
 1274 1084 83D200   		adcl	$0, %edx	 #, PROF_edge_counter.5
 1275 1087 A3280100 		movl	%eax, LPBX1+232	 # PROF_edge_counter.5, *LPBX1
 1275      00
 1276 108c 89152C01 		movl	%edx, LPBX1+236	 # PROF_edge_counter.5, *LPBX1
 1276      0000
 1277 1092 E9230100 		jmp	L25	 #
 1277      00
 1278              	L36:
 1279              		.loc 1 235 0
 1280 1097 A1200100 		movl	LPBX1+224, %eax	 # *LPBX1, PROF_edge_counter.5
 1280      00
 1281 109c 8B152401 		movl	LPBX1+228, %edx	 # *LPBX1, PROF_edge_counter.5
 1281      0000
 1282 10a2 83C001   		addl	$1, %eax	 #, PROF_edge_counter.5
 1283 10a5 83D200   		adcl	$0, %edx	 #, PROF_edge_counter.5
GAS LISTING C:\cygwin\tmp\cc422TGv.s 			page 33


 1284 10a8 A3200100 		movl	%eax, LPBX1+224	 # PROF_edge_counter.5, *LPBX1
 1284      00
 1285 10ad 89152401 		movl	%edx, LPBX1+228	 # PROF_edge_counter.5, *LPBX1
 1285      0000
 1286              		.loc 1 238 0 is_stmt 1
 1287 10b3 8B442428 		movl	40(%esp), %eax	 # tp, tmp196
 1288 10b7 890424   		movl	%eax, (%esp)	 # tmp196,
 1289 10ba E88BF9FF 		call	_regfind	 #
 1289      FF
 1290 10bf 88C1     		movb	%al, %cl	 #, D.2891
 1291 10c1 A1300100 		movl	LPBX1+240, %eax	 # *LPBX1, PROF_edge_counter.5
 1291      00
 1292 10c6 8B153401 		movl	LPBX1+244, %edx	 # *LPBX1, PROF_edge_counter.5
 1292      0000
 1293 10cc 83C001   		addl	$1, %eax	 #, PROF_edge_counter.5
 1294 10cf 83D200   		adcl	$0, %edx	 #, PROF_edge_counter.5
 1295 10d2 A3300100 		movl	%eax, LPBX1+240	 # PROF_edge_counter.5, *LPBX1
 1295      00
 1296 10d7 89153401 		movl	%edx, LPBX1+244	 # PROF_edge_counter.5, *LPBX1
 1296      0000
 1297 10dd 0FB6C1   		movzbl	%cl, %eax	 # D.2891, D.2892
 1298 10e0 89442404 		movl	%eax, 4(%esp)	 # D.2892,
 1299 10e4 C704240B 		movl	$11, (%esp)	 #,
 1299      000000
 1300 10eb E8000000 		call	__test_assert	 #
 1300      00
 1301 10f0 84C0     		testb	%al, %al	 # D.2893
 1302 10f2 7421     		je	L37	 #,
 1303              		.loc 1 238 0 is_stmt 0 discriminator 1
 1304 10f4 A1400100 		movl	LPBX1+256, %eax	 # *LPBX1, PROF_edge_counter.5
 1304      00
 1305 10f9 8B154401 		movl	LPBX1+260, %edx	 # *LPBX1, PROF_edge_counter.5
 1305      0000
 1306 10ff 83C001   		addl	$1, %eax	 #, PROF_edge_counter.5
 1307 1102 83D200   		adcl	$0, %edx	 #, PROF_edge_counter.5
 1308 1105 A3400100 		movl	%eax, LPBX1+256	 # PROF_edge_counter.5, *LPBX1
 1308      00
 1309 110a 89154401 		movl	%edx, LPBX1+260	 # PROF_edge_counter.5, *LPBX1
 1309      0000
 1310 1110 E9A50000 		jmp	L25	 #
 1310      00
 1311              	L37:
 1312              		.loc 1 238 0
 1313 1115 A1380100 		movl	LPBX1+248, %eax	 # *LPBX1, PROF_edge_counter.5
 1313      00
 1314 111a 8B153C01 		movl	LPBX1+252, %edx	 # *LPBX1, PROF_edge_counter.5
 1314      0000
 1315 1120 83C001   		addl	$1, %eax	 #, PROF_edge_counter.5
 1316 1123 83D200   		adcl	$0, %edx	 #, PROF_edge_counter.5
 1317 1126 A3380100 		movl	%eax, LPBX1+248	 # PROF_edge_counter.5, *LPBX1
 1317      00
 1318 112b 89153C01 		movl	%edx, LPBX1+252	 # PROF_edge_counter.5, *LPBX1
 1318      0000
 1319              		.loc 1 239 0 is_stmt 1
 1320 1131 8B442428 		movl	40(%esp), %eax	 # tp, tmp197
 1321 1135 890424   		movl	%eax, (%esp)	 # tmp197,
 1322 1138 E80DF9FF 		call	_regfind	 #
GAS LISTING C:\cygwin\tmp\cc422TGv.s 			page 34


 1322      FF
 1323 113d 88C1     		movb	%al, %cl	 #, D.2896
 1324 113f A1480100 		movl	LPBX1+264, %eax	 # *LPBX1, PROF_edge_counter.5
 1324      00
 1325 1144 8B154C01 		movl	LPBX1+268, %edx	 # *LPBX1, PROF_edge_counter.5
 1325      0000
 1326 114a 83C001   		addl	$1, %eax	 #, PROF_edge_counter.5
 1327 114d 83D200   		adcl	$0, %edx	 #, PROF_edge_counter.5
 1328 1150 A3480100 		movl	%eax, LPBX1+264	 # PROF_edge_counter.5, *LPBX1
 1328      00
 1329 1155 89154C01 		movl	%edx, LPBX1+268	 # PROF_edge_counter.5, *LPBX1
 1329      0000
 1330 115b 0FB6C1   		movzbl	%cl, %eax	 # D.2896, D.2897
 1331 115e 85C0     		testl	%eax, %eax	 # D.2897
 1332 1160 0F95C0   		setne	%al	 #, D.2898
 1333 1163 83F001   		xorl	$1, %eax	 #, D.2899
 1334 1166 0FB6C0   		movzbl	%al, %eax	 # D.2899, D.2900
 1335 1169 0FB6C0   		movzbl	%al, %eax	 # D.2901, D.2902
 1336 116c 89442404 		movl	%eax, 4(%esp)	 # D.2902,
 1337 1170 C704240C 		movl	$12, (%esp)	 #,
 1337      000000
 1338 1177 E8000000 		call	__test_assert	 #
 1338      00
 1339 117c 88C1     		movb	%al, %cl	 #, D.2903
 1340 117e A1500100 		movl	LPBX1+272, %eax	 # *LPBX1, PROF_edge_counter.5
 1340      00
 1341 1183 8B155401 		movl	LPBX1+276, %edx	 # *LPBX1, PROF_edge_counter.5
 1341      0000
 1342 1189 83C001   		addl	$1, %eax	 #, PROF_edge_counter.5
 1343 118c 83D200   		adcl	$0, %edx	 #, PROF_edge_counter.5
 1344 118f A3500100 		movl	%eax, LPBX1+272	 # PROF_edge_counter.5, *LPBX1
 1344      00
 1345 1194 89155401 		movl	%edx, LPBX1+276	 # PROF_edge_counter.5, *LPBX1
 1345      0000
 1346 119a 84C9     		testb	%cl, %cl	 # D.2903
 1347 119c 741C     		je	L25	 #,
 1348              		.loc 1 239 0 is_stmt 0 discriminator 1
 1349 119e A1580100 		movl	LPBX1+280, %eax	 # *LPBX1, PROF_edge_counter.5
 1349      00
 1350 11a3 8B155C01 		movl	LPBX1+284, %edx	 # *LPBX1, PROF_edge_counter.5
 1350      0000
 1351 11a9 83C001   		addl	$1, %eax	 #, PROF_edge_counter.5
 1352 11ac 83D200   		adcl	$0, %edx	 #, PROF_edge_counter.5
 1353 11af A3580100 		movl	%eax, LPBX1+280	 # PROF_edge_counter.5, *LPBX1
 1353      00
 1354 11b4 89155C01 		movl	%edx, LPBX1+284	 # PROF_edge_counter.5, *LPBX1
 1354      0000
 1355              	L25:
 1356              		.loc 1 240 0 is_stmt 1
 1357 11ba 83C43C   		addl	$60, %esp	 #,
 1358              	LCFI15:
 1359              		.cfi_def_cfa_offset 4
 1360 11bd C3       		ret
 1361              		.cfi_endproc
 1362              	LFE7:
 1363              		.globl	_testdyn3
 1364              		.section .rdata,"dr"
GAS LISTING C:\cygwin\tmp\cc422TGv.s 			page 35


 1365              		.align 4
 1366              	LC9:
 1367 0094 44796E61 		.ascii "Dynamic APIs, registry and references\0"
 1367      6D696320 
 1367      41504973 
 1367      2C207265 
 1367      67697374 
 1368 00ba 0000     		.align 4
 1369              	_testdyn3:
 1370              	 # name:
 1371 00bc 94000000 		.long	LC9
 1372              	 # setup:
 1373 00c0 080B0000 		.long	_dyn3_setup
 1374              	 # teardown:
 1375 00c4 00000000 		.long	0
 1376              	 # execute:
 1377 00c8 630B0000 		.long	_dyn3_execute
 1378              		.globl	_patterndyn
 1379              		.align 4
 1380              	_patterndyn:
 1381 00cc 38000000 		.long	_testdyn1
 1382 00d0 84000000 		.long	_testdyn2
 1383 00d4 BC000000 		.long	_testdyn3
 1384 00d8 00000000 		.long	0
 1385              	.lcomm LPBX1,768,32
 1386              		.align 4
 1387              	LC10:
 1388 00dc 433A5C64 		.ascii "C:\\develop\\gyro\\ChibiOS\\test\\coverage/../../test/testdyn.gcda\0"
 1388      6576656C 
 1388      6F705C67 
 1388      79726F5C 
 1388      43686962 
 1389 011a 0000     		.data
 1390              		.align 32
 1391              	LC11:
 1392              	 # <anonymous>:
 1393 0000 08000000 		.long	8
 1394              	 # <anonymous>:
 1395 0004 78CC2A11 		.long	288017528
 1396              	 # <anonymous>:
 1397 0008 24000000 		.long	36
 1398              	 # <anonymous>:
 1399 000c 07000000 		.long	7
 1400              	 # <anonymous>:
 1401 0010 A8C5803B 		.long	998294952
 1402              	 # <anonymous>:
 1403 0014 02000000 		.long	2
 1404              	 # <anonymous>:
 1405 0018 06000000 		.long	6
 1406              	 # <anonymous>:
 1407 001c A76ED8F4 		.long	-187142489
 1408              	 # <anonymous>:
 1409 0020 04000000 		.long	4
 1410              	 # <anonymous>:
 1411 0024 05000000 		.long	5
 1412              	 # <anonymous>:
 1413 0028 3FA28773 		.long	1938268735
GAS LISTING C:\cygwin\tmp\cc422TGv.s 			page 36


 1414              	 # <anonymous>:
 1415 002c 19000000 		.long	25
 1416              	 # <anonymous>:
 1417 0030 04000000 		.long	4
 1418              	 # <anonymous>:
 1419 0034 D822AEEC 		.long	-324132136
 1420              	 # <anonymous>:
 1421 0038 02000000 		.long	2
 1422              	 # <anonymous>:
 1423 003c 03000000 		.long	3
 1424              	 # <anonymous>:
 1425 0040 F9624FFD 		.long	-45128967
 1426              	 # <anonymous>:
 1427 0044 17000000 		.long	23
 1428              	 # <anonymous>:
 1429 0048 02000000 		.long	2
 1430              	 # <anonymous>:
 1431 004c 32F5CCEA 		.long	-355666638
 1432              	 # <anonymous>:
 1433 0050 02000000 		.long	2
 1434              	 # <anonymous>:
 1435 0054 01000000 		.long	1
 1436              	 # <anonymous>:
 1437 0058 B1F3D1AD 		.long	-1378749519
 1438              	 # <anonymous>:
 1439 005c 02000000 		.long	2
 1440              		.align 32
 1441              	LPBX0:
 1442              	 # <anonymous>:
 1443 0060 2A363034 		.long	875574826
 1444              	 # <anonymous>:
 1445 0064 00000000 		.long	0
 1446              	 # <anonymous>:
 1447 0068 9F397060 		.long	1617967519
 1448              	 # <anonymous>:
 1449 006c DC000000 		.long	LC10
 1450              	 # <anonymous>:
 1451 0070 08000000 		.long	8
 1452              	 # <anonymous>:
 1453 0074 00000000 		.long	LC11
 1454              	 # <anonymous>:
 1455 0078 01000000 		.long	1
 1456              	 # <anonymous>:
 1457              	 # <anonymous>:
 1458 007c 60000000 		.long	96
 1459              	 # <anonymous>:
 1460 0080 40000000 		.long	LPBX1
 1461              	 # <anonymous>:
 1462 0084 00000000 		.long	___gcov_merge_add
 1463 0088 00000000 		.space 12
 1463      00000000 
 1463      00000000 
 1464 0094 00000000 		.text
 1464      00000000 
 1464      00000000 
 1465              		.def	__GLOBAL__sub_I_65535_0_testdyn1;	.scl	3;	.type	32;	.endef
 1466              	__GLOBAL__sub_I_65535_0_testdyn1:
GAS LISTING C:\cygwin\tmp\cc422TGv.s 			page 37


 1467              	LFB8:
 1468              		.loc 1 268 0
 1469              		.cfi_startproc
 1470 11be 83EC1C   		subl	$28, %esp	 #,
 1471              	LCFI16:
 1472              		.cfi_def_cfa_offset 32
 1473              		.loc 1 268 0
 1474 11c1 C7042460 		movl	$LPBX0, (%esp)	 #,
 1474      000000
 1475 11c8 E8000000 		call	___gcov_init	 #
 1475      00
 1476 11cd 83C41C   		addl	$28, %esp	 #,
 1477              	LCFI17:
 1478              		.cfi_def_cfa_offset 4
 1479 11d0 C3       		ret
 1480              		.cfi_endproc
 1481              	LFE8:
 1482              		.section	.ctors,"w"
 1483              		.align 4
 1484 0000 BE110000 		.long	__GLOBAL__sub_I_65535_0_testdyn1
 1485              		.text
 1486              	Letext0:
 1487              		.file 2 "c:/mingw/bin/../lib/gcc/mingw32/4.6.2/include/stddef.h"
 1488              		.file 3 "c:/mingw/bin/../lib/gcc/mingw32/4.6.2/../../../../include/stdint.h"
 1489              		.file 4 "../../os/ports/GCC/SIMIA32/chtypes.h"
 1490              		.file 5 "../../os/kernel/include/chlists.h"
 1491              		.file 6 "../../os/kernel/include/chthreads.h"
 1492              		.file 7 "../../os/ports/GCC/SIMIA32/chcore.h"
 1493              		.file 8 "../../os/kernel/include/chschd.h"
 1494              		.file 9 "../../os/kernel/include/chmtx.h"
 1495              		.file 10 "../../os/kernel/include/chmemcore.h"
 1496              		.file 11 "../../os/kernel/include/chheap.h"
 1497              		.file 12 "../../os/kernel/include/chmempools.h"
 1498              		.file 13 "../../test/test.h"