GAS LISTING C:\cygwin\tmp\ccZXqjbs.s 			page 1


   1              		.file	"testbmk.c"
   2              	 # GNU C (GCC) version 4.6.2 (mingw32)
   3              	 #	compiled by GNU C version 4.6.2, GMP version 5.0.1, MPFR version 2.4.1, MPC version 0.8.1
   4              	 # GGC heuristics: --param ggc-min-expand=100 --param ggc-min-heapsize=131072
   5              	 # options passed:  -I . -I ../../os/ports/GCC/SIMIA32
   6              	 # -I ../../os/kernel/include -I ../../test -I ../../os/hal/include
   7              	 # -I ../../os/hal/platforms/Win32 -I ../../boards/simulator
   8              	 # -I ../../os/various -iprefix c:\mingw\bin\../lib/gcc/mingw32/4.6.2/
   9              	 # -MD ../../test/testbmk.d -MF .dep/testbmk.o.d -MP
  10              	 # -MQ ../../test/testbmk.o -D SIMULATOR ../../test/testbmk.c -mtune=i386
  11              	 # -march=i386 -auxbase-strip ../../test/testbmk.o -ggdb -O0 -Wall -Wextra
  12              	 # -Wstrict-prototypes -fomit-frame-pointer -fprofile-arcs -ftest-coverage
  13              	 # -fverbose-asm
  14              	 # options enabled:  -fasynchronous-unwind-tables -fauto-inc-dec
  15              	 # -fbranch-count-reg -fcommon -fdelete-null-pointer-checks
  16              	 # -fdwarf2-cfi-asm -fearly-inlining -feliminate-unused-debug-types
  17              	 # -ffunction-cse -fgcse-lm -fident -finline-functions-called-once
  18              	 # -fira-share-save-slots -fira-share-spill-slots -fivopts
  19              	 # -fkeep-inline-dllexport -fkeep-static-consts -fleading-underscore
  20              	 # -fmath-errno -fmerge-debug-strings -fmove-loop-invariants
  21              	 # -fomit-frame-pointer -fpeephole -fprefetch-loop-arrays -fprofile-arcs
  22              	 # -freg-struct-return -fsched-critical-path-heuristic
  23              	 # -fsched-dep-count-heuristic -fsched-group-heuristic -fsched-interblock
  24              	 # -fsched-last-insn-heuristic -fsched-rank-heuristic -fsched-spec
  25              	 # -fsched-spec-insn-heuristic -fsched-stalled-insns-dep
  26              	 # -fset-stack-executable -fshow-column -fsigned-zeros
  27              	 # -fsplit-ivs-in-unroller -fstrict-volatile-bitfields -ftest-coverage
  28              	 # -ftrapping-math -ftree-cselim -ftree-forwprop -ftree-loop-if-convert
  29              	 # -ftree-loop-im -ftree-loop-ivcanon -ftree-loop-optimize
  30              	 # -ftree-parallelize-loops= -ftree-phiprop -ftree-pta -ftree-reassoc
  31              	 # -ftree-scev-cprop -ftree-slp-vectorize -ftree-vect-loop-version
  32              	 # -funit-at-a-time -funwind-tables -fvect-cost-model -fverbose-asm
  33              	 # -fzero-initialized-in-bss -m32 -m80387 -m96bit-long-double
  34              	 # -maccumulate-outgoing-args -malign-double -malign-stringops
  35              	 # -mfancy-math-387 -mfp-ret-in-387 -mieee-fp -mno-red-zone -mno-sse4
  36              	 # -mpush-args -msahf -mstack-arg-probe
  37              	
  38              		.text
  39              	Ltext0:
  40              	 # Compiler executable checksum: c20aed7c018482d7b62efcd5dcab2a9d
  41              	
  42              	.lcomm _sem1,12,4
  43              	.lcomm _mtx1,16,4
  44              		.def	_thread1;	.scl	3;	.type	32;	.endef
  45              	_thread1:
  46              	LFB0:
  47              		.file 1 "../../test/testbmk.c"
  48              		.loc 1 68 0
  49              		.cfi_startproc
  50 0000 83EC2C   		subl	$44, %esp	 #,
  51              	LCFI0:
  52              		.cfi_def_cfa_offset 48
  53              		.loc 1 68 0
  54 0003 A1B80700 		movl	LPBX1+1816, %eax	 # *LPBX1, PROF_edge_counter.32
  54      00
  55 0008 8B15BC07 		movl	LPBX1+1820, %edx	 # *LPBX1, PROF_edge_counter.32
  55      0000
GAS LISTING C:\cygwin\tmp\ccZXqjbs.s 			page 2


  56 000e 83C001   		addl	$1, %eax	 #, PROF_edge_counter.32
  57 0011 83D200   		adcl	$0, %edx	 #, PROF_edge_counter.32
  58 0014 A3B80700 		movl	%eax, LPBX1+1816	 # PROF_edge_counter.32, *LPBX1
  58      00
  59 0019 8915BC07 		movl	%edx, LPBX1+1820	 # PROF_edge_counter.32, *LPBX1
  59      0000
  60              	L2:
  61              		.loc 1 74 0 discriminator 1
  62 001f E8000000 		call	_chMsgWait	 #
  62      00
  63 0024 8944241C 		movl	%eax, 28(%esp)	 # tmp69, tp
  64 0028 A1C00700 		movl	LPBX1+1824, %eax	 # *LPBX1, PROF_edge_counter.32
  64      00
  65 002d 8B15C407 		movl	LPBX1+1828, %edx	 # *LPBX1, PROF_edge_counter.32
  65      0000
  66 0033 83C001   		addl	$1, %eax	 #, PROF_edge_counter.32
  67 0036 83D200   		adcl	$0, %edx	 #, PROF_edge_counter.32
  68 0039 A3C00700 		movl	%eax, LPBX1+1824	 # PROF_edge_counter.32, *LPBX1
  68      00
  69 003e 8915C407 		movl	%edx, LPBX1+1828	 # PROF_edge_counter.32, *LPBX1
  69      0000
  70              		.loc 1 75 0 discriminator 1
  71 0044 8B44241C 		movl	28(%esp), %eax	 # tp, tmp70
  72 0048 8B4034   		movl	52(%eax), %eax	 # tp_1->p_msg, tmp71
  73 004b 89442418 		movl	%eax, 24(%esp)	 # tmp71, msg
  74              		.loc 1 76 0 discriminator 1
  75 004f 8B442418 		movl	24(%esp), %eax	 # msg, tmp72
  76 0053 89442404 		movl	%eax, 4(%esp)	 # tmp72,
  77 0057 8B44241C 		movl	28(%esp), %eax	 # tp, tmp73
  78 005b 890424   		movl	%eax, (%esp)	 # tmp73,
  79 005e E8000000 		call	_chMsgRelease	 #
  79      00
  80 0063 A1C80700 		movl	LPBX1+1832, %eax	 # *LPBX1, PROF_edge_counter.32
  80      00
  81 0068 8B15CC07 		movl	LPBX1+1836, %edx	 # *LPBX1, PROF_edge_counter.32
  81      0000
  82 006e 83C001   		addl	$1, %eax	 #, PROF_edge_counter.32
  83 0071 83D200   		adcl	$0, %edx	 #, PROF_edge_counter.32
  84 0074 A3C80700 		movl	%eax, LPBX1+1832	 # PROF_edge_counter.32, *LPBX1
  84      00
  85 0079 8915CC07 		movl	%edx, LPBX1+1836	 # PROF_edge_counter.32, *LPBX1
  85      0000
  86              		.loc 1 77 0 discriminator 1
  87 007f 837C2418 		cmpl	$0, 24(%esp)	 #, msg
  87      00
  88 0084 7599     		jne	L2	 #,
  89              		.loc 1 77 0 is_stmt 0
  90 0086 A1D00700 		movl	LPBX1+1840, %eax	 # *LPBX1, PROF_edge_counter.32
  90      00
  91 008b 8B15D407 		movl	LPBX1+1844, %edx	 # *LPBX1, PROF_edge_counter.32
  91      0000
  92 0091 83C001   		addl	$1, %eax	 #, PROF_edge_counter.32
  93 0094 83D200   		adcl	$0, %edx	 #, PROF_edge_counter.32
  94 0097 A3D00700 		movl	%eax, LPBX1+1840	 # PROF_edge_counter.32, *LPBX1
  94      00
  95 009c 8915D407 		movl	%edx, LPBX1+1844	 # PROF_edge_counter.32, *LPBX1
  95      0000
GAS LISTING C:\cygwin\tmp\ccZXqjbs.s 			page 3


  96              		.loc 1 78 0 is_stmt 1
  97 00a2 B8000000 		movl	$0, %eax	 #, D.3086
  97      00
  98              		.loc 1 79 0
  99 00a7 83C42C   		addl	$44, %esp	 #,
 100              	LCFI1:
 101              		.cfi_def_cfa_offset 4
 102 00aa C3       		ret
 103              		.cfi_endproc
 104              	LFE0:
 105              		.def	_msg_loop_test;	.scl	3;	.type	32;	.endef
 106              	_msg_loop_test:
 107              	LFB1:
 108              		.loc 1 84 0
 109              		.cfi_startproc
 110 00ab 83EC2C   		subl	$44, %esp	 #,
 111              	LCFI2:
 112              		.cfi_def_cfa_offset 48
 113              		.loc 1 84 0
 114 00ae A1800700 		movl	LPBX1+1760, %eax	 # *LPBX1, PROF_edge_counter.31
 114      00
 115 00b3 8B158407 		movl	LPBX1+1764, %edx	 # *LPBX1, PROF_edge_counter.31
 115      0000
 116 00b9 83C001   		addl	$1, %eax	 #, PROF_edge_counter.31
 117 00bc 83D200   		adcl	$0, %edx	 #, PROF_edge_counter.31
 118 00bf A3800700 		movl	%eax, LPBX1+1760	 # PROF_edge_counter.31, *LPBX1
 118      00
 119 00c4 89158407 		movl	%edx, LPBX1+1764	 # PROF_edge_counter.31, *LPBX1
 119      0000
 120              		.loc 1 86 0
 121 00ca C744241C 		movl	$0, 28(%esp)	 #, n
 121      00000000 
 122              		.loc 1 87 0
 123 00d2 E8000000 		call	_test_wait_tick	 #
 123      00
 124 00d7 A1880700 		movl	LPBX1+1768, %eax	 # *LPBX1, PROF_edge_counter.31
 124      00
 125 00dc 8B158C07 		movl	LPBX1+1772, %edx	 # *LPBX1, PROF_edge_counter.31
 125      0000
 126 00e2 83C001   		addl	$1, %eax	 #, PROF_edge_counter.31
 127 00e5 83D200   		adcl	$0, %edx	 #, PROF_edge_counter.31
 128 00e8 A3880700 		movl	%eax, LPBX1+1768	 # PROF_edge_counter.31, *LPBX1
 128      00
 129 00ed 89158C07 		movl	%edx, LPBX1+1772	 # PROF_edge_counter.31, *LPBX1
 129      0000
 130              		.loc 1 88 0
 131 00f3 C70424E8 		movl	$1000, (%esp)	 #,
 131      030000
 132 00fa E8000000 		call	_test_start_timer	 #
 132      00
 133 00ff A1900700 		movl	LPBX1+1776, %eax	 # *LPBX1, PROF_edge_counter.31
 133      00
 134 0104 8B159407 		movl	LPBX1+1780, %edx	 # *LPBX1, PROF_edge_counter.31
 134      0000
 135 010a 83C001   		addl	$1, %eax	 #, PROF_edge_counter.31
 136 010d 83D200   		adcl	$0, %edx	 #, PROF_edge_counter.31
 137 0110 A3900700 		movl	%eax, LPBX1+1776	 # PROF_edge_counter.31, *LPBX1
GAS LISTING C:\cygwin\tmp\ccZXqjbs.s 			page 4


 137      00
 138 0115 89159407 		movl	%edx, LPBX1+1780	 # PROF_edge_counter.31, *LPBX1
 138      0000
 139              	L4:
 140              		.loc 1 90 0 discriminator 1
 141 011b C7442404 		movl	$1, 4(%esp)	 #,
 141      01000000 
 142 0123 8B442430 		movl	48(%esp), %eax	 # tp, tmp77
 143 0127 890424   		movl	%eax, (%esp)	 # tmp77,
 144 012a E8000000 		call	_chMsgSend	 #
 144      00
 145 012f A1980700 		movl	LPBX1+1784, %eax	 # *LPBX1, PROF_edge_counter.31
 145      00
 146 0134 8B159C07 		movl	LPBX1+1788, %edx	 # *LPBX1, PROF_edge_counter.31
 146      0000
 147 013a 83C001   		addl	$1, %eax	 #, PROF_edge_counter.31
 148 013d 83D200   		adcl	$0, %edx	 #, PROF_edge_counter.31
 149 0140 A3980700 		movl	%eax, LPBX1+1784	 # PROF_edge_counter.31, *LPBX1
 149      00
 150 0145 89159C07 		movl	%edx, LPBX1+1788	 # PROF_edge_counter.31, *LPBX1
 150      0000
 151              		.loc 1 91 0 discriminator 1
 152 014b FF44241C 		incl	28(%esp)	 # n
 153              		.loc 1 93 0 discriminator 1
 154 014f E8000000 		call	_ChkIntSources	 #
 154      00
 155 0154 A1A00700 		movl	LPBX1+1792, %eax	 # *LPBX1, PROF_edge_counter.31
 155      00
 156 0159 8B15A407 		movl	LPBX1+1796, %edx	 # *LPBX1, PROF_edge_counter.31
 156      0000
 157 015f 83C001   		addl	$1, %eax	 #, PROF_edge_counter.31
 158 0162 83D200   		adcl	$0, %edx	 #, PROF_edge_counter.31
 159 0165 A3A00700 		movl	%eax, LPBX1+1792	 # PROF_edge_counter.31, *LPBX1
 159      00
 160 016a 8915A407 		movl	%edx, LPBX1+1796	 # PROF_edge_counter.31, *LPBX1
 160      0000
 161              		.loc 1 95 0 discriminator 1
 162 0170 A0000000 		movb	_test_timer_done, %al	 # test_timer_done, test_timer_done.9
 162      00
 163 0175 83F001   		xorl	$1, %eax	 #, D.3083
 164 0178 84C0     		testb	%al, %al	 # D.3083
 165 017a 759F     		jne	L4	 #,
 166              		.loc 1 95 0 is_stmt 0
 167 017c A1A80700 		movl	LPBX1+1800, %eax	 # *LPBX1, PROF_edge_counter.31
 167      00
 168 0181 8B15AC07 		movl	LPBX1+1804, %edx	 # *LPBX1, PROF_edge_counter.31
 168      0000
 169 0187 83C001   		addl	$1, %eax	 #, PROF_edge_counter.31
 170 018a 83D200   		adcl	$0, %edx	 #, PROF_edge_counter.31
 171 018d A3A80700 		movl	%eax, LPBX1+1800	 # PROF_edge_counter.31, *LPBX1
 171      00
 172 0192 8915AC07 		movl	%edx, LPBX1+1804	 # PROF_edge_counter.31, *LPBX1
 172      0000
 173              		.loc 1 96 0 is_stmt 1
 174 0198 C7442404 		movl	$0, 4(%esp)	 #,
 174      00000000 
 175 01a0 8B442430 		movl	48(%esp), %eax	 # tp, tmp78
GAS LISTING C:\cygwin\tmp\ccZXqjbs.s 			page 5


 176 01a4 890424   		movl	%eax, (%esp)	 # tmp78,
 177 01a7 E8000000 		call	_chMsgSend	 #
 177      00
 178 01ac A1B00700 		movl	LPBX1+1808, %eax	 # *LPBX1, PROF_edge_counter.31
 178      00
 179 01b1 8B15B407 		movl	LPBX1+1812, %edx	 # *LPBX1, PROF_edge_counter.31
 179      0000
 180 01b7 83C001   		addl	$1, %eax	 #, PROF_edge_counter.31
 181 01ba 83D200   		adcl	$0, %edx	 #, PROF_edge_counter.31
 182 01bd A3B00700 		movl	%eax, LPBX1+1808	 # PROF_edge_counter.31, *LPBX1
 182      00
 183 01c2 8915B407 		movl	%edx, LPBX1+1812	 # PROF_edge_counter.31, *LPBX1
 183      0000
 184              		.loc 1 97 0
 185 01c8 8B44241C 		movl	28(%esp), %eax	 # n, D.3084
 186              		.loc 1 98 0
 187 01cc 83C42C   		addl	$44, %esp	 #,
 188              	LCFI3:
 189              		.cfi_def_cfa_offset 4
 190 01cf C3       		ret
 191              		.cfi_endproc
 192              	LFE1:
 193              		.section .rdata,"dr"
 194              	LC0:
 195 0000 2D2D2D20 		.ascii "--- Score : \0"
 195      53636F72 
 195      65203A20 
 195      00
 196              	LC1:
 197 000d 206D7367 		.ascii " msgs/S, \0"
 197      732F532C 
 197      2000
 198              	LC2:
 199 0017 20637478 		.ascii " ctxswc/S\0"
 199      7377632F 
 199      5300
 200              		.text
 201              		.def	_bmk1_execute;	.scl	3;	.type	32;	.endef
 202              	_bmk1_execute:
 203              	LFB2:
 204              		.loc 1 109 0
 205              		.cfi_startproc
 206 01d0 83EC3C   		subl	$60, %esp	 #,
 207              	LCFI4:
 208              		.cfi_def_cfa_offset 64
 209              		.loc 1 109 0
 210 01d3 A1380700 		movl	LPBX1+1688, %eax	 # *LPBX1, PROF_edge_counter.30
 210      00
 211 01d8 8B153C07 		movl	LPBX1+1692, %edx	 # *LPBX1, PROF_edge_counter.30
 211      0000
 212 01de 83C001   		addl	$1, %eax	 #, PROF_edge_counter.30
 213 01e1 83D200   		adcl	$0, %edx	 #, PROF_edge_counter.30
 214 01e4 A3380700 		movl	%eax, LPBX1+1688	 # PROF_edge_counter.30, *LPBX1
 214      00
 215 01e9 89153C07 		movl	%edx, LPBX1+1692	 # PROF_edge_counter.30, *LPBX1
 215      0000
 216              		.loc 1 112 0
GAS LISTING C:\cygwin\tmp\ccZXqjbs.s 			page 6


 217 01ef A1180000 		movl	_rlist+24, %eax	 # rlist.r_current, D.3075
 217      00
 218 01f4 8B4008   		movl	8(%eax), %eax	 # D.3075_1->p_prio, D.3076
 219 01f7 8D50FF   		leal	-1(%eax), %edx	 #, D.3077
 220 01fa A1000000 		movl	_wa, %eax	 # wa, D.3078
 220      00
 221 01ff C7442410 		movl	$0, 16(%esp)	 #,
 221      00000000 
 222 0207 C744240C 		movl	$_thread1, 12(%esp)	 #,
 222      00000000 
 223 020f 89542408 		movl	%edx, 8(%esp)	 # D.3077,
 224 0213 C7442404 		movl	$17008, 4(%esp)	 #,
 224      70420000 
 225 021b 890424   		movl	%eax, (%esp)	 # D.3078,
 226 021e E8000000 		call	_chThdCreateStatic	 #
 226      00
 227 0223 89C1     		movl	%eax, %ecx	 #, D.3079
 228 0225 A1400700 		movl	LPBX1+1696, %eax	 # *LPBX1, PROF_edge_counter.30
 228      00
 229 022a 8B154407 		movl	LPBX1+1700, %edx	 # *LPBX1, PROF_edge_counter.30
 229      0000
 230 0230 83C001   		addl	$1, %eax	 #, PROF_edge_counter.30
 231 0233 83D200   		adcl	$0, %edx	 #, PROF_edge_counter.30
 232 0236 A3400700 		movl	%eax, LPBX1+1696	 # PROF_edge_counter.30, *LPBX1
 232      00
 233 023b 89154407 		movl	%edx, LPBX1+1700	 # PROF_edge_counter.30, *LPBX1
 233      0000
 234 0241 890D0000 		movl	%ecx, _threads	 # D.3079, threads
 234      0000
 235              		.loc 1 113 0
 236 0247 A1000000 		movl	_threads, %eax	 # threads, D.3080
 236      00
 237 024c 890424   		movl	%eax, (%esp)	 # D.3080,
 238 024f E857FEFF 		call	_msg_loop_test	 #
 238      FF
 239 0254 8944242C 		movl	%eax, 44(%esp)	 # tmp84, n
 240 0258 A1480700 		movl	LPBX1+1704, %eax	 # *LPBX1, PROF_edge_counter.30
 240      00
 241 025d 8B154C07 		movl	LPBX1+1708, %edx	 # *LPBX1, PROF_edge_counter.30
 241      0000
 242 0263 83C001   		addl	$1, %eax	 #, PROF_edge_counter.30
 243 0266 83D200   		adcl	$0, %edx	 #, PROF_edge_counter.30
 244 0269 A3480700 		movl	%eax, LPBX1+1704	 # PROF_edge_counter.30, *LPBX1
 244      00
 245 026e 89154C07 		movl	%edx, LPBX1+1708	 # PROF_edge_counter.30, *LPBX1
 245      0000
 246              		.loc 1 114 0
 247 0274 E8000000 		call	_test_wait_threads	 #
 247      00
 248 0279 A1500700 		movl	LPBX1+1712, %eax	 # *LPBX1, PROF_edge_counter.30
 248      00
 249 027e 8B155407 		movl	LPBX1+1716, %edx	 # *LPBX1, PROF_edge_counter.30
 249      0000
 250 0284 83C001   		addl	$1, %eax	 #, PROF_edge_counter.30
 251 0287 83D200   		adcl	$0, %edx	 #, PROF_edge_counter.30
 252 028a A3500700 		movl	%eax, LPBX1+1712	 # PROF_edge_counter.30, *LPBX1
 252      00
GAS LISTING C:\cygwin\tmp\ccZXqjbs.s 			page 7


 253 028f 89155407 		movl	%edx, LPBX1+1716	 # PROF_edge_counter.30, *LPBX1
 253      0000
 254              		.loc 1 115 0
 255 0295 C7042400 		movl	$LC0, (%esp)	 #,
 255      000000
 256 029c E8000000 		call	_test_print	 #
 256      00
 257 02a1 A1580700 		movl	LPBX1+1720, %eax	 # *LPBX1, PROF_edge_counter.30
 257      00
 258 02a6 8B155C07 		movl	LPBX1+1724, %edx	 # *LPBX1, PROF_edge_counter.30
 258      0000
 259 02ac 83C001   		addl	$1, %eax	 #, PROF_edge_counter.30
 260 02af 83D200   		adcl	$0, %edx	 #, PROF_edge_counter.30
 261 02b2 A3580700 		movl	%eax, LPBX1+1720	 # PROF_edge_counter.30, *LPBX1
 261      00
 262 02b7 89155C07 		movl	%edx, LPBX1+1724	 # PROF_edge_counter.30, *LPBX1
 262      0000
 263              		.loc 1 116 0
 264 02bd 8B44242C 		movl	44(%esp), %eax	 # n, tmp85
 265 02c1 890424   		movl	%eax, (%esp)	 # tmp85,
 266 02c4 E8000000 		call	_test_printn	 #
 266      00
 267 02c9 A1600700 		movl	LPBX1+1728, %eax	 # *LPBX1, PROF_edge_counter.30
 267      00
 268 02ce 8B156407 		movl	LPBX1+1732, %edx	 # *LPBX1, PROF_edge_counter.30
 268      0000
 269 02d4 83C001   		addl	$1, %eax	 #, PROF_edge_counter.30
 270 02d7 83D200   		adcl	$0, %edx	 #, PROF_edge_counter.30
 271 02da A3600700 		movl	%eax, LPBX1+1728	 # PROF_edge_counter.30, *LPBX1
 271      00
 272 02df 89156407 		movl	%edx, LPBX1+1732	 # PROF_edge_counter.30, *LPBX1
 272      0000
 273              		.loc 1 117 0
 274 02e5 C704240D 		movl	$LC1, (%esp)	 #,
 274      000000
 275 02ec E8000000 		call	_test_print	 #
 275      00
 276 02f1 A1680700 		movl	LPBX1+1736, %eax	 # *LPBX1, PROF_edge_counter.30
 276      00
 277 02f6 8B156C07 		movl	LPBX1+1740, %edx	 # *LPBX1, PROF_edge_counter.30
 277      0000
 278 02fc 83C001   		addl	$1, %eax	 #, PROF_edge_counter.30
 279 02ff 83D200   		adcl	$0, %edx	 #, PROF_edge_counter.30
 280 0302 A3680700 		movl	%eax, LPBX1+1736	 # PROF_edge_counter.30, *LPBX1
 280      00
 281 0307 89156C07 		movl	%edx, LPBX1+1740	 # PROF_edge_counter.30, *LPBX1
 281      0000
 282              		.loc 1 118 0
 283 030d 8B44242C 		movl	44(%esp), %eax	 # n, tmp86
 284 0311 D1E0     		sall	%eax	 # D.3081
 285 0313 890424   		movl	%eax, (%esp)	 # D.3081,
 286 0316 E8000000 		call	_test_printn	 #
 286      00
 287 031b A1700700 		movl	LPBX1+1744, %eax	 # *LPBX1, PROF_edge_counter.30
 287      00
 288 0320 8B157407 		movl	LPBX1+1748, %edx	 # *LPBX1, PROF_edge_counter.30
 288      0000
GAS LISTING C:\cygwin\tmp\ccZXqjbs.s 			page 8


 289 0326 83C001   		addl	$1, %eax	 #, PROF_edge_counter.30
 290 0329 83D200   		adcl	$0, %edx	 #, PROF_edge_counter.30
 291 032c A3700700 		movl	%eax, LPBX1+1744	 # PROF_edge_counter.30, *LPBX1
 291      00
 292 0331 89157407 		movl	%edx, LPBX1+1748	 # PROF_edge_counter.30, *LPBX1
 292      0000
 293              		.loc 1 119 0
 294 0337 C7042417 		movl	$LC2, (%esp)	 #,
 294      000000
 295 033e E8000000 		call	_test_println	 #
 295      00
 296 0343 A1780700 		movl	LPBX1+1752, %eax	 # *LPBX1, PROF_edge_counter.30
 296      00
 297 0348 8B157C07 		movl	LPBX1+1756, %edx	 # *LPBX1, PROF_edge_counter.30
 297      0000
 298 034e 83C001   		addl	$1, %eax	 #, PROF_edge_counter.30
 299 0351 83D200   		adcl	$0, %edx	 #, PROF_edge_counter.30
 300 0354 A3780700 		movl	%eax, LPBX1+1752	 # PROF_edge_counter.30, *LPBX1
 300      00
 301 0359 89157C07 		movl	%edx, LPBX1+1756	 # PROF_edge_counter.30, *LPBX1
 301      0000
 302              		.loc 1 120 0
 303 035f 83C43C   		addl	$60, %esp	 #,
 304              	LCFI5:
 305              		.cfi_def_cfa_offset 4
 306 0362 C3       		ret
 307              		.cfi_endproc
 308              	LFE2:
 309              		.globl	_testbmk1
 310              		.section .rdata,"dr"
 311              	LC3:
 312 0021 42656E63 		.ascii "Benchmark, messages #1\0"
 312      686D6172 
 312      6B2C206D 
 312      65737361 
 312      67657320 
 313              		.align 4
 314              	_testbmk1:
 315              	 # name:
 316 0038 21000000 		.long	LC3
 317              	 # setup:
 318 003c 00000000 		.long	0
 319              	 # teardown:
 320 0040 00000000 		.long	0
 321              	 # execute:
 322 0044 D0010000 		.long	_bmk1_execute
 323              		.text
 324              		.def	_bmk2_execute;	.scl	3;	.type	32;	.endef
 325              	_bmk2_execute:
 326              	LFB3:
 327              		.loc 1 138 0
 328              		.cfi_startproc
 329 0363 83EC3C   		subl	$60, %esp	 #,
 330              	LCFI6:
 331              		.cfi_def_cfa_offset 64
 332              		.loc 1 138 0
 333 0366 A1F00600 		movl	LPBX1+1616, %eax	 # *LPBX1, PROF_edge_counter.29
GAS LISTING C:\cygwin\tmp\ccZXqjbs.s 			page 9


 333      00
 334 036b 8B15F406 		movl	LPBX1+1620, %edx	 # *LPBX1, PROF_edge_counter.29
 334      0000
 335 0371 83C001   		addl	$1, %eax	 #, PROF_edge_counter.29
 336 0374 83D200   		adcl	$0, %edx	 #, PROF_edge_counter.29
 337 0377 A3F00600 		movl	%eax, LPBX1+1616	 # PROF_edge_counter.29, *LPBX1
 337      00
 338 037c 8915F406 		movl	%edx, LPBX1+1620	 # PROF_edge_counter.29, *LPBX1
 338      0000
 339              		.loc 1 141 0
 340 0382 A1180000 		movl	_rlist+24, %eax	 # rlist.r_current, D.3068
 340      00
 341 0387 8B4008   		movl	8(%eax), %eax	 # D.3068_1->p_prio, D.3069
 342 038a 8D5001   		leal	1(%eax), %edx	 #, D.3070
 343 038d A1000000 		movl	_wa, %eax	 # wa, D.3071
 343      00
 344 0392 C7442410 		movl	$0, 16(%esp)	 #,
 344      00000000 
 345 039a C744240C 		movl	$_thread1, 12(%esp)	 #,
 345      00000000 
 346 03a2 89542408 		movl	%edx, 8(%esp)	 # D.3070,
 347 03a6 C7442404 		movl	$17008, 4(%esp)	 #,
 347      70420000 
 348 03ae 890424   		movl	%eax, (%esp)	 # D.3071,
 349 03b1 E8000000 		call	_chThdCreateStatic	 #
 349      00
 350 03b6 89C1     		movl	%eax, %ecx	 #, D.3072
 351 03b8 A1F80600 		movl	LPBX1+1624, %eax	 # *LPBX1, PROF_edge_counter.29
 351      00
 352 03bd 8B15FC06 		movl	LPBX1+1628, %edx	 # *LPBX1, PROF_edge_counter.29
 352      0000
 353 03c3 83C001   		addl	$1, %eax	 #, PROF_edge_counter.29
 354 03c6 83D200   		adcl	$0, %edx	 #, PROF_edge_counter.29
 355 03c9 A3F80600 		movl	%eax, LPBX1+1624	 # PROF_edge_counter.29, *LPBX1
 355      00
 356 03ce 8915FC06 		movl	%edx, LPBX1+1628	 # PROF_edge_counter.29, *LPBX1
 356      0000
 357 03d4 890D0000 		movl	%ecx, _threads	 # D.3072, threads
 357      0000
 358              		.loc 1 142 0
 359 03da A1000000 		movl	_threads, %eax	 # threads, D.3073
 359      00
 360 03df 890424   		movl	%eax, (%esp)	 # D.3073,
 361 03e2 E8C4FCFF 		call	_msg_loop_test	 #
 361      FF
 362 03e7 8944242C 		movl	%eax, 44(%esp)	 # tmp84, n
 363 03eb A1000700 		movl	LPBX1+1632, %eax	 # *LPBX1, PROF_edge_counter.29
 363      00
 364 03f0 8B150407 		movl	LPBX1+1636, %edx	 # *LPBX1, PROF_edge_counter.29
 364      0000
 365 03f6 83C001   		addl	$1, %eax	 #, PROF_edge_counter.29
 366 03f9 83D200   		adcl	$0, %edx	 #, PROF_edge_counter.29
 367 03fc A3000700 		movl	%eax, LPBX1+1632	 # PROF_edge_counter.29, *LPBX1
 367      00
 368 0401 89150407 		movl	%edx, LPBX1+1636	 # PROF_edge_counter.29, *LPBX1
 368      0000
 369              		.loc 1 143 0
GAS LISTING C:\cygwin\tmp\ccZXqjbs.s 			page 10


 370 0407 E8000000 		call	_test_wait_threads	 #
 370      00
 371 040c A1080700 		movl	LPBX1+1640, %eax	 # *LPBX1, PROF_edge_counter.29
 371      00
 372 0411 8B150C07 		movl	LPBX1+1644, %edx	 # *LPBX1, PROF_edge_counter.29
 372      0000
 373 0417 83C001   		addl	$1, %eax	 #, PROF_edge_counter.29
 374 041a 83D200   		adcl	$0, %edx	 #, PROF_edge_counter.29
 375 041d A3080700 		movl	%eax, LPBX1+1640	 # PROF_edge_counter.29, *LPBX1
 375      00
 376 0422 89150C07 		movl	%edx, LPBX1+1644	 # PROF_edge_counter.29, *LPBX1
 376      0000
 377              		.loc 1 144 0
 378 0428 C7042400 		movl	$LC0, (%esp)	 #,
 378      000000
 379 042f E8000000 		call	_test_print	 #
 379      00
 380 0434 A1100700 		movl	LPBX1+1648, %eax	 # *LPBX1, PROF_edge_counter.29
 380      00
 381 0439 8B151407 		movl	LPBX1+1652, %edx	 # *LPBX1, PROF_edge_counter.29
 381      0000
 382 043f 83C001   		addl	$1, %eax	 #, PROF_edge_counter.29
 383 0442 83D200   		adcl	$0, %edx	 #, PROF_edge_counter.29
 384 0445 A3100700 		movl	%eax, LPBX1+1648	 # PROF_edge_counter.29, *LPBX1
 384      00
 385 044a 89151407 		movl	%edx, LPBX1+1652	 # PROF_edge_counter.29, *LPBX1
 385      0000
 386              		.loc 1 145 0
 387 0450 8B44242C 		movl	44(%esp), %eax	 # n, tmp85
 388 0454 890424   		movl	%eax, (%esp)	 # tmp85,
 389 0457 E8000000 		call	_test_printn	 #
 389      00
 390 045c A1180700 		movl	LPBX1+1656, %eax	 # *LPBX1, PROF_edge_counter.29
 390      00
 391 0461 8B151C07 		movl	LPBX1+1660, %edx	 # *LPBX1, PROF_edge_counter.29
 391      0000
 392 0467 83C001   		addl	$1, %eax	 #, PROF_edge_counter.29
 393 046a 83D200   		adcl	$0, %edx	 #, PROF_edge_counter.29
 394 046d A3180700 		movl	%eax, LPBX1+1656	 # PROF_edge_counter.29, *LPBX1
 394      00
 395 0472 89151C07 		movl	%edx, LPBX1+1660	 # PROF_edge_counter.29, *LPBX1
 395      0000
 396              		.loc 1 146 0
 397 0478 C704240D 		movl	$LC1, (%esp)	 #,
 397      000000
 398 047f E8000000 		call	_test_print	 #
 398      00
 399 0484 A1200700 		movl	LPBX1+1664, %eax	 # *LPBX1, PROF_edge_counter.29
 399      00
 400 0489 8B152407 		movl	LPBX1+1668, %edx	 # *LPBX1, PROF_edge_counter.29
 400      0000
 401 048f 83C001   		addl	$1, %eax	 #, PROF_edge_counter.29
 402 0492 83D200   		adcl	$0, %edx	 #, PROF_edge_counter.29
 403 0495 A3200700 		movl	%eax, LPBX1+1664	 # PROF_edge_counter.29, *LPBX1
 403      00
 404 049a 89152407 		movl	%edx, LPBX1+1668	 # PROF_edge_counter.29, *LPBX1
 404      0000
GAS LISTING C:\cygwin\tmp\ccZXqjbs.s 			page 11


 405              		.loc 1 147 0
 406 04a0 8B44242C 		movl	44(%esp), %eax	 # n, tmp86
 407 04a4 D1E0     		sall	%eax	 # D.3074
 408 04a6 890424   		movl	%eax, (%esp)	 # D.3074,
 409 04a9 E8000000 		call	_test_printn	 #
 409      00
 410 04ae A1280700 		movl	LPBX1+1672, %eax	 # *LPBX1, PROF_edge_counter.29
 410      00
 411 04b3 8B152C07 		movl	LPBX1+1676, %edx	 # *LPBX1, PROF_edge_counter.29
 411      0000
 412 04b9 83C001   		addl	$1, %eax	 #, PROF_edge_counter.29
 413 04bc 83D200   		adcl	$0, %edx	 #, PROF_edge_counter.29
 414 04bf A3280700 		movl	%eax, LPBX1+1672	 # PROF_edge_counter.29, *LPBX1
 414      00
 415 04c4 89152C07 		movl	%edx, LPBX1+1676	 # PROF_edge_counter.29, *LPBX1
 415      0000
 416              		.loc 1 148 0
 417 04ca C7042417 		movl	$LC2, (%esp)	 #,
 417      000000
 418 04d1 E8000000 		call	_test_println	 #
 418      00
 419 04d6 A1300700 		movl	LPBX1+1680, %eax	 # *LPBX1, PROF_edge_counter.29
 419      00
 420 04db 8B153407 		movl	LPBX1+1684, %edx	 # *LPBX1, PROF_edge_counter.29
 420      0000
 421 04e1 83C001   		addl	$1, %eax	 #, PROF_edge_counter.29
 422 04e4 83D200   		adcl	$0, %edx	 #, PROF_edge_counter.29
 423 04e7 A3300700 		movl	%eax, LPBX1+1680	 # PROF_edge_counter.29, *LPBX1
 423      00
 424 04ec 89153407 		movl	%edx, LPBX1+1684	 # PROF_edge_counter.29, *LPBX1
 424      0000
 425              		.loc 1 149 0
 426 04f2 83C43C   		addl	$60, %esp	 #,
 427              	LCFI7:
 428              		.cfi_def_cfa_offset 4
 429 04f5 C3       		ret
 430              		.cfi_endproc
 431              	LFE3:
 432              		.globl	_testbmk2
 433              		.section .rdata,"dr"
 434              	LC4:
 435 0048 42656E63 		.ascii "Benchmark, messages #2\0"
 435      686D6172 
 435      6B2C206D 
 435      65737361 
 435      67657320 
 436 005f 00       		.align 4
 437              	_testbmk2:
 438              	 # name:
 439 0060 48000000 		.long	LC4
 440              	 # setup:
 441 0064 00000000 		.long	0
 442              	 # teardown:
 443 0068 00000000 		.long	0
 444              	 # execute:
 445 006c 63030000 		.long	_bmk2_execute
 446              		.text
GAS LISTING C:\cygwin\tmp\ccZXqjbs.s 			page 12


 447              		.def	_thread2;	.scl	3;	.type	32;	.endef
 448              	_thread2:
 449              	LFB4:
 450              		.loc 1 158 0
 451              		.cfi_startproc
 452 04f6 83EC04   		subl	$4, %esp	 #,
 453              	LCFI8:
 454              		.cfi_def_cfa_offset 8
 455              		.loc 1 158 0
 456 04f9 A1E80600 		movl	LPBX1+1608, %eax	 # *LPBX1, PROF_edge_counter.28
 456      00
 457 04fe 8B15EC06 		movl	LPBX1+1612, %edx	 # *LPBX1, PROF_edge_counter.28
 457      0000
 458 0504 83C001   		addl	$1, %eax	 #, PROF_edge_counter.28
 459 0507 83D200   		adcl	$0, %edx	 #, PROF_edge_counter.28
 460 050a A3E80600 		movl	%eax, LPBX1+1608	 # PROF_edge_counter.28, *LPBX1
 460      00
 461 050f 8915EC06 		movl	%edx, LPBX1+1612	 # PROF_edge_counter.28, *LPBX1
 461      0000
 462              		.loc 1 160 0
 463 0515 8B442408 		movl	8(%esp), %eax	 # p, D.3066
 464              		.loc 1 161 0
 465 0519 83C404   		addl	$4, %esp	 #,
 466              	LCFI9:
 467              		.cfi_def_cfa_offset 4
 468 051c C3       		ret
 469              		.cfi_endproc
 470              	LFE4:
 471              		.def	_bmk3_execute;	.scl	3;	.type	32;	.endef
 472              	_bmk3_execute:
 473              	LFB5:
 474              		.loc 1 173 0
 475              		.cfi_startproc
 476 051d 83EC3C   		subl	$60, %esp	 #,
 477              	LCFI10:
 478              		.cfi_def_cfa_offset 64
 479              		.loc 1 173 0
 480 0520 A1800600 		movl	LPBX1+1504, %eax	 # *LPBX1, PROF_edge_counter.27
 480      00
 481 0525 8B158406 		movl	LPBX1+1508, %edx	 # *LPBX1, PROF_edge_counter.27
 481      0000
 482 052b 83C001   		addl	$1, %eax	 #, PROF_edge_counter.27
 483 052e 83D200   		adcl	$0, %edx	 #, PROF_edge_counter.27
 484 0531 A3800600 		movl	%eax, LPBX1+1504	 # PROF_edge_counter.27, *LPBX1
 484      00
 485 0536 89158406 		movl	%edx, LPBX1+1508	 # PROF_edge_counter.27, *LPBX1
 485      0000
 486              		.loc 1 176 0
 487 053c A1180000 		movl	_rlist+24, %eax	 # rlist.r_current, D.3039
 487      00
 488 0541 8B4008   		movl	8(%eax), %eax	 # D.3039_1->p_prio, D.3040
 489 0544 8D5001   		leal	1(%eax), %edx	 #, D.3041
 490 0547 A1000000 		movl	_wa, %eax	 # wa, D.3042
 490      00
 491 054c C7442410 		movl	$0, 16(%esp)	 #,
 491      00000000 
 492 0554 C744240C 		movl	$_thread1, 12(%esp)	 #,
GAS LISTING C:\cygwin\tmp\ccZXqjbs.s 			page 13


 492      00000000 
 493 055c 89542408 		movl	%edx, 8(%esp)	 # D.3041,
 494 0560 C7442404 		movl	$17008, 4(%esp)	 #,
 494      70420000 
 495 0568 890424   		movl	%eax, (%esp)	 # D.3042,
 496 056b E8000000 		call	_chThdCreateStatic	 #
 496      00
 497 0570 89C1     		movl	%eax, %ecx	 #, D.3043
 498 0572 A1880600 		movl	LPBX1+1512, %eax	 # *LPBX1, PROF_edge_counter.27
 498      00
 499 0577 8B158C06 		movl	LPBX1+1516, %edx	 # *LPBX1, PROF_edge_counter.27
 499      0000
 500 057d 83C001   		addl	$1, %eax	 #, PROF_edge_counter.27
 501 0580 83D200   		adcl	$0, %edx	 #, PROF_edge_counter.27
 502 0583 A3880600 		movl	%eax, LPBX1+1512	 # PROF_edge_counter.27, *LPBX1
 502      00
 503 0588 89158C06 		movl	%edx, LPBX1+1516	 # PROF_edge_counter.27, *LPBX1
 503      0000
 504 058e 890D0000 		movl	%ecx, _threads	 # D.3043, threads
 504      0000
 505              		.loc 1 177 0
 506 0594 A1180000 		movl	_rlist+24, %eax	 # rlist.r_current, D.3044
 506      00
 507 0599 8B4008   		movl	8(%eax), %eax	 # D.3044_6->p_prio, D.3045
 508 059c 8D50FE   		leal	-2(%eax), %edx	 #, D.3046
 509 059f A1040000 		movl	_wa+4, %eax	 # wa, D.3047
 509      00
 510 05a4 C7442410 		movl	$0, 16(%esp)	 #,
 510      00000000 
 511 05ac C744240C 		movl	$_thread2, 12(%esp)	 #,
 511      F6040000 
 512 05b4 89542408 		movl	%edx, 8(%esp)	 # D.3046,
 513 05b8 C7442404 		movl	$17008, 4(%esp)	 #,
 513      70420000 
 514 05c0 890424   		movl	%eax, (%esp)	 # D.3047,
 515 05c3 E8000000 		call	_chThdCreateStatic	 #
 515      00
 516 05c8 89C1     		movl	%eax, %ecx	 #, D.3048
 517 05ca A1900600 		movl	LPBX1+1520, %eax	 # *LPBX1, PROF_edge_counter.27
 517      00
 518 05cf 8B159406 		movl	LPBX1+1524, %edx	 # *LPBX1, PROF_edge_counter.27
 518      0000
 519 05d5 83C001   		addl	$1, %eax	 #, PROF_edge_counter.27
 520 05d8 83D200   		adcl	$0, %edx	 #, PROF_edge_counter.27
 521 05db A3900600 		movl	%eax, LPBX1+1520	 # PROF_edge_counter.27, *LPBX1
 521      00
 522 05e0 89159406 		movl	%edx, LPBX1+1524	 # PROF_edge_counter.27, *LPBX1
 522      0000
 523 05e6 890D0400 		movl	%ecx, _threads+4	 # D.3048, threads
 523      0000
 524              		.loc 1 178 0
 525 05ec A1180000 		movl	_rlist+24, %eax	 # rlist.r_current, D.3049
 525      00
 526 05f1 8B4008   		movl	8(%eax), %eax	 # D.3049_11->p_prio, D.3050
 527 05f4 8D50FD   		leal	-3(%eax), %edx	 #, D.3051
 528 05f7 A1080000 		movl	_wa+8, %eax	 # wa, D.3052
 528      00
GAS LISTING C:\cygwin\tmp\ccZXqjbs.s 			page 14


 529 05fc C7442410 		movl	$0, 16(%esp)	 #,
 529      00000000 
 530 0604 C744240C 		movl	$_thread2, 12(%esp)	 #,
 530      F6040000 
 531 060c 89542408 		movl	%edx, 8(%esp)	 # D.3051,
 532 0610 C7442404 		movl	$17008, 4(%esp)	 #,
 532      70420000 
 533 0618 890424   		movl	%eax, (%esp)	 # D.3052,
 534 061b E8000000 		call	_chThdCreateStatic	 #
 534      00
 535 0620 89C1     		movl	%eax, %ecx	 #, D.3053
 536 0622 A1980600 		movl	LPBX1+1528, %eax	 # *LPBX1, PROF_edge_counter.27
 536      00
 537 0627 8B159C06 		movl	LPBX1+1532, %edx	 # *LPBX1, PROF_edge_counter.27
 537      0000
 538 062d 83C001   		addl	$1, %eax	 #, PROF_edge_counter.27
 539 0630 83D200   		adcl	$0, %edx	 #, PROF_edge_counter.27
 540 0633 A3980600 		movl	%eax, LPBX1+1528	 # PROF_edge_counter.27, *LPBX1
 540      00
 541 0638 89159C06 		movl	%edx, LPBX1+1532	 # PROF_edge_counter.27, *LPBX1
 541      0000
 542 063e 890D0800 		movl	%ecx, _threads+8	 # D.3053, threads
 542      0000
 543              		.loc 1 179 0
 544 0644 A1180000 		movl	_rlist+24, %eax	 # rlist.r_current, D.3054
 544      00
 545 0649 8B4008   		movl	8(%eax), %eax	 # D.3054_16->p_prio, D.3055
 546 064c 8D50FC   		leal	-4(%eax), %edx	 #, D.3056
 547 064f A10C0000 		movl	_wa+12, %eax	 # wa, D.3057
 547      00
 548 0654 C7442410 		movl	$0, 16(%esp)	 #,
 548      00000000 
 549 065c C744240C 		movl	$_thread2, 12(%esp)	 #,
 549      F6040000 
 550 0664 89542408 		movl	%edx, 8(%esp)	 # D.3056,
 551 0668 C7442404 		movl	$17008, 4(%esp)	 #,
 551      70420000 
 552 0670 890424   		movl	%eax, (%esp)	 # D.3057,
 553 0673 E8000000 		call	_chThdCreateStatic	 #
 553      00
 554 0678 89C1     		movl	%eax, %ecx	 #, D.3058
 555 067a A1A00600 		movl	LPBX1+1536, %eax	 # *LPBX1, PROF_edge_counter.27
 555      00
 556 067f 8B15A406 		movl	LPBX1+1540, %edx	 # *LPBX1, PROF_edge_counter.27
 556      0000
 557 0685 83C001   		addl	$1, %eax	 #, PROF_edge_counter.27
 558 0688 83D200   		adcl	$0, %edx	 #, PROF_edge_counter.27
 559 068b A3A00600 		movl	%eax, LPBX1+1536	 # PROF_edge_counter.27, *LPBX1
 559      00
 560 0690 8915A406 		movl	%edx, LPBX1+1540	 # PROF_edge_counter.27, *LPBX1
 560      0000
 561 0696 890D0C00 		movl	%ecx, _threads+12	 # D.3058, threads
 561      0000
 562              		.loc 1 180 0
 563 069c A1180000 		movl	_rlist+24, %eax	 # rlist.r_current, D.3059
 563      00
 564 06a1 8B4008   		movl	8(%eax), %eax	 # D.3059_21->p_prio, D.3060
GAS LISTING C:\cygwin\tmp\ccZXqjbs.s 			page 15


 565 06a4 8D50FB   		leal	-5(%eax), %edx	 #, D.3061
 566 06a7 A1100000 		movl	_wa+16, %eax	 # wa, D.3062
 566      00
 567 06ac C7442410 		movl	$0, 16(%esp)	 #,
 567      00000000 
 568 06b4 C744240C 		movl	$_thread2, 12(%esp)	 #,
 568      F6040000 
 569 06bc 89542408 		movl	%edx, 8(%esp)	 # D.3061,
 570 06c0 C7442404 		movl	$17008, 4(%esp)	 #,
 570      70420000 
 571 06c8 890424   		movl	%eax, (%esp)	 # D.3062,
 572 06cb E8000000 		call	_chThdCreateStatic	 #
 572      00
 573 06d0 89C1     		movl	%eax, %ecx	 #, D.3063
 574 06d2 A1A80600 		movl	LPBX1+1544, %eax	 # *LPBX1, PROF_edge_counter.27
 574      00
 575 06d7 8B15AC06 		movl	LPBX1+1548, %edx	 # *LPBX1, PROF_edge_counter.27
 575      0000
 576 06dd 83C001   		addl	$1, %eax	 #, PROF_edge_counter.27
 577 06e0 83D200   		adcl	$0, %edx	 #, PROF_edge_counter.27
 578 06e3 A3A80600 		movl	%eax, LPBX1+1544	 # PROF_edge_counter.27, *LPBX1
 578      00
 579 06e8 8915AC06 		movl	%edx, LPBX1+1548	 # PROF_edge_counter.27, *LPBX1
 579      0000
 580 06ee 890D1000 		movl	%ecx, _threads+16	 # D.3063, threads
 580      0000
 581              		.loc 1 181 0
 582 06f4 A1000000 		movl	_threads, %eax	 # threads, D.3064
 582      00
 583 06f9 890424   		movl	%eax, (%esp)	 # D.3064,
 584 06fc E8AAF9FF 		call	_msg_loop_test	 #
 584      FF
 585 0701 8944242C 		movl	%eax, 44(%esp)	 # tmp112, n
 586 0705 A1B00600 		movl	LPBX1+1552, %eax	 # *LPBX1, PROF_edge_counter.27
 586      00
 587 070a 8B15B406 		movl	LPBX1+1556, %edx	 # *LPBX1, PROF_edge_counter.27
 587      0000
 588 0710 83C001   		addl	$1, %eax	 #, PROF_edge_counter.27
 589 0713 83D200   		adcl	$0, %edx	 #, PROF_edge_counter.27
 590 0716 A3B00600 		movl	%eax, LPBX1+1552	 # PROF_edge_counter.27, *LPBX1
 590      00
 591 071b 8915B406 		movl	%edx, LPBX1+1556	 # PROF_edge_counter.27, *LPBX1
 591      0000
 592              		.loc 1 182 0
 593 0721 E8000000 		call	_test_wait_threads	 #
 593      00
 594 0726 A1B80600 		movl	LPBX1+1560, %eax	 # *LPBX1, PROF_edge_counter.27
 594      00
 595 072b 8B15BC06 		movl	LPBX1+1564, %edx	 # *LPBX1, PROF_edge_counter.27
 595      0000
 596 0731 83C001   		addl	$1, %eax	 #, PROF_edge_counter.27
 597 0734 83D200   		adcl	$0, %edx	 #, PROF_edge_counter.27
 598 0737 A3B80600 		movl	%eax, LPBX1+1560	 # PROF_edge_counter.27, *LPBX1
 598      00
 599 073c 8915BC06 		movl	%edx, LPBX1+1564	 # PROF_edge_counter.27, *LPBX1
 599      0000
 600              		.loc 1 183 0
GAS LISTING C:\cygwin\tmp\ccZXqjbs.s 			page 16


 601 0742 C7042400 		movl	$LC0, (%esp)	 #,
 601      000000
 602 0749 E8000000 		call	_test_print	 #
 602      00
 603 074e A1C00600 		movl	LPBX1+1568, %eax	 # *LPBX1, PROF_edge_counter.27
 603      00
 604 0753 8B15C406 		movl	LPBX1+1572, %edx	 # *LPBX1, PROF_edge_counter.27
 604      0000
 605 0759 83C001   		addl	$1, %eax	 #, PROF_edge_counter.27
 606 075c 83D200   		adcl	$0, %edx	 #, PROF_edge_counter.27
 607 075f A3C00600 		movl	%eax, LPBX1+1568	 # PROF_edge_counter.27, *LPBX1
 607      00
 608 0764 8915C406 		movl	%edx, LPBX1+1572	 # PROF_edge_counter.27, *LPBX1
 608      0000
 609              		.loc 1 184 0
 610 076a 8B44242C 		movl	44(%esp), %eax	 # n, tmp113
 611 076e 890424   		movl	%eax, (%esp)	 # tmp113,
 612 0771 E8000000 		call	_test_printn	 #
 612      00
 613 0776 A1C80600 		movl	LPBX1+1576, %eax	 # *LPBX1, PROF_edge_counter.27
 613      00
 614 077b 8B15CC06 		movl	LPBX1+1580, %edx	 # *LPBX1, PROF_edge_counter.27
 614      0000
 615 0781 83C001   		addl	$1, %eax	 #, PROF_edge_counter.27
 616 0784 83D200   		adcl	$0, %edx	 #, PROF_edge_counter.27
 617 0787 A3C80600 		movl	%eax, LPBX1+1576	 # PROF_edge_counter.27, *LPBX1
 617      00
 618 078c 8915CC06 		movl	%edx, LPBX1+1580	 # PROF_edge_counter.27, *LPBX1
 618      0000
 619              		.loc 1 185 0
 620 0792 C704240D 		movl	$LC1, (%esp)	 #,
 620      000000
 621 0799 E8000000 		call	_test_print	 #
 621      00
 622 079e A1D00600 		movl	LPBX1+1584, %eax	 # *LPBX1, PROF_edge_counter.27
 622      00
 623 07a3 8B15D406 		movl	LPBX1+1588, %edx	 # *LPBX1, PROF_edge_counter.27
 623      0000
 624 07a9 83C001   		addl	$1, %eax	 #, PROF_edge_counter.27
 625 07ac 83D200   		adcl	$0, %edx	 #, PROF_edge_counter.27
 626 07af A3D00600 		movl	%eax, LPBX1+1584	 # PROF_edge_counter.27, *LPBX1
 626      00
 627 07b4 8915D406 		movl	%edx, LPBX1+1588	 # PROF_edge_counter.27, *LPBX1
 627      0000
 628              		.loc 1 186 0
 629 07ba 8B44242C 		movl	44(%esp), %eax	 # n, tmp114
 630 07be D1E0     		sall	%eax	 # D.3065
 631 07c0 890424   		movl	%eax, (%esp)	 # D.3065,
 632 07c3 E8000000 		call	_test_printn	 #
 632      00
 633 07c8 A1D80600 		movl	LPBX1+1592, %eax	 # *LPBX1, PROF_edge_counter.27
 633      00
 634 07cd 8B15DC06 		movl	LPBX1+1596, %edx	 # *LPBX1, PROF_edge_counter.27
 634      0000
 635 07d3 83C001   		addl	$1, %eax	 #, PROF_edge_counter.27
 636 07d6 83D200   		adcl	$0, %edx	 #, PROF_edge_counter.27
 637 07d9 A3D80600 		movl	%eax, LPBX1+1592	 # PROF_edge_counter.27, *LPBX1
GAS LISTING C:\cygwin\tmp\ccZXqjbs.s 			page 17


 637      00
 638 07de 8915DC06 		movl	%edx, LPBX1+1596	 # PROF_edge_counter.27, *LPBX1
 638      0000
 639              		.loc 1 187 0
 640 07e4 C7042417 		movl	$LC2, (%esp)	 #,
 640      000000
 641 07eb E8000000 		call	_test_println	 #
 641      00
 642 07f0 A1E00600 		movl	LPBX1+1600, %eax	 # *LPBX1, PROF_edge_counter.27
 642      00
 643 07f5 8B15E406 		movl	LPBX1+1604, %edx	 # *LPBX1, PROF_edge_counter.27
 643      0000
 644 07fb 83C001   		addl	$1, %eax	 #, PROF_edge_counter.27
 645 07fe 83D200   		adcl	$0, %edx	 #, PROF_edge_counter.27
 646 0801 A3E00600 		movl	%eax, LPBX1+1600	 # PROF_edge_counter.27, *LPBX1
 646      00
 647 0806 8915E406 		movl	%edx, LPBX1+1604	 # PROF_edge_counter.27, *LPBX1
 647      0000
 648              		.loc 1 188 0
 649 080c 83C43C   		addl	$60, %esp	 #,
 650              	LCFI11:
 651              		.cfi_def_cfa_offset 4
 652 080f C3       		ret
 653              		.cfi_endproc
 654              	LFE5:
 655              		.globl	_testbmk3
 656              		.section .rdata,"dr"
 657              	LC5:
 658 0070 42656E63 		.ascii "Benchmark, messages #3\0"
 658      686D6172 
 658      6B2C206D 
 658      65737361 
 658      67657320 
 659 0087 00       		.align 4
 660              	_testbmk3:
 661              	 # name:
 662 0088 70000000 		.long	LC5
 663              	 # setup:
 664 008c 00000000 		.long	0
 665              	 # teardown:
 666 0090 00000000 		.long	0
 667              	 # execute:
 668 0094 1D050000 		.long	_bmk3_execute
 669              		.text
 670              		.globl	_thread4
 671              		.def	_thread4;	.scl	2;	.type	32;	.endef
 672              	_thread4:
 673              	LFB6:
 674              		.loc 1 207 0
 675              		.cfi_startproc
 676 0810 83EC2C   		subl	$44, %esp	 #,
 677              	LCFI12:
 678              		.cfi_def_cfa_offset 48
 679              		.loc 1 207 0
 680 0813 A1580600 		movl	LPBX1+1464, %eax	 # *LPBX1, PROF_edge_counter.26
 680      00
 681 0818 8B155C06 		movl	LPBX1+1468, %edx	 # *LPBX1, PROF_edge_counter.26
GAS LISTING C:\cygwin\tmp\ccZXqjbs.s 			page 18


 681      0000
 682 081e 83C001   		addl	$1, %eax	 #, PROF_edge_counter.26
 683 0821 83D200   		adcl	$0, %edx	 #, PROF_edge_counter.26
 684 0824 A3580600 		movl	%eax, LPBX1+1464	 # PROF_edge_counter.26, *LPBX1
 684      00
 685 0829 89155C06 		movl	%edx, LPBX1+1468	 # PROF_edge_counter.26, *LPBX1
 685      0000
 686              		.loc 1 209 0
 687 082f A1180000 		movl	_rlist+24, %eax	 # rlist.r_current, tmp71
 687      00
 688 0834 8944241C 		movl	%eax, 28(%esp)	 # tmp71, self
 689              		.loc 1 212 0
 690              	/APP
 691              	 # 212 "../../test/testbmk.c" 1
 692 0838 90       		nop
 693              	 # 0 "" 2
 694              	/NO_APP
 695 0839 A1600600 		movl	LPBX1+1472, %eax	 # *LPBX1, PROF_edge_counter.26
 695      00
 696 083e 8B156406 		movl	LPBX1+1476, %edx	 # *LPBX1, PROF_edge_counter.26
 696      0000
 697 0844 83C001   		addl	$1, %eax	 #, PROF_edge_counter.26
 698 0847 83D200   		adcl	$0, %edx	 #, PROF_edge_counter.26
 699 084a A3600600 		movl	%eax, LPBX1+1472	 # PROF_edge_counter.26, *LPBX1
 699      00
 700 084f 89156406 		movl	%edx, LPBX1+1476	 # PROF_edge_counter.26, *LPBX1
 700      0000
 701              	L10:
 702              		.loc 1 214 0 discriminator 1
 703 0855 C7042402 		movl	$2, (%esp)	 #,
 703      000000
 704 085c E8000000 		call	_chSchGoSleepS	 #
 704      00
 705 0861 A1680600 		movl	LPBX1+1480, %eax	 # *LPBX1, PROF_edge_counter.26
 705      00
 706 0866 8B156C06 		movl	LPBX1+1484, %edx	 # *LPBX1, PROF_edge_counter.26
 706      0000
 707 086c 83C001   		addl	$1, %eax	 #, PROF_edge_counter.26
 708 086f 83D200   		adcl	$0, %edx	 #, PROF_edge_counter.26
 709 0872 A3680600 		movl	%eax, LPBX1+1480	 # PROF_edge_counter.26, *LPBX1
 709      00
 710 0877 89156C06 		movl	%edx, LPBX1+1484	 # PROF_edge_counter.26, *LPBX1
 710      0000
 711              		.loc 1 215 0 discriminator 1
 712 087d 8B44241C 		movl	28(%esp), %eax	 # self, tmp72
 713 0881 8B4024   		movl	36(%eax), %eax	 # self_1->p_u.rdymsg, tmp73
 714 0884 89442418 		movl	%eax, 24(%esp)	 # tmp73, msg
 715              		.loc 1 216 0 discriminator 1
 716 0888 837C2418 		cmpl	$0, 24(%esp)	 #, msg
 716      00
 717 088d 74C6     		je	L10	 #,
 718              		.loc 1 216 0 is_stmt 0
 719 088f A1700600 		movl	LPBX1+1488, %eax	 # *LPBX1, PROF_edge_counter.26
 719      00
 720 0894 8B157406 		movl	LPBX1+1492, %edx	 # *LPBX1, PROF_edge_counter.26
 720      0000
 721 089a 83C001   		addl	$1, %eax	 #, PROF_edge_counter.26
GAS LISTING C:\cygwin\tmp\ccZXqjbs.s 			page 19


 722 089d 83D200   		adcl	$0, %edx	 #, PROF_edge_counter.26
 723 08a0 A3700600 		movl	%eax, LPBX1+1488	 # PROF_edge_counter.26, *LPBX1
 723      00
 724 08a5 89157406 		movl	%edx, LPBX1+1492	 # PROF_edge_counter.26, *LPBX1
 724      0000
 725              		.loc 1 217 0 is_stmt 1
 726              	/APP
 727              	 # 217 "../../test/testbmk.c" 1
 728 08ab 90       		nop
 729              	 # 0 "" 2
 730              	/NO_APP
 731 08ac A1780600 		movl	LPBX1+1496, %eax	 # *LPBX1, PROF_edge_counter.26
 731      00
 732 08b1 8B157C06 		movl	LPBX1+1500, %edx	 # *LPBX1, PROF_edge_counter.26
 732      0000
 733 08b7 83C001   		addl	$1, %eax	 #, PROF_edge_counter.26
 734 08ba 83D200   		adcl	$0, %edx	 #, PROF_edge_counter.26
 735 08bd A3780600 		movl	%eax, LPBX1+1496	 # PROF_edge_counter.26, *LPBX1
 735      00
 736 08c2 89157C06 		movl	%edx, LPBX1+1500	 # PROF_edge_counter.26, *LPBX1
 736      0000
 737              		.loc 1 218 0
 738 08c8 B8000000 		movl	$0, %eax	 #, D.3037
 738      00
 739              		.loc 1 219 0
 740 08cd 83C42C   		addl	$44, %esp	 #,
 741              	LCFI13:
 742              		.cfi_def_cfa_offset 4
 743 08d0 C3       		ret
 744              		.cfi_endproc
 745              	LFE6:
 746              		.def	_bmk4_execute;	.scl	3;	.type	32;	.endef
 747              	_bmk4_execute:
 748              	LFB7:
 749              		.loc 1 221 0
 750              		.cfi_startproc
 751 08d1 83EC3C   		subl	$60, %esp	 #,
 752              	LCFI14:
 753              		.cfi_def_cfa_offset 64
 754              		.loc 1 221 0
 755 08d4 A1C00500 		movl	LPBX1+1312, %eax	 # *LPBX1, PROF_edge_counter.25
 755      00
 756 08d9 8B15C405 		movl	LPBX1+1316, %edx	 # *LPBX1, PROF_edge_counter.25
 756      0000
 757 08df 83C001   		addl	$1, %eax	 #, PROF_edge_counter.25
 758 08e2 83D200   		adcl	$0, %edx	 #, PROF_edge_counter.25
 759 08e5 A3C00500 		movl	%eax, LPBX1+1312	 # PROF_edge_counter.25, *LPBX1
 759      00
 760 08ea 8915C405 		movl	%edx, LPBX1+1316	 # PROF_edge_counter.25, *LPBX1
 760      0000
 761              		.loc 1 225 0
 762 08f0 A1180000 		movl	_rlist+24, %eax	 # rlist.r_current, D.3029
 762      00
 763 08f5 8B4008   		movl	8(%eax), %eax	 # D.3029_2->p_prio, D.3030
 764 08f8 8D5001   		leal	1(%eax), %edx	 #, D.3031
 765 08fb A1000000 		movl	_wa, %eax	 # wa, D.3032
 765      00
GAS LISTING C:\cygwin\tmp\ccZXqjbs.s 			page 20


 766 0900 C7442410 		movl	$0, 16(%esp)	 #,
 766      00000000 
 767 0908 C744240C 		movl	$_thread4, 12(%esp)	 #,
 767      10080000 
 768 0910 89542408 		movl	%edx, 8(%esp)	 # D.3031,
 769 0914 C7442404 		movl	$17008, 4(%esp)	 #,
 769      70420000 
 770 091c 890424   		movl	%eax, (%esp)	 # D.3032,
 771 091f E8000000 		call	_chThdCreateStatic	 #
 771      00
 772 0924 89C1     		movl	%eax, %ecx	 #, D.3033
 773 0926 A1C80500 		movl	LPBX1+1320, %eax	 # *LPBX1, PROF_edge_counter.25
 773      00
 774 092b 8B15CC05 		movl	LPBX1+1324, %edx	 # *LPBX1, PROF_edge_counter.25
 774      0000
 775 0931 83C001   		addl	$1, %eax	 #, PROF_edge_counter.25
 776 0934 83D200   		adcl	$0, %edx	 #, PROF_edge_counter.25
 777 0937 A3C80500 		movl	%eax, LPBX1+1320	 # PROF_edge_counter.25, *LPBX1
 777      00
 778 093c 8915CC05 		movl	%edx, LPBX1+1324	 # PROF_edge_counter.25, *LPBX1
 778      0000
 779 0942 890D0000 		movl	%ecx, _threads	 # D.3033, threads
 779      0000
 780 0948 A1000000 		movl	_threads, %eax	 # threads, tmp105
 780      00
 781 094d 89442428 		movl	%eax, 40(%esp)	 # tmp105, tp
 782              		.loc 1 226 0
 783 0951 C744242C 		movl	$0, 44(%esp)	 #, n
 783      00000000 
 784              		.loc 1 227 0
 785 0959 E8000000 		call	_test_wait_tick	 #
 785      00
 786 095e A1D00500 		movl	LPBX1+1328, %eax	 # *LPBX1, PROF_edge_counter.25
 786      00
 787 0963 8B15D405 		movl	LPBX1+1332, %edx	 # *LPBX1, PROF_edge_counter.25
 787      0000
 788 0969 83C001   		addl	$1, %eax	 #, PROF_edge_counter.25
 789 096c 83D200   		adcl	$0, %edx	 #, PROF_edge_counter.25
 790 096f A3D00500 		movl	%eax, LPBX1+1328	 # PROF_edge_counter.25, *LPBX1
 790      00
 791 0974 8915D405 		movl	%edx, LPBX1+1332	 # PROF_edge_counter.25, *LPBX1
 791      0000
 792              		.loc 1 228 0
 793 097a C70424E8 		movl	$1000, (%esp)	 #,
 793      030000
 794 0981 E8000000 		call	_test_start_timer	 #
 794      00
 795 0986 A1D80500 		movl	LPBX1+1336, %eax	 # *LPBX1, PROF_edge_counter.25
 795      00
 796 098b 8B15DC05 		movl	LPBX1+1340, %edx	 # *LPBX1, PROF_edge_counter.25
 796      0000
 797 0991 83C001   		addl	$1, %eax	 #, PROF_edge_counter.25
 798 0994 83D200   		adcl	$0, %edx	 #, PROF_edge_counter.25
 799 0997 A3D80500 		movl	%eax, LPBX1+1336	 # PROF_edge_counter.25, *LPBX1
 799      00
 800 099c 8915DC05 		movl	%edx, LPBX1+1340	 # PROF_edge_counter.25, *LPBX1
 800      0000
GAS LISTING C:\cygwin\tmp\ccZXqjbs.s 			page 21


 801              	L12:
 802              		.loc 1 230 0 discriminator 1
 803              	/APP
 804              	 # 230 "../../test/testbmk.c" 1
 805 09a2 90       		nop
 806              	 # 0 "" 2
 807              	/NO_APP
 808 09a3 A1E00500 		movl	LPBX1+1344, %eax	 # *LPBX1, PROF_edge_counter.25
 808      00
 809 09a8 8B15E405 		movl	LPBX1+1348, %edx	 # *LPBX1, PROF_edge_counter.25
 809      0000
 810 09ae 83C001   		addl	$1, %eax	 #, PROF_edge_counter.25
 811 09b1 83D200   		adcl	$0, %edx	 #, PROF_edge_counter.25
 812 09b4 A3E00500 		movl	%eax, LPBX1+1344	 # PROF_edge_counter.25, *LPBX1
 812      00
 813 09b9 8915E405 		movl	%edx, LPBX1+1348	 # PROF_edge_counter.25, *LPBX1
 813      0000
 814              		.loc 1 231 0 discriminator 1
 815 09bf C7442404 		movl	$0, 4(%esp)	 #,
 815      00000000 
 816 09c7 8B442428 		movl	40(%esp), %eax	 # tp, tmp106
 817 09cb 890424   		movl	%eax, (%esp)	 # tmp106,
 818 09ce E8000000 		call	_chSchWakeupS	 #
 818      00
 819 09d3 A1E80500 		movl	LPBX1+1352, %eax	 # *LPBX1, PROF_edge_counter.25
 819      00
 820 09d8 8B15EC05 		movl	LPBX1+1356, %edx	 # *LPBX1, PROF_edge_counter.25
 820      0000
 821 09de 83C001   		addl	$1, %eax	 #, PROF_edge_counter.25
 822 09e1 83D200   		adcl	$0, %edx	 #, PROF_edge_counter.25
 823 09e4 A3E80500 		movl	%eax, LPBX1+1352	 # PROF_edge_counter.25, *LPBX1
 823      00
 824 09e9 8915EC05 		movl	%edx, LPBX1+1356	 # PROF_edge_counter.25, *LPBX1
 824      0000
 825              		.loc 1 232 0 discriminator 1
 826 09ef C7442404 		movl	$0, 4(%esp)	 #,
 826      00000000 
 827 09f7 8B442428 		movl	40(%esp), %eax	 # tp, tmp107
 828 09fb 890424   		movl	%eax, (%esp)	 # tmp107,
 829 09fe E8000000 		call	_chSchWakeupS	 #
 829      00
 830 0a03 A1F00500 		movl	LPBX1+1360, %eax	 # *LPBX1, PROF_edge_counter.25
 830      00
 831 0a08 8B15F405 		movl	LPBX1+1364, %edx	 # *LPBX1, PROF_edge_counter.25
 831      0000
 832 0a0e 83C001   		addl	$1, %eax	 #, PROF_edge_counter.25
 833 0a11 83D200   		adcl	$0, %edx	 #, PROF_edge_counter.25
 834 0a14 A3F00500 		movl	%eax, LPBX1+1360	 # PROF_edge_counter.25, *LPBX1
 834      00
 835 0a19 8915F405 		movl	%edx, LPBX1+1364	 # PROF_edge_counter.25, *LPBX1
 835      0000
 836              		.loc 1 233 0 discriminator 1
 837 0a1f C7442404 		movl	$0, 4(%esp)	 #,
 837      00000000 
 838 0a27 8B442428 		movl	40(%esp), %eax	 # tp, tmp108
 839 0a2b 890424   		movl	%eax, (%esp)	 # tmp108,
 840 0a2e E8000000 		call	_chSchWakeupS	 #
GAS LISTING C:\cygwin\tmp\ccZXqjbs.s 			page 22


 840      00
 841 0a33 A1F80500 		movl	LPBX1+1368, %eax	 # *LPBX1, PROF_edge_counter.25
 841      00
 842 0a38 8B15FC05 		movl	LPBX1+1372, %edx	 # *LPBX1, PROF_edge_counter.25
 842      0000
 843 0a3e 83C001   		addl	$1, %eax	 #, PROF_edge_counter.25
 844 0a41 83D200   		adcl	$0, %edx	 #, PROF_edge_counter.25
 845 0a44 A3F80500 		movl	%eax, LPBX1+1368	 # PROF_edge_counter.25, *LPBX1
 845      00
 846 0a49 8915FC05 		movl	%edx, LPBX1+1372	 # PROF_edge_counter.25, *LPBX1
 846      0000
 847              		.loc 1 234 0 discriminator 1
 848 0a4f C7442404 		movl	$0, 4(%esp)	 #,
 848      00000000 
 849 0a57 8B442428 		movl	40(%esp), %eax	 # tp, tmp109
 850 0a5b 890424   		movl	%eax, (%esp)	 # tmp109,
 851 0a5e E8000000 		call	_chSchWakeupS	 #
 851      00
 852 0a63 A1000600 		movl	LPBX1+1376, %eax	 # *LPBX1, PROF_edge_counter.25
 852      00
 853 0a68 8B150406 		movl	LPBX1+1380, %edx	 # *LPBX1, PROF_edge_counter.25
 853      0000
 854 0a6e 83C001   		addl	$1, %eax	 #, PROF_edge_counter.25
 855 0a71 83D200   		adcl	$0, %edx	 #, PROF_edge_counter.25
 856 0a74 A3000600 		movl	%eax, LPBX1+1376	 # PROF_edge_counter.25, *LPBX1
 856      00
 857 0a79 89150406 		movl	%edx, LPBX1+1380	 # PROF_edge_counter.25, *LPBX1
 857      0000
 858              		.loc 1 235 0 discriminator 1
 859              	/APP
 860              	 # 235 "../../test/testbmk.c" 1
 861 0a7f 90       		nop
 862              	 # 0 "" 2
 863              	/NO_APP
 864 0a80 A1080600 		movl	LPBX1+1384, %eax	 # *LPBX1, PROF_edge_counter.25
 864      00
 865 0a85 8B150C06 		movl	LPBX1+1388, %edx	 # *LPBX1, PROF_edge_counter.25
 865      0000
 866 0a8b 83C001   		addl	$1, %eax	 #, PROF_edge_counter.25
 867 0a8e 83D200   		adcl	$0, %edx	 #, PROF_edge_counter.25
 868 0a91 A3080600 		movl	%eax, LPBX1+1384	 # PROF_edge_counter.25, *LPBX1
 868      00
 869 0a96 89150C06 		movl	%edx, LPBX1+1388	 # PROF_edge_counter.25, *LPBX1
 869      0000
 870              		.loc 1 236 0 discriminator 1
 871 0a9c 8344242C 		addl	$4, 44(%esp)	 #, n
 871      04
 872              		.loc 1 238 0 discriminator 1
 873 0aa1 E8000000 		call	_ChkIntSources	 #
 873      00
 874 0aa6 A1100600 		movl	LPBX1+1392, %eax	 # *LPBX1, PROF_edge_counter.25
 874      00
 875 0aab 8B151406 		movl	LPBX1+1396, %edx	 # *LPBX1, PROF_edge_counter.25
 875      0000
 876 0ab1 83C001   		addl	$1, %eax	 #, PROF_edge_counter.25
 877 0ab4 83D200   		adcl	$0, %edx	 #, PROF_edge_counter.25
 878 0ab7 A3100600 		movl	%eax, LPBX1+1392	 # PROF_edge_counter.25, *LPBX1
GAS LISTING C:\cygwin\tmp\ccZXqjbs.s 			page 23


 878      00
 879 0abc 89151406 		movl	%edx, LPBX1+1396	 # PROF_edge_counter.25, *LPBX1
 879      0000
 880              		.loc 1 240 0 discriminator 1
 881 0ac2 A0000000 		movb	_test_timer_done, %al	 # test_timer_done, test_timer_done.8
 881      00
 882 0ac7 83F001   		xorl	$1, %eax	 #, D.3035
 883 0aca 84C0     		testb	%al, %al	 # D.3035
 884 0acc 0F85D0FE 		jne	L12	 #,
 884      FFFF
 885              		.loc 1 240 0 is_stmt 0
 886 0ad2 A1180600 		movl	LPBX1+1400, %eax	 # *LPBX1, PROF_edge_counter.25
 886      00
 887 0ad7 8B151C06 		movl	LPBX1+1404, %edx	 # *LPBX1, PROF_edge_counter.25
 887      0000
 888 0add 83C001   		addl	$1, %eax	 #, PROF_edge_counter.25
 889 0ae0 83D200   		adcl	$0, %edx	 #, PROF_edge_counter.25
 890 0ae3 A3180600 		movl	%eax, LPBX1+1400	 # PROF_edge_counter.25, *LPBX1
 890      00
 891 0ae8 89151C06 		movl	%edx, LPBX1+1404	 # PROF_edge_counter.25, *LPBX1
 891      0000
 892              		.loc 1 241 0 is_stmt 1
 893              	/APP
 894              	 # 241 "../../test/testbmk.c" 1
 895 0aee 90       		nop
 896              	 # 0 "" 2
 897              	/NO_APP
 898 0aef A1200600 		movl	LPBX1+1408, %eax	 # *LPBX1, PROF_edge_counter.25
 898      00
 899 0af4 8B152406 		movl	LPBX1+1412, %edx	 # *LPBX1, PROF_edge_counter.25
 899      0000
 900 0afa 83C001   		addl	$1, %eax	 #, PROF_edge_counter.25
 901 0afd 83D200   		adcl	$0, %edx	 #, PROF_edge_counter.25
 902 0b00 A3200600 		movl	%eax, LPBX1+1408	 # PROF_edge_counter.25, *LPBX1
 902      00
 903 0b05 89152406 		movl	%edx, LPBX1+1412	 # PROF_edge_counter.25, *LPBX1
 903      0000
 904              		.loc 1 242 0
 905 0b0b C7442404 		movl	$-1, 4(%esp)	 #,
 905      FFFFFFFF 
 906 0b13 8B442428 		movl	40(%esp), %eax	 # tp, tmp110
 907 0b17 890424   		movl	%eax, (%esp)	 # tmp110,
 908 0b1a E8000000 		call	_chSchWakeupS	 #
 908      00
 909 0b1f A1280600 		movl	LPBX1+1416, %eax	 # *LPBX1, PROF_edge_counter.25
 909      00
 910 0b24 8B152C06 		movl	LPBX1+1420, %edx	 # *LPBX1, PROF_edge_counter.25
 910      0000
 911 0b2a 83C001   		addl	$1, %eax	 #, PROF_edge_counter.25
 912 0b2d 83D200   		adcl	$0, %edx	 #, PROF_edge_counter.25
 913 0b30 A3280600 		movl	%eax, LPBX1+1416	 # PROF_edge_counter.25, *LPBX1
 913      00
 914 0b35 89152C06 		movl	%edx, LPBX1+1420	 # PROF_edge_counter.25, *LPBX1
 914      0000
 915              		.loc 1 243 0
 916              	/APP
 917              	 # 243 "../../test/testbmk.c" 1
GAS LISTING C:\cygwin\tmp\ccZXqjbs.s 			page 24


 918 0b3b 90       		nop
 919              	 # 0 "" 2
 920              	/NO_APP
 921 0b3c A1300600 		movl	LPBX1+1424, %eax	 # *LPBX1, PROF_edge_counter.25
 921      00
 922 0b41 8B153406 		movl	LPBX1+1428, %edx	 # *LPBX1, PROF_edge_counter.25
 922      0000
 923 0b47 83C001   		addl	$1, %eax	 #, PROF_edge_counter.25
 924 0b4a 83D200   		adcl	$0, %edx	 #, PROF_edge_counter.25
 925 0b4d A3300600 		movl	%eax, LPBX1+1424	 # PROF_edge_counter.25, *LPBX1
 925      00
 926 0b52 89153406 		movl	%edx, LPBX1+1428	 # PROF_edge_counter.25, *LPBX1
 926      0000
 927              		.loc 1 245 0
 928 0b58 E8000000 		call	_test_wait_threads	 #
 928      00
 929 0b5d A1380600 		movl	LPBX1+1432, %eax	 # *LPBX1, PROF_edge_counter.25
 929      00
 930 0b62 8B153C06 		movl	LPBX1+1436, %edx	 # *LPBX1, PROF_edge_counter.25
 930      0000
 931 0b68 83C001   		addl	$1, %eax	 #, PROF_edge_counter.25
 932 0b6b 83D200   		adcl	$0, %edx	 #, PROF_edge_counter.25
 933 0b6e A3380600 		movl	%eax, LPBX1+1432	 # PROF_edge_counter.25, *LPBX1
 933      00
 934 0b73 89153C06 		movl	%edx, LPBX1+1436	 # PROF_edge_counter.25, *LPBX1
 934      0000
 935              		.loc 1 246 0
 936 0b79 C7042400 		movl	$LC0, (%esp)	 #,
 936      000000
 937 0b80 E8000000 		call	_test_print	 #
 937      00
 938 0b85 A1400600 		movl	LPBX1+1440, %eax	 # *LPBX1, PROF_edge_counter.25
 938      00
 939 0b8a 8B154406 		movl	LPBX1+1444, %edx	 # *LPBX1, PROF_edge_counter.25
 939      0000
 940 0b90 83C001   		addl	$1, %eax	 #, PROF_edge_counter.25
 941 0b93 83D200   		adcl	$0, %edx	 #, PROF_edge_counter.25
 942 0b96 A3400600 		movl	%eax, LPBX1+1440	 # PROF_edge_counter.25, *LPBX1
 942      00
 943 0b9b 89154406 		movl	%edx, LPBX1+1444	 # PROF_edge_counter.25, *LPBX1
 943      0000
 944              		.loc 1 247 0
 945 0ba1 8B44242C 		movl	44(%esp), %eax	 # n, tmp111
 946 0ba5 D1E0     		sall	%eax	 # D.3036
 947 0ba7 890424   		movl	%eax, (%esp)	 # D.3036,
 948 0baa E8000000 		call	_test_printn	 #
 948      00
 949 0baf A1480600 		movl	LPBX1+1448, %eax	 # *LPBX1, PROF_edge_counter.25
 949      00
 950 0bb4 8B154C06 		movl	LPBX1+1452, %edx	 # *LPBX1, PROF_edge_counter.25
 950      0000
 951 0bba 83C001   		addl	$1, %eax	 #, PROF_edge_counter.25
 952 0bbd 83D200   		adcl	$0, %edx	 #, PROF_edge_counter.25
 953 0bc0 A3480600 		movl	%eax, LPBX1+1448	 # PROF_edge_counter.25, *LPBX1
 953      00
 954 0bc5 89154C06 		movl	%edx, LPBX1+1452	 # PROF_edge_counter.25, *LPBX1
 954      0000
GAS LISTING C:\cygwin\tmp\ccZXqjbs.s 			page 25


 955              		.loc 1 248 0
 956 0bcb C7042417 		movl	$LC2, (%esp)	 #,
 956      000000
 957 0bd2 E8000000 		call	_test_println	 #
 957      00
 958 0bd7 A1500600 		movl	LPBX1+1456, %eax	 # *LPBX1, PROF_edge_counter.25
 958      00
 959 0bdc 8B155406 		movl	LPBX1+1460, %edx	 # *LPBX1, PROF_edge_counter.25
 959      0000
 960 0be2 83C001   		addl	$1, %eax	 #, PROF_edge_counter.25
 961 0be5 83D200   		adcl	$0, %edx	 #, PROF_edge_counter.25
 962 0be8 A3500600 		movl	%eax, LPBX1+1456	 # PROF_edge_counter.25, *LPBX1
 962      00
 963 0bed 89155406 		movl	%edx, LPBX1+1460	 # PROF_edge_counter.25, *LPBX1
 963      0000
 964              		.loc 1 249 0
 965 0bf3 83C43C   		addl	$60, %esp	 #,
 966              	LCFI15:
 967              		.cfi_def_cfa_offset 4
 968 0bf6 C3       		ret
 969              		.cfi_endproc
 970              	LFE7:
 971              		.globl	_testbmk4
 972              		.section .rdata,"dr"
 973              	LC6:
 974 0098 42656E63 		.ascii "Benchmark, context switch\0"
 974      686D6172 
 974      6B2C2063 
 974      6F6E7465 
 974      78742073 
 975 00b2 0000     		.align 4
 976              	_testbmk4:
 977              	 # name:
 978 00b4 98000000 		.long	LC6
 979              	 # setup:
 980 00b8 00000000 		.long	0
 981              	 # teardown:
 982 00bc 00000000 		.long	0
 983              	 # execute:
 984 00c0 D1080000 		.long	_bmk4_execute
 985              	LC7:
 986 00c4 20746872 		.ascii " threads/S\0"
 986      65616473 
 986      2F5300
 987              		.text
 988              		.def	_bmk5_execute;	.scl	3;	.type	32;	.endef
 989              	_bmk5_execute:
 990              	LFB8:
 991              		.loc 1 269 0
 992              		.cfi_startproc
 993 0bf7 83EC3C   		subl	$60, %esp	 #,
 994              	LCFI16:
 995              		.cfi_def_cfa_offset 64
 996              		.loc 1 269 0
 997 0bfa A1700500 		movl	LPBX1+1232, %eax	 # *LPBX1, PROF_edge_counter.24
 997      00
 998 0bff 8B157405 		movl	LPBX1+1236, %edx	 # *LPBX1, PROF_edge_counter.24
GAS LISTING C:\cygwin\tmp\ccZXqjbs.s 			page 26


 998      0000
 999 0c05 83C001   		addl	$1, %eax	 #, PROF_edge_counter.24
 1000 0c08 83D200   		adcl	$0, %edx	 #, PROF_edge_counter.24
 1001 0c0b A3700500 		movl	%eax, LPBX1+1232	 # PROF_edge_counter.24, *LPBX1
 1001      00
 1002 0c10 89157405 		movl	%edx, LPBX1+1236	 # PROF_edge_counter.24, *LPBX1
 1002      0000
 1003              		.loc 1 271 0
 1004 0c16 C744242C 		movl	$0, 44(%esp)	 #, n
 1004      00000000 
 1005              		.loc 1 272 0
 1006 0c1e A1000000 		movl	_wa, %eax	 # wa, tmp84
 1006      00
 1007 0c23 89442428 		movl	%eax, 40(%esp)	 # tmp84, wap
 1008              		.loc 1 273 0
 1009 0c27 A1180000 		movl	_rlist+24, %eax	 # rlist.r_current, D.3024
 1009      00
 1010 0c2c 8B4008   		movl	8(%eax), %eax	 # D.3024_4->p_prio, D.3025
 1011 0c2f 48       		decl	%eax	 # tmp85
 1012 0c30 89442424 		movl	%eax, 36(%esp)	 # tmp85, prio
 1013              		.loc 1 274 0
 1014 0c34 E8000000 		call	_test_wait_tick	 #
 1014      00
 1015 0c39 A1780500 		movl	LPBX1+1240, %eax	 # *LPBX1, PROF_edge_counter.24
 1015      00
 1016 0c3e 8B157C05 		movl	LPBX1+1244, %edx	 # *LPBX1, PROF_edge_counter.24
 1016      0000
 1017 0c44 83C001   		addl	$1, %eax	 #, PROF_edge_counter.24
 1018 0c47 83D200   		adcl	$0, %edx	 #, PROF_edge_counter.24
 1019 0c4a A3780500 		movl	%eax, LPBX1+1240	 # PROF_edge_counter.24, *LPBX1
 1019      00
 1020 0c4f 89157C05 		movl	%edx, LPBX1+1244	 # PROF_edge_counter.24, *LPBX1
 1020      0000
 1021              		.loc 1 275 0
 1022 0c55 C70424E8 		movl	$1000, (%esp)	 #,
 1022      030000
 1023 0c5c E8000000 		call	_test_start_timer	 #
 1023      00
 1024 0c61 A1800500 		movl	LPBX1+1248, %eax	 # *LPBX1, PROF_edge_counter.24
 1024      00
 1025 0c66 8B158405 		movl	LPBX1+1252, %edx	 # *LPBX1, PROF_edge_counter.24
 1025      0000
 1026 0c6c 83C001   		addl	$1, %eax	 #, PROF_edge_counter.24
 1027 0c6f 83D200   		adcl	$0, %edx	 #, PROF_edge_counter.24
 1028 0c72 A3800500 		movl	%eax, LPBX1+1248	 # PROF_edge_counter.24, *LPBX1
 1028      00
 1029 0c77 89158405 		movl	%edx, LPBX1+1252	 # PROF_edge_counter.24, *LPBX1
 1029      0000
 1030              	L14:
 1031              		.loc 1 277 0 discriminator 1
 1032 0c7d C7442410 		movl	$0, 16(%esp)	 #,
 1032      00000000 
 1033 0c85 C744240C 		movl	$_thread2, 12(%esp)	 #,
 1033      F6040000 
 1034 0c8d 8B442424 		movl	36(%esp), %eax	 # prio, tmp86
 1035 0c91 89442408 		movl	%eax, 8(%esp)	 # tmp86,
 1036 0c95 C7442404 		movl	$17008, 4(%esp)	 #,
GAS LISTING C:\cygwin\tmp\ccZXqjbs.s 			page 27


 1036      70420000 
 1037 0c9d 8B442428 		movl	40(%esp), %eax	 # wap, tmp87
 1038 0ca1 890424   		movl	%eax, (%esp)	 # tmp87,
 1039 0ca4 E8000000 		call	_chThdCreateStatic	 #
 1039      00
 1040 0ca9 89C1     		movl	%eax, %ecx	 #, D.3026
 1041 0cab A1880500 		movl	LPBX1+1256, %eax	 # *LPBX1, PROF_edge_counter.24
 1041      00
 1042 0cb0 8B158C05 		movl	LPBX1+1260, %edx	 # *LPBX1, PROF_edge_counter.24
 1042      0000
 1043 0cb6 83C001   		addl	$1, %eax	 #, PROF_edge_counter.24
 1044 0cb9 83D200   		adcl	$0, %edx	 #, PROF_edge_counter.24
 1045 0cbc A3880500 		movl	%eax, LPBX1+1256	 # PROF_edge_counter.24, *LPBX1
 1045      00
 1046 0cc1 89158C05 		movl	%edx, LPBX1+1260	 # PROF_edge_counter.24, *LPBX1
 1046      0000
 1047 0cc7 890C24   		movl	%ecx, (%esp)	 # D.3026,
 1048 0cca E8000000 		call	_chThdWait	 #
 1048      00
 1049 0ccf A1900500 		movl	LPBX1+1264, %eax	 # *LPBX1, PROF_edge_counter.24
 1049      00
 1050 0cd4 8B159405 		movl	LPBX1+1268, %edx	 # *LPBX1, PROF_edge_counter.24
 1050      0000
 1051 0cda 83C001   		addl	$1, %eax	 #, PROF_edge_counter.24
 1052 0cdd 83D200   		adcl	$0, %edx	 #, PROF_edge_counter.24
 1053 0ce0 A3900500 		movl	%eax, LPBX1+1264	 # PROF_edge_counter.24, *LPBX1
 1053      00
 1054 0ce5 89159405 		movl	%edx, LPBX1+1268	 # PROF_edge_counter.24, *LPBX1
 1054      0000
 1055              		.loc 1 278 0 discriminator 1
 1056 0ceb FF44242C 		incl	44(%esp)	 # n
 1057              		.loc 1 280 0 discriminator 1
 1058 0cef E8000000 		call	_ChkIntSources	 #
 1058      00
 1059 0cf4 A1980500 		movl	LPBX1+1272, %eax	 # *LPBX1, PROF_edge_counter.24
 1059      00
 1060 0cf9 8B159C05 		movl	LPBX1+1276, %edx	 # *LPBX1, PROF_edge_counter.24
 1060      0000
 1061 0cff 83C001   		addl	$1, %eax	 #, PROF_edge_counter.24
 1062 0d02 83D200   		adcl	$0, %edx	 #, PROF_edge_counter.24
 1063 0d05 A3980500 		movl	%eax, LPBX1+1272	 # PROF_edge_counter.24, *LPBX1
 1063      00
 1064 0d0a 89159C05 		movl	%edx, LPBX1+1276	 # PROF_edge_counter.24, *LPBX1
 1064      0000
 1065              		.loc 1 282 0 discriminator 1
 1066 0d10 A0000000 		movb	_test_timer_done, %al	 # test_timer_done, test_timer_done.7
 1066      00
 1067 0d15 83F001   		xorl	$1, %eax	 #, D.3028
 1068 0d18 84C0     		testb	%al, %al	 # D.3028
 1069 0d1a 0F855DFF 		jne	L14	 #,
 1069      FFFF
 1070              		.loc 1 282 0 is_stmt 0
 1071 0d20 A1A00500 		movl	LPBX1+1280, %eax	 # *LPBX1, PROF_edge_counter.24
 1071      00
 1072 0d25 8B15A405 		movl	LPBX1+1284, %edx	 # *LPBX1, PROF_edge_counter.24
 1072      0000
 1073 0d2b 83C001   		addl	$1, %eax	 #, PROF_edge_counter.24
GAS LISTING C:\cygwin\tmp\ccZXqjbs.s 			page 28


 1074 0d2e 83D200   		adcl	$0, %edx	 #, PROF_edge_counter.24
 1075 0d31 A3A00500 		movl	%eax, LPBX1+1280	 # PROF_edge_counter.24, *LPBX1
 1075      00
 1076 0d36 8915A405 		movl	%edx, LPBX1+1284	 # PROF_edge_counter.24, *LPBX1
 1076      0000
 1077              		.loc 1 283 0 is_stmt 1
 1078 0d3c C7042400 		movl	$LC0, (%esp)	 #,
 1078      000000
 1079 0d43 E8000000 		call	_test_print	 #
 1079      00
 1080 0d48 A1A80500 		movl	LPBX1+1288, %eax	 # *LPBX1, PROF_edge_counter.24
 1080      00
 1081 0d4d 8B15AC05 		movl	LPBX1+1292, %edx	 # *LPBX1, PROF_edge_counter.24
 1081      0000
 1082 0d53 83C001   		addl	$1, %eax	 #, PROF_edge_counter.24
 1083 0d56 83D200   		adcl	$0, %edx	 #, PROF_edge_counter.24
 1084 0d59 A3A80500 		movl	%eax, LPBX1+1288	 # PROF_edge_counter.24, *LPBX1
 1084      00
 1085 0d5e 8915AC05 		movl	%edx, LPBX1+1292	 # PROF_edge_counter.24, *LPBX1
 1085      0000
 1086              		.loc 1 284 0
 1087 0d64 8B44242C 		movl	44(%esp), %eax	 # n, tmp88
 1088 0d68 890424   		movl	%eax, (%esp)	 # tmp88,
 1089 0d6b E8000000 		call	_test_printn	 #
 1089      00
 1090 0d70 A1B00500 		movl	LPBX1+1296, %eax	 # *LPBX1, PROF_edge_counter.24
 1090      00
 1091 0d75 8B15B405 		movl	LPBX1+1300, %edx	 # *LPBX1, PROF_edge_counter.24
 1091      0000
 1092 0d7b 83C001   		addl	$1, %eax	 #, PROF_edge_counter.24
 1093 0d7e 83D200   		adcl	$0, %edx	 #, PROF_edge_counter.24
 1094 0d81 A3B00500 		movl	%eax, LPBX1+1296	 # PROF_edge_counter.24, *LPBX1
 1094      00
 1095 0d86 8915B405 		movl	%edx, LPBX1+1300	 # PROF_edge_counter.24, *LPBX1
 1095      0000
 1096              		.loc 1 285 0
 1097 0d8c C70424C4 		movl	$LC7, (%esp)	 #,
 1097      000000
 1098 0d93 E8000000 		call	_test_println	 #
 1098      00
 1099 0d98 A1B80500 		movl	LPBX1+1304, %eax	 # *LPBX1, PROF_edge_counter.24
 1099      00
 1100 0d9d 8B15BC05 		movl	LPBX1+1308, %edx	 # *LPBX1, PROF_edge_counter.24
 1100      0000
 1101 0da3 83C001   		addl	$1, %eax	 #, PROF_edge_counter.24
 1102 0da6 83D200   		adcl	$0, %edx	 #, PROF_edge_counter.24
 1103 0da9 A3B80500 		movl	%eax, LPBX1+1304	 # PROF_edge_counter.24, *LPBX1
 1103      00
 1104 0dae 8915BC05 		movl	%edx, LPBX1+1308	 # PROF_edge_counter.24, *LPBX1
 1104      0000
 1105              		.loc 1 286 0
 1106 0db4 83C43C   		addl	$60, %esp	 #,
 1107              	LCFI17:
 1108              		.cfi_def_cfa_offset 4
 1109 0db7 C3       		ret
 1110              		.cfi_endproc
 1111              	LFE8:
GAS LISTING C:\cygwin\tmp\ccZXqjbs.s 			page 29


 1112              		.globl	_testbmk5
 1113              		.section .rdata,"dr"
 1114 00cf 00       		.align 4
 1115              	LC8:
 1116 00d0 42656E63 		.ascii "Benchmark, threads, full cycle\0"
 1116      686D6172 
 1116      6B2C2074 
 1116      68726561 
 1116      64732C20 
 1117 00ef 00       		.align 4
 1118              	_testbmk5:
 1119              	 # name:
 1120 00f0 D0000000 		.long	LC8
 1121              	 # setup:
 1122 00f4 00000000 		.long	0
 1123              	 # teardown:
 1124 00f8 00000000 		.long	0
 1125              	 # execute:
 1126 00fc F70B0000 		.long	_bmk5_execute
 1127              		.text
 1128              		.def	_bmk6_execute;	.scl	3;	.type	32;	.endef
 1129              	_bmk6_execute:
 1130              	LFB9:
 1131              		.loc 1 308 0
 1132              		.cfi_startproc
 1133 0db8 83EC3C   		subl	$60, %esp	 #,
 1134              	LCFI18:
 1135              		.cfi_def_cfa_offset 64
 1136              		.loc 1 308 0
 1137 0dbb A1280500 		movl	LPBX1+1160, %eax	 # *LPBX1, PROF_edge_counter.23
 1137      00
 1138 0dc0 8B152C05 		movl	LPBX1+1164, %edx	 # *LPBX1, PROF_edge_counter.23
 1138      0000
 1139 0dc6 83C001   		addl	$1, %eax	 #, PROF_edge_counter.23
 1140 0dc9 83D200   		adcl	$0, %edx	 #, PROF_edge_counter.23
 1141 0dcc A3280500 		movl	%eax, LPBX1+1160	 # PROF_edge_counter.23, *LPBX1
 1141      00
 1142 0dd1 89152C05 		movl	%edx, LPBX1+1164	 # PROF_edge_counter.23, *LPBX1
 1142      0000
 1143              		.loc 1 310 0
 1144 0dd7 C744242C 		movl	$0, 44(%esp)	 #, n
 1144      00000000 
 1145              		.loc 1 311 0
 1146 0ddf A1000000 		movl	_wa, %eax	 # wa, tmp81
 1146      00
 1147 0de4 89442428 		movl	%eax, 40(%esp)	 # tmp81, wap
 1148              		.loc 1 312 0
 1149 0de8 A1180000 		movl	_rlist+24, %eax	 # rlist.r_current, D.3020
 1149      00
 1150 0ded 8B4008   		movl	8(%eax), %eax	 # D.3020_4->p_prio, D.3021
 1151 0df0 40       		incl	%eax	 # tmp82
 1152 0df1 89442424 		movl	%eax, 36(%esp)	 # tmp82, prio
 1153              		.loc 1 313 0
 1154 0df5 E8000000 		call	_test_wait_tick	 #
 1154      00
 1155 0dfa A1300500 		movl	LPBX1+1168, %eax	 # *LPBX1, PROF_edge_counter.23
 1155      00
GAS LISTING C:\cygwin\tmp\ccZXqjbs.s 			page 30


 1156 0dff 8B153405 		movl	LPBX1+1172, %edx	 # *LPBX1, PROF_edge_counter.23
 1156      0000
 1157 0e05 83C001   		addl	$1, %eax	 #, PROF_edge_counter.23
 1158 0e08 83D200   		adcl	$0, %edx	 #, PROF_edge_counter.23
 1159 0e0b A3300500 		movl	%eax, LPBX1+1168	 # PROF_edge_counter.23, *LPBX1
 1159      00
 1160 0e10 89153405 		movl	%edx, LPBX1+1172	 # PROF_edge_counter.23, *LPBX1
 1160      0000
 1161              		.loc 1 314 0
 1162 0e16 C70424E8 		movl	$1000, (%esp)	 #,
 1162      030000
 1163 0e1d E8000000 		call	_test_start_timer	 #
 1163      00
 1164 0e22 A1380500 		movl	LPBX1+1176, %eax	 # *LPBX1, PROF_edge_counter.23
 1164      00
 1165 0e27 8B153C05 		movl	LPBX1+1180, %edx	 # *LPBX1, PROF_edge_counter.23
 1165      0000
 1166 0e2d 83C001   		addl	$1, %eax	 #, PROF_edge_counter.23
 1167 0e30 83D200   		adcl	$0, %edx	 #, PROF_edge_counter.23
 1168 0e33 A3380500 		movl	%eax, LPBX1+1176	 # PROF_edge_counter.23, *LPBX1
 1168      00
 1169 0e38 89153C05 		movl	%edx, LPBX1+1180	 # PROF_edge_counter.23, *LPBX1
 1169      0000
 1170              	L16:
 1171              		.loc 1 316 0 discriminator 1
 1172 0e3e C7442410 		movl	$0, 16(%esp)	 #,
 1172      00000000 
 1173 0e46 C744240C 		movl	$_thread2, 12(%esp)	 #,
 1173      F6040000 
 1174 0e4e 8B442424 		movl	36(%esp), %eax	 # prio, tmp83
 1175 0e52 89442408 		movl	%eax, 8(%esp)	 # tmp83,
 1176 0e56 C7442404 		movl	$17008, 4(%esp)	 #,
 1176      70420000 
 1177 0e5e 8B442428 		movl	40(%esp), %eax	 # wap, tmp84
 1178 0e62 890424   		movl	%eax, (%esp)	 # tmp84,
 1179 0e65 E8000000 		call	_chThdCreateStatic	 #
 1179      00
 1180 0e6a A1400500 		movl	LPBX1+1184, %eax	 # *LPBX1, PROF_edge_counter.23
 1180      00
 1181 0e6f 8B154405 		movl	LPBX1+1188, %edx	 # *LPBX1, PROF_edge_counter.23
 1181      0000
 1182 0e75 83C001   		addl	$1, %eax	 #, PROF_edge_counter.23
 1183 0e78 83D200   		adcl	$0, %edx	 #, PROF_edge_counter.23
 1184 0e7b A3400500 		movl	%eax, LPBX1+1184	 # PROF_edge_counter.23, *LPBX1
 1184      00
 1185 0e80 89154405 		movl	%edx, LPBX1+1188	 # PROF_edge_counter.23, *LPBX1
 1185      0000
 1186              		.loc 1 317 0 discriminator 1
 1187 0e86 FF44242C 		incl	44(%esp)	 # n
 1188              		.loc 1 319 0 discriminator 1
 1189 0e8a E8000000 		call	_ChkIntSources	 #
 1189      00
 1190 0e8f A1480500 		movl	LPBX1+1192, %eax	 # *LPBX1, PROF_edge_counter.23
 1190      00
 1191 0e94 8B154C05 		movl	LPBX1+1196, %edx	 # *LPBX1, PROF_edge_counter.23
 1191      0000
 1192 0e9a 83C001   		addl	$1, %eax	 #, PROF_edge_counter.23
GAS LISTING C:\cygwin\tmp\ccZXqjbs.s 			page 31


 1193 0e9d 83D200   		adcl	$0, %edx	 #, PROF_edge_counter.23
 1194 0ea0 A3480500 		movl	%eax, LPBX1+1192	 # PROF_edge_counter.23, *LPBX1
 1194      00
 1195 0ea5 89154C05 		movl	%edx, LPBX1+1196	 # PROF_edge_counter.23, *LPBX1
 1195      0000
 1196              		.loc 1 321 0 discriminator 1
 1197 0eab A0000000 		movb	_test_timer_done, %al	 # test_timer_done, test_timer_done.6
 1197      00
 1198 0eb0 83F001   		xorl	$1, %eax	 #, D.3023
 1199 0eb3 84C0     		testb	%al, %al	 # D.3023
 1200 0eb5 7587     		jne	L16	 #,
 1201              		.loc 1 321 0 is_stmt 0
 1202 0eb7 A1500500 		movl	LPBX1+1200, %eax	 # *LPBX1, PROF_edge_counter.23
 1202      00
 1203 0ebc 8B155405 		movl	LPBX1+1204, %edx	 # *LPBX1, PROF_edge_counter.23
 1203      0000
 1204 0ec2 83C001   		addl	$1, %eax	 #, PROF_edge_counter.23
 1205 0ec5 83D200   		adcl	$0, %edx	 #, PROF_edge_counter.23
 1206 0ec8 A3500500 		movl	%eax, LPBX1+1200	 # PROF_edge_counter.23, *LPBX1
 1206      00
 1207 0ecd 89155405 		movl	%edx, LPBX1+1204	 # PROF_edge_counter.23, *LPBX1
 1207      0000
 1208              		.loc 1 322 0 is_stmt 1
 1209 0ed3 C7042400 		movl	$LC0, (%esp)	 #,
 1209      000000
 1210 0eda E8000000 		call	_test_print	 #
 1210      00
 1211 0edf A1580500 		movl	LPBX1+1208, %eax	 # *LPBX1, PROF_edge_counter.23
 1211      00
 1212 0ee4 8B155C05 		movl	LPBX1+1212, %edx	 # *LPBX1, PROF_edge_counter.23
 1212      0000
 1213 0eea 83C001   		addl	$1, %eax	 #, PROF_edge_counter.23
 1214 0eed 83D200   		adcl	$0, %edx	 #, PROF_edge_counter.23
 1215 0ef0 A3580500 		movl	%eax, LPBX1+1208	 # PROF_edge_counter.23, *LPBX1
 1215      00
 1216 0ef5 89155C05 		movl	%edx, LPBX1+1212	 # PROF_edge_counter.23, *LPBX1
 1216      0000
 1217              		.loc 1 323 0
 1218 0efb 8B44242C 		movl	44(%esp), %eax	 # n, tmp85
 1219 0eff 890424   		movl	%eax, (%esp)	 # tmp85,
 1220 0f02 E8000000 		call	_test_printn	 #
 1220      00
 1221 0f07 A1600500 		movl	LPBX1+1216, %eax	 # *LPBX1, PROF_edge_counter.23
 1221      00
 1222 0f0c 8B156405 		movl	LPBX1+1220, %edx	 # *LPBX1, PROF_edge_counter.23
 1222      0000
 1223 0f12 83C001   		addl	$1, %eax	 #, PROF_edge_counter.23
 1224 0f15 83D200   		adcl	$0, %edx	 #, PROF_edge_counter.23
 1225 0f18 A3600500 		movl	%eax, LPBX1+1216	 # PROF_edge_counter.23, *LPBX1
 1225      00
 1226 0f1d 89156405 		movl	%edx, LPBX1+1220	 # PROF_edge_counter.23, *LPBX1
 1226      0000
 1227              		.loc 1 324 0
 1228 0f23 C70424C4 		movl	$LC7, (%esp)	 #,
 1228      000000
 1229 0f2a E8000000 		call	_test_println	 #
 1229      00
GAS LISTING C:\cygwin\tmp\ccZXqjbs.s 			page 32


 1230 0f2f A1680500 		movl	LPBX1+1224, %eax	 # *LPBX1, PROF_edge_counter.23
 1230      00
 1231 0f34 8B156C05 		movl	LPBX1+1228, %edx	 # *LPBX1, PROF_edge_counter.23
 1231      0000
 1232 0f3a 83C001   		addl	$1, %eax	 #, PROF_edge_counter.23
 1233 0f3d 83D200   		adcl	$0, %edx	 #, PROF_edge_counter.23
 1234 0f40 A3680500 		movl	%eax, LPBX1+1224	 # PROF_edge_counter.23, *LPBX1
 1234      00
 1235 0f45 89156C05 		movl	%edx, LPBX1+1228	 # PROF_edge_counter.23, *LPBX1
 1235      0000
 1236              		.loc 1 325 0
 1237 0f4b 83C43C   		addl	$60, %esp	 #,
 1238              	LCFI19:
 1239              		.cfi_def_cfa_offset 4
 1240 0f4e C3       		ret
 1241              		.cfi_endproc
 1242              	LFE9:
 1243              		.globl	_testbmk6
 1244              		.section .rdata,"dr"
 1245              		.align 4
 1246              	LC9:
 1247 0100 42656E63 		.ascii "Benchmark, threads, create only\0"
 1247      686D6172 
 1247      6B2C2074 
 1247      68726561 
 1247      64732C20 
 1248              		.align 4
 1249              	_testbmk6:
 1250              	 # name:
 1251 0120 00010000 		.long	LC9
 1252              	 # setup:
 1253 0124 00000000 		.long	0
 1254              	 # teardown:
 1255 0128 00000000 		.long	0
 1256              	 # execute:
 1257 012c B80D0000 		.long	_bmk6_execute
 1258              		.text
 1259              		.def	_thread3;	.scl	3;	.type	32;	.endef
 1260              	_thread3:
 1261              	LFB10:
 1262              		.loc 1 345 0
 1263              		.cfi_startproc
 1264 0f4f 83EC1C   		subl	$28, %esp	 #,
 1265              	LCFI20:
 1266              		.cfi_def_cfa_offset 32
 1267              		.loc 1 345 0
 1268 0f52 A1100500 		movl	LPBX1+1136, %eax	 # *LPBX1, PROF_edge_counter.22
 1268      00
 1269 0f57 8B151405 		movl	LPBX1+1140, %edx	 # *LPBX1, PROF_edge_counter.22
 1269      0000
 1270 0f5d 83C001   		addl	$1, %eax	 #, PROF_edge_counter.22
 1271 0f60 83D200   		adcl	$0, %edx	 #, PROF_edge_counter.22
 1272 0f63 A3100500 		movl	%eax, LPBX1+1136	 # PROF_edge_counter.22, *LPBX1
 1272      00
 1273 0f68 89151405 		movl	%edx, LPBX1+1140	 # PROF_edge_counter.22, *LPBX1
 1273      0000
 1274              		.loc 1 348 0
GAS LISTING C:\cygwin\tmp\ccZXqjbs.s 			page 33


 1275 0f6e EB28     		jmp	L18	 #
 1276              	L19:
 1277 0f70 A1180500 		movl	LPBX1+1144, %eax	 # *LPBX1, PROF_edge_counter.22
 1277      00
 1278 0f75 8B151C05 		movl	LPBX1+1148, %edx	 # *LPBX1, PROF_edge_counter.22
 1278      0000
 1279 0f7b 83C001   		addl	$1, %eax	 #, PROF_edge_counter.22
 1280 0f7e 83D200   		adcl	$0, %edx	 #, PROF_edge_counter.22
 1281 0f81 A3180500 		movl	%eax, LPBX1+1144	 # PROF_edge_counter.22, *LPBX1
 1281      00
 1282 0f86 89151C05 		movl	%edx, LPBX1+1148	 # PROF_edge_counter.22, *LPBX1
 1282      0000
 1283              		.loc 1 349 0
 1284 0f8c C7042400 		movl	$_sem1, (%esp)	 #,
 1284      000000
 1285 0f93 E8000000 		call	_chSemWait	 #
 1285      00
 1286              	L18:
 1287              		.loc 1 348 0 discriminator 1
 1288 0f98 A1180000 		movl	_rlist+24, %eax	 # rlist.r_current, D.3014
 1288      00
 1289 0f9d 8A401D   		movb	29(%eax), %al	 # D.3014_1->p_flags, D.3015
 1290 0fa0 0FB6C0   		movzbl	%al, %eax	 # D.3015, D.3016
 1291 0fa3 83E004   		andl	$4, %eax	 #, D.3017
 1292 0fa6 85C0     		testl	%eax, %eax	 # D.3017
 1293 0fa8 74C6     		je	L19	 #,
 1294              		.loc 1 348 0 is_stmt 0
 1295 0faa A1200500 		movl	LPBX1+1152, %eax	 # *LPBX1, PROF_edge_counter.22
 1295      00
 1296 0faf 8B152405 		movl	LPBX1+1156, %edx	 # *LPBX1, PROF_edge_counter.22
 1296      0000
 1297 0fb5 83C001   		addl	$1, %eax	 #, PROF_edge_counter.22
 1298 0fb8 83D200   		adcl	$0, %edx	 #, PROF_edge_counter.22
 1299 0fbb A3200500 		movl	%eax, LPBX1+1152	 # PROF_edge_counter.22, *LPBX1
 1299      00
 1300 0fc0 89152405 		movl	%edx, LPBX1+1156	 # PROF_edge_counter.22, *LPBX1
 1300      0000
 1301              		.loc 1 350 0 is_stmt 1
 1302 0fc6 B8000000 		movl	$0, %eax	 #, D.3018
 1302      00
 1303              		.loc 1 351 0
 1304 0fcb 83C41C   		addl	$28, %esp	 #,
 1305              	LCFI21:
 1306              		.cfi_def_cfa_offset 4
 1307 0fce C3       		ret
 1308              		.cfi_endproc
 1309              	LFE10:
 1310              		.def	_bmk7_setup;	.scl	3;	.type	32;	.endef
 1311              	_bmk7_setup:
 1312              	LFB11:
 1313              		.loc 1 353 0
 1314              		.cfi_startproc
 1315 0fcf 83EC1C   		subl	$28, %esp	 #,
 1316              	LCFI22:
 1317              		.cfi_def_cfa_offset 32
 1318              		.loc 1 353 0
 1319 0fd2 A1000500 		movl	LPBX1+1120, %eax	 # *LPBX1, PROF_edge_counter.21
GAS LISTING C:\cygwin\tmp\ccZXqjbs.s 			page 34


 1319      00
 1320 0fd7 8B150405 		movl	LPBX1+1124, %edx	 # *LPBX1, PROF_edge_counter.21
 1320      0000
 1321 0fdd 83C001   		addl	$1, %eax	 #, PROF_edge_counter.21
 1322 0fe0 83D200   		adcl	$0, %edx	 #, PROF_edge_counter.21
 1323 0fe3 A3000500 		movl	%eax, LPBX1+1120	 # PROF_edge_counter.21, *LPBX1
 1323      00
 1324 0fe8 89150405 		movl	%edx, LPBX1+1124	 # PROF_edge_counter.21, *LPBX1
 1324      0000
 1325              		.loc 1 355 0
 1326 0fee C7442404 		movl	$0, 4(%esp)	 #,
 1326      00000000 
 1327 0ff6 C7042400 		movl	$_sem1, (%esp)	 #,
 1327      000000
 1328 0ffd E8000000 		call	_chSemInit	 #
 1328      00
 1329 1002 A1080500 		movl	LPBX1+1128, %eax	 # *LPBX1, PROF_edge_counter.21
 1329      00
 1330 1007 8B150C05 		movl	LPBX1+1132, %edx	 # *LPBX1, PROF_edge_counter.21
 1330      0000
 1331 100d 83C001   		addl	$1, %eax	 #, PROF_edge_counter.21
 1332 1010 83D200   		adcl	$0, %edx	 #, PROF_edge_counter.21
 1333 1013 A3080500 		movl	%eax, LPBX1+1128	 # PROF_edge_counter.21, *LPBX1
 1333      00
 1334 1018 89150C05 		movl	%edx, LPBX1+1132	 # PROF_edge_counter.21, *LPBX1
 1334      0000
 1335              		.loc 1 356 0
 1336 101e 83C41C   		addl	$28, %esp	 #,
 1337              	LCFI23:
 1338              		.cfi_def_cfa_offset 4
 1339 1021 C3       		ret
 1340              		.cfi_endproc
 1341              	LFE11:
 1342              		.section .rdata,"dr"
 1343              	LC10:
 1344 0130 20726573 		.ascii " reschedules/S, \0"
 1344      63686564 
 1344      756C6573 
 1344      2F532C20 
 1344      00
 1345              		.text
 1346              		.def	_bmk7_execute;	.scl	3;	.type	32;	.endef
 1347              	_bmk7_execute:
 1348              	LFB12:
 1349              		.loc 1 358 0
 1350              		.cfi_startproc
 1351 1022 83EC3C   		subl	$60, %esp	 #,
 1352              	LCFI24:
 1353              		.cfi_def_cfa_offset 64
 1354              		.loc 1 358 0
 1355 1025 A1680400 		movl	LPBX1+968, %eax	 # *LPBX1, PROF_edge_counter.20
 1355      00
 1356 102a 8B156C04 		movl	LPBX1+972, %edx	 # *LPBX1, PROF_edge_counter.20
 1356      0000
 1357 1030 83C001   		addl	$1, %eax	 #, PROF_edge_counter.20
 1358 1033 83D200   		adcl	$0, %edx	 #, PROF_edge_counter.20
 1359 1036 A3680400 		movl	%eax, LPBX1+968	 # PROF_edge_counter.20, *LPBX1
GAS LISTING C:\cygwin\tmp\ccZXqjbs.s 			page 35


 1359      00
 1360 103b 89156C04 		movl	%edx, LPBX1+972	 # PROF_edge_counter.20, *LPBX1
 1360      0000
 1361              		.loc 1 361 0
 1362 1041 A1180000 		movl	_rlist+24, %eax	 # rlist.r_current, D.2986
 1362      00
 1363 1046 8B4008   		movl	8(%eax), %eax	 # D.2986_2->p_prio, D.2987
 1364 1049 8D5005   		leal	5(%eax), %edx	 #, D.2988
 1365 104c A1000000 		movl	_wa, %eax	 # wa, D.2989
 1365      00
 1366 1051 C7442410 		movl	$0, 16(%esp)	 #,
 1366      00000000 
 1367 1059 C744240C 		movl	$_thread3, 12(%esp)	 #,
 1367      4F0F0000 
 1368 1061 89542408 		movl	%edx, 8(%esp)	 # D.2988,
 1369 1065 C7442404 		movl	$17008, 4(%esp)	 #,
 1369      70420000 
 1370 106d 890424   		movl	%eax, (%esp)	 # D.2989,
 1371 1070 E8000000 		call	_chThdCreateStatic	 #
 1371      00
 1372 1075 89C1     		movl	%eax, %ecx	 #, D.2990
 1373 1077 A1700400 		movl	LPBX1+976, %eax	 # *LPBX1, PROF_edge_counter.20
 1373      00
 1374 107c 8B157404 		movl	LPBX1+980, %edx	 # *LPBX1, PROF_edge_counter.20
 1374      0000
 1375 1082 83C001   		addl	$1, %eax	 #, PROF_edge_counter.20
 1376 1085 83D200   		adcl	$0, %edx	 #, PROF_edge_counter.20
 1377 1088 A3700400 		movl	%eax, LPBX1+976	 # PROF_edge_counter.20, *LPBX1
 1377      00
 1378 108d 89157404 		movl	%edx, LPBX1+980	 # PROF_edge_counter.20, *LPBX1
 1378      0000
 1379 1093 890D0000 		movl	%ecx, _threads	 # D.2990, threads
 1379      0000
 1380              		.loc 1 362 0
 1381 1099 A1180000 		movl	_rlist+24, %eax	 # rlist.r_current, D.2991
 1381      00
 1382 109e 8B4008   		movl	8(%eax), %eax	 # D.2991_7->p_prio, D.2992
 1383 10a1 8D5004   		leal	4(%eax), %edx	 #, D.2993
 1384 10a4 A1040000 		movl	_wa+4, %eax	 # wa, D.2994
 1384      00
 1385 10a9 C7442410 		movl	$0, 16(%esp)	 #,
 1385      00000000 
 1386 10b1 C744240C 		movl	$_thread3, 12(%esp)	 #,
 1386      4F0F0000 
 1387 10b9 89542408 		movl	%edx, 8(%esp)	 # D.2993,
 1388 10bd C7442404 		movl	$17008, 4(%esp)	 #,
 1388      70420000 
 1389 10c5 890424   		movl	%eax, (%esp)	 # D.2994,
 1390 10c8 E8000000 		call	_chThdCreateStatic	 #
 1390      00
 1391 10cd 89C1     		movl	%eax, %ecx	 #, D.2995
 1392 10cf A1780400 		movl	LPBX1+984, %eax	 # *LPBX1, PROF_edge_counter.20
 1392      00
 1393 10d4 8B157C04 		movl	LPBX1+988, %edx	 # *LPBX1, PROF_edge_counter.20
 1393      0000
 1394 10da 83C001   		addl	$1, %eax	 #, PROF_edge_counter.20
 1395 10dd 83D200   		adcl	$0, %edx	 #, PROF_edge_counter.20
GAS LISTING C:\cygwin\tmp\ccZXqjbs.s 			page 36


 1396 10e0 A3780400 		movl	%eax, LPBX1+984	 # PROF_edge_counter.20, *LPBX1
 1396      00
 1397 10e5 89157C04 		movl	%edx, LPBX1+988	 # PROF_edge_counter.20, *LPBX1
 1397      0000
 1398 10eb 890D0400 		movl	%ecx, _threads+4	 # D.2995, threads
 1398      0000
 1399              		.loc 1 363 0
 1400 10f1 A1180000 		movl	_rlist+24, %eax	 # rlist.r_current, D.2996
 1400      00
 1401 10f6 8B4008   		movl	8(%eax), %eax	 # D.2996_12->p_prio, D.2997
 1402 10f9 8D5003   		leal	3(%eax), %edx	 #, D.2998
 1403 10fc A1080000 		movl	_wa+8, %eax	 # wa, D.2999
 1403      00
 1404 1101 C7442410 		movl	$0, 16(%esp)	 #,
 1404      00000000 
 1405 1109 C744240C 		movl	$_thread3, 12(%esp)	 #,
 1405      4F0F0000 
 1406 1111 89542408 		movl	%edx, 8(%esp)	 # D.2998,
 1407 1115 C7442404 		movl	$17008, 4(%esp)	 #,
 1407      70420000 
 1408 111d 890424   		movl	%eax, (%esp)	 # D.2999,
 1409 1120 E8000000 		call	_chThdCreateStatic	 #
 1409      00
 1410 1125 89C1     		movl	%eax, %ecx	 #, D.3000
 1411 1127 A1800400 		movl	LPBX1+992, %eax	 # *LPBX1, PROF_edge_counter.20
 1411      00
 1412 112c 8B158404 		movl	LPBX1+996, %edx	 # *LPBX1, PROF_edge_counter.20
 1412      0000
 1413 1132 83C001   		addl	$1, %eax	 #, PROF_edge_counter.20
 1414 1135 83D200   		adcl	$0, %edx	 #, PROF_edge_counter.20
 1415 1138 A3800400 		movl	%eax, LPBX1+992	 # PROF_edge_counter.20, *LPBX1
 1415      00
 1416 113d 89158404 		movl	%edx, LPBX1+996	 # PROF_edge_counter.20, *LPBX1
 1416      0000
 1417 1143 890D0800 		movl	%ecx, _threads+8	 # D.3000, threads
 1417      0000
 1418              		.loc 1 364 0
 1419 1149 A1180000 		movl	_rlist+24, %eax	 # rlist.r_current, D.3001
 1419      00
 1420 114e 8B4008   		movl	8(%eax), %eax	 # D.3001_17->p_prio, D.3002
 1421 1151 8D5002   		leal	2(%eax), %edx	 #, D.3003
 1422 1154 A10C0000 		movl	_wa+12, %eax	 # wa, D.3004
 1422      00
 1423 1159 C7442410 		movl	$0, 16(%esp)	 #,
 1423      00000000 
 1424 1161 C744240C 		movl	$_thread3, 12(%esp)	 #,
 1424      4F0F0000 
 1425 1169 89542408 		movl	%edx, 8(%esp)	 # D.3003,
 1426 116d C7442404 		movl	$17008, 4(%esp)	 #,
 1426      70420000 
 1427 1175 890424   		movl	%eax, (%esp)	 # D.3004,
 1428 1178 E8000000 		call	_chThdCreateStatic	 #
 1428      00
 1429 117d 89C1     		movl	%eax, %ecx	 #, D.3005
 1430 117f A1880400 		movl	LPBX1+1000, %eax	 # *LPBX1, PROF_edge_counter.20
 1430      00
 1431 1184 8B158C04 		movl	LPBX1+1004, %edx	 # *LPBX1, PROF_edge_counter.20
GAS LISTING C:\cygwin\tmp\ccZXqjbs.s 			page 37


 1431      0000
 1432 118a 83C001   		addl	$1, %eax	 #, PROF_edge_counter.20
 1433 118d 83D200   		adcl	$0, %edx	 #, PROF_edge_counter.20
 1434 1190 A3880400 		movl	%eax, LPBX1+1000	 # PROF_edge_counter.20, *LPBX1
 1434      00
 1435 1195 89158C04 		movl	%edx, LPBX1+1004	 # PROF_edge_counter.20, *LPBX1
 1435      0000
 1436 119b 890D0C00 		movl	%ecx, _threads+12	 # D.3005, threads
 1436      0000
 1437              		.loc 1 365 0
 1438 11a1 A1180000 		movl	_rlist+24, %eax	 # rlist.r_current, D.3006
 1438      00
 1439 11a6 8B4008   		movl	8(%eax), %eax	 # D.3006_22->p_prio, D.3007
 1440 11a9 8D5001   		leal	1(%eax), %edx	 #, D.3008
 1441 11ac A1100000 		movl	_wa+16, %eax	 # wa, D.3009
 1441      00
 1442 11b1 C7442410 		movl	$0, 16(%esp)	 #,
 1442      00000000 
 1443 11b9 C744240C 		movl	$_thread3, 12(%esp)	 #,
 1443      4F0F0000 
 1444 11c1 89542408 		movl	%edx, 8(%esp)	 # D.3008,
 1445 11c5 C7442404 		movl	$17008, 4(%esp)	 #,
 1445      70420000 
 1446 11cd 890424   		movl	%eax, (%esp)	 # D.3009,
 1447 11d0 E8000000 		call	_chThdCreateStatic	 #
 1447      00
 1448 11d5 89C1     		movl	%eax, %ecx	 #, D.3010
 1449 11d7 A1900400 		movl	LPBX1+1008, %eax	 # *LPBX1, PROF_edge_counter.20
 1449      00
 1450 11dc 8B159404 		movl	LPBX1+1012, %edx	 # *LPBX1, PROF_edge_counter.20
 1450      0000
 1451 11e2 83C001   		addl	$1, %eax	 #, PROF_edge_counter.20
 1452 11e5 83D200   		adcl	$0, %edx	 #, PROF_edge_counter.20
 1453 11e8 A3900400 		movl	%eax, LPBX1+1008	 # PROF_edge_counter.20, *LPBX1
 1453      00
 1454 11ed 89159404 		movl	%edx, LPBX1+1012	 # PROF_edge_counter.20, *LPBX1
 1454      0000
 1455 11f3 890D1000 		movl	%ecx, _threads+16	 # D.3010, threads
 1455      0000
 1456              		.loc 1 367 0
 1457 11f9 C744242C 		movl	$0, 44(%esp)	 #, n
 1457      00000000 
 1458              		.loc 1 368 0
 1459 1201 E8000000 		call	_test_wait_tick	 #
 1459      00
 1460 1206 A1980400 		movl	LPBX1+1016, %eax	 # *LPBX1, PROF_edge_counter.20
 1460      00
 1461 120b 8B159C04 		movl	LPBX1+1020, %edx	 # *LPBX1, PROF_edge_counter.20
 1461      0000
 1462 1211 83C001   		addl	$1, %eax	 #, PROF_edge_counter.20
 1463 1214 83D200   		adcl	$0, %edx	 #, PROF_edge_counter.20
 1464 1217 A3980400 		movl	%eax, LPBX1+1016	 # PROF_edge_counter.20, *LPBX1
 1464      00
 1465 121c 89159C04 		movl	%edx, LPBX1+1020	 # PROF_edge_counter.20, *LPBX1
 1465      0000
 1466              		.loc 1 369 0
 1467 1222 C70424E8 		movl	$1000, (%esp)	 #,
GAS LISTING C:\cygwin\tmp\ccZXqjbs.s 			page 38


 1467      030000
 1468 1229 E8000000 		call	_test_start_timer	 #
 1468      00
 1469 122e A1A00400 		movl	LPBX1+1024, %eax	 # *LPBX1, PROF_edge_counter.20
 1469      00
 1470 1233 8B15A404 		movl	LPBX1+1028, %edx	 # *LPBX1, PROF_edge_counter.20
 1470      0000
 1471 1239 83C001   		addl	$1, %eax	 #, PROF_edge_counter.20
 1472 123c 83D200   		adcl	$0, %edx	 #, PROF_edge_counter.20
 1473 123f A3A00400 		movl	%eax, LPBX1+1024	 # PROF_edge_counter.20, *LPBX1
 1473      00
 1474 1244 8915A404 		movl	%edx, LPBX1+1028	 # PROF_edge_counter.20, *LPBX1
 1474      0000
 1475              	L22:
 1476              		.loc 1 371 0 discriminator 1
 1477 124a C7442404 		movl	$0, 4(%esp)	 #,
 1477      00000000 
 1478 1252 C7042400 		movl	$_sem1, (%esp)	 #,
 1478      000000
 1479 1259 E8000000 		call	_chSemReset	 #
 1479      00
 1480 125e A1A80400 		movl	LPBX1+1032, %eax	 # *LPBX1, PROF_edge_counter.20
 1480      00
 1481 1263 8B15AC04 		movl	LPBX1+1036, %edx	 # *LPBX1, PROF_edge_counter.20
 1481      0000
 1482 1269 83C001   		addl	$1, %eax	 #, PROF_edge_counter.20
 1483 126c 83D200   		adcl	$0, %edx	 #, PROF_edge_counter.20
 1484 126f A3A80400 		movl	%eax, LPBX1+1032	 # PROF_edge_counter.20, *LPBX1
 1484      00
 1485 1274 8915AC04 		movl	%edx, LPBX1+1036	 # PROF_edge_counter.20, *LPBX1
 1485      0000
 1486              		.loc 1 372 0 discriminator 1
 1487 127a FF44242C 		incl	44(%esp)	 # n
 1488              		.loc 1 374 0 discriminator 1
 1489 127e E8000000 		call	_ChkIntSources	 #
 1489      00
 1490 1283 A1B00400 		movl	LPBX1+1040, %eax	 # *LPBX1, PROF_edge_counter.20
 1490      00
 1491 1288 8B15B404 		movl	LPBX1+1044, %edx	 # *LPBX1, PROF_edge_counter.20
 1491      0000
 1492 128e 83C001   		addl	$1, %eax	 #, PROF_edge_counter.20
 1493 1291 83D200   		adcl	$0, %edx	 #, PROF_edge_counter.20
 1494 1294 A3B00400 		movl	%eax, LPBX1+1040	 # PROF_edge_counter.20, *LPBX1
 1494      00
 1495 1299 8915B404 		movl	%edx, LPBX1+1044	 # PROF_edge_counter.20, *LPBX1
 1495      0000
 1496              		.loc 1 376 0 discriminator 1
 1497 129f A0000000 		movb	_test_timer_done, %al	 # test_timer_done, test_timer_done.5
 1497      00
 1498 12a4 83F001   		xorl	$1, %eax	 #, D.3012
 1499 12a7 84C0     		testb	%al, %al	 # D.3012
 1500 12a9 759F     		jne	L22	 #,
 1501              		.loc 1 376 0 is_stmt 0
 1502 12ab A1B80400 		movl	LPBX1+1048, %eax	 # *LPBX1, PROF_edge_counter.20
 1502      00
 1503 12b0 8B15BC04 		movl	LPBX1+1052, %edx	 # *LPBX1, PROF_edge_counter.20
 1503      0000
GAS LISTING C:\cygwin\tmp\ccZXqjbs.s 			page 39


 1504 12b6 83C001   		addl	$1, %eax	 #, PROF_edge_counter.20
 1505 12b9 83D200   		adcl	$0, %edx	 #, PROF_edge_counter.20
 1506 12bc A3B80400 		movl	%eax, LPBX1+1048	 # PROF_edge_counter.20, *LPBX1
 1506      00
 1507 12c1 8915BC04 		movl	%edx, LPBX1+1052	 # PROF_edge_counter.20, *LPBX1
 1507      0000
 1508              		.loc 1 377 0 is_stmt 1
 1509 12c7 E8000000 		call	_test_terminate_threads	 #
 1509      00
 1510 12cc A1C00400 		movl	LPBX1+1056, %eax	 # *LPBX1, PROF_edge_counter.20
 1510      00
 1511 12d1 8B15C404 		movl	LPBX1+1060, %edx	 # *LPBX1, PROF_edge_counter.20
 1511      0000
 1512 12d7 83C001   		addl	$1, %eax	 #, PROF_edge_counter.20
 1513 12da 83D200   		adcl	$0, %edx	 #, PROF_edge_counter.20
 1514 12dd A3C00400 		movl	%eax, LPBX1+1056	 # PROF_edge_counter.20, *LPBX1
 1514      00
 1515 12e2 8915C404 		movl	%edx, LPBX1+1060	 # PROF_edge_counter.20, *LPBX1
 1515      0000
 1516              		.loc 1 378 0
 1517 12e8 C7442404 		movl	$0, 4(%esp)	 #,
 1517      00000000 
 1518 12f0 C7042400 		movl	$_sem1, (%esp)	 #,
 1518      000000
 1519 12f7 E8000000 		call	_chSemReset	 #
 1519      00
 1520 12fc A1C80400 		movl	LPBX1+1064, %eax	 # *LPBX1, PROF_edge_counter.20
 1520      00
 1521 1301 8B15CC04 		movl	LPBX1+1068, %edx	 # *LPBX1, PROF_edge_counter.20
 1521      0000
 1522 1307 83C001   		addl	$1, %eax	 #, PROF_edge_counter.20
 1523 130a 83D200   		adcl	$0, %edx	 #, PROF_edge_counter.20
 1524 130d A3C80400 		movl	%eax, LPBX1+1064	 # PROF_edge_counter.20, *LPBX1
 1524      00
 1525 1312 8915CC04 		movl	%edx, LPBX1+1068	 # PROF_edge_counter.20, *LPBX1
 1525      0000
 1526              		.loc 1 379 0
 1527 1318 E8000000 		call	_test_wait_threads	 #
 1527      00
 1528 131d A1D00400 		movl	LPBX1+1072, %eax	 # *LPBX1, PROF_edge_counter.20
 1528      00
 1529 1322 8B15D404 		movl	LPBX1+1076, %edx	 # *LPBX1, PROF_edge_counter.20
 1529      0000
 1530 1328 83C001   		addl	$1, %eax	 #, PROF_edge_counter.20
 1531 132b 83D200   		adcl	$0, %edx	 #, PROF_edge_counter.20
 1532 132e A3D00400 		movl	%eax, LPBX1+1072	 # PROF_edge_counter.20, *LPBX1
 1532      00
 1533 1333 8915D404 		movl	%edx, LPBX1+1076	 # PROF_edge_counter.20, *LPBX1
 1533      0000
 1534              		.loc 1 381 0
 1535 1339 C7042400 		movl	$LC0, (%esp)	 #,
 1535      000000
 1536 1340 E8000000 		call	_test_print	 #
 1536      00
 1537 1345 A1D80400 		movl	LPBX1+1080, %eax	 # *LPBX1, PROF_edge_counter.20
 1537      00
 1538 134a 8B15DC04 		movl	LPBX1+1084, %edx	 # *LPBX1, PROF_edge_counter.20
GAS LISTING C:\cygwin\tmp\ccZXqjbs.s 			page 40


 1538      0000
 1539 1350 83C001   		addl	$1, %eax	 #, PROF_edge_counter.20
 1540 1353 83D200   		adcl	$0, %edx	 #, PROF_edge_counter.20
 1541 1356 A3D80400 		movl	%eax, LPBX1+1080	 # PROF_edge_counter.20, *LPBX1
 1541      00
 1542 135b 8915DC04 		movl	%edx, LPBX1+1084	 # PROF_edge_counter.20, *LPBX1
 1542      0000
 1543              		.loc 1 382 0
 1544 1361 8B44242C 		movl	44(%esp), %eax	 # n, tmp125
 1545 1365 890424   		movl	%eax, (%esp)	 # tmp125,
 1546 1368 E8000000 		call	_test_printn	 #
 1546      00
 1547 136d A1E00400 		movl	LPBX1+1088, %eax	 # *LPBX1, PROF_edge_counter.20
 1547      00
 1548 1372 8B15E404 		movl	LPBX1+1092, %edx	 # *LPBX1, PROF_edge_counter.20
 1548      0000
 1549 1378 83C001   		addl	$1, %eax	 #, PROF_edge_counter.20
 1550 137b 83D200   		adcl	$0, %edx	 #, PROF_edge_counter.20
 1551 137e A3E00400 		movl	%eax, LPBX1+1088	 # PROF_edge_counter.20, *LPBX1
 1551      00
 1552 1383 8915E404 		movl	%edx, LPBX1+1092	 # PROF_edge_counter.20, *LPBX1
 1552      0000
 1553              		.loc 1 383 0
 1554 1389 C7042430 		movl	$LC10, (%esp)	 #,
 1554      010000
 1555 1390 E8000000 		call	_test_print	 #
 1555      00
 1556 1395 A1E80400 		movl	LPBX1+1096, %eax	 # *LPBX1, PROF_edge_counter.20
 1556      00
 1557 139a 8B15EC04 		movl	LPBX1+1100, %edx	 # *LPBX1, PROF_edge_counter.20
 1557      0000
 1558 13a0 83C001   		addl	$1, %eax	 #, PROF_edge_counter.20
 1559 13a3 83D200   		adcl	$0, %edx	 #, PROF_edge_counter.20
 1560 13a6 A3E80400 		movl	%eax, LPBX1+1096	 # PROF_edge_counter.20, *LPBX1
 1560      00
 1561 13ab 8915EC04 		movl	%edx, LPBX1+1100	 # PROF_edge_counter.20, *LPBX1
 1561      0000
 1562              		.loc 1 384 0
 1563 13b1 8B54242C 		movl	44(%esp), %edx	 # n, tmp126
 1564 13b5 89D0     		movl	%edx, %eax	 # tmp126, tmp127
 1565 13b7 D1E0     		sall	%eax	 # tmp127
 1566 13b9 01D0     		addl	%edx, %eax	 # tmp126, tmp127
 1567 13bb D1E0     		sall	%eax	 # tmp128
 1568 13bd 890424   		movl	%eax, (%esp)	 # D.3013,
 1569 13c0 E8000000 		call	_test_printn	 #
 1569      00
 1570 13c5 A1F00400 		movl	LPBX1+1104, %eax	 # *LPBX1, PROF_edge_counter.20
 1570      00
 1571 13ca 8B15F404 		movl	LPBX1+1108, %edx	 # *LPBX1, PROF_edge_counter.20
 1571      0000
 1572 13d0 83C001   		addl	$1, %eax	 #, PROF_edge_counter.20
 1573 13d3 83D200   		adcl	$0, %edx	 #, PROF_edge_counter.20
 1574 13d6 A3F00400 		movl	%eax, LPBX1+1104	 # PROF_edge_counter.20, *LPBX1
 1574      00
 1575 13db 8915F404 		movl	%edx, LPBX1+1108	 # PROF_edge_counter.20, *LPBX1
 1575      0000
 1576              		.loc 1 385 0
GAS LISTING C:\cygwin\tmp\ccZXqjbs.s 			page 41


 1577 13e1 C7042417 		movl	$LC2, (%esp)	 #,
 1577      000000
 1578 13e8 E8000000 		call	_test_println	 #
 1578      00
 1579 13ed A1F80400 		movl	LPBX1+1112, %eax	 # *LPBX1, PROF_edge_counter.20
 1579      00
 1580 13f2 8B15FC04 		movl	LPBX1+1116, %edx	 # *LPBX1, PROF_edge_counter.20
 1580      0000
 1581 13f8 83C001   		addl	$1, %eax	 #, PROF_edge_counter.20
 1582 13fb 83D200   		adcl	$0, %edx	 #, PROF_edge_counter.20
 1583 13fe A3F80400 		movl	%eax, LPBX1+1112	 # PROF_edge_counter.20, *LPBX1
 1583      00
 1584 1403 8915FC04 		movl	%edx, LPBX1+1116	 # PROF_edge_counter.20, *LPBX1
 1584      0000
 1585              		.loc 1 386 0
 1586 1409 83C43C   		addl	$60, %esp	 #,
 1587              	LCFI25:
 1588              		.cfi_def_cfa_offset 4
 1589 140c C3       		ret
 1590              		.cfi_endproc
 1591              	LFE12:
 1592              		.globl	_testbmk7
 1593              		.section .rdata,"dr"
 1594 0141 000000   		.align 4
 1595              	LC11:
 1596 0144 42656E63 		.ascii "Benchmark, mass reschedule, 5 threads\0"
 1596      686D6172 
 1596      6B2C206D 
 1596      61737320 
 1596      72657363 
 1597 016a 0000     		.align 4
 1598              	_testbmk7:
 1599              	 # name:
 1600 016c 44010000 		.long	LC11
 1601              	 # setup:
 1602 0170 CF0F0000 		.long	_bmk7_setup
 1603              	 # teardown:
 1604 0174 00000000 		.long	0
 1605              	 # execute:
 1606 0178 22100000 		.long	_bmk7_execute
 1607              		.text
 1608              		.def	_thread8;	.scl	3;	.type	32;	.endef
 1609              	_thread8:
 1610              	LFB13:
 1611              		.loc 1 405 0
 1612              		.cfi_startproc
 1613 140d 83EC0C   		subl	$12, %esp	 #,
 1614              	LCFI26:
 1615              		.cfi_def_cfa_offset 16
 1616              		.loc 1 405 0
 1617 1410 A1300400 		movl	LPBX1+912, %eax	 # *LPBX1, PROF_edge_counter.19
 1617      00
 1618 1415 8B153404 		movl	LPBX1+916, %edx	 # *LPBX1, PROF_edge_counter.19
 1618      0000
 1619 141b 83C001   		addl	$1, %eax	 #, PROF_edge_counter.19
 1620 141e 83D200   		adcl	$0, %edx	 #, PROF_edge_counter.19
 1621 1421 A3300400 		movl	%eax, LPBX1+912	 # PROF_edge_counter.19, *LPBX1
GAS LISTING C:\cygwin\tmp\ccZXqjbs.s 			page 42


 1621      00
 1622 1426 89153404 		movl	%edx, LPBX1+916	 # PROF_edge_counter.19, *LPBX1
 1622      0000
 1623              	L24:
 1624              		.loc 1 408 0 discriminator 1
 1625 142c E8000000 		call	_chThdYield	 #
 1625      00
 1626 1431 A1380400 		movl	LPBX1+920, %eax	 # *LPBX1, PROF_edge_counter.19
 1626      00
 1627 1436 8B153C04 		movl	LPBX1+924, %edx	 # *LPBX1, PROF_edge_counter.19
 1627      0000
 1628 143c 83C001   		addl	$1, %eax	 #, PROF_edge_counter.19
 1629 143f 83D200   		adcl	$0, %edx	 #, PROF_edge_counter.19
 1630 1442 A3380400 		movl	%eax, LPBX1+920	 # PROF_edge_counter.19, *LPBX1
 1630      00
 1631 1447 89153C04 		movl	%edx, LPBX1+924	 # PROF_edge_counter.19, *LPBX1
 1631      0000
 1632              		.loc 1 409 0 discriminator 1
 1633 144d E8000000 		call	_chThdYield	 #
 1633      00
 1634 1452 A1400400 		movl	LPBX1+928, %eax	 # *LPBX1, PROF_edge_counter.19
 1634      00
 1635 1457 8B154404 		movl	LPBX1+932, %edx	 # *LPBX1, PROF_edge_counter.19
 1635      0000
 1636 145d 83C001   		addl	$1, %eax	 #, PROF_edge_counter.19
 1637 1460 83D200   		adcl	$0, %edx	 #, PROF_edge_counter.19
 1638 1463 A3400400 		movl	%eax, LPBX1+928	 # PROF_edge_counter.19, *LPBX1
 1638      00
 1639 1468 89154404 		movl	%edx, LPBX1+932	 # PROF_edge_counter.19, *LPBX1
 1639      0000
 1640              		.loc 1 410 0 discriminator 1
 1641 146e E8000000 		call	_chThdYield	 #
 1641      00
 1642 1473 A1480400 		movl	LPBX1+936, %eax	 # *LPBX1, PROF_edge_counter.19
 1642      00
 1643 1478 8B154C04 		movl	LPBX1+940, %edx	 # *LPBX1, PROF_edge_counter.19
 1643      0000
 1644 147e 83C001   		addl	$1, %eax	 #, PROF_edge_counter.19
 1645 1481 83D200   		adcl	$0, %edx	 #, PROF_edge_counter.19
 1646 1484 A3480400 		movl	%eax, LPBX1+936	 # PROF_edge_counter.19, *LPBX1
 1646      00
 1647 1489 89154C04 		movl	%edx, LPBX1+940	 # PROF_edge_counter.19, *LPBX1
 1647      0000
 1648              		.loc 1 411 0 discriminator 1
 1649 148f E8000000 		call	_chThdYield	 #
 1649      00
 1650 1494 A1500400 		movl	LPBX1+944, %eax	 # *LPBX1, PROF_edge_counter.19
 1650      00
 1651 1499 8B155404 		movl	LPBX1+948, %edx	 # *LPBX1, PROF_edge_counter.19
 1651      0000
 1652 149f 83C001   		addl	$1, %eax	 #, PROF_edge_counter.19
 1653 14a2 83D200   		adcl	$0, %edx	 #, PROF_edge_counter.19
 1654 14a5 A3500400 		movl	%eax, LPBX1+944	 # PROF_edge_counter.19, *LPBX1
 1654      00
 1655 14aa 89155404 		movl	%edx, LPBX1+948	 # PROF_edge_counter.19, *LPBX1
 1655      0000
 1656              		.loc 1 412 0 discriminator 1
GAS LISTING C:\cygwin\tmp\ccZXqjbs.s 			page 43


 1657 14b0 8B442410 		movl	16(%esp), %eax	 # p, tmp81
 1658 14b4 8B00     		movl	(%eax), %eax	 # MEM[(uint32_t *)p_1(D)], D.2978
 1659 14b6 8D5004   		leal	4(%eax), %edx	 #, D.2979
 1660 14b9 8B442410 		movl	16(%esp), %eax	 # p, tmp82
 1661 14bd 8910     		movl	%edx, (%eax)	 # D.2979, MEM[(uint32_t *)p_1(D)]
 1662              		.loc 1 414 0 discriminator 1
 1663 14bf E8000000 		call	_ChkIntSources	 #
 1663      00
 1664 14c4 A1580400 		movl	LPBX1+952, %eax	 # *LPBX1, PROF_edge_counter.19
 1664      00
 1665 14c9 8B155C04 		movl	LPBX1+956, %edx	 # *LPBX1, PROF_edge_counter.19
 1665      0000
 1666 14cf 83C001   		addl	$1, %eax	 #, PROF_edge_counter.19
 1667 14d2 83D200   		adcl	$0, %edx	 #, PROF_edge_counter.19
 1668 14d5 A3580400 		movl	%eax, LPBX1+952	 # PROF_edge_counter.19, *LPBX1
 1668      00
 1669 14da 89155C04 		movl	%edx, LPBX1+956	 # PROF_edge_counter.19, *LPBX1
 1669      0000
 1670              		.loc 1 416 0 discriminator 1
 1671 14e0 A1180000 		movl	_rlist+24, %eax	 # rlist.r_current, D.2980
 1671      00
 1672 14e5 8A401D   		movb	29(%eax), %al	 # D.2980_4->p_flags, D.2981
 1673 14e8 0FB6C0   		movzbl	%al, %eax	 # D.2981, D.2982
 1674 14eb 83E004   		andl	$4, %eax	 #, D.2983
 1675 14ee 85C0     		testl	%eax, %eax	 # D.2983
 1676 14f0 0F8436FF 		je	L24	 #,
 1676      FFFF
 1677              		.loc 1 416 0 is_stmt 0
 1678 14f6 A1600400 		movl	LPBX1+960, %eax	 # *LPBX1, PROF_edge_counter.19
 1678      00
 1679 14fb 8B156404 		movl	LPBX1+964, %edx	 # *LPBX1, PROF_edge_counter.19
 1679      0000
 1680 1501 83C001   		addl	$1, %eax	 #, PROF_edge_counter.19
 1681 1504 83D200   		adcl	$0, %edx	 #, PROF_edge_counter.19
 1682 1507 A3600400 		movl	%eax, LPBX1+960	 # PROF_edge_counter.19, *LPBX1
 1682      00
 1683 150c 89156404 		movl	%edx, LPBX1+964	 # PROF_edge_counter.19, *LPBX1
 1683      0000
 1684              		.loc 1 417 0 is_stmt 1
 1685 1512 B8000000 		movl	$0, %eax	 #, D.2984
 1685      00
 1686              		.loc 1 418 0
 1687 1517 83C40C   		addl	$12, %esp	 #,
 1688              	LCFI27:
 1689              		.cfi_def_cfa_offset 4
 1690 151a C3       		ret
 1691              		.cfi_endproc
 1692              	LFE13:
 1693              		.def	_bmk8_execute;	.scl	3;	.type	32;	.endef
 1694              	_bmk8_execute:
 1695              	LFB14:
 1696              		.loc 1 420 0
 1697              		.cfi_startproc
 1698 151b 83EC3C   		subl	$60, %esp	 #,
 1699              	LCFI28:
 1700              		.cfi_def_cfa_offset 64
 1701              		.loc 1 420 0
GAS LISTING C:\cygwin\tmp\ccZXqjbs.s 			page 44


 1702 151e A1C80300 		movl	LPBX1+808, %eax	 # *LPBX1, PROF_edge_counter.18
 1702      00
 1703 1523 8B15CC03 		movl	LPBX1+812, %edx	 # *LPBX1, PROF_edge_counter.18
 1703      0000
 1704 1529 83C001   		addl	$1, %eax	 #, PROF_edge_counter.18
 1705 152c 83D200   		adcl	$0, %edx	 #, PROF_edge_counter.18
 1706 152f A3C80300 		movl	%eax, LPBX1+808	 # PROF_edge_counter.18, *LPBX1
 1706      00
 1707 1534 8915CC03 		movl	%edx, LPBX1+812	 # PROF_edge_counter.18, *LPBX1
 1707      0000
 1708              		.loc 1 423 0
 1709 153a C744242C 		movl	$0, 44(%esp)	 #, n
 1709      00000000 
 1710              		.loc 1 424 0
 1711 1542 E8000000 		call	_test_wait_tick	 #
 1711      00
 1712 1547 A1D00300 		movl	LPBX1+816, %eax	 # *LPBX1, PROF_edge_counter.18
 1712      00
 1713 154c 8B15D403 		movl	LPBX1+820, %edx	 # *LPBX1, PROF_edge_counter.18
 1713      0000
 1714 1552 83C001   		addl	$1, %eax	 #, PROF_edge_counter.18
 1715 1555 83D200   		adcl	$0, %edx	 #, PROF_edge_counter.18
 1716 1558 A3D00300 		movl	%eax, LPBX1+816	 # PROF_edge_counter.18, *LPBX1
 1716      00
 1717 155d 8915D403 		movl	%edx, LPBX1+820	 # PROF_edge_counter.18, *LPBX1
 1717      0000
 1718              		.loc 1 426 0
 1719 1563 A1180000 		movl	_rlist+24, %eax	 # rlist.r_current, D.2952
 1719      00
 1720 1568 8B4008   		movl	8(%eax), %eax	 # D.2952_1->p_prio, D.2953
 1721 156b 8D48FF   		leal	-1(%eax), %ecx	 #, D.2954
 1722 156e A1000000 		movl	_wa, %eax	 # wa, D.2955
 1722      00
 1723 1573 8D54242C 		leal	44(%esp), %edx	 #, tmp111
 1724 1577 89542410 		movl	%edx, 16(%esp)	 # tmp111,
 1725 157b C744240C 		movl	$_thread8, 12(%esp)	 #,
 1725      0D140000 
 1726 1583 894C2408 		movl	%ecx, 8(%esp)	 # D.2954,
 1727 1587 C7442404 		movl	$17008, 4(%esp)	 #,
 1727      70420000 
 1728 158f 890424   		movl	%eax, (%esp)	 # D.2955,
 1729 1592 E8000000 		call	_chThdCreateStatic	 #
 1729      00
 1730 1597 89C1     		movl	%eax, %ecx	 #, D.2956
 1731 1599 A1D80300 		movl	LPBX1+824, %eax	 # *LPBX1, PROF_edge_counter.18
 1731      00
 1732 159e 8B15DC03 		movl	LPBX1+828, %edx	 # *LPBX1, PROF_edge_counter.18
 1732      0000
 1733 15a4 83C001   		addl	$1, %eax	 #, PROF_edge_counter.18
 1734 15a7 83D200   		adcl	$0, %edx	 #, PROF_edge_counter.18
 1735 15aa A3D80300 		movl	%eax, LPBX1+824	 # PROF_edge_counter.18, *LPBX1
 1735      00
 1736 15af 8915DC03 		movl	%edx, LPBX1+828	 # PROF_edge_counter.18, *LPBX1
 1736      0000
 1737 15b5 890D0000 		movl	%ecx, _threads	 # D.2956, threads
 1737      0000
 1738              		.loc 1 427 0
GAS LISTING C:\cygwin\tmp\ccZXqjbs.s 			page 45


 1739 15bb A1180000 		movl	_rlist+24, %eax	 # rlist.r_current, D.2957
 1739      00
 1740 15c0 8B4008   		movl	8(%eax), %eax	 # D.2957_6->p_prio, D.2958
 1741 15c3 8D48FF   		leal	-1(%eax), %ecx	 #, D.2959
 1742 15c6 A1040000 		movl	_wa+4, %eax	 # wa, D.2960
 1742      00
 1743 15cb 8D54242C 		leal	44(%esp), %edx	 #, tmp112
 1744 15cf 89542410 		movl	%edx, 16(%esp)	 # tmp112,
 1745 15d3 C744240C 		movl	$_thread8, 12(%esp)	 #,
 1745      0D140000 
 1746 15db 894C2408 		movl	%ecx, 8(%esp)	 # D.2959,
 1747 15df C7442404 		movl	$17008, 4(%esp)	 #,
 1747      70420000 
 1748 15e7 890424   		movl	%eax, (%esp)	 # D.2960,
 1749 15ea E8000000 		call	_chThdCreateStatic	 #
 1749      00
 1750 15ef 89C1     		movl	%eax, %ecx	 #, D.2961
 1751 15f1 A1E00300 		movl	LPBX1+832, %eax	 # *LPBX1, PROF_edge_counter.18
 1751      00
 1752 15f6 8B15E403 		movl	LPBX1+836, %edx	 # *LPBX1, PROF_edge_counter.18
 1752      0000
 1753 15fc 83C001   		addl	$1, %eax	 #, PROF_edge_counter.18
 1754 15ff 83D200   		adcl	$0, %edx	 #, PROF_edge_counter.18
 1755 1602 A3E00300 		movl	%eax, LPBX1+832	 # PROF_edge_counter.18, *LPBX1
 1755      00
 1756 1607 8915E403 		movl	%edx, LPBX1+836	 # PROF_edge_counter.18, *LPBX1
 1756      0000
 1757 160d 890D0400 		movl	%ecx, _threads+4	 # D.2961, threads
 1757      0000
 1758              		.loc 1 428 0
 1759 1613 A1180000 		movl	_rlist+24, %eax	 # rlist.r_current, D.2962
 1759      00
 1760 1618 8B4008   		movl	8(%eax), %eax	 # D.2962_11->p_prio, D.2963
 1761 161b 8D48FF   		leal	-1(%eax), %ecx	 #, D.2964
 1762 161e A1080000 		movl	_wa+8, %eax	 # wa, D.2965
 1762      00
 1763 1623 8D54242C 		leal	44(%esp), %edx	 #, tmp113
 1764 1627 89542410 		movl	%edx, 16(%esp)	 # tmp113,
 1765 162b C744240C 		movl	$_thread8, 12(%esp)	 #,
 1765      0D140000 
 1766 1633 894C2408 		movl	%ecx, 8(%esp)	 # D.2964,
 1767 1637 C7442404 		movl	$17008, 4(%esp)	 #,
 1767      70420000 
 1768 163f 890424   		movl	%eax, (%esp)	 # D.2965,
 1769 1642 E8000000 		call	_chThdCreateStatic	 #
 1769      00
 1770 1647 89C1     		movl	%eax, %ecx	 #, D.2966
 1771 1649 A1E80300 		movl	LPBX1+840, %eax	 # *LPBX1, PROF_edge_counter.18
 1771      00
 1772 164e 8B15EC03 		movl	LPBX1+844, %edx	 # *LPBX1, PROF_edge_counter.18
 1772      0000
 1773 1654 83C001   		addl	$1, %eax	 #, PROF_edge_counter.18
 1774 1657 83D200   		adcl	$0, %edx	 #, PROF_edge_counter.18
 1775 165a A3E80300 		movl	%eax, LPBX1+840	 # PROF_edge_counter.18, *LPBX1
 1775      00
 1776 165f 8915EC03 		movl	%edx, LPBX1+844	 # PROF_edge_counter.18, *LPBX1
 1776      0000
GAS LISTING C:\cygwin\tmp\ccZXqjbs.s 			page 46


 1777 1665 890D0800 		movl	%ecx, _threads+8	 # D.2966, threads
 1777      0000
 1778              		.loc 1 429 0
 1779 166b A1180000 		movl	_rlist+24, %eax	 # rlist.r_current, D.2967
 1779      00
 1780 1670 8B4008   		movl	8(%eax), %eax	 # D.2967_16->p_prio, D.2968
 1781 1673 8D48FF   		leal	-1(%eax), %ecx	 #, D.2969
 1782 1676 A10C0000 		movl	_wa+12, %eax	 # wa, D.2970
 1782      00
 1783 167b 8D54242C 		leal	44(%esp), %edx	 #, tmp114
 1784 167f 89542410 		movl	%edx, 16(%esp)	 # tmp114,
 1785 1683 C744240C 		movl	$_thread8, 12(%esp)	 #,
 1785      0D140000 
 1786 168b 894C2408 		movl	%ecx, 8(%esp)	 # D.2969,
 1787 168f C7442404 		movl	$17008, 4(%esp)	 #,
 1787      70420000 
 1788 1697 890424   		movl	%eax, (%esp)	 # D.2970,
 1789 169a E8000000 		call	_chThdCreateStatic	 #
 1789      00
 1790 169f 89C1     		movl	%eax, %ecx	 #, D.2971
 1791 16a1 A1F00300 		movl	LPBX1+848, %eax	 # *LPBX1, PROF_edge_counter.18
 1791      00
 1792 16a6 8B15F403 		movl	LPBX1+852, %edx	 # *LPBX1, PROF_edge_counter.18
 1792      0000
 1793 16ac 83C001   		addl	$1, %eax	 #, PROF_edge_counter.18
 1794 16af 83D200   		adcl	$0, %edx	 #, PROF_edge_counter.18
 1795 16b2 A3F00300 		movl	%eax, LPBX1+848	 # PROF_edge_counter.18, *LPBX1
 1795      00
 1796 16b7 8915F403 		movl	%edx, LPBX1+852	 # PROF_edge_counter.18, *LPBX1
 1796      0000
 1797 16bd 890D0C00 		movl	%ecx, _threads+12	 # D.2971, threads
 1797      0000
 1798              		.loc 1 430 0
 1799 16c3 A1180000 		movl	_rlist+24, %eax	 # rlist.r_current, D.2972
 1799      00
 1800 16c8 8B4008   		movl	8(%eax), %eax	 # D.2972_21->p_prio, D.2973
 1801 16cb 8D48FF   		leal	-1(%eax), %ecx	 #, D.2974
 1802 16ce A1100000 		movl	_wa+16, %eax	 # wa, D.2975
 1802      00
 1803 16d3 8D54242C 		leal	44(%esp), %edx	 #, tmp115
 1804 16d7 89542410 		movl	%edx, 16(%esp)	 # tmp115,
 1805 16db C744240C 		movl	$_thread8, 12(%esp)	 #,
 1805      0D140000 
 1806 16e3 894C2408 		movl	%ecx, 8(%esp)	 # D.2974,
 1807 16e7 C7442404 		movl	$17008, 4(%esp)	 #,
 1807      70420000 
 1808 16ef 890424   		movl	%eax, (%esp)	 # D.2975,
 1809 16f2 E8000000 		call	_chThdCreateStatic	 #
 1809      00
 1810 16f7 89C1     		movl	%eax, %ecx	 #, D.2976
 1811 16f9 A1F80300 		movl	LPBX1+856, %eax	 # *LPBX1, PROF_edge_counter.18
 1811      00
 1812 16fe 8B15FC03 		movl	LPBX1+860, %edx	 # *LPBX1, PROF_edge_counter.18
 1812      0000
 1813 1704 83C001   		addl	$1, %eax	 #, PROF_edge_counter.18
 1814 1707 83D200   		adcl	$0, %edx	 #, PROF_edge_counter.18
 1815 170a A3F80300 		movl	%eax, LPBX1+856	 # PROF_edge_counter.18, *LPBX1
GAS LISTING C:\cygwin\tmp\ccZXqjbs.s 			page 47


 1815      00
 1816 170f 8915FC03 		movl	%edx, LPBX1+860	 # PROF_edge_counter.18, *LPBX1
 1816      0000
 1817 1715 890D1000 		movl	%ecx, _threads+16	 # D.2976, threads
 1817      0000
 1818              		.loc 1 432 0
 1819 171b C70424E8 		movl	$1000, (%esp)	 #,
 1819      030000
 1820 1722 E8000000 		call	_chThdSleep	 #
 1820      00
 1821 1727 A1000400 		movl	LPBX1+864, %eax	 # *LPBX1, PROF_edge_counter.18
 1821      00
 1822 172c 8B150404 		movl	LPBX1+868, %edx	 # *LPBX1, PROF_edge_counter.18
 1822      0000
 1823 1732 83C001   		addl	$1, %eax	 #, PROF_edge_counter.18
 1824 1735 83D200   		adcl	$0, %edx	 #, PROF_edge_counter.18
 1825 1738 A3000400 		movl	%eax, LPBX1+864	 # PROF_edge_counter.18, *LPBX1
 1825      00
 1826 173d 89150404 		movl	%edx, LPBX1+868	 # PROF_edge_counter.18, *LPBX1
 1826      0000
 1827              		.loc 1 433 0
 1828 1743 E8000000 		call	_test_terminate_threads	 #
 1828      00
 1829 1748 A1080400 		movl	LPBX1+872, %eax	 # *LPBX1, PROF_edge_counter.18
 1829      00
 1830 174d 8B150C04 		movl	LPBX1+876, %edx	 # *LPBX1, PROF_edge_counter.18
 1830      0000
 1831 1753 83C001   		addl	$1, %eax	 #, PROF_edge_counter.18
 1832 1756 83D200   		adcl	$0, %edx	 #, PROF_edge_counter.18
 1833 1759 A3080400 		movl	%eax, LPBX1+872	 # PROF_edge_counter.18, *LPBX1
 1833      00
 1834 175e 89150C04 		movl	%edx, LPBX1+876	 # PROF_edge_counter.18, *LPBX1
 1834      0000
 1835              		.loc 1 434 0
 1836 1764 E8000000 		call	_test_wait_threads	 #
 1836      00
 1837 1769 A1100400 		movl	LPBX1+880, %eax	 # *LPBX1, PROF_edge_counter.18
 1837      00
 1838 176e 8B151404 		movl	LPBX1+884, %edx	 # *LPBX1, PROF_edge_counter.18
 1838      0000
 1839 1774 83C001   		addl	$1, %eax	 #, PROF_edge_counter.18
 1840 1777 83D200   		adcl	$0, %edx	 #, PROF_edge_counter.18
 1841 177a A3100400 		movl	%eax, LPBX1+880	 # PROF_edge_counter.18, *LPBX1
 1841      00
 1842 177f 89151404 		movl	%edx, LPBX1+884	 # PROF_edge_counter.18, *LPBX1
 1842      0000
 1843              		.loc 1 436 0
 1844 1785 C7042400 		movl	$LC0, (%esp)	 #,
 1844      000000
 1845 178c E8000000 		call	_test_print	 #
 1845      00
 1846 1791 A1180400 		movl	LPBX1+888, %eax	 # *LPBX1, PROF_edge_counter.18
 1846      00
 1847 1796 8B151C04 		movl	LPBX1+892, %edx	 # *LPBX1, PROF_edge_counter.18
 1847      0000
 1848 179c 83C001   		addl	$1, %eax	 #, PROF_edge_counter.18
 1849 179f 83D200   		adcl	$0, %edx	 #, PROF_edge_counter.18
GAS LISTING C:\cygwin\tmp\ccZXqjbs.s 			page 48


 1850 17a2 A3180400 		movl	%eax, LPBX1+888	 # PROF_edge_counter.18, *LPBX1
 1850      00
 1851 17a7 89151C04 		movl	%edx, LPBX1+892	 # PROF_edge_counter.18, *LPBX1
 1851      0000
 1852              		.loc 1 437 0
 1853 17ad 8B44242C 		movl	44(%esp), %eax	 # n, n.4
 1854 17b1 890424   		movl	%eax, (%esp)	 # n.4,
 1855 17b4 E8000000 		call	_test_printn	 #
 1855      00
 1856 17b9 A1200400 		movl	LPBX1+896, %eax	 # *LPBX1, PROF_edge_counter.18
 1856      00
 1857 17be 8B152404 		movl	LPBX1+900, %edx	 # *LPBX1, PROF_edge_counter.18
 1857      0000
 1858 17c4 83C001   		addl	$1, %eax	 #, PROF_edge_counter.18
 1859 17c7 83D200   		adcl	$0, %edx	 #, PROF_edge_counter.18
 1860 17ca A3200400 		movl	%eax, LPBX1+896	 # PROF_edge_counter.18, *LPBX1
 1860      00
 1861 17cf 89152404 		movl	%edx, LPBX1+900	 # PROF_edge_counter.18, *LPBX1
 1861      0000
 1862              		.loc 1 438 0
 1863 17d5 C7042417 		movl	$LC2, (%esp)	 #,
 1863      000000
 1864 17dc E8000000 		call	_test_println	 #
 1864      00
 1865 17e1 A1280400 		movl	LPBX1+904, %eax	 # *LPBX1, PROF_edge_counter.18
 1865      00
 1866 17e6 8B152C04 		movl	LPBX1+908, %edx	 # *LPBX1, PROF_edge_counter.18
 1866      0000
 1867 17ec 83C001   		addl	$1, %eax	 #, PROF_edge_counter.18
 1868 17ef 83D200   		adcl	$0, %edx	 #, PROF_edge_counter.18
 1869 17f2 A3280400 		movl	%eax, LPBX1+904	 # PROF_edge_counter.18, *LPBX1
 1869      00
 1870 17f7 89152C04 		movl	%edx, LPBX1+908	 # PROF_edge_counter.18, *LPBX1
 1870      0000
 1871              		.loc 1 439 0
 1872 17fd 83C43C   		addl	$60, %esp	 #,
 1873              	LCFI29:
 1874              		.cfi_def_cfa_offset 4
 1875 1800 C3       		ret
 1876              		.cfi_endproc
 1877              	LFE14:
 1878              		.globl	_testbmk8
 1879              		.section .rdata,"dr"
 1880              		.align 4
 1881              	LC12:
 1882 017c 42656E63 		.ascii "Benchmark, round robin context switching\0"
 1882      686D6172 
 1882      6B2C2072 
 1882      6F756E64 
 1882      20726F62 
 1883 01a5 000000   		.align 4
 1884              	_testbmk8:
 1885              	 # name:
 1886 01a8 7C010000 		.long	LC12
 1887              	 # setup:
 1888 01ac 00000000 		.long	0
 1889              	 # teardown:
GAS LISTING C:\cygwin\tmp\ccZXqjbs.s 			page 49


 1890 01b0 00000000 		.long	0
 1891              	 # execute:
 1892 01b4 1B150000 		.long	_bmk8_execute
 1893              	LC13:
 1894 01b8 20627974 		.ascii " bytes/S\0"
 1894      65732F53 
 1894      00
 1895              		.text
 1896              		.def	_bmk9_execute;	.scl	3;	.type	32;	.endef
 1897              	_bmk9_execute:
 1898              	LFB15:
 1899              		.loc 1 458 0
 1900              		.cfi_startproc
 1901 1801 83EC3C   		subl	$60, %esp	 #,
 1902              	LCFI30:
 1903              		.cfi_def_cfa_offset 64
 1904              		.loc 1 458 0
 1905 1804 A1300300 		movl	LPBX1+656, %eax	 # *LPBX1, PROF_edge_counter.17
 1905      00
 1906 1809 8B153403 		movl	LPBX1+660, %edx	 # *LPBX1, PROF_edge_counter.17
 1906      0000
 1907 180f 83C001   		addl	$1, %eax	 #, PROF_edge_counter.17
 1908 1812 83D200   		adcl	$0, %edx	 #, PROF_edge_counter.17
 1909 1815 A3300300 		movl	%eax, LPBX1+656	 # PROF_edge_counter.17, *LPBX1
 1909      00
 1910 181a 89153403 		movl	%edx, LPBX1+660	 # PROF_edge_counter.17, *LPBX1
 1910      0000
 1911              		.loc 1 463 0
 1912 1820 C7442410 		movl	$0, 16(%esp)	 #,
 1912      00000000 
 1913 1828 C744240C 		movl	$0, 12(%esp)	 #,
 1913      00000000 
 1914 1830 C7442408 		movl	$16, 8(%esp)	 #,
 1914      10000000 
 1915 1838 C7442404 		movl	$_ib.1992, 4(%esp)	 #,
 1915      84000000 
 1916 1840 C7042460 		movl	$_iq.1993, (%esp)	 #,
 1916      000000
 1917 1847 E8000000 		call	_chIQInit	 #
 1917      00
 1918 184c A1380300 		movl	LPBX1+664, %eax	 # *LPBX1, PROF_edge_counter.17
 1918      00
 1919 1851 8B153C03 		movl	LPBX1+668, %edx	 # *LPBX1, PROF_edge_counter.17
 1919      0000
 1920 1857 83C001   		addl	$1, %eax	 #, PROF_edge_counter.17
 1921 185a 83D200   		adcl	$0, %edx	 #, PROF_edge_counter.17
 1922 185d A3380300 		movl	%eax, LPBX1+664	 # PROF_edge_counter.17, *LPBX1
 1922      00
 1923 1862 89153C03 		movl	%edx, LPBX1+668	 # PROF_edge_counter.17, *LPBX1
 1923      0000
 1924              		.loc 1 464 0
 1925 1868 C744242C 		movl	$0, 44(%esp)	 #, n
 1925      00000000 
 1926              		.loc 1 465 0
 1927 1870 E8000000 		call	_test_wait_tick	 #
 1927      00
 1928 1875 A1400300 		movl	LPBX1+672, %eax	 # *LPBX1, PROF_edge_counter.17
GAS LISTING C:\cygwin\tmp\ccZXqjbs.s 			page 50


 1928      00
 1929 187a 8B154403 		movl	LPBX1+676, %edx	 # *LPBX1, PROF_edge_counter.17
 1929      0000
 1930 1880 83C001   		addl	$1, %eax	 #, PROF_edge_counter.17
 1931 1883 83D200   		adcl	$0, %edx	 #, PROF_edge_counter.17
 1932 1886 A3400300 		movl	%eax, LPBX1+672	 # PROF_edge_counter.17, *LPBX1
 1932      00
 1933 188b 89154403 		movl	%edx, LPBX1+676	 # PROF_edge_counter.17, *LPBX1
 1933      0000
 1934              		.loc 1 466 0
 1935 1891 C70424E8 		movl	$1000, (%esp)	 #,
 1935      030000
 1936 1898 E8000000 		call	_test_start_timer	 #
 1936      00
 1937 189d A1480300 		movl	LPBX1+680, %eax	 # *LPBX1, PROF_edge_counter.17
 1937      00
 1938 18a2 8B154C03 		movl	LPBX1+684, %edx	 # *LPBX1, PROF_edge_counter.17
 1938      0000
 1939 18a8 83C001   		addl	$1, %eax	 #, PROF_edge_counter.17
 1940 18ab 83D200   		adcl	$0, %edx	 #, PROF_edge_counter.17
 1941 18ae A3480300 		movl	%eax, LPBX1+680	 # PROF_edge_counter.17, *LPBX1
 1941      00
 1942 18b3 89154C03 		movl	%edx, LPBX1+684	 # PROF_edge_counter.17, *LPBX1
 1942      0000
 1943              	L27:
 1944              		.loc 1 468 0 discriminator 1
 1945              	/APP
 1946              	 # 468 "../../test/testbmk.c" 1
 1947 18b9 90       		nop
 1948              	 # 0 "" 2
 1949              	/NO_APP
 1950 18ba A1500300 		movl	LPBX1+688, %eax	 # *LPBX1, PROF_edge_counter.17
 1950      00
 1951 18bf 8B155403 		movl	LPBX1+692, %edx	 # *LPBX1, PROF_edge_counter.17
 1951      0000
 1952 18c5 83C001   		addl	$1, %eax	 #, PROF_edge_counter.17
 1953 18c8 83D200   		adcl	$0, %edx	 #, PROF_edge_counter.17
 1954 18cb A3500300 		movl	%eax, LPBX1+688	 # PROF_edge_counter.17, *LPBX1
 1954      00
 1955 18d0 89155403 		movl	%edx, LPBX1+692	 # PROF_edge_counter.17, *LPBX1
 1955      0000
 1956              		.loc 1 469 0 discriminator 1
 1957 18d6 C7442404 		movl	$0, 4(%esp)	 #,
 1957      00000000 
 1958 18de C7042460 		movl	$_iq.1993, (%esp)	 #,
 1958      000000
 1959 18e5 E8000000 		call	_chIQPutI	 #
 1959      00
 1960 18ea A1580300 		movl	LPBX1+696, %eax	 # *LPBX1, PROF_edge_counter.17
 1960      00
 1961 18ef 8B155C03 		movl	LPBX1+700, %edx	 # *LPBX1, PROF_edge_counter.17
 1961      0000
 1962 18f5 83C001   		addl	$1, %eax	 #, PROF_edge_counter.17
 1963 18f8 83D200   		adcl	$0, %edx	 #, PROF_edge_counter.17
 1964 18fb A3580300 		movl	%eax, LPBX1+696	 # PROF_edge_counter.17, *LPBX1
 1964      00
 1965 1900 89155C03 		movl	%edx, LPBX1+700	 # PROF_edge_counter.17, *LPBX1
GAS LISTING C:\cygwin\tmp\ccZXqjbs.s 			page 51


 1965      0000
 1966              		.loc 1 470 0 discriminator 1
 1967 1906 C7442404 		movl	$1, 4(%esp)	 #,
 1967      01000000 
 1968 190e C7042460 		movl	$_iq.1993, (%esp)	 #,
 1968      000000
 1969 1915 E8000000 		call	_chIQPutI	 #
 1969      00
 1970 191a A1600300 		movl	LPBX1+704, %eax	 # *LPBX1, PROF_edge_counter.17
 1970      00
 1971 191f 8B156403 		movl	LPBX1+708, %edx	 # *LPBX1, PROF_edge_counter.17
 1971      0000
 1972 1925 83C001   		addl	$1, %eax	 #, PROF_edge_counter.17
 1973 1928 83D200   		adcl	$0, %edx	 #, PROF_edge_counter.17
 1974 192b A3600300 		movl	%eax, LPBX1+704	 # PROF_edge_counter.17, *LPBX1
 1974      00
 1975 1930 89156403 		movl	%edx, LPBX1+708	 # PROF_edge_counter.17, *LPBX1
 1975      0000
 1976              		.loc 1 471 0 discriminator 1
 1977 1936 C7442404 		movl	$2, 4(%esp)	 #,
 1977      02000000 
 1978 193e C7042460 		movl	$_iq.1993, (%esp)	 #,
 1978      000000
 1979 1945 E8000000 		call	_chIQPutI	 #
 1979      00
 1980 194a A1680300 		movl	LPBX1+712, %eax	 # *LPBX1, PROF_edge_counter.17
 1980      00
 1981 194f 8B156C03 		movl	LPBX1+716, %edx	 # *LPBX1, PROF_edge_counter.17
 1981      0000
 1982 1955 83C001   		addl	$1, %eax	 #, PROF_edge_counter.17
 1983 1958 83D200   		adcl	$0, %edx	 #, PROF_edge_counter.17
 1984 195b A3680300 		movl	%eax, LPBX1+712	 # PROF_edge_counter.17, *LPBX1
 1984      00
 1985 1960 89156C03 		movl	%edx, LPBX1+716	 # PROF_edge_counter.17, *LPBX1
 1985      0000
 1986              		.loc 1 472 0 discriminator 1
 1987 1966 C7442404 		movl	$3, 4(%esp)	 #,
 1987      03000000 
 1988 196e C7042460 		movl	$_iq.1993, (%esp)	 #,
 1988      000000
 1989 1975 E8000000 		call	_chIQPutI	 #
 1989      00
 1990 197a A1700300 		movl	LPBX1+720, %eax	 # *LPBX1, PROF_edge_counter.17
 1990      00
 1991 197f 8B157403 		movl	LPBX1+724, %edx	 # *LPBX1, PROF_edge_counter.17
 1991      0000
 1992 1985 83C001   		addl	$1, %eax	 #, PROF_edge_counter.17
 1993 1988 83D200   		adcl	$0, %edx	 #, PROF_edge_counter.17
 1994 198b A3700300 		movl	%eax, LPBX1+720	 # PROF_edge_counter.17, *LPBX1
 1994      00
 1995 1990 89157403 		movl	%edx, LPBX1+724	 # PROF_edge_counter.17, *LPBX1
 1995      0000
 1996              		.loc 1 473 0 discriminator 1
 1997              	/APP
 1998              	 # 473 "../../test/testbmk.c" 1
 1999 1996 90       		nop
 2000              	 # 0 "" 2
GAS LISTING C:\cygwin\tmp\ccZXqjbs.s 			page 52


 2001              	/NO_APP
 2002 1997 A1780300 		movl	LPBX1+728, %eax	 # *LPBX1, PROF_edge_counter.17
 2002      00
 2003 199c 8B157C03 		movl	LPBX1+732, %edx	 # *LPBX1, PROF_edge_counter.17
 2003      0000
 2004 19a2 83C001   		addl	$1, %eax	 #, PROF_edge_counter.17
 2005 19a5 83D200   		adcl	$0, %edx	 #, PROF_edge_counter.17
 2006 19a8 A3780300 		movl	%eax, LPBX1+728	 # PROF_edge_counter.17, *LPBX1
 2006      00
 2007 19ad 89157C03 		movl	%edx, LPBX1+732	 # PROF_edge_counter.17, *LPBX1
 2007      0000
 2008              		.loc 1 474 0 discriminator 1
 2009 19b3 C7442404 		movl	$-1, 4(%esp)	 #,
 2009      FFFFFFFF 
 2010 19bb C7042460 		movl	$_iq.1993, (%esp)	 #,
 2010      000000
 2011 19c2 E8000000 		call	_chIQGetTimeout	 #
 2011      00
 2012 19c7 A1800300 		movl	LPBX1+736, %eax	 # *LPBX1, PROF_edge_counter.17
 2012      00
 2013 19cc 8B158403 		movl	LPBX1+740, %edx	 # *LPBX1, PROF_edge_counter.17
 2013      0000
 2014 19d2 83C001   		addl	$1, %eax	 #, PROF_edge_counter.17
 2015 19d5 83D200   		adcl	$0, %edx	 #, PROF_edge_counter.17
 2016 19d8 A3800300 		movl	%eax, LPBX1+736	 # PROF_edge_counter.17, *LPBX1
 2016      00
 2017 19dd 89158403 		movl	%edx, LPBX1+740	 # PROF_edge_counter.17, *LPBX1
 2017      0000
 2018              		.loc 1 475 0 discriminator 1
 2019 19e3 C7442404 		movl	$-1, 4(%esp)	 #,
 2019      FFFFFFFF 
 2020 19eb C7042460 		movl	$_iq.1993, (%esp)	 #,
 2020      000000
 2021 19f2 E8000000 		call	_chIQGetTimeout	 #
 2021      00
 2022 19f7 A1880300 		movl	LPBX1+744, %eax	 # *LPBX1, PROF_edge_counter.17
 2022      00
 2023 19fc 8B158C03 		movl	LPBX1+748, %edx	 # *LPBX1, PROF_edge_counter.17
 2023      0000
 2024 1a02 83C001   		addl	$1, %eax	 #, PROF_edge_counter.17
 2025 1a05 83D200   		adcl	$0, %edx	 #, PROF_edge_counter.17
 2026 1a08 A3880300 		movl	%eax, LPBX1+744	 # PROF_edge_counter.17, *LPBX1
 2026      00
 2027 1a0d 89158C03 		movl	%edx, LPBX1+748	 # PROF_edge_counter.17, *LPBX1
 2027      0000
 2028              		.loc 1 476 0 discriminator 1
 2029 1a13 C7442404 		movl	$-1, 4(%esp)	 #,
 2029      FFFFFFFF 
 2030 1a1b C7042460 		movl	$_iq.1993, (%esp)	 #,
 2030      000000
 2031 1a22 E8000000 		call	_chIQGetTimeout	 #
 2031      00
 2032 1a27 A1900300 		movl	LPBX1+752, %eax	 # *LPBX1, PROF_edge_counter.17
 2032      00
 2033 1a2c 8B159403 		movl	LPBX1+756, %edx	 # *LPBX1, PROF_edge_counter.17
 2033      0000
 2034 1a32 83C001   		addl	$1, %eax	 #, PROF_edge_counter.17
GAS LISTING C:\cygwin\tmp\ccZXqjbs.s 			page 53


 2035 1a35 83D200   		adcl	$0, %edx	 #, PROF_edge_counter.17
 2036 1a38 A3900300 		movl	%eax, LPBX1+752	 # PROF_edge_counter.17, *LPBX1
 2036      00
 2037 1a3d 89159403 		movl	%edx, LPBX1+756	 # PROF_edge_counter.17, *LPBX1
 2037      0000
 2038              		.loc 1 477 0 discriminator 1
 2039 1a43 C7442404 		movl	$-1, 4(%esp)	 #,
 2039      FFFFFFFF 
 2040 1a4b C7042460 		movl	$_iq.1993, (%esp)	 #,
 2040      000000
 2041 1a52 E8000000 		call	_chIQGetTimeout	 #
 2041      00
 2042 1a57 A1980300 		movl	LPBX1+760, %eax	 # *LPBX1, PROF_edge_counter.17
 2042      00
 2043 1a5c 8B159C03 		movl	LPBX1+764, %edx	 # *LPBX1, PROF_edge_counter.17
 2043      0000
 2044 1a62 83C001   		addl	$1, %eax	 #, PROF_edge_counter.17
 2045 1a65 83D200   		adcl	$0, %edx	 #, PROF_edge_counter.17
 2046 1a68 A3980300 		movl	%eax, LPBX1+760	 # PROF_edge_counter.17, *LPBX1
 2046      00
 2047 1a6d 89159C03 		movl	%edx, LPBX1+764	 # PROF_edge_counter.17, *LPBX1
 2047      0000
 2048              		.loc 1 478 0 discriminator 1
 2049 1a73 FF44242C 		incl	44(%esp)	 # n
 2050              		.loc 1 480 0 discriminator 1
 2051 1a77 E8000000 		call	_ChkIntSources	 #
 2051      00
 2052 1a7c A1A00300 		movl	LPBX1+768, %eax	 # *LPBX1, PROF_edge_counter.17
 2052      00
 2053 1a81 8B15A403 		movl	LPBX1+772, %edx	 # *LPBX1, PROF_edge_counter.17
 2053      0000
 2054 1a87 83C001   		addl	$1, %eax	 #, PROF_edge_counter.17
 2055 1a8a 83D200   		adcl	$0, %edx	 #, PROF_edge_counter.17
 2056 1a8d A3A00300 		movl	%eax, LPBX1+768	 # PROF_edge_counter.17, *LPBX1
 2056      00
 2057 1a92 8915A403 		movl	%edx, LPBX1+772	 # PROF_edge_counter.17, *LPBX1
 2057      0000
 2058              		.loc 1 482 0 discriminator 1
 2059 1a98 A0000000 		movb	_test_timer_done, %al	 # test_timer_done, test_timer_done.3
 2059      00
 2060 1a9d 83F001   		xorl	$1, %eax	 #, D.2950
 2061 1aa0 84C0     		testb	%al, %al	 # D.2950
 2062 1aa2 0F8511FE 		jne	L27	 #,
 2062      FFFF
 2063              		.loc 1 482 0 is_stmt 0
 2064 1aa8 A1A80300 		movl	LPBX1+776, %eax	 # *LPBX1, PROF_edge_counter.17
 2064      00
 2065 1aad 8B15AC03 		movl	LPBX1+780, %edx	 # *LPBX1, PROF_edge_counter.17
 2065      0000
 2066 1ab3 83C001   		addl	$1, %eax	 #, PROF_edge_counter.17
 2067 1ab6 83D200   		adcl	$0, %edx	 #, PROF_edge_counter.17
 2068 1ab9 A3A80300 		movl	%eax, LPBX1+776	 # PROF_edge_counter.17, *LPBX1
 2068      00
 2069 1abe 8915AC03 		movl	%edx, LPBX1+780	 # PROF_edge_counter.17, *LPBX1
 2069      0000
 2070              		.loc 1 483 0 is_stmt 1
 2071 1ac4 C7042400 		movl	$LC0, (%esp)	 #,
GAS LISTING C:\cygwin\tmp\ccZXqjbs.s 			page 54


 2071      000000
 2072 1acb E8000000 		call	_test_print	 #
 2072      00
 2073 1ad0 A1B00300 		movl	LPBX1+784, %eax	 # *LPBX1, PROF_edge_counter.17
 2073      00
 2074 1ad5 8B15B403 		movl	LPBX1+788, %edx	 # *LPBX1, PROF_edge_counter.17
 2074      0000
 2075 1adb 83C001   		addl	$1, %eax	 #, PROF_edge_counter.17
 2076 1ade 83D200   		adcl	$0, %edx	 #, PROF_edge_counter.17
 2077 1ae1 A3B00300 		movl	%eax, LPBX1+784	 # PROF_edge_counter.17, *LPBX1
 2077      00
 2078 1ae6 8915B403 		movl	%edx, LPBX1+788	 # PROF_edge_counter.17, *LPBX1
 2078      0000
 2079              		.loc 1 484 0
 2080 1aec 8B44242C 		movl	44(%esp), %eax	 # n, tmp100
 2081 1af0 C1E002   		sall	$2, %eax	 #, D.2951
 2082 1af3 890424   		movl	%eax, (%esp)	 # D.2951,
 2083 1af6 E8000000 		call	_test_printn	 #
 2083      00
 2084 1afb A1B80300 		movl	LPBX1+792, %eax	 # *LPBX1, PROF_edge_counter.17
 2084      00
 2085 1b00 8B15BC03 		movl	LPBX1+796, %edx	 # *LPBX1, PROF_edge_counter.17
 2085      0000
 2086 1b06 83C001   		addl	$1, %eax	 #, PROF_edge_counter.17
 2087 1b09 83D200   		adcl	$0, %edx	 #, PROF_edge_counter.17
 2088 1b0c A3B80300 		movl	%eax, LPBX1+792	 # PROF_edge_counter.17, *LPBX1
 2088      00
 2089 1b11 8915BC03 		movl	%edx, LPBX1+796	 # PROF_edge_counter.17, *LPBX1
 2089      0000
 2090              		.loc 1 485 0
 2091 1b17 C70424B8 		movl	$LC13, (%esp)	 #,
 2091      010000
 2092 1b1e E8000000 		call	_test_println	 #
 2092      00
 2093 1b23 A1C00300 		movl	LPBX1+800, %eax	 # *LPBX1, PROF_edge_counter.17
 2093      00
 2094 1b28 8B15C403 		movl	LPBX1+804, %edx	 # *LPBX1, PROF_edge_counter.17
 2094      0000
 2095 1b2e 83C001   		addl	$1, %eax	 #, PROF_edge_counter.17
 2096 1b31 83D200   		adcl	$0, %edx	 #, PROF_edge_counter.17
 2097 1b34 A3C00300 		movl	%eax, LPBX1+800	 # PROF_edge_counter.17, *LPBX1
 2097      00
 2098 1b39 8915C403 		movl	%edx, LPBX1+804	 # PROF_edge_counter.17, *LPBX1
 2098      0000
 2099              		.loc 1 486 0
 2100 1b3f 83C43C   		addl	$60, %esp	 #,
 2101              	LCFI31:
 2102              		.cfi_def_cfa_offset 4
 2103 1b42 C3       		ret
 2104              		.cfi_endproc
 2105              	LFE15:
 2106              		.globl	_testbmk9
 2107              		.section .rdata,"dr"
 2108 01c1 000000   		.align 4
 2109              	LC14:
 2110 01c4 42656E63 		.ascii "Benchmark, I/O Queues throughput\0"
 2110      686D6172 
GAS LISTING C:\cygwin\tmp\ccZXqjbs.s 			page 55


 2110      6B2C2049 
 2110      2F4F2051 
 2110      75657565 
 2111 01e5 000000   		.align 4
 2112              	_testbmk9:
 2113              	 # name:
 2114 01e8 C4010000 		.long	LC14
 2115              	 # setup:
 2116 01ec 00000000 		.long	0
 2117              	 # teardown:
 2118 01f0 00000000 		.long	0
 2119              	 # execute:
 2120 01f4 01180000 		.long	_bmk9_execute
 2121              		.text
 2122              		.def	_tmo;	.scl	3;	.type	32;	.endef
 2123              	_tmo:
 2124              	LFB16:
 2125              		.loc 1 504 0
 2126              		.cfi_startproc
 2127 1b43 83EC04   		subl	$4, %esp	 #,
 2128              	LCFI32:
 2129              		.cfi_def_cfa_offset 8
 2130              		.loc 1 504 0
 2131 1b46 A1280300 		movl	LPBX1+648, %eax	 # *LPBX1, PROF_edge_counter.16
 2131      00
 2132 1b4b 8B152C03 		movl	LPBX1+652, %edx	 # *LPBX1, PROF_edge_counter.16
 2132      0000
 2133 1b51 83C001   		addl	$1, %eax	 #, PROF_edge_counter.16
 2134 1b54 83D200   		adcl	$0, %edx	 #, PROF_edge_counter.16
 2135 1b57 A3280300 		movl	%eax, LPBX1+648	 # PROF_edge_counter.16, *LPBX1
 2135      00
 2136 1b5c 89152C03 		movl	%edx, LPBX1+652	 # PROF_edge_counter.16, *LPBX1
 2136      0000
 2137 1b62 83C404   		addl	$4, %esp	 #,
 2138              	LCFI33:
 2139              		.cfi_def_cfa_offset 4
 2140 1b65 C3       		ret
 2141              		.cfi_endproc
 2142              	LFE16:
 2143              		.section .rdata,"dr"
 2144              	LC15:
 2145 01f8 2074696D 		.ascii " timers/S\0"
 2145      6572732F 
 2145      5300
 2146              		.text
 2147              		.def	_bmk10_execute;	.scl	3;	.type	32;	.endef
 2148              	_bmk10_execute:
 2149              	LFB17:
 2150              		.loc 1 506 0
 2151              		.cfi_startproc
 2152 1b66 83EC2C   		subl	$44, %esp	 #,
 2153              	LCFI34:
 2154              		.cfi_def_cfa_offset 48
 2155              		.loc 1 506 0
 2156 1b69 A1B80200 		movl	LPBX1+536, %eax	 # *LPBX1, PROF_edge_counter.15
 2156      00
 2157 1b6e 8B15BC02 		movl	LPBX1+540, %edx	 # *LPBX1, PROF_edge_counter.15
GAS LISTING C:\cygwin\tmp\ccZXqjbs.s 			page 56


 2157      0000
 2158 1b74 83C001   		addl	$1, %eax	 #, PROF_edge_counter.15
 2159 1b77 83D200   		adcl	$0, %edx	 #, PROF_edge_counter.15
 2160 1b7a A3B80200 		movl	%eax, LPBX1+536	 # PROF_edge_counter.15, *LPBX1
 2160      00
 2161 1b7f 8915BC02 		movl	%edx, LPBX1+540	 # PROF_edge_counter.15, *LPBX1
 2161      0000
 2162              		.loc 1 508 0
 2163 1b85 C744241C 		movl	$0, 28(%esp)	 #, n
 2163      00000000 
 2164              		.loc 1 510 0
 2165 1b8d E8000000 		call	_test_wait_tick	 #
 2165      00
 2166 1b92 A1C00200 		movl	LPBX1+544, %eax	 # *LPBX1, PROF_edge_counter.15
 2166      00
 2167 1b97 8B15C402 		movl	LPBX1+548, %edx	 # *LPBX1, PROF_edge_counter.15
 2167      0000
 2168 1b9d 83C001   		addl	$1, %eax	 #, PROF_edge_counter.15
 2169 1ba0 83D200   		adcl	$0, %edx	 #, PROF_edge_counter.15
 2170 1ba3 A3C00200 		movl	%eax, LPBX1+544	 # PROF_edge_counter.15, *LPBX1
 2170      00
 2171 1ba8 8915C402 		movl	%edx, LPBX1+548	 # PROF_edge_counter.15, *LPBX1
 2171      0000
 2172              		.loc 1 511 0
 2173 1bae C70424E8 		movl	$1000, (%esp)	 #,
 2173      030000
 2174 1bb5 E8000000 		call	_test_start_timer	 #
 2174      00
 2175 1bba A1C80200 		movl	LPBX1+552, %eax	 # *LPBX1, PROF_edge_counter.15
 2175      00
 2176 1bbf 8B15CC02 		movl	LPBX1+556, %edx	 # *LPBX1, PROF_edge_counter.15
 2176      0000
 2177 1bc5 83C001   		addl	$1, %eax	 #, PROF_edge_counter.15
 2178 1bc8 83D200   		adcl	$0, %edx	 #, PROF_edge_counter.15
 2179 1bcb A3C80200 		movl	%eax, LPBX1+552	 # PROF_edge_counter.15, *LPBX1
 2179      00
 2180 1bd0 8915CC02 		movl	%edx, LPBX1+556	 # PROF_edge_counter.15, *LPBX1
 2180      0000
 2181              	L30:
 2182              		.loc 1 513 0 discriminator 1
 2183              	/APP
 2184              	 # 513 "../../test/testbmk.c" 1
 2185 1bd6 90       		nop
 2186              	 # 0 "" 2
 2187              	/NO_APP
 2188 1bd7 A1D00200 		movl	LPBX1+560, %eax	 # *LPBX1, PROF_edge_counter.15
 2188      00
 2189 1bdc 8B15D402 		movl	LPBX1+564, %edx	 # *LPBX1, PROF_edge_counter.15
 2189      0000
 2190 1be2 83C001   		addl	$1, %eax	 #, PROF_edge_counter.15
 2191 1be5 83D200   		adcl	$0, %edx	 #, PROF_edge_counter.15
 2192 1be8 A3D00200 		movl	%eax, LPBX1+560	 # PROF_edge_counter.15, *LPBX1
 2192      00
 2193 1bed 8915D402 		movl	%edx, LPBX1+564	 # PROF_edge_counter.15, *LPBX1
 2193      0000
 2194              		.loc 1 514 0 discriminator 1
 2195 1bf3 C744240C 		movl	$0, 12(%esp)	 #,
GAS LISTING C:\cygwin\tmp\ccZXqjbs.s 			page 57


 2195      00000000 
 2196 1bfb C7442408 		movl	$_tmo, 8(%esp)	 #,
 2196      431B0000 
 2197 1c03 C7442404 		movl	$1, 4(%esp)	 #,
 2197      01000000 
 2198 1c0b C704241C 		movl	$_vt1.2003, (%esp)	 #,
 2198      000000
 2199 1c12 E8000000 		call	_chVTSetI	 #
 2199      00
 2200 1c17 A1D80200 		movl	LPBX1+568, %eax	 # *LPBX1, PROF_edge_counter.15
 2200      00
 2201 1c1c 8B15DC02 		movl	LPBX1+572, %edx	 # *LPBX1, PROF_edge_counter.15
 2201      0000
 2202 1c22 83C001   		addl	$1, %eax	 #, PROF_edge_counter.15
 2203 1c25 83D200   		adcl	$0, %edx	 #, PROF_edge_counter.15
 2204 1c28 A3D80200 		movl	%eax, LPBX1+568	 # PROF_edge_counter.15, *LPBX1
 2204      00
 2205 1c2d 8915DC02 		movl	%edx, LPBX1+572	 # PROF_edge_counter.15, *LPBX1
 2205      0000
 2206              		.loc 1 515 0 discriminator 1
 2207 1c33 C744240C 		movl	$0, 12(%esp)	 #,
 2207      00000000 
 2208 1c3b C7442408 		movl	$_tmo, 8(%esp)	 #,
 2208      431B0000 
 2209 1c43 C7442404 		movl	$10000, 4(%esp)	 #,
 2209      10270000 
 2210 1c4b C7042430 		movl	$_vt2.2004, (%esp)	 #,
 2210      000000
 2211 1c52 E8000000 		call	_chVTSetI	 #
 2211      00
 2212 1c57 A1E00200 		movl	LPBX1+576, %eax	 # *LPBX1, PROF_edge_counter.15
 2212      00
 2213 1c5c 8B15E402 		movl	LPBX1+580, %edx	 # *LPBX1, PROF_edge_counter.15
 2213      0000
 2214 1c62 83C001   		addl	$1, %eax	 #, PROF_edge_counter.15
 2215 1c65 83D200   		adcl	$0, %edx	 #, PROF_edge_counter.15
 2216 1c68 A3E00200 		movl	%eax, LPBX1+576	 # PROF_edge_counter.15, *LPBX1
 2216      00
 2217 1c6d 8915E402 		movl	%edx, LPBX1+580	 # PROF_edge_counter.15, *LPBX1
 2217      0000
 2218              		.loc 1 516 0 discriminator 1
 2219 1c73 C704241C 		movl	$_vt1.2003, (%esp)	 #,
 2219      000000
 2220 1c7a E8000000 		call	_chVTResetI	 #
 2220      00
 2221 1c7f A1E80200 		movl	LPBX1+584, %eax	 # *LPBX1, PROF_edge_counter.15
 2221      00
 2222 1c84 8B15EC02 		movl	LPBX1+588, %edx	 # *LPBX1, PROF_edge_counter.15
 2222      0000
 2223 1c8a 83C001   		addl	$1, %eax	 #, PROF_edge_counter.15
 2224 1c8d 83D200   		adcl	$0, %edx	 #, PROF_edge_counter.15
 2225 1c90 A3E80200 		movl	%eax, LPBX1+584	 # PROF_edge_counter.15, *LPBX1
 2225      00
 2226 1c95 8915EC02 		movl	%edx, LPBX1+588	 # PROF_edge_counter.15, *LPBX1
 2226      0000
 2227              		.loc 1 517 0 discriminator 1
 2228 1c9b C7042430 		movl	$_vt2.2004, (%esp)	 #,
GAS LISTING C:\cygwin\tmp\ccZXqjbs.s 			page 58


 2228      000000
 2229 1ca2 E8000000 		call	_chVTResetI	 #
 2229      00
 2230 1ca7 A1F00200 		movl	LPBX1+592, %eax	 # *LPBX1, PROF_edge_counter.15
 2230      00
 2231 1cac 8B15F402 		movl	LPBX1+596, %edx	 # *LPBX1, PROF_edge_counter.15
 2231      0000
 2232 1cb2 83C001   		addl	$1, %eax	 #, PROF_edge_counter.15
 2233 1cb5 83D200   		adcl	$0, %edx	 #, PROF_edge_counter.15
 2234 1cb8 A3F00200 		movl	%eax, LPBX1+592	 # PROF_edge_counter.15, *LPBX1
 2234      00
 2235 1cbd 8915F402 		movl	%edx, LPBX1+596	 # PROF_edge_counter.15, *LPBX1
 2235      0000
 2236              		.loc 1 518 0 discriminator 1
 2237              	/APP
 2238              	 # 518 "../../test/testbmk.c" 1
 2239 1cc3 90       		nop
 2240              	 # 0 "" 2
 2241              	/NO_APP
 2242 1cc4 A1F80200 		movl	LPBX1+600, %eax	 # *LPBX1, PROF_edge_counter.15
 2242      00
 2243 1cc9 8B15FC02 		movl	LPBX1+604, %edx	 # *LPBX1, PROF_edge_counter.15
 2243      0000
 2244 1ccf 83C001   		addl	$1, %eax	 #, PROF_edge_counter.15
 2245 1cd2 83D200   		adcl	$0, %edx	 #, PROF_edge_counter.15
 2246 1cd5 A3F80200 		movl	%eax, LPBX1+600	 # PROF_edge_counter.15, *LPBX1
 2246      00
 2247 1cda 8915FC02 		movl	%edx, LPBX1+604	 # PROF_edge_counter.15, *LPBX1
 2247      0000
 2248              		.loc 1 519 0 discriminator 1
 2249 1ce0 FF44241C 		incl	28(%esp)	 # n
 2250              		.loc 1 521 0 discriminator 1
 2251 1ce4 E8000000 		call	_ChkIntSources	 #
 2251      00
 2252 1ce9 A1000300 		movl	LPBX1+608, %eax	 # *LPBX1, PROF_edge_counter.15
 2252      00
 2253 1cee 8B150403 		movl	LPBX1+612, %edx	 # *LPBX1, PROF_edge_counter.15
 2253      0000
 2254 1cf4 83C001   		addl	$1, %eax	 #, PROF_edge_counter.15
 2255 1cf7 83D200   		adcl	$0, %edx	 #, PROF_edge_counter.15
 2256 1cfa A3000300 		movl	%eax, LPBX1+608	 # PROF_edge_counter.15, *LPBX1
 2256      00
 2257 1cff 89150403 		movl	%edx, LPBX1+612	 # PROF_edge_counter.15, *LPBX1
 2257      0000
 2258              		.loc 1 523 0 discriminator 1
 2259 1d05 A0000000 		movb	_test_timer_done, %al	 # test_timer_done, test_timer_done.2
 2259      00
 2260 1d0a 83F001   		xorl	$1, %eax	 #, D.2947
 2261 1d0d 84C0     		testb	%al, %al	 # D.2947
 2262 1d0f 0F85C1FE 		jne	L30	 #,
 2262      FFFF
 2263              		.loc 1 523 0 is_stmt 0
 2264 1d15 A1080300 		movl	LPBX1+616, %eax	 # *LPBX1, PROF_edge_counter.15
 2264      00
 2265 1d1a 8B150C03 		movl	LPBX1+620, %edx	 # *LPBX1, PROF_edge_counter.15
 2265      0000
 2266 1d20 83C001   		addl	$1, %eax	 #, PROF_edge_counter.15
GAS LISTING C:\cygwin\tmp\ccZXqjbs.s 			page 59


 2267 1d23 83D200   		adcl	$0, %edx	 #, PROF_edge_counter.15
 2268 1d26 A3080300 		movl	%eax, LPBX1+616	 # PROF_edge_counter.15, *LPBX1
 2268      00
 2269 1d2b 89150C03 		movl	%edx, LPBX1+620	 # PROF_edge_counter.15, *LPBX1
 2269      0000
 2270              		.loc 1 524 0 is_stmt 1
 2271 1d31 C7042400 		movl	$LC0, (%esp)	 #,
 2271      000000
 2272 1d38 E8000000 		call	_test_print	 #
 2272      00
 2273 1d3d A1100300 		movl	LPBX1+624, %eax	 # *LPBX1, PROF_edge_counter.15
 2273      00
 2274 1d42 8B151403 		movl	LPBX1+628, %edx	 # *LPBX1, PROF_edge_counter.15
 2274      0000
 2275 1d48 83C001   		addl	$1, %eax	 #, PROF_edge_counter.15
 2276 1d4b 83D200   		adcl	$0, %edx	 #, PROF_edge_counter.15
 2277 1d4e A3100300 		movl	%eax, LPBX1+624	 # PROF_edge_counter.15, *LPBX1
 2277      00
 2278 1d53 89151403 		movl	%edx, LPBX1+628	 # PROF_edge_counter.15, *LPBX1
 2278      0000
 2279              		.loc 1 525 0
 2280 1d59 8B44241C 		movl	28(%esp), %eax	 # n, tmp90
 2281 1d5d D1E0     		sall	%eax	 # D.2948
 2282 1d5f 890424   		movl	%eax, (%esp)	 # D.2948,
 2283 1d62 E8000000 		call	_test_printn	 #
 2283      00
 2284 1d67 A1180300 		movl	LPBX1+632, %eax	 # *LPBX1, PROF_edge_counter.15
 2284      00
 2285 1d6c 8B151C03 		movl	LPBX1+636, %edx	 # *LPBX1, PROF_edge_counter.15
 2285      0000
 2286 1d72 83C001   		addl	$1, %eax	 #, PROF_edge_counter.15
 2287 1d75 83D200   		adcl	$0, %edx	 #, PROF_edge_counter.15
 2288 1d78 A3180300 		movl	%eax, LPBX1+632	 # PROF_edge_counter.15, *LPBX1
 2288      00
 2289 1d7d 89151C03 		movl	%edx, LPBX1+636	 # PROF_edge_counter.15, *LPBX1
 2289      0000
 2290              		.loc 1 526 0
 2291 1d83 C70424F8 		movl	$LC15, (%esp)	 #,
 2291      010000
 2292 1d8a E8000000 		call	_test_println	 #
 2292      00
 2293 1d8f A1200300 		movl	LPBX1+640, %eax	 # *LPBX1, PROF_edge_counter.15
 2293      00
 2294 1d94 8B152403 		movl	LPBX1+644, %edx	 # *LPBX1, PROF_edge_counter.15
 2294      0000
 2295 1d9a 83C001   		addl	$1, %eax	 #, PROF_edge_counter.15
 2296 1d9d 83D200   		adcl	$0, %edx	 #, PROF_edge_counter.15
 2297 1da0 A3200300 		movl	%eax, LPBX1+640	 # PROF_edge_counter.15, *LPBX1
 2297      00
 2298 1da5 89152403 		movl	%edx, LPBX1+644	 # PROF_edge_counter.15, *LPBX1
 2298      0000
 2299              		.loc 1 527 0
 2300 1dab 83C42C   		addl	$44, %esp	 #,
 2301              	LCFI35:
 2302              		.cfi_def_cfa_offset 4
 2303 1dae C3       		ret
 2304              		.cfi_endproc
GAS LISTING C:\cygwin\tmp\ccZXqjbs.s 			page 60


 2305              	LFE17:
 2306              		.globl	_testbmk10
 2307              		.section .rdata,"dr"
 2308 0202 0000     		.align 4
 2309              	LC16:
 2310 0204 42656E63 		.ascii "Benchmark, virtual timers set/reset\0"
 2310      686D6172 
 2310      6B2C2076 
 2310      69727475 
 2310      616C2074 
 2311              		.align 4
 2312              	_testbmk10:
 2313              	 # name:
 2314 0228 04020000 		.long	LC16
 2315              	 # setup:
 2316 022c 00000000 		.long	0
 2317              	 # teardown:
 2318 0230 00000000 		.long	0
 2319              	 # execute:
 2320 0234 661B0000 		.long	_bmk10_execute
 2321              		.text
 2322              		.def	_bmk11_setup;	.scl	3;	.type	32;	.endef
 2323              	_bmk11_setup:
 2324              	LFB18:
 2325              		.loc 1 546 0
 2326              		.cfi_startproc
 2327 1daf 83EC1C   		subl	$28, %esp	 #,
 2328              	LCFI36:
 2329              		.cfi_def_cfa_offset 32
 2330              		.loc 1 546 0
 2331 1db2 A1A80200 		movl	LPBX1+520, %eax	 # *LPBX1, PROF_edge_counter.14
 2331      00
 2332 1db7 8B15AC02 		movl	LPBX1+524, %edx	 # *LPBX1, PROF_edge_counter.14
 2332      0000
 2333 1dbd 83C001   		addl	$1, %eax	 #, PROF_edge_counter.14
 2334 1dc0 83D200   		adcl	$0, %edx	 #, PROF_edge_counter.14
 2335 1dc3 A3A80200 		movl	%eax, LPBX1+520	 # PROF_edge_counter.14, *LPBX1
 2335      00
 2336 1dc8 8915AC02 		movl	%edx, LPBX1+524	 # PROF_edge_counter.14, *LPBX1
 2336      0000
 2337              		.loc 1 548 0
 2338 1dce C7442404 		movl	$1, 4(%esp)	 #,
 2338      01000000 
 2339 1dd6 C7042400 		movl	$_sem1, (%esp)	 #,
 2339      000000
 2340 1ddd E8000000 		call	_chSemInit	 #
 2340      00
 2341 1de2 A1B00200 		movl	LPBX1+528, %eax	 # *LPBX1, PROF_edge_counter.14
 2341      00
 2342 1de7 8B15B402 		movl	LPBX1+532, %edx	 # *LPBX1, PROF_edge_counter.14
 2342      0000
 2343 1ded 83C001   		addl	$1, %eax	 #, PROF_edge_counter.14
 2344 1df0 83D200   		adcl	$0, %edx	 #, PROF_edge_counter.14
 2345 1df3 A3B00200 		movl	%eax, LPBX1+528	 # PROF_edge_counter.14, *LPBX1
 2345      00
 2346 1df8 8915B402 		movl	%edx, LPBX1+532	 # PROF_edge_counter.14, *LPBX1
 2346      0000
GAS LISTING C:\cygwin\tmp\ccZXqjbs.s 			page 61


 2347              		.loc 1 549 0
 2348 1dfe 83C41C   		addl	$28, %esp	 #,
 2349              	LCFI37:
 2350              		.cfi_def_cfa_offset 4
 2351 1e01 C3       		ret
 2352              		.cfi_endproc
 2353              	LFE18:
 2354              		.section .rdata,"dr"
 2355              	LC17:
 2356 0238 20776169 		.ascii " wait+signal/S\0"
 2356      742B7369 
 2356      676E616C 
 2356      2F5300
 2357              		.text
 2358              		.def	_bmk11_execute;	.scl	3;	.type	32;	.endef
 2359              	_bmk11_execute:
 2360              	LFB19:
 2361              		.loc 1 551 0
 2362              		.cfi_startproc
 2363 1e02 83EC2C   		subl	$44, %esp	 #,
 2364              	LCFI38:
 2365              		.cfi_def_cfa_offset 48
 2366              		.loc 1 551 0
 2367 1e05 A1280200 		movl	LPBX1+392, %eax	 # *LPBX1, PROF_edge_counter.13
 2367      00
 2368 1e0a 8B152C02 		movl	LPBX1+396, %edx	 # *LPBX1, PROF_edge_counter.13
 2368      0000
 2369 1e10 83C001   		addl	$1, %eax	 #, PROF_edge_counter.13
 2370 1e13 83D200   		adcl	$0, %edx	 #, PROF_edge_counter.13
 2371 1e16 A3280200 		movl	%eax, LPBX1+392	 # PROF_edge_counter.13, *LPBX1
 2371      00
 2372 1e1b 89152C02 		movl	%edx, LPBX1+396	 # PROF_edge_counter.13, *LPBX1
 2372      0000
 2373              		.loc 1 552 0
 2374 1e21 C744241C 		movl	$0, 28(%esp)	 #, n
 2374      00000000 
 2375              		.loc 1 554 0
 2376 1e29 E8000000 		call	_test_wait_tick	 #
 2376      00
 2377 1e2e A1300200 		movl	LPBX1+400, %eax	 # *LPBX1, PROF_edge_counter.13
 2377      00
 2378 1e33 8B153402 		movl	LPBX1+404, %edx	 # *LPBX1, PROF_edge_counter.13
 2378      0000
 2379 1e39 83C001   		addl	$1, %eax	 #, PROF_edge_counter.13
 2380 1e3c 83D200   		adcl	$0, %edx	 #, PROF_edge_counter.13
 2381 1e3f A3300200 		movl	%eax, LPBX1+400	 # PROF_edge_counter.13, *LPBX1
 2381      00
 2382 1e44 89153402 		movl	%edx, LPBX1+404	 # PROF_edge_counter.13, *LPBX1
 2382      0000
 2383              		.loc 1 555 0
 2384 1e4a C70424E8 		movl	$1000, (%esp)	 #,
 2384      030000
 2385 1e51 E8000000 		call	_test_start_timer	 #
 2385      00
 2386 1e56 A1380200 		movl	LPBX1+408, %eax	 # *LPBX1, PROF_edge_counter.13
 2386      00
 2387 1e5b 8B153C02 		movl	LPBX1+412, %edx	 # *LPBX1, PROF_edge_counter.13
GAS LISTING C:\cygwin\tmp\ccZXqjbs.s 			page 62


 2387      0000
 2388 1e61 83C001   		addl	$1, %eax	 #, PROF_edge_counter.13
 2389 1e64 83D200   		adcl	$0, %edx	 #, PROF_edge_counter.13
 2390 1e67 A3380200 		movl	%eax, LPBX1+408	 # PROF_edge_counter.13, *LPBX1
 2390      00
 2391 1e6c 89153C02 		movl	%edx, LPBX1+412	 # PROF_edge_counter.13, *LPBX1
 2391      0000
 2392              	L33:
 2393              		.loc 1 557 0 discriminator 1
 2394 1e72 C7042400 		movl	$_sem1, (%esp)	 #,
 2394      000000
 2395 1e79 E8000000 		call	_chSemWait	 #
 2395      00
 2396 1e7e A1400200 		movl	LPBX1+416, %eax	 # *LPBX1, PROF_edge_counter.13
 2396      00
 2397 1e83 8B154402 		movl	LPBX1+420, %edx	 # *LPBX1, PROF_edge_counter.13
 2397      0000
 2398 1e89 83C001   		addl	$1, %eax	 #, PROF_edge_counter.13
 2399 1e8c 83D200   		adcl	$0, %edx	 #, PROF_edge_counter.13
 2400 1e8f A3400200 		movl	%eax, LPBX1+416	 # PROF_edge_counter.13, *LPBX1
 2400      00
 2401 1e94 89154402 		movl	%edx, LPBX1+420	 # PROF_edge_counter.13, *LPBX1
 2401      0000
 2402              		.loc 1 558 0 discriminator 1
 2403 1e9a C7042400 		movl	$_sem1, (%esp)	 #,
 2403      000000
 2404 1ea1 E8000000 		call	_chSemSignal	 #
 2404      00
 2405 1ea6 A1480200 		movl	LPBX1+424, %eax	 # *LPBX1, PROF_edge_counter.13
 2405      00
 2406 1eab 8B154C02 		movl	LPBX1+428, %edx	 # *LPBX1, PROF_edge_counter.13
 2406      0000
 2407 1eb1 83C001   		addl	$1, %eax	 #, PROF_edge_counter.13
 2408 1eb4 83D200   		adcl	$0, %edx	 #, PROF_edge_counter.13
 2409 1eb7 A3480200 		movl	%eax, LPBX1+424	 # PROF_edge_counter.13, *LPBX1
 2409      00
 2410 1ebc 89154C02 		movl	%edx, LPBX1+428	 # PROF_edge_counter.13, *LPBX1
 2410      0000
 2411              		.loc 1 559 0 discriminator 1
 2412 1ec2 C7042400 		movl	$_sem1, (%esp)	 #,
 2412      000000
 2413 1ec9 E8000000 		call	_chSemWait	 #
 2413      00
 2414 1ece A1500200 		movl	LPBX1+432, %eax	 # *LPBX1, PROF_edge_counter.13
 2414      00
 2415 1ed3 8B155402 		movl	LPBX1+436, %edx	 # *LPBX1, PROF_edge_counter.13
 2415      0000
 2416 1ed9 83C001   		addl	$1, %eax	 #, PROF_edge_counter.13
 2417 1edc 83D200   		adcl	$0, %edx	 #, PROF_edge_counter.13
 2418 1edf A3500200 		movl	%eax, LPBX1+432	 # PROF_edge_counter.13, *LPBX1
 2418      00
 2419 1ee4 89155402 		movl	%edx, LPBX1+436	 # PROF_edge_counter.13, *LPBX1
 2419      0000
 2420              		.loc 1 560 0 discriminator 1
 2421 1eea C7042400 		movl	$_sem1, (%esp)	 #,
 2421      000000
 2422 1ef1 E8000000 		call	_chSemSignal	 #
GAS LISTING C:\cygwin\tmp\ccZXqjbs.s 			page 63


 2422      00
 2423 1ef6 A1580200 		movl	LPBX1+440, %eax	 # *LPBX1, PROF_edge_counter.13
 2423      00
 2424 1efb 8B155C02 		movl	LPBX1+444, %edx	 # *LPBX1, PROF_edge_counter.13
 2424      0000
 2425 1f01 83C001   		addl	$1, %eax	 #, PROF_edge_counter.13
 2426 1f04 83D200   		adcl	$0, %edx	 #, PROF_edge_counter.13
 2427 1f07 A3580200 		movl	%eax, LPBX1+440	 # PROF_edge_counter.13, *LPBX1
 2427      00
 2428 1f0c 89155C02 		movl	%edx, LPBX1+444	 # PROF_edge_counter.13, *LPBX1
 2428      0000
 2429              		.loc 1 561 0 discriminator 1
 2430 1f12 C7042400 		movl	$_sem1, (%esp)	 #,
 2430      000000
 2431 1f19 E8000000 		call	_chSemWait	 #
 2431      00
 2432 1f1e A1600200 		movl	LPBX1+448, %eax	 # *LPBX1, PROF_edge_counter.13
 2432      00
 2433 1f23 8B156402 		movl	LPBX1+452, %edx	 # *LPBX1, PROF_edge_counter.13
 2433      0000
 2434 1f29 83C001   		addl	$1, %eax	 #, PROF_edge_counter.13
 2435 1f2c 83D200   		adcl	$0, %edx	 #, PROF_edge_counter.13
 2436 1f2f A3600200 		movl	%eax, LPBX1+448	 # PROF_edge_counter.13, *LPBX1
 2436      00
 2437 1f34 89156402 		movl	%edx, LPBX1+452	 # PROF_edge_counter.13, *LPBX1
 2437      0000
 2438              		.loc 1 562 0 discriminator 1
 2439 1f3a C7042400 		movl	$_sem1, (%esp)	 #,
 2439      000000
 2440 1f41 E8000000 		call	_chSemSignal	 #
 2440      00
 2441 1f46 A1680200 		movl	LPBX1+456, %eax	 # *LPBX1, PROF_edge_counter.13
 2441      00
 2442 1f4b 8B156C02 		movl	LPBX1+460, %edx	 # *LPBX1, PROF_edge_counter.13
 2442      0000
 2443 1f51 83C001   		addl	$1, %eax	 #, PROF_edge_counter.13
 2444 1f54 83D200   		adcl	$0, %edx	 #, PROF_edge_counter.13
 2445 1f57 A3680200 		movl	%eax, LPBX1+456	 # PROF_edge_counter.13, *LPBX1
 2445      00
 2446 1f5c 89156C02 		movl	%edx, LPBX1+460	 # PROF_edge_counter.13, *LPBX1
 2446      0000
 2447              		.loc 1 563 0 discriminator 1
 2448 1f62 C7042400 		movl	$_sem1, (%esp)	 #,
 2448      000000
 2449 1f69 E8000000 		call	_chSemWait	 #
 2449      00
 2450 1f6e A1700200 		movl	LPBX1+464, %eax	 # *LPBX1, PROF_edge_counter.13
 2450      00
 2451 1f73 8B157402 		movl	LPBX1+468, %edx	 # *LPBX1, PROF_edge_counter.13
 2451      0000
 2452 1f79 83C001   		addl	$1, %eax	 #, PROF_edge_counter.13
 2453 1f7c 83D200   		adcl	$0, %edx	 #, PROF_edge_counter.13
 2454 1f7f A3700200 		movl	%eax, LPBX1+464	 # PROF_edge_counter.13, *LPBX1
 2454      00
 2455 1f84 89157402 		movl	%edx, LPBX1+468	 # PROF_edge_counter.13, *LPBX1
 2455      0000
 2456              		.loc 1 564 0 discriminator 1
GAS LISTING C:\cygwin\tmp\ccZXqjbs.s 			page 64


 2457 1f8a C7042400 		movl	$_sem1, (%esp)	 #,
 2457      000000
 2458 1f91 E8000000 		call	_chSemSignal	 #
 2458      00
 2459 1f96 A1780200 		movl	LPBX1+472, %eax	 # *LPBX1, PROF_edge_counter.13
 2459      00
 2460 1f9b 8B157C02 		movl	LPBX1+476, %edx	 # *LPBX1, PROF_edge_counter.13
 2460      0000
 2461 1fa1 83C001   		addl	$1, %eax	 #, PROF_edge_counter.13
 2462 1fa4 83D200   		adcl	$0, %edx	 #, PROF_edge_counter.13
 2463 1fa7 A3780200 		movl	%eax, LPBX1+472	 # PROF_edge_counter.13, *LPBX1
 2463      00
 2464 1fac 89157C02 		movl	%edx, LPBX1+476	 # PROF_edge_counter.13, *LPBX1
 2464      0000
 2465              		.loc 1 565 0 discriminator 1
 2466 1fb2 FF44241C 		incl	28(%esp)	 # n
 2467              		.loc 1 567 0 discriminator 1
 2468 1fb6 E8000000 		call	_ChkIntSources	 #
 2468      00
 2469 1fbb A1800200 		movl	LPBX1+480, %eax	 # *LPBX1, PROF_edge_counter.13
 2469      00
 2470 1fc0 8B158402 		movl	LPBX1+484, %edx	 # *LPBX1, PROF_edge_counter.13
 2470      0000
 2471 1fc6 83C001   		addl	$1, %eax	 #, PROF_edge_counter.13
 2472 1fc9 83D200   		adcl	$0, %edx	 #, PROF_edge_counter.13
 2473 1fcc A3800200 		movl	%eax, LPBX1+480	 # PROF_edge_counter.13, *LPBX1
 2473      00
 2474 1fd1 89158402 		movl	%edx, LPBX1+484	 # PROF_edge_counter.13, *LPBX1
 2474      0000
 2475              		.loc 1 569 0 discriminator 1
 2476 1fd7 A0000000 		movb	_test_timer_done, %al	 # test_timer_done, test_timer_done.1
 2476      00
 2477 1fdc 83F001   		xorl	$1, %eax	 #, D.2944
 2478 1fdf 84C0     		testb	%al, %al	 # D.2944
 2479 1fe1 0F858BFE 		jne	L33	 #,
 2479      FFFF
 2480              		.loc 1 569 0 is_stmt 0
 2481 1fe7 A1880200 		movl	LPBX1+488, %eax	 # *LPBX1, PROF_edge_counter.13
 2481      00
 2482 1fec 8B158C02 		movl	LPBX1+492, %edx	 # *LPBX1, PROF_edge_counter.13
 2482      0000
 2483 1ff2 83C001   		addl	$1, %eax	 #, PROF_edge_counter.13
 2484 1ff5 83D200   		adcl	$0, %edx	 #, PROF_edge_counter.13
 2485 1ff8 A3880200 		movl	%eax, LPBX1+488	 # PROF_edge_counter.13, *LPBX1
 2485      00
 2486 1ffd 89158C02 		movl	%edx, LPBX1+492	 # PROF_edge_counter.13, *LPBX1
 2486      0000
 2487              		.loc 1 570 0 is_stmt 1
 2488 2003 C7042400 		movl	$LC0, (%esp)	 #,
 2488      000000
 2489 200a E8000000 		call	_test_print	 #
 2489      00
 2490 200f A1900200 		movl	LPBX1+496, %eax	 # *LPBX1, PROF_edge_counter.13
 2490      00
 2491 2014 8B159402 		movl	LPBX1+500, %edx	 # *LPBX1, PROF_edge_counter.13
 2491      0000
 2492 201a 83C001   		addl	$1, %eax	 #, PROF_edge_counter.13
GAS LISTING C:\cygwin\tmp\ccZXqjbs.s 			page 65


 2493 201d 83D200   		adcl	$0, %edx	 #, PROF_edge_counter.13
 2494 2020 A3900200 		movl	%eax, LPBX1+496	 # PROF_edge_counter.13, *LPBX1
 2494      00
 2495 2025 89159402 		movl	%edx, LPBX1+500	 # PROF_edge_counter.13, *LPBX1
 2495      0000
 2496              		.loc 1 571 0
 2497 202b 8B44241C 		movl	28(%esp), %eax	 # n, tmp94
 2498 202f C1E002   		sall	$2, %eax	 #, D.2945
 2499 2032 890424   		movl	%eax, (%esp)	 # D.2945,
 2500 2035 E8000000 		call	_test_printn	 #
 2500      00
 2501 203a A1980200 		movl	LPBX1+504, %eax	 # *LPBX1, PROF_edge_counter.13
 2501      00
 2502 203f 8B159C02 		movl	LPBX1+508, %edx	 # *LPBX1, PROF_edge_counter.13
 2502      0000
 2503 2045 83C001   		addl	$1, %eax	 #, PROF_edge_counter.13
 2504 2048 83D200   		adcl	$0, %edx	 #, PROF_edge_counter.13
 2505 204b A3980200 		movl	%eax, LPBX1+504	 # PROF_edge_counter.13, *LPBX1
 2505      00
 2506 2050 89159C02 		movl	%edx, LPBX1+508	 # PROF_edge_counter.13, *LPBX1
 2506      0000
 2507              		.loc 1 572 0
 2508 2056 C7042438 		movl	$LC17, (%esp)	 #,
 2508      020000
 2509 205d E8000000 		call	_test_println	 #
 2509      00
 2510 2062 A1A00200 		movl	LPBX1+512, %eax	 # *LPBX1, PROF_edge_counter.13
 2510      00
 2511 2067 8B15A402 		movl	LPBX1+516, %edx	 # *LPBX1, PROF_edge_counter.13
 2511      0000
 2512 206d 83C001   		addl	$1, %eax	 #, PROF_edge_counter.13
 2513 2070 83D200   		adcl	$0, %edx	 #, PROF_edge_counter.13
 2514 2073 A3A00200 		movl	%eax, LPBX1+512	 # PROF_edge_counter.13, *LPBX1
 2514      00
 2515 2078 8915A402 		movl	%edx, LPBX1+516	 # PROF_edge_counter.13, *LPBX1
 2515      0000
 2516              		.loc 1 573 0
 2517 207e 83C42C   		addl	$44, %esp	 #,
 2518              	LCFI39:
 2519              		.cfi_def_cfa_offset 4
 2520 2081 C3       		ret
 2521              		.cfi_endproc
 2522              	LFE19:
 2523              		.globl	_testbmk11
 2524              		.section .rdata,"dr"
 2525 0247 00       		.align 4
 2526              	LC18:
 2527 0248 42656E63 		.ascii "Benchmark, semaphores wait/signal\0"
 2527      686D6172 
 2527      6B2C2073 
 2527      656D6170 
 2527      686F7265 
 2528 026a 0000     		.align 4
 2529              	_testbmk11:
 2530              	 # name:
 2531 026c 48020000 		.long	LC18
 2532              	 # setup:
GAS LISTING C:\cygwin\tmp\ccZXqjbs.s 			page 66


 2533 0270 AF1D0000 		.long	_bmk11_setup
 2534              	 # teardown:
 2535 0274 00000000 		.long	0
 2536              	 # execute:
 2537 0278 021E0000 		.long	_bmk11_execute
 2538              		.text
 2539              		.def	_bmk12_setup;	.scl	3;	.type	32;	.endef
 2540              	_bmk12_setup:
 2541              	LFB20:
 2542              		.loc 1 593 0
 2543              		.cfi_startproc
 2544 2082 83EC1C   		subl	$28, %esp	 #,
 2545              	LCFI40:
 2546              		.cfi_def_cfa_offset 32
 2547              		.loc 1 593 0
 2548 2085 A1180200 		movl	LPBX1+376, %eax	 # *LPBX1, PROF_edge_counter.12
 2548      00
 2549 208a 8B151C02 		movl	LPBX1+380, %edx	 # *LPBX1, PROF_edge_counter.12
 2549      0000
 2550 2090 83C001   		addl	$1, %eax	 #, PROF_edge_counter.12
 2551 2093 83D200   		adcl	$0, %edx	 #, PROF_edge_counter.12
 2552 2096 A3180200 		movl	%eax, LPBX1+376	 # PROF_edge_counter.12, *LPBX1
 2552      00
 2553 209b 89151C02 		movl	%edx, LPBX1+380	 # PROF_edge_counter.12, *LPBX1
 2553      0000
 2554              		.loc 1 595 0
 2555 20a1 C704240C 		movl	$_mtx1, (%esp)	 #,
 2555      000000
 2556 20a8 E8000000 		call	_chMtxInit	 #
 2556      00
 2557 20ad A1200200 		movl	LPBX1+384, %eax	 # *LPBX1, PROF_edge_counter.12
 2557      00
 2558 20b2 8B152402 		movl	LPBX1+388, %edx	 # *LPBX1, PROF_edge_counter.12
 2558      0000
 2559 20b8 83C001   		addl	$1, %eax	 #, PROF_edge_counter.12
 2560 20bb 83D200   		adcl	$0, %edx	 #, PROF_edge_counter.12
 2561 20be A3200200 		movl	%eax, LPBX1+384	 # PROF_edge_counter.12, *LPBX1
 2561      00
 2562 20c3 89152402 		movl	%edx, LPBX1+388	 # PROF_edge_counter.12, *LPBX1
 2562      0000
 2563              		.loc 1 596 0
 2564 20c9 83C41C   		addl	$28, %esp	 #,
 2565              	LCFI41:
 2566              		.cfi_def_cfa_offset 4
 2567 20cc C3       		ret
 2568              		.cfi_endproc
 2569              	LFE20:
 2570              		.section .rdata,"dr"
 2571              	LC19:
 2572 027c 206C6F63 		.ascii " lock+unlock/S\0"
 2572      6B2B756E 
 2572      6C6F636B 
 2572      2F5300
 2573              		.text
 2574              		.def	_bmk12_execute;	.scl	3;	.type	32;	.endef
 2575              	_bmk12_execute:
 2576              	LFB21:
GAS LISTING C:\cygwin\tmp\ccZXqjbs.s 			page 67


 2577              		.loc 1 598 0
 2578              		.cfi_startproc
 2579 20cd 83EC2C   		subl	$44, %esp	 #,
 2580              	LCFI42:
 2581              		.cfi_def_cfa_offset 48
 2582              		.loc 1 598 0
 2583 20d0 A1980100 		movl	LPBX1+248, %eax	 # *LPBX1, PROF_edge_counter.11
 2583      00
 2584 20d5 8B159C01 		movl	LPBX1+252, %edx	 # *LPBX1, PROF_edge_counter.11
 2584      0000
 2585 20db 83C001   		addl	$1, %eax	 #, PROF_edge_counter.11
 2586 20de 83D200   		adcl	$0, %edx	 #, PROF_edge_counter.11
 2587 20e1 A3980100 		movl	%eax, LPBX1+248	 # PROF_edge_counter.11, *LPBX1
 2587      00
 2588 20e6 89159C01 		movl	%edx, LPBX1+252	 # PROF_edge_counter.11, *LPBX1
 2588      0000
 2589              		.loc 1 599 0
 2590 20ec C744241C 		movl	$0, 28(%esp)	 #, n
 2590      00000000 
 2591              		.loc 1 601 0
 2592 20f4 E8000000 		call	_test_wait_tick	 #
 2592      00
 2593 20f9 A1A00100 		movl	LPBX1+256, %eax	 # *LPBX1, PROF_edge_counter.11
 2593      00
 2594 20fe 8B15A401 		movl	LPBX1+260, %edx	 # *LPBX1, PROF_edge_counter.11
 2594      0000
 2595 2104 83C001   		addl	$1, %eax	 #, PROF_edge_counter.11
 2596 2107 83D200   		adcl	$0, %edx	 #, PROF_edge_counter.11
 2597 210a A3A00100 		movl	%eax, LPBX1+256	 # PROF_edge_counter.11, *LPBX1
 2597      00
 2598 210f 8915A401 		movl	%edx, LPBX1+260	 # PROF_edge_counter.11, *LPBX1
 2598      0000
 2599              		.loc 1 602 0
 2600 2115 C70424E8 		movl	$1000, (%esp)	 #,
 2600      030000
 2601 211c E8000000 		call	_test_start_timer	 #
 2601      00
 2602 2121 A1A80100 		movl	LPBX1+264, %eax	 # *LPBX1, PROF_edge_counter.11
 2602      00
 2603 2126 8B15AC01 		movl	LPBX1+268, %edx	 # *LPBX1, PROF_edge_counter.11
 2603      0000
 2604 212c 83C001   		addl	$1, %eax	 #, PROF_edge_counter.11
 2605 212f 83D200   		adcl	$0, %edx	 #, PROF_edge_counter.11
 2606 2132 A3A80100 		movl	%eax, LPBX1+264	 # PROF_edge_counter.11, *LPBX1
 2606      00
 2607 2137 8915AC01 		movl	%edx, LPBX1+268	 # PROF_edge_counter.11, *LPBX1
 2607      0000
 2608              	L36:
 2609              		.loc 1 604 0 discriminator 1
 2610 213d C704240C 		movl	$_mtx1, (%esp)	 #,
 2610      000000
 2611 2144 E8000000 		call	_chMtxLock	 #
 2611      00
 2612 2149 A1B00100 		movl	LPBX1+272, %eax	 # *LPBX1, PROF_edge_counter.11
 2612      00
 2613 214e 8B15B401 		movl	LPBX1+276, %edx	 # *LPBX1, PROF_edge_counter.11
 2613      0000
GAS LISTING C:\cygwin\tmp\ccZXqjbs.s 			page 68


 2614 2154 83C001   		addl	$1, %eax	 #, PROF_edge_counter.11
 2615 2157 83D200   		adcl	$0, %edx	 #, PROF_edge_counter.11
 2616 215a A3B00100 		movl	%eax, LPBX1+272	 # PROF_edge_counter.11, *LPBX1
 2616      00
 2617 215f 8915B401 		movl	%edx, LPBX1+276	 # PROF_edge_counter.11, *LPBX1
 2617      0000
 2618              		.loc 1 605 0 discriminator 1
 2619 2165 E8000000 		call	_chMtxUnlock	 #
 2619      00
 2620 216a A1B80100 		movl	LPBX1+280, %eax	 # *LPBX1, PROF_edge_counter.11
 2620      00
 2621 216f 8B15BC01 		movl	LPBX1+284, %edx	 # *LPBX1, PROF_edge_counter.11
 2621      0000
 2622 2175 83C001   		addl	$1, %eax	 #, PROF_edge_counter.11
 2623 2178 83D200   		adcl	$0, %edx	 #, PROF_edge_counter.11
 2624 217b A3B80100 		movl	%eax, LPBX1+280	 # PROF_edge_counter.11, *LPBX1
 2624      00
 2625 2180 8915BC01 		movl	%edx, LPBX1+284	 # PROF_edge_counter.11, *LPBX1
 2625      0000
 2626              		.loc 1 606 0 discriminator 1
 2627 2186 C704240C 		movl	$_mtx1, (%esp)	 #,
 2627      000000
 2628 218d E8000000 		call	_chMtxLock	 #
 2628      00
 2629 2192 A1C00100 		movl	LPBX1+288, %eax	 # *LPBX1, PROF_edge_counter.11
 2629      00
 2630 2197 8B15C401 		movl	LPBX1+292, %edx	 # *LPBX1, PROF_edge_counter.11
 2630      0000
 2631 219d 83C001   		addl	$1, %eax	 #, PROF_edge_counter.11
 2632 21a0 83D200   		adcl	$0, %edx	 #, PROF_edge_counter.11
 2633 21a3 A3C00100 		movl	%eax, LPBX1+288	 # PROF_edge_counter.11, *LPBX1
 2633      00
 2634 21a8 8915C401 		movl	%edx, LPBX1+292	 # PROF_edge_counter.11, *LPBX1
 2634      0000
 2635              		.loc 1 607 0 discriminator 1
 2636 21ae E8000000 		call	_chMtxUnlock	 #
 2636      00
 2637 21b3 A1C80100 		movl	LPBX1+296, %eax	 # *LPBX1, PROF_edge_counter.11
 2637      00
 2638 21b8 8B15CC01 		movl	LPBX1+300, %edx	 # *LPBX1, PROF_edge_counter.11
 2638      0000
 2639 21be 83C001   		addl	$1, %eax	 #, PROF_edge_counter.11
 2640 21c1 83D200   		adcl	$0, %edx	 #, PROF_edge_counter.11
 2641 21c4 A3C80100 		movl	%eax, LPBX1+296	 # PROF_edge_counter.11, *LPBX1
 2641      00
 2642 21c9 8915CC01 		movl	%edx, LPBX1+300	 # PROF_edge_counter.11, *LPBX1
 2642      0000
 2643              		.loc 1 608 0 discriminator 1
 2644 21cf C704240C 		movl	$_mtx1, (%esp)	 #,
 2644      000000
 2645 21d6 E8000000 		call	_chMtxLock	 #
 2645      00
 2646 21db A1D00100 		movl	LPBX1+304, %eax	 # *LPBX1, PROF_edge_counter.11
 2646      00
 2647 21e0 8B15D401 		movl	LPBX1+308, %edx	 # *LPBX1, PROF_edge_counter.11
 2647      0000
 2648 21e6 83C001   		addl	$1, %eax	 #, PROF_edge_counter.11
GAS LISTING C:\cygwin\tmp\ccZXqjbs.s 			page 69


 2649 21e9 83D200   		adcl	$0, %edx	 #, PROF_edge_counter.11
 2650 21ec A3D00100 		movl	%eax, LPBX1+304	 # PROF_edge_counter.11, *LPBX1
 2650      00
 2651 21f1 8915D401 		movl	%edx, LPBX1+308	 # PROF_edge_counter.11, *LPBX1
 2651      0000
 2652              		.loc 1 609 0 discriminator 1
 2653 21f7 E8000000 		call	_chMtxUnlock	 #
 2653      00
 2654 21fc A1D80100 		movl	LPBX1+312, %eax	 # *LPBX1, PROF_edge_counter.11
 2654      00
 2655 2201 8B15DC01 		movl	LPBX1+316, %edx	 # *LPBX1, PROF_edge_counter.11
 2655      0000
 2656 2207 83C001   		addl	$1, %eax	 #, PROF_edge_counter.11
 2657 220a 83D200   		adcl	$0, %edx	 #, PROF_edge_counter.11
 2658 220d A3D80100 		movl	%eax, LPBX1+312	 # PROF_edge_counter.11, *LPBX1
 2658      00
 2659 2212 8915DC01 		movl	%edx, LPBX1+316	 # PROF_edge_counter.11, *LPBX1
 2659      0000
 2660              		.loc 1 610 0 discriminator 1
 2661 2218 C704240C 		movl	$_mtx1, (%esp)	 #,
 2661      000000
 2662 221f E8000000 		call	_chMtxLock	 #
 2662      00
 2663 2224 A1E00100 		movl	LPBX1+320, %eax	 # *LPBX1, PROF_edge_counter.11
 2663      00
 2664 2229 8B15E401 		movl	LPBX1+324, %edx	 # *LPBX1, PROF_edge_counter.11
 2664      0000
 2665 222f 83C001   		addl	$1, %eax	 #, PROF_edge_counter.11
 2666 2232 83D200   		adcl	$0, %edx	 #, PROF_edge_counter.11
 2667 2235 A3E00100 		movl	%eax, LPBX1+320	 # PROF_edge_counter.11, *LPBX1
 2667      00
 2668 223a 8915E401 		movl	%edx, LPBX1+324	 # PROF_edge_counter.11, *LPBX1
 2668      0000
 2669              		.loc 1 611 0 discriminator 1
 2670 2240 E8000000 		call	_chMtxUnlock	 #
 2670      00
 2671 2245 A1E80100 		movl	LPBX1+328, %eax	 # *LPBX1, PROF_edge_counter.11
 2671      00
 2672 224a 8B15EC01 		movl	LPBX1+332, %edx	 # *LPBX1, PROF_edge_counter.11
 2672      0000
 2673 2250 83C001   		addl	$1, %eax	 #, PROF_edge_counter.11
 2674 2253 83D200   		adcl	$0, %edx	 #, PROF_edge_counter.11
 2675 2256 A3E80100 		movl	%eax, LPBX1+328	 # PROF_edge_counter.11, *LPBX1
 2675      00
 2676 225b 8915EC01 		movl	%edx, LPBX1+332	 # PROF_edge_counter.11, *LPBX1
 2676      0000
 2677              		.loc 1 612 0 discriminator 1
 2678 2261 FF44241C 		incl	28(%esp)	 # n
 2679              		.loc 1 614 0 discriminator 1
 2680 2265 E8000000 		call	_ChkIntSources	 #
 2680      00
 2681 226a A1F00100 		movl	LPBX1+336, %eax	 # *LPBX1, PROF_edge_counter.11
 2681      00
 2682 226f 8B15F401 		movl	LPBX1+340, %edx	 # *LPBX1, PROF_edge_counter.11
 2682      0000
 2683 2275 83C001   		addl	$1, %eax	 #, PROF_edge_counter.11
 2684 2278 83D200   		adcl	$0, %edx	 #, PROF_edge_counter.11
GAS LISTING C:\cygwin\tmp\ccZXqjbs.s 			page 70


 2685 227b A3F00100 		movl	%eax, LPBX1+336	 # PROF_edge_counter.11, *LPBX1
 2685      00
 2686 2280 8915F401 		movl	%edx, LPBX1+340	 # PROF_edge_counter.11, *LPBX1
 2686      0000
 2687              		.loc 1 616 0 discriminator 1
 2688 2286 A0000000 		movb	_test_timer_done, %al	 # test_timer_done, test_timer_done.0
 2688      00
 2689 228b 83F001   		xorl	$1, %eax	 #, D.2941
 2690 228e 84C0     		testb	%al, %al	 # D.2941
 2691 2290 0F85A7FE 		jne	L36	 #,
 2691      FFFF
 2692              		.loc 1 616 0 is_stmt 0
 2693 2296 A1F80100 		movl	LPBX1+344, %eax	 # *LPBX1, PROF_edge_counter.11
 2693      00
 2694 229b 8B15FC01 		movl	LPBX1+348, %edx	 # *LPBX1, PROF_edge_counter.11
 2694      0000
 2695 22a1 83C001   		addl	$1, %eax	 #, PROF_edge_counter.11
 2696 22a4 83D200   		adcl	$0, %edx	 #, PROF_edge_counter.11
 2697 22a7 A3F80100 		movl	%eax, LPBX1+344	 # PROF_edge_counter.11, *LPBX1
 2697      00
 2698 22ac 8915FC01 		movl	%edx, LPBX1+348	 # PROF_edge_counter.11, *LPBX1
 2698      0000
 2699              		.loc 1 617 0 is_stmt 1
 2700 22b2 C7042400 		movl	$LC0, (%esp)	 #,
 2700      000000
 2701 22b9 E8000000 		call	_test_print	 #
 2701      00
 2702 22be A1000200 		movl	LPBX1+352, %eax	 # *LPBX1, PROF_edge_counter.11
 2702      00
 2703 22c3 8B150402 		movl	LPBX1+356, %edx	 # *LPBX1, PROF_edge_counter.11
 2703      0000
 2704 22c9 83C001   		addl	$1, %eax	 #, PROF_edge_counter.11
 2705 22cc 83D200   		adcl	$0, %edx	 #, PROF_edge_counter.11
 2706 22cf A3000200 		movl	%eax, LPBX1+352	 # PROF_edge_counter.11, *LPBX1
 2706      00
 2707 22d4 89150402 		movl	%edx, LPBX1+356	 # PROF_edge_counter.11, *LPBX1
 2707      0000
 2708              		.loc 1 618 0
 2709 22da 8B44241C 		movl	28(%esp), %eax	 # n, tmp94
 2710 22de C1E002   		sall	$2, %eax	 #, D.2942
 2711 22e1 890424   		movl	%eax, (%esp)	 # D.2942,
 2712 22e4 E8000000 		call	_test_printn	 #
 2712      00
 2713 22e9 A1080200 		movl	LPBX1+360, %eax	 # *LPBX1, PROF_edge_counter.11
 2713      00
 2714 22ee 8B150C02 		movl	LPBX1+364, %edx	 # *LPBX1, PROF_edge_counter.11
 2714      0000
 2715 22f4 83C001   		addl	$1, %eax	 #, PROF_edge_counter.11
 2716 22f7 83D200   		adcl	$0, %edx	 #, PROF_edge_counter.11
 2717 22fa A3080200 		movl	%eax, LPBX1+360	 # PROF_edge_counter.11, *LPBX1
 2717      00
 2718 22ff 89150C02 		movl	%edx, LPBX1+364	 # PROF_edge_counter.11, *LPBX1
 2718      0000
 2719              		.loc 1 619 0
 2720 2305 C704247C 		movl	$LC19, (%esp)	 #,
 2720      020000
 2721 230c E8000000 		call	_test_println	 #
GAS LISTING C:\cygwin\tmp\ccZXqjbs.s 			page 71


 2721      00
 2722 2311 A1100200 		movl	LPBX1+368, %eax	 # *LPBX1, PROF_edge_counter.11
 2722      00
 2723 2316 8B151402 		movl	LPBX1+372, %edx	 # *LPBX1, PROF_edge_counter.11
 2723      0000
 2724 231c 83C001   		addl	$1, %eax	 #, PROF_edge_counter.11
 2725 231f 83D200   		adcl	$0, %edx	 #, PROF_edge_counter.11
 2726 2322 A3100200 		movl	%eax, LPBX1+368	 # PROF_edge_counter.11, *LPBX1
 2726      00
 2727 2327 89151402 		movl	%edx, LPBX1+372	 # PROF_edge_counter.11, *LPBX1
 2727      0000
 2728              		.loc 1 620 0
 2729 232d 83C42C   		addl	$44, %esp	 #,
 2730              	LCFI43:
 2731              		.cfi_def_cfa_offset 4
 2732 2330 C3       		ret
 2733              		.cfi_endproc
 2734              	LFE21:
 2735              		.globl	_testbmk12
 2736              		.section .rdata,"dr"
 2737 028b 00       		.align 4
 2738              	LC20:
 2739 028c 42656E63 		.ascii "Benchmark, mutexes lock/unlock\0"
 2739      686D6172 
 2739      6B2C206D 
 2739      75746578 
 2739      6573206C 
 2740 02ab 00       		.align 4
 2741              	_testbmk12:
 2742              	 # name:
 2743 02ac 8C020000 		.long	LC20
 2744              	 # setup:
 2745 02b0 82200000 		.long	_bmk12_setup
 2746              	 # teardown:
 2747 02b4 00000000 		.long	0
 2748              	 # execute:
 2749 02b8 CD200000 		.long	_bmk12_execute
 2750              	LC21:
 2751 02bc 2D2D2D20 		.ascii "--- System: \0"
 2751      53797374 
 2751      656D3A20 
 2751      00
 2752              	LC22:
 2753 02c9 20627974 		.ascii " bytes\0"
 2753      657300
 2754              	LC23:
 2755 02d0 2D2D2D20 		.ascii "--- Thread: \0"
 2755      54687265 
 2755      61643A20 
 2755      00
 2756              	LC24:
 2757 02dd 2D2D2D20 		.ascii "--- Timer : \0"
 2757      54696D65 
 2757      72203A20 
 2757      00
 2758              	LC25:
 2759 02ea 2D2D2D20 		.ascii "--- Semaph: \0"
GAS LISTING C:\cygwin\tmp\ccZXqjbs.s 			page 72


 2759      53656D61 
 2759      70683A20 
 2759      00
 2760              	LC26:
 2761 02f7 2D2D2D20 		.ascii "--- EventS: \0"
 2761      4576656E 
 2761      74533A20 
 2761      00
 2762              	LC27:
 2763 0304 2D2D2D20 		.ascii "--- EventL: \0"
 2763      4576656E 
 2763      744C3A20 
 2763      00
 2764              	LC28:
 2765 0311 2D2D2D20 		.ascii "--- Mutex : \0"
 2765      4D757465 
 2765      78203A20 
 2765      00
 2766              	LC29:
 2767 031e 2D2D2D20 		.ascii "--- CondV.: \0"
 2767      436F6E64 
 2767      562E3A20 
 2767      00
 2768              	LC30:
 2769 032b 2D2D2D20 		.ascii "--- Queue : \0"
 2769      51756575 
 2769      65203A20 
 2769      00
 2770              	LC31:
 2771 0338 2D2D2D20 		.ascii "--- MailB.: \0"
 2771      4D61696C 
 2771      422E3A20 
 2771      00
 2772              		.text
 2773              		.def	_bmk13_execute;	.scl	3;	.type	32;	.endef
 2774              	_bmk13_execute:
 2775              	LFB22:
 2776              		.loc 1 637 0
 2777              		.cfi_startproc
 2778 2331 83EC1C   		subl	$28, %esp	 #,
 2779              	LCFI44:
 2780              		.cfi_def_cfa_offset 32
 2781              		.loc 1 637 0
 2782 2334 A1A00000 		movl	LPBX1, %eax	 # *LPBX1, PROF_edge_counter.10
 2782      00
 2783 2339 8B15A400 		movl	LPBX1+4, %edx	 # *LPBX1, PROF_edge_counter.10
 2783      0000
 2784 233f 83C001   		addl	$1, %eax	 #, PROF_edge_counter.10
 2785 2342 83D200   		adcl	$0, %edx	 #, PROF_edge_counter.10
 2786 2345 A3A00000 		movl	%eax, LPBX1	 # PROF_edge_counter.10, *LPBX1
 2786      00
 2787 234a 8915A400 		movl	%edx, LPBX1+4	 # PROF_edge_counter.10, *LPBX1
 2787      0000
 2788              		.loc 1 639 0
 2789 2350 C70424BC 		movl	$LC21, (%esp)	 #,
 2789      020000
 2790 2357 E8000000 		call	_test_print	 #
GAS LISTING C:\cygwin\tmp\ccZXqjbs.s 			page 73


 2790      00
 2791 235c A1A80000 		movl	LPBX1+8, %eax	 # *LPBX1, PROF_edge_counter.10
 2791      00
 2792 2361 8B15AC00 		movl	LPBX1+12, %edx	 # *LPBX1, PROF_edge_counter.10
 2792      0000
 2793 2367 83C001   		addl	$1, %eax	 #, PROF_edge_counter.10
 2794 236a 83D200   		adcl	$0, %edx	 #, PROF_edge_counter.10
 2795 236d A3A80000 		movl	%eax, LPBX1+8	 # PROF_edge_counter.10, *LPBX1
 2795      00
 2796 2372 8915AC00 		movl	%edx, LPBX1+12	 # PROF_edge_counter.10, *LPBX1
 2796      0000
 2797              		.loc 1 640 0
 2798 2378 C70424E4 		movl	$33252, (%esp)	 #,
 2798      810000
 2799 237f E8000000 		call	_test_printn	 #
 2799      00
 2800 2384 A1B00000 		movl	LPBX1+16, %eax	 # *LPBX1, PROF_edge_counter.10
 2800      00
 2801 2389 8B15B400 		movl	LPBX1+20, %edx	 # *LPBX1, PROF_edge_counter.10
 2801      0000
 2802 238f 83C001   		addl	$1, %eax	 #, PROF_edge_counter.10
 2803 2392 83D200   		adcl	$0, %edx	 #, PROF_edge_counter.10
 2804 2395 A3B00000 		movl	%eax, LPBX1+16	 # PROF_edge_counter.10, *LPBX1
 2804      00
 2805 239a 8915B400 		movl	%edx, LPBX1+20	 # PROF_edge_counter.10, *LPBX1
 2805      0000
 2806              		.loc 1 645 0
 2807 23a0 C70424C9 		movl	$LC22, (%esp)	 #,
 2807      020000
 2808 23a7 E8000000 		call	_test_println	 #
 2808      00
 2809 23ac A1B80000 		movl	LPBX1+24, %eax	 # *LPBX1, PROF_edge_counter.10
 2809      00
 2810 23b1 8B15BC00 		movl	LPBX1+28, %edx	 # *LPBX1, PROF_edge_counter.10
 2810      0000
 2811 23b7 83C001   		addl	$1, %eax	 #, PROF_edge_counter.10
 2812 23ba 83D200   		adcl	$0, %edx	 #, PROF_edge_counter.10
 2813 23bd A3B80000 		movl	%eax, LPBX1+24	 # PROF_edge_counter.10, *LPBX1
 2813      00
 2814 23c2 8915BC00 		movl	%edx, LPBX1+28	 # PROF_edge_counter.10, *LPBX1
 2814      0000
 2815              		.loc 1 646 0
 2816 23c8 C70424D0 		movl	$LC23, (%esp)	 #,
 2816      020000
 2817 23cf E8000000 		call	_test_print	 #
 2817      00
 2818 23d4 A1C00000 		movl	LPBX1+32, %eax	 # *LPBX1, PROF_edge_counter.10
 2818      00
 2819 23d9 8B15C400 		movl	LPBX1+36, %edx	 # *LPBX1, PROF_edge_counter.10
 2819      0000
 2820 23df 83C001   		addl	$1, %eax	 #, PROF_edge_counter.10
 2821 23e2 83D200   		adcl	$0, %edx	 #, PROF_edge_counter.10
 2822 23e5 A3C00000 		movl	%eax, LPBX1+32	 # PROF_edge_counter.10, *LPBX1
 2822      00
 2823 23ea 8915C400 		movl	%edx, LPBX1+36	 # PROF_edge_counter.10, *LPBX1
 2823      0000
 2824              		.loc 1 647 0
GAS LISTING C:\cygwin\tmp\ccZXqjbs.s 			page 74


 2825 23f0 C7042448 		movl	$72, (%esp)	 #,
 2825      000000
 2826 23f7 E8000000 		call	_test_printn	 #
 2826      00
 2827 23fc A1C80000 		movl	LPBX1+40, %eax	 # *LPBX1, PROF_edge_counter.10
 2827      00
 2828 2401 8B15CC00 		movl	LPBX1+44, %edx	 # *LPBX1, PROF_edge_counter.10
 2828      0000
 2829 2407 83C001   		addl	$1, %eax	 #, PROF_edge_counter.10
 2830 240a 83D200   		adcl	$0, %edx	 #, PROF_edge_counter.10
 2831 240d A3C80000 		movl	%eax, LPBX1+40	 # PROF_edge_counter.10, *LPBX1
 2831      00
 2832 2412 8915CC00 		movl	%edx, LPBX1+44	 # PROF_edge_counter.10, *LPBX1
 2832      0000
 2833              		.loc 1 648 0
 2834 2418 C70424C9 		movl	$LC22, (%esp)	 #,
 2834      020000
 2835 241f E8000000 		call	_test_println	 #
 2835      00
 2836 2424 A1D00000 		movl	LPBX1+48, %eax	 # *LPBX1, PROF_edge_counter.10
 2836      00
 2837 2429 8B15D400 		movl	LPBX1+52, %edx	 # *LPBX1, PROF_edge_counter.10
 2837      0000
 2838 242f 83C001   		addl	$1, %eax	 #, PROF_edge_counter.10
 2839 2432 83D200   		adcl	$0, %edx	 #, PROF_edge_counter.10
 2840 2435 A3D00000 		movl	%eax, LPBX1+48	 # PROF_edge_counter.10, *LPBX1
 2840      00
 2841 243a 8915D400 		movl	%edx, LPBX1+52	 # PROF_edge_counter.10, *LPBX1
 2841      0000
 2842              		.loc 1 649 0
 2843 2440 C70424DD 		movl	$LC24, (%esp)	 #,
 2843      020000
 2844 2447 E8000000 		call	_test_print	 #
 2844      00
 2845 244c A1D80000 		movl	LPBX1+56, %eax	 # *LPBX1, PROF_edge_counter.10
 2845      00
 2846 2451 8B15DC00 		movl	LPBX1+60, %edx	 # *LPBX1, PROF_edge_counter.10
 2846      0000
 2847 2457 83C001   		addl	$1, %eax	 #, PROF_edge_counter.10
 2848 245a 83D200   		adcl	$0, %edx	 #, PROF_edge_counter.10
 2849 245d A3D80000 		movl	%eax, LPBX1+56	 # PROF_edge_counter.10, *LPBX1
 2849      00
 2850 2462 8915DC00 		movl	%edx, LPBX1+60	 # PROF_edge_counter.10, *LPBX1
 2850      0000
 2851              		.loc 1 650 0
 2852 2468 C7042414 		movl	$20, (%esp)	 #,
 2852      000000
 2853 246f E8000000 		call	_test_printn	 #
 2853      00
 2854 2474 A1E00000 		movl	LPBX1+64, %eax	 # *LPBX1, PROF_edge_counter.10
 2854      00
 2855 2479 8B15E400 		movl	LPBX1+68, %edx	 # *LPBX1, PROF_edge_counter.10
 2855      0000
 2856 247f 83C001   		addl	$1, %eax	 #, PROF_edge_counter.10
 2857 2482 83D200   		adcl	$0, %edx	 #, PROF_edge_counter.10
 2858 2485 A3E00000 		movl	%eax, LPBX1+64	 # PROF_edge_counter.10, *LPBX1
 2858      00
GAS LISTING C:\cygwin\tmp\ccZXqjbs.s 			page 75


 2859 248a 8915E400 		movl	%edx, LPBX1+68	 # PROF_edge_counter.10, *LPBX1
 2859      0000
 2860              		.loc 1 651 0
 2861 2490 C70424C9 		movl	$LC22, (%esp)	 #,
 2861      020000
 2862 2497 E8000000 		call	_test_println	 #
 2862      00
 2863 249c A1E80000 		movl	LPBX1+72, %eax	 # *LPBX1, PROF_edge_counter.10
 2863      00
 2864 24a1 8B15EC00 		movl	LPBX1+76, %edx	 # *LPBX1, PROF_edge_counter.10
 2864      0000
 2865 24a7 83C001   		addl	$1, %eax	 #, PROF_edge_counter.10
 2866 24aa 83D200   		adcl	$0, %edx	 #, PROF_edge_counter.10
 2867 24ad A3E80000 		movl	%eax, LPBX1+72	 # PROF_edge_counter.10, *LPBX1
 2867      00
 2868 24b2 8915EC00 		movl	%edx, LPBX1+76	 # PROF_edge_counter.10, *LPBX1
 2868      0000
 2869              		.loc 1 652 0
 2870 24b8 C70424EA 		movl	$LC25, (%esp)	 #,
 2870      020000
 2871 24bf E8000000 		call	_test_print	 #
 2871      00
 2872 24c4 A1F00000 		movl	LPBX1+80, %eax	 # *LPBX1, PROF_edge_counter.10
 2872      00
 2873 24c9 8B15F400 		movl	LPBX1+84, %edx	 # *LPBX1, PROF_edge_counter.10
 2873      0000
 2874 24cf 83C001   		addl	$1, %eax	 #, PROF_edge_counter.10
 2875 24d2 83D200   		adcl	$0, %edx	 #, PROF_edge_counter.10
 2876 24d5 A3F00000 		movl	%eax, LPBX1+80	 # PROF_edge_counter.10, *LPBX1
 2876      00
 2877 24da 8915F400 		movl	%edx, LPBX1+84	 # PROF_edge_counter.10, *LPBX1
 2877      0000
 2878              		.loc 1 653 0
 2879 24e0 C704240C 		movl	$12, (%esp)	 #,
 2879      000000
 2880 24e7 E8000000 		call	_test_printn	 #
 2880      00
 2881 24ec A1F80000 		movl	LPBX1+88, %eax	 # *LPBX1, PROF_edge_counter.10
 2881      00
 2882 24f1 8B15FC00 		movl	LPBX1+92, %edx	 # *LPBX1, PROF_edge_counter.10
 2882      0000
 2883 24f7 83C001   		addl	$1, %eax	 #, PROF_edge_counter.10
 2884 24fa 83D200   		adcl	$0, %edx	 #, PROF_edge_counter.10
 2885 24fd A3F80000 		movl	%eax, LPBX1+88	 # PROF_edge_counter.10, *LPBX1
 2885      00
 2886 2502 8915FC00 		movl	%edx, LPBX1+92	 # PROF_edge_counter.10, *LPBX1
 2886      0000
 2887              		.loc 1 654 0
 2888 2508 C70424C9 		movl	$LC22, (%esp)	 #,
 2888      020000
 2889 250f E8000000 		call	_test_println	 #
 2889      00
 2890 2514 A1000100 		movl	LPBX1+96, %eax	 # *LPBX1, PROF_edge_counter.10
 2890      00
 2891 2519 8B150401 		movl	LPBX1+100, %edx	 # *LPBX1, PROF_edge_counter.10
 2891      0000
 2892 251f 83C001   		addl	$1, %eax	 #, PROF_edge_counter.10
GAS LISTING C:\cygwin\tmp\ccZXqjbs.s 			page 76


 2893 2522 83D200   		adcl	$0, %edx	 #, PROF_edge_counter.10
 2894 2525 A3000100 		movl	%eax, LPBX1+96	 # PROF_edge_counter.10, *LPBX1
 2894      00
 2895 252a 89150401 		movl	%edx, LPBX1+100	 # PROF_edge_counter.10, *LPBX1
 2895      0000
 2896              		.loc 1 656 0
 2897 2530 C70424F7 		movl	$LC26, (%esp)	 #,
 2897      020000
 2898 2537 E8000000 		call	_test_print	 #
 2898      00
 2899 253c A1080100 		movl	LPBX1+104, %eax	 # *LPBX1, PROF_edge_counter.10
 2899      00
 2900 2541 8B150C01 		movl	LPBX1+108, %edx	 # *LPBX1, PROF_edge_counter.10
 2900      0000
 2901 2547 83C001   		addl	$1, %eax	 #, PROF_edge_counter.10
 2902 254a 83D200   		adcl	$0, %edx	 #, PROF_edge_counter.10
 2903 254d A3080100 		movl	%eax, LPBX1+104	 # PROF_edge_counter.10, *LPBX1
 2903      00
 2904 2552 89150C01 		movl	%edx, LPBX1+108	 # PROF_edge_counter.10, *LPBX1
 2904      0000
 2905              		.loc 1 657 0
 2906 2558 C7042404 		movl	$4, (%esp)	 #,
 2906      000000
 2907 255f E8000000 		call	_test_printn	 #
 2907      00
 2908 2564 A1100100 		movl	LPBX1+112, %eax	 # *LPBX1, PROF_edge_counter.10
 2908      00
 2909 2569 8B151401 		movl	LPBX1+116, %edx	 # *LPBX1, PROF_edge_counter.10
 2909      0000
 2910 256f 83C001   		addl	$1, %eax	 #, PROF_edge_counter.10
 2911 2572 83D200   		adcl	$0, %edx	 #, PROF_edge_counter.10
 2912 2575 A3100100 		movl	%eax, LPBX1+112	 # PROF_edge_counter.10, *LPBX1
 2912      00
 2913 257a 89151401 		movl	%edx, LPBX1+116	 # PROF_edge_counter.10, *LPBX1
 2913      0000
 2914              		.loc 1 658 0
 2915 2580 C70424C9 		movl	$LC22, (%esp)	 #,
 2915      020000
 2916 2587 E8000000 		call	_test_println	 #
 2916      00
 2917 258c A1180100 		movl	LPBX1+120, %eax	 # *LPBX1, PROF_edge_counter.10
 2917      00
 2918 2591 8B151C01 		movl	LPBX1+124, %edx	 # *LPBX1, PROF_edge_counter.10
 2918      0000
 2919 2597 83C001   		addl	$1, %eax	 #, PROF_edge_counter.10
 2920 259a 83D200   		adcl	$0, %edx	 #, PROF_edge_counter.10
 2921 259d A3180100 		movl	%eax, LPBX1+120	 # PROF_edge_counter.10, *LPBX1
 2921      00
 2922 25a2 89151C01 		movl	%edx, LPBX1+124	 # PROF_edge_counter.10, *LPBX1
 2922      0000
 2923              		.loc 1 659 0
 2924 25a8 C7042404 		movl	$LC27, (%esp)	 #,
 2924      030000
 2925 25af E8000000 		call	_test_print	 #
 2925      00
 2926 25b4 A1200100 		movl	LPBX1+128, %eax	 # *LPBX1, PROF_edge_counter.10
 2926      00
GAS LISTING C:\cygwin\tmp\ccZXqjbs.s 			page 77


 2927 25b9 8B152401 		movl	LPBX1+132, %edx	 # *LPBX1, PROF_edge_counter.10
 2927      0000
 2928 25bf 83C001   		addl	$1, %eax	 #, PROF_edge_counter.10
 2929 25c2 83D200   		adcl	$0, %edx	 #, PROF_edge_counter.10
 2930 25c5 A3200100 		movl	%eax, LPBX1+128	 # PROF_edge_counter.10, *LPBX1
 2930      00
 2931 25ca 89152401 		movl	%edx, LPBX1+132	 # PROF_edge_counter.10, *LPBX1
 2931      0000
 2932              		.loc 1 660 0
 2933 25d0 C7042410 		movl	$16, (%esp)	 #,
 2933      000000
 2934 25d7 E8000000 		call	_test_printn	 #
 2934      00
 2935 25dc A1280100 		movl	LPBX1+136, %eax	 # *LPBX1, PROF_edge_counter.10
 2935      00
 2936 25e1 8B152C01 		movl	LPBX1+140, %edx	 # *LPBX1, PROF_edge_counter.10
 2936      0000
 2937 25e7 83C001   		addl	$1, %eax	 #, PROF_edge_counter.10
 2938 25ea 83D200   		adcl	$0, %edx	 #, PROF_edge_counter.10
 2939 25ed A3280100 		movl	%eax, LPBX1+136	 # PROF_edge_counter.10, *LPBX1
 2939      00
 2940 25f2 89152C01 		movl	%edx, LPBX1+140	 # PROF_edge_counter.10, *LPBX1
 2940      0000
 2941              		.loc 1 661 0
 2942 25f8 C70424C9 		movl	$LC22, (%esp)	 #,
 2942      020000
 2943 25ff E8000000 		call	_test_println	 #
 2943      00
 2944 2604 A1300100 		movl	LPBX1+144, %eax	 # *LPBX1, PROF_edge_counter.10
 2944      00
 2945 2609 8B153401 		movl	LPBX1+148, %edx	 # *LPBX1, PROF_edge_counter.10
 2945      0000
 2946 260f 83C001   		addl	$1, %eax	 #, PROF_edge_counter.10
 2947 2612 83D200   		adcl	$0, %edx	 #, PROF_edge_counter.10
 2948 2615 A3300100 		movl	%eax, LPBX1+144	 # PROF_edge_counter.10, *LPBX1
 2948      00
 2949 261a 89153401 		movl	%edx, LPBX1+148	 # PROF_edge_counter.10, *LPBX1
 2949      0000
 2950              		.loc 1 664 0
 2951 2620 C7042411 		movl	$LC28, (%esp)	 #,
 2951      030000
 2952 2627 E8000000 		call	_test_print	 #
 2952      00
 2953 262c A1380100 		movl	LPBX1+152, %eax	 # *LPBX1, PROF_edge_counter.10
 2953      00
 2954 2631 8B153C01 		movl	LPBX1+156, %edx	 # *LPBX1, PROF_edge_counter.10
 2954      0000
 2955 2637 83C001   		addl	$1, %eax	 #, PROF_edge_counter.10
 2956 263a 83D200   		adcl	$0, %edx	 #, PROF_edge_counter.10
 2957 263d A3380100 		movl	%eax, LPBX1+152	 # PROF_edge_counter.10, *LPBX1
 2957      00
 2958 2642 89153C01 		movl	%edx, LPBX1+156	 # PROF_edge_counter.10, *LPBX1
 2958      0000
 2959              		.loc 1 665 0
 2960 2648 C7042410 		movl	$16, (%esp)	 #,
 2960      000000
 2961 264f E8000000 		call	_test_printn	 #
GAS LISTING C:\cygwin\tmp\ccZXqjbs.s 			page 78


 2961      00
 2962 2654 A1400100 		movl	LPBX1+160, %eax	 # *LPBX1, PROF_edge_counter.10
 2962      00
 2963 2659 8B154401 		movl	LPBX1+164, %edx	 # *LPBX1, PROF_edge_counter.10
 2963      0000
 2964 265f 83C001   		addl	$1, %eax	 #, PROF_edge_counter.10
 2965 2662 83D200   		adcl	$0, %edx	 #, PROF_edge_counter.10
 2966 2665 A3400100 		movl	%eax, LPBX1+160	 # PROF_edge_counter.10, *LPBX1
 2966      00
 2967 266a 89154401 		movl	%edx, LPBX1+164	 # PROF_edge_counter.10, *LPBX1
 2967      0000
 2968              		.loc 1 666 0
 2969 2670 C70424C9 		movl	$LC22, (%esp)	 #,
 2969      020000
 2970 2677 E8000000 		call	_test_println	 #
 2970      00
 2971 267c A1480100 		movl	LPBX1+168, %eax	 # *LPBX1, PROF_edge_counter.10
 2971      00
 2972 2681 8B154C01 		movl	LPBX1+172, %edx	 # *LPBX1, PROF_edge_counter.10
 2972      0000
 2973 2687 83C001   		addl	$1, %eax	 #, PROF_edge_counter.10
 2974 268a 83D200   		adcl	$0, %edx	 #, PROF_edge_counter.10
 2975 268d A3480100 		movl	%eax, LPBX1+168	 # PROF_edge_counter.10, *LPBX1
 2975      00
 2976 2692 89154C01 		movl	%edx, LPBX1+172	 # PROF_edge_counter.10, *LPBX1
 2976      0000
 2977              		.loc 1 669 0
 2978 2698 C704241E 		movl	$LC29, (%esp)	 #,
 2978      030000
 2979 269f E8000000 		call	_test_print	 #
 2979      00
 2980 26a4 A1500100 		movl	LPBX1+176, %eax	 # *LPBX1, PROF_edge_counter.10
 2980      00
 2981 26a9 8B155401 		movl	LPBX1+180, %edx	 # *LPBX1, PROF_edge_counter.10
 2981      0000
 2982 26af 83C001   		addl	$1, %eax	 #, PROF_edge_counter.10
 2983 26b2 83D200   		adcl	$0, %edx	 #, PROF_edge_counter.10
 2984 26b5 A3500100 		movl	%eax, LPBX1+176	 # PROF_edge_counter.10, *LPBX1
 2984      00
 2985 26ba 89155401 		movl	%edx, LPBX1+180	 # PROF_edge_counter.10, *LPBX1
 2985      0000
 2986              		.loc 1 670 0
 2987 26c0 C7042408 		movl	$8, (%esp)	 #,
 2987      000000
 2988 26c7 E8000000 		call	_test_printn	 #
 2988      00
 2989 26cc A1580100 		movl	LPBX1+184, %eax	 # *LPBX1, PROF_edge_counter.10
 2989      00
 2990 26d1 8B155C01 		movl	LPBX1+188, %edx	 # *LPBX1, PROF_edge_counter.10
 2990      0000
 2991 26d7 83C001   		addl	$1, %eax	 #, PROF_edge_counter.10
 2992 26da 83D200   		adcl	$0, %edx	 #, PROF_edge_counter.10
 2993 26dd A3580100 		movl	%eax, LPBX1+184	 # PROF_edge_counter.10, *LPBX1
 2993      00
 2994 26e2 89155C01 		movl	%edx, LPBX1+188	 # PROF_edge_counter.10, *LPBX1
 2994      0000
 2995              		.loc 1 671 0
GAS LISTING C:\cygwin\tmp\ccZXqjbs.s 			page 79


 2996 26e8 C70424C9 		movl	$LC22, (%esp)	 #,
 2996      020000
 2997 26ef E8000000 		call	_test_println	 #
 2997      00
 2998 26f4 A1600100 		movl	LPBX1+192, %eax	 # *LPBX1, PROF_edge_counter.10
 2998      00
 2999 26f9 8B156401 		movl	LPBX1+196, %edx	 # *LPBX1, PROF_edge_counter.10
 2999      0000
 3000 26ff 83C001   		addl	$1, %eax	 #, PROF_edge_counter.10
 3001 2702 83D200   		adcl	$0, %edx	 #, PROF_edge_counter.10
 3002 2705 A3600100 		movl	%eax, LPBX1+192	 # PROF_edge_counter.10, *LPBX1
 3002      00
 3003 270a 89156401 		movl	%edx, LPBX1+196	 # PROF_edge_counter.10, *LPBX1
 3003      0000
 3004              		.loc 1 674 0
 3005 2710 C704242B 		movl	$LC30, (%esp)	 #,
 3005      030000
 3006 2717 E8000000 		call	_test_print	 #
 3006      00
 3007 271c A1680100 		movl	LPBX1+200, %eax	 # *LPBX1, PROF_edge_counter.10
 3007      00
 3008 2721 8B156C01 		movl	LPBX1+204, %edx	 # *LPBX1, PROF_edge_counter.10
 3008      0000
 3009 2727 83C001   		addl	$1, %eax	 #, PROF_edge_counter.10
 3010 272a 83D200   		adcl	$0, %edx	 #, PROF_edge_counter.10
 3011 272d A3680100 		movl	%eax, LPBX1+200	 # PROF_edge_counter.10, *LPBX1
 3011      00
 3012 2732 89156C01 		movl	%edx, LPBX1+204	 # PROF_edge_counter.10, *LPBX1
 3012      0000
 3013              		.loc 1 675 0
 3014 2738 C7042424 		movl	$36, (%esp)	 #,
 3014      000000
 3015 273f E8000000 		call	_test_printn	 #
 3015      00
 3016 2744 A1700100 		movl	LPBX1+208, %eax	 # *LPBX1, PROF_edge_counter.10
 3016      00
 3017 2749 8B157401 		movl	LPBX1+212, %edx	 # *LPBX1, PROF_edge_counter.10
 3017      0000
 3018 274f 83C001   		addl	$1, %eax	 #, PROF_edge_counter.10
 3019 2752 83D200   		adcl	$0, %edx	 #, PROF_edge_counter.10
 3020 2755 A3700100 		movl	%eax, LPBX1+208	 # PROF_edge_counter.10, *LPBX1
 3020      00
 3021 275a 89157401 		movl	%edx, LPBX1+212	 # PROF_edge_counter.10, *LPBX1
 3021      0000
 3022              		.loc 1 676 0
 3023 2760 C70424C9 		movl	$LC22, (%esp)	 #,
 3023      020000
 3024 2767 E8000000 		call	_test_println	 #
 3024      00
 3025 276c A1780100 		movl	LPBX1+216, %eax	 # *LPBX1, PROF_edge_counter.10
 3025      00
 3026 2771 8B157C01 		movl	LPBX1+220, %edx	 # *LPBX1, PROF_edge_counter.10
 3026      0000
 3027 2777 83C001   		addl	$1, %eax	 #, PROF_edge_counter.10
 3028 277a 83D200   		adcl	$0, %edx	 #, PROF_edge_counter.10
 3029 277d A3780100 		movl	%eax, LPBX1+216	 # PROF_edge_counter.10, *LPBX1
 3029      00
GAS LISTING C:\cygwin\tmp\ccZXqjbs.s 			page 80


 3030 2782 89157C01 		movl	%edx, LPBX1+220	 # PROF_edge_counter.10, *LPBX1
 3030      0000
 3031              		.loc 1 679 0
 3032 2788 C7042438 		movl	$LC31, (%esp)	 #,
 3032      030000
 3033 278f E8000000 		call	_test_print	 #
 3033      00
 3034 2794 A1800100 		movl	LPBX1+224, %eax	 # *LPBX1, PROF_edge_counter.10
 3034      00
 3035 2799 8B158401 		movl	LPBX1+228, %edx	 # *LPBX1, PROF_edge_counter.10
 3035      0000
 3036 279f 83C001   		addl	$1, %eax	 #, PROF_edge_counter.10
 3037 27a2 83D200   		adcl	$0, %edx	 #, PROF_edge_counter.10
 3038 27a5 A3800100 		movl	%eax, LPBX1+224	 # PROF_edge_counter.10, *LPBX1
 3038      00
 3039 27aa 89158401 		movl	%edx, LPBX1+228	 # PROF_edge_counter.10, *LPBX1
 3039      0000
 3040              		.loc 1 680 0
 3041 27b0 C7042428 		movl	$40, (%esp)	 #,
 3041      000000
 3042 27b7 E8000000 		call	_test_printn	 #
 3042      00
 3043 27bc A1880100 		movl	LPBX1+232, %eax	 # *LPBX1, PROF_edge_counter.10
 3043      00
 3044 27c1 8B158C01 		movl	LPBX1+236, %edx	 # *LPBX1, PROF_edge_counter.10
 3044      0000
 3045 27c7 83C001   		addl	$1, %eax	 #, PROF_edge_counter.10
 3046 27ca 83D200   		adcl	$0, %edx	 #, PROF_edge_counter.10
 3047 27cd A3880100 		movl	%eax, LPBX1+232	 # PROF_edge_counter.10, *LPBX1
 3047      00
 3048 27d2 89158C01 		movl	%edx, LPBX1+236	 # PROF_edge_counter.10, *LPBX1
 3048      0000
 3049              		.loc 1 681 0
 3050 27d8 C70424C9 		movl	$LC22, (%esp)	 #,
 3050      020000
 3051 27df E8000000 		call	_test_println	 #
 3051      00
 3052 27e4 A1900100 		movl	LPBX1+240, %eax	 # *LPBX1, PROF_edge_counter.10
 3052      00
 3053 27e9 8B159401 		movl	LPBX1+244, %edx	 # *LPBX1, PROF_edge_counter.10
 3053      0000
 3054 27ef 83C001   		addl	$1, %eax	 #, PROF_edge_counter.10
 3055 27f2 83D200   		adcl	$0, %edx	 #, PROF_edge_counter.10
 3056 27f5 A3900100 		movl	%eax, LPBX1+240	 # PROF_edge_counter.10, *LPBX1
 3056      00
 3057 27fa 89159401 		movl	%edx, LPBX1+244	 # PROF_edge_counter.10, *LPBX1
 3057      0000
 3058              		.loc 1 683 0
 3059 2800 83C41C   		addl	$28, %esp	 #,
 3060              	LCFI45:
 3061              		.cfi_def_cfa_offset 4
 3062 2803 C3       		ret
 3063              		.cfi_endproc
 3064              	LFE22:
 3065              		.globl	_testbmk13
 3066              		.section .rdata,"dr"
 3067              	LC32:
GAS LISTING C:\cygwin\tmp\ccZXqjbs.s 			page 81


 3068 0345 42656E63 		.ascii "Benchmark, RAM footprint\0"
 3068      686D6172 
 3068      6B2C2052 
 3068      414D2066 
 3068      6F6F7470 
 3069 035e 0000     		.align 4
 3070              	_testbmk13:
 3071              	 # name:
 3072 0360 45030000 		.long	LC32
 3073              	 # setup:
 3074 0364 00000000 		.long	0
 3075              	 # teardown:
 3076 0368 00000000 		.long	0
 3077              	 # execute:
 3078 036c 31230000 		.long	_bmk13_execute
 3079              		.globl	_patternbmk
 3080 0370 00000000 		.align 32
 3080      00000000 
 3080      00000000 
 3080      00000000 
 3081              	_patternbmk:
 3082 0380 38000000 		.long	_testbmk1
 3083 0384 60000000 		.long	_testbmk2
 3084 0388 88000000 		.long	_testbmk3
 3085 038c B4000000 		.long	_testbmk4
 3086 0390 F0000000 		.long	_testbmk5
 3087 0394 20010000 		.long	_testbmk6
 3088 0398 6C010000 		.long	_testbmk7
 3089 039c A8010000 		.long	_testbmk8
 3090 03a0 E8010000 		.long	_testbmk9
 3091 03a4 28020000 		.long	_testbmk10
 3092 03a8 6C020000 		.long	_testbmk11
 3093 03ac AC020000 		.long	_testbmk12
 3094 03b0 60030000 		.long	_testbmk13
 3095 03b4 00000000 		.long	0
 3096              	.lcomm _vt1.2003,20,4
 3097              	.lcomm _vt2.2004,20,4
 3098              	.lcomm _iq.1993,36,32
 3099              	.lcomm _ib.1992,16,1
 3100              	.lcomm LPBX1,1848,32
 3101              		.align 4
 3102              	LC33:
 3103 03b8 433A5C64 		.ascii "C:\\develop\\gyro\\ChibiOS\\test\\coverage/../../test/testbmk.gcda\0"
 3103      6576656C 
 3103      6F705C67 
 3103      79726F5C 
 3103      43686962 
 3104 03f6 00000000 		.data
 3104      00000000 
 3104      0000
 3105              		.align 32
 3106              	LC34:
 3107              	 # <anonymous>:
 3108 0000 17000000 		.long	23
 3109              	 # <anonymous>:
 3110 0004 83AFD824 		.long	618180483
 3111              	 # <anonymous>:
GAS LISTING C:\cygwin\tmp\ccZXqjbs.s 			page 82


 3112 0008 1F000000 		.long	31
 3113              	 # <anonymous>:
 3114 000c 16000000 		.long	22
 3115              	 # <anonymous>:
 3116 0010 2BB15550 		.long	1347793195
 3117              	 # <anonymous>:
 3118 0014 10000000 		.long	16
 3119              	 # <anonymous>:
 3120 0018 15000000 		.long	21
 3121              	 # <anonymous>:
 3122 001c 910B31DA 		.long	-634319983
 3123              	 # <anonymous>:
 3124 0020 02000000 		.long	2
 3125              	 # <anonymous>:
 3126 0024 14000000 		.long	20
 3127              	 # <anonymous>:
 3128 0028 37450F11 		.long	286213431
 3129              	 # <anonymous>:
 3130 002c 10000000 		.long	16
 3131              	 # <anonymous>:
 3132 0030 13000000 		.long	19
 3133              	 # <anonymous>:
 3134 0034 D600A161 		.long	1637941462
 3135              	 # <anonymous>:
 3136 0038 02000000 		.long	2
 3137              	 # <anonymous>:
 3138 003c 12000000 		.long	18
 3139              	 # <anonymous>:
 3140 0040 22F58071 		.long	1904276770
 3141              	 # <anonymous>:
 3142 0044 0E000000 		.long	14
 3143              	 # <anonymous>:
 3144 0048 11000000 		.long	17
 3145              	 # <anonymous>:
 3146 004c 43205AAA 		.long	-1436934077
 3147              	 # <anonymous>:
 3148 0050 01000000 		.long	1
 3149              	 # <anonymous>:
 3150 0054 10000000 		.long	16
 3151              	 # <anonymous>:
 3152 0058 117C4F8D 		.long	-1924170735
 3153              	 # <anonymous>:
 3154 005c 13000000 		.long	19
 3155              	 # <anonymous>:
 3156 0060 0F000000 		.long	15
 3157              	 # <anonymous>:
 3158 0064 758104A7 		.long	-1492876939
 3159              	 # <anonymous>:
 3160 0068 0D000000 		.long	13
 3161              	 # <anonymous>:
 3162 006c 0E000000 		.long	14
 3163              	 # <anonymous>:
 3164 0070 194D569D 		.long	-1655288551
 3165              	 # <anonymous>:
 3166 0074 07000000 		.long	7
 3167              	 # <anonymous>:
 3168 0078 0D000000 		.long	13
GAS LISTING C:\cygwin\tmp\ccZXqjbs.s 			page 83


 3169              	 # <anonymous>:
 3170 007c 45BFB5B3 		.long	-1279934651
 3171              	 # <anonymous>:
 3172 0080 13000000 		.long	19
 3173              	 # <anonymous>:
 3174 0084 0C000000 		.long	12
 3175              	 # <anonymous>:
 3176 0088 6FEB8DB9 		.long	-1181881489
 3177              	 # <anonymous>:
 3178 008c 02000000 		.long	2
 3179              	 # <anonymous>:
 3180 0090 0B000000 		.long	11
 3181              	 # <anonymous>:
 3182 0094 735A95E9 		.long	-376087949
 3183              	 # <anonymous>:
 3184 0098 03000000 		.long	3
 3185              	 # <anonymous>:
 3186 009c 0A000000 		.long	10
 3187              	 # <anonymous>:
 3188 00a0 8408D024 		.long	617613444
 3189              	 # <anonymous>:
 3190 00a4 09000000 		.long	9
 3191              	 # <anonymous>:
 3192 00a8 09000000 		.long	9
 3193              	 # <anonymous>:
 3194 00ac A78238BB 		.long	-1153924441
 3195              	 # <anonymous>:
 3196 00b0 0A000000 		.long	10
 3197              	 # <anonymous>:
 3198 00b4 08000000 		.long	8
 3199              	 # <anonymous>:
 3200 00b8 B119B8F6 		.long	-155706959
 3201              	 # <anonymous>:
 3202 00bc 13000000 		.long	19
 3203              	 # <anonymous>:
 3204 00c0 07000000 		.long	7
 3205              	 # <anonymous>:
 3206 00c4 EF946A95 		.long	-1788177169
 3207              	 # <anonymous>:
 3208 00c8 05000000 		.long	5
 3209              	 # <anonymous>:
 3210 00cc 06000000 		.long	6
 3211              	 # <anonymous>:
 3212 00d0 D7A8240E 		.long	237283543
 3213              	 # <anonymous>:
 3214 00d4 0D000000 		.long	13
 3215              	 # <anonymous>:
 3216 00d8 05000000 		.long	5
 3217              	 # <anonymous>:
 3218 00dc 014EC95B 		.long	1539919361
 3219              	 # <anonymous>:
 3220 00e0 01000000 		.long	1
 3221              	 # <anonymous>:
 3222 00e4 04000000 		.long	4
 3223              	 # <anonymous>:
 3224 00e8 04D4DB48 		.long	1222366212
 3225              	 # <anonymous>:
GAS LISTING C:\cygwin\tmp\ccZXqjbs.s 			page 84


 3226 00ec 09000000 		.long	9
 3227              	 # <anonymous>:
 3228 00f0 03000000 		.long	3
 3229              	 # <anonymous>:
 3230 00f4 66E158C5 		.long	-984030874
 3231              	 # <anonymous>:
 3232 00f8 09000000 		.long	9
 3233              	 # <anonymous>:
 3234 00fc 02000000 		.long	2
 3235              	 # <anonymous>:
 3236 0100 4C0C96B3 		.long	-1282012084
 3237              	 # <anonymous>:
 3238 0104 07000000 		.long	7
 3239              	 # <anonymous>:
 3240 0108 01000000 		.long	1
 3241              	 # <anonymous>:
 3242 010c 417E1DD1 		.long	-786596287
 3243              	 # <anonymous>:
 3244 0110 04000000 		.long	4
 3245 0114 00000000 		.align 32
 3245      00000000 
 3245      00000000 
 3246              	LPBX0:
 3247              	 # <anonymous>:
 3248 0120 2A363034 		.long	875574826
 3249              	 # <anonymous>:
 3250 0124 00000000 		.long	0
 3251              	 # <anonymous>:
 3252 0128 393D7060 		.long	1617968441
 3253              	 # <anonymous>:
 3254 012c B8030000 		.long	LC33
 3255              	 # <anonymous>:
 3256 0130 17000000 		.long	23
 3257              	 # <anonymous>:
 3258 0134 00000000 		.long	LC34
 3259              	 # <anonymous>:
 3260 0138 01000000 		.long	1
 3261              	 # <anonymous>:
 3262              	 # <anonymous>:
 3263 013c E7000000 		.long	231
 3264              	 # <anonymous>:
 3265 0140 A0000000 		.long	LPBX1
 3266              	 # <anonymous>:
 3267 0144 00000000 		.long	___gcov_merge_add
 3268 0148 00000000 		.space 12
 3268      00000000 
 3268      00000000 
 3269 0154 00000000 		.text
 3269      00000000 
 3269      00000000 
 3270              		.def	__GLOBAL__sub_I_65535_0_testbmk1;	.scl	3;	.type	32;	.endef
 3271              	__GLOBAL__sub_I_65535_0_testbmk1:
 3272              	LFB23:
 3273              		.loc 1 714 0
 3274              		.cfi_startproc
 3275 2804 83EC1C   		subl	$28, %esp	 #,
 3276              	LCFI46:
GAS LISTING C:\cygwin\tmp\ccZXqjbs.s 			page 85


 3277              		.cfi_def_cfa_offset 32
 3278              		.loc 1 714 0
 3279 2807 C7042420 		movl	$LPBX0, (%esp)	 #,
 3279      010000
 3280 280e E8000000 		call	___gcov_init	 #
 3280      00
 3281 2813 83C41C   		addl	$28, %esp	 #,
 3282              	LCFI47:
 3283              		.cfi_def_cfa_offset 4
 3284 2816 C3       		ret
 3285              		.cfi_endproc
 3286              	LFE23:
 3287              		.section	.ctors,"w"
 3288              		.align 4
 3289 0000 04280000 		.long	__GLOBAL__sub_I_65535_0_testbmk1
 3290              		.text
 3291              	Letext0:
 3292              		.file 2 "c:/mingw/bin/../lib/gcc/mingw32/4.6.2/include/stddef.h"
 3293              		.file 3 "c:/mingw/bin/../lib/gcc/mingw32/4.6.2/../../../../include/stdint.h"
 3294              		.file 4 "../../os/ports/GCC/SIMIA32/chtypes.h"
 3295              		.file 5 "../../os/kernel/include/chlists.h"
 3296              		.file 6 "../../os/kernel/include/chthreads.h"
 3297              		.file 7 "../../os/ports/GCC/SIMIA32/chcore.h"
 3298              		.file 8 "../../os/kernel/include/chvt.h"
 3299              		.file 9 "../../os/kernel/include/chschd.h"
 3300              		.file 10 "../../os/kernel/include/chsem.h"
 3301              		.file 11 "../../os/kernel/include/chmtx.h"
 3302              		.file 12 "../../os/kernel/include/chqueues.h"
 3303              		.file 13 "../../test/test.h"