GAS LISTING C:\cygwin\tmp\ccs5iBND.s 			page 1


   1              		.file	"test.c"
   2              	 # GNU C (GCC) version 4.6.2 (mingw32)
   3              	 #	compiled by GNU C version 4.6.2, GMP version 5.0.1, MPFR version 2.4.1, MPC version 0.8.1
   4              	 # GGC heuristics: --param ggc-min-expand=100 --param ggc-min-heapsize=131072
   5              	 # options passed:  -I . -I ../../os/ports/GCC/SIMIA32
   6              	 # -I ../../os/kernel/include -I ../../test -I ../../os/hal/include
   7              	 # -I ../../os/hal/platforms/Win32 -I ../../boards/simulator
   8              	 # -I ../../os/various -iprefix c:\mingw\bin\../lib/gcc/mingw32/4.6.2/
   9              	 # -MD ../../test/test.d -MF .dep/test.o.d -MP -MQ ../../test/test.o
  10              	 # -D SIMULATOR ../../test/test.c -mtune=i386 -march=i386
  11              	 # -auxbase-strip ../../test/test.o -ggdb -O0 -Wall -Wextra
  12              	 # -Wstrict-prototypes -fomit-frame-pointer -fprofile-arcs -ftest-coverage
  13              	 # -fverbose-asm
  14              	 # options enabled:  -fasynchronous-unwind-tables -fauto-inc-dec
  15              	 # -fbranch-count-reg -fcommon -fdelete-null-pointer-checks
  16              	 # -fdwarf2-cfi-asm -fearly-inlining -feliminate-unused-debug-types
  17              	 # -ffunction-cse -fgcse-lm -fident -finline-functions-called-once
  18              	 # -fira-share-save-slots -fira-share-spill-slots -fivopts
  19              	 # -fkeep-inline-dllexport -fkeep-static-consts -fleading-underscore
  20              	 # -fmath-errno -fmerge-debug-strings -fmove-loop-invariants
  21              	 # -fomit-frame-pointer -fpeephole -fprefetch-loop-arrays -fprofile-arcs
  22              	 # -freg-struct-return -fsched-critical-path-heuristic
  23              	 # -fsched-dep-count-heuristic -fsched-group-heuristic -fsched-interblock
  24              	 # -fsched-last-insn-heuristic -fsched-rank-heuristic -fsched-spec
  25              	 # -fsched-spec-insn-heuristic -fsched-stalled-insns-dep
  26              	 # -fset-stack-executable -fshow-column -fsigned-zeros
  27              	 # -fsplit-ivs-in-unroller -fstrict-volatile-bitfields -ftest-coverage
  28              	 # -ftrapping-math -ftree-cselim -ftree-forwprop -ftree-loop-if-convert
  29              	 # -ftree-loop-im -ftree-loop-ivcanon -ftree-loop-optimize
  30              	 # -ftree-parallelize-loops= -ftree-phiprop -ftree-pta -ftree-reassoc
  31              	 # -ftree-scev-cprop -ftree-slp-vectorize -ftree-vect-loop-version
  32              	 # -funit-at-a-time -funwind-tables -fvect-cost-model -fverbose-asm
  33              	 # -fzero-initialized-in-bss -m32 -m80387 -m96bit-long-double
  34              	 # -maccumulate-outgoing-args -malign-double -malign-stringops
  35              	 # -mfancy-math-387 -mfp-ret-in-387 -mieee-fp -mno-red-zone -mno-sse4
  36              	 # -mpush-args -msahf -mstack-arg-probe
  37              	
  38              		.text
  39              	Ltext0:
  40              	 # Compiler executable checksum: c20aed7c018482d7b62efcd5dcab2a9d
  41              	
  42              		.data
  43              		.align 32
  44              	_patterns:
  45 0000 00000000 		.long	_patternthd
  46 0004 00000000 		.long	_patternsem
  47 0008 00000000 		.long	_patternmtx
  48 000c 00000000 		.long	_patternmsg
  49 0010 00000000 		.long	_patternmbox
  50 0014 00000000 		.long	_patternevt
  51 0018 00000000 		.long	_patternheap
  52 001c 00000000 		.long	_patternpools
  53 0020 00000000 		.long	_patterndyn
  54 0024 00000000 		.long	_patternqueues
  55 0028 00000000 		.long	_patternbmk
  56 002c 00000000 		.long	0
  57              	.lcomm _local_fail,1,1
GAS LISTING C:\cygwin\tmp\ccs5iBND.s 			page 2


  58              	.lcomm _global_fail,1,1
  59              	.lcomm _failpoint,4,4
  60              	.lcomm _tokens_buffer,16,1
  61              	.lcomm _tokp,4,4
  62              		.comm	_test, 85040, 5
  63              		.comm	_threads, 20, 2
  64              		.globl	_wa
  65              		.section .rdata,"dr"
  66              		.align 4
  67              	_wa:
  68 0000 00000000 		.long	_test
  69 0004 70420000 		.long	_test+17008
  70 0008 E0840000 		.long	_test+34016
  71 000c 50C70000 		.long	_test+51024
  72 0010 C0090100 		.long	_test+68032
  73              	.lcomm _chp,4,4
  74              		.text
  75              		.globl	_test_printn
  76              		.def	_test_printn;	.scl	2;	.type	32;	.endef
  77              	_test_printn:
  78              	LFB9:
  79              		.file 1 "../../test/test.c"
  80              		.loc 1 95 0
  81              		.cfi_startproc
  82 0000 83EC4C   		subl	$76, %esp	 #,
  83              	LCFI0:
  84              		.cfi_def_cfa_offset 80
  85              		.loc 1 98 0
  86 0003 837C2450 		cmpl	$0, 80(%esp)	 #, n
  86      00
  87 0008 7559     		jne	L2	 #,
  88 000a A1980300 		movl	LPBX1+856, %eax	 # *LPBX1, PROF_edge_counter.46
  88      00
  89 000f 8B159C03 		movl	LPBX1+860, %edx	 # *LPBX1, PROF_edge_counter.46
  89      0000
  90 0015 83C001   		addl	$1, %eax	 #, PROF_edge_counter.46
  91 0018 83D200   		adcl	$0, %edx	 #, PROF_edge_counter.46
  92 001b A3980300 		movl	%eax, LPBX1+856	 # PROF_edge_counter.46, *LPBX1
  92      00
  93 0020 89159C03 		movl	%edx, LPBX1+860	 # PROF_edge_counter.46, *LPBX1
  93      0000
  94              		.loc 1 99 0
  95 0026 A11C0000 		movl	_chp, %eax	 # chp, chp.24
  95      00
  96 002b 8B00     		movl	(%eax), %eax	 # chp.24_5->vmt, D.36925
  97 002d 8B5008   		movl	8(%eax), %edx	 # D.36925_6->put, D.36926
  98 0030 A11C0000 		movl	_chp, %eax	 # chp, chp.25
  98      00
  99 0035 C7442404 		movl	$48, 4(%esp)	 #,
  99      30000000 
 100 003d 890424   		movl	%eax, (%esp)	 # chp.25,
 101 0040 FFD2     		call	*%edx	 # D.36926
 102 0042 A1A00300 		movl	LPBX1+864, %eax	 # *LPBX1, PROF_edge_counter.46
 102      00
 103 0047 8B15A403 		movl	LPBX1+868, %edx	 # *LPBX1, PROF_edge_counter.46
 103      0000
 104 004d 83C001   		addl	$1, %eax	 #, PROF_edge_counter.46
GAS LISTING C:\cygwin\tmp\ccs5iBND.s 			page 3


 105 0050 83D200   		adcl	$0, %edx	 #, PROF_edge_counter.46
 106 0053 A3A00300 		movl	%eax, LPBX1+864	 # PROF_edge_counter.46, *LPBX1
 106      00
 107 0058 8915A403 		movl	%edx, LPBX1+868	 # PROF_edge_counter.46, *LPBX1
 107      0000
 108 005e E9EF0000 		jmp	L1	 #
 108      00
 109              	L2:
 110              		.loc 1 101 0
 111 0063 8D44242C 		leal	44(%esp), %eax	 #, tmp86
 112 0067 8944243C 		movl	%eax, 60(%esp)	 # tmp86, p
 113              		.loc 1 102 0
 114 006b EB59     		jmp	L4	 #
 115              	L5:
 116 006d A1A80300 		movl	LPBX1+872, %eax	 # *LPBX1, PROF_edge_counter.46
 116      00
 117 0072 8B15AC03 		movl	LPBX1+876, %edx	 # *LPBX1, PROF_edge_counter.46
 117      0000
 118 0078 83C001   		addl	$1, %eax	 #, PROF_edge_counter.46
 119 007b 83D200   		adcl	$0, %edx	 #, PROF_edge_counter.46
 120 007e A3A80300 		movl	%eax, LPBX1+872	 # PROF_edge_counter.46, *LPBX1
 120      00
 121 0083 8915AC03 		movl	%edx, LPBX1+876	 # PROF_edge_counter.46, *LPBX1
 121      0000
 122              		.loc 1 103 0
 123 0089 8B442450 		movl	80(%esp), %eax	 # n, tmp87
 124 008d B90A0000 		movl	$10, %ecx	 #, tmp90
 124      00
 125 0092 BA000000 		movl	$0, %edx	 #, tmp88
 125      00
 126 0097 F7F1     		divl	%ecx	 # tmp90
 127 0099 89D0     		movl	%edx, %eax	 # tmp88, D.36929
 128 009b 83C030   		addl	$48, %eax	 #, D.36931
 129 009e 88C2     		movb	%al, %dl	 # D.36931, D.36932
 130 00a0 8B44243C 		movl	60(%esp), %eax	 # p, tmp91
 131 00a4 8810     		movb	%dl, (%eax)	 # D.36932, *p_2
 132 00a6 FF44243C 		incl	60(%esp)	 # p
 133 00aa 8B442450 		movl	80(%esp), %eax	 # n,
 134 00ae 8944241C 		movl	%eax, 28(%esp)	 #, %sfp
 135 00b2 BACDCCCC 		movl	$-858993459, %edx	 #, tmp95
 135      CC
 136 00b7 8B44241C 		movl	28(%esp), %eax	 # %sfp,
 137 00bb F7E2     		mull	%edx	 # tmp95
 138 00bd 89D0     		movl	%edx, %eax	 # tmp94, tmp92
 139 00bf C1E803   		shrl	$3, %eax	 #, tmp92
 140 00c2 89442450 		movl	%eax, 80(%esp)	 # tmp92, n
 141              	L4:
 142              		.loc 1 102 0 discriminator 1
 143 00c6 837C2450 		cmpl	$0, 80(%esp)	 #, n
 143      00
 144 00cb 75A0     		jne	L5	 #,
 145              		.loc 1 102 0 is_stmt 0
 146 00cd A1B00300 		movl	LPBX1+880, %eax	 # *LPBX1, PROF_edge_counter.46
 146      00
 147 00d2 8B15B403 		movl	LPBX1+884, %edx	 # *LPBX1, PROF_edge_counter.46
 147      0000
 148 00d8 83C001   		addl	$1, %eax	 #, PROF_edge_counter.46
GAS LISTING C:\cygwin\tmp\ccs5iBND.s 			page 4


 149 00db 83D200   		adcl	$0, %edx	 #, PROF_edge_counter.46
 150 00de A3B00300 		movl	%eax, LPBX1+880	 # PROF_edge_counter.46, *LPBX1
 150      00
 151 00e3 8915B403 		movl	%edx, LPBX1+884	 # PROF_edge_counter.46, *LPBX1
 151      0000
 152              		.loc 1 104 0 is_stmt 1
 153 00e9 EB41     		jmp	L6	 #
 154              	L7:
 155 00eb A1B80300 		movl	LPBX1+888, %eax	 # *LPBX1, PROF_edge_counter.46
 155      00
 156 00f0 8B15BC03 		movl	LPBX1+892, %edx	 # *LPBX1, PROF_edge_counter.46
 156      0000
 157 00f6 83C001   		addl	$1, %eax	 #, PROF_edge_counter.46
 158 00f9 83D200   		adcl	$0, %edx	 #, PROF_edge_counter.46
 159 00fc A3B80300 		movl	%eax, LPBX1+888	 # PROF_edge_counter.46, *LPBX1
 159      00
 160 0101 8915BC03 		movl	%edx, LPBX1+892	 # PROF_edge_counter.46, *LPBX1
 160      0000
 161              		.loc 1 105 0
 162 0107 A11C0000 		movl	_chp, %eax	 # chp, chp.26
 162      00
 163 010c 8B00     		movl	(%eax), %eax	 # chp.26_16->vmt, D.36934
 164 010e 8B4808   		movl	8(%eax), %ecx	 # D.36934_17->put, D.36935
 165 0111 FF4C243C 		decl	60(%esp)	 # p
 166 0115 8B44243C 		movl	60(%esp), %eax	 # p, tmp96
 167 0119 8A00     		movb	(%eax), %al	 # *p_19, D.36936
 168 011b 0FB6D0   		movzbl	%al, %edx	 # D.36937, D.36938
 169 011e A11C0000 		movl	_chp, %eax	 # chp, chp.27
 169      00
 170 0123 89542404 		movl	%edx, 4(%esp)	 # D.36938,
 171 0127 890424   		movl	%eax, (%esp)	 # chp.27,
 172 012a FFD1     		call	*%ecx	 # D.36935
 173              	L6:
 174              		.loc 1 104 0 discriminator 1
 175 012c 8D44242C 		leal	44(%esp), %eax	 #, tmp97
 176 0130 3944243C 		cmpl	%eax, 60(%esp)	 # tmp97, p
 177 0134 77B5     		ja	L7	 #,
 178              		.loc 1 104 0 is_stmt 0
 179 0136 A1C00300 		movl	LPBX1+896, %eax	 # *LPBX1, PROF_edge_counter.46
 179      00
 180 013b 8B15C403 		movl	LPBX1+900, %edx	 # *LPBX1, PROF_edge_counter.46
 180      0000
 181 0141 83C001   		addl	$1, %eax	 #, PROF_edge_counter.46
 182 0144 83D200   		adcl	$0, %edx	 #, PROF_edge_counter.46
 183 0147 A3C00300 		movl	%eax, LPBX1+896	 # PROF_edge_counter.46, *LPBX1
 183      00
 184 014c 8915C403 		movl	%edx, LPBX1+900	 # PROF_edge_counter.46, *LPBX1
 184      0000
 185              	L1:
 186              		.loc 1 107 0 is_stmt 1
 187 0152 83C44C   		addl	$76, %esp	 #,
 188              	LCFI1:
 189              		.cfi_def_cfa_offset 4
 190 0155 C3       		ret
 191              		.cfi_endproc
 192              	LFE9:
 193              		.globl	_test_print
GAS LISTING C:\cygwin\tmp\ccs5iBND.s 			page 5


 194              		.def	_test_print;	.scl	2;	.type	32;	.endef
 195              	_test_print:
 196              	LFB10:
 197              		.loc 1 114 0
 198              		.cfi_startproc
 199 0156 83EC1C   		subl	$28, %esp	 #,
 200              	LCFI2:
 201              		.cfi_def_cfa_offset 32
 202              		.loc 1 114 0
 203 0159 A1800300 		movl	LPBX1+832, %eax	 # *LPBX1, PROF_edge_counter.45
 203      00
 204 015e 8B158403 		movl	LPBX1+836, %edx	 # *LPBX1, PROF_edge_counter.45
 204      0000
 205 0164 83C001   		addl	$1, %eax	 #, PROF_edge_counter.45
 206 0167 83D200   		adcl	$0, %edx	 #, PROF_edge_counter.45
 207 016a A3800300 		movl	%eax, LPBX1+832	 # PROF_edge_counter.45, *LPBX1
 207      00
 208 016f 89158403 		movl	%edx, LPBX1+836	 # PROF_edge_counter.45, *LPBX1
 208      0000
 209              		.loc 1 116 0
 210 0175 EB41     		jmp	L9	 #
 211              	L10:
 212 0177 A1880300 		movl	LPBX1+840, %eax	 # *LPBX1, PROF_edge_counter.45
 212      00
 213 017c 8B158C03 		movl	LPBX1+844, %edx	 # *LPBX1, PROF_edge_counter.45
 213      0000
 214 0182 83C001   		addl	$1, %eax	 #, PROF_edge_counter.45
 215 0185 83D200   		adcl	$0, %edx	 #, PROF_edge_counter.45
 216 0188 A3880300 		movl	%eax, LPBX1+840	 # PROF_edge_counter.45, *LPBX1
 216      00
 217 018d 89158C03 		movl	%edx, LPBX1+844	 # PROF_edge_counter.45, *LPBX1
 217      0000
 218              		.loc 1 117 0
 219 0193 A11C0000 		movl	_chp, %eax	 # chp, chp.22
 219      00
 220 0198 8B00     		movl	(%eax), %eax	 # chp.22_4->vmt, D.36915
 221 019a 8B4808   		movl	8(%eax), %ecx	 # D.36915_5->put, D.36916
 222 019d 8B442420 		movl	32(%esp), %eax	 # msgp, tmp73
 223 01a1 8A00     		movb	(%eax), %al	 # *msgp_1, D.36917
 224 01a3 0FB6D0   		movzbl	%al, %edx	 # D.36918, D.36919
 225 01a6 FF442420 		incl	32(%esp)	 # msgp
 226 01aa A11C0000 		movl	_chp, %eax	 # chp, chp.23
 226      00
 227 01af 89542404 		movl	%edx, 4(%esp)	 # D.36919,
 228 01b3 890424   		movl	%eax, (%esp)	 # chp.23,
 229 01b6 FFD1     		call	*%ecx	 # D.36916
 230              	L9:
 231              		.loc 1 116 0 discriminator 1
 232 01b8 8B442420 		movl	32(%esp), %eax	 # msgp, tmp74
 233 01bc 8A00     		movb	(%eax), %al	 # *msgp_1, D.36921
 234 01be 84C0     		testb	%al, %al	 # D.36921
 235 01c0 75B5     		jne	L10	 #,
 236              		.loc 1 116 0 is_stmt 0
 237 01c2 A1900300 		movl	LPBX1+848, %eax	 # *LPBX1, PROF_edge_counter.45
 237      00
 238 01c7 8B159403 		movl	LPBX1+852, %edx	 # *LPBX1, PROF_edge_counter.45
 238      0000
GAS LISTING C:\cygwin\tmp\ccs5iBND.s 			page 6


 239 01cd 83C001   		addl	$1, %eax	 #, PROF_edge_counter.45
 240 01d0 83D200   		adcl	$0, %edx	 #, PROF_edge_counter.45
 241 01d3 A3900300 		movl	%eax, LPBX1+848	 # PROF_edge_counter.45, *LPBX1
 241      00
 242 01d8 89159403 		movl	%edx, LPBX1+852	 # PROF_edge_counter.45, *LPBX1
 242      0000
 243              		.loc 1 118 0 is_stmt 1
 244 01de 83C41C   		addl	$28, %esp	 #,
 245              	LCFI3:
 246              		.cfi_def_cfa_offset 4
 247 01e1 C3       		ret
 248              		.cfi_endproc
 249              	LFE10:
 250              		.section .rdata,"dr"
 251              	LC0:
 252 0014 0D0A00   		.ascii "\15\12\0"
 253              		.text
 254              		.globl	_test_println
 255              		.def	_test_println;	.scl	2;	.type	32;	.endef
 256              	_test_println:
 257              	LFB11:
 258              		.loc 1 125 0
 259              		.cfi_startproc
 260 01e2 83EC1C   		subl	$28, %esp	 #,
 261              	LCFI4:
 262              		.cfi_def_cfa_offset 32
 263              		.loc 1 125 0
 264 01e5 A1680300 		movl	LPBX1+808, %eax	 # *LPBX1, PROF_edge_counter.44
 264      00
 265 01ea 8B156C03 		movl	LPBX1+812, %edx	 # *LPBX1, PROF_edge_counter.44
 265      0000
 266 01f0 83C001   		addl	$1, %eax	 #, PROF_edge_counter.44
 267 01f3 83D200   		adcl	$0, %edx	 #, PROF_edge_counter.44
 268 01f6 A3680300 		movl	%eax, LPBX1+808	 # PROF_edge_counter.44, *LPBX1
 268      00
 269 01fb 89156C03 		movl	%edx, LPBX1+812	 # PROF_edge_counter.44, *LPBX1
 269      0000
 270              		.loc 1 127 0
 271 0201 8B442420 		movl	32(%esp), %eax	 # msgp, tmp69
 272 0205 890424   		movl	%eax, (%esp)	 # tmp69,
 273 0208 E849FFFF 		call	_test_print	 #
 273      FF
 274 020d A1700300 		movl	LPBX1+816, %eax	 # *LPBX1, PROF_edge_counter.44
 274      00
 275 0212 8B157403 		movl	LPBX1+820, %edx	 # *LPBX1, PROF_edge_counter.44
 275      0000
 276 0218 83C001   		addl	$1, %eax	 #, PROF_edge_counter.44
 277 021b 83D200   		adcl	$0, %edx	 #, PROF_edge_counter.44
 278 021e A3700300 		movl	%eax, LPBX1+816	 # PROF_edge_counter.44, *LPBX1
 278      00
 279 0223 89157403 		movl	%edx, LPBX1+820	 # PROF_edge_counter.44, *LPBX1
 279      0000
 280              		.loc 1 128 0
 281 0229 A11C0000 		movl	_chp, %eax	 # chp, chp.20
 281      00
 282 022e 8B00     		movl	(%eax), %eax	 # chp.20_2->vmt, D.36911
 283 0230 8B10     		movl	(%eax), %edx	 # D.36911_3->write, D.36912
GAS LISTING C:\cygwin\tmp\ccs5iBND.s 			page 7


 284 0232 A11C0000 		movl	_chp, %eax	 # chp, chp.21
 284      00
 285 0237 C7442408 		movl	$2, 8(%esp)	 #,
 285      02000000 
 286 023f C7442404 		movl	$LC0, 4(%esp)	 #,
 286      14000000 
 287 0247 890424   		movl	%eax, (%esp)	 # chp.21,
 288 024a FFD2     		call	*%edx	 # D.36912
 289 024c A1780300 		movl	LPBX1+824, %eax	 # *LPBX1, PROF_edge_counter.44
 289      00
 290 0251 8B157C03 		movl	LPBX1+828, %edx	 # *LPBX1, PROF_edge_counter.44
 290      0000
 291 0257 83C001   		addl	$1, %eax	 #, PROF_edge_counter.44
 292 025a 83D200   		adcl	$0, %edx	 #, PROF_edge_counter.44
 293 025d A3780300 		movl	%eax, LPBX1+824	 # PROF_edge_counter.44, *LPBX1
 293      00
 294 0262 89157C03 		movl	%edx, LPBX1+828	 # PROF_edge_counter.44, *LPBX1
 294      0000
 295              		.loc 1 129 0
 296 0268 83C41C   		addl	$28, %esp	 #,
 297              	LCFI5:
 298              		.cfi_def_cfa_offset 4
 299 026b C3       		ret
 300              		.cfi_endproc
 301              	LFE11:
 302              		.def	_clear_tokens;	.scl	3;	.type	32;	.endef
 303              	_clear_tokens:
 304              	LFB12:
 305              		.loc 1 134 0
 306              		.cfi_startproc
 307 026c 83EC04   		subl	$4, %esp	 #,
 308              	LCFI6:
 309              		.cfi_def_cfa_offset 8
 310              		.loc 1 134 0
 311 026f A1600300 		movl	LPBX1+800, %eax	 # *LPBX1, PROF_edge_counter.43
 311      00
 312 0274 8B156403 		movl	LPBX1+804, %edx	 # *LPBX1, PROF_edge_counter.43
 312      0000
 313 027a 83C001   		addl	$1, %eax	 #, PROF_edge_counter.43
 314 027d 83D200   		adcl	$0, %edx	 #, PROF_edge_counter.43
 315 0280 A3600300 		movl	%eax, LPBX1+800	 # PROF_edge_counter.43, *LPBX1
 315      00
 316 0285 89156403 		movl	%edx, LPBX1+804	 # PROF_edge_counter.43, *LPBX1
 316      0000
 317              		.loc 1 136 0
 318 028b C7051800 		movl	$_tokens_buffer, _tokp	 #, tokp
 318      00000800 
 318      0000
 319              		.loc 1 137 0
 320 0295 83C404   		addl	$4, %esp	 #,
 321              	LCFI7:
 322              		.cfi_def_cfa_offset 4
 323 0298 C3       		ret
 324              		.cfi_endproc
 325              	LFE12:
 326              		.def	_print_tokens;	.scl	3;	.type	32;	.endef
 327              	_print_tokens:
GAS LISTING C:\cygwin\tmp\ccs5iBND.s 			page 8


 328              	LFB13:
 329              		.loc 1 139 0
 330              		.cfi_startproc
 331 0299 83EC2C   		subl	$44, %esp	 #,
 332              	LCFI8:
 333              		.cfi_def_cfa_offset 48
 334              		.loc 1 140 0
 335 029c C744241C 		movl	$_tokens_buffer, 28(%esp)	 #, cp
 335      08000000 
 336 02a4 A1480300 		movl	LPBX1+776, %eax	 # *LPBX1, PROF_edge_counter.42
 336      00
 337 02a9 8B154C03 		movl	LPBX1+780, %edx	 # *LPBX1, PROF_edge_counter.42
 337      0000
 338 02af 83C001   		addl	$1, %eax	 #, PROF_edge_counter.42
 339 02b2 83D200   		adcl	$0, %edx	 #, PROF_edge_counter.42
 340 02b5 A3480300 		movl	%eax, LPBX1+776	 # PROF_edge_counter.42, *LPBX1
 340      00
 341 02ba 89154C03 		movl	%edx, LPBX1+780	 # PROF_edge_counter.42, *LPBX1
 341      0000
 342              		.loc 1 142 0
 343 02c0 EB41     		jmp	L14	 #
 344              	L15:
 345 02c2 A1500300 		movl	LPBX1+784, %eax	 # *LPBX1, PROF_edge_counter.42
 345      00
 346 02c7 8B155403 		movl	LPBX1+788, %edx	 # *LPBX1, PROF_edge_counter.42
 346      0000
 347 02cd 83C001   		addl	$1, %eax	 #, PROF_edge_counter.42
 348 02d0 83D200   		adcl	$0, %edx	 #, PROF_edge_counter.42
 349 02d3 A3500300 		movl	%eax, LPBX1+784	 # PROF_edge_counter.42, *LPBX1
 349      00
 350 02d8 89155403 		movl	%edx, LPBX1+788	 # PROF_edge_counter.42, *LPBX1
 350      0000
 351              		.loc 1 143 0
 352 02de A11C0000 		movl	_chp, %eax	 # chp, chp.17
 352      00
 353 02e3 8B00     		movl	(%eax), %eax	 # chp.17_4->vmt, D.36903
 354 02e5 8B4808   		movl	8(%eax), %ecx	 # D.36903_5->put, D.36904
 355 02e8 8B44241C 		movl	28(%esp), %eax	 # cp, tmp73
 356 02ec 8A00     		movb	(%eax), %al	 # *cp_1, D.36905
 357 02ee 0FB6D0   		movzbl	%al, %edx	 # D.36906, D.36907
 358 02f1 FF44241C 		incl	28(%esp)	 # cp
 359 02f5 A11C0000 		movl	_chp, %eax	 # chp, chp.18
 359      00
 360 02fa 89542404 		movl	%edx, 4(%esp)	 # D.36907,
 361 02fe 890424   		movl	%eax, (%esp)	 # chp.18,
 362 0301 FFD1     		call	*%ecx	 # D.36904
 363              	L14:
 364              		.loc 1 142 0 discriminator 1
 365 0303 A1180000 		movl	_tokp, %eax	 # tokp, tokp.19
 365      00
 366 0308 3944241C 		cmpl	%eax, 28(%esp)	 # tokp.19, cp
 367 030c 72B4     		jb	L15	 #,
 368              		.loc 1 142 0 is_stmt 0
 369 030e A1580300 		movl	LPBX1+792, %eax	 # *LPBX1, PROF_edge_counter.42
 369      00
 370 0313 8B155C03 		movl	LPBX1+796, %edx	 # *LPBX1, PROF_edge_counter.42
 370      0000
GAS LISTING C:\cygwin\tmp\ccs5iBND.s 			page 9


 371 0319 83C001   		addl	$1, %eax	 #, PROF_edge_counter.42
 372 031c 83D200   		adcl	$0, %edx	 #, PROF_edge_counter.42
 373 031f A3580300 		movl	%eax, LPBX1+792	 # PROF_edge_counter.42, *LPBX1
 373      00
 374 0324 89155C03 		movl	%edx, LPBX1+796	 # PROF_edge_counter.42, *LPBX1
 374      0000
 375              		.loc 1 144 0 is_stmt 1
 376 032a 83C42C   		addl	$44, %esp	 #,
 377              	LCFI9:
 378              		.cfi_def_cfa_offset 4
 379 032d C3       		ret
 380              		.cfi_endproc
 381              	LFE13:
 382              		.globl	_test_emit_token
 383              		.def	_test_emit_token;	.scl	2;	.type	32;	.endef
 384              	_test_emit_token:
 385              	LFB14:
 386              		.loc 1 151 0
 387              		.cfi_startproc
 388 032e 83EC0C   		subl	$12, %esp	 #,
 389              	LCFI10:
 390              		.cfi_def_cfa_offset 16
 391 0331 8B442410 		movl	16(%esp), %eax	 # token, tmp67
 392 0335 88442404 		movb	%al, 4(%esp)	 # tmp67, token
 393              		.loc 1 151 0
 394 0339 A1300300 		movl	LPBX1+752, %eax	 # *LPBX1, PROF_edge_counter.41
 394      00
 395 033e 8B153403 		movl	LPBX1+756, %edx	 # *LPBX1, PROF_edge_counter.41
 395      0000
 396 0344 83C001   		addl	$1, %eax	 #, PROF_edge_counter.41
 397 0347 83D200   		adcl	$0, %edx	 #, PROF_edge_counter.41
 398 034a A3300300 		movl	%eax, LPBX1+752	 # PROF_edge_counter.41, *LPBX1
 398      00
 399 034f 89153403 		movl	%edx, LPBX1+756	 # PROF_edge_counter.41, *LPBX1
 399      0000
 400              		.loc 1 153 0
 401              	/APP
 402              	 # 153 "../../test/test.c" 1
 403 0355 90       		nop
 404              	 # 0 "" 2
 405              	/NO_APP
 406 0356 A1380300 		movl	LPBX1+760, %eax	 # *LPBX1, PROF_edge_counter.41
 406      00
 407 035b 8B153C03 		movl	LPBX1+764, %edx	 # *LPBX1, PROF_edge_counter.41
 407      0000
 408 0361 83C001   		addl	$1, %eax	 #, PROF_edge_counter.41
 409 0364 83D200   		adcl	$0, %edx	 #, PROF_edge_counter.41
 410 0367 A3380300 		movl	%eax, LPBX1+760	 # PROF_edge_counter.41, *LPBX1
 410      00
 411 036c 89153C03 		movl	%edx, LPBX1+764	 # PROF_edge_counter.41, *LPBX1
 411      0000
 412              		.loc 1 154 0
 413 0372 A1180000 		movl	_tokp, %eax	 # tokp, tokp.15
 413      00
 414 0377 8A542404 		movb	4(%esp), %dl	 # token, tmp68
 415 037b 8810     		movb	%dl, (%eax)	 # tmp68, *tokp.15_1
 416 037d 40       		incl	%eax	 # tokp.16
GAS LISTING C:\cygwin\tmp\ccs5iBND.s 			page 10


 417 037e A3180000 		movl	%eax, _tokp	 # tokp.16, tokp
 417      00
 418              		.loc 1 155 0
 419              	/APP
 420              	 # 155 "../../test/test.c" 1
 421 0383 90       		nop
 422              	 # 0 "" 2
 423              	/NO_APP
 424 0384 A1400300 		movl	LPBX1+768, %eax	 # *LPBX1, PROF_edge_counter.41
 424      00
 425 0389 8B154403 		movl	LPBX1+772, %edx	 # *LPBX1, PROF_edge_counter.41
 425      0000
 426 038f 83C001   		addl	$1, %eax	 #, PROF_edge_counter.41
 427 0392 83D200   		adcl	$0, %edx	 #, PROF_edge_counter.41
 428 0395 A3400300 		movl	%eax, LPBX1+768	 # PROF_edge_counter.41, *LPBX1
 428      00
 429 039a 89154403 		movl	%edx, LPBX1+772	 # PROF_edge_counter.41, *LPBX1
 429      0000
 430              		.loc 1 156 0
 431 03a0 83C40C   		addl	$12, %esp	 #,
 432              	LCFI11:
 433              		.cfi_def_cfa_offset 4
 434 03a3 C3       		ret
 435              		.cfi_endproc
 436              	LFE14:
 437              		.globl	__test_fail
 438              		.def	__test_fail;	.scl	2;	.type	32;	.endef
 439              	__test_fail:
 440              	LFB15:
 441              		.loc 1 161 0
 442              		.cfi_startproc
 443 03a4 83EC04   		subl	$4, %esp	 #,
 444              	LCFI12:
 445              		.cfi_def_cfa_offset 8
 446              		.loc 1 161 0
 447 03a7 A1280300 		movl	LPBX1+744, %eax	 # *LPBX1, PROF_edge_counter.40
 447      00
 448 03ac 8B152C03 		movl	LPBX1+748, %edx	 # *LPBX1, PROF_edge_counter.40
 448      0000
 449 03b2 83C001   		addl	$1, %eax	 #, PROF_edge_counter.40
 450 03b5 83D200   		adcl	$0, %edx	 #, PROF_edge_counter.40
 451 03b8 A3280300 		movl	%eax, LPBX1+744	 # PROF_edge_counter.40, *LPBX1
 451      00
 452 03bd 89152C03 		movl	%edx, LPBX1+748	 # PROF_edge_counter.40, *LPBX1
 452      0000
 453              		.loc 1 163 0
 454 03c3 C6050000 		movb	$1, _local_fail	 #, local_fail
 454      000001
 455              		.loc 1 164 0
 456 03ca C6050100 		movb	$1, _global_fail	 #, global_fail
 456      000001
 457              		.loc 1 165 0
 458 03d1 8B442408 		movl	8(%esp), %eax	 # point, tmp63
 459 03d5 A3040000 		movl	%eax, _failpoint	 # tmp63, failpoint
 459      00
 460              		.loc 1 166 0
 461 03da B001     		movb	$1, %al	 #, D.36898
GAS LISTING C:\cygwin\tmp\ccs5iBND.s 			page 11


 462              		.loc 1 167 0
 463 03dc 83C404   		addl	$4, %esp	 #,
 464              	LCFI13:
 465              		.cfi_def_cfa_offset 4
 466 03df C3       		ret
 467              		.cfi_endproc
 468              	LFE15:
 469              		.globl	__test_assert
 470              		.def	__test_assert;	.scl	2;	.type	32;	.endef
 471              	__test_assert:
 472              	LFB16:
 473              		.loc 1 169 0
 474              		.cfi_startproc
 475 03e0 83EC14   		subl	$20, %esp	 #,
 476              	LCFI14:
 477              		.cfi_def_cfa_offset 24
 478 03e3 8B44241C 		movl	28(%esp), %eax	 # condition, tmp68
 479 03e7 8844240C 		movb	%al, 12(%esp)	 # tmp68, condition
 480              		.loc 1 171 0
 481 03eb 8A44240C 		movb	12(%esp), %al	 # condition, tmp69
 482 03ef 83F001   		xorl	$1, %eax	 #, D.36893
 483 03f2 84C0     		testb	%al, %al	 # D.36893
 484 03f4 7448     		je	L19	 #,
 485 03f6 A1100300 		movl	LPBX1+720, %eax	 # *LPBX1, PROF_edge_counter.39
 485      00
 486 03fb 8B151403 		movl	LPBX1+724, %edx	 # *LPBX1, PROF_edge_counter.39
 486      0000
 487 0401 83C001   		addl	$1, %eax	 #, PROF_edge_counter.39
 488 0404 83D200   		adcl	$0, %edx	 #, PROF_edge_counter.39
 489 0407 A3100300 		movl	%eax, LPBX1+720	 # PROF_edge_counter.39, *LPBX1
 489      00
 490 040c 89151403 		movl	%edx, LPBX1+724	 # PROF_edge_counter.39, *LPBX1
 490      0000
 491              		.loc 1 172 0
 492 0412 8B442418 		movl	24(%esp), %eax	 # point, tmp70
 493 0416 890424   		movl	%eax, (%esp)	 # tmp70,
 494 0419 E886FFFF 		call	__test_fail	 #
 494      FF
 495 041e 88C1     		movb	%al, %cl	 #, D.36896
 496 0420 A1180300 		movl	LPBX1+728, %eax	 # *LPBX1, PROF_edge_counter.39
 496      00
 497 0425 8B151C03 		movl	LPBX1+732, %edx	 # *LPBX1, PROF_edge_counter.39
 497      0000
 498 042b 83C001   		addl	$1, %eax	 #, PROF_edge_counter.39
 499 042e 83D200   		adcl	$0, %edx	 #, PROF_edge_counter.39
 500 0431 A3180300 		movl	%eax, LPBX1+728	 # PROF_edge_counter.39, *LPBX1
 500      00
 501 0436 89151C03 		movl	%edx, LPBX1+732	 # PROF_edge_counter.39, *LPBX1
 501      0000
 502 043c EB1E     		jmp	L20	 #
 503              	L19:
 504              		.loc 1 173 0
 505 043e B100     		movb	$0, %cl	 #, D.36896
 506 0440 A1200300 		movl	LPBX1+736, %eax	 # *LPBX1, PROF_edge_counter.39
 506      00
 507 0445 8B152403 		movl	LPBX1+740, %edx	 # *LPBX1, PROF_edge_counter.39
 507      0000
GAS LISTING C:\cygwin\tmp\ccs5iBND.s 			page 12


 508 044b 83C001   		addl	$1, %eax	 #, PROF_edge_counter.39
 509 044e 83D200   		adcl	$0, %edx	 #, PROF_edge_counter.39
 510 0451 A3200300 		movl	%eax, LPBX1+736	 # PROF_edge_counter.39, *LPBX1
 510      00
 511 0456 89152403 		movl	%edx, LPBX1+740	 # PROF_edge_counter.39, *LPBX1
 511      0000
 512              	L20:
 513 045c 88C8     		movb	%cl, %al	 # D.36896, <retval>
 514              		.loc 1 174 0
 515 045e 83C414   		addl	$20, %esp	 #,
 516              	LCFI15:
 517              		.cfi_def_cfa_offset 4
 518 0461 C3       		ret
 519              		.cfi_endproc
 520              	LFE16:
 521              		.globl	__test_assert_sequence
 522              		.def	__test_assert_sequence;	.scl	2;	.type	32;	.endef
 523              	__test_assert_sequence:
 524              	LFB17:
 525              		.loc 1 176 0
 526              		.cfi_startproc
 527 0462 83EC1C   		subl	$28, %esp	 #,
 528              	LCFI16:
 529              		.cfi_def_cfa_offset 32
 530              		.loc 1 177 0
 531 0465 C7442414 		movl	$_tokens_buffer, 20(%esp)	 #, cp
 531      08000000 
 532              		.loc 1 178 0
 533 046d E9840000 		jmp	L22	 #
 533      00
 534              	L24:
 535 0472 A1E80200 		movl	LPBX1+680, %eax	 # *LPBX1, PROF_edge_counter.38
 535      00
 536 0477 8B15EC02 		movl	LPBX1+684, %edx	 # *LPBX1, PROF_edge_counter.38
 536      0000
 537 047d 83C001   		addl	$1, %eax	 #, PROF_edge_counter.38
 538 0480 83D200   		adcl	$0, %edx	 #, PROF_edge_counter.38
 539 0483 A3E80200 		movl	%eax, LPBX1+680	 # PROF_edge_counter.38, *LPBX1
 539      00
 540 0488 8915EC02 		movl	%edx, LPBX1+684	 # PROF_edge_counter.38, *LPBX1
 540      0000
 541              		.loc 1 179 0
 542 048e 8B442414 		movl	20(%esp), %eax	 # cp, tmp80
 543 0492 8A10     		movb	(%eax), %dl	 # *cp_2, D.36882
 544 0494 8B442424 		movl	36(%esp), %eax	 # expected, tmp81
 545 0498 8A00     		movb	(%eax), %al	 # *expected_1, D.36883
 546 049a 38C2     		cmpb	%al, %dl	 # D.36883, D.36882
 547 049c 0F95C0   		setne	%al	 #, D.36884
 548 049f FF442414 		incl	20(%esp)	 # cp
 549 04a3 FF442424 		incl	36(%esp)	 # expected
 550 04a7 84C0     		testb	%al, %al	 # D.36884
 551 04a9 744B     		je	L22	 #,
 552 04ab A1D80200 		movl	LPBX1+664, %eax	 # *LPBX1, PROF_edge_counter.38
 552      00
 553 04b0 8B15DC02 		movl	LPBX1+668, %edx	 # *LPBX1, PROF_edge_counter.38
 553      0000
 554 04b6 83C001   		addl	$1, %eax	 #, PROF_edge_counter.38
GAS LISTING C:\cygwin\tmp\ccs5iBND.s 			page 13


 555 04b9 83D200   		adcl	$0, %edx	 #, PROF_edge_counter.38
 556 04bc A3D80200 		movl	%eax, LPBX1+664	 # PROF_edge_counter.38, *LPBX1
 556      00
 557 04c1 8915DC02 		movl	%edx, LPBX1+668	 # PROF_edge_counter.38, *LPBX1
 557      0000
 558              		.loc 1 180 0
 559 04c7 8B442420 		movl	32(%esp), %eax	 # point, tmp82
 560 04cb 890424   		movl	%eax, (%esp)	 # tmp82,
 561 04ce E8D1FEFF 		call	__test_fail	 #
 561      FF
 562 04d3 88C1     		movb	%al, %cl	 #, D.36887
 563 04d5 A1E00200 		movl	LPBX1+672, %eax	 # *LPBX1, PROF_edge_counter.38
 563      00
 564 04da 8B15E402 		movl	LPBX1+676, %edx	 # *LPBX1, PROF_edge_counter.38
 564      0000
 565 04e0 83C001   		addl	$1, %eax	 #, PROF_edge_counter.38
 566 04e3 83D200   		adcl	$0, %edx	 #, PROF_edge_counter.38
 567 04e6 A3E00200 		movl	%eax, LPBX1+672	 # PROF_edge_counter.38, *LPBX1
 567      00
 568 04eb 8915E402 		movl	%edx, LPBX1+676	 # PROF_edge_counter.38, *LPBX1
 568      0000
 569 04f1 E9A00000 		jmp	L23	 #
 569      00
 570              	L22:
 571              		.loc 1 178 0 discriminator 1
 572 04f6 A1180000 		movl	_tokp, %eax	 # tokp, tokp.14
 572      00
 573 04fb 39442414 		cmpl	%eax, 20(%esp)	 # tokp.14, cp
 574 04ff 0F826DFF 		jb	L24	 #,
 574      FFFF
 575              		.loc 1 182 0
 576 0505 8B442424 		movl	36(%esp), %eax	 # expected, tmp83
 577 0509 8A00     		movb	(%eax), %al	 # *expected_1, D.36889
 578 050b 84C0     		testb	%al, %al	 # D.36889
 579 050d 7448     		je	L25	 #,
 580 050f A1F00200 		movl	LPBX1+688, %eax	 # *LPBX1, PROF_edge_counter.38
 580      00
 581 0514 8B15F402 		movl	LPBX1+692, %edx	 # *LPBX1, PROF_edge_counter.38
 581      0000
 582 051a 83C001   		addl	$1, %eax	 #, PROF_edge_counter.38
 583 051d 83D200   		adcl	$0, %edx	 #, PROF_edge_counter.38
 584 0520 A3F00200 		movl	%eax, LPBX1+688	 # PROF_edge_counter.38, *LPBX1
 584      00
 585 0525 8915F402 		movl	%edx, LPBX1+692	 # PROF_edge_counter.38, *LPBX1
 585      0000
 586              		.loc 1 183 0
 587 052b 8B442420 		movl	32(%esp), %eax	 # point, tmp84
 588 052f 890424   		movl	%eax, (%esp)	 # tmp84,
 589 0532 E86DFEFF 		call	__test_fail	 #
 589      FF
 590 0537 88C1     		movb	%al, %cl	 #, D.36887
 591 0539 A1000300 		movl	LPBX1+704, %eax	 # *LPBX1, PROF_edge_counter.38
 591      00
 592 053e 8B150403 		movl	LPBX1+708, %edx	 # *LPBX1, PROF_edge_counter.38
 592      0000
 593 0544 83C001   		addl	$1, %eax	 #, PROF_edge_counter.38
 594 0547 83D200   		adcl	$0, %edx	 #, PROF_edge_counter.38
GAS LISTING C:\cygwin\tmp\ccs5iBND.s 			page 14


 595 054a A3000300 		movl	%eax, LPBX1+704	 # PROF_edge_counter.38, *LPBX1
 595      00
 596 054f 89150403 		movl	%edx, LPBX1+708	 # PROF_edge_counter.38, *LPBX1
 596      0000
 597 0555 EB3F     		jmp	L23	 #
 598              	L25:
 599 0557 A1F80200 		movl	LPBX1+696, %eax	 # *LPBX1, PROF_edge_counter.38
 599      00
 600 055c 8B15FC02 		movl	LPBX1+700, %edx	 # *LPBX1, PROF_edge_counter.38
 600      0000
 601 0562 83C001   		addl	$1, %eax	 #, PROF_edge_counter.38
 602 0565 83D200   		adcl	$0, %edx	 #, PROF_edge_counter.38
 603 0568 A3F80200 		movl	%eax, LPBX1+696	 # PROF_edge_counter.38, *LPBX1
 603      00
 604 056d 8915FC02 		movl	%edx, LPBX1+700	 # PROF_edge_counter.38, *LPBX1
 604      0000
 605              		.loc 1 184 0
 606 0573 E8F4FCFF 		call	_clear_tokens	 #
 606      FF
 607              		.loc 1 185 0
 608 0578 B100     		movb	$0, %cl	 #, D.36887
 609 057a A1080300 		movl	LPBX1+712, %eax	 # *LPBX1, PROF_edge_counter.38
 609      00
 610 057f 8B150C03 		movl	LPBX1+716, %edx	 # *LPBX1, PROF_edge_counter.38
 610      0000
 611 0585 83C001   		addl	$1, %eax	 #, PROF_edge_counter.38
 612 0588 83D200   		adcl	$0, %edx	 #, PROF_edge_counter.38
 613 058b A3080300 		movl	%eax, LPBX1+712	 # PROF_edge_counter.38, *LPBX1
 613      00
 614 0590 89150C03 		movl	%edx, LPBX1+716	 # PROF_edge_counter.38, *LPBX1
 614      0000
 615              	L23:
 616 0596 88C8     		movb	%cl, %al	 # D.36887, <retval>
 617              		.loc 1 186 0
 618 0598 83C41C   		addl	$28, %esp	 #,
 619              	LCFI17:
 620              		.cfi_def_cfa_offset 4
 621 059b C3       		ret
 622              		.cfi_endproc
 623              	LFE17:
 624              		.globl	__test_assert_time_window
 625              		.def	__test_assert_time_window;	.scl	2;	.type	32;	.endef
 626              	__test_assert_time_window:
 627              	LFB18:
 628              		.loc 1 188 0
 629              		.cfi_startproc
 630 059c 83EC1C   		subl	$28, %esp	 #,
 631              	LCFI18:
 632              		.cfi_def_cfa_offset 32
 633              		.loc 1 188 0
 634 059f A1C00200 		movl	LPBX1+640, %eax	 # *LPBX1, PROF_edge_counter.37
 634      00
 635 05a4 8B15C402 		movl	LPBX1+644, %edx	 # *LPBX1, PROF_edge_counter.37
 635      0000
 636 05aa 83C001   		addl	$1, %eax	 #, PROF_edge_counter.37
 637 05ad 83D200   		adcl	$0, %edx	 #, PROF_edge_counter.37
 638 05b0 A3C00200 		movl	%eax, LPBX1+640	 # PROF_edge_counter.37, *LPBX1
GAS LISTING C:\cygwin\tmp\ccs5iBND.s 			page 15


 638      00
 639 05b5 8915C402 		movl	%edx, LPBX1+644	 # PROF_edge_counter.37, *LPBX1
 639      0000
 640              		.loc 1 190 0
 641 05bb 8B442428 		movl	40(%esp), %eax	 # end, tmp69
 642 05bf 89442404 		movl	%eax, 4(%esp)	 # tmp69,
 643 05c3 8B442424 		movl	36(%esp), %eax	 # start, tmp70
 644 05c7 890424   		movl	%eax, (%esp)	 # tmp70,
 645 05ca E8000000 		call	_chTimeIsWithin	 #
 645      00
 646 05cf 88C1     		movb	%al, %cl	 #, D.36879
 647 05d1 A1C80200 		movl	LPBX1+648, %eax	 # *LPBX1, PROF_edge_counter.37
 647      00
 648 05d6 8B15CC02 		movl	LPBX1+652, %edx	 # *LPBX1, PROF_edge_counter.37
 648      0000
 649 05dc 83C001   		addl	$1, %eax	 #, PROF_edge_counter.37
 650 05df 83D200   		adcl	$0, %edx	 #, PROF_edge_counter.37
 651 05e2 A3C80200 		movl	%eax, LPBX1+648	 # PROF_edge_counter.37, *LPBX1
 651      00
 652 05e7 8915CC02 		movl	%edx, LPBX1+652	 # PROF_edge_counter.37, *LPBX1
 652      0000
 653 05ed 0FB6C1   		movzbl	%cl, %eax	 # D.36879, D.36880
 654 05f0 89442404 		movl	%eax, 4(%esp)	 # D.36880,
 655 05f4 8B442420 		movl	32(%esp), %eax	 # point, tmp71
 656 05f8 890424   		movl	%eax, (%esp)	 # tmp71,
 657 05fb E8E0FDFF 		call	__test_assert	 #
 657      FF
 658 0600 88C1     		movb	%al, %cl	 #, D.36878
 659 0602 A1D00200 		movl	LPBX1+656, %eax	 # *LPBX1, PROF_edge_counter.37
 659      00
 660 0607 8B15D402 		movl	LPBX1+660, %edx	 # *LPBX1, PROF_edge_counter.37
 660      0000
 661 060d 83C001   		addl	$1, %eax	 #, PROF_edge_counter.37
 662 0610 83D200   		adcl	$0, %edx	 #, PROF_edge_counter.37
 663 0613 A3D00200 		movl	%eax, LPBX1+656	 # PROF_edge_counter.37, *LPBX1
 663      00
 664 0618 8915D402 		movl	%edx, LPBX1+660	 # PROF_edge_counter.37, *LPBX1
 664      0000
 665 061e 88C8     		movb	%cl, %al	 # D.36878, <retval>
 666              		.loc 1 191 0
 667 0620 83C41C   		addl	$28, %esp	 #,
 668              	LCFI19:
 669              		.cfi_def_cfa_offset 4
 670 0623 C3       		ret
 671              		.cfi_endproc
 672              	LFE18:
 673              		.globl	_test_terminate_threads
 674              		.def	_test_terminate_threads;	.scl	2;	.type	32;	.endef
 675              	_test_terminate_threads:
 676              	LFB19:
 677              		.loc 1 200 0
 678              		.cfi_startproc
 679 0624 83EC2C   		subl	$44, %esp	 #,
 680              	LCFI20:
 681              		.cfi_def_cfa_offset 48
 682              		.loc 1 203 0
 683 0627 C744241C 		movl	$0, 28(%esp)	 #, i
GAS LISTING C:\cygwin\tmp\ccs5iBND.s 			page 16


 683      00000000 
 684 062f EB7A     		jmp	L28	 #
 685              	L30:
 686 0631 A1B00200 		movl	LPBX1+624, %eax	 # *LPBX1, PROF_edge_counter.36
 686      00
 687 0636 8B15B402 		movl	LPBX1+628, %edx	 # *LPBX1, PROF_edge_counter.36
 687      0000
 688 063c 83C001   		addl	$1, %eax	 #, PROF_edge_counter.36
 689 063f 83D200   		adcl	$0, %edx	 #, PROF_edge_counter.36
 690 0642 A3B00200 		movl	%eax, LPBX1+624	 # PROF_edge_counter.36, *LPBX1
 690      00
 691 0647 8915B402 		movl	%edx, LPBX1+628	 # PROF_edge_counter.36, *LPBX1
 691      0000
 692              		.loc 1 204 0
 693 064d 8B44241C 		movl	28(%esp), %eax	 # i, tmp69
 694 0651 8B048500 		movl	_threads(,%eax,4), %eax	 # threads, D.36874
 694      000000
 695 0658 85C0     		testl	%eax, %eax	 # D.36874
 696 065a 742F     		je	L29	 #,
 697 065c A1A00200 		movl	LPBX1+608, %eax	 # *LPBX1, PROF_edge_counter.36
 697      00
 698 0661 8B15A402 		movl	LPBX1+612, %edx	 # *LPBX1, PROF_edge_counter.36
 698      0000
 699 0667 83C001   		addl	$1, %eax	 #, PROF_edge_counter.36
 700 066a 83D200   		adcl	$0, %edx	 #, PROF_edge_counter.36
 701 066d A3A00200 		movl	%eax, LPBX1+608	 # PROF_edge_counter.36, *LPBX1
 701      00
 702 0672 8915A402 		movl	%edx, LPBX1+612	 # PROF_edge_counter.36, *LPBX1
 702      0000
 703              		.loc 1 205 0
 704 0678 8B44241C 		movl	28(%esp), %eax	 # i, tmp70
 705 067c 8B048500 		movl	_threads(,%eax,4), %eax	 # threads, D.36877
 705      000000
 706 0683 890424   		movl	%eax, (%esp)	 # D.36877,
 707 0686 E8000000 		call	_chThdTerminate	 #
 707      00
 708              	L29:
 709              		.loc 1 203 0
 710 068b FF44241C 		incl	28(%esp)	 # i
 711 068f A1A80200 		movl	LPBX1+616, %eax	 # *LPBX1, PROF_edge_counter.36
 711      00
 712 0694 8B15AC02 		movl	LPBX1+620, %edx	 # *LPBX1, PROF_edge_counter.36
 712      0000
 713 069a 83C001   		addl	$1, %eax	 #, PROF_edge_counter.36
 714 069d 83D200   		adcl	$0, %edx	 #, PROF_edge_counter.36
 715 06a0 A3A80200 		movl	%eax, LPBX1+616	 # PROF_edge_counter.36, *LPBX1
 715      00
 716 06a5 8915AC02 		movl	%edx, LPBX1+620	 # PROF_edge_counter.36, *LPBX1
 716      0000
 717              	L28:
 718              		.loc 1 203 0 is_stmt 0 discriminator 1
 719 06ab 837C241C 		cmpl	$4, 28(%esp)	 #, i
 719      04
 720 06b0 0F8E7BFF 		jle	L30	 #,
 720      FFFF
 721              		.loc 1 203 0
 722 06b6 A1B80200 		movl	LPBX1+632, %eax	 # *LPBX1, PROF_edge_counter.36
GAS LISTING C:\cygwin\tmp\ccs5iBND.s 			page 17


 722      00
 723 06bb 8B15BC02 		movl	LPBX1+636, %edx	 # *LPBX1, PROF_edge_counter.36
 723      0000
 724 06c1 83C001   		addl	$1, %eax	 #, PROF_edge_counter.36
 725 06c4 83D200   		adcl	$0, %edx	 #, PROF_edge_counter.36
 726 06c7 A3B80200 		movl	%eax, LPBX1+632	 # PROF_edge_counter.36, *LPBX1
 726      00
 727 06cc 8915BC02 		movl	%edx, LPBX1+636	 # PROF_edge_counter.36, *LPBX1
 727      0000
 728              		.loc 1 206 0 is_stmt 1
 729 06d2 83C42C   		addl	$44, %esp	 #,
 730              	LCFI21:
 731              		.cfi_def_cfa_offset 4
 732 06d5 C3       		ret
 733              		.cfi_endproc
 734              	LFE19:
 735              		.globl	_test_wait_threads
 736              		.def	_test_wait_threads;	.scl	2;	.type	32;	.endef
 737              	_test_wait_threads:
 738              	LFB20:
 739              		.loc 1 211 0
 740              		.cfi_startproc
 741 06d6 83EC2C   		subl	$44, %esp	 #,
 742              	LCFI22:
 743              		.cfi_def_cfa_offset 48
 744              		.loc 1 214 0
 745 06d9 C744241C 		movl	$0, 28(%esp)	 #, i
 745      00000000 
 746 06e1 E9890000 		jmp	L32	 #
 746      00
 747              	L34:
 748 06e6 A1900200 		movl	LPBX1+592, %eax	 # *LPBX1, PROF_edge_counter.35
 748      00
 749 06eb 8B159402 		movl	LPBX1+596, %edx	 # *LPBX1, PROF_edge_counter.35
 749      0000
 750 06f1 83C001   		addl	$1, %eax	 #, PROF_edge_counter.35
 751 06f4 83D200   		adcl	$0, %edx	 #, PROF_edge_counter.35
 752 06f7 A3900200 		movl	%eax, LPBX1+592	 # PROF_edge_counter.35, *LPBX1
 752      00
 753 06fc 89159402 		movl	%edx, LPBX1+596	 # PROF_edge_counter.35, *LPBX1
 753      0000
 754              		.loc 1 215 0
 755 0702 8B44241C 		movl	28(%esp), %eax	 # i, tmp69
 756 0706 8B048500 		movl	_threads(,%eax,4), %eax	 # threads, D.36870
 756      000000
 757 070d 85C0     		testl	%eax, %eax	 # D.36870
 758 070f 743E     		je	L33	 #,
 759              		.loc 1 216 0
 760 0711 8B44241C 		movl	28(%esp), %eax	 # i, tmp70
 761 0715 8B048500 		movl	_threads(,%eax,4), %eax	 # threads, D.36873
 761      000000
 762 071c 890424   		movl	%eax, (%esp)	 # D.36873,
 763 071f E8000000 		call	_chThdWait	 #
 763      00
 764              		.loc 1 217 0
 765 0724 8B44241C 		movl	28(%esp), %eax	 # i, tmp71
 766 0728 C7048500 		movl	$0, _threads(,%eax,4)	 #, threads
GAS LISTING C:\cygwin\tmp\ccs5iBND.s 			page 18


 766      00000000 
 766      000000
 767 0733 A1800200 		movl	LPBX1+576, %eax	 # *LPBX1, PROF_edge_counter.35
 767      00
 768 0738 8B158402 		movl	LPBX1+580, %edx	 # *LPBX1, PROF_edge_counter.35
 768      0000
 769 073e 83C001   		addl	$1, %eax	 #, PROF_edge_counter.35
 770 0741 83D200   		adcl	$0, %edx	 #, PROF_edge_counter.35
 771 0744 A3800200 		movl	%eax, LPBX1+576	 # PROF_edge_counter.35, *LPBX1
 771      00
 772 0749 89158402 		movl	%edx, LPBX1+580	 # PROF_edge_counter.35, *LPBX1
 772      0000
 773              	L33:
 774              		.loc 1 214 0
 775 074f FF44241C 		incl	28(%esp)	 # i
 776 0753 A1880200 		movl	LPBX1+584, %eax	 # *LPBX1, PROF_edge_counter.35
 776      00
 777 0758 8B158C02 		movl	LPBX1+588, %edx	 # *LPBX1, PROF_edge_counter.35
 777      0000
 778 075e 83C001   		addl	$1, %eax	 #, PROF_edge_counter.35
 779 0761 83D200   		adcl	$0, %edx	 #, PROF_edge_counter.35
 780 0764 A3880200 		movl	%eax, LPBX1+584	 # PROF_edge_counter.35, *LPBX1
 780      00
 781 0769 89158C02 		movl	%edx, LPBX1+588	 # PROF_edge_counter.35, *LPBX1
 781      0000
 782              	L32:
 783              		.loc 1 214 0 is_stmt 0 discriminator 1
 784 076f 837C241C 		cmpl	$4, 28(%esp)	 #, i
 784      04
 785 0774 0F8E6CFF 		jle	L34	 #,
 785      FFFF
 786              		.loc 1 214 0
 787 077a A1980200 		movl	LPBX1+600, %eax	 # *LPBX1, PROF_edge_counter.35
 787      00
 788 077f 8B159C02 		movl	LPBX1+604, %edx	 # *LPBX1, PROF_edge_counter.35
 788      0000
 789 0785 83C001   		addl	$1, %eax	 #, PROF_edge_counter.35
 790 0788 83D200   		adcl	$0, %edx	 #, PROF_edge_counter.35
 791 078b A3980200 		movl	%eax, LPBX1+600	 # PROF_edge_counter.35, *LPBX1
 791      00
 792 0790 89159C02 		movl	%edx, LPBX1+604	 # PROF_edge_counter.35, *LPBX1
 792      0000
 793              		.loc 1 219 0 is_stmt 1
 794 0796 83C42C   		addl	$44, %esp	 #,
 795              	LCFI23:
 796              		.cfi_def_cfa_offset 4
 797 0799 C3       		ret
 798              		.cfi_endproc
 799              	LFE20:
 800              		.globl	_test_cpu_pulse
 801              		.def	_test_cpu_pulse;	.scl	2;	.type	32;	.endef
 802              	_test_cpu_pulse:
 803              	LFB21:
 804              		.loc 1 228 0
 805              		.cfi_startproc
 806 079a 83EC2C   		subl	$44, %esp	 #,
 807              	LCFI24:
GAS LISTING C:\cygwin\tmp\ccs5iBND.s 			page 19


 808              		.cfi_def_cfa_offset 48
 809              		.loc 1 231 0
 810 079d A1180000 		movl	_rlist+24, %eax	 # rlist.r_current, D.36850
 810      00
 811 07a2 8B4020   		movl	32(%eax), %eax	 # D.36850_4->p_time, tmp84
 812 07a5 8944241C 		movl	%eax, 28(%esp)	 # tmp84, start
 813              		.loc 1 232 0
 814 07a9 8B542430 		movl	48(%esp), %edx	 # duration, tmp85
 815 07ad 89D0     		movl	%edx, %eax	 # tmp85, tmp86
 816 07af C1E002   		sall	$2, %eax	 #, tmp86
 817 07b2 01D0     		addl	%edx, %eax	 # tmp85, tmp86
 818 07b4 8D148500 		leal	0(,%eax,4), %edx	 #, tmp87
 818      000000
 819 07bb 01D0     		addl	%edx, %eax	 # tmp87, tmp86
 820 07bd 8D148500 		leal	0(,%eax,4), %edx	 #, tmp88
 820      000000
 821 07c4 01D0     		addl	%edx, %eax	 # tmp88, tmp86
 822 07c6 C1E003   		sall	$3, %eax	 #, tmp89
 823 07c9 2DE80300 		subl	$1000, %eax	 #,
 823      00
 824 07ce 8944240C 		movl	%eax, 12(%esp)	 #, %sfp
 825 07d2 BAD34D62 		movl	$274877907, %edx	 #, tmp91
 825      10
 826 07d7 8B44240C 		movl	12(%esp), %eax	 # %sfp,
 827 07db F7E2     		mull	%edx	 # tmp91
 828 07dd 89D0     		movl	%edx, %eax	 # tmp90, D.36853
 829 07df C1E806   		shrl	$6, %eax	 #, D.36853
 830 07e2 0344241C 		addl	28(%esp), %eax	 # start, D.36854
 831 07e6 40       		incl	%eax	 # tmp92
 832 07e7 89442418 		movl	%eax, 24(%esp)	 # tmp92, end
 833 07eb A1400200 		movl	LPBX1+512, %eax	 # *LPBX1, PROF_edge_counter.34
 833      00
 834 07f0 8B154402 		movl	LPBX1+516, %edx	 # *LPBX1, PROF_edge_counter.34
 834      0000
 835 07f6 83C001   		addl	$1, %eax	 #, PROF_edge_counter.34
 836 07f9 83D200   		adcl	$0, %edx	 #, PROF_edge_counter.34
 837 07fc A3400200 		movl	%eax, LPBX1+512	 # PROF_edge_counter.34, *LPBX1
 837      00
 838 0801 89154402 		movl	%edx, LPBX1+516	 # PROF_edge_counter.34, *LPBX1
 838      0000
 839              	L43:
 840              		.loc 1 234 0
 841 0807 A1180000 		movl	_rlist+24, %eax	 # rlist.r_current, D.36855
 841      00
 842 080c 8B4020   		movl	32(%eax), %eax	 # D.36855_12->p_time, tmp93
 843 080f 89442414 		movl	%eax, 20(%esp)	 # tmp93, now
 844              		.loc 1 236 0
 845 0813 E8000000 		call	_ChkIntSources	 #
 845      00
 846              		.loc 1 239 0
 847 0818 8B442418 		movl	24(%esp), %eax	 # end, tmp94
 848 081c 3B44241C 		cmpl	28(%esp), %eax	 # start, tmp94
 849 0820 7676     		jbe	L36	 #,
 850              		.loc 1 239 0 is_stmt 0 discriminator 1
 851 0822 8B442414 		movl	20(%esp), %eax	 # now, tmp95
 852 0826 3B44241C 		cmpl	28(%esp), %eax	 # start, tmp95
 853 082a 722D     		jb	L37	 #,
GAS LISTING C:\cygwin\tmp\ccs5iBND.s 			page 20


 854              		.loc 1 239 0 discriminator 3
 855 082c A1480200 		movl	LPBX1+520, %eax	 # *LPBX1, PROF_edge_counter.34
 855      00
 856 0831 8B154C02 		movl	LPBX1+524, %edx	 # *LPBX1, PROF_edge_counter.34
 856      0000
 857 0837 83C001   		addl	$1, %eax	 #, PROF_edge_counter.34
 858 083a 83D200   		adcl	$0, %edx	 #, PROF_edge_counter.34
 859 083d A3480200 		movl	%eax, LPBX1+520	 # PROF_edge_counter.34, *LPBX1
 859      00
 860 0842 89154C02 		movl	%edx, LPBX1+524	 # PROF_edge_counter.34, *LPBX1
 860      0000
 861 0848 8B442414 		movl	20(%esp), %eax	 # now, tmp96
 862 084c 3B442418 		cmpl	24(%esp), %eax	 # end, tmp96
 863 0850 7307     		jae	L37	 #,
 864              		.loc 1 239 0 discriminator 1
 865 0852 B9010000 		movl	$1, %ecx	 #, iftmp.12
 865      00
 866 0857 EB21     		jmp	L38	 #
 867              	L37:
 868              		.loc 1 239 0 discriminator 4
 869 0859 B9000000 		movl	$0, %ecx	 #, iftmp.12
 869      00
 870 085e A1500200 		movl	LPBX1+528, %eax	 # *LPBX1, PROF_edge_counter.34
 870      00
 871 0863 8B155402 		movl	LPBX1+532, %edx	 # *LPBX1, PROF_edge_counter.34
 871      0000
 872 0869 83C001   		addl	$1, %eax	 #, PROF_edge_counter.34
 873 086c 83D200   		adcl	$0, %edx	 #, PROF_edge_counter.34
 874 086f A3500200 		movl	%eax, LPBX1+528	 # PROF_edge_counter.34, *LPBX1
 874      00
 875 0874 89155402 		movl	%edx, LPBX1+532	 # PROF_edge_counter.34, *LPBX1
 875      0000
 876              	L38:
 877              		.loc 1 239 0 discriminator 5
 878 087a A1580200 		movl	LPBX1+536, %eax	 # *LPBX1, PROF_edge_counter.34
 878      00
 879 087f 8B155C02 		movl	LPBX1+540, %edx	 # *LPBX1, PROF_edge_counter.34
 879      0000
 880 0885 83C001   		addl	$1, %eax	 #, PROF_edge_counter.34
 881 0888 83D200   		adcl	$0, %edx	 #, PROF_edge_counter.34
 882 088b A3580200 		movl	%eax, LPBX1+536	 # PROF_edge_counter.34, *LPBX1
 882      00
 883 0890 89155C02 		movl	%edx, LPBX1+540	 # PROF_edge_counter.34, *LPBX1
 883      0000
 884 0896 EB74     		jmp	L39	 #
 885              	L36:
 886              		.loc 1 239 0 discriminator 2
 887 0898 8B442414 		movl	20(%esp), %eax	 # now, tmp97
 888 089c 3B44241C 		cmpl	28(%esp), %eax	 # start, tmp97
 889 08a0 7326     		jae	L40	 #,
 890              		.loc 1 239 0
 891 08a2 A1600200 		movl	LPBX1+544, %eax	 # *LPBX1, PROF_edge_counter.34
 891      00
 892 08a7 8B156402 		movl	LPBX1+548, %edx	 # *LPBX1, PROF_edge_counter.34
 892      0000
 893 08ad 83C001   		addl	$1, %eax	 #, PROF_edge_counter.34
 894 08b0 83D200   		adcl	$0, %edx	 #, PROF_edge_counter.34
GAS LISTING C:\cygwin\tmp\ccs5iBND.s 			page 21


 895 08b3 A3600200 		movl	%eax, LPBX1+544	 # PROF_edge_counter.34, *LPBX1
 895      00
 896 08b8 89156402 		movl	%edx, LPBX1+548	 # PROF_edge_counter.34, *LPBX1
 896      0000
 897              		.loc 1 240 0 is_stmt 1
 898 08be 8B442414 		movl	20(%esp), %eax	 # now, tmp98
 899 08c2 3B442418 		cmpl	24(%esp), %eax	 # end, tmp98
 900 08c6 7307     		jae	L41	 #,
 901              	L40:
 902              		.loc 1 239 0 discriminator 6
 903 08c8 B9010000 		movl	$1, %ecx	 #, iftmp.13
 903      00
 904 08cd EB21     		jmp	L42	 #
 905              	L41:
 906              		.loc 1 239 0 is_stmt 0
 907 08cf B9000000 		movl	$0, %ecx	 #, iftmp.13
 907      00
 908 08d4 A1680200 		movl	LPBX1+552, %eax	 # *LPBX1, PROF_edge_counter.34
 908      00
 909 08d9 8B156C02 		movl	LPBX1+556, %edx	 # *LPBX1, PROF_edge_counter.34
 909      0000
 910 08df 83C001   		addl	$1, %eax	 #, PROF_edge_counter.34
 911 08e2 83D200   		adcl	$0, %edx	 #, PROF_edge_counter.34
 912 08e5 A3680200 		movl	%eax, LPBX1+552	 # PROF_edge_counter.34, *LPBX1
 912      00
 913 08ea 89156C02 		movl	%edx, LPBX1+556	 # PROF_edge_counter.34, *LPBX1
 913      0000
 914              	L42:
 915              		.loc 1 239 0 discriminator 7
 916 08f0 A1700200 		movl	LPBX1+560, %eax	 # *LPBX1, PROF_edge_counter.34
 916      00
 917 08f5 8B157402 		movl	LPBX1+564, %edx	 # *LPBX1, PROF_edge_counter.34
 917      0000
 918 08fb 83C001   		addl	$1, %eax	 #, PROF_edge_counter.34
 919 08fe 83D200   		adcl	$0, %edx	 #, PROF_edge_counter.34
 920 0901 A3700200 		movl	%eax, LPBX1+560	 # PROF_edge_counter.34, *LPBX1
 920      00
 921 0906 89157402 		movl	%edx, LPBX1+564	 # PROF_edge_counter.34, *LPBX1
 921      0000
 922              	L39:
 923              		.loc 1 240 0 is_stmt 1
 924 090c 84C9     		testb	%cl, %cl	 # iftmp.11
 925 090e 0F85F3FE 		jne	L43	 #,
 925      FFFF
 926 0914 A1780200 		movl	LPBX1+568, %eax	 # *LPBX1, PROF_edge_counter.34
 926      00
 927 0919 8B157C02 		movl	LPBX1+572, %edx	 # *LPBX1, PROF_edge_counter.34
 927      0000
 928 091f 83C001   		addl	$1, %eax	 #, PROF_edge_counter.34
 929 0922 83D200   		adcl	$0, %edx	 #, PROF_edge_counter.34
 930 0925 A3780200 		movl	%eax, LPBX1+568	 # PROF_edge_counter.34, *LPBX1
 930      00
 931 092a 89157C02 		movl	%edx, LPBX1+572	 # PROF_edge_counter.34, *LPBX1
 931      0000
 932              		.loc 1 241 0
 933 0930 83C42C   		addl	$44, %esp	 #,
 934              	LCFI25:
GAS LISTING C:\cygwin\tmp\ccs5iBND.s 			page 22


 935              		.cfi_def_cfa_offset 4
 936 0933 C3       		ret
 937              		.cfi_endproc
 938              	LFE21:
 939              		.globl	_test_wait_tick
 940              		.def	_test_wait_tick;	.scl	2;	.type	32;	.endef
 941              	_test_wait_tick:
 942              	LFB22:
 943              		.loc 1 249 0
 944              		.cfi_startproc
 945 0934 83EC1C   		subl	$28, %esp	 #,
 946              	LCFI26:
 947              		.cfi_def_cfa_offset 32
 948              		.loc 1 249 0
 949 0937 A1300200 		movl	LPBX1+496, %eax	 # *LPBX1, PROF_edge_counter.33
 949      00
 950 093c 8B153402 		movl	LPBX1+500, %edx	 # *LPBX1, PROF_edge_counter.33
 950      0000
 951 0942 83C001   		addl	$1, %eax	 #, PROF_edge_counter.33
 952 0945 83D200   		adcl	$0, %edx	 #, PROF_edge_counter.33
 953 0948 A3300200 		movl	%eax, LPBX1+496	 # PROF_edge_counter.33, *LPBX1
 953      00
 954 094d 89153402 		movl	%edx, LPBX1+500	 # PROF_edge_counter.33, *LPBX1
 954      0000
 955              		.loc 1 251 0
 956 0953 C7042401 		movl	$1, (%esp)	 #,
 956      000000
 957 095a E8000000 		call	_chThdSleep	 #
 957      00
 958 095f A1380200 		movl	LPBX1+504, %eax	 # *LPBX1, PROF_edge_counter.33
 958      00
 959 0964 8B153C02 		movl	LPBX1+508, %edx	 # *LPBX1, PROF_edge_counter.33
 959      0000
 960 096a 83C001   		addl	$1, %eax	 #, PROF_edge_counter.33
 961 096d 83D200   		adcl	$0, %edx	 #, PROF_edge_counter.33
 962 0970 A3380200 		movl	%eax, LPBX1+504	 # PROF_edge_counter.33, *LPBX1
 962      00
 963 0975 89153C02 		movl	%edx, LPBX1+508	 # PROF_edge_counter.33, *LPBX1
 963      0000
 964              		.loc 1 252 0
 965 097b A10C0000 		movl	_vtlist+12, %eax	 # vtlist.vt_systime, D.36848
 965      00
 966              		.loc 1 253 0
 967 0980 83C41C   		addl	$28, %esp	 #,
 968              	LCFI27:
 969              		.cfi_def_cfa_offset 4
 970 0983 C3       		ret
 971              		.cfi_endproc
 972              	LFE22:
 973              		.comm	_test_timer_done, 1, 0
 974              	.lcomm _vt,20,4
 975              		.def	_tmr;	.scl	3;	.type	32;	.endef
 976              	_tmr:
 977              	LFB23:
 978              		.loc 1 265 0
 979              		.cfi_startproc
 980 0984 83EC04   		subl	$4, %esp	 #,
GAS LISTING C:\cygwin\tmp\ccs5iBND.s 			page 23


 981              	LCFI28:
 982              		.cfi_def_cfa_offset 8
 983              		.loc 1 265 0
 984 0987 A1280200 		movl	LPBX1+488, %eax	 # *LPBX1, PROF_edge_counter.32
 984      00
 985 098c 8B152C02 		movl	LPBX1+492, %edx	 # *LPBX1, PROF_edge_counter.32
 985      0000
 986 0992 83C001   		addl	$1, %eax	 #, PROF_edge_counter.32
 987 0995 83D200   		adcl	$0, %edx	 #, PROF_edge_counter.32
 988 0998 A3280200 		movl	%eax, LPBX1+488	 # PROF_edge_counter.32, *LPBX1
 988      00
 989 099d 89152C02 		movl	%edx, LPBX1+492	 # PROF_edge_counter.32, *LPBX1
 989      0000
 990              		.loc 1 268 0
 991 09a3 C6050000 		movb	$1, _test_timer_done	 #, test_timer_done
 991      000001
 992              		.loc 1 269 0
 993 09aa 83C404   		addl	$4, %esp	 #,
 994              	LCFI29:
 995              		.cfi_def_cfa_offset 4
 996 09ad C3       		ret
 997              		.cfi_endproc
 998              	LFE23:
 999              		.globl	_test_start_timer
 1000              		.def	_test_start_timer;	.scl	2;	.type	32;	.endef
 1001              	_test_start_timer:
 1002              	LFB24:
 1003              		.loc 1 276 0
 1004              		.cfi_startproc
 1005 09ae 83EC3C   		subl	$60, %esp	 #,
 1006              	LCFI30:
 1007              		.cfi_def_cfa_offset 64
 1008              		.loc 1 276 0
 1009 09b1 A1080200 		movl	LPBX1+456, %eax	 # *LPBX1, PROF_edge_counter.31
 1009      00
 1010 09b6 8B150C02 		movl	LPBX1+460, %edx	 # *LPBX1, PROF_edge_counter.31
 1010      0000
 1011 09bc 83C001   		addl	$1, %eax	 #, PROF_edge_counter.31
 1012 09bf 83D200   		adcl	$0, %edx	 #, PROF_edge_counter.31
 1013 09c2 A3080200 		movl	%eax, LPBX1+456	 # PROF_edge_counter.31, *LPBX1
 1013      00
 1014 09c7 89150C02 		movl	%edx, LPBX1+460	 # PROF_edge_counter.31, *LPBX1
 1014      0000
 1015              		.loc 1 278 0
 1016 09cd 8B542440 		movl	64(%esp), %edx	 # ms, tmp70
 1017 09d1 89D0     		movl	%edx, %eax	 # tmp70, tmp71
 1018 09d3 C1E002   		sall	$2, %eax	 #, tmp71
 1019 09d6 01D0     		addl	%edx, %eax	 # tmp70, tmp71
 1020 09d8 8D148500 		leal	0(,%eax,4), %edx	 #, tmp72
 1020      000000
 1021 09df 01D0     		addl	%edx, %eax	 # tmp72, tmp71
 1022 09e1 8D148500 		leal	0(,%eax,4), %edx	 #, tmp73
 1022      000000
 1023 09e8 01D0     		addl	%edx, %eax	 # tmp73, tmp71
 1024 09ea C1E003   		sall	$3, %eax	 #, tmp74
 1025 09ed 2DE80300 		subl	$1000, %eax	 #,
 1025      00
GAS LISTING C:\cygwin\tmp\ccs5iBND.s 			page 24


 1026 09f2 8944241C 		movl	%eax, 28(%esp)	 #, %sfp
 1027 09f6 BAD34D62 		movl	$274877907, %edx	 #, tmp76
 1027      10
 1028 09fb 8B44241C 		movl	28(%esp), %eax	 # %sfp,
 1029 09ff F7E2     		mull	%edx	 # tmp76
 1030 0a01 89D0     		movl	%edx, %eax	 # tmp75, D.36847
 1031 0a03 C1E806   		shrl	$6, %eax	 #, D.36847
 1032 0a06 40       		incl	%eax	 # tmp77
 1033 0a07 8944242C 		movl	%eax, 44(%esp)	 # tmp77, duration
 1034              		.loc 1 279 0
 1035 0a0b C6050000 		movb	$0, _test_timer_done	 #, test_timer_done
 1035      000000
 1036              		.loc 1 280 0
 1037              	/APP
 1038              	 # 280 "../../test/test.c" 1
 1039 0a12 90       		nop
 1040              	 # 0 "" 2
 1041              	/NO_APP
 1042 0a13 A1100200 		movl	LPBX1+464, %eax	 # *LPBX1, PROF_edge_counter.31
 1042      00
 1043 0a18 8B151402 		movl	LPBX1+468, %edx	 # *LPBX1, PROF_edge_counter.31
 1043      0000
 1044 0a1e 83C001   		addl	$1, %eax	 #, PROF_edge_counter.31
 1045 0a21 83D200   		adcl	$0, %edx	 #, PROF_edge_counter.31
 1046 0a24 A3100200 		movl	%eax, LPBX1+464	 # PROF_edge_counter.31, *LPBX1
 1046      00
 1047 0a29 89151402 		movl	%edx, LPBX1+468	 # PROF_edge_counter.31, *LPBX1
 1047      0000
 1048 0a2f C744240C 		movl	$0, 12(%esp)	 #,
 1048      00000000 
 1049 0a37 C7442408 		movl	$_tmr, 8(%esp)	 #,
 1049      84090000 
 1050 0a3f 8B44242C 		movl	44(%esp), %eax	 # duration, tmp78
 1051 0a43 89442404 		movl	%eax, 4(%esp)	 # tmp78,
 1052 0a47 C7042420 		movl	$_vt, (%esp)	 #,
 1052      000000
 1053 0a4e E8000000 		call	_chVTSetI	 #
 1053      00
 1054 0a53 A1180200 		movl	LPBX1+472, %eax	 # *LPBX1, PROF_edge_counter.31
 1054      00
 1055 0a58 8B151C02 		movl	LPBX1+476, %edx	 # *LPBX1, PROF_edge_counter.31
 1055      0000
 1056 0a5e 83C001   		addl	$1, %eax	 #, PROF_edge_counter.31
 1057 0a61 83D200   		adcl	$0, %edx	 #, PROF_edge_counter.31
 1058 0a64 A3180200 		movl	%eax, LPBX1+472	 # PROF_edge_counter.31, *LPBX1
 1058      00
 1059 0a69 89151C02 		movl	%edx, LPBX1+476	 # PROF_edge_counter.31, *LPBX1
 1059      0000
 1060              	/APP
 1061              	 # 280 "../../test/test.c" 1
 1062 0a6f 90       		nop
 1063              	 # 0 "" 2
 1064              	/NO_APP
 1065 0a70 A1200200 		movl	LPBX1+480, %eax	 # *LPBX1, PROF_edge_counter.31
 1065      00
 1066 0a75 8B152402 		movl	LPBX1+484, %edx	 # *LPBX1, PROF_edge_counter.31
 1066      0000
GAS LISTING C:\cygwin\tmp\ccs5iBND.s 			page 25


 1067 0a7b 83C001   		addl	$1, %eax	 #, PROF_edge_counter.31
 1068 0a7e 83D200   		adcl	$0, %edx	 #, PROF_edge_counter.31
 1069 0a81 A3200200 		movl	%eax, LPBX1+480	 # PROF_edge_counter.31, *LPBX1
 1069      00
 1070 0a86 89152402 		movl	%edx, LPBX1+484	 # PROF_edge_counter.31, *LPBX1
 1070      0000
 1071              		.loc 1 281 0
 1072 0a8c 83C43C   		addl	$60, %esp	 #,
 1073              	LCFI31:
 1074              		.cfi_def_cfa_offset 4
 1075 0a8f C3       		ret
 1076              		.cfi_endproc
 1077              	LFE24:
 1078              		.def	_execute_test;	.scl	3;	.type	32;	.endef
 1079              	_execute_test:
 1080              	LFB25:
 1081              		.loc 1 286 0
 1082              		.cfi_startproc
 1083 0a90 83EC1C   		subl	$28, %esp	 #,
 1084              	LCFI32:
 1085              		.cfi_def_cfa_offset 32
 1086              		.loc 1 286 0
 1087 0a93 A1C00100 		movl	LPBX1+384, %eax	 # *LPBX1, PROF_edge_counter.30
 1087      00
 1088 0a98 8B15C401 		movl	LPBX1+388, %edx	 # *LPBX1, PROF_edge_counter.30
 1088      0000
 1089 0a9e 83C001   		addl	$1, %eax	 #, PROF_edge_counter.30
 1090 0aa1 83D200   		adcl	$0, %edx	 #, PROF_edge_counter.30
 1091 0aa4 A3C00100 		movl	%eax, LPBX1+384	 # PROF_edge_counter.30, *LPBX1
 1091      00
 1092 0aa9 8915C401 		movl	%edx, LPBX1+388	 # PROF_edge_counter.30, *LPBX1
 1092      0000
 1093              		.loc 1 290 0
 1094 0aaf E8B8F7FF 		call	_clear_tokens	 #
 1094      FF
 1095              		.loc 1 291 0
 1096 0ab4 C6050000 		movb	$0, _local_fail	 #, local_fail
 1096      000000
 1097              		.loc 1 292 0
 1098 0abb C744240C 		movl	$0, 12(%esp)	 #, i
 1098      00000000 
 1099 0ac3 EB2F     		jmp	L48	 #
 1100              	L49:
 1101              		.loc 1 292 0 is_stmt 0 discriminator 2
 1102 0ac5 A1C80100 		movl	LPBX1+392, %eax	 # *LPBX1, PROF_edge_counter.30
 1102      00
 1103 0aca 8B15CC01 		movl	LPBX1+396, %edx	 # *LPBX1, PROF_edge_counter.30
 1103      0000
 1104 0ad0 83C001   		addl	$1, %eax	 #, PROF_edge_counter.30
 1105 0ad3 83D200   		adcl	$0, %edx	 #, PROF_edge_counter.30
 1106 0ad6 A3C80100 		movl	%eax, LPBX1+392	 # PROF_edge_counter.30, *LPBX1
 1106      00
 1107 0adb 8915CC01 		movl	%edx, LPBX1+396	 # PROF_edge_counter.30, *LPBX1
 1107      0000
 1108              		.loc 1 293 0 is_stmt 1 discriminator 2
 1109 0ae1 8B44240C 		movl	12(%esp), %eax	 # i, tmp82
 1110 0ae5 C7048500 		movl	$0, _threads(,%eax,4)	 #, threads
GAS LISTING C:\cygwin\tmp\ccs5iBND.s 			page 26


 1110      00000000 
 1110      000000
 1111              		.loc 1 292 0 discriminator 2
 1112 0af0 FF44240C 		incl	12(%esp)	 # i
 1113              	L48:
 1114              		.loc 1 292 0 is_stmt 0 discriminator 1
 1115 0af4 837C240C 		cmpl	$4, 12(%esp)	 #, i
 1115      04
 1116 0af9 7ECA     		jle	L49	 #,
 1117              		.loc 1 292 0
 1118 0afb A1D00100 		movl	LPBX1+400, %eax	 # *LPBX1, PROF_edge_counter.30
 1118      00
 1119 0b00 8B15D401 		movl	LPBX1+404, %edx	 # *LPBX1, PROF_edge_counter.30
 1119      0000
 1120 0b06 83C001   		addl	$1, %eax	 #, PROF_edge_counter.30
 1121 0b09 83D200   		adcl	$0, %edx	 #, PROF_edge_counter.30
 1122 0b0c A3D00100 		movl	%eax, LPBX1+400	 # PROF_edge_counter.30, *LPBX1
 1122      00
 1123 0b11 8915D401 		movl	%edx, LPBX1+404	 # PROF_edge_counter.30, *LPBX1
 1123      0000
 1124              		.loc 1 295 0 is_stmt 1
 1125 0b17 8B442420 		movl	32(%esp), %eax	 # tcp, tmp83
 1126 0b1b 8B4004   		movl	4(%eax), %eax	 # tcp_4(D)->setup, D.36836
 1127 0b1e 85C0     		testl	%eax, %eax	 # D.36836
 1128 0b20 7441     		je	L50	 #,
 1129 0b22 A1D80100 		movl	LPBX1+408, %eax	 # *LPBX1, PROF_edge_counter.30
 1129      00
 1130 0b27 8B15DC01 		movl	LPBX1+412, %edx	 # *LPBX1, PROF_edge_counter.30
 1130      0000
 1131 0b2d 83C001   		addl	$1, %eax	 #, PROF_edge_counter.30
 1132 0b30 83D200   		adcl	$0, %edx	 #, PROF_edge_counter.30
 1133 0b33 A3D80100 		movl	%eax, LPBX1+408	 # PROF_edge_counter.30, *LPBX1
 1133      00
 1134 0b38 8915DC01 		movl	%edx, LPBX1+412	 # PROF_edge_counter.30, *LPBX1
 1134      0000
 1135              		.loc 1 296 0
 1136 0b3e 8B442420 		movl	32(%esp), %eax	 # tcp, tmp84
 1137 0b42 8B4004   		movl	4(%eax), %eax	 # tcp_4(D)->setup, D.36839
 1138 0b45 FFD0     		call	*%eax	 # D.36839
 1139 0b47 A1E00100 		movl	LPBX1+416, %eax	 # *LPBX1, PROF_edge_counter.30
 1139      00
 1140 0b4c 8B15E401 		movl	LPBX1+420, %edx	 # *LPBX1, PROF_edge_counter.30
 1140      0000
 1141 0b52 83C001   		addl	$1, %eax	 #, PROF_edge_counter.30
 1142 0b55 83D200   		adcl	$0, %edx	 #, PROF_edge_counter.30
 1143 0b58 A3E00100 		movl	%eax, LPBX1+416	 # PROF_edge_counter.30, *LPBX1
 1143      00
 1144 0b5d 8915E401 		movl	%edx, LPBX1+420	 # PROF_edge_counter.30, *LPBX1
 1144      0000
 1145              	L50:
 1146              		.loc 1 297 0
 1147 0b63 8B442420 		movl	32(%esp), %eax	 # tcp, tmp85
 1148 0b67 8B400C   		movl	12(%eax), %eax	 # tcp_4(D)->execute, D.36840
 1149 0b6a FFD0     		call	*%eax	 # D.36840
 1150 0b6c A1E80100 		movl	LPBX1+424, %eax	 # *LPBX1, PROF_edge_counter.30
 1150      00
 1151 0b71 8B15EC01 		movl	LPBX1+428, %edx	 # *LPBX1, PROF_edge_counter.30
GAS LISTING C:\cygwin\tmp\ccs5iBND.s 			page 27


 1151      0000
 1152 0b77 83C001   		addl	$1, %eax	 #, PROF_edge_counter.30
 1153 0b7a 83D200   		adcl	$0, %edx	 #, PROF_edge_counter.30
 1154 0b7d A3E80100 		movl	%eax, LPBX1+424	 # PROF_edge_counter.30, *LPBX1
 1154      00
 1155 0b82 8915EC01 		movl	%edx, LPBX1+428	 # PROF_edge_counter.30, *LPBX1
 1155      0000
 1156              		.loc 1 298 0
 1157 0b88 8B442420 		movl	32(%esp), %eax	 # tcp, tmp86
 1158 0b8c 8B4008   		movl	8(%eax), %eax	 # tcp_4(D)->teardown, D.36841
 1159 0b8f 85C0     		testl	%eax, %eax	 # D.36841
 1160 0b91 7441     		je	L51	 #,
 1161 0b93 A1F00100 		movl	LPBX1+432, %eax	 # *LPBX1, PROF_edge_counter.30
 1161      00
 1162 0b98 8B15F401 		movl	LPBX1+436, %edx	 # *LPBX1, PROF_edge_counter.30
 1162      0000
 1163 0b9e 83C001   		addl	$1, %eax	 #, PROF_edge_counter.30
 1164 0ba1 83D200   		adcl	$0, %edx	 #, PROF_edge_counter.30
 1165 0ba4 A3F00100 		movl	%eax, LPBX1+432	 # PROF_edge_counter.30, *LPBX1
 1165      00
 1166 0ba9 8915F401 		movl	%edx, LPBX1+436	 # PROF_edge_counter.30, *LPBX1
 1166      0000
 1167              		.loc 1 299 0
 1168 0baf 8B442420 		movl	32(%esp), %eax	 # tcp, tmp87
 1169 0bb3 8B4008   		movl	8(%eax), %eax	 # tcp_4(D)->teardown, D.36844
 1170 0bb6 FFD0     		call	*%eax	 # D.36844
 1171 0bb8 A1F80100 		movl	LPBX1+440, %eax	 # *LPBX1, PROF_edge_counter.30
 1171      00
 1172 0bbd 8B15FC01 		movl	LPBX1+444, %edx	 # *LPBX1, PROF_edge_counter.30
 1172      0000
 1173 0bc3 83C001   		addl	$1, %eax	 #, PROF_edge_counter.30
 1174 0bc6 83D200   		adcl	$0, %edx	 #, PROF_edge_counter.30
 1175 0bc9 A3F80100 		movl	%eax, LPBX1+440	 # PROF_edge_counter.30, *LPBX1
 1175      00
 1176 0bce 8915FC01 		movl	%edx, LPBX1+444	 # PROF_edge_counter.30, *LPBX1
 1176      0000
 1177              	L51:
 1178              		.loc 1 301 0
 1179 0bd4 E8FDFAFF 		call	_test_wait_threads	 #
 1179      FF
 1180 0bd9 A1000200 		movl	LPBX1+448, %eax	 # *LPBX1, PROF_edge_counter.30
 1180      00
 1181 0bde 8B150402 		movl	LPBX1+452, %edx	 # *LPBX1, PROF_edge_counter.30
 1181      0000
 1182 0be4 83C001   		addl	$1, %eax	 #, PROF_edge_counter.30
 1183 0be7 83D200   		adcl	$0, %edx	 #, PROF_edge_counter.30
 1184 0bea A3000200 		movl	%eax, LPBX1+448	 # PROF_edge_counter.30, *LPBX1
 1184      00
 1185 0bef 89150402 		movl	%edx, LPBX1+452	 # PROF_edge_counter.30, *LPBX1
 1185      0000
 1186              		.loc 1 302 0
 1187 0bf5 83C41C   		addl	$28, %esp	 #,
 1188              	LCFI33:
 1189              		.cfi_def_cfa_offset 4
 1190 0bf8 C3       		ret
 1191              		.cfi_endproc
 1192              	LFE25:
GAS LISTING C:\cygwin\tmp\ccs5iBND.s 			page 28


 1193              		.def	_print_line;	.scl	3;	.type	32;	.endef
 1194              	_print_line:
 1195              	LFB26:
 1196              		.loc 1 304 0
 1197              		.cfi_startproc
 1198 0bf9 83EC2C   		subl	$44, %esp	 #,
 1199              	LCFI34:
 1200              		.cfi_def_cfa_offset 48
 1201              		.loc 1 307 0
 1202 0bfc C744241C 		movl	$0, 28(%esp)	 #, i
 1202      00000000 
 1203 0c04 EB58     		jmp	L53	 #
 1204              	L54:
 1205              		.loc 1 307 0 is_stmt 0 discriminator 2
 1206 0c06 A1A80100 		movl	LPBX1+360, %eax	 # *LPBX1, PROF_edge_counter.29
 1206      00
 1207 0c0b 8B15AC01 		movl	LPBX1+364, %edx	 # *LPBX1, PROF_edge_counter.29
 1207      0000
 1208 0c11 83C001   		addl	$1, %eax	 #, PROF_edge_counter.29
 1209 0c14 83D200   		adcl	$0, %edx	 #, PROF_edge_counter.29
 1210 0c17 A3A80100 		movl	%eax, LPBX1+360	 # PROF_edge_counter.29, *LPBX1
 1210      00
 1211 0c1c 8915AC01 		movl	%edx, LPBX1+364	 # PROF_edge_counter.29, *LPBX1
 1211      0000
 1212              		.loc 1 308 0 is_stmt 1 discriminator 2
 1213 0c22 A11C0000 		movl	_chp, %eax	 # chp, chp.7
 1213      00
 1214 0c27 8B00     		movl	(%eax), %eax	 # chp.7_3->vmt, D.36829
 1215 0c29 8B5008   		movl	8(%eax), %edx	 # D.36829_4->put, D.36830
 1216 0c2c A11C0000 		movl	_chp, %eax	 # chp, chp.8
 1216      00
 1217 0c31 C7442404 		movl	$45, 4(%esp)	 #,
 1217      2D000000 
 1218 0c39 890424   		movl	%eax, (%esp)	 # chp.8,
 1219 0c3c FFD2     		call	*%edx	 # D.36830
 1220              		.loc 1 307 0 discriminator 2
 1221 0c3e FF44241C 		incl	28(%esp)	 # i
 1222 0c42 A1A00100 		movl	LPBX1+352, %eax	 # *LPBX1, PROF_edge_counter.29
 1222      00
 1223 0c47 8B15A401 		movl	LPBX1+356, %edx	 # *LPBX1, PROF_edge_counter.29
 1223      0000
 1224 0c4d 83C001   		addl	$1, %eax	 #, PROF_edge_counter.29
 1225 0c50 83D200   		adcl	$0, %edx	 #, PROF_edge_counter.29
 1226 0c53 A3A00100 		movl	%eax, LPBX1+352	 # PROF_edge_counter.29, *LPBX1
 1226      00
 1227 0c58 8915A401 		movl	%edx, LPBX1+356	 # PROF_edge_counter.29, *LPBX1
 1227      0000
 1228              	L53:
 1229              		.loc 1 307 0 is_stmt 0 discriminator 1
 1230 0c5e 837C241C 		cmpl	$75, 28(%esp)	 #, i
 1230      4B
 1231 0c63 76A1     		jbe	L54	 #,
 1232              		.loc 1 307 0
 1233 0c65 A1B00100 		movl	LPBX1+368, %eax	 # *LPBX1, PROF_edge_counter.29
 1233      00
 1234 0c6a 8B15B401 		movl	LPBX1+372, %edx	 # *LPBX1, PROF_edge_counter.29
 1234      0000
GAS LISTING C:\cygwin\tmp\ccs5iBND.s 			page 29


 1235 0c70 83C001   		addl	$1, %eax	 #, PROF_edge_counter.29
 1236 0c73 83D200   		adcl	$0, %edx	 #, PROF_edge_counter.29
 1237 0c76 A3B00100 		movl	%eax, LPBX1+368	 # PROF_edge_counter.29, *LPBX1
 1237      00
 1238 0c7b 8915B401 		movl	%edx, LPBX1+372	 # PROF_edge_counter.29, *LPBX1
 1238      0000
 1239              		.loc 1 309 0 is_stmt 1
 1240 0c81 A11C0000 		movl	_chp, %eax	 # chp, chp.9
 1240      00
 1241 0c86 8B00     		movl	(%eax), %eax	 # chp.9_8->vmt, D.36833
 1242 0c88 8B10     		movl	(%eax), %edx	 # D.36833_9->write, D.36834
 1243 0c8a A11C0000 		movl	_chp, %eax	 # chp, chp.10
 1243      00
 1244 0c8f C7442408 		movl	$2, 8(%esp)	 #,
 1244      02000000 
 1245 0c97 C7442404 		movl	$LC0, 4(%esp)	 #,
 1245      14000000 
 1246 0c9f 890424   		movl	%eax, (%esp)	 # chp.10,
 1247 0ca2 FFD2     		call	*%edx	 # D.36834
 1248 0ca4 A1B80100 		movl	LPBX1+376, %eax	 # *LPBX1, PROF_edge_counter.29
 1248      00
 1249 0ca9 8B15BC01 		movl	LPBX1+380, %edx	 # *LPBX1, PROF_edge_counter.29
 1249      0000
 1250 0caf 83C001   		addl	$1, %eax	 #, PROF_edge_counter.29
 1251 0cb2 83D200   		adcl	$0, %edx	 #, PROF_edge_counter.29
 1252 0cb5 A3B80100 		movl	%eax, LPBX1+376	 # PROF_edge_counter.29, *LPBX1
 1252      00
 1253 0cba 8915BC01 		movl	%edx, LPBX1+380	 # PROF_edge_counter.29, *LPBX1
 1253      0000
 1254              		.loc 1 310 0
 1255 0cc0 83C42C   		addl	$44, %esp	 #,
 1256              	LCFI35:
 1257              		.cfi_def_cfa_offset 4
 1258 0cc3 C3       		ret
 1259              		.cfi_endproc
 1260              	LFE26:
 1261              		.section .rdata,"dr"
 1262              	LC1:
 1263 0017 00       		.ascii "\0"
 1264              	LC2:
 1265 0018 2A2A2A20 		.ascii "*** ChibiOS/RT test suite\0"
 1265      43686962 
 1265      694F532F 
 1265      52542074 
 1265      65737420 
 1266              	LC3:
 1267 0032 2A2A2A00 		.ascii "***\0"
 1268              	LC4:
 1269 0036 2A2A2A20 		.ascii "*** Kernel:       \0"
 1269      4B65726E 
 1269      656C3A20 
 1269      20202020 
 1269      202000
 1270              	LC5:
 1271 0049 322E352E 		.ascii "2.5.2unstable\0"
 1271      32756E73 
 1271      7461626C 
GAS LISTING C:\cygwin\tmp\ccs5iBND.s 			page 30


 1271      6500
 1272              	LC6:
 1273 0057 2A2A2A20 		.ascii "*** Compiled:     \0"
 1273      436F6D70 
 1273      696C6564 
 1273      3A202020 
 1273      202000
 1274              	LC7:
 1275 006a 4D617220 		.ascii "Mar 14 2013 - 04:38:52\0"
 1275      31342032 
 1275      30313320 
 1275      2D203034 
 1275      3A33383A 
 1276              	LC8:
 1277 0081 2A2A2A20 		.ascii "*** Compiler:     \0"
 1277      436F6D70 
 1277      696C6572 
 1277      3A202020 
 1277      202000
 1278              	LC9:
 1279 0094 47434320 		.ascii "GCC 4.6.2\0"
 1279      342E362E 
 1279      3200
 1280              	LC10:
 1281 009e 2A2A2A20 		.ascii "*** Architecture: \0"
 1281      41726368 
 1281      69746563 
 1281      74757265 
 1281      3A2000
 1282              	LC11:
 1283 00b1 53696D75 		.ascii "Simulator\0"
 1283      6C61746F 
 1283      7200
 1284              	LC12:
 1285 00bb 2A2A2A20 		.ascii "*** Core Variant: \0"
 1285      436F7265 
 1285      20566172 
 1285      69616E74 
 1285      3A2000
 1286              	LC13:
 1287 00ce 78383620 		.ascii "x86 (integer only)\0"
 1287      28696E74 
 1287      65676572 
 1287      206F6E6C 
 1287      792900
 1288              	LC14:
 1289 00e1 2A2A2A20 		.ascii "*** Port Info:    \0"
 1289      506F7274 
 1289      20496E66 
 1289      6F3A2020 
 1289      202000
 1290              	LC15:
 1291 00f4 4E6F2070 		.ascii "No preemption\0"
 1291      7265656D 
 1291      7074696F 
 1291      6E00
 1292              	LC16:
GAS LISTING C:\cygwin\tmp\ccs5iBND.s 			page 31


 1293 0102 2A2A2A20 		.ascii "*** Platform:     \0"
 1293      506C6174 
 1293      666F726D 
 1293      3A202020 
 1293      202000
 1294              	LC17:
 1295 0115 57696E33 		.ascii "Win32\0"
 1295      3200
 1296              	LC18:
 1297 011b 2D2D2D20 		.ascii "--- Test Case \0"
 1297      54657374 
 1297      20436173 
 1297      652000
 1298              	LC19:
 1299 012a 2E00     		.ascii ".\0"
 1300              	LC20:
 1301 012c 202800   		.ascii " (\0"
 1302              	LC21:
 1303 012f 2900     		.ascii ")\0"
 1304              	LC22:
 1305 0131 2D2D2D20 		.ascii "--- Result: FAILURE (#\0"
 1305      52657375 
 1305      6C743A20 
 1305      4641494C 
 1305      55524520 
 1306              	LC23:
 1307 0148 205B00   		.ascii " [\0"
 1308              	LC24:
 1309 014b 5D2900   		.ascii "])\0"
 1310              	LC25:
 1311 014e 2D2D2D20 		.ascii "--- Result: SUCCESS\0"
 1311      52657375 
 1311      6C743A20 
 1311      53554343 
 1311      45535300 
 1312              	LC26:
 1313 0162 46696E61 		.ascii "Final result: \0"
 1313      6C207265 
 1313      73756C74 
 1313      3A2000
 1314              	LC27:
 1315 0171 4641494C 		.ascii "FAILURE\0"
 1315      55524500 
 1316              	LC28:
 1317 0179 53554343 		.ascii "SUCCESS\0"
 1317      45535300 
 1318              		.text
 1319              		.globl	_TestThread
 1320              		.def	_TestThread;	.scl	2;	.type	32;	.endef
 1321              	_TestThread:
 1322              	LFB27:
 1323              		.loc 1 318 0
 1324              		.cfi_startproc
 1325 0cc4 83EC2C   		subl	$44, %esp	 #,
 1326              	LCFI36:
 1327              		.cfi_def_cfa_offset 48
 1328              		.loc 1 318 0
GAS LISTING C:\cygwin\tmp\ccs5iBND.s 			page 32


 1329 0cc7 A1400000 		movl	LPBX1, %eax	 # *LPBX1, PROF_edge_counter.28
 1329      00
 1330 0ccc 8B154400 		movl	LPBX1+4, %edx	 # *LPBX1, PROF_edge_counter.28
 1330      0000
 1331 0cd2 83C001   		addl	$1, %eax	 #, PROF_edge_counter.28
 1332 0cd5 83D200   		adcl	$0, %edx	 #, PROF_edge_counter.28
 1333 0cd8 A3400000 		movl	%eax, LPBX1	 # PROF_edge_counter.28, *LPBX1
 1333      00
 1334 0cdd 89154400 		movl	%edx, LPBX1+4	 # PROF_edge_counter.28, *LPBX1
 1334      0000
 1335              		.loc 1 321 0
 1336 0ce3 8B442430 		movl	48(%esp), %eax	 # p, tmp174
 1337 0ce7 A31C0000 		movl	%eax, _chp	 # tmp174, chp
 1337      00
 1338              		.loc 1 322 0
 1339 0cec C7042417 		movl	$LC1, (%esp)	 #,
 1339      000000
 1340 0cf3 E8EAF4FF 		call	_test_println	 #
 1340      FF
 1341 0cf8 A1480000 		movl	LPBX1+8, %eax	 # *LPBX1, PROF_edge_counter.28
 1341      00
 1342 0cfd 8B154C00 		movl	LPBX1+12, %edx	 # *LPBX1, PROF_edge_counter.28
 1342      0000
 1343 0d03 83C001   		addl	$1, %eax	 #, PROF_edge_counter.28
 1344 0d06 83D200   		adcl	$0, %edx	 #, PROF_edge_counter.28
 1345 0d09 A3480000 		movl	%eax, LPBX1+8	 # PROF_edge_counter.28, *LPBX1
 1345      00
 1346 0d0e 89154C00 		movl	%edx, LPBX1+12	 # PROF_edge_counter.28, *LPBX1
 1346      0000
 1347              		.loc 1 323 0
 1348 0d14 C7042418 		movl	$LC2, (%esp)	 #,
 1348      000000
 1349 0d1b E8C2F4FF 		call	_test_println	 #
 1349      FF
 1350 0d20 A1500000 		movl	LPBX1+16, %eax	 # *LPBX1, PROF_edge_counter.28
 1350      00
 1351 0d25 8B155400 		movl	LPBX1+20, %edx	 # *LPBX1, PROF_edge_counter.28
 1351      0000
 1352 0d2b 83C001   		addl	$1, %eax	 #, PROF_edge_counter.28
 1353 0d2e 83D200   		adcl	$0, %edx	 #, PROF_edge_counter.28
 1354 0d31 A3500000 		movl	%eax, LPBX1+16	 # PROF_edge_counter.28, *LPBX1
 1354      00
 1355 0d36 89155400 		movl	%edx, LPBX1+20	 # PROF_edge_counter.28, *LPBX1
 1355      0000
 1356              		.loc 1 324 0
 1357 0d3c C7042432 		movl	$LC3, (%esp)	 #,
 1357      000000
 1358 0d43 E89AF4FF 		call	_test_println	 #
 1358      FF
 1359 0d48 A1580000 		movl	LPBX1+24, %eax	 # *LPBX1, PROF_edge_counter.28
 1359      00
 1360 0d4d 8B155C00 		movl	LPBX1+28, %edx	 # *LPBX1, PROF_edge_counter.28
 1360      0000
 1361 0d53 83C001   		addl	$1, %eax	 #, PROF_edge_counter.28
 1362 0d56 83D200   		adcl	$0, %edx	 #, PROF_edge_counter.28
 1363 0d59 A3580000 		movl	%eax, LPBX1+24	 # PROF_edge_counter.28, *LPBX1
 1363      00
GAS LISTING C:\cygwin\tmp\ccs5iBND.s 			page 33


 1364 0d5e 89155C00 		movl	%edx, LPBX1+28	 # PROF_edge_counter.28, *LPBX1
 1364      0000
 1365              		.loc 1 325 0
 1366 0d64 C7042436 		movl	$LC4, (%esp)	 #,
 1366      000000
 1367 0d6b E8E6F3FF 		call	_test_print	 #
 1367      FF
 1368 0d70 A1600000 		movl	LPBX1+32, %eax	 # *LPBX1, PROF_edge_counter.28
 1368      00
 1369 0d75 8B156400 		movl	LPBX1+36, %edx	 # *LPBX1, PROF_edge_counter.28
 1369      0000
 1370 0d7b 83C001   		addl	$1, %eax	 #, PROF_edge_counter.28
 1371 0d7e 83D200   		adcl	$0, %edx	 #, PROF_edge_counter.28
 1372 0d81 A3600000 		movl	%eax, LPBX1+32	 # PROF_edge_counter.28, *LPBX1
 1372      00
 1373 0d86 89156400 		movl	%edx, LPBX1+36	 # PROF_edge_counter.28, *LPBX1
 1373      0000
 1374              		.loc 1 326 0
 1375 0d8c C7042449 		movl	$LC5, (%esp)	 #,
 1375      000000
 1376 0d93 E84AF4FF 		call	_test_println	 #
 1376      FF
 1377 0d98 A1680000 		movl	LPBX1+40, %eax	 # *LPBX1, PROF_edge_counter.28
 1377      00
 1378 0d9d 8B156C00 		movl	LPBX1+44, %edx	 # *LPBX1, PROF_edge_counter.28
 1378      0000
 1379 0da3 83C001   		addl	$1, %eax	 #, PROF_edge_counter.28
 1380 0da6 83D200   		adcl	$0, %edx	 #, PROF_edge_counter.28
 1381 0da9 A3680000 		movl	%eax, LPBX1+40	 # PROF_edge_counter.28, *LPBX1
 1381      00
 1382 0dae 89156C00 		movl	%edx, LPBX1+44	 # PROF_edge_counter.28, *LPBX1
 1382      0000
 1383              		.loc 1 327 0
 1384 0db4 C7042457 		movl	$LC6, (%esp)	 #,
 1384      000000
 1385 0dbb E896F3FF 		call	_test_print	 #
 1385      FF
 1386 0dc0 A1700000 		movl	LPBX1+48, %eax	 # *LPBX1, PROF_edge_counter.28
 1386      00
 1387 0dc5 8B157400 		movl	LPBX1+52, %edx	 # *LPBX1, PROF_edge_counter.28
 1387      0000
 1388 0dcb 83C001   		addl	$1, %eax	 #, PROF_edge_counter.28
 1389 0dce 83D200   		adcl	$0, %edx	 #, PROF_edge_counter.28
 1390 0dd1 A3700000 		movl	%eax, LPBX1+48	 # PROF_edge_counter.28, *LPBX1
 1390      00
 1391 0dd6 89157400 		movl	%edx, LPBX1+52	 # PROF_edge_counter.28, *LPBX1
 1391      0000
 1392              		.loc 1 328 0
 1393 0ddc C704246A 		movl	$LC7, (%esp)	 #,
 1393      000000
 1394 0de3 E8FAF3FF 		call	_test_println	 #
 1394      FF
 1395 0de8 A1780000 		movl	LPBX1+56, %eax	 # *LPBX1, PROF_edge_counter.28
 1395      00
 1396 0ded 8B157C00 		movl	LPBX1+60, %edx	 # *LPBX1, PROF_edge_counter.28
 1396      0000
 1397 0df3 83C001   		addl	$1, %eax	 #, PROF_edge_counter.28
GAS LISTING C:\cygwin\tmp\ccs5iBND.s 			page 34


 1398 0df6 83D200   		adcl	$0, %edx	 #, PROF_edge_counter.28
 1399 0df9 A3780000 		movl	%eax, LPBX1+56	 # PROF_edge_counter.28, *LPBX1
 1399      00
 1400 0dfe 89157C00 		movl	%edx, LPBX1+60	 # PROF_edge_counter.28, *LPBX1
 1400      0000
 1401              		.loc 1 330 0
 1402 0e04 C7042481 		movl	$LC8, (%esp)	 #,
 1402      000000
 1403 0e0b E846F3FF 		call	_test_print	 #
 1403      FF
 1404 0e10 A1800000 		movl	LPBX1+64, %eax	 # *LPBX1, PROF_edge_counter.28
 1404      00
 1405 0e15 8B158400 		movl	LPBX1+68, %edx	 # *LPBX1, PROF_edge_counter.28
 1405      0000
 1406 0e1b 83C001   		addl	$1, %eax	 #, PROF_edge_counter.28
 1407 0e1e 83D200   		adcl	$0, %edx	 #, PROF_edge_counter.28
 1408 0e21 A3800000 		movl	%eax, LPBX1+64	 # PROF_edge_counter.28, *LPBX1
 1408      00
 1409 0e26 89158400 		movl	%edx, LPBX1+68	 # PROF_edge_counter.28, *LPBX1
 1409      0000
 1410              		.loc 1 331 0
 1411 0e2c C7042494 		movl	$LC9, (%esp)	 #,
 1411      000000
 1412 0e33 E8AAF3FF 		call	_test_println	 #
 1412      FF
 1413 0e38 A1880000 		movl	LPBX1+72, %eax	 # *LPBX1, PROF_edge_counter.28
 1413      00
 1414 0e3d 8B158C00 		movl	LPBX1+76, %edx	 # *LPBX1, PROF_edge_counter.28
 1414      0000
 1415 0e43 83C001   		addl	$1, %eax	 #, PROF_edge_counter.28
 1416 0e46 83D200   		adcl	$0, %edx	 #, PROF_edge_counter.28
 1417 0e49 A3880000 		movl	%eax, LPBX1+72	 # PROF_edge_counter.28, *LPBX1
 1417      00
 1418 0e4e 89158C00 		movl	%edx, LPBX1+76	 # PROF_edge_counter.28, *LPBX1
 1418      0000
 1419              		.loc 1 333 0
 1420 0e54 C704249E 		movl	$LC10, (%esp)	 #,
 1420      000000
 1421 0e5b E8F6F2FF 		call	_test_print	 #
 1421      FF
 1422 0e60 A1900000 		movl	LPBX1+80, %eax	 # *LPBX1, PROF_edge_counter.28
 1422      00
 1423 0e65 8B159400 		movl	LPBX1+84, %edx	 # *LPBX1, PROF_edge_counter.28
 1423      0000
 1424 0e6b 83C001   		addl	$1, %eax	 #, PROF_edge_counter.28
 1425 0e6e 83D200   		adcl	$0, %edx	 #, PROF_edge_counter.28
 1426 0e71 A3900000 		movl	%eax, LPBX1+80	 # PROF_edge_counter.28, *LPBX1
 1426      00
 1427 0e76 89159400 		movl	%edx, LPBX1+84	 # PROF_edge_counter.28, *LPBX1
 1427      0000
 1428              		.loc 1 334 0
 1429 0e7c C70424B1 		movl	$LC11, (%esp)	 #,
 1429      000000
 1430 0e83 E85AF3FF 		call	_test_println	 #
 1430      FF
 1431 0e88 A1980000 		movl	LPBX1+88, %eax	 # *LPBX1, PROF_edge_counter.28
 1431      00
GAS LISTING C:\cygwin\tmp\ccs5iBND.s 			page 35


 1432 0e8d 8B159C00 		movl	LPBX1+92, %edx	 # *LPBX1, PROF_edge_counter.28
 1432      0000
 1433 0e93 83C001   		addl	$1, %eax	 #, PROF_edge_counter.28
 1434 0e96 83D200   		adcl	$0, %edx	 #, PROF_edge_counter.28
 1435 0e99 A3980000 		movl	%eax, LPBX1+88	 # PROF_edge_counter.28, *LPBX1
 1435      00
 1436 0e9e 89159C00 		movl	%edx, LPBX1+92	 # PROF_edge_counter.28, *LPBX1
 1436      0000
 1437              		.loc 1 336 0
 1438 0ea4 C70424BB 		movl	$LC12, (%esp)	 #,
 1438      000000
 1439 0eab E8A6F2FF 		call	_test_print	 #
 1439      FF
 1440 0eb0 A1A00000 		movl	LPBX1+96, %eax	 # *LPBX1, PROF_edge_counter.28
 1440      00
 1441 0eb5 8B15A400 		movl	LPBX1+100, %edx	 # *LPBX1, PROF_edge_counter.28
 1441      0000
 1442 0ebb 83C001   		addl	$1, %eax	 #, PROF_edge_counter.28
 1443 0ebe 83D200   		adcl	$0, %edx	 #, PROF_edge_counter.28
 1444 0ec1 A3A00000 		movl	%eax, LPBX1+96	 # PROF_edge_counter.28, *LPBX1
 1444      00
 1445 0ec6 8915A400 		movl	%edx, LPBX1+100	 # PROF_edge_counter.28, *LPBX1
 1445      0000
 1446              		.loc 1 337 0
 1447 0ecc C70424CE 		movl	$LC13, (%esp)	 #,
 1447      000000
 1448 0ed3 E80AF3FF 		call	_test_println	 #
 1448      FF
 1449 0ed8 A1A80000 		movl	LPBX1+104, %eax	 # *LPBX1, PROF_edge_counter.28
 1449      00
 1450 0edd 8B15AC00 		movl	LPBX1+108, %edx	 # *LPBX1, PROF_edge_counter.28
 1450      0000
 1451 0ee3 83C001   		addl	$1, %eax	 #, PROF_edge_counter.28
 1452 0ee6 83D200   		adcl	$0, %edx	 #, PROF_edge_counter.28
 1453 0ee9 A3A80000 		movl	%eax, LPBX1+104	 # PROF_edge_counter.28, *LPBX1
 1453      00
 1454 0eee 8915AC00 		movl	%edx, LPBX1+108	 # PROF_edge_counter.28, *LPBX1
 1454      0000
 1455              		.loc 1 340 0
 1456 0ef4 C70424E1 		movl	$LC14, (%esp)	 #,
 1456      000000
 1457 0efb E856F2FF 		call	_test_print	 #
 1457      FF
 1458 0f00 A1B00000 		movl	LPBX1+112, %eax	 # *LPBX1, PROF_edge_counter.28
 1458      00
 1459 0f05 8B15B400 		movl	LPBX1+116, %edx	 # *LPBX1, PROF_edge_counter.28
 1459      0000
 1460 0f0b 83C001   		addl	$1, %eax	 #, PROF_edge_counter.28
 1461 0f0e 83D200   		adcl	$0, %edx	 #, PROF_edge_counter.28
 1462 0f11 A3B00000 		movl	%eax, LPBX1+112	 # PROF_edge_counter.28, *LPBX1
 1462      00
 1463 0f16 8915B400 		movl	%edx, LPBX1+116	 # PROF_edge_counter.28, *LPBX1
 1463      0000
 1464              		.loc 1 341 0
 1465 0f1c C70424F4 		movl	$LC15, (%esp)	 #,
 1465      000000
 1466 0f23 E8BAF2FF 		call	_test_println	 #
GAS LISTING C:\cygwin\tmp\ccs5iBND.s 			page 36


 1466      FF
 1467 0f28 A1B80000 		movl	LPBX1+120, %eax	 # *LPBX1, PROF_edge_counter.28
 1467      00
 1468 0f2d 8B15BC00 		movl	LPBX1+124, %edx	 # *LPBX1, PROF_edge_counter.28
 1468      0000
 1469 0f33 83C001   		addl	$1, %eax	 #, PROF_edge_counter.28
 1470 0f36 83D200   		adcl	$0, %edx	 #, PROF_edge_counter.28
 1471 0f39 A3B80000 		movl	%eax, LPBX1+120	 # PROF_edge_counter.28, *LPBX1
 1471      00
 1472 0f3e 8915BC00 		movl	%edx, LPBX1+124	 # PROF_edge_counter.28, *LPBX1
 1472      0000
 1473              		.loc 1 344 0
 1474 0f44 C7042402 		movl	$LC16, (%esp)	 #,
 1474      010000
 1475 0f4b E806F2FF 		call	_test_print	 #
 1475      FF
 1476 0f50 A1C00000 		movl	LPBX1+128, %eax	 # *LPBX1, PROF_edge_counter.28
 1476      00
 1477 0f55 8B15C400 		movl	LPBX1+132, %edx	 # *LPBX1, PROF_edge_counter.28
 1477      0000
 1478 0f5b 83C001   		addl	$1, %eax	 #, PROF_edge_counter.28
 1479 0f5e 83D200   		adcl	$0, %edx	 #, PROF_edge_counter.28
 1480 0f61 A3C00000 		movl	%eax, LPBX1+128	 # PROF_edge_counter.28, *LPBX1
 1480      00
 1481 0f66 8915C400 		movl	%edx, LPBX1+132	 # PROF_edge_counter.28, *LPBX1
 1481      0000
 1482              		.loc 1 345 0
 1483 0f6c C7042415 		movl	$LC17, (%esp)	 #,
 1483      010000
 1484 0f73 E86AF2FF 		call	_test_println	 #
 1484      FF
 1485 0f78 A1C80000 		movl	LPBX1+136, %eax	 # *LPBX1, PROF_edge_counter.28
 1485      00
 1486 0f7d 8B15CC00 		movl	LPBX1+140, %edx	 # *LPBX1, PROF_edge_counter.28
 1486      0000
 1487 0f83 83C001   		addl	$1, %eax	 #, PROF_edge_counter.28
 1488 0f86 83D200   		adcl	$0, %edx	 #, PROF_edge_counter.28
 1489 0f89 A3C80000 		movl	%eax, LPBX1+136	 # PROF_edge_counter.28, *LPBX1
 1489      00
 1490 0f8e 8915CC00 		movl	%edx, LPBX1+140	 # PROF_edge_counter.28, *LPBX1
 1490      0000
 1491              		.loc 1 351 0
 1492 0f94 C7042417 		movl	$LC1, (%esp)	 #,
 1492      000000
 1493 0f9b E842F2FF 		call	_test_println	 #
 1493      FF
 1494              		.loc 1 353 0
 1495 0fa0 C6050100 		movb	$0, _global_fail	 #, global_fail
 1495      000000
 1496              		.loc 1 354 0
 1497 0fa7 C744241C 		movl	$0, 28(%esp)	 #, i
 1497      00000000 
 1498              		.loc 1 355 0
 1499 0faf E9310300 		jmp	L56	 #
 1499      00
 1500              	L61:
 1501 0fb4 A1600100 		movl	LPBX1+288, %eax	 # *LPBX1, PROF_edge_counter.28
GAS LISTING C:\cygwin\tmp\ccs5iBND.s 			page 37


 1501      00
 1502 0fb9 8B156401 		movl	LPBX1+292, %edx	 # *LPBX1, PROF_edge_counter.28
 1502      0000
 1503 0fbf 83C001   		addl	$1, %eax	 #, PROF_edge_counter.28
 1504 0fc2 83D200   		adcl	$0, %edx	 #, PROF_edge_counter.28
 1505 0fc5 A3600100 		movl	%eax, LPBX1+288	 # PROF_edge_counter.28, *LPBX1
 1505      00
 1506 0fca 89156401 		movl	%edx, LPBX1+292	 # PROF_edge_counter.28, *LPBX1
 1506      0000
 1507              		.loc 1 356 0
 1508 0fd0 C7442418 		movl	$0, 24(%esp)	 #, j
 1508      00000000 
 1509              		.loc 1 357 0
 1510 0fd8 E9CA0200 		jmp	L57	 #
 1510      00
 1511              	L60:
 1512 0fdd A1500100 		movl	LPBX1+272, %eax	 # *LPBX1, PROF_edge_counter.28
 1512      00
 1513 0fe2 8B155401 		movl	LPBX1+276, %edx	 # *LPBX1, PROF_edge_counter.28
 1513      0000
 1514 0fe8 83C001   		addl	$1, %eax	 #, PROF_edge_counter.28
 1515 0feb 83D200   		adcl	$0, %edx	 #, PROF_edge_counter.28
 1516 0fee A3500100 		movl	%eax, LPBX1+272	 # PROF_edge_counter.28, *LPBX1
 1516      00
 1517 0ff3 89155401 		movl	%edx, LPBX1+276	 # PROF_edge_counter.28, *LPBX1
 1517      0000
 1518              		.loc 1 358 0
 1519 0ff9 E8FBFBFF 		call	_print_line	 #
 1519      FF
 1520 0ffe A1D00000 		movl	LPBX1+144, %eax	 # *LPBX1, PROF_edge_counter.28
 1520      00
 1521 1003 8B15D400 		movl	LPBX1+148, %edx	 # *LPBX1, PROF_edge_counter.28
 1521      0000
 1522 1009 83C001   		addl	$1, %eax	 #, PROF_edge_counter.28
 1523 100c 83D200   		adcl	$0, %edx	 #, PROF_edge_counter.28
 1524 100f A3D00000 		movl	%eax, LPBX1+144	 # PROF_edge_counter.28, *LPBX1
 1524      00
 1525 1014 8915D400 		movl	%edx, LPBX1+148	 # PROF_edge_counter.28, *LPBX1
 1525      0000
 1526              		.loc 1 359 0
 1527 101a C704241B 		movl	$LC18, (%esp)	 #,
 1527      010000
 1528 1021 E830F1FF 		call	_test_print	 #
 1528      FF
 1529 1026 A1D80000 		movl	LPBX1+152, %eax	 # *LPBX1, PROF_edge_counter.28
 1529      00
 1530 102b 8B15DC00 		movl	LPBX1+156, %edx	 # *LPBX1, PROF_edge_counter.28
 1530      0000
 1531 1031 83C001   		addl	$1, %eax	 #, PROF_edge_counter.28
 1532 1034 83D200   		adcl	$0, %edx	 #, PROF_edge_counter.28
 1533 1037 A3D80000 		movl	%eax, LPBX1+152	 # PROF_edge_counter.28, *LPBX1
 1533      00
 1534 103c 8915DC00 		movl	%edx, LPBX1+156	 # PROF_edge_counter.28, *LPBX1
 1534      0000
 1535              		.loc 1 360 0
 1536 1042 8B44241C 		movl	28(%esp), %eax	 # i, tmp175
 1537 1046 40       		incl	%eax	 # D.36795
GAS LISTING C:\cygwin\tmp\ccs5iBND.s 			page 38


 1538 1047 890424   		movl	%eax, (%esp)	 # D.36796,
 1539 104a E8B1EFFF 		call	_test_printn	 #
 1539      FF
 1540 104f A1E00000 		movl	LPBX1+160, %eax	 # *LPBX1, PROF_edge_counter.28
 1540      00
 1541 1054 8B15E400 		movl	LPBX1+164, %edx	 # *LPBX1, PROF_edge_counter.28
 1541      0000
 1542 105a 83C001   		addl	$1, %eax	 #, PROF_edge_counter.28
 1543 105d 83D200   		adcl	$0, %edx	 #, PROF_edge_counter.28
 1544 1060 A3E00000 		movl	%eax, LPBX1+160	 # PROF_edge_counter.28, *LPBX1
 1544      00
 1545 1065 8915E400 		movl	%edx, LPBX1+164	 # PROF_edge_counter.28, *LPBX1
 1545      0000
 1546              		.loc 1 361 0
 1547 106b C704242A 		movl	$LC19, (%esp)	 #,
 1547      010000
 1548 1072 E8DFF0FF 		call	_test_print	 #
 1548      FF
 1549 1077 A1E80000 		movl	LPBX1+168, %eax	 # *LPBX1, PROF_edge_counter.28
 1549      00
 1550 107c 8B15EC00 		movl	LPBX1+172, %edx	 # *LPBX1, PROF_edge_counter.28
 1550      0000
 1551 1082 83C001   		addl	$1, %eax	 #, PROF_edge_counter.28
 1552 1085 83D200   		adcl	$0, %edx	 #, PROF_edge_counter.28
 1553 1088 A3E80000 		movl	%eax, LPBX1+168	 # PROF_edge_counter.28, *LPBX1
 1553      00
 1554 108d 8915EC00 		movl	%edx, LPBX1+172	 # PROF_edge_counter.28, *LPBX1
 1554      0000
 1555              		.loc 1 362 0
 1556 1093 8B442418 		movl	24(%esp), %eax	 # j, tmp176
 1557 1097 40       		incl	%eax	 # D.36797
 1558 1098 890424   		movl	%eax, (%esp)	 # D.36798,
 1559 109b E860EFFF 		call	_test_printn	 #
 1559      FF
 1560 10a0 A1F00000 		movl	LPBX1+176, %eax	 # *LPBX1, PROF_edge_counter.28
 1560      00
 1561 10a5 8B15F400 		movl	LPBX1+180, %edx	 # *LPBX1, PROF_edge_counter.28
 1561      0000
 1562 10ab 83C001   		addl	$1, %eax	 #, PROF_edge_counter.28
 1563 10ae 83D200   		adcl	$0, %edx	 #, PROF_edge_counter.28
 1564 10b1 A3F00000 		movl	%eax, LPBX1+176	 # PROF_edge_counter.28, *LPBX1
 1564      00
 1565 10b6 8915F400 		movl	%edx, LPBX1+180	 # PROF_edge_counter.28, *LPBX1
 1565      0000
 1566              		.loc 1 363 0
 1567 10bc C704242C 		movl	$LC20, (%esp)	 #,
 1567      010000
 1568 10c3 E88EF0FF 		call	_test_print	 #
 1568      FF
 1569 10c8 A1F80000 		movl	LPBX1+184, %eax	 # *LPBX1, PROF_edge_counter.28
 1569      00
 1570 10cd 8B15FC00 		movl	LPBX1+188, %edx	 # *LPBX1, PROF_edge_counter.28
 1570      0000
 1571 10d3 83C001   		addl	$1, %eax	 #, PROF_edge_counter.28
 1572 10d6 83D200   		adcl	$0, %edx	 #, PROF_edge_counter.28
 1573 10d9 A3F80000 		movl	%eax, LPBX1+184	 # PROF_edge_counter.28, *LPBX1
 1573      00
GAS LISTING C:\cygwin\tmp\ccs5iBND.s 			page 39


 1574 10de 8915FC00 		movl	%edx, LPBX1+188	 # PROF_edge_counter.28, *LPBX1
 1574      0000
 1575              		.loc 1 364 0
 1576 10e4 8B44241C 		movl	28(%esp), %eax	 # i, tmp177
 1577 10e8 8B048500 		movl	_patterns(,%eax,4), %eax	 # patterns, D.36799
 1577      000000
 1578 10ef 8B542418 		movl	24(%esp), %edx	 # j, j.0
 1579 10f3 C1E202   		sall	$2, %edx	 #, D.36801
 1580 10f6 01D0     		addl	%edx, %eax	 # D.36801, D.36802
 1581 10f8 8B00     		movl	(%eax), %eax	 # *D.36802_19, D.36803
 1582 10fa 8B00     		movl	(%eax), %eax	 # D.36803_20->name, D.36804
 1583 10fc 890424   		movl	%eax, (%esp)	 # D.36804,
 1584 10ff E852F0FF 		call	_test_print	 #
 1584      FF
 1585 1104 A1000100 		movl	LPBX1+192, %eax	 # *LPBX1, PROF_edge_counter.28
 1585      00
 1586 1109 8B150401 		movl	LPBX1+196, %edx	 # *LPBX1, PROF_edge_counter.28
 1586      0000
 1587 110f 83C001   		addl	$1, %eax	 #, PROF_edge_counter.28
 1588 1112 83D200   		adcl	$0, %edx	 #, PROF_edge_counter.28
 1589 1115 A3000100 		movl	%eax, LPBX1+192	 # PROF_edge_counter.28, *LPBX1
 1589      00
 1590 111a 89150401 		movl	%edx, LPBX1+196	 # PROF_edge_counter.28, *LPBX1
 1590      0000
 1591              		.loc 1 365 0
 1592 1120 C704242F 		movl	$LC21, (%esp)	 #,
 1592      010000
 1593 1127 E8B6F0FF 		call	_test_println	 #
 1593      FF
 1594 112c A1080100 		movl	LPBX1+200, %eax	 # *LPBX1, PROF_edge_counter.28
 1594      00
 1595 1131 8B150C01 		movl	LPBX1+204, %edx	 # *LPBX1, PROF_edge_counter.28
 1595      0000
 1596 1137 83C001   		addl	$1, %eax	 #, PROF_edge_counter.28
 1597 113a 83D200   		adcl	$0, %edx	 #, PROF_edge_counter.28
 1598 113d A3080100 		movl	%eax, LPBX1+200	 # PROF_edge_counter.28, *LPBX1
 1598      00
 1599 1142 89150C01 		movl	%edx, LPBX1+204	 # PROF_edge_counter.28, *LPBX1
 1599      0000
 1600              		.loc 1 367 0
 1601 1148 C70424C8 		movl	$200, (%esp)	 #,
 1601      000000
 1602 114f E8000000 		call	_chThdSleep	 #
 1602      00
 1603 1154 A1100100 		movl	LPBX1+208, %eax	 # *LPBX1, PROF_edge_counter.28
 1603      00
 1604 1159 8B151401 		movl	LPBX1+212, %edx	 # *LPBX1, PROF_edge_counter.28
 1604      0000
 1605 115f 83C001   		addl	$1, %eax	 #, PROF_edge_counter.28
 1606 1162 83D200   		adcl	$0, %edx	 #, PROF_edge_counter.28
 1607 1165 A3100100 		movl	%eax, LPBX1+208	 # PROF_edge_counter.28, *LPBX1
 1607      00
 1608 116a 89151401 		movl	%edx, LPBX1+212	 # PROF_edge_counter.28, *LPBX1
 1608      0000
 1609              		.loc 1 369 0
 1610 1170 8B44241C 		movl	28(%esp), %eax	 # i, tmp178
 1611 1174 8B048500 		movl	_patterns(,%eax,4), %eax	 # patterns, D.36805
GAS LISTING C:\cygwin\tmp\ccs5iBND.s 			page 40


 1611      000000
 1612 117b 8B542418 		movl	24(%esp), %edx	 # j, j.1
 1613 117f C1E202   		sall	$2, %edx	 #, D.36807
 1614 1182 01D0     		addl	%edx, %eax	 # D.36807, D.36808
 1615 1184 8B00     		movl	(%eax), %eax	 # *D.36808_25, D.36809
 1616 1186 890424   		movl	%eax, (%esp)	 # D.36809,
 1617 1189 E802F9FF 		call	_execute_test	 #
 1617      FF
 1618              		.loc 1 370 0
 1619 118e A0000000 		movb	_local_fail, %al	 # local_fail, local_fail.2
 1619      00
 1620 1193 84C0     		testb	%al, %al	 # local_fail.2
 1621 1195 0F84C400 		je	L58	 #,
 1621      0000
 1622 119b A1180100 		movl	LPBX1+216, %eax	 # *LPBX1, PROF_edge_counter.28
 1622      00
 1623 11a0 8B151C01 		movl	LPBX1+220, %edx	 # *LPBX1, PROF_edge_counter.28
 1623      0000
 1624 11a6 83C001   		addl	$1, %eax	 #, PROF_edge_counter.28
 1625 11a9 83D200   		adcl	$0, %edx	 #, PROF_edge_counter.28
 1626 11ac A3180100 		movl	%eax, LPBX1+216	 # PROF_edge_counter.28, *LPBX1
 1626      00
 1627 11b1 89151C01 		movl	%edx, LPBX1+220	 # PROF_edge_counter.28, *LPBX1
 1627      0000
 1628              		.loc 1 371 0
 1629 11b7 C7042431 		movl	$LC22, (%esp)	 #,
 1629      010000
 1630 11be E893EFFF 		call	_test_print	 #
 1630      FF
 1631 11c3 A1280100 		movl	LPBX1+232, %eax	 # *LPBX1, PROF_edge_counter.28
 1631      00
 1632 11c8 8B152C01 		movl	LPBX1+236, %edx	 # *LPBX1, PROF_edge_counter.28
 1632      0000
 1633 11ce 83C001   		addl	$1, %eax	 #, PROF_edge_counter.28
 1634 11d1 83D200   		adcl	$0, %edx	 #, PROF_edge_counter.28
 1635 11d4 A3280100 		movl	%eax, LPBX1+232	 # PROF_edge_counter.28, *LPBX1
 1635      00
 1636 11d9 89152C01 		movl	%edx, LPBX1+236	 # PROF_edge_counter.28, *LPBX1
 1636      0000
 1637              		.loc 1 372 0
 1638 11df A1040000 		movl	_failpoint, %eax	 # failpoint, failpoint.3
 1638      00
 1639 11e4 890424   		movl	%eax, (%esp)	 # failpoint.3,
 1640 11e7 E814EEFF 		call	_test_printn	 #
 1640      FF
 1641 11ec A1300100 		movl	LPBX1+240, %eax	 # *LPBX1, PROF_edge_counter.28
 1641      00
 1642 11f1 8B153401 		movl	LPBX1+244, %edx	 # *LPBX1, PROF_edge_counter.28
 1642      0000
 1643 11f7 83C001   		addl	$1, %eax	 #, PROF_edge_counter.28
 1644 11fa 83D200   		adcl	$0, %edx	 #, PROF_edge_counter.28
 1645 11fd A3300100 		movl	%eax, LPBX1+240	 # PROF_edge_counter.28, *LPBX1
 1645      00
 1646 1202 89153401 		movl	%edx, LPBX1+244	 # PROF_edge_counter.28, *LPBX1
 1646      0000
 1647              		.loc 1 373 0
 1648 1208 C7042448 		movl	$LC23, (%esp)	 #,
GAS LISTING C:\cygwin\tmp\ccs5iBND.s 			page 41


 1648      010000
 1649 120f E842EFFF 		call	_test_print	 #
 1649      FF
 1650 1214 A1380100 		movl	LPBX1+248, %eax	 # *LPBX1, PROF_edge_counter.28
 1650      00
 1651 1219 8B153C01 		movl	LPBX1+252, %edx	 # *LPBX1, PROF_edge_counter.28
 1651      0000
 1652 121f 83C001   		addl	$1, %eax	 #, PROF_edge_counter.28
 1653 1222 83D200   		adcl	$0, %edx	 #, PROF_edge_counter.28
 1654 1225 A3380100 		movl	%eax, LPBX1+248	 # PROF_edge_counter.28, *LPBX1
 1654      00
 1655 122a 89153C01 		movl	%edx, LPBX1+252	 # PROF_edge_counter.28, *LPBX1
 1655      0000
 1656              		.loc 1 374 0
 1657 1230 E864F0FF 		call	_print_tokens	 #
 1657      FF
 1658 1235 A1400100 		movl	LPBX1+256, %eax	 # *LPBX1, PROF_edge_counter.28
 1658      00
 1659 123a 8B154401 		movl	LPBX1+260, %edx	 # *LPBX1, PROF_edge_counter.28
 1659      0000
 1660 1240 83C001   		addl	$1, %eax	 #, PROF_edge_counter.28
 1661 1243 83D200   		adcl	$0, %edx	 #, PROF_edge_counter.28
 1662 1246 A3400100 		movl	%eax, LPBX1+256	 # PROF_edge_counter.28, *LPBX1
 1662      00
 1663 124b 89154401 		movl	%edx, LPBX1+260	 # PROF_edge_counter.28, *LPBX1
 1663      0000
 1664              		.loc 1 375 0
 1665 1251 C704244B 		movl	$LC24, (%esp)	 #,
 1665      010000
 1666 1258 E885EFFF 		call	_test_println	 #
 1666      FF
 1667 125d EB44     		jmp	L59	 #
 1668              	L58:
 1669 125f A1200100 		movl	LPBX1+224, %eax	 # *LPBX1, PROF_edge_counter.28
 1669      00
 1670 1264 8B152401 		movl	LPBX1+228, %edx	 # *LPBX1, PROF_edge_counter.28
 1670      0000
 1671 126a 83C001   		addl	$1, %eax	 #, PROF_edge_counter.28
 1672 126d 83D200   		adcl	$0, %edx	 #, PROF_edge_counter.28
 1673 1270 A3200100 		movl	%eax, LPBX1+224	 # PROF_edge_counter.28, *LPBX1
 1673      00
 1674 1275 89152401 		movl	%edx, LPBX1+228	 # PROF_edge_counter.28, *LPBX1
 1674      0000
 1675              		.loc 1 378 0
 1676 127b C704244E 		movl	$LC25, (%esp)	 #,
 1676      010000
 1677 1282 E85BEFFF 		call	_test_println	 #
 1677      FF
 1678 1287 A1480100 		movl	LPBX1+264, %eax	 # *LPBX1, PROF_edge_counter.28
 1678      00
 1679 128c 8B154C01 		movl	LPBX1+268, %edx	 # *LPBX1, PROF_edge_counter.28
 1679      0000
 1680 1292 83C001   		addl	$1, %eax	 #, PROF_edge_counter.28
 1681 1295 83D200   		adcl	$0, %edx	 #, PROF_edge_counter.28
 1682 1298 A3480100 		movl	%eax, LPBX1+264	 # PROF_edge_counter.28, *LPBX1
 1682      00
 1683 129d 89154C01 		movl	%edx, LPBX1+268	 # PROF_edge_counter.28, *LPBX1
GAS LISTING C:\cygwin\tmp\ccs5iBND.s 			page 42


 1683      0000
 1684              	L59:
 1685              		.loc 1 379 0
 1686 12a3 FF442418 		incl	24(%esp)	 # j
 1687              	L57:
 1688              		.loc 1 357 0 discriminator 1
 1689 12a7 8B44241C 		movl	28(%esp), %eax	 # i, tmp179
 1690 12ab 8B048500 		movl	_patterns(,%eax,4), %eax	 # patterns, D.36815
 1690      000000
 1691 12b2 8B542418 		movl	24(%esp), %edx	 # j, j.4
 1692 12b6 C1E202   		sall	$2, %edx	 #, D.36817
 1693 12b9 01D0     		addl	%edx, %eax	 # D.36817, D.36818
 1694 12bb 8B00     		movl	(%eax), %eax	 # *D.36818_10, D.36819
 1695 12bd 85C0     		testl	%eax, %eax	 # D.36819
 1696 12bf 0F8518FD 		jne	L60	 #,
 1696      FFFF
 1697              		.loc 1 381 0
 1698 12c5 FF44241C 		incl	28(%esp)	 # i
 1699 12c9 A1580100 		movl	LPBX1+280, %eax	 # *LPBX1, PROF_edge_counter.28
 1699      00
 1700 12ce 8B155C01 		movl	LPBX1+284, %edx	 # *LPBX1, PROF_edge_counter.28
 1700      0000
 1701 12d4 83C001   		addl	$1, %eax	 #, PROF_edge_counter.28
 1702 12d7 83D200   		adcl	$0, %edx	 #, PROF_edge_counter.28
 1703 12da A3580100 		movl	%eax, LPBX1+280	 # PROF_edge_counter.28, *LPBX1
 1703      00
 1704 12df 89155C01 		movl	%edx, LPBX1+284	 # PROF_edge_counter.28, *LPBX1
 1704      0000
 1705              	L56:
 1706              		.loc 1 355 0 discriminator 1
 1707 12e5 8B44241C 		movl	28(%esp), %eax	 # i, tmp180
 1708 12e9 8B048500 		movl	_patterns(,%eax,4), %eax	 # patterns, D.36820
 1708      000000
 1709 12f0 85C0     		testl	%eax, %eax	 # D.36820
 1710 12f2 0F85BCFC 		jne	L61	 #,
 1710      FFFF
 1711              		.loc 1 355 0 is_stmt 0
 1712 12f8 A1680100 		movl	LPBX1+296, %eax	 # *LPBX1, PROF_edge_counter.28
 1712      00
 1713 12fd 8B156C01 		movl	LPBX1+300, %edx	 # *LPBX1, PROF_edge_counter.28
 1713      0000
 1714 1303 83C001   		addl	$1, %eax	 #, PROF_edge_counter.28
 1715 1306 83D200   		adcl	$0, %edx	 #, PROF_edge_counter.28
 1716 1309 A3680100 		movl	%eax, LPBX1+296	 # PROF_edge_counter.28, *LPBX1
 1716      00
 1717 130e 89156C01 		movl	%edx, LPBX1+300	 # PROF_edge_counter.28, *LPBX1
 1717      0000
 1718              		.loc 1 383 0 is_stmt 1
 1719 1314 E8E0F8FF 		call	_print_line	 #
 1719      FF
 1720 1319 A1700100 		movl	LPBX1+304, %eax	 # *LPBX1, PROF_edge_counter.28
 1720      00
 1721 131e 8B157401 		movl	LPBX1+308, %edx	 # *LPBX1, PROF_edge_counter.28
 1721      0000
 1722 1324 83C001   		addl	$1, %eax	 #, PROF_edge_counter.28
 1723 1327 83D200   		adcl	$0, %edx	 #, PROF_edge_counter.28
 1724 132a A3700100 		movl	%eax, LPBX1+304	 # PROF_edge_counter.28, *LPBX1
GAS LISTING C:\cygwin\tmp\ccs5iBND.s 			page 43


 1724      00
 1725 132f 89157401 		movl	%edx, LPBX1+308	 # PROF_edge_counter.28, *LPBX1
 1725      0000
 1726              		.loc 1 384 0
 1727 1335 C7042417 		movl	$LC1, (%esp)	 #,
 1727      000000
 1728 133c E8A1EEFF 		call	_test_println	 #
 1728      FF
 1729 1341 A1780100 		movl	LPBX1+312, %eax	 # *LPBX1, PROF_edge_counter.28
 1729      00
 1730 1346 8B157C01 		movl	LPBX1+316, %edx	 # *LPBX1, PROF_edge_counter.28
 1730      0000
 1731 134c 83C001   		addl	$1, %eax	 #, PROF_edge_counter.28
 1732 134f 83D200   		adcl	$0, %edx	 #, PROF_edge_counter.28
 1733 1352 A3780100 		movl	%eax, LPBX1+312	 # PROF_edge_counter.28, *LPBX1
 1733      00
 1734 1357 89157C01 		movl	%edx, LPBX1+316	 # PROF_edge_counter.28, *LPBX1
 1734      0000
 1735              		.loc 1 385 0
 1736 135d C7042462 		movl	$LC26, (%esp)	 #,
 1736      010000
 1737 1364 E8EDEDFF 		call	_test_print	 #
 1737      FF
 1738              		.loc 1 386 0
 1739 1369 A0010000 		movb	_global_fail, %al	 # global_fail, global_fail.5
 1739      00
 1740 136e 84C0     		testb	%al, %al	 # global_fail.5
 1741 1370 7446     		je	L62	 #,
 1742 1372 A1800100 		movl	LPBX1+320, %eax	 # *LPBX1, PROF_edge_counter.28
 1742      00
 1743 1377 8B158401 		movl	LPBX1+324, %edx	 # *LPBX1, PROF_edge_counter.28
 1743      0000
 1744 137d 83C001   		addl	$1, %eax	 #, PROF_edge_counter.28
 1745 1380 83D200   		adcl	$0, %edx	 #, PROF_edge_counter.28
 1746 1383 A3800100 		movl	%eax, LPBX1+320	 # PROF_edge_counter.28, *LPBX1
 1746      00
 1747 1388 89158401 		movl	%edx, LPBX1+324	 # PROF_edge_counter.28, *LPBX1
 1747      0000
 1748              		.loc 1 387 0
 1749 138e C7042471 		movl	$LC27, (%esp)	 #,
 1749      010000
 1750 1395 E848EEFF 		call	_test_println	 #
 1750      FF
 1751 139a A1900100 		movl	LPBX1+336, %eax	 # *LPBX1, PROF_edge_counter.28
 1751      00
 1752 139f 8B159401 		movl	LPBX1+340, %edx	 # *LPBX1, PROF_edge_counter.28
 1752      0000
 1753 13a5 83C001   		addl	$1, %eax	 #, PROF_edge_counter.28
 1754 13a8 83D200   		adcl	$0, %edx	 #, PROF_edge_counter.28
 1755 13ab A3900100 		movl	%eax, LPBX1+336	 # PROF_edge_counter.28, *LPBX1
 1755      00
 1756 13b0 89159401 		movl	%edx, LPBX1+340	 # PROF_edge_counter.28, *LPBX1
 1756      0000
 1757 13b6 EB44     		jmp	L63	 #
 1758              	L62:
 1759 13b8 A1880100 		movl	LPBX1+328, %eax	 # *LPBX1, PROF_edge_counter.28
 1759      00
GAS LISTING C:\cygwin\tmp\ccs5iBND.s 			page 44


 1760 13bd 8B158C01 		movl	LPBX1+332, %edx	 # *LPBX1, PROF_edge_counter.28
 1760      0000
 1761 13c3 83C001   		addl	$1, %eax	 #, PROF_edge_counter.28
 1762 13c6 83D200   		adcl	$0, %edx	 #, PROF_edge_counter.28
 1763 13c9 A3880100 		movl	%eax, LPBX1+328	 # PROF_edge_counter.28, *LPBX1
 1763      00
 1764 13ce 89158C01 		movl	%edx, LPBX1+332	 # PROF_edge_counter.28, *LPBX1
 1764      0000
 1765              		.loc 1 389 0
 1766 13d4 C7042479 		movl	$LC28, (%esp)	 #,
 1766      010000
 1767 13db E802EEFF 		call	_test_println	 #
 1767      FF
 1768 13e0 A1980100 		movl	LPBX1+344, %eax	 # *LPBX1, PROF_edge_counter.28
 1768      00
 1769 13e5 8B159C01 		movl	LPBX1+348, %edx	 # *LPBX1, PROF_edge_counter.28
 1769      0000
 1770 13eb 83C001   		addl	$1, %eax	 #, PROF_edge_counter.28
 1771 13ee 83D200   		adcl	$0, %edx	 #, PROF_edge_counter.28
 1772 13f1 A3980100 		movl	%eax, LPBX1+344	 # PROF_edge_counter.28, *LPBX1
 1772      00
 1773 13f6 89159C01 		movl	%edx, LPBX1+348	 # PROF_edge_counter.28, *LPBX1
 1773      0000
 1774              	L63:
 1775              		.loc 1 391 0
 1776 13fc A0010000 		movb	_global_fail, %al	 # global_fail, global_fail.6
 1776      00
 1777 1401 0FB6C0   		movzbl	%al, %eax	 # global_fail.6, D.36825
 1778              		.loc 1 392 0
 1779 1404 83C42C   		addl	$44, %esp	 #,
 1780              	LCFI37:
 1781              		.cfi_def_cfa_offset 4
 1782 1407 C3       		ret
 1783              		.cfi_endproc
 1784              	LFE27:
 1785              	.lcomm LPBX1,904,32
 1786              		.section .rdata,"dr"
 1787 0181 000000   		.align 4
 1788              	LC29:
 1789 0184 433A5C64 		.ascii "C:\\develop\\gyro\\ChibiOS\\test\\coverage/../../test/test.gcda\0"
 1789      6576656C 
 1789      6F705C67 
 1789      79726F5C 
 1789      43686962 
 1790 01bf 00       		.data
 1791 0030 00000000 		.align 32
 1791      00000000 
 1791      00000000 
 1791      00000000 
 1792              	LC30:
 1793              	 # <anonymous>:
 1794 0040 1C000000 		.long	28
 1795              	 # <anonymous>:
 1796 0044 5613B00C 		.long	212865878
 1797              	 # <anonymous>:
 1798 0048 2C000000 		.long	44
 1799              	 # <anonymous>:
GAS LISTING C:\cygwin\tmp\ccs5iBND.s 			page 45


 1800 004c 1B000000 		.long	27
 1801              	 # <anonymous>:
 1802 0050 2FD53E93 		.long	-1824598737
 1803              	 # <anonymous>:
 1804 0054 04000000 		.long	4
 1805              	 # <anonymous>:
 1806 0058 1A000000 		.long	26
 1807              	 # <anonymous>:
 1808 005c 5C592D81 		.long	-2127734436
 1809              	 # <anonymous>:
 1810 0060 09000000 		.long	9
 1811              	 # <anonymous>:
 1812 0064 19000000 		.long	25
 1813              	 # <anonymous>:
 1814 0068 2E6C3A35 		.long	893021230
 1815              	 # <anonymous>:
 1816 006c 04000000 		.long	4
 1817              	 # <anonymous>:
 1818 0070 18000000 		.long	24
 1819              	 # <anonymous>:
 1820 0074 CE9BE17C 		.long	2095160270
 1821              	 # <anonymous>:
 1822 0078 01000000 		.long	1
 1823              	 # <anonymous>:
 1824 007c 17000000 		.long	23
 1825              	 # <anonymous>:
 1826 0080 8E2FBB40 		.long	1086009230
 1827              	 # <anonymous>:
 1828 0084 02000000 		.long	2
 1829              	 # <anonymous>:
 1830 0088 16000000 		.long	22
 1831              	 # <anonymous>:
 1832 008c 4C2CFC35 		.long	905718860
 1833              	 # <anonymous>:
 1834 0090 08000000 		.long	8
 1835              	 # <anonymous>:
 1836 0094 15000000 		.long	21
 1837              	 # <anonymous>:
 1838 0098 3E857581 		.long	-2123004610
 1839              	 # <anonymous>:
 1840 009c 04000000 		.long	4
 1841              	 # <anonymous>:
 1842 00a0 14000000 		.long	20
 1843              	 # <anonymous>:
 1844 00a4 91B9B518 		.long	414562705
 1845              	 # <anonymous>:
 1846 00a8 04000000 		.long	4
 1847              	 # <anonymous>:
 1848 00ac 13000000 		.long	19
 1849              	 # <anonymous>:
 1850 00b0 7241555A 		.long	1515536754
 1851              	 # <anonymous>:
 1852 00b4 03000000 		.long	3
 1853              	 # <anonymous>:
 1854 00b8 12000000 		.long	18
 1855              	 # <anonymous>:
 1856 00bc E0AF614C 		.long	1281470432
GAS LISTING C:\cygwin\tmp\ccs5iBND.s 			page 46


 1857              	 # <anonymous>:
 1858 00c0 07000000 		.long	7
 1859              	 # <anonymous>:
 1860 00c4 11000000 		.long	17
 1861              	 # <anonymous>:
 1862 00c8 AD0E46A6 		.long	-1505358163
 1863              	 # <anonymous>:
 1864 00cc 03000000 		.long	3
 1865              	 # <anonymous>:
 1866 00d0 10000000 		.long	16
 1867              	 # <anonymous>:
 1868 00d4 9F580D7C 		.long	2081249439
 1869              	 # <anonymous>:
 1870 00d8 01000000 		.long	1
 1871              	 # <anonymous>:
 1872 00dc 0F000000 		.long	15
 1873              	 # <anonymous>:
 1874 00e0 73404523 		.long	591741043
 1875              	 # <anonymous>:
 1876 00e4 03000000 		.long	3
 1877              	 # <anonymous>:
 1878 00e8 0E000000 		.long	14
 1879              	 # <anonymous>:
 1880 00ec 84B8B1C3 		.long	-1011763068
 1881              	 # <anonymous>:
 1882 00f0 03000000 		.long	3
 1883              	 # <anonymous>:
 1884 00f4 0D000000 		.long	13
 1885              	 # <anonymous>:
 1886 00f8 EB27E593 		.long	-1813698581
 1887              	 # <anonymous>:
 1888 00fc 01000000 		.long	1
 1889              	 # <anonymous>:
 1890 0100 0C000000 		.long	12
 1891              	 # <anonymous>:
 1892 0104 CA67EA75 		.long	1978296266
 1893              	 # <anonymous>:
 1894 0108 03000000 		.long	3
 1895              	 # <anonymous>:
 1896 010c 0B000000 		.long	11
 1897              	 # <anonymous>:
 1898 0110 BD5930AD 		.long	-1389340227
 1899              	 # <anonymous>:
 1900 0114 03000000 		.long	3
 1901              	 # <anonymous>:
 1902 0118 0A000000 		.long	10
 1903              	 # <anonymous>:
 1904 011c FB9CA375 		.long	1973656827
 1905              	 # <anonymous>:
 1906 0120 06000000 		.long	6
 1907 0124 00000000 		.align 32
 1907      00000000 
 1907      00000000 
 1907      00000000 
 1907      00000000 
 1908              	LPBX0:
 1909              	 # <anonymous>:
GAS LISTING C:\cygwin\tmp\ccs5iBND.s 			page 47


 1910 0140 2A363034 		.long	875574826
 1911              	 # <anonymous>:
 1912 0144 00000000 		.long	0
 1913              	 # <anonymous>:
 1914 0148 939AFA66 		.long	1727699603
 1915              	 # <anonymous>:
 1916 014c 84010000 		.long	LC29
 1917              	 # <anonymous>:
 1918 0150 13000000 		.long	19
 1919              	 # <anonymous>:
 1920 0154 40000000 		.long	LC30
 1921              	 # <anonymous>:
 1922 0158 01000000 		.long	1
 1923              	 # <anonymous>:
 1924              	 # <anonymous>:
 1925 015c 71000000 		.long	113
 1926              	 # <anonymous>:
 1927 0160 40000000 		.long	LPBX1
 1928              	 # <anonymous>:
 1929 0164 00000000 		.long	___gcov_merge_add
 1930 0168 00000000 		.space 12
 1930      00000000 
 1930      00000000 
 1931 0174 00000000 		.text
 1931      00000000 
 1931      00000000 
 1932              		.def	__GLOBAL__sub_I_65535_0_wa;	.scl	3;	.type	32;	.endef
 1933              	__GLOBAL__sub_I_65535_0_wa:
 1934              	LFB28:
 1935              		.loc 1 392 0
 1936              		.cfi_startproc
 1937 1408 83EC1C   		subl	$28, %esp	 #,
 1938              	LCFI38:
 1939              		.cfi_def_cfa_offset 32
 1940              		.loc 1 392 0
 1941 140b C7042440 		movl	$LPBX0, (%esp)	 #,
 1941      010000
 1942 1412 E8000000 		call	___gcov_init	 #
 1942      00
 1943 1417 83C41C   		addl	$28, %esp	 #,
 1944              	LCFI39:
 1945              		.cfi_def_cfa_offset 4
 1946 141a C3       		ret
 1947              		.cfi_endproc
 1948              	LFE28:
 1949              		.section	.ctors,"w"
 1950              		.align 4
 1951 0000 08140000 		.long	__GLOBAL__sub_I_65535_0_wa
 1952              		.text
 1953              	Letext0:
 1954              		.file 2 "c:/mingw/bin/../lib/gcc/mingw32/4.6.2/include/stddef.h"
 1955              		.file 3 "c:/mingw/bin/../lib/gcc/mingw32/4.6.2/../../../../include/stdint.h"
 1956              		.file 4 "../../os/ports/GCC/SIMIA32/chtypes.h"
 1957              		.file 5 "../../os/kernel/include/chlists.h"
 1958              		.file 6 "../../os/kernel/include/chthreads.h"
 1959              		.file 7 "../../os/ports/GCC/SIMIA32/chcore.h"
 1960              		.file 8 "../../os/kernel/include/chvt.h"
GAS LISTING C:\cygwin\tmp\ccs5iBND.s 			page 48


 1961              		.file 9 "../../os/kernel/include/chschd.h"
 1962              		.file 10 "../../os/kernel/include/chmtx.h"
 1963              		.file 11 "../../os/kernel/include/chstreams.h"
 1964              		.file 12 "c:/mingw/bin/../lib/gcc/mingw32/4.6.2/../../../../include/stdio.h"
 1965              		.file 13 "../../test/test.h"
 1966              		.file 14 "../../test/testthd.h"
 1967              		.file 15 "../../test/testsem.h"
 1968              		.file 16 "../../test/testmtx.h"
 1969              		.file 17 "../../test/testmsg.h"
 1970              		.file 18 "../../test/testmbox.h"
 1971              		.file 19 "../../test/testevt.h"
 1972              		.file 20 "../../test/testheap.h"
 1973              		.file 21 "../../test/testpools.h"
 1974              		.file 22 "../../test/testdyn.h"
 1975              		.file 23 "../../test/testqueues.h"
 1976              		.file 24 "../../test/testbmk.h"
 1977              		.file 25 "c:/mingw/bin/../lib/gcc/mingw32/4.6.2/../../../../include/wtypes.h"
 1978 141b 90       		.section	.debug_info,"dr"
 1979              	Ldebug_info0:
 1980 0000 44140000 		.long	0x1444
 1981 0004 0200     		.word	0x2
 1982 0006 00000000 		.secrel32	Ldebug_abbrev0
 1983 000a 04       		.byte	0x4
 1984 000b 01       		.uleb128 0x1
 1985 000c 474E5520 		.ascii "GNU C 4.6.2\0"
 1985      4320342E 
 1985      362E3200 
 1986 0018 01       		.byte	0x1
 1987 0019 2E2E2F2E 		.ascii "../../test/test.c\0"
 1987      2E2F7465 
 1987      73742F74 
 1987      6573742E 
 1987      6300
 1988 002b 433A5C64 		.ascii "C:\\develop\\gyro\\ChibiOS\\test\\coverage\0"
 1988      6576656C 
 1988      6F705C67 
 1988      79726F5C 
 1988      43686962 
 1989 0051 00000000 		.long	Ltext0
 1990 0055 1B140000 		.long	Letext0
 1991 0059 00000000 		.secrel32	Ldebug_line0
 1992 005d 02       		.uleb128 0x2
 1993 005e 04       		.byte	0x4
 1994 005f 05       		.byte	0x5
 1995 0060 696E7400 		.ascii "int\0"
 1996 0064 03       		.uleb128 0x3
 1997 0065 73697A65 		.ascii "size_t\0"
 1997      5F7400
 1998 006c 02       		.byte	0x2
 1999 006d D4       		.byte	0xd4
 2000 006e 72000000 		.long	0x72
 2001 0072 02       		.uleb128 0x2
 2002 0073 04       		.byte	0x4
 2003 0074 07       		.byte	0x7
 2004 0075 756E7369 		.ascii "unsigned int\0"
 2004      676E6564 
 2004      20696E74 
GAS LISTING C:\cygwin\tmp\ccs5iBND.s 			page 49


 2004      00
 2005 0082 02       		.uleb128 0x2
 2006 0083 02       		.byte	0x2
 2007 0084 07       		.byte	0x7
 2008 0085 73686F72 		.ascii "short unsigned int\0"
 2008      7420756E 
 2008      7369676E 
 2008      65642069 
 2008      6E7400
 2009 0098 02       		.uleb128 0x2
 2010 0099 01       		.byte	0x1
 2011 009a 06       		.byte	0x6
 2012 009b 7369676E 		.ascii "signed char\0"
 2012      65642063 
 2012      68617200 
 2013 00a7 03       		.uleb128 0x3
 2014 00a8 75696E74 		.ascii "uint8_t\0"
 2014      385F7400 
 2015 00b0 03       		.byte	0x3
 2016 00b1 1C       		.byte	0x1c
 2017 00b2 B6000000 		.long	0xb6
 2018 00b6 02       		.uleb128 0x2
 2019 00b7 01       		.byte	0x1
 2020 00b8 08       		.byte	0x8
 2021 00b9 756E7369 		.ascii "unsigned char\0"
 2021      676E6564 
 2021      20636861 
 2021      7200
 2022 00c7 02       		.uleb128 0x2
 2023 00c8 02       		.byte	0x2
 2024 00c9 05       		.byte	0x5
 2025 00ca 73686F72 		.ascii "short int\0"
 2025      7420696E 
 2025      7400
 2026 00d4 03       		.uleb128 0x3
 2027 00d5 696E7433 		.ascii "int32_t\0"
 2027      325F7400 
 2028 00dd 03       		.byte	0x3
 2029 00de 1F       		.byte	0x1f
 2030 00df 5D000000 		.long	0x5d
 2031 00e3 03       		.uleb128 0x3
 2032 00e4 75696E74 		.ascii "uint32_t\0"
 2032      33325F74 
 2032      00
 2033 00ed 03       		.byte	0x3
 2034 00ee 20       		.byte	0x20
 2035 00ef 72000000 		.long	0x72
 2036 00f3 02       		.uleb128 0x2
 2037 00f4 08       		.byte	0x8
 2038 00f5 05       		.byte	0x5
 2039 00f6 6C6F6E67 		.ascii "long long int\0"
 2039      206C6F6E 
 2039      6720696E 
 2039      7400
 2040 0104 02       		.uleb128 0x2
 2041 0105 08       		.byte	0x8
 2042 0106 07       		.byte	0x7
GAS LISTING C:\cygwin\tmp\ccs5iBND.s 			page 50


 2043 0107 6C6F6E67 		.ascii "long long unsigned int\0"
 2043      206C6F6E 
 2043      6720756E 
 2043      7369676E 
 2043      65642069 
 2044 011e 03       		.uleb128 0x3
 2045 011f 626F6F6C 		.ascii "bool_t\0"
 2045      5F7400
 2046 0126 04       		.byte	0x4
 2047 0127 1C       		.byte	0x1c
 2048 0128 2C010000 		.long	0x12c
 2049 012c 02       		.uleb128 0x2
 2050 012d 01       		.byte	0x1
 2051 012e 02       		.byte	0x2
 2052 012f 5F426F6F 		.ascii "_Bool\0"
 2052      6C00
 2053 0135 03       		.uleb128 0x3
 2054 0136 746D6F64 		.ascii "tmode_t\0"
 2054      655F7400 
 2055 013e 04       		.byte	0x4
 2056 013f 1D       		.byte	0x1d
 2057 0140 A7000000 		.long	0xa7
 2058 0144 03       		.uleb128 0x3
 2059 0145 74737461 		.ascii "tstate_t\0"
 2059      74655F74 
 2059      00
 2060 014e 04       		.byte	0x4
 2061 014f 1E       		.byte	0x1e
 2062 0150 A7000000 		.long	0xa7
 2063 0154 03       		.uleb128 0x3
 2064 0155 74726566 		.ascii "trefs_t\0"
 2064      735F7400 
 2065 015d 04       		.byte	0x4
 2066 015e 1F       		.byte	0x1f
 2067 015f A7000000 		.long	0xa7
 2068 0163 03       		.uleb128 0x3
 2069 0164 74736C69 		.ascii "tslices_t\0"
 2069      6365735F 
 2069      7400
 2070 016e 04       		.byte	0x4
 2071 016f 20       		.byte	0x20
 2072 0170 A7000000 		.long	0xa7
 2073 0174 03       		.uleb128 0x3
 2074 0175 74707269 		.ascii "tprio_t\0"
 2074      6F5F7400 
 2075 017d 04       		.byte	0x4
 2076 017e 21       		.byte	0x21
 2077 017f E3000000 		.long	0xe3
 2078 0183 03       		.uleb128 0x3
 2079 0184 6D73675F 		.ascii "msg_t\0"
 2079      7400
 2080 018a 04       		.byte	0x4
 2081 018b 22       		.byte	0x22
 2082 018c D4000000 		.long	0xd4
 2083 0190 03       		.uleb128 0x3
 2084 0191 6576656E 		.ascii "eventmask_t\0"
 2084      746D6173 
GAS LISTING C:\cygwin\tmp\ccs5iBND.s 			page 51


 2084      6B5F7400 
 2085 019d 04       		.byte	0x4
 2086 019e 24       		.byte	0x24
 2087 019f E3000000 		.long	0xe3
 2088 01a3 03       		.uleb128 0x3
 2089 01a4 73797374 		.ascii "systime_t\0"
 2089      696D655F 
 2089      7400
 2090 01ae 04       		.byte	0x4
 2091 01af 26       		.byte	0x26
 2092 01b0 E3000000 		.long	0xe3
 2093 01b4 03       		.uleb128 0x3
 2094 01b5 54687265 		.ascii "Thread\0"
 2094      616400
 2095 01bc 05       		.byte	0x5
 2096 01bd 23       		.byte	0x23
 2097 01be C2010000 		.long	0x1c2
 2098 01c2 04       		.uleb128 0x4
 2099 01c3 54687265 		.ascii "Thread\0"
 2099      616400
 2100 01ca 48       		.byte	0x48
 2101 01cb 06       		.byte	0x6
 2102 01cc 57       		.byte	0x57
 2103 01cd 38030000 		.long	0x338
 2104 01d1 05       		.uleb128 0x5
 2105 01d2 A1000000 		.secrel32	LASF0
 2106 01d6 06       		.byte	0x6
 2107 01d7 58       		.byte	0x58
 2108 01d8 60030000 		.long	0x360
 2109 01dc 02       		.byte	0x2
 2110 01dd 23       		.byte	0x23
 2111 01de 00       		.uleb128 0
 2112 01df 06       		.uleb128 0x6
 2113 01e0 705F7072 		.ascii "p_prev\0"
 2113      657600
 2114 01e7 06       		.byte	0x6
 2115 01e8 5A       		.byte	0x5a
 2116 01e9 60030000 		.long	0x360
 2117 01ed 02       		.byte	0x2
 2118 01ee 23       		.byte	0x23
 2119 01ef 04       		.uleb128 0x4
 2120 01f0 06       		.uleb128 0x6
 2121 01f1 705F7072 		.ascii "p_prio\0"
 2121      696F00
 2122 01f8 06       		.byte	0x6
 2123 01f9 5C       		.byte	0x5c
 2124 01fa 74010000 		.long	0x174
 2125 01fe 02       		.byte	0x2
 2126 01ff 23       		.byte	0x23
 2127 0200 08       		.uleb128 0x8
 2128 0201 06       		.uleb128 0x6
 2129 0202 705F6374 		.ascii "p_ctx\0"
 2129      7800
 2130 0208 06       		.byte	0x6
 2131 0209 5D       		.byte	0x5d
 2132 020a 41040000 		.long	0x441
 2133 020e 02       		.byte	0x2
GAS LISTING C:\cygwin\tmp\ccs5iBND.s 			page 52


 2134 020f 23       		.byte	0x23
 2135 0210 0C       		.uleb128 0xc
 2136 0211 06       		.uleb128 0x6
 2137 0212 705F6E65 		.ascii "p_newer\0"
 2137      77657200 
 2138 021a 06       		.byte	0x6
 2139 021b 5F       		.byte	0x5f
 2140 021c 60030000 		.long	0x360
 2141 0220 02       		.byte	0x2
 2142 0221 23       		.byte	0x23
 2143 0222 10       		.uleb128 0x10
 2144 0223 06       		.uleb128 0x6
 2145 0224 705F6F6C 		.ascii "p_older\0"
 2145      64657200 
 2146 022c 06       		.byte	0x6
 2147 022d 60       		.byte	0x60
 2148 022e 60030000 		.long	0x360
 2149 0232 02       		.byte	0x2
 2150 0233 23       		.byte	0x23
 2151 0234 14       		.uleb128 0x14
 2152 0235 06       		.uleb128 0x6
 2153 0236 705F6E61 		.ascii "p_name\0"
 2153      6D6500
 2154 023d 06       		.byte	0x6
 2155 023e 67       		.byte	0x67
 2156 023f 8A060000 		.long	0x68a
 2157 0243 02       		.byte	0x2
 2158 0244 23       		.byte	0x23
 2159 0245 18       		.uleb128 0x18
 2160 0246 06       		.uleb128 0x6
 2161 0247 705F7374 		.ascii "p_state\0"
 2161      61746500 
 2162 024f 06       		.byte	0x6
 2163 0250 72       		.byte	0x72
 2164 0251 44010000 		.long	0x144
 2165 0255 02       		.byte	0x2
 2166 0256 23       		.byte	0x23
 2167 0257 1C       		.uleb128 0x1c
 2168 0258 06       		.uleb128 0x6
 2169 0259 705F666C 		.ascii "p_flags\0"
 2169      61677300 
 2170 0261 06       		.byte	0x6
 2171 0262 76       		.byte	0x76
 2172 0263 35010000 		.long	0x135
 2173 0267 02       		.byte	0x2
 2174 0268 23       		.byte	0x23
 2175 0269 1D       		.uleb128 0x1d
 2176 026a 06       		.uleb128 0x6
 2177 026b 705F7265 		.ascii "p_refs\0"
 2177      667300
 2178 0272 06       		.byte	0x6
 2179 0273 7B       		.byte	0x7b
 2180 0274 54010000 		.long	0x154
 2181 0278 02       		.byte	0x2
 2182 0279 23       		.byte	0x23
 2183 027a 1E       		.uleb128 0x1e
 2184 027b 06       		.uleb128 0x6
GAS LISTING C:\cygwin\tmp\ccs5iBND.s 			page 53


 2185 027c 705F7072 		.ascii "p_preempt\0"
 2185      65656D70 
 2185      7400
 2186 0286 06       		.byte	0x6
 2187 0287 81       		.byte	0x81
 2188 0288 63010000 		.long	0x163
 2189 028c 02       		.byte	0x2
 2190 028d 23       		.byte	0x23
 2191 028e 1F       		.uleb128 0x1f
 2192 028f 06       		.uleb128 0x6
 2193 0290 705F7469 		.ascii "p_time\0"
 2193      6D6500
 2194 0297 06       		.byte	0x6
 2195 0298 88       		.byte	0x88
 2196 0299 58050000 		.long	0x558
 2197 029d 02       		.byte	0x2
 2198 029e 23       		.byte	0x23
 2199 029f 20       		.uleb128 0x20
 2200 02a0 06       		.uleb128 0x6
 2201 02a1 705F7500 		.ascii "p_u\0"
 2202 02a5 06       		.byte	0x6
 2203 02a6 AD       		.byte	0xad
 2204 02a7 47060000 		.long	0x647
 2205 02ab 02       		.byte	0x2
 2206 02ac 23       		.byte	0x23
 2207 02ad 24       		.uleb128 0x24
 2208 02ae 06       		.uleb128 0x6
 2209 02af 705F7761 		.ascii "p_waiting\0"
 2209      6974696E 
 2209      6700
 2210 02b9 06       		.byte	0x6
 2211 02ba B2       		.byte	0xb2
 2212 02bb 91030000 		.long	0x391
 2213 02bf 02       		.byte	0x2
 2214 02c0 23       		.byte	0x23
 2215 02c1 28       		.uleb128 0x28
 2216 02c2 06       		.uleb128 0x6
 2217 02c3 705F6D73 		.ascii "p_msgqueue\0"
 2217      67717565 
 2217      756500
 2218 02ce 06       		.byte	0x6
 2219 02cf B8       		.byte	0xb8
 2220 02d0 66030000 		.long	0x366
 2221 02d4 02       		.byte	0x2
 2222 02d5 23       		.byte	0x23
 2223 02d6 2C       		.uleb128 0x2c
 2224 02d7 06       		.uleb128 0x6
 2225 02d8 705F6D73 		.ascii "p_msg\0"
 2225      6700
 2226 02de 06       		.byte	0x6
 2227 02df BC       		.byte	0xbc
 2228 02e0 83010000 		.long	0x183
 2229 02e4 02       		.byte	0x2
 2230 02e5 23       		.byte	0x23
 2231 02e6 34       		.uleb128 0x34
 2232 02e7 06       		.uleb128 0x6
 2233 02e8 705F6570 		.ascii "p_epending\0"
GAS LISTING C:\cygwin\tmp\ccs5iBND.s 			page 54


 2233      656E6469 
 2233      6E6700
 2234 02f3 06       		.byte	0x6
 2235 02f4 C2       		.byte	0xc2
 2236 02f5 90010000 		.long	0x190
 2237 02f9 02       		.byte	0x2
 2238 02fa 23       		.byte	0x23
 2239 02fb 38       		.uleb128 0x38
 2240 02fc 06       		.uleb128 0x6
 2241 02fd 705F6D74 		.ascii "p_mtxlist\0"
 2241      786C6973 
 2241      7400
 2242 0307 06       		.byte	0x6
 2243 0308 C9       		.byte	0xc9
 2244 0309 9D060000 		.long	0x69d
 2245 030d 02       		.byte	0x2
 2246 030e 23       		.byte	0x23
 2247 030f 3C       		.uleb128 0x3c
 2248 0310 06       		.uleb128 0x6
 2249 0311 705F7265 		.ascii "p_realprio\0"
 2249      616C7072 
 2249      696F00
 2250 031c 06       		.byte	0x6
 2251 031d CD       		.byte	0xcd
 2252 031e 74010000 		.long	0x174
 2253 0322 02       		.byte	0x2
 2254 0323 23       		.byte	0x23
 2255 0324 40       		.uleb128 0x40
 2256 0325 06       		.uleb128 0x6
 2257 0326 705F6D70 		.ascii "p_mpool\0"
 2257      6F6F6C00 
 2258 032e 06       		.byte	0x6
 2259 032f D3       		.byte	0xd3
 2260 0330 E9030000 		.long	0x3e9
 2261 0334 02       		.byte	0x2
 2262 0335 23       		.byte	0x23
 2263 0336 44       		.uleb128 0x44
 2264 0337 00       		.byte	0
 2265 0338 07       		.uleb128 0x7
 2266 0339 08       		.byte	0x8
 2267 033a 05       		.byte	0x5
 2268 033b 5A       		.byte	0x5a
 2269 033c 60030000 		.long	0x360
 2270 0340 05       		.uleb128 0x5
 2271 0341 A1000000 		.secrel32	LASF0
 2272 0345 05       		.byte	0x5
 2273 0346 5B       		.byte	0x5b
 2274 0347 60030000 		.long	0x360
 2275 034b 02       		.byte	0x2
 2276 034c 23       		.byte	0x23
 2277 034d 00       		.uleb128 0
 2278 034e 06       		.uleb128 0x6
 2279 034f 705F7072 		.ascii "p_prev\0"
 2279      657600
 2280 0356 05       		.byte	0x5
 2281 0357 5D       		.byte	0x5d
 2282 0358 60030000 		.long	0x360
GAS LISTING C:\cygwin\tmp\ccs5iBND.s 			page 55


 2283 035c 02       		.byte	0x2
 2284 035d 23       		.byte	0x23
 2285 035e 04       		.uleb128 0x4
 2286 035f 00       		.byte	0
 2287 0360 08       		.uleb128 0x8
 2288 0361 04       		.byte	0x4
 2289 0362 B4010000 		.long	0x1b4
 2290 0366 03       		.uleb128 0x3
 2291 0367 54687265 		.ascii "ThreadsQueue\0"
 2291      61647351 
 2291      75657565 
 2291      00
 2292 0374 05       		.byte	0x5
 2293 0375 5F       		.byte	0x5f
 2294 0376 38030000 		.long	0x338
 2295 037a 07       		.uleb128 0x7
 2296 037b 04       		.byte	0x4
 2297 037c 05       		.byte	0x5
 2298 037d 64       		.byte	0x64
 2299 037e 91030000 		.long	0x391
 2300 0382 05       		.uleb128 0x5
 2301 0383 A1000000 		.secrel32	LASF0
 2302 0387 05       		.byte	0x5
 2303 0388 66       		.byte	0x66
 2304 0389 60030000 		.long	0x360
 2305 038d 02       		.byte	0x2
 2306 038e 23       		.byte	0x23
 2307 038f 00       		.uleb128 0
 2308 0390 00       		.byte	0
 2309 0391 03       		.uleb128 0x3
 2310 0392 54687265 		.ascii "ThreadsList\0"
 2310      6164734C 
 2310      69737400 
 2311 039e 05       		.byte	0x5
 2312 039f 69       		.byte	0x69
 2313 03a0 7A030000 		.long	0x37a
 2314 03a4 07       		.uleb128 0x7
 2315 03a5 10       		.byte	0x10
 2316 03a6 07       		.byte	0x7
 2317 03a7 3D       		.byte	0x3d
 2318 03a8 B9030000 		.long	0x3b9
 2319 03ac 06       		.uleb128 0x6
 2320 03ad 6100     		.ascii "a\0"
 2321 03af 07       		.byte	0x7
 2322 03b0 3E       		.byte	0x3e
 2323 03b1 B9030000 		.long	0x3b9
 2324 03b5 02       		.byte	0x2
 2325 03b6 23       		.byte	0x23
 2326 03b7 00       		.uleb128 0
 2327 03b8 00       		.byte	0
 2328 03b9 09       		.uleb128 0x9
 2329 03ba A7000000 		.long	0xa7
 2330 03be C9030000 		.long	0x3c9
 2331 03c2 0A       		.uleb128 0xa
 2332 03c3 72000000 		.long	0x72
 2333 03c7 0F       		.byte	0xf
 2334 03c8 00       		.byte	0
GAS LISTING C:\cygwin\tmp\ccs5iBND.s 			page 56


 2335 03c9 03       		.uleb128 0x3
 2336 03ca 73746B61 		.ascii "stkalign_t\0"
 2336      6C69676E 
 2336      5F7400
 2337 03d5 07       		.byte	0x7
 2338 03d6 3F       		.byte	0x3f
 2339 03d7 A4030000 		.long	0x3a4
 2340 03db 03       		.uleb128 0x3
 2341 03dc 72656778 		.ascii "regx86\0"
 2341      383600
 2342 03e3 07       		.byte	0x7
 2343 03e4 44       		.byte	0x44
 2344 03e5 E9030000 		.long	0x3e9
 2345 03e9 0B       		.uleb128 0xb
 2346 03ea 04       		.byte	0x4
 2347 03eb 04       		.uleb128 0x4
 2348 03ec 696E7463 		.ascii "intctx\0"
 2348      747800
 2349 03f3 14       		.byte	0x14
 2350 03f4 07       		.byte	0x7
 2351 03f5 52       		.byte	0x52
 2352 03f6 41040000 		.long	0x441
 2353 03fa 06       		.uleb128 0x6
 2354 03fb 65627800 		.ascii "ebx\0"
 2355 03ff 07       		.byte	0x7
 2356 0400 53       		.byte	0x53
 2357 0401 DB030000 		.long	0x3db
 2358 0405 02       		.byte	0x2
 2359 0406 23       		.byte	0x23
 2360 0407 00       		.uleb128 0
 2361 0408 06       		.uleb128 0x6
 2362 0409 65646900 		.ascii "edi\0"
 2363 040d 07       		.byte	0x7
 2364 040e 54       		.byte	0x54
 2365 040f DB030000 		.long	0x3db
 2366 0413 02       		.byte	0x2
 2367 0414 23       		.byte	0x23
 2368 0415 04       		.uleb128 0x4
 2369 0416 06       		.uleb128 0x6
 2370 0417 65736900 		.ascii "esi\0"
 2371 041b 07       		.byte	0x7
 2372 041c 55       		.byte	0x55
 2373 041d DB030000 		.long	0x3db
 2374 0421 02       		.byte	0x2
 2375 0422 23       		.byte	0x23
 2376 0423 08       		.uleb128 0x8
 2377 0424 06       		.uleb128 0x6
 2378 0425 65627000 		.ascii "ebp\0"
 2379 0429 07       		.byte	0x7
 2380 042a 56       		.byte	0x56
 2381 042b DB030000 		.long	0x3db
 2382 042f 02       		.byte	0x2
 2383 0430 23       		.byte	0x23
 2384 0431 0C       		.uleb128 0xc
 2385 0432 06       		.uleb128 0x6
 2386 0433 65697000 		.ascii "eip\0"
 2387 0437 07       		.byte	0x7
GAS LISTING C:\cygwin\tmp\ccs5iBND.s 			page 57


 2388 0438 57       		.byte	0x57
 2389 0439 DB030000 		.long	0x3db
 2390 043d 02       		.byte	0x2
 2391 043e 23       		.byte	0x23
 2392 043f 10       		.uleb128 0x10
 2393 0440 00       		.byte	0
 2394 0441 04       		.uleb128 0x4
 2395 0442 636F6E74 		.ascii "context\0"
 2395      65787400 
 2396 044a 04       		.byte	0x4
 2397 044b 07       		.byte	0x7
 2398 044c 5F       		.byte	0x5f
 2399 044d 60040000 		.long	0x460
 2400 0451 06       		.uleb128 0x6
 2401 0452 65737000 		.ascii "esp\0"
 2402 0456 07       		.byte	0x7
 2403 0457 60       		.byte	0x60
 2404 0458 60040000 		.long	0x460
 2405 045c 02       		.byte	0x2
 2406 045d 23       		.byte	0x23
 2407 045e 00       		.uleb128 0
 2408 045f 00       		.byte	0
 2409 0460 08       		.uleb128 0x8
 2410 0461 04       		.byte	0x4
 2411 0462 66040000 		.long	0x466
 2412 0466 0C       		.uleb128 0xc
 2413 0467 EB030000 		.long	0x3eb
 2414 046b 03       		.uleb128 0x3
 2415 046c 76746675 		.ascii "vtfunc_t\0"
 2415      6E635F74 
 2415      00
 2416 0475 08       		.byte	0x8
 2417 0476 4E       		.byte	0x4e
 2418 0477 7B040000 		.long	0x47b
 2419 047b 08       		.uleb128 0x8
 2420 047c 04       		.byte	0x4
 2421 047d 81040000 		.long	0x481
 2422 0481 0D       		.uleb128 0xd
 2423 0482 01       		.byte	0x1
 2424 0483 8D040000 		.long	0x48d
 2425 0487 0E       		.uleb128 0xe
 2426 0488 E9030000 		.long	0x3e9
 2427 048c 00       		.byte	0
 2428 048d 0F       		.uleb128 0xf
 2429 048e 55000000 		.secrel32	LASF1
 2430 0492 08       		.byte	0x8
 2431 0493 53       		.byte	0x53
 2432 0494 98040000 		.long	0x498
 2433 0498 10       		.uleb128 0x10
 2434 0499 55000000 		.secrel32	LASF1
 2435 049d 14       		.byte	0x14
 2436 049e 08       		.byte	0x8
 2437 049f 5A       		.byte	0x5a
 2438 04a0 FE040000 		.long	0x4fe
 2439 04a4 06       		.uleb128 0x6
 2440 04a5 76745F6E 		.ascii "vt_next\0"
 2440      65787400 
GAS LISTING C:\cygwin\tmp\ccs5iBND.s 			page 58


 2441 04ad 08       		.byte	0x8
 2442 04ae 5B       		.byte	0x5b
 2443 04af FE040000 		.long	0x4fe
 2444 04b3 02       		.byte	0x2
 2445 04b4 23       		.byte	0x23
 2446 04b5 00       		.uleb128 0
 2447 04b6 06       		.uleb128 0x6
 2448 04b7 76745F70 		.ascii "vt_prev\0"
 2448      72657600 
 2449 04bf 08       		.byte	0x8
 2450 04c0 5D       		.byte	0x5d
 2451 04c1 FE040000 		.long	0x4fe
 2452 04c5 02       		.byte	0x2
 2453 04c6 23       		.byte	0x23
 2454 04c7 04       		.uleb128 0x4
 2455 04c8 06       		.uleb128 0x6
 2456 04c9 76745F74 		.ascii "vt_time\0"
 2456      696D6500 
 2457 04d1 08       		.byte	0x8
 2458 04d2 5F       		.byte	0x5f
 2459 04d3 A3010000 		.long	0x1a3
 2460 04d7 02       		.byte	0x2
 2461 04d8 23       		.byte	0x23
 2462 04d9 08       		.uleb128 0x8
 2463 04da 06       		.uleb128 0x6
 2464 04db 76745F66 		.ascii "vt_func\0"
 2464      756E6300 
 2465 04e3 08       		.byte	0x8
 2466 04e4 60       		.byte	0x60
 2467 04e5 6B040000 		.long	0x46b
 2468 04e9 02       		.byte	0x2
 2469 04ea 23       		.byte	0x23
 2470 04eb 0C       		.uleb128 0xc
 2471 04ec 06       		.uleb128 0x6
 2472 04ed 76745F70 		.ascii "vt_par\0"
 2472      617200
 2473 04f4 08       		.byte	0x8
 2474 04f5 62       		.byte	0x62
 2475 04f6 E9030000 		.long	0x3e9
 2476 04fa 02       		.byte	0x2
 2477 04fb 23       		.byte	0x23
 2478 04fc 10       		.uleb128 0x10
 2479 04fd 00       		.byte	0
 2480 04fe 08       		.uleb128 0x8
 2481 04ff 04       		.byte	0x4
 2482 0500 8D040000 		.long	0x48d
 2483 0504 07       		.uleb128 0x7
 2484 0505 10       		.byte	0x10
 2485 0506 08       		.byte	0x8
 2486 0507 6C       		.byte	0x6c
 2487 0508 58050000 		.long	0x558
 2488 050c 06       		.uleb128 0x6
 2489 050d 76745F6E 		.ascii "vt_next\0"
 2489      65787400 
 2490 0515 08       		.byte	0x8
 2491 0516 6D       		.byte	0x6d
 2492 0517 FE040000 		.long	0x4fe
GAS LISTING C:\cygwin\tmp\ccs5iBND.s 			page 59


 2493 051b 02       		.byte	0x2
 2494 051c 23       		.byte	0x23
 2495 051d 00       		.uleb128 0
 2496 051e 06       		.uleb128 0x6
 2497 051f 76745F70 		.ascii "vt_prev\0"
 2497      72657600 
 2498 0527 08       		.byte	0x8
 2499 0528 6F       		.byte	0x6f
 2500 0529 FE040000 		.long	0x4fe
 2501 052d 02       		.byte	0x2
 2502 052e 23       		.byte	0x23
 2503 052f 04       		.uleb128 0x4
 2504 0530 06       		.uleb128 0x6
 2505 0531 76745F74 		.ascii "vt_time\0"
 2505      696D6500 
 2506 0539 08       		.byte	0x8
 2507 053a 71       		.byte	0x71
 2508 053b A3010000 		.long	0x1a3
 2509 053f 02       		.byte	0x2
 2510 0540 23       		.byte	0x23
 2511 0541 08       		.uleb128 0x8
 2512 0542 06       		.uleb128 0x6
 2513 0543 76745F73 		.ascii "vt_systime\0"
 2513      79737469 
 2513      6D6500
 2514 054e 08       		.byte	0x8
 2515 054f 72       		.byte	0x72
 2516 0550 58050000 		.long	0x558
 2517 0554 02       		.byte	0x2
 2518 0555 23       		.byte	0x23
 2519 0556 0C       		.uleb128 0xc
 2520 0557 00       		.byte	0
 2521 0558 0C       		.uleb128 0xc
 2522 0559 A3010000 		.long	0x1a3
 2523 055d 03       		.uleb128 0x3
 2524 055e 56544C69 		.ascii "VTList\0"
 2524      737400
 2525 0565 08       		.byte	0x8
 2526 0566 73       		.byte	0x73
 2527 0567 04050000 		.long	0x504
 2528 056b 07       		.uleb128 0x7
 2529 056c 1C       		.byte	0x1c
 2530 056d 09       		.byte	0x9
 2531 056e 57       		.byte	0x57
 2532 056f DF050000 		.long	0x5df
 2533 0573 06       		.uleb128 0x6
 2534 0574 725F7175 		.ascii "r_queue\0"
 2534      65756500 
 2535 057c 09       		.byte	0x9
 2536 057d 58       		.byte	0x58
 2537 057e 66030000 		.long	0x366
 2538 0582 02       		.byte	0x2
 2539 0583 23       		.byte	0x23
 2540 0584 00       		.uleb128 0
 2541 0585 06       		.uleb128 0x6
 2542 0586 725F7072 		.ascii "r_prio\0"
 2542      696F00
GAS LISTING C:\cygwin\tmp\ccs5iBND.s 			page 60


 2543 058d 09       		.byte	0x9
 2544 058e 59       		.byte	0x59
 2545 058f 74010000 		.long	0x174
 2546 0593 02       		.byte	0x2
 2547 0594 23       		.byte	0x23
 2548 0595 08       		.uleb128 0x8
 2549 0596 06       		.uleb128 0x6
 2550 0597 725F6374 		.ascii "r_ctx\0"
 2550      7800
 2551 059d 09       		.byte	0x9
 2552 059e 5B       		.byte	0x5b
 2553 059f 41040000 		.long	0x441
 2554 05a3 02       		.byte	0x2
 2555 05a4 23       		.byte	0x23
 2556 05a5 0C       		.uleb128 0xc
 2557 05a6 06       		.uleb128 0x6
 2558 05a7 725F6E65 		.ascii "r_newer\0"
 2558      77657200 
 2559 05af 09       		.byte	0x9
 2560 05b0 5E       		.byte	0x5e
 2561 05b1 60030000 		.long	0x360
 2562 05b5 02       		.byte	0x2
 2563 05b6 23       		.byte	0x23
 2564 05b7 10       		.uleb128 0x10
 2565 05b8 06       		.uleb128 0x6
 2566 05b9 725F6F6C 		.ascii "r_older\0"
 2566      64657200 
 2567 05c1 09       		.byte	0x9
 2568 05c2 5F       		.byte	0x5f
 2569 05c3 60030000 		.long	0x360
 2570 05c7 02       		.byte	0x2
 2571 05c8 23       		.byte	0x23
 2572 05c9 14       		.uleb128 0x14
 2573 05ca 06       		.uleb128 0x6
 2574 05cb 725F6375 		.ascii "r_current\0"
 2574      7272656E 
 2574      7400
 2575 05d5 09       		.byte	0x9
 2576 05d6 62       		.byte	0x62
 2577 05d7 60030000 		.long	0x360
 2578 05db 02       		.byte	0x2
 2579 05dc 23       		.byte	0x23
 2580 05dd 18       		.uleb128 0x18
 2581 05de 00       		.byte	0
 2582 05df 03       		.uleb128 0x3
 2583 05e0 52656164 		.ascii "ReadyList\0"
 2583      794C6973 
 2583      7400
 2584 05ea 09       		.byte	0x9
 2585 05eb 64       		.byte	0x64
 2586 05ec 6B050000 		.long	0x56b
 2587 05f0 04       		.uleb128 0x4
 2588 05f1 4D757465 		.ascii "Mutex\0"
 2588      7800
 2589 05f7 10       		.byte	0x10
 2590 05f8 0A       		.byte	0xa
 2591 05f9 25       		.byte	0x25
GAS LISTING C:\cygwin\tmp\ccs5iBND.s 			page 61


 2592 05fa 34060000 		.long	0x634
 2593 05fe 06       		.uleb128 0x6
 2594 05ff 6D5F7175 		.ascii "m_queue\0"
 2594      65756500 
 2595 0607 0A       		.byte	0xa
 2596 0608 26       		.byte	0x26
 2597 0609 66030000 		.long	0x366
 2598 060d 02       		.byte	0x2
 2599 060e 23       		.byte	0x23
 2600 060f 00       		.uleb128 0
 2601 0610 06       		.uleb128 0x6
 2602 0611 6D5F6F77 		.ascii "m_owner\0"
 2602      6E657200 
 2603 0619 0A       		.byte	0xa
 2604 061a 28       		.byte	0x28
 2605 061b 60030000 		.long	0x360
 2606 061f 02       		.byte	0x2
 2607 0620 23       		.byte	0x23
 2608 0621 08       		.uleb128 0x8
 2609 0622 06       		.uleb128 0x6
 2610 0623 6D5F6E65 		.ascii "m_next\0"
 2610      787400
 2611 062a 0A       		.byte	0xa
 2612 062b 2A       		.byte	0x2a
 2613 062c 34060000 		.long	0x634
 2614 0630 02       		.byte	0x2
 2615 0631 23       		.byte	0x23
 2616 0632 0C       		.uleb128 0xc
 2617 0633 00       		.byte	0
 2618 0634 08       		.uleb128 0x8
 2619 0635 04       		.byte	0x4
 2620 0636 F0050000 		.long	0x5f0
 2621 063a 03       		.uleb128 0x3
 2622 063b 4D757465 		.ascii "Mutex\0"
 2622      7800
 2623 0641 0A       		.byte	0xa
 2624 0642 2C       		.byte	0x2c
 2625 0643 F0050000 		.long	0x5f0
 2626 0647 11       		.uleb128 0x11
 2627 0648 04       		.byte	0x4
 2628 0649 06       		.byte	0x6
 2629 064a 8F       		.byte	0x8f
 2630 064b 8A060000 		.long	0x68a
 2631 064f 12       		.uleb128 0x12
 2632 0650 7264796D 		.ascii "rdymsg\0"
 2632      736700
 2633 0657 06       		.byte	0x6
 2634 0658 96       		.byte	0x96
 2635 0659 83010000 		.long	0x183
 2636 065d 12       		.uleb128 0x12
 2637 065e 65786974 		.ascii "exitcode\0"
 2637      636F6465 
 2637      00
 2638 0667 06       		.byte	0x6
 2639 0668 9D       		.byte	0x9d
 2640 0669 83010000 		.long	0x183
 2641 066d 12       		.uleb128 0x12
GAS LISTING C:\cygwin\tmp\ccs5iBND.s 			page 62


 2642 066e 77746F62 		.ascii "wtobjp\0"
 2642      6A7000
 2643 0675 06       		.byte	0x6
 2644 0676 A4       		.byte	0xa4
 2645 0677 E9030000 		.long	0x3e9
 2646 067b 12       		.uleb128 0x12
 2647 067c 65776D61 		.ascii "ewmask\0"
 2647      736B00
 2648 0683 06       		.byte	0x6
 2649 0684 AB       		.byte	0xab
 2650 0685 90010000 		.long	0x190
 2651 0689 00       		.byte	0
 2652 068a 08       		.uleb128 0x8
 2653 068b 04       		.byte	0x4
 2654 068c 90060000 		.long	0x690
 2655 0690 13       		.uleb128 0x13
 2656 0691 95060000 		.long	0x695
 2657 0695 02       		.uleb128 0x2
 2658 0696 01       		.byte	0x1
 2659 0697 06       		.byte	0x6
 2660 0698 63686172 		.ascii "char\0"
 2660      00
 2661 069d 08       		.uleb128 0x8
 2662 069e 04       		.byte	0x4
 2663 069f 3A060000 		.long	0x63a
 2664 06a3 08       		.uleb128 0x8
 2665 06a4 04       		.byte	0x4
 2666 06a5 A9060000 		.long	0x6a9
 2667 06a9 14       		.uleb128 0x14
 2668 06aa 01       		.byte	0x1
 2669 06ab 83010000 		.long	0x183
 2670 06af B9060000 		.long	0x6b9
 2671 06b3 0E       		.uleb128 0xe
 2672 06b4 E9030000 		.long	0x3e9
 2673 06b8 00       		.byte	0
 2674 06b9 08       		.uleb128 0x8
 2675 06ba 04       		.byte	0x4
 2676 06bb A7000000 		.long	0xa7
 2677 06bf 04       		.uleb128 0x4
 2678 06c0 42617365 		.ascii "BaseSequentialStreamVMT\0"
 2678      53657175 
 2678      656E7469 
 2678      616C5374 
 2678      7265616D 
 2679 06d8 10       		.byte	0x10
 2680 06d9 0B       		.byte	0xb
 2681 06da 41       		.byte	0x41
 2682 06db 1B070000 		.long	0x71b
 2683 06df 06       		.uleb128 0x6
 2684 06e0 77726974 		.ascii "write\0"
 2684      6500
 2685 06e6 0B       		.byte	0xb
 2686 06e7 42       		.byte	0x42
 2687 06e8 40070000 		.long	0x740
 2688 06ec 02       		.byte	0x2
 2689 06ed 23       		.byte	0x23
 2690 06ee 00       		.uleb128 0
GAS LISTING C:\cygwin\tmp\ccs5iBND.s 			page 63


 2691 06ef 06       		.uleb128 0x6
 2692 06f0 72656164 		.ascii "read\0"
 2692      00
 2693 06f5 0B       		.byte	0xb
 2694 06f6 42       		.byte	0x42
 2695 06f7 60070000 		.long	0x760
 2696 06fb 02       		.byte	0x2
 2697 06fc 23       		.byte	0x23
 2698 06fd 04       		.uleb128 0x4
 2699 06fe 06       		.uleb128 0x6
 2700 06ff 70757400 		.ascii "put\0"
 2701 0703 0B       		.byte	0xb
 2702 0704 42       		.byte	0x42
 2703 0705 7B070000 		.long	0x77b
 2704 0709 02       		.byte	0x2
 2705 070a 23       		.byte	0x23
 2706 070b 08       		.uleb128 0x8
 2707 070c 06       		.uleb128 0x6
 2708 070d 67657400 		.ascii "get\0"
 2709 0711 0B       		.byte	0xb
 2710 0712 42       		.byte	0x42
 2711 0713 A3060000 		.long	0x6a3
 2712 0717 02       		.byte	0x2
 2713 0718 23       		.byte	0x23
 2714 0719 0C       		.uleb128 0xc
 2715 071a 00       		.byte	0
 2716 071b 14       		.uleb128 0x14
 2717 071c 01       		.byte	0x1
 2718 071d 64000000 		.long	0x64
 2719 0721 35070000 		.long	0x735
 2720 0725 0E       		.uleb128 0xe
 2721 0726 E9030000 		.long	0x3e9
 2722 072a 0E       		.uleb128 0xe
 2723 072b 35070000 		.long	0x735
 2724 072f 0E       		.uleb128 0xe
 2725 0730 64000000 		.long	0x64
 2726 0734 00       		.byte	0
 2727 0735 08       		.uleb128 0x8
 2728 0736 04       		.byte	0x4
 2729 0737 3B070000 		.long	0x73b
 2730 073b 13       		.uleb128 0x13
 2731 073c A7000000 		.long	0xa7
 2732 0740 08       		.uleb128 0x8
 2733 0741 04       		.byte	0x4
 2734 0742 1B070000 		.long	0x71b
 2735 0746 14       		.uleb128 0x14
 2736 0747 01       		.byte	0x1
 2737 0748 64000000 		.long	0x64
 2738 074c 60070000 		.long	0x760
 2739 0750 0E       		.uleb128 0xe
 2740 0751 E9030000 		.long	0x3e9
 2741 0755 0E       		.uleb128 0xe
 2742 0756 B9060000 		.long	0x6b9
 2743 075a 0E       		.uleb128 0xe
 2744 075b 64000000 		.long	0x64
 2745 075f 00       		.byte	0
 2746 0760 08       		.uleb128 0x8
GAS LISTING C:\cygwin\tmp\ccs5iBND.s 			page 64


 2747 0761 04       		.byte	0x4
 2748 0762 46070000 		.long	0x746
 2749 0766 14       		.uleb128 0x14
 2750 0767 01       		.byte	0x1
 2751 0768 83010000 		.long	0x183
 2752 076c 7B070000 		.long	0x77b
 2753 0770 0E       		.uleb128 0xe
 2754 0771 E9030000 		.long	0x3e9
 2755 0775 0E       		.uleb128 0xe
 2756 0776 A7000000 		.long	0xa7
 2757 077a 00       		.byte	0
 2758 077b 08       		.uleb128 0x8
 2759 077c 04       		.byte	0x4
 2760 077d 66070000 		.long	0x766
 2761 0781 07       		.uleb128 0x7
 2762 0782 04       		.byte	0x4
 2763 0783 0B       		.byte	0xb
 2764 0784 4A       		.byte	0x4a
 2765 0785 98070000 		.long	0x798
 2766 0789 06       		.uleb128 0x6
 2767 078a 766D7400 		.ascii "vmt\0"
 2768 078e 0B       		.byte	0xb
 2769 078f 4C       		.byte	0x4c
 2770 0790 98070000 		.long	0x798
 2771 0794 02       		.byte	0x2
 2772 0795 23       		.byte	0x23
 2773 0796 00       		.uleb128 0
 2774 0797 00       		.byte	0
 2775 0798 08       		.uleb128 0x8
 2776 0799 04       		.byte	0x4
 2777 079a 9E070000 		.long	0x79e
 2778 079e 13       		.uleb128 0x13
 2779 079f BF060000 		.long	0x6bf
 2780 07a3 03       		.uleb128 0x3
 2781 07a4 42617365 		.ascii "BaseSequentialStream\0"
 2781      53657175 
 2781      656E7469 
 2781      616C5374 
 2781      7265616D 
 2782 07b9 0B       		.byte	0xb
 2783 07ba 4E       		.byte	0x4e
 2784 07bb 81070000 		.long	0x781
 2785 07bf 02       		.uleb128 0x2
 2786 07c0 04       		.byte	0x4
 2787 07c1 07       		.byte	0x7
 2788 07c2 6C6F6E67 		.ascii "long unsigned int\0"
 2788      20756E73 
 2788      69676E65 
 2788      6420696E 
 2788      7400
 2789 07d4 02       		.uleb128 0x2
 2790 07d5 04       		.byte	0x4
 2791 07d6 04       		.byte	0x4
 2792 07d7 666C6F61 		.ascii "float\0"
 2792      7400
 2793 07dd 02       		.uleb128 0x2
 2794 07de 04       		.byte	0x4
GAS LISTING C:\cygwin\tmp\ccs5iBND.s 			page 65


 2795 07df 05       		.byte	0x5
 2796 07e0 6C6F6E67 		.ascii "long int\0"
 2796      20696E74 
 2796      00
 2797 07e9 08       		.uleb128 0x8
 2798 07ea 04       		.byte	0x4
 2799 07eb 95060000 		.long	0x695
 2800 07ef 02       		.uleb128 0x2
 2801 07f0 08       		.byte	0x8
 2802 07f1 04       		.byte	0x4
 2803 07f2 646F7562 		.ascii "double\0"
 2803      6C6500
 2804 07f9 15       		.uleb128 0x15
 2805 07fa 56415245 		.ascii "VARENUM\0"
 2805      4E554D00 
 2806 0802 04       		.byte	0x4
 2807 0803 19       		.byte	0x19
 2808 0804 73       		.byte	0x73
 2809 0805 750A0000 		.long	0xa75
 2810 0809 16       		.uleb128 0x16
 2811 080a 56545F45 		.ascii "VT_EMPTY\0"
 2811      4D505459 
 2811      00
 2812 0813 00       		.sleb128 0
 2813 0814 16       		.uleb128 0x16
 2814 0815 56545F4E 		.ascii "VT_NULL\0"
 2814      554C4C00 
 2815 081d 01       		.sleb128 1
 2816 081e 16       		.uleb128 0x16
 2817 081f 56545F49 		.ascii "VT_I2\0"
 2817      3200
 2818 0825 02       		.sleb128 2
 2819 0826 16       		.uleb128 0x16
 2820 0827 56545F49 		.ascii "VT_I4\0"
 2820      3400
 2821 082d 03       		.sleb128 3
 2822 082e 16       		.uleb128 0x16
 2823 082f 56545F52 		.ascii "VT_R4\0"
 2823      3400
 2824 0835 04       		.sleb128 4
 2825 0836 16       		.uleb128 0x16
 2826 0837 56545F52 		.ascii "VT_R8\0"
 2826      3800
 2827 083d 05       		.sleb128 5
 2828 083e 16       		.uleb128 0x16
 2829 083f 56545F43 		.ascii "VT_CY\0"
 2829      5900
 2830 0845 06       		.sleb128 6
 2831 0846 16       		.uleb128 0x16
 2832 0847 56545F44 		.ascii "VT_DATE\0"
 2832      41544500 
 2833 084f 07       		.sleb128 7
 2834 0850 16       		.uleb128 0x16
 2835 0851 56545F42 		.ascii "VT_BSTR\0"
 2835      53545200 
 2836 0859 08       		.sleb128 8
 2837 085a 16       		.uleb128 0x16
GAS LISTING C:\cygwin\tmp\ccs5iBND.s 			page 66


 2838 085b 56545F44 		.ascii "VT_DISPATCH\0"
 2838      49535041 
 2838      54434800 
 2839 0867 09       		.sleb128 9
 2840 0868 16       		.uleb128 0x16
 2841 0869 56545F45 		.ascii "VT_ERROR\0"
 2841      52524F52 
 2841      00
 2842 0872 0A       		.sleb128 10
 2843 0873 16       		.uleb128 0x16
 2844 0874 56545F42 		.ascii "VT_BOOL\0"
 2844      4F4F4C00 
 2845 087c 0B       		.sleb128 11
 2846 087d 16       		.uleb128 0x16
 2847 087e 56545F56 		.ascii "VT_VARIANT\0"
 2847      41524941 
 2847      4E5400
 2848 0889 0C       		.sleb128 12
 2849 088a 16       		.uleb128 0x16
 2850 088b 56545F55 		.ascii "VT_UNKNOWN\0"
 2850      4E4B4E4F 
 2850      574E00
 2851 0896 0D       		.sleb128 13
 2852 0897 16       		.uleb128 0x16
 2853 0898 56545F44 		.ascii "VT_DECIMAL\0"
 2853      4543494D 
 2853      414C00
 2854 08a3 0E       		.sleb128 14
 2855 08a4 16       		.uleb128 0x16
 2856 08a5 56545F49 		.ascii "VT_I1\0"
 2856      3100
 2857 08ab 10       		.sleb128 16
 2858 08ac 16       		.uleb128 0x16
 2859 08ad 56545F55 		.ascii "VT_UI1\0"
 2859      493100
 2860 08b4 11       		.sleb128 17
 2861 08b5 16       		.uleb128 0x16
 2862 08b6 56545F55 		.ascii "VT_UI2\0"
 2862      493200
 2863 08bd 12       		.sleb128 18
 2864 08be 16       		.uleb128 0x16
 2865 08bf 56545F55 		.ascii "VT_UI4\0"
 2865      493400
 2866 08c6 13       		.sleb128 19
 2867 08c7 16       		.uleb128 0x16
 2868 08c8 56545F49 		.ascii "VT_I8\0"
 2868      3800
 2869 08ce 14       		.sleb128 20
 2870 08cf 16       		.uleb128 0x16
 2871 08d0 56545F55 		.ascii "VT_UI8\0"
 2871      493800
 2872 08d7 15       		.sleb128 21
 2873 08d8 16       		.uleb128 0x16
 2874 08d9 56545F49 		.ascii "VT_INT\0"
 2874      4E5400
 2875 08e0 16       		.sleb128 22
 2876 08e1 16       		.uleb128 0x16
GAS LISTING C:\cygwin\tmp\ccs5iBND.s 			page 67


 2877 08e2 56545F55 		.ascii "VT_UINT\0"
 2877      494E5400 
 2878 08ea 17       		.sleb128 23
 2879 08eb 16       		.uleb128 0x16
 2880 08ec 56545F56 		.ascii "VT_VOID\0"
 2880      4F494400 
 2881 08f4 18       		.sleb128 24
 2882 08f5 16       		.uleb128 0x16
 2883 08f6 56545F48 		.ascii "VT_HRESULT\0"
 2883      52455355 
 2883      4C5400
 2884 0901 19       		.sleb128 25
 2885 0902 16       		.uleb128 0x16
 2886 0903 56545F50 		.ascii "VT_PTR\0"
 2886      545200
 2887 090a 1A       		.sleb128 26
 2888 090b 16       		.uleb128 0x16
 2889 090c 56545F53 		.ascii "VT_SAFEARRAY\0"
 2889      41464541 
 2889      52524159 
 2889      00
 2890 0919 1B       		.sleb128 27
 2891 091a 16       		.uleb128 0x16
 2892 091b 56545F43 		.ascii "VT_CARRAY\0"
 2892      41525241 
 2892      5900
 2893 0925 1C       		.sleb128 28
 2894 0926 16       		.uleb128 0x16
 2895 0927 56545F55 		.ascii "VT_USERDEFINED\0"
 2895      53455244 
 2895      4546494E 
 2895      454400
 2896 0936 1D       		.sleb128 29
 2897 0937 16       		.uleb128 0x16
 2898 0938 56545F4C 		.ascii "VT_LPSTR\0"
 2898      50535452 
 2898      00
 2899 0941 1E       		.sleb128 30
 2900 0942 16       		.uleb128 0x16
 2901 0943 56545F4C 		.ascii "VT_LPWSTR\0"
 2901      50575354 
 2901      5200
 2902 094d 1F       		.sleb128 31
 2903 094e 16       		.uleb128 0x16
 2904 094f 56545F52 		.ascii "VT_RECORD\0"
 2904      45434F52 
 2904      4400
 2905 0959 24       		.sleb128 36
 2906 095a 16       		.uleb128 0x16
 2907 095b 56545F49 		.ascii "VT_INT_PTR\0"
 2907      4E545F50 
 2907      545200
 2908 0966 25       		.sleb128 37
 2909 0967 16       		.uleb128 0x16
 2910 0968 56545F55 		.ascii "VT_UINT_PTR\0"
 2910      494E545F 
 2910      50545200 
GAS LISTING C:\cygwin\tmp\ccs5iBND.s 			page 68


 2911 0974 26       		.sleb128 38
 2912 0975 16       		.uleb128 0x16
 2913 0976 56545F46 		.ascii "VT_FILETIME\0"
 2913      494C4554 
 2913      494D4500 
 2914 0982 C000     		.sleb128 64
 2915 0984 16       		.uleb128 0x16
 2916 0985 56545F42 		.ascii "VT_BLOB\0"
 2916      4C4F4200 
 2917 098d C100     		.sleb128 65
 2918 098f 16       		.uleb128 0x16
 2919 0990 56545F53 		.ascii "VT_STREAM\0"
 2919      54524541 
 2919      4D00
 2920 099a C200     		.sleb128 66
 2921 099c 16       		.uleb128 0x16
 2922 099d 56545F53 		.ascii "VT_STORAGE\0"
 2922      544F5241 
 2922      474500
 2923 09a8 C300     		.sleb128 67
 2924 09aa 16       		.uleb128 0x16
 2925 09ab 56545F53 		.ascii "VT_STREAMED_OBJECT\0"
 2925      54524541 
 2925      4D45445F 
 2925      4F424A45 
 2925      435400
 2926 09be C400     		.sleb128 68
 2927 09c0 16       		.uleb128 0x16
 2928 09c1 56545F53 		.ascii "VT_STORED_OBJECT\0"
 2928      544F5245 
 2928      445F4F42 
 2928      4A454354 
 2928      00
 2929 09d2 C500     		.sleb128 69
 2930 09d4 16       		.uleb128 0x16
 2931 09d5 56545F42 		.ascii "VT_BLOB_OBJECT\0"
 2931      4C4F425F 
 2931      4F424A45 
 2931      435400
 2932 09e4 C600     		.sleb128 70
 2933 09e6 16       		.uleb128 0x16
 2934 09e7 56545F43 		.ascii "VT_CF\0"
 2934      4600
 2935 09ed C700     		.sleb128 71
 2936 09ef 16       		.uleb128 0x16
 2937 09f0 56545F43 		.ascii "VT_CLSID\0"
 2937      4C534944 
 2937      00
 2938 09f9 C800     		.sleb128 72
 2939 09fb 16       		.uleb128 0x16
 2940 09fc 56545F42 		.ascii "VT_BSTR_BLOB\0"
 2940      5354525F 
 2940      424C4F42 
 2940      00
 2941 0a09 FF1F     		.sleb128 4095
 2942 0a0b 16       		.uleb128 0x16
 2943 0a0c 56545F56 		.ascii "VT_VECTOR\0"
GAS LISTING C:\cygwin\tmp\ccs5iBND.s 			page 69


 2943      4543544F 
 2943      5200
 2944 0a16 8020     		.sleb128 4096
 2945 0a18 16       		.uleb128 0x16
 2946 0a19 56545F41 		.ascii "VT_ARRAY\0"
 2946      52524159 
 2946      00
 2947 0a22 80C000   		.sleb128 8192
 2948 0a25 16       		.uleb128 0x16
 2949 0a26 56545F42 		.ascii "VT_BYREF\0"
 2949      59524546 
 2949      00
 2950 0a2f 808001   		.sleb128 16384
 2951 0a32 16       		.uleb128 0x16
 2952 0a33 56545F52 		.ascii "VT_RESERVED\0"
 2952      45534552 
 2952      56454400 
 2953 0a3f 808002   		.sleb128 32768
 2954 0a42 16       		.uleb128 0x16
 2955 0a43 56545F49 		.ascii "VT_ILLEGAL\0"
 2955      4C4C4547 
 2955      414C00
 2956 0a4e FFFF03   		.sleb128 65535
 2957 0a51 16       		.uleb128 0x16
 2958 0a52 56545F49 		.ascii "VT_ILLEGALMASKED\0"
 2958      4C4C4547 
 2958      414C4D41 
 2958      534B4544 
 2958      00
 2959 0a63 FF1F     		.sleb128 4095
 2960 0a65 16       		.uleb128 0x16
 2961 0a66 56545F54 		.ascii "VT_TYPEMASK\0"
 2961      5950454D 
 2961      41534B00 
 2962 0a72 FF1F     		.sleb128 4095
 2963 0a74 00       		.byte	0
 2964 0a75 04       		.uleb128 0x4
 2965 0a76 5F696F62 		.ascii "_iobuf\0"
 2965      756600
 2966 0a7d 20       		.byte	0x20
 2967 0a7e 0C       		.byte	0xc
 2968 0a7f 81       		.byte	0x81
 2969 0a80 0C0B0000 		.long	0xb0c
 2970 0a84 06       		.uleb128 0x6
 2971 0a85 5F707472 		.ascii "_ptr\0"
 2971      00
 2972 0a8a 0C       		.byte	0xc
 2973 0a8b 83       		.byte	0x83
 2974 0a8c E9070000 		.long	0x7e9
 2975 0a90 02       		.byte	0x2
 2976 0a91 23       		.byte	0x23
 2977 0a92 00       		.uleb128 0
 2978 0a93 06       		.uleb128 0x6
 2979 0a94 5F636E74 		.ascii "_cnt\0"
 2979      00
 2980 0a99 0C       		.byte	0xc
 2981 0a9a 84       		.byte	0x84
GAS LISTING C:\cygwin\tmp\ccs5iBND.s 			page 70


 2982 0a9b 5D000000 		.long	0x5d
 2983 0a9f 02       		.byte	0x2
 2984 0aa0 23       		.byte	0x23
 2985 0aa1 04       		.uleb128 0x4
 2986 0aa2 06       		.uleb128 0x6
 2987 0aa3 5F626173 		.ascii "_base\0"
 2987      6500
 2988 0aa9 0C       		.byte	0xc
 2989 0aaa 85       		.byte	0x85
 2990 0aab E9070000 		.long	0x7e9
 2991 0aaf 02       		.byte	0x2
 2992 0ab0 23       		.byte	0x23
 2993 0ab1 08       		.uleb128 0x8
 2994 0ab2 06       		.uleb128 0x6
 2995 0ab3 5F666C61 		.ascii "_flag\0"
 2995      6700
 2996 0ab9 0C       		.byte	0xc
 2997 0aba 86       		.byte	0x86
 2998 0abb 5D000000 		.long	0x5d
 2999 0abf 02       		.byte	0x2
 3000 0ac0 23       		.byte	0x23
 3001 0ac1 0C       		.uleb128 0xc
 3002 0ac2 06       		.uleb128 0x6
 3003 0ac3 5F66696C 		.ascii "_file\0"
 3003      6500
 3004 0ac9 0C       		.byte	0xc
 3005 0aca 87       		.byte	0x87
 3006 0acb 5D000000 		.long	0x5d
 3007 0acf 02       		.byte	0x2
 3008 0ad0 23       		.byte	0x23
 3009 0ad1 10       		.uleb128 0x10
 3010 0ad2 06       		.uleb128 0x6
 3011 0ad3 5F636861 		.ascii "_charbuf\0"
 3011      72627566 
 3011      00
 3012 0adc 0C       		.byte	0xc
 3013 0add 88       		.byte	0x88
 3014 0ade 5D000000 		.long	0x5d
 3015 0ae2 02       		.byte	0x2
 3016 0ae3 23       		.byte	0x23
 3017 0ae4 14       		.uleb128 0x14
 3018 0ae5 06       		.uleb128 0x6
 3019 0ae6 5F627566 		.ascii "_bufsiz\0"
 3019      73697A00 
 3020 0aee 0C       		.byte	0xc
 3021 0aef 89       		.byte	0x89
 3022 0af0 5D000000 		.long	0x5d
 3023 0af4 02       		.byte	0x2
 3024 0af5 23       		.byte	0x23
 3025 0af6 18       		.uleb128 0x18
 3026 0af7 06       		.uleb128 0x6
 3027 0af8 5F746D70 		.ascii "_tmpfname\0"
 3027      666E616D 
 3027      6500
 3028 0b02 0C       		.byte	0xc
 3029 0b03 8A       		.byte	0x8a
 3030 0b04 E9070000 		.long	0x7e9
GAS LISTING C:\cygwin\tmp\ccs5iBND.s 			page 71


 3031 0b08 02       		.byte	0x2
 3032 0b09 23       		.byte	0x23
 3033 0b0a 1C       		.uleb128 0x1c
 3034 0b0b 00       		.byte	0
 3035 0b0c 03       		.uleb128 0x3
 3036 0b0d 46494C45 		.ascii "FILE\0"
 3036      00
 3037 0b12 0C       		.byte	0xc
 3038 0b13 8B       		.byte	0x8b
 3039 0b14 750A0000 		.long	0xa75
 3040 0b18 04       		.uleb128 0x4
 3041 0b19 74657374 		.ascii "testcase\0"
 3041      63617365 
 3041      00
 3042 0b22 10       		.byte	0x10
 3043 0b23 0D       		.byte	0xd
 3044 0b24 3F       		.byte	0x3f
 3045 0b25 6E0B0000 		.long	0xb6e
 3046 0b29 06       		.uleb128 0x6
 3047 0b2a 6E616D65 		.ascii "name\0"
 3047      00
 3048 0b2f 0D       		.byte	0xd
 3049 0b30 40       		.byte	0x40
 3050 0b31 8A060000 		.long	0x68a
 3051 0b35 02       		.byte	0x2
 3052 0b36 23       		.byte	0x23
 3053 0b37 00       		.uleb128 0
 3054 0b38 06       		.uleb128 0x6
 3055 0b39 73657475 		.ascii "setup\0"
 3055      7000
 3056 0b3f 0D       		.byte	0xd
 3057 0b40 41       		.byte	0x41
 3058 0b41 700B0000 		.long	0xb70
 3059 0b45 02       		.byte	0x2
 3060 0b46 23       		.byte	0x23
 3061 0b47 04       		.uleb128 0x4
 3062 0b48 06       		.uleb128 0x6
 3063 0b49 74656172 		.ascii "teardown\0"
 3063      646F776E 
 3063      00
 3064 0b52 0D       		.byte	0xd
 3065 0b53 42       		.byte	0x42
 3066 0b54 700B0000 		.long	0xb70
 3067 0b58 02       		.byte	0x2
 3068 0b59 23       		.byte	0x23
 3069 0b5a 08       		.uleb128 0x8
 3070 0b5b 06       		.uleb128 0x6
 3071 0b5c 65786563 		.ascii "execute\0"
 3071      75746500 
 3072 0b64 0D       		.byte	0xd
 3073 0b65 43       		.byte	0x43
 3074 0b66 700B0000 		.long	0xb70
 3075 0b6a 02       		.byte	0x2
 3076 0b6b 23       		.byte	0x23
 3077 0b6c 0C       		.uleb128 0xc
 3078 0b6d 00       		.byte	0
 3079 0b6e 17       		.uleb128 0x17
GAS LISTING C:\cygwin\tmp\ccs5iBND.s 			page 72


 3080 0b6f 01       		.byte	0x1
 3081 0b70 08       		.uleb128 0x8
 3082 0b71 04       		.byte	0x4
 3083 0b72 6E0B0000 		.long	0xb6e
 3084 0b76 18       		.uleb128 0x18
 3085 0b77 304C0100 		.long	0x14c30
 3086 0b7b 0D       		.byte	0xd
 3087 0b7c 48       		.byte	0x48
 3088 0b7d CB0B0000 		.long	0xbcb
 3089 0b81 06       		.uleb128 0x6
 3090 0b82 543000   		.ascii "T0\0"
 3091 0b85 0D       		.byte	0xd
 3092 0b86 49       		.byte	0x49
 3093 0b87 CB0B0000 		.long	0xbcb
 3094 0b8b 02       		.byte	0x2
 3095 0b8c 23       		.byte	0x23
 3096 0b8d 00       		.uleb128 0
 3097 0b8e 06       		.uleb128 0x6
 3098 0b8f 543100   		.ascii "T1\0"
 3099 0b92 0D       		.byte	0xd
 3100 0b93 4A       		.byte	0x4a
 3101 0b94 CB0B0000 		.long	0xbcb
 3102 0b98 04       		.byte	0x4
 3103 0b99 23       		.byte	0x23
 3104 0b9a F08401   		.uleb128 0x4270
 3105 0b9d 06       		.uleb128 0x6
 3106 0b9e 543200   		.ascii "T2\0"
 3107 0ba1 0D       		.byte	0xd
 3108 0ba2 4B       		.byte	0x4b
 3109 0ba3 CB0B0000 		.long	0xbcb
 3110 0ba7 04       		.byte	0x4
 3111 0ba8 23       		.byte	0x23
 3112 0ba9 E08902   		.uleb128 0x84e0
 3113 0bac 06       		.uleb128 0x6
 3114 0bad 543300   		.ascii "T3\0"
 3115 0bb0 0D       		.byte	0xd
 3116 0bb1 4C       		.byte	0x4c
 3117 0bb2 CB0B0000 		.long	0xbcb
 3118 0bb6 04       		.byte	0x4
 3119 0bb7 23       		.byte	0x23
 3120 0bb8 D08E03   		.uleb128 0xc750
 3121 0bbb 06       		.uleb128 0x6
 3122 0bbc 543400   		.ascii "T4\0"
 3123 0bbf 0D       		.byte	0xd
 3124 0bc0 4D       		.byte	0x4d
 3125 0bc1 CB0B0000 		.long	0xbcb
 3126 0bc5 04       		.byte	0x4
 3127 0bc6 23       		.byte	0x23
 3128 0bc7 C09304   		.uleb128 0x109c0
 3129 0bca 00       		.byte	0
 3130 0bcb 09       		.uleb128 0x9
 3131 0bcc C9030000 		.long	0x3c9
 3132 0bd0 DC0B0000 		.long	0xbdc
 3133 0bd4 19       		.uleb128 0x19
 3134 0bd5 72000000 		.long	0x72
 3135 0bd9 2604     		.word	0x426
 3136 0bdb 00       		.byte	0
GAS LISTING C:\cygwin\tmp\ccs5iBND.s 			page 73


 3137 0bdc 1A       		.uleb128 0x1a
 3138 0bdd 74657374 		.ascii "test_buffers\0"
 3138      5F627566 
 3138      66657273 
 3138      00
 3139 0bea 304C0100 		.long	0x14c30
 3140 0bee 0D       		.byte	0xd
 3141 0bef 47       		.byte	0x47
 3142 0bf0 0D0C0000 		.long	0xc0d
 3143 0bf4 12       		.uleb128 0x12
 3144 0bf5 776100   		.ascii "wa\0"
 3145 0bf8 0D       		.byte	0xd
 3146 0bf9 4E       		.byte	0x4e
 3147 0bfa 760B0000 		.long	0xb76
 3148 0bfe 12       		.uleb128 0x12
 3149 0bff 62756666 		.ascii "buffer\0"
 3149      657200
 3150 0c06 0D       		.byte	0xd
 3151 0c07 4F       		.byte	0x4f
 3152 0c08 0D0C0000 		.long	0xc0d
 3153 0c0c 00       		.byte	0
 3154 0c0d 09       		.uleb128 0x9
 3155 0c0e A7000000 		.long	0xa7
 3156 0c12 200C0000 		.long	0xc20
 3157 0c16 1B       		.uleb128 0x1b
 3158 0c17 72000000 		.long	0x72
 3159 0c1b 2F4C0100 		.long	0x14c2f
 3160 0c1f 00       		.byte	0
 3161 0c20 1C       		.uleb128 0x1c
 3162 0c21 01       		.byte	0x1
 3163 0c22 74657374 		.ascii "test_printn\0"
 3163      5F707269 
 3163      6E746E00 
 3164 0c2e 01       		.byte	0x1
 3165 0c2f 5F       		.byte	0x5f
 3166 0c30 01       		.byte	0x1
 3167 0c31 00000000 		.long	LFB9
 3168 0c35 56010000 		.long	LFE9
 3169 0c39 00000000 		.secrel32	LLST0
 3170 0c3d 680C0000 		.long	0xc68
 3171 0c41 1D       		.uleb128 0x1d
 3172 0c42 6E00     		.ascii "n\0"
 3173 0c44 01       		.byte	0x1
 3174 0c45 5F       		.byte	0x5f
 3175 0c46 E3000000 		.long	0xe3
 3176 0c4a 02       		.byte	0x2
 3177 0c4b 91       		.byte	0x91
 3178 0c4c 00       		.sleb128 0
 3179 0c4d 1E       		.uleb128 0x1e
 3180 0c4e 62756600 		.ascii "buf\0"
 3181 0c52 01       		.byte	0x1
 3182 0c53 60       		.byte	0x60
 3183 0c54 680C0000 		.long	0xc68
 3184 0c58 02       		.byte	0x2
 3185 0c59 91       		.byte	0x91
 3186 0c5a 5C       		.sleb128 -36
 3187 0c5b 1E       		.uleb128 0x1e
GAS LISTING C:\cygwin\tmp\ccs5iBND.s 			page 74


 3188 0c5c 7000     		.ascii "p\0"
 3189 0c5e 01       		.byte	0x1
 3190 0c5f 60       		.byte	0x60
 3191 0c60 E9070000 		.long	0x7e9
 3192 0c64 02       		.byte	0x2
 3193 0c65 91       		.byte	0x91
 3194 0c66 6C       		.sleb128 -20
 3195 0c67 00       		.byte	0
 3196 0c68 09       		.uleb128 0x9
 3197 0c69 95060000 		.long	0x695
 3198 0c6d 780C0000 		.long	0xc78
 3199 0c71 0A       		.uleb128 0xa
 3200 0c72 72000000 		.long	0x72
 3201 0c76 0F       		.byte	0xf
 3202 0c77 00       		.byte	0
 3203 0c78 1C       		.uleb128 0x1c
 3204 0c79 01       		.byte	0x1
 3205 0c7a 74657374 		.ascii "test_print\0"
 3205      5F707269 
 3205      6E7400
 3206 0c85 01       		.byte	0x1
 3207 0c86 72       		.byte	0x72
 3208 0c87 01       		.byte	0x1
 3209 0c88 56010000 		.long	LFB10
 3210 0c8c E2010000 		.long	LFE10
 3211 0c90 2D000000 		.secrel32	LLST1
 3212 0c94 A80C0000 		.long	0xca8
 3213 0c98 1D       		.uleb128 0x1d
 3214 0c99 6D736770 		.ascii "msgp\0"
 3214      00
 3215 0c9e 01       		.byte	0x1
 3216 0c9f 72       		.byte	0x72
 3217 0ca0 8A060000 		.long	0x68a
 3218 0ca4 02       		.byte	0x2
 3219 0ca5 91       		.byte	0x91
 3220 0ca6 00       		.sleb128 0
 3221 0ca7 00       		.byte	0
 3222 0ca8 1C       		.uleb128 0x1c
 3223 0ca9 01       		.byte	0x1
 3224 0caa 74657374 		.ascii "test_println\0"
 3224      5F707269 
 3224      6E746C6E 
 3224      00
 3225 0cb7 01       		.byte	0x1
 3226 0cb8 7D       		.byte	0x7d
 3227 0cb9 01       		.byte	0x1
 3228 0cba E2010000 		.long	LFB11
 3229 0cbe 6C020000 		.long	LFE11
 3230 0cc2 59000000 		.secrel32	LLST2
 3231 0cc6 DA0C0000 		.long	0xcda
 3232 0cca 1D       		.uleb128 0x1d
 3233 0ccb 6D736770 		.ascii "msgp\0"
 3233      00
 3234 0cd0 01       		.byte	0x1
 3235 0cd1 7D       		.byte	0x7d
 3236 0cd2 8A060000 		.long	0x68a
 3237 0cd6 02       		.byte	0x2
GAS LISTING C:\cygwin\tmp\ccs5iBND.s 			page 75


 3238 0cd7 91       		.byte	0x91
 3239 0cd8 00       		.sleb128 0
 3240 0cd9 00       		.byte	0
 3241 0cda 1F       		.uleb128 0x1f
 3242 0cdb 636C6561 		.ascii "clear_tokens\0"
 3242      725F746F 
 3242      6B656E73 
 3242      00
 3243 0ce8 01       		.byte	0x1
 3244 0ce9 86       		.byte	0x86
 3245 0cea 01       		.byte	0x1
 3246 0ceb 6C020000 		.long	LFB12
 3247 0cef 99020000 		.long	LFE12
 3248 0cf3 85000000 		.secrel32	LLST3
 3249 0cf7 20       		.uleb128 0x20
 3250 0cf8 7072696E 		.ascii "print_tokens\0"
 3250      745F746F 
 3250      6B656E73 
 3250      00
 3251 0d05 01       		.byte	0x1
 3252 0d06 8B       		.byte	0x8b
 3253 0d07 01       		.byte	0x1
 3254 0d08 99020000 		.long	LFB13
 3255 0d0c 2E030000 		.long	LFE13
 3256 0d10 B1000000 		.secrel32	LLST4
 3257 0d14 260D0000 		.long	0xd26
 3258 0d18 1E       		.uleb128 0x1e
 3259 0d19 637000   		.ascii "cp\0"
 3260 0d1c 01       		.byte	0x1
 3261 0d1d 8C       		.byte	0x8c
 3262 0d1e E9070000 		.long	0x7e9
 3263 0d22 02       		.byte	0x2
 3264 0d23 91       		.byte	0x91
 3265 0d24 6C       		.sleb128 -20
 3266 0d25 00       		.byte	0
 3267 0d26 1C       		.uleb128 0x1c
 3268 0d27 01       		.byte	0x1
 3269 0d28 74657374 		.ascii "test_emit_token\0"
 3269      5F656D69 
 3269      745F746F 
 3269      6B656E00 
 3270 0d38 01       		.byte	0x1
 3271 0d39 97       		.byte	0x97
 3272 0d3a 01       		.byte	0x1
 3273 0d3b 2E030000 		.long	LFB14
 3274 0d3f A4030000 		.long	LFE14
 3275 0d43 DD000000 		.secrel32	LLST5
 3276 0d47 5C0D0000 		.long	0xd5c
 3277 0d4b 1D       		.uleb128 0x1d
 3278 0d4c 746F6B65 		.ascii "token\0"
 3278      6E00
 3279 0d52 01       		.byte	0x1
 3280 0d53 97       		.byte	0x97
 3281 0d54 95060000 		.long	0x695
 3282 0d58 02       		.byte	0x2
 3283 0d59 91       		.byte	0x91
 3284 0d5a 74       		.sleb128 -12
GAS LISTING C:\cygwin\tmp\ccs5iBND.s 			page 76


 3285 0d5b 00       		.byte	0
 3286 0d5c 21       		.uleb128 0x21
 3287 0d5d 01       		.byte	0x1
 3288 0d5e 5F746573 		.ascii "_test_fail\0"
 3288      745F6661 
 3288      696C00
 3289 0d69 01       		.byte	0x1
 3290 0d6a A1       		.byte	0xa1
 3291 0d6b 01       		.byte	0x1
 3292 0d6c 1E010000 		.long	0x11e
 3293 0d70 A4030000 		.long	LFB15
 3294 0d74 E0030000 		.long	LFE15
 3295 0d78 09010000 		.secrel32	LLST6
 3296 0d7c 8F0D0000 		.long	0xd8f
 3297 0d80 22       		.uleb128 0x22
 3298 0d81 0B000000 		.secrel32	LASF2
 3299 0d85 01       		.byte	0x1
 3300 0d86 A1       		.byte	0xa1
 3301 0d87 72000000 		.long	0x72
 3302 0d8b 02       		.byte	0x2
 3303 0d8c 91       		.byte	0x91
 3304 0d8d 00       		.sleb128 0
 3305 0d8e 00       		.byte	0
 3306 0d8f 21       		.uleb128 0x21
 3307 0d90 01       		.byte	0x1
 3308 0d91 5F746573 		.ascii "_test_assert\0"
 3308      745F6173 
 3308      73657274 
 3308      00
 3309 0d9e 01       		.byte	0x1
 3310 0d9f A9       		.byte	0xa9
 3311 0da0 01       		.byte	0x1
 3312 0da1 1E010000 		.long	0x11e
 3313 0da5 E0030000 		.long	LFB16
 3314 0da9 62040000 		.long	LFE16
 3315 0dad 35010000 		.secrel32	LLST7
 3316 0db1 D80D0000 		.long	0xdd8
 3317 0db5 22       		.uleb128 0x22
 3318 0db6 0B000000 		.secrel32	LASF2
 3319 0dba 01       		.byte	0x1
 3320 0dbb A9       		.byte	0xa9
 3321 0dbc 72000000 		.long	0x72
 3322 0dc0 02       		.byte	0x2
 3323 0dc1 91       		.byte	0x91
 3324 0dc2 00       		.sleb128 0
 3325 0dc3 1D       		.uleb128 0x1d
 3326 0dc4 636F6E64 		.ascii "condition\0"
 3326      6974696F 
 3326      6E00
 3327 0dce 01       		.byte	0x1
 3328 0dcf A9       		.byte	0xa9
 3329 0dd0 1E010000 		.long	0x11e
 3330 0dd4 02       		.byte	0x2
 3331 0dd5 91       		.byte	0x91
 3332 0dd6 74       		.sleb128 -12
 3333 0dd7 00       		.byte	0
 3334 0dd8 21       		.uleb128 0x21
GAS LISTING C:\cygwin\tmp\ccs5iBND.s 			page 77


 3335 0dd9 01       		.byte	0x1
 3336 0dda 5F746573 		.ascii "_test_assert_sequence\0"
 3336      745F6173 
 3336      73657274 
 3336      5F736571 
 3336      75656E63 
 3337 0df0 01       		.byte	0x1
 3338 0df1 B0       		.byte	0xb0
 3339 0df2 01       		.byte	0x1
 3340 0df3 1E010000 		.long	0x11e
 3341 0df7 62040000 		.long	LFB17
 3342 0dfb 9C050000 		.long	LFE17
 3343 0dff 61010000 		.secrel32	LLST8
 3344 0e03 360E0000 		.long	0xe36
 3345 0e07 22       		.uleb128 0x22
 3346 0e08 0B000000 		.secrel32	LASF2
 3347 0e0c 01       		.byte	0x1
 3348 0e0d B0       		.byte	0xb0
 3349 0e0e 72000000 		.long	0x72
 3350 0e12 02       		.byte	0x2
 3351 0e13 91       		.byte	0x91
 3352 0e14 00       		.sleb128 0
 3353 0e15 1D       		.uleb128 0x1d
 3354 0e16 65787065 		.ascii "expected\0"
 3354      63746564 
 3354      00
 3355 0e1f 01       		.byte	0x1
 3356 0e20 B0       		.byte	0xb0
 3357 0e21 E9070000 		.long	0x7e9
 3358 0e25 02       		.byte	0x2
 3359 0e26 91       		.byte	0x91
 3360 0e27 04       		.sleb128 4
 3361 0e28 1E       		.uleb128 0x1e
 3362 0e29 637000   		.ascii "cp\0"
 3363 0e2c 01       		.byte	0x1
 3364 0e2d B1       		.byte	0xb1
 3365 0e2e E9070000 		.long	0x7e9
 3366 0e32 02       		.byte	0x2
 3367 0e33 91       		.byte	0x91
 3368 0e34 74       		.sleb128 -12
 3369 0e35 00       		.byte	0
 3370 0e36 21       		.uleb128 0x21
 3371 0e37 01       		.byte	0x1
 3372 0e38 5F746573 		.ascii "_test_assert_time_window\0"
 3372      745F6173 
 3372      73657274 
 3372      5F74696D 
 3372      655F7769 
 3373 0e51 01       		.byte	0x1
 3374 0e52 BC       		.byte	0xbc
 3375 0e53 01       		.byte	0x1
 3376 0e54 1E010000 		.long	0x11e
 3377 0e58 9C050000 		.long	LFB18
 3378 0e5c 24060000 		.long	LFE18
 3379 0e60 8D010000 		.secrel32	LLST9
 3380 0e64 950E0000 		.long	0xe95
 3381 0e68 22       		.uleb128 0x22
GAS LISTING C:\cygwin\tmp\ccs5iBND.s 			page 78


 3382 0e69 0B000000 		.secrel32	LASF2
 3383 0e6d 01       		.byte	0x1
 3384 0e6e BC       		.byte	0xbc
 3385 0e6f 72000000 		.long	0x72
 3386 0e73 02       		.byte	0x2
 3387 0e74 91       		.byte	0x91
 3388 0e75 00       		.sleb128 0
 3389 0e76 1D       		.uleb128 0x1d
 3390 0e77 73746172 		.ascii "start\0"
 3390      7400
 3391 0e7d 01       		.byte	0x1
 3392 0e7e BC       		.byte	0xbc
 3393 0e7f A3010000 		.long	0x1a3
 3394 0e83 02       		.byte	0x2
 3395 0e84 91       		.byte	0x91
 3396 0e85 04       		.sleb128 4
 3397 0e86 1D       		.uleb128 0x1d
 3398 0e87 656E6400 		.ascii "end\0"
 3399 0e8b 01       		.byte	0x1
 3400 0e8c BC       		.byte	0xbc
 3401 0e8d A3010000 		.long	0x1a3
 3402 0e91 02       		.byte	0x2
 3403 0e92 91       		.byte	0x91
 3404 0e93 08       		.sleb128 8
 3405 0e94 00       		.byte	0
 3406 0e95 1C       		.uleb128 0x1c
 3407 0e96 01       		.byte	0x1
 3408 0e97 74657374 		.ascii "test_terminate_threads\0"
 3408      5F746572 
 3408      6D696E61 
 3408      74655F74 
 3408      68726561 
 3409 0eae 01       		.byte	0x1
 3410 0eaf C8       		.byte	0xc8
 3411 0eb0 01       		.byte	0x1
 3412 0eb1 24060000 		.long	LFB19
 3413 0eb5 D6060000 		.long	LFE19
 3414 0eb9 B9010000 		.secrel32	LLST10
 3415 0ebd CE0E0000 		.long	0xece
 3416 0ec1 1E       		.uleb128 0x1e
 3417 0ec2 6900     		.ascii "i\0"
 3418 0ec4 01       		.byte	0x1
 3419 0ec5 C9       		.byte	0xc9
 3420 0ec6 5D000000 		.long	0x5d
 3421 0eca 02       		.byte	0x2
 3422 0ecb 91       		.byte	0x91
 3423 0ecc 6C       		.sleb128 -20
 3424 0ecd 00       		.byte	0
 3425 0ece 1C       		.uleb128 0x1c
 3426 0ecf 01       		.byte	0x1
 3427 0ed0 74657374 		.ascii "test_wait_threads\0"
 3427      5F776169 
 3427      745F7468 
 3427      72656164 
 3427      7300
 3428 0ee2 01       		.byte	0x1
 3429 0ee3 D3       		.byte	0xd3
GAS LISTING C:\cygwin\tmp\ccs5iBND.s 			page 79


 3430 0ee4 01       		.byte	0x1
 3431 0ee5 D6060000 		.long	LFB20
 3432 0ee9 9A070000 		.long	LFE20
 3433 0eed E5010000 		.secrel32	LLST11
 3434 0ef1 020F0000 		.long	0xf02
 3435 0ef5 1E       		.uleb128 0x1e
 3436 0ef6 6900     		.ascii "i\0"
 3437 0ef8 01       		.byte	0x1
 3438 0ef9 D4       		.byte	0xd4
 3439 0efa 5D000000 		.long	0x5d
 3440 0efe 02       		.byte	0x2
 3441 0eff 91       		.byte	0x91
 3442 0f00 6C       		.sleb128 -20
 3443 0f01 00       		.byte	0
 3444 0f02 1C       		.uleb128 0x1c
 3445 0f03 01       		.byte	0x1
 3446 0f04 74657374 		.ascii "test_cpu_pulse\0"
 3446      5F637075 
 3446      5F70756C 
 3446      736500
 3447 0f13 01       		.byte	0x1
 3448 0f14 E4       		.byte	0xe4
 3449 0f15 01       		.byte	0x1
 3450 0f16 9A070000 		.long	LFB21
 3451 0f1a 34090000 		.long	LFE21
 3452 0f1e 11020000 		.secrel32	LLST12
 3453 0f22 610F0000 		.long	0xf61
 3454 0f26 22       		.uleb128 0x22
 3455 0f27 33000000 		.secrel32	LASF3
 3456 0f2b 01       		.byte	0x1
 3457 0f2c E4       		.byte	0xe4
 3458 0f2d 72000000 		.long	0x72
 3459 0f31 02       		.byte	0x2
 3460 0f32 91       		.byte	0x91
 3461 0f33 00       		.sleb128 0
 3462 0f34 1E       		.uleb128 0x1e
 3463 0f35 73746172 		.ascii "start\0"
 3463      7400
 3464 0f3b 01       		.byte	0x1
 3465 0f3c E5       		.byte	0xe5
 3466 0f3d A3010000 		.long	0x1a3
 3467 0f41 02       		.byte	0x2
 3468 0f42 91       		.byte	0x91
 3469 0f43 6C       		.sleb128 -20
 3470 0f44 1E       		.uleb128 0x1e
 3471 0f45 656E6400 		.ascii "end\0"
 3472 0f49 01       		.byte	0x1
 3473 0f4a E5       		.byte	0xe5
 3474 0f4b A3010000 		.long	0x1a3
 3475 0f4f 02       		.byte	0x2
 3476 0f50 91       		.byte	0x91
 3477 0f51 68       		.sleb128 -24
 3478 0f52 1E       		.uleb128 0x1e
 3479 0f53 6E6F7700 		.ascii "now\0"
 3480 0f57 01       		.byte	0x1
 3481 0f58 E5       		.byte	0xe5
 3482 0f59 A3010000 		.long	0x1a3
GAS LISTING C:\cygwin\tmp\ccs5iBND.s 			page 80


 3483 0f5d 02       		.byte	0x2
 3484 0f5e 91       		.byte	0x91
 3485 0f5f 64       		.sleb128 -28
 3486 0f60 00       		.byte	0
 3487 0f61 23       		.uleb128 0x23
 3488 0f62 01       		.byte	0x1
 3489 0f63 74657374 		.ascii "test_wait_tick\0"
 3489      5F776169 
 3489      745F7469 
 3489      636B00
 3490 0f72 01       		.byte	0x1
 3491 0f73 F9       		.byte	0xf9
 3492 0f74 01       		.byte	0x1
 3493 0f75 A3010000 		.long	0x1a3
 3494 0f79 34090000 		.long	LFB22
 3495 0f7d 84090000 		.long	LFE22
 3496 0f81 3D020000 		.secrel32	LLST13
 3497 0f85 24       		.uleb128 0x24
 3498 0f86 746D7200 		.ascii "tmr\0"
 3499 0f8a 01       		.byte	0x1
 3500 0f8b 0901     		.word	0x109
 3501 0f8d 01       		.byte	0x1
 3502 0f8e 84090000 		.long	LFB23
 3503 0f92 AE090000 		.long	LFE23
 3504 0f96 69020000 		.secrel32	LLST14
 3505 0f9a AC0F0000 		.long	0xfac
 3506 0f9e 25       		.uleb128 0x25
 3507 0f9f 7000     		.ascii "p\0"
 3508 0fa1 01       		.byte	0x1
 3509 0fa2 0901     		.word	0x109
 3510 0fa4 E9030000 		.long	0x3e9
 3511 0fa8 02       		.byte	0x2
 3512 0fa9 91       		.byte	0x91
 3513 0faa 00       		.sleb128 0
 3514 0fab 00       		.byte	0
 3515 0fac 26       		.uleb128 0x26
 3516 0fad 01       		.byte	0x1
 3517 0fae 74657374 		.ascii "test_start_timer\0"
 3517      5F737461 
 3517      72745F74 
 3517      696D6572 
 3517      00
 3518 0fbf 01       		.byte	0x1
 3519 0fc0 1401     		.word	0x114
 3520 0fc2 01       		.byte	0x1
 3521 0fc3 AE090000 		.long	LFB24
 3522 0fc7 900A0000 		.long	LFE24
 3523 0fcb 95020000 		.secrel32	LLST15
 3524 0fcf F10F0000 		.long	0xff1
 3525 0fd3 25       		.uleb128 0x25
 3526 0fd4 6D7300   		.ascii "ms\0"
 3527 0fd7 01       		.byte	0x1
 3528 0fd8 1401     		.word	0x114
 3529 0fda 72000000 		.long	0x72
 3530 0fde 02       		.byte	0x2
 3531 0fdf 91       		.byte	0x91
 3532 0fe0 00       		.sleb128 0
GAS LISTING C:\cygwin\tmp\ccs5iBND.s 			page 81


 3533 0fe1 27       		.uleb128 0x27
 3534 0fe2 33000000 		.secrel32	LASF3
 3535 0fe6 01       		.byte	0x1
 3536 0fe7 1601     		.word	0x116
 3537 0fe9 A3010000 		.long	0x1a3
 3538 0fed 02       		.byte	0x2
 3539 0fee 91       		.byte	0x91
 3540 0fef 6C       		.sleb128 -20
 3541 0ff0 00       		.byte	0
 3542 0ff1 24       		.uleb128 0x24
 3543 0ff2 65786563 		.ascii "execute_test\0"
 3543      7574655F 
 3543      74657374 
 3543      00
 3544 0fff 01       		.byte	0x1
 3545 1000 1E01     		.word	0x11e
 3546 1002 01       		.byte	0x1
 3547 1003 900A0000 		.long	LFB25
 3548 1007 F90B0000 		.long	LFE25
 3549 100b C2020000 		.secrel32	LLST16
 3550 100f 30100000 		.long	0x1030
 3551 1013 25       		.uleb128 0x25
 3552 1014 74637000 		.ascii "tcp\0"
 3553 1018 01       		.byte	0x1
 3554 1019 1E01     		.word	0x11e
 3555 101b 30100000 		.long	0x1030
 3556 101f 02       		.byte	0x2
 3557 1020 91       		.byte	0x91
 3558 1021 00       		.sleb128 0
 3559 1022 28       		.uleb128 0x28
 3560 1023 6900     		.ascii "i\0"
 3561 1025 01       		.byte	0x1
 3562 1026 1F01     		.word	0x11f
 3563 1028 5D000000 		.long	0x5d
 3564 102c 02       		.byte	0x2
 3565 102d 91       		.byte	0x91
 3566 102e 6C       		.sleb128 -20
 3567 102f 00       		.byte	0
 3568 1030 08       		.uleb128 0x8
 3569 1031 04       		.byte	0x4
 3570 1032 36100000 		.long	0x1036
 3571 1036 13       		.uleb128 0x13
 3572 1037 180B0000 		.long	0xb18
 3573 103b 24       		.uleb128 0x24
 3574 103c 7072696E 		.ascii "print_line\0"
 3574      745F6C69 
 3574      6E6500
 3575 1047 01       		.byte	0x1
 3576 1048 3001     		.word	0x130
 3577 104a 01       		.byte	0x1
 3578 104b F90B0000 		.long	LFB26
 3579 104f C40C0000 		.long	LFE26
 3580 1053 EE020000 		.secrel32	LLST17
 3581 1057 69100000 		.long	0x1069
 3582 105b 28       		.uleb128 0x28
 3583 105c 6900     		.ascii "i\0"
 3584 105e 01       		.byte	0x1
GAS LISTING C:\cygwin\tmp\ccs5iBND.s 			page 82


 3585 105f 3101     		.word	0x131
 3586 1061 72000000 		.long	0x72
 3587 1065 02       		.byte	0x2
 3588 1066 91       		.byte	0x91
 3589 1067 6C       		.sleb128 -20
 3590 1068 00       		.byte	0
 3591 1069 29       		.uleb128 0x29
 3592 106a 01       		.byte	0x1
 3593 106b 54657374 		.ascii "TestThread\0"
 3593      54687265 
 3593      616400
 3594 1076 01       		.byte	0x1
 3595 1077 3E01     		.word	0x13e
 3596 1079 01       		.byte	0x1
 3597 107a 83010000 		.long	0x183
 3598 107e C40C0000 		.long	LFB27
 3599 1082 08140000 		.long	LFE27
 3600 1086 1A030000 		.secrel32	LLST18
 3601 108a B6100000 		.long	0x10b6
 3602 108e 25       		.uleb128 0x25
 3603 108f 7000     		.ascii "p\0"
 3604 1091 01       		.byte	0x1
 3605 1092 3E01     		.word	0x13e
 3606 1094 E9030000 		.long	0x3e9
 3607 1098 02       		.byte	0x2
 3608 1099 91       		.byte	0x91
 3609 109a 00       		.sleb128 0
 3610 109b 28       		.uleb128 0x28
 3611 109c 6900     		.ascii "i\0"
 3612 109e 01       		.byte	0x1
 3613 109f 3F01     		.word	0x13f
 3614 10a1 5D000000 		.long	0x5d
 3615 10a5 02       		.byte	0x2
 3616 10a6 91       		.byte	0x91
 3617 10a7 6C       		.sleb128 -20
 3618 10a8 28       		.uleb128 0x28
 3619 10a9 6A00     		.ascii "j\0"
 3620 10ab 01       		.byte	0x1
 3621 10ac 3F01     		.word	0x13f
 3622 10ae 5D000000 		.long	0x5d
 3623 10b2 02       		.byte	0x2
 3624 10b3 91       		.byte	0x91
 3625 10b4 68       		.sleb128 -24
 3626 10b5 00       		.byte	0
 3627 10b6 2A       		.uleb128 0x2a
 3628 10b7 5F474C4F 		.ascii "_GLOBAL__sub_I_65535_0_wa\0"
 3628      42414C5F 
 3628      5F737562 
 3628      5F495F36 
 3628      35353335 
 3629 10d1 01       		.byte	0x1
 3630 10d2 01       		.byte	0x1
 3631 10d3 08140000 		.long	LFB28
 3632 10d7 1B140000 		.long	LFE28
 3633 10db 46030000 		.secrel32	LLST19
 3634 10df 2B       		.uleb128 0x2b
 3635 10e0 76746C69 		.ascii "vtlist\0"
GAS LISTING C:\cygwin\tmp\ccs5iBND.s 			page 83


 3635      737400
 3636 10e7 08       		.byte	0x8
 3637 10e8 D1       		.byte	0xd1
 3638 10e9 5D050000 		.long	0x55d
 3639 10ed 01       		.byte	0x1
 3640 10ee 01       		.byte	0x1
 3641 10ef 2B       		.uleb128 0x2b
 3642 10f0 726C6973 		.ascii "rlist\0"
 3642      7400
 3643 10f6 09       		.byte	0x9
 3644 10f7 68       		.byte	0x68
 3645 10f8 DF050000 		.long	0x5df
 3646 10fc 01       		.byte	0x1
 3647 10fd 01       		.byte	0x1
 3648 10fe 09       		.uleb128 0x9
 3649 10ff 0C0B0000 		.long	0xb0c
 3650 1103 09110000 		.long	0x1109
 3651 1107 2C       		.uleb128 0x2c
 3652 1108 00       		.byte	0
 3653 1109 2B       		.uleb128 0x2b
 3654 110a 5F696F62 		.ascii "_iob\0"
 3654      00
 3655 110f 0C       		.byte	0xc
 3656 1110 9A       		.byte	0x9a
 3657 1111 FE100000 		.long	0x10fe
 3658 1115 01       		.byte	0x1
 3659 1116 01       		.byte	0x1
 3660 1117 09       		.uleb128 0x9
 3661 1118 60030000 		.long	0x360
 3662 111c 27110000 		.long	0x1127
 3663 1120 0A       		.uleb128 0xa
 3664 1121 72000000 		.long	0x72
 3665 1125 04       		.byte	0x4
 3666 1126 00       		.byte	0
 3667 1127 2B       		.uleb128 0x2b
 3668 1128 74687265 		.ascii "threads\0"
 3668      61647300 
 3669 1130 0D       		.byte	0xd
 3670 1131 A9       		.byte	0xa9
 3671 1132 17110000 		.long	0x1117
 3672 1136 01       		.byte	0x1
 3673 1137 01       		.byte	0x1
 3674 1138 2B       		.uleb128 0x2b
 3675 1139 74657374 		.ascii "test\0"
 3675      00
 3676 113e 0D       		.byte	0xd
 3677 113f AA       		.byte	0xaa
 3678 1140 DC0B0000 		.long	0xbdc
 3679 1144 01       		.byte	0x1
 3680 1145 01       		.byte	0x1
 3681 1146 2D       		.uleb128 0x2d
 3682 1147 91000000 		.secrel32	LASF4
 3683 114b 0D       		.byte	0xd
 3684 114c AC       		.byte	0xac
 3685 114d 1E010000 		.long	0x11e
 3686 1151 01       		.byte	0x1
 3687 1152 01       		.byte	0x1
GAS LISTING C:\cygwin\tmp\ccs5iBND.s 			page 84


 3688 1153 09       		.uleb128 0x9
 3689 1154 30100000 		.long	0x1030
 3690 1158 5E110000 		.long	0x115e
 3691 115c 2C       		.uleb128 0x2c
 3692 115d 00       		.byte	0
 3693 115e 2D       		.uleb128 0x2d
 3694 115f 7B000000 		.secrel32	LASF5
 3695 1163 0E       		.byte	0xe
 3696 1164 18       		.byte	0x18
 3697 1165 6B110000 		.long	0x116b
 3698 1169 01       		.byte	0x1
 3699 116a 01       		.byte	0x1
 3700 116b 13       		.uleb128 0x13
 3701 116c 53110000 		.long	0x1153
 3702 1170 2D       		.uleb128 0x2d
 3703 1171 A8000000 		.secrel32	LASF6
 3704 1175 0F       		.byte	0xf
 3705 1176 18       		.byte	0x18
 3706 1177 7D110000 		.long	0x117d
 3707 117b 01       		.byte	0x1
 3708 117c 01       		.byte	0x1
 3709 117d 13       		.uleb128 0x13
 3710 117e 53110000 		.long	0x1153
 3711 1182 2D       		.uleb128 0x2d
 3712 1183 86000000 		.secrel32	LASF7
 3713 1187 10       		.byte	0x10
 3714 1188 18       		.byte	0x18
 3715 1189 8F110000 		.long	0x118f
 3716 118d 01       		.byte	0x1
 3717 118e 01       		.byte	0x1
 3718 118f 13       		.uleb128 0x13
 3719 1190 53110000 		.long	0x1153
 3720 1194 2D       		.uleb128 0x2d
 3721 1195 11000000 		.secrel32	LASF8
 3722 1199 11       		.byte	0x11
 3723 119a 18       		.byte	0x18
 3724 119b A1110000 		.long	0x11a1
 3725 119f 01       		.byte	0x1
 3726 11a0 01       		.byte	0x1
 3727 11a1 13       		.uleb128 0x13
 3728 11a2 53110000 		.long	0x1153
 3729 11a6 2D       		.uleb128 0x2d
 3730 11a7 6F000000 		.secrel32	LASF9
 3731 11ab 12       		.byte	0x12
 3732 11ac 18       		.byte	0x18
 3733 11ad B3110000 		.long	0x11b3
 3734 11b1 01       		.byte	0x1
 3735 11b2 01       		.byte	0x1
 3736 11b3 13       		.uleb128 0x13
 3737 11b4 53110000 		.long	0x1153
 3738 11b8 2D       		.uleb128 0x2d
 3739 11b9 00000000 		.secrel32	LASF10
 3740 11bd 13       		.byte	0x13
 3741 11be 18       		.byte	0x18
 3742 11bf C5110000 		.long	0x11c5
 3743 11c3 01       		.byte	0x1
 3744 11c4 01       		.byte	0x1
GAS LISTING C:\cygwin\tmp\ccs5iBND.s 			page 85


 3745 11c5 13       		.uleb128 0x13
 3746 11c6 53110000 		.long	0x1153
 3747 11ca 2D       		.uleb128 0x2d
 3748 11cb 27000000 		.secrel32	LASF11
 3749 11cf 14       		.byte	0x14
 3750 11d0 18       		.byte	0x18
 3751 11d1 D7110000 		.long	0x11d7
 3752 11d5 01       		.byte	0x1
 3753 11d6 01       		.byte	0x1
 3754 11d7 13       		.uleb128 0x13
 3755 11d8 53110000 		.long	0x1153
 3756 11dc 2D       		.uleb128 0x2d
 3757 11dd 62000000 		.secrel32	LASF12
 3758 11e1 15       		.byte	0x15
 3759 11e2 18       		.byte	0x18
 3760 11e3 E9110000 		.long	0x11e9
 3761 11e7 01       		.byte	0x1
 3762 11e8 01       		.byte	0x1
 3763 11e9 13       		.uleb128 0x13
 3764 11ea 53110000 		.long	0x1153
 3765 11ee 2D       		.uleb128 0x2d
 3766 11ef 3C000000 		.secrel32	LASF13
 3767 11f3 16       		.byte	0x16
 3768 11f4 18       		.byte	0x18
 3769 11f5 FB110000 		.long	0x11fb
 3770 11f9 01       		.byte	0x1
 3771 11fa 01       		.byte	0x1
 3772 11fb 13       		.uleb128 0x13
 3773 11fc 53110000 		.long	0x1153
 3774 1200 2D       		.uleb128 0x2d
 3775 1201 47000000 		.secrel32	LASF14
 3776 1205 17       		.byte	0x17
 3777 1206 18       		.byte	0x18
 3778 1207 0D120000 		.long	0x120d
 3779 120b 01       		.byte	0x1
 3780 120c 01       		.byte	0x1
 3781 120d 13       		.uleb128 0x13
 3782 120e 53110000 		.long	0x1153
 3783 1212 2D       		.uleb128 0x2d
 3784 1213 1C000000 		.secrel32	LASF15
 3785 1217 18       		.byte	0x18
 3786 1218 18       		.byte	0x18
 3787 1219 1F120000 		.long	0x121f
 3788 121d 01       		.byte	0x1
 3789 121e 01       		.byte	0x1
 3790 121f 13       		.uleb128 0x13
 3791 1220 53110000 		.long	0x1153
 3792 1224 09       		.uleb128 0x9
 3793 1225 34120000 		.long	0x1234
 3794 1229 34120000 		.long	0x1234
 3795 122d 0A       		.uleb128 0xa
 3796 122e 72000000 		.long	0x72
 3797 1232 0B       		.byte	0xb
 3798 1233 00       		.byte	0
 3799 1234 08       		.uleb128 0x8
 3800 1235 04       		.byte	0x4
 3801 1236 3A120000 		.long	0x123a
GAS LISTING C:\cygwin\tmp\ccs5iBND.s 			page 86


 3802 123a 13       		.uleb128 0x13
 3803 123b 30100000 		.long	0x1030
 3804 123f 1E       		.uleb128 0x1e
 3805 1240 70617474 		.ascii "patterns\0"
 3805      65726E73 
 3805      00
 3806 1249 01       		.byte	0x1
 3807 124a 30       		.byte	0x30
 3808 124b 24120000 		.long	0x1224
 3809 124f 05       		.byte	0x5
 3810 1250 03       		.byte	0x3
 3811 1251 00000000 		.long	_patterns
 3812 1255 1E       		.uleb128 0x1e
 3813 1256 6C6F6361 		.ascii "local_fail\0"
 3813      6C5F6661 
 3813      696C00
 3814 1261 01       		.byte	0x1
 3815 1262 3F       		.byte	0x3f
 3816 1263 1E010000 		.long	0x11e
 3817 1267 05       		.byte	0x5
 3818 1268 03       		.byte	0x3
 3819 1269 00000000 		.long	_local_fail
 3820 126d 1E       		.uleb128 0x1e
 3821 126e 676C6F62 		.ascii "global_fail\0"
 3821      616C5F66 
 3821      61696C00 
 3822 127a 01       		.byte	0x1
 3823 127b 3F       		.byte	0x3f
 3824 127c 1E010000 		.long	0x11e
 3825 1280 05       		.byte	0x5
 3826 1281 03       		.byte	0x3
 3827 1282 01000000 		.long	_global_fail
 3828 1286 1E       		.uleb128 0x1e
 3829 1287 6661696C 		.ascii "failpoint\0"
 3829      706F696E 
 3829      7400
 3830 1291 01       		.byte	0x1
 3831 1292 40       		.byte	0x40
 3832 1293 72000000 		.long	0x72
 3833 1297 05       		.byte	0x5
 3834 1298 03       		.byte	0x3
 3835 1299 04000000 		.long	_failpoint
 3836 129d 1E       		.uleb128 0x1e
 3837 129e 746F6B65 		.ascii "tokens_buffer\0"
 3837      6E735F62 
 3837      75666665 
 3837      7200
 3838 12ac 01       		.byte	0x1
 3839 12ad 41       		.byte	0x41
 3840 12ae 680C0000 		.long	0xc68
 3841 12b2 05       		.byte	0x5
 3842 12b3 03       		.byte	0x3
 3843 12b4 08000000 		.long	_tokens_buffer
 3844 12b8 1E       		.uleb128 0x1e
 3845 12b9 746F6B70 		.ascii "tokp\0"
 3845      00
 3846 12be 01       		.byte	0x1
GAS LISTING C:\cygwin\tmp\ccs5iBND.s 			page 87


 3847 12bf 42       		.byte	0x42
 3848 12c0 E9070000 		.long	0x7e9
 3849 12c4 05       		.byte	0x5
 3850 12c5 03       		.byte	0x3
 3851 12c6 18000000 		.long	_tokp
 3852 12ca 1E       		.uleb128 0x1e
 3853 12cb 63687000 		.ascii "chp\0"
 3854 12cf 01       		.byte	0x1
 3855 12d0 58       		.byte	0x58
 3856 12d1 DB120000 		.long	0x12db
 3857 12d5 05       		.byte	0x5
 3858 12d6 03       		.byte	0x3
 3859 12d7 1C000000 		.long	_chp
 3860 12db 08       		.uleb128 0x8
 3861 12dc 04       		.byte	0x4
 3862 12dd A3070000 		.long	0x7a3
 3863 12e1 28       		.uleb128 0x28
 3864 12e2 767400   		.ascii "vt\0"
 3865 12e5 01       		.byte	0x1
 3866 12e6 0801     		.word	0x108
 3867 12e8 8D040000 		.long	0x48d
 3868 12ec 05       		.byte	0x5
 3869 12ed 03       		.byte	0x3
 3870 12ee 20000000 		.long	_vt
 3871 12f2 2B       		.uleb128 0x2b
 3872 12f3 76746C69 		.ascii "vtlist\0"
 3872      737400
 3873 12fa 08       		.byte	0x8
 3874 12fb D1       		.byte	0xd1
 3875 12fc 5D050000 		.long	0x55d
 3876 1300 01       		.byte	0x1
 3877 1301 01       		.byte	0x1
 3878 1302 2B       		.uleb128 0x2b
 3879 1303 726C6973 		.ascii "rlist\0"
 3879      7400
 3880 1309 09       		.byte	0x9
 3881 130a 68       		.byte	0x68
 3882 130b DF050000 		.long	0x5df
 3883 130f 01       		.byte	0x1
 3884 1310 01       		.byte	0x1
 3885 1311 2B       		.uleb128 0x2b
 3886 1312 5F696F62 		.ascii "_iob\0"
 3886      00
 3887 1317 0C       		.byte	0xc
 3888 1318 9A       		.byte	0x9a
 3889 1319 FE100000 		.long	0x10fe
 3890 131d 01       		.byte	0x1
 3891 131e 01       		.byte	0x1
 3892 131f 2E       		.uleb128 0x2e
 3893 1320 74687265 		.ascii "threads\0"
 3893      61647300 
 3894 1328 01       		.byte	0x1
 3895 1329 4D       		.byte	0x4d
 3896 132a 17110000 		.long	0x1117
 3897 132e 01       		.byte	0x1
 3898 132f 05       		.byte	0x5
 3899 1330 03       		.byte	0x3
GAS LISTING C:\cygwin\tmp\ccs5iBND.s 			page 88


 3900 1331 00000000 		.long	_threads
 3901 1335 2E       		.uleb128 0x2e
 3902 1336 74657374 		.ascii "test\0"
 3902      00
 3903 133b 01       		.byte	0x1
 3904 133c 48       		.byte	0x48
 3905 133d DC0B0000 		.long	0xbdc
 3906 1341 01       		.byte	0x1
 3907 1342 05       		.byte	0x5
 3908 1343 03       		.byte	0x3
 3909 1344 00000000 		.long	_test
 3910 1348 09       		.uleb128 0x9
 3911 1349 E9030000 		.long	0x3e9
 3912 134d 58130000 		.long	0x1358
 3913 1351 0A       		.uleb128 0xa
 3914 1352 72000000 		.long	0x72
 3915 1356 04       		.byte	0x4
 3916 1357 00       		.byte	0
 3917 1358 2E       		.uleb128 0x2e
 3918 1359 776100   		.ascii "wa\0"
 3919 135c 01       		.byte	0x1
 3920 135d 52       		.byte	0x52
 3921 135e 69130000 		.long	0x1369
 3922 1362 01       		.byte	0x1
 3923 1363 05       		.byte	0x5
 3924 1364 03       		.byte	0x3
 3925 1365 00000000 		.long	_wa
 3926 1369 13       		.uleb128 0x13
 3927 136a 48130000 		.long	0x1348
 3928 136e 2F       		.uleb128 0x2f
 3929 136f 91000000 		.secrel32	LASF4
 3930 1373 01       		.byte	0x1
 3931 1374 0601     		.word	0x106
 3932 1376 1E010000 		.long	0x11e
 3933 137a 01       		.byte	0x1
 3934 137b 05       		.byte	0x5
 3935 137c 03       		.byte	0x3
 3936 137d 00000000 		.long	_test_timer_done
 3937 1381 2D       		.uleb128 0x2d
 3938 1382 7B000000 		.secrel32	LASF5
 3939 1386 0E       		.byte	0xe
 3940 1387 18       		.byte	0x18
 3941 1388 8E130000 		.long	0x138e
 3942 138c 01       		.byte	0x1
 3943 138d 01       		.byte	0x1
 3944 138e 13       		.uleb128 0x13
 3945 138f 53110000 		.long	0x1153
 3946 1393 2D       		.uleb128 0x2d
 3947 1394 A8000000 		.secrel32	LASF6
 3948 1398 0F       		.byte	0xf
 3949 1399 18       		.byte	0x18
 3950 139a A0130000 		.long	0x13a0
 3951 139e 01       		.byte	0x1
 3952 139f 01       		.byte	0x1
 3953 13a0 13       		.uleb128 0x13
 3954 13a1 53110000 		.long	0x1153
 3955 13a5 2D       		.uleb128 0x2d
GAS LISTING C:\cygwin\tmp\ccs5iBND.s 			page 89


 3956 13a6 86000000 		.secrel32	LASF7
 3957 13aa 10       		.byte	0x10
 3958 13ab 18       		.byte	0x18
 3959 13ac B2130000 		.long	0x13b2
 3960 13b0 01       		.byte	0x1
 3961 13b1 01       		.byte	0x1
 3962 13b2 13       		.uleb128 0x13
 3963 13b3 53110000 		.long	0x1153
 3964 13b7 2D       		.uleb128 0x2d
 3965 13b8 11000000 		.secrel32	LASF8
 3966 13bc 11       		.byte	0x11
 3967 13bd 18       		.byte	0x18
 3968 13be C4130000 		.long	0x13c4
 3969 13c2 01       		.byte	0x1
 3970 13c3 01       		.byte	0x1
 3971 13c4 13       		.uleb128 0x13
 3972 13c5 53110000 		.long	0x1153
 3973 13c9 2D       		.uleb128 0x2d
 3974 13ca 6F000000 		.secrel32	LASF9
 3975 13ce 12       		.byte	0x12
 3976 13cf 18       		.byte	0x18
 3977 13d0 D6130000 		.long	0x13d6
 3978 13d4 01       		.byte	0x1
 3979 13d5 01       		.byte	0x1
 3980 13d6 13       		.uleb128 0x13
 3981 13d7 53110000 		.long	0x1153
 3982 13db 2D       		.uleb128 0x2d
 3983 13dc 00000000 		.secrel32	LASF10
 3984 13e0 13       		.byte	0x13
 3985 13e1 18       		.byte	0x18
 3986 13e2 E8130000 		.long	0x13e8
 3987 13e6 01       		.byte	0x1
 3988 13e7 01       		.byte	0x1
 3989 13e8 13       		.uleb128 0x13
 3990 13e9 53110000 		.long	0x1153
 3991 13ed 2D       		.uleb128 0x2d
 3992 13ee 27000000 		.secrel32	LASF11
 3993 13f2 14       		.byte	0x14
 3994 13f3 18       		.byte	0x18
 3995 13f4 FA130000 		.long	0x13fa
 3996 13f8 01       		.byte	0x1
 3997 13f9 01       		.byte	0x1
 3998 13fa 13       		.uleb128 0x13
 3999 13fb 53110000 		.long	0x1153
 4000 13ff 2D       		.uleb128 0x2d
 4001 1400 62000000 		.secrel32	LASF12
 4002 1404 15       		.byte	0x15
 4003 1405 18       		.byte	0x18
 4004 1406 0C140000 		.long	0x140c
 4005 140a 01       		.byte	0x1
 4006 140b 01       		.byte	0x1
 4007 140c 13       		.uleb128 0x13
 4008 140d 53110000 		.long	0x1153
 4009 1411 2D       		.uleb128 0x2d
 4010 1412 3C000000 		.secrel32	LASF13
 4011 1416 16       		.byte	0x16
 4012 1417 18       		.byte	0x18
GAS LISTING C:\cygwin\tmp\ccs5iBND.s 			page 90


 4013 1418 1E140000 		.long	0x141e
 4014 141c 01       		.byte	0x1
 4015 141d 01       		.byte	0x1
 4016 141e 13       		.uleb128 0x13
 4017 141f 53110000 		.long	0x1153
 4018 1423 2D       		.uleb128 0x2d
 4019 1424 47000000 		.secrel32	LASF14
 4020 1428 17       		.byte	0x17
 4021 1429 18       		.byte	0x18
 4022 142a 30140000 		.long	0x1430
 4023 142e 01       		.byte	0x1
 4024 142f 01       		.byte	0x1
 4025 1430 13       		.uleb128 0x13
 4026 1431 53110000 		.long	0x1153
 4027 1435 2D       		.uleb128 0x2d
 4028 1436 1C000000 		.secrel32	LASF15
 4029 143a 18       		.byte	0x18
 4030 143b 18       		.byte	0x18
 4031 143c 42140000 		.long	0x1442
 4032 1440 01       		.byte	0x1
 4033 1441 01       		.byte	0x1
 4034 1442 13       		.uleb128 0x13
 4035 1443 53110000 		.long	0x1153
 4036 1447 00       		.byte	0
 4037              		.section	.debug_abbrev,"dr"
 4038              	Ldebug_abbrev0:
 4039 0000 01       		.uleb128 0x1
 4040 0001 11       		.uleb128 0x11
 4041 0002 01       		.byte	0x1
 4042 0003 25       		.uleb128 0x25
 4043 0004 08       		.uleb128 0x8
 4044 0005 13       		.uleb128 0x13
 4045 0006 0B       		.uleb128 0xb
 4046 0007 03       		.uleb128 0x3
 4047 0008 08       		.uleb128 0x8
 4048 0009 1B       		.uleb128 0x1b
 4049 000a 08       		.uleb128 0x8
 4050 000b 11       		.uleb128 0x11
 4051 000c 01       		.uleb128 0x1
 4052 000d 12       		.uleb128 0x12
 4053 000e 01       		.uleb128 0x1
 4054 000f 10       		.uleb128 0x10
 4055 0010 06       		.uleb128 0x6
 4056 0011 00       		.byte	0
 4057 0012 00       		.byte	0
 4058 0013 02       		.uleb128 0x2
 4059 0014 24       		.uleb128 0x24
 4060 0015 00       		.byte	0
 4061 0016 0B       		.uleb128 0xb
 4062 0017 0B       		.uleb128 0xb
 4063 0018 3E       		.uleb128 0x3e
 4064 0019 0B       		.uleb128 0xb
 4065 001a 03       		.uleb128 0x3
 4066 001b 08       		.uleb128 0x8
 4067 001c 00       		.byte	0
 4068 001d 00       		.byte	0
 4069 001e 03       		.uleb128 0x3
GAS LISTING C:\cygwin\tmp\ccs5iBND.s 			page 91


 4070 001f 16       		.uleb128 0x16
 4071 0020 00       		.byte	0
 4072 0021 03       		.uleb128 0x3
 4073 0022 08       		.uleb128 0x8
 4074 0023 3A       		.uleb128 0x3a
 4075 0024 0B       		.uleb128 0xb
 4076 0025 3B       		.uleb128 0x3b
 4077 0026 0B       		.uleb128 0xb
 4078 0027 49       		.uleb128 0x49
 4079 0028 13       		.uleb128 0x13
 4080 0029 00       		.byte	0
 4081 002a 00       		.byte	0
 4082 002b 04       		.uleb128 0x4
 4083 002c 13       		.uleb128 0x13
 4084 002d 01       		.byte	0x1
 4085 002e 03       		.uleb128 0x3
 4086 002f 08       		.uleb128 0x8
 4087 0030 0B       		.uleb128 0xb
 4088 0031 0B       		.uleb128 0xb
 4089 0032 3A       		.uleb128 0x3a
 4090 0033 0B       		.uleb128 0xb
 4091 0034 3B       		.uleb128 0x3b
 4092 0035 0B       		.uleb128 0xb
 4093 0036 01       		.uleb128 0x1
 4094 0037 13       		.uleb128 0x13
 4095 0038 00       		.byte	0
 4096 0039 00       		.byte	0
 4097 003a 05       		.uleb128 0x5
 4098 003b 0D       		.uleb128 0xd
 4099 003c 00       		.byte	0
 4100 003d 03       		.uleb128 0x3
 4101 003e 0E       		.uleb128 0xe
 4102 003f 3A       		.uleb128 0x3a
 4103 0040 0B       		.uleb128 0xb
 4104 0041 3B       		.uleb128 0x3b
 4105 0042 0B       		.uleb128 0xb
 4106 0043 49       		.uleb128 0x49
 4107 0044 13       		.uleb128 0x13
 4108 0045 38       		.uleb128 0x38
 4109 0046 0A       		.uleb128 0xa
 4110 0047 00       		.byte	0
 4111 0048 00       		.byte	0
 4112 0049 06       		.uleb128 0x6
 4113 004a 0D       		.uleb128 0xd
 4114 004b 00       		.byte	0
 4115 004c 03       		.uleb128 0x3
 4116 004d 08       		.uleb128 0x8
 4117 004e 3A       		.uleb128 0x3a
 4118 004f 0B       		.uleb128 0xb
 4119 0050 3B       		.uleb128 0x3b
 4120 0051 0B       		.uleb128 0xb
 4121 0052 49       		.uleb128 0x49
 4122 0053 13       		.uleb128 0x13
 4123 0054 38       		.uleb128 0x38
 4124 0055 0A       		.uleb128 0xa
 4125 0056 00       		.byte	0
 4126 0057 00       		.byte	0
GAS LISTING C:\cygwin\tmp\ccs5iBND.s 			page 92


 4127 0058 07       		.uleb128 0x7
 4128 0059 13       		.uleb128 0x13
 4129 005a 01       		.byte	0x1
 4130 005b 0B       		.uleb128 0xb
 4131 005c 0B       		.uleb128 0xb
 4132 005d 3A       		.uleb128 0x3a
 4133 005e 0B       		.uleb128 0xb
 4134 005f 3B       		.uleb128 0x3b
 4135 0060 0B       		.uleb128 0xb
 4136 0061 01       		.uleb128 0x1
 4137 0062 13       		.uleb128 0x13
 4138 0063 00       		.byte	0
 4139 0064 00       		.byte	0
 4140 0065 08       		.uleb128 0x8
 4141 0066 0F       		.uleb128 0xf
 4142 0067 00       		.byte	0
 4143 0068 0B       		.uleb128 0xb
 4144 0069 0B       		.uleb128 0xb
 4145 006a 49       		.uleb128 0x49
 4146 006b 13       		.uleb128 0x13
 4147 006c 00       		.byte	0
 4148 006d 00       		.byte	0
 4149 006e 09       		.uleb128 0x9
 4150 006f 01       		.uleb128 0x1
 4151 0070 01       		.byte	0x1
 4152 0071 49       		.uleb128 0x49
 4153 0072 13       		.uleb128 0x13
 4154 0073 01       		.uleb128 0x1
 4155 0074 13       		.uleb128 0x13
 4156 0075 00       		.byte	0
 4157 0076 00       		.byte	0
 4158 0077 0A       		.uleb128 0xa
 4159 0078 21       		.uleb128 0x21
 4160 0079 00       		.byte	0
 4161 007a 49       		.uleb128 0x49
 4162 007b 13       		.uleb128 0x13
 4163 007c 2F       		.uleb128 0x2f
 4164 007d 0B       		.uleb128 0xb
 4165 007e 00       		.byte	0
 4166 007f 00       		.byte	0
 4167 0080 0B       		.uleb128 0xb
 4168 0081 0F       		.uleb128 0xf
 4169 0082 00       		.byte	0
 4170 0083 0B       		.uleb128 0xb
 4171 0084 0B       		.uleb128 0xb
 4172 0085 00       		.byte	0
 4173 0086 00       		.byte	0
 4174 0087 0C       		.uleb128 0xc
 4175 0088 35       		.uleb128 0x35
 4176 0089 00       		.byte	0
 4177 008a 49       		.uleb128 0x49
 4178 008b 13       		.uleb128 0x13
 4179 008c 00       		.byte	0
 4180 008d 00       		.byte	0
 4181 008e 0D       		.uleb128 0xd
 4182 008f 15       		.uleb128 0x15
 4183 0090 01       		.byte	0x1
GAS LISTING C:\cygwin\tmp\ccs5iBND.s 			page 93


 4184 0091 27       		.uleb128 0x27
 4185 0092 0C       		.uleb128 0xc
 4186 0093 01       		.uleb128 0x1
 4187 0094 13       		.uleb128 0x13
 4188 0095 00       		.byte	0
 4189 0096 00       		.byte	0
 4190 0097 0E       		.uleb128 0xe
 4191 0098 05       		.uleb128 0x5
 4192 0099 00       		.byte	0
 4193 009a 49       		.uleb128 0x49
 4194 009b 13       		.uleb128 0x13
 4195 009c 00       		.byte	0
 4196 009d 00       		.byte	0
 4197 009e 0F       		.uleb128 0xf
 4198 009f 16       		.uleb128 0x16
 4199 00a0 00       		.byte	0
 4200 00a1 03       		.uleb128 0x3
 4201 00a2 0E       		.uleb128 0xe
 4202 00a3 3A       		.uleb128 0x3a
 4203 00a4 0B       		.uleb128 0xb
 4204 00a5 3B       		.uleb128 0x3b
 4205 00a6 0B       		.uleb128 0xb
 4206 00a7 49       		.uleb128 0x49
 4207 00a8 13       		.uleb128 0x13
 4208 00a9 00       		.byte	0
 4209 00aa 00       		.byte	0
 4210 00ab 10       		.uleb128 0x10
 4211 00ac 13       		.uleb128 0x13
 4212 00ad 01       		.byte	0x1
 4213 00ae 03       		.uleb128 0x3
 4214 00af 0E       		.uleb128 0xe
 4215 00b0 0B       		.uleb128 0xb
 4216 00b1 0B       		.uleb128 0xb
 4217 00b2 3A       		.uleb128 0x3a
 4218 00b3 0B       		.uleb128 0xb
 4219 00b4 3B       		.uleb128 0x3b
 4220 00b5 0B       		.uleb128 0xb
 4221 00b6 01       		.uleb128 0x1
 4222 00b7 13       		.uleb128 0x13
 4223 00b8 00       		.byte	0
 4224 00b9 00       		.byte	0
 4225 00ba 11       		.uleb128 0x11
 4226 00bb 17       		.uleb128 0x17
 4227 00bc 01       		.byte	0x1
 4228 00bd 0B       		.uleb128 0xb
 4229 00be 0B       		.uleb128 0xb
 4230 00bf 3A       		.uleb128 0x3a
 4231 00c0 0B       		.uleb128 0xb
 4232 00c1 3B       		.uleb128 0x3b
 4233 00c2 0B       		.uleb128 0xb
 4234 00c3 01       		.uleb128 0x1
 4235 00c4 13       		.uleb128 0x13
 4236 00c5 00       		.byte	0
 4237 00c6 00       		.byte	0
 4238 00c7 12       		.uleb128 0x12
 4239 00c8 0D       		.uleb128 0xd
 4240 00c9 00       		.byte	0
GAS LISTING C:\cygwin\tmp\ccs5iBND.s 			page 94


 4241 00ca 03       		.uleb128 0x3
 4242 00cb 08       		.uleb128 0x8
 4243 00cc 3A       		.uleb128 0x3a
 4244 00cd 0B       		.uleb128 0xb
 4245 00ce 3B       		.uleb128 0x3b
 4246 00cf 0B       		.uleb128 0xb
 4247 00d0 49       		.uleb128 0x49
 4248 00d1 13       		.uleb128 0x13
 4249 00d2 00       		.byte	0
 4250 00d3 00       		.byte	0
 4251 00d4 13       		.uleb128 0x13
 4252 00d5 26       		.uleb128 0x26
 4253 00d6 00       		.byte	0
 4254 00d7 49       		.uleb128 0x49
 4255 00d8 13       		.uleb128 0x13
 4256 00d9 00       		.byte	0
 4257 00da 00       		.byte	0
 4258 00db 14       		.uleb128 0x14
 4259 00dc 15       		.uleb128 0x15
 4260 00dd 01       		.byte	0x1
 4261 00de 27       		.uleb128 0x27
 4262 00df 0C       		.uleb128 0xc
 4263 00e0 49       		.uleb128 0x49
 4264 00e1 13       		.uleb128 0x13
 4265 00e2 01       		.uleb128 0x1
 4266 00e3 13       		.uleb128 0x13
 4267 00e4 00       		.byte	0
 4268 00e5 00       		.byte	0
 4269 00e6 15       		.uleb128 0x15
 4270 00e7 04       		.uleb128 0x4
 4271 00e8 01       		.byte	0x1
 4272 00e9 03       		.uleb128 0x3
 4273 00ea 08       		.uleb128 0x8
 4274 00eb 0B       		.uleb128 0xb
 4275 00ec 0B       		.uleb128 0xb
 4276 00ed 3A       		.uleb128 0x3a
 4277 00ee 0B       		.uleb128 0xb
 4278 00ef 3B       		.uleb128 0x3b
 4279 00f0 0B       		.uleb128 0xb
 4280 00f1 01       		.uleb128 0x1
 4281 00f2 13       		.uleb128 0x13
 4282 00f3 00       		.byte	0
 4283 00f4 00       		.byte	0
 4284 00f5 16       		.uleb128 0x16
 4285 00f6 28       		.uleb128 0x28
 4286 00f7 00       		.byte	0
 4287 00f8 03       		.uleb128 0x3
 4288 00f9 08       		.uleb128 0x8
 4289 00fa 1C       		.uleb128 0x1c
 4290 00fb 0D       		.uleb128 0xd
 4291 00fc 00       		.byte	0
 4292 00fd 00       		.byte	0
 4293 00fe 17       		.uleb128 0x17
 4294 00ff 15       		.uleb128 0x15
 4295 0100 00       		.byte	0
 4296 0101 27       		.uleb128 0x27
 4297 0102 0C       		.uleb128 0xc
GAS LISTING C:\cygwin\tmp\ccs5iBND.s 			page 95


 4298 0103 00       		.byte	0
 4299 0104 00       		.byte	0
 4300 0105 18       		.uleb128 0x18
 4301 0106 13       		.uleb128 0x13
 4302 0107 01       		.byte	0x1
 4303 0108 0B       		.uleb128 0xb
 4304 0109 06       		.uleb128 0x6
 4305 010a 3A       		.uleb128 0x3a
 4306 010b 0B       		.uleb128 0xb
 4307 010c 3B       		.uleb128 0x3b
 4308 010d 0B       		.uleb128 0xb
 4309 010e 01       		.uleb128 0x1
 4310 010f 13       		.uleb128 0x13
 4311 0110 00       		.byte	0
 4312 0111 00       		.byte	0
 4313 0112 19       		.uleb128 0x19
 4314 0113 21       		.uleb128 0x21
 4315 0114 00       		.byte	0
 4316 0115 49       		.uleb128 0x49
 4317 0116 13       		.uleb128 0x13
 4318 0117 2F       		.uleb128 0x2f
 4319 0118 05       		.uleb128 0x5
 4320 0119 00       		.byte	0
 4321 011a 00       		.byte	0
 4322 011b 1A       		.uleb128 0x1a
 4323 011c 17       		.uleb128 0x17
 4324 011d 01       		.byte	0x1
 4325 011e 03       		.uleb128 0x3
 4326 011f 08       		.uleb128 0x8
 4327 0120 0B       		.uleb128 0xb
 4328 0121 06       		.uleb128 0x6
 4329 0122 3A       		.uleb128 0x3a
 4330 0123 0B       		.uleb128 0xb
 4331 0124 3B       		.uleb128 0x3b
 4332 0125 0B       		.uleb128 0xb
 4333 0126 01       		.uleb128 0x1
 4334 0127 13       		.uleb128 0x13
 4335 0128 00       		.byte	0
 4336 0129 00       		.byte	0
 4337 012a 1B       		.uleb128 0x1b
 4338 012b 21       		.uleb128 0x21
 4339 012c 00       		.byte	0
 4340 012d 49       		.uleb128 0x49
 4341 012e 13       		.uleb128 0x13
 4342 012f 2F       		.uleb128 0x2f
 4343 0130 06       		.uleb128 0x6
 4344 0131 00       		.byte	0
 4345 0132 00       		.byte	0
 4346 0133 1C       		.uleb128 0x1c
 4347 0134 2E       		.uleb128 0x2e
 4348 0135 01       		.byte	0x1
 4349 0136 3F       		.uleb128 0x3f
 4350 0137 0C       		.uleb128 0xc
 4351 0138 03       		.uleb128 0x3
 4352 0139 08       		.uleb128 0x8
 4353 013a 3A       		.uleb128 0x3a
 4354 013b 0B       		.uleb128 0xb
GAS LISTING C:\cygwin\tmp\ccs5iBND.s 			page 96


 4355 013c 3B       		.uleb128 0x3b
 4356 013d 0B       		.uleb128 0xb
 4357 013e 27       		.uleb128 0x27
 4358 013f 0C       		.uleb128 0xc
 4359 0140 11       		.uleb128 0x11
 4360 0141 01       		.uleb128 0x1
 4361 0142 12       		.uleb128 0x12
 4362 0143 01       		.uleb128 0x1
 4363 0144 40       		.uleb128 0x40
 4364 0145 06       		.uleb128 0x6
 4365 0146 01       		.uleb128 0x1
 4366 0147 13       		.uleb128 0x13
 4367 0148 00       		.byte	0
 4368 0149 00       		.byte	0
 4369 014a 1D       		.uleb128 0x1d
 4370 014b 05       		.uleb128 0x5
 4371 014c 00       		.byte	0
 4372 014d 03       		.uleb128 0x3
 4373 014e 08       		.uleb128 0x8
 4374 014f 3A       		.uleb128 0x3a
 4375 0150 0B       		.uleb128 0xb
 4376 0151 3B       		.uleb128 0x3b
 4377 0152 0B       		.uleb128 0xb
 4378 0153 49       		.uleb128 0x49
 4379 0154 13       		.uleb128 0x13
 4380 0155 02       		.uleb128 0x2
 4381 0156 0A       		.uleb128 0xa
 4382 0157 00       		.byte	0
 4383 0158 00       		.byte	0
 4384 0159 1E       		.uleb128 0x1e
 4385 015a 34       		.uleb128 0x34
 4386 015b 00       		.byte	0
 4387 015c 03       		.uleb128 0x3
 4388 015d 08       		.uleb128 0x8
 4389 015e 3A       		.uleb128 0x3a
 4390 015f 0B       		.uleb128 0xb
 4391 0160 3B       		.uleb128 0x3b
 4392 0161 0B       		.uleb128 0xb
 4393 0162 49       		.uleb128 0x49
 4394 0163 13       		.uleb128 0x13
 4395 0164 02       		.uleb128 0x2
 4396 0165 0A       		.uleb128 0xa
 4397 0166 00       		.byte	0
 4398 0167 00       		.byte	0
 4399 0168 1F       		.uleb128 0x1f
 4400 0169 2E       		.uleb128 0x2e
 4401 016a 00       		.byte	0
 4402 016b 03       		.uleb128 0x3
 4403 016c 08       		.uleb128 0x8
 4404 016d 3A       		.uleb128 0x3a
 4405 016e 0B       		.uleb128 0xb
 4406 016f 3B       		.uleb128 0x3b
 4407 0170 0B       		.uleb128 0xb
 4408 0171 27       		.uleb128 0x27
 4409 0172 0C       		.uleb128 0xc
 4410 0173 11       		.uleb128 0x11
 4411 0174 01       		.uleb128 0x1
GAS LISTING C:\cygwin\tmp\ccs5iBND.s 			page 97


 4412 0175 12       		.uleb128 0x12
 4413 0176 01       		.uleb128 0x1
 4414 0177 40       		.uleb128 0x40
 4415 0178 06       		.uleb128 0x6
 4416 0179 00       		.byte	0
 4417 017a 00       		.byte	0
 4418 017b 20       		.uleb128 0x20
 4419 017c 2E       		.uleb128 0x2e
 4420 017d 01       		.byte	0x1
 4421 017e 03       		.uleb128 0x3
 4422 017f 08       		.uleb128 0x8
 4423 0180 3A       		.uleb128 0x3a
 4424 0181 0B       		.uleb128 0xb
 4425 0182 3B       		.uleb128 0x3b
 4426 0183 0B       		.uleb128 0xb
 4427 0184 27       		.uleb128 0x27
 4428 0185 0C       		.uleb128 0xc
 4429 0186 11       		.uleb128 0x11
 4430 0187 01       		.uleb128 0x1
 4431 0188 12       		.uleb128 0x12
 4432 0189 01       		.uleb128 0x1
 4433 018a 40       		.uleb128 0x40
 4434 018b 06       		.uleb128 0x6
 4435 018c 01       		.uleb128 0x1
 4436 018d 13       		.uleb128 0x13
 4437 018e 00       		.byte	0
 4438 018f 00       		.byte	0
 4439 0190 21       		.uleb128 0x21
 4440 0191 2E       		.uleb128 0x2e
 4441 0192 01       		.byte	0x1
 4442 0193 3F       		.uleb128 0x3f
 4443 0194 0C       		.uleb128 0xc
 4444 0195 03       		.uleb128 0x3
 4445 0196 08       		.uleb128 0x8
 4446 0197 3A       		.uleb128 0x3a
 4447 0198 0B       		.uleb128 0xb
 4448 0199 3B       		.uleb128 0x3b
 4449 019a 0B       		.uleb128 0xb
 4450 019b 27       		.uleb128 0x27
 4451 019c 0C       		.uleb128 0xc
 4452 019d 49       		.uleb128 0x49
 4453 019e 13       		.uleb128 0x13
 4454 019f 11       		.uleb128 0x11
 4455 01a0 01       		.uleb128 0x1
 4456 01a1 12       		.uleb128 0x12
 4457 01a2 01       		.uleb128 0x1
 4458 01a3 40       		.uleb128 0x40
 4459 01a4 06       		.uleb128 0x6
 4460 01a5 01       		.uleb128 0x1
 4461 01a6 13       		.uleb128 0x13
 4462 01a7 00       		.byte	0
 4463 01a8 00       		.byte	0
 4464 01a9 22       		.uleb128 0x22
 4465 01aa 05       		.uleb128 0x5
 4466 01ab 00       		.byte	0
 4467 01ac 03       		.uleb128 0x3
 4468 01ad 0E       		.uleb128 0xe
GAS LISTING C:\cygwin\tmp\ccs5iBND.s 			page 98


 4469 01ae 3A       		.uleb128 0x3a
 4470 01af 0B       		.uleb128 0xb
 4471 01b0 3B       		.uleb128 0x3b
 4472 01b1 0B       		.uleb128 0xb
 4473 01b2 49       		.uleb128 0x49
 4474 01b3 13       		.uleb128 0x13
 4475 01b4 02       		.uleb128 0x2
 4476 01b5 0A       		.uleb128 0xa
 4477 01b6 00       		.byte	0
 4478 01b7 00       		.byte	0
 4479 01b8 23       		.uleb128 0x23
 4480 01b9 2E       		.uleb128 0x2e
 4481 01ba 00       		.byte	0
 4482 01bb 3F       		.uleb128 0x3f
 4483 01bc 0C       		.uleb128 0xc
 4484 01bd 03       		.uleb128 0x3
 4485 01be 08       		.uleb128 0x8
 4486 01bf 3A       		.uleb128 0x3a
 4487 01c0 0B       		.uleb128 0xb
 4488 01c1 3B       		.uleb128 0x3b
 4489 01c2 0B       		.uleb128 0xb
 4490 01c3 27       		.uleb128 0x27
 4491 01c4 0C       		.uleb128 0xc
 4492 01c5 49       		.uleb128 0x49
 4493 01c6 13       		.uleb128 0x13
 4494 01c7 11       		.uleb128 0x11
 4495 01c8 01       		.uleb128 0x1
 4496 01c9 12       		.uleb128 0x12
 4497 01ca 01       		.uleb128 0x1
 4498 01cb 40       		.uleb128 0x40
 4499 01cc 06       		.uleb128 0x6
 4500 01cd 00       		.byte	0
 4501 01ce 00       		.byte	0
 4502 01cf 24       		.uleb128 0x24
 4503 01d0 2E       		.uleb128 0x2e
 4504 01d1 01       		.byte	0x1
 4505 01d2 03       		.uleb128 0x3
 4506 01d3 08       		.uleb128 0x8
 4507 01d4 3A       		.uleb128 0x3a
 4508 01d5 0B       		.uleb128 0xb
 4509 01d6 3B       		.uleb128 0x3b
 4510 01d7 05       		.uleb128 0x5
 4511 01d8 27       		.uleb128 0x27
 4512 01d9 0C       		.uleb128 0xc
 4513 01da 11       		.uleb128 0x11
 4514 01db 01       		.uleb128 0x1
 4515 01dc 12       		.uleb128 0x12
 4516 01dd 01       		.uleb128 0x1
 4517 01de 40       		.uleb128 0x40
 4518 01df 06       		.uleb128 0x6
 4519 01e0 01       		.uleb128 0x1
 4520 01e1 13       		.uleb128 0x13
 4521 01e2 00       		.byte	0
 4522 01e3 00       		.byte	0
 4523 01e4 25       		.uleb128 0x25
 4524 01e5 05       		.uleb128 0x5
 4525 01e6 00       		.byte	0
GAS LISTING C:\cygwin\tmp\ccs5iBND.s 			page 99


 4526 01e7 03       		.uleb128 0x3
 4527 01e8 08       		.uleb128 0x8
 4528 01e9 3A       		.uleb128 0x3a
 4529 01ea 0B       		.uleb128 0xb
 4530 01eb 3B       		.uleb128 0x3b
 4531 01ec 05       		.uleb128 0x5
 4532 01ed 49       		.uleb128 0x49
 4533 01ee 13       		.uleb128 0x13
 4534 01ef 02       		.uleb128 0x2
 4535 01f0 0A       		.uleb128 0xa
 4536 01f1 00       		.byte	0
 4537 01f2 00       		.byte	0
 4538 01f3 26       		.uleb128 0x26
 4539 01f4 2E       		.uleb128 0x2e
 4540 01f5 01       		.byte	0x1
 4541 01f6 3F       		.uleb128 0x3f
 4542 01f7 0C       		.uleb128 0xc
 4543 01f8 03       		.uleb128 0x3
 4544 01f9 08       		.uleb128 0x8
 4545 01fa 3A       		.uleb128 0x3a
 4546 01fb 0B       		.uleb128 0xb
 4547 01fc 3B       		.uleb128 0x3b
 4548 01fd 05       		.uleb128 0x5
 4549 01fe 27       		.uleb128 0x27
 4550 01ff 0C       		.uleb128 0xc
 4551 0200 11       		.uleb128 0x11
 4552 0201 01       		.uleb128 0x1
 4553 0202 12       		.uleb128 0x12
 4554 0203 01       		.uleb128 0x1
 4555 0204 40       		.uleb128 0x40
 4556 0205 06       		.uleb128 0x6
 4557 0206 01       		.uleb128 0x1
 4558 0207 13       		.uleb128 0x13
 4559 0208 00       		.byte	0
 4560 0209 00       		.byte	0
 4561 020a 27       		.uleb128 0x27
 4562 020b 34       		.uleb128 0x34
 4563 020c 00       		.byte	0
 4564 020d 03       		.uleb128 0x3
 4565 020e 0E       		.uleb128 0xe
 4566 020f 3A       		.uleb128 0x3a
 4567 0210 0B       		.uleb128 0xb
 4568 0211 3B       		.uleb128 0x3b
 4569 0212 05       		.uleb128 0x5
 4570 0213 49       		.uleb128 0x49
 4571 0214 13       		.uleb128 0x13
 4572 0215 02       		.uleb128 0x2
 4573 0216 0A       		.uleb128 0xa
 4574 0217 00       		.byte	0
 4575 0218 00       		.byte	0
 4576 0219 28       		.uleb128 0x28
 4577 021a 34       		.uleb128 0x34
 4578 021b 00       		.byte	0
 4579 021c 03       		.uleb128 0x3
 4580 021d 08       		.uleb128 0x8
 4581 021e 3A       		.uleb128 0x3a
 4582 021f 0B       		.uleb128 0xb
GAS LISTING C:\cygwin\tmp\ccs5iBND.s 			page 100


 4583 0220 3B       		.uleb128 0x3b
 4584 0221 05       		.uleb128 0x5
 4585 0222 49       		.uleb128 0x49
 4586 0223 13       		.uleb128 0x13
 4587 0224 02       		.uleb128 0x2
 4588 0225 0A       		.uleb128 0xa
 4589 0226 00       		.byte	0
 4590 0227 00       		.byte	0
 4591 0228 29       		.uleb128 0x29
 4592 0229 2E       		.uleb128 0x2e
 4593 022a 01       		.byte	0x1
 4594 022b 3F       		.uleb128 0x3f
 4595 022c 0C       		.uleb128 0xc
 4596 022d 03       		.uleb128 0x3
 4597 022e 08       		.uleb128 0x8
 4598 022f 3A       		.uleb128 0x3a
 4599 0230 0B       		.uleb128 0xb
 4600 0231 3B       		.uleb128 0x3b
 4601 0232 05       		.uleb128 0x5
 4602 0233 27       		.uleb128 0x27
 4603 0234 0C       		.uleb128 0xc
 4604 0235 49       		.uleb128 0x49
 4605 0236 13       		.uleb128 0x13
 4606 0237 11       		.uleb128 0x11
 4607 0238 01       		.uleb128 0x1
 4608 0239 12       		.uleb128 0x12
 4609 023a 01       		.uleb128 0x1
 4610 023b 40       		.uleb128 0x40
 4611 023c 06       		.uleb128 0x6
 4612 023d 01       		.uleb128 0x1
 4613 023e 13       		.uleb128 0x13
 4614 023f 00       		.byte	0
 4615 0240 00       		.byte	0
 4616 0241 2A       		.uleb128 0x2a
 4617 0242 2E       		.uleb128 0x2e
 4618 0243 00       		.byte	0
 4619 0244 03       		.uleb128 0x3
 4620 0245 08       		.uleb128 0x8
 4621 0246 27       		.uleb128 0x27
 4622 0247 0C       		.uleb128 0xc
 4623 0248 34       		.uleb128 0x34
 4624 0249 0C       		.uleb128 0xc
 4625 024a 11       		.uleb128 0x11
 4626 024b 01       		.uleb128 0x1
 4627 024c 12       		.uleb128 0x12
 4628 024d 01       		.uleb128 0x1
 4629 024e 40       		.uleb128 0x40
 4630 024f 06       		.uleb128 0x6
 4631 0250 00       		.byte	0
 4632 0251 00       		.byte	0
 4633 0252 2B       		.uleb128 0x2b
 4634 0253 34       		.uleb128 0x34
 4635 0254 00       		.byte	0
 4636 0255 03       		.uleb128 0x3
 4637 0256 08       		.uleb128 0x8
 4638 0257 3A       		.uleb128 0x3a
 4639 0258 0B       		.uleb128 0xb
GAS LISTING C:\cygwin\tmp\ccs5iBND.s 			page 101


 4640 0259 3B       		.uleb128 0x3b
 4641 025a 0B       		.uleb128 0xb
 4642 025b 49       		.uleb128 0x49
 4643 025c 13       		.uleb128 0x13
 4644 025d 3F       		.uleb128 0x3f
 4645 025e 0C       		.uleb128 0xc
 4646 025f 3C       		.uleb128 0x3c
 4647 0260 0C       		.uleb128 0xc
 4648 0261 00       		.byte	0
 4649 0262 00       		.byte	0
 4650 0263 2C       		.uleb128 0x2c
 4651 0264 21       		.uleb128 0x21
 4652 0265 00       		.byte	0
 4653 0266 00       		.byte	0
 4654 0267 00       		.byte	0
 4655 0268 2D       		.uleb128 0x2d
 4656 0269 34       		.uleb128 0x34
 4657 026a 00       		.byte	0
 4658 026b 03       		.uleb128 0x3
 4659 026c 0E       		.uleb128 0xe
 4660 026d 3A       		.uleb128 0x3a
 4661 026e 0B       		.uleb128 0xb
 4662 026f 3B       		.uleb128 0x3b
 4663 0270 0B       		.uleb128 0xb
 4664 0271 49       		.uleb128 0x49
 4665 0272 13       		.uleb128 0x13
 4666 0273 3F       		.uleb128 0x3f
 4667 0274 0C       		.uleb128 0xc
 4668 0275 3C       		.uleb128 0x3c
 4669 0276 0C       		.uleb128 0xc
 4670 0277 00       		.byte	0
 4671 0278 00       		.byte	0
 4672 0279 2E       		.uleb128 0x2e
 4673 027a 34       		.uleb128 0x34
 4674 027b 00       		.byte	0
 4675 027c 03       		.uleb128 0x3
 4676 027d 08       		.uleb128 0x8
 4677 027e 3A       		.uleb128 0x3a
 4678 027f 0B       		.uleb128 0xb
 4679 0280 3B       		.uleb128 0x3b
 4680 0281 0B       		.uleb128 0xb
 4681 0282 49       		.uleb128 0x49
 4682 0283 13       		.uleb128 0x13
 4683 0284 3F       		.uleb128 0x3f
 4684 0285 0C       		.uleb128 0xc
 4685 0286 02       		.uleb128 0x2
 4686 0287 0A       		.uleb128 0xa
 4687 0288 00       		.byte	0
 4688 0289 00       		.byte	0
 4689 028a 2F       		.uleb128 0x2f
 4690 028b 34       		.uleb128 0x34
 4691 028c 00       		.byte	0
 4692 028d 03       		.uleb128 0x3
 4693 028e 0E       		.uleb128 0xe
 4694 028f 3A       		.uleb128 0x3a
 4695 0290 0B       		.uleb128 0xb
 4696 0291 3B       		.uleb128 0x3b
GAS LISTING C:\cygwin\tmp\ccs5iBND.s 			page 102


 4697 0292 05       		.uleb128 0x5
 4698 0293 49       		.uleb128 0x49
 4699 0294 13       		.uleb128 0x13
 4700 0295 3F       		.uleb128 0x3f
 4701 0296 0C       		.uleb128 0xc
 4702 0297 02       		.uleb128 0x2
 4703 0298 0A       		.uleb128 0xa
 4704 0299 00       		.byte	0
 4705 029a 00       		.byte	0
 4706 029b 00       		.byte	0
 4707              		.section	.debug_loc,"dr"
 4708              	Ldebug_loc0:
 4709              	LLST0:
 4710 0000 00000000 		.long	LFB9-Ltext0
 4711 0004 03000000 		.long	LCFI0-Ltext0
 4712 0008 0200     		.word	0x2
 4713 000a 74       		.byte	0x74
 4714 000b 04       		.sleb128 4
 4715 000c 03000000 		.long	LCFI0-Ltext0
 4716 0010 55010000 		.long	LCFI1-Ltext0
 4717 0014 0300     		.word	0x3
 4718 0016 74       		.byte	0x74
 4719 0017 D000     		.sleb128 80
 4720 0019 55010000 		.long	LCFI1-Ltext0
 4721 001d 56010000 		.long	LFE9-Ltext0
 4722 0021 0200     		.word	0x2
 4723 0023 74       		.byte	0x74
 4724 0024 04       		.sleb128 4
 4725 0025 00000000 		.long	0
 4726 0029 00000000 		.long	0
 4727              	LLST1:
 4728 002d 56010000 		.long	LFB10-Ltext0
 4729 0031 59010000 		.long	LCFI2-Ltext0
 4730 0035 0200     		.word	0x2
 4731 0037 74       		.byte	0x74
 4732 0038 04       		.sleb128 4
 4733 0039 59010000 		.long	LCFI2-Ltext0
 4734 003d E1010000 		.long	LCFI3-Ltext0
 4735 0041 0200     		.word	0x2
 4736 0043 74       		.byte	0x74
 4737 0044 20       		.sleb128 32
 4738 0045 E1010000 		.long	LCFI3-Ltext0
 4739 0049 E2010000 		.long	LFE10-Ltext0
 4740 004d 0200     		.word	0x2
 4741 004f 74       		.byte	0x74
 4742 0050 04       		.sleb128 4
 4743 0051 00000000 		.long	0
 4744 0055 00000000 		.long	0
 4745              	LLST2:
 4746 0059 E2010000 		.long	LFB11-Ltext0
 4747 005d E5010000 		.long	LCFI4-Ltext0
 4748 0061 0200     		.word	0x2
 4749 0063 74       		.byte	0x74
 4750 0064 04       		.sleb128 4
 4751 0065 E5010000 		.long	LCFI4-Ltext0
 4752 0069 6B020000 		.long	LCFI5-Ltext0
 4753 006d 0200     		.word	0x2
GAS LISTING C:\cygwin\tmp\ccs5iBND.s 			page 103


 4754 006f 74       		.byte	0x74
 4755 0070 20       		.sleb128 32
 4756 0071 6B020000 		.long	LCFI5-Ltext0
 4757 0075 6C020000 		.long	LFE11-Ltext0
 4758 0079 0200     		.word	0x2
 4759 007b 74       		.byte	0x74
 4760 007c 04       		.sleb128 4
 4761 007d 00000000 		.long	0
 4762 0081 00000000 		.long	0
 4763              	LLST3:
 4764 0085 6C020000 		.long	LFB12-Ltext0
 4765 0089 6F020000 		.long	LCFI6-Ltext0
 4766 008d 0200     		.word	0x2
 4767 008f 74       		.byte	0x74
 4768 0090 04       		.sleb128 4
 4769 0091 6F020000 		.long	LCFI6-Ltext0
 4770 0095 98020000 		.long	LCFI7-Ltext0
 4771 0099 0200     		.word	0x2
 4772 009b 74       		.byte	0x74
 4773 009c 08       		.sleb128 8
 4774 009d 98020000 		.long	LCFI7-Ltext0
 4775 00a1 99020000 		.long	LFE12-Ltext0
 4776 00a5 0200     		.word	0x2
 4777 00a7 74       		.byte	0x74
 4778 00a8 04       		.sleb128 4
 4779 00a9 00000000 		.long	0
 4780 00ad 00000000 		.long	0
 4781              	LLST4:
 4782 00b1 99020000 		.long	LFB13-Ltext0
 4783 00b5 9C020000 		.long	LCFI8-Ltext0
 4784 00b9 0200     		.word	0x2
 4785 00bb 74       		.byte	0x74
 4786 00bc 04       		.sleb128 4
 4787 00bd 9C020000 		.long	LCFI8-Ltext0
 4788 00c1 2D030000 		.long	LCFI9-Ltext0
 4789 00c5 0200     		.word	0x2
 4790 00c7 74       		.byte	0x74
 4791 00c8 30       		.sleb128 48
 4792 00c9 2D030000 		.long	LCFI9-Ltext0
 4793 00cd 2E030000 		.long	LFE13-Ltext0
 4794 00d1 0200     		.word	0x2
 4795 00d3 74       		.byte	0x74
 4796 00d4 04       		.sleb128 4
 4797 00d5 00000000 		.long	0
 4798 00d9 00000000 		.long	0
 4799              	LLST5:
 4800 00dd 2E030000 		.long	LFB14-Ltext0
 4801 00e1 31030000 		.long	LCFI10-Ltext0
 4802 00e5 0200     		.word	0x2
 4803 00e7 74       		.byte	0x74
 4804 00e8 04       		.sleb128 4
 4805 00e9 31030000 		.long	LCFI10-Ltext0
 4806 00ed A3030000 		.long	LCFI11-Ltext0
 4807 00f1 0200     		.word	0x2
 4808 00f3 74       		.byte	0x74
 4809 00f4 10       		.sleb128 16
 4810 00f5 A3030000 		.long	LCFI11-Ltext0
GAS LISTING C:\cygwin\tmp\ccs5iBND.s 			page 104


 4811 00f9 A4030000 		.long	LFE14-Ltext0
 4812 00fd 0200     		.word	0x2
 4813 00ff 74       		.byte	0x74
 4814 0100 04       		.sleb128 4
 4815 0101 00000000 		.long	0
 4816 0105 00000000 		.long	0
 4817              	LLST6:
 4818 0109 A4030000 		.long	LFB15-Ltext0
 4819 010d A7030000 		.long	LCFI12-Ltext0
 4820 0111 0200     		.word	0x2
 4821 0113 74       		.byte	0x74
 4822 0114 04       		.sleb128 4
 4823 0115 A7030000 		.long	LCFI12-Ltext0
 4824 0119 DF030000 		.long	LCFI13-Ltext0
 4825 011d 0200     		.word	0x2
 4826 011f 74       		.byte	0x74
 4827 0120 08       		.sleb128 8
 4828 0121 DF030000 		.long	LCFI13-Ltext0
 4829 0125 E0030000 		.long	LFE15-Ltext0
 4830 0129 0200     		.word	0x2
 4831 012b 74       		.byte	0x74
 4832 012c 04       		.sleb128 4
 4833 012d 00000000 		.long	0
 4834 0131 00000000 		.long	0
 4835              	LLST7:
 4836 0135 E0030000 		.long	LFB16-Ltext0
 4837 0139 E3030000 		.long	LCFI14-Ltext0
 4838 013d 0200     		.word	0x2
 4839 013f 74       		.byte	0x74
 4840 0140 04       		.sleb128 4
 4841 0141 E3030000 		.long	LCFI14-Ltext0
 4842 0145 61040000 		.long	LCFI15-Ltext0
 4843 0149 0200     		.word	0x2
 4844 014b 74       		.byte	0x74
 4845 014c 18       		.sleb128 24
 4846 014d 61040000 		.long	LCFI15-Ltext0
 4847 0151 62040000 		.long	LFE16-Ltext0
 4848 0155 0200     		.word	0x2
 4849 0157 74       		.byte	0x74
 4850 0158 04       		.sleb128 4
 4851 0159 00000000 		.long	0
 4852 015d 00000000 		.long	0
 4853              	LLST8:
 4854 0161 62040000 		.long	LFB17-Ltext0
 4855 0165 65040000 		.long	LCFI16-Ltext0
 4856 0169 0200     		.word	0x2
 4857 016b 74       		.byte	0x74
 4858 016c 04       		.sleb128 4
 4859 016d 65040000 		.long	LCFI16-Ltext0
 4860 0171 9B050000 		.long	LCFI17-Ltext0
 4861 0175 0200     		.word	0x2
 4862 0177 74       		.byte	0x74
 4863 0178 20       		.sleb128 32
 4864 0179 9B050000 		.long	LCFI17-Ltext0
 4865 017d 9C050000 		.long	LFE17-Ltext0
 4866 0181 0200     		.word	0x2
 4867 0183 74       		.byte	0x74
GAS LISTING C:\cygwin\tmp\ccs5iBND.s 			page 105


 4868 0184 04       		.sleb128 4
 4869 0185 00000000 		.long	0
 4870 0189 00000000 		.long	0
 4871              	LLST9:
 4872 018d 9C050000 		.long	LFB18-Ltext0
 4873 0191 9F050000 		.long	LCFI18-Ltext0
 4874 0195 0200     		.word	0x2
 4875 0197 74       		.byte	0x74
 4876 0198 04       		.sleb128 4
 4877 0199 9F050000 		.long	LCFI18-Ltext0
 4878 019d 23060000 		.long	LCFI19-Ltext0
 4879 01a1 0200     		.word	0x2
 4880 01a3 74       		.byte	0x74
 4881 01a4 20       		.sleb128 32
 4882 01a5 23060000 		.long	LCFI19-Ltext0
 4883 01a9 24060000 		.long	LFE18-Ltext0
 4884 01ad 0200     		.word	0x2
 4885 01af 74       		.byte	0x74
 4886 01b0 04       		.sleb128 4
 4887 01b1 00000000 		.long	0
 4888 01b5 00000000 		.long	0
 4889              	LLST10:
 4890 01b9 24060000 		.long	LFB19-Ltext0
 4891 01bd 27060000 		.long	LCFI20-Ltext0
 4892 01c1 0200     		.word	0x2
 4893 01c3 74       		.byte	0x74
 4894 01c4 04       		.sleb128 4
 4895 01c5 27060000 		.long	LCFI20-Ltext0
 4896 01c9 D5060000 		.long	LCFI21-Ltext0
 4897 01cd 0200     		.word	0x2
 4898 01cf 74       		.byte	0x74
 4899 01d0 30       		.sleb128 48
 4900 01d1 D5060000 		.long	LCFI21-Ltext0
 4901 01d5 D6060000 		.long	LFE19-Ltext0
 4902 01d9 0200     		.word	0x2
 4903 01db 74       		.byte	0x74
 4904 01dc 04       		.sleb128 4
 4905 01dd 00000000 		.long	0
 4906 01e1 00000000 		.long	0
 4907              	LLST11:
 4908 01e5 D6060000 		.long	LFB20-Ltext0
 4909 01e9 D9060000 		.long	LCFI22-Ltext0
 4910 01ed 0200     		.word	0x2
 4911 01ef 74       		.byte	0x74
 4912 01f0 04       		.sleb128 4
 4913 01f1 D9060000 		.long	LCFI22-Ltext0
 4914 01f5 99070000 		.long	LCFI23-Ltext0
 4915 01f9 0200     		.word	0x2
 4916 01fb 74       		.byte	0x74
 4917 01fc 30       		.sleb128 48
 4918 01fd 99070000 		.long	LCFI23-Ltext0
 4919 0201 9A070000 		.long	LFE20-Ltext0
 4920 0205 0200     		.word	0x2
 4921 0207 74       		.byte	0x74
 4922 0208 04       		.sleb128 4
 4923 0209 00000000 		.long	0
 4924 020d 00000000 		.long	0
GAS LISTING C:\cygwin\tmp\ccs5iBND.s 			page 106


 4925              	LLST12:
 4926 0211 9A070000 		.long	LFB21-Ltext0
 4927 0215 9D070000 		.long	LCFI24-Ltext0
 4928 0219 0200     		.word	0x2
 4929 021b 74       		.byte	0x74
 4930 021c 04       		.sleb128 4
 4931 021d 9D070000 		.long	LCFI24-Ltext0
 4932 0221 33090000 		.long	LCFI25-Ltext0
 4933 0225 0200     		.word	0x2
 4934 0227 74       		.byte	0x74
 4935 0228 30       		.sleb128 48
 4936 0229 33090000 		.long	LCFI25-Ltext0
 4937 022d 34090000 		.long	LFE21-Ltext0
 4938 0231 0200     		.word	0x2
 4939 0233 74       		.byte	0x74
 4940 0234 04       		.sleb128 4
 4941 0235 00000000 		.long	0
 4942 0239 00000000 		.long	0
 4943              	LLST13:
 4944 023d 34090000 		.long	LFB22-Ltext0
 4945 0241 37090000 		.long	LCFI26-Ltext0
 4946 0245 0200     		.word	0x2
 4947 0247 74       		.byte	0x74
 4948 0248 04       		.sleb128 4
 4949 0249 37090000 		.long	LCFI26-Ltext0
 4950 024d 83090000 		.long	LCFI27-Ltext0
 4951 0251 0200     		.word	0x2
 4952 0253 74       		.byte	0x74
 4953 0254 20       		.sleb128 32
 4954 0255 83090000 		.long	LCFI27-Ltext0
 4955 0259 84090000 		.long	LFE22-Ltext0
 4956 025d 0200     		.word	0x2
 4957 025f 74       		.byte	0x74
 4958 0260 04       		.sleb128 4
 4959 0261 00000000 		.long	0
 4960 0265 00000000 		.long	0
 4961              	LLST14:
 4962 0269 84090000 		.long	LFB23-Ltext0
 4963 026d 87090000 		.long	LCFI28-Ltext0
 4964 0271 0200     		.word	0x2
 4965 0273 74       		.byte	0x74
 4966 0274 04       		.sleb128 4
 4967 0275 87090000 		.long	LCFI28-Ltext0
 4968 0279 AD090000 		.long	LCFI29-Ltext0
 4969 027d 0200     		.word	0x2
 4970 027f 74       		.byte	0x74
 4971 0280 08       		.sleb128 8
 4972 0281 AD090000 		.long	LCFI29-Ltext0
 4973 0285 AE090000 		.long	LFE23-Ltext0
 4974 0289 0200     		.word	0x2
 4975 028b 74       		.byte	0x74
 4976 028c 04       		.sleb128 4
 4977 028d 00000000 		.long	0
 4978 0291 00000000 		.long	0
 4979              	LLST15:
 4980 0295 AE090000 		.long	LFB24-Ltext0
 4981 0299 B1090000 		.long	LCFI30-Ltext0
GAS LISTING C:\cygwin\tmp\ccs5iBND.s 			page 107


 4982 029d 0200     		.word	0x2
 4983 029f 74       		.byte	0x74
 4984 02a0 04       		.sleb128 4
 4985 02a1 B1090000 		.long	LCFI30-Ltext0
 4986 02a5 8F0A0000 		.long	LCFI31-Ltext0
 4987 02a9 0300     		.word	0x3
 4988 02ab 74       		.byte	0x74
 4989 02ac C000     		.sleb128 64
 4990 02ae 8F0A0000 		.long	LCFI31-Ltext0
 4991 02b2 900A0000 		.long	LFE24-Ltext0
 4992 02b6 0200     		.word	0x2
 4993 02b8 74       		.byte	0x74
 4994 02b9 04       		.sleb128 4
 4995 02ba 00000000 		.long	0
 4996 02be 00000000 		.long	0
 4997              	LLST16:
 4998 02c2 900A0000 		.long	LFB25-Ltext0
 4999 02c6 930A0000 		.long	LCFI32-Ltext0
 5000 02ca 0200     		.word	0x2
 5001 02cc 74       		.byte	0x74
 5002 02cd 04       		.sleb128 4
 5003 02ce 930A0000 		.long	LCFI32-Ltext0
 5004 02d2 F80B0000 		.long	LCFI33-Ltext0
 5005 02d6 0200     		.word	0x2
 5006 02d8 74       		.byte	0x74
 5007 02d9 20       		.sleb128 32
 5008 02da F80B0000 		.long	LCFI33-Ltext0
 5009 02de F90B0000 		.long	LFE25-Ltext0
 5010 02e2 0200     		.word	0x2
 5011 02e4 74       		.byte	0x74
 5012 02e5 04       		.sleb128 4
 5013 02e6 00000000 		.long	0
 5014 02ea 00000000 		.long	0
 5015              	LLST17:
 5016 02ee F90B0000 		.long	LFB26-Ltext0
 5017 02f2 FC0B0000 		.long	LCFI34-Ltext0
 5018 02f6 0200     		.word	0x2
 5019 02f8 74       		.byte	0x74
 5020 02f9 04       		.sleb128 4
 5021 02fa FC0B0000 		.long	LCFI34-Ltext0
 5022 02fe C30C0000 		.long	LCFI35-Ltext0
 5023 0302 0200     		.word	0x2
 5024 0304 74       		.byte	0x74
 5025 0305 30       		.sleb128 48
 5026 0306 C30C0000 		.long	LCFI35-Ltext0
 5027 030a C40C0000 		.long	LFE26-Ltext0
 5028 030e 0200     		.word	0x2
 5029 0310 74       		.byte	0x74
 5030 0311 04       		.sleb128 4
 5031 0312 00000000 		.long	0
 5032 0316 00000000 		.long	0
 5033              	LLST18:
 5034 031a C40C0000 		.long	LFB27-Ltext0
 5035 031e C70C0000 		.long	LCFI36-Ltext0
 5036 0322 0200     		.word	0x2
 5037 0324 74       		.byte	0x74
 5038 0325 04       		.sleb128 4
GAS LISTING C:\cygwin\tmp\ccs5iBND.s 			page 108


 5039 0326 C70C0000 		.long	LCFI36-Ltext0
 5040 032a 07140000 		.long	LCFI37-Ltext0
 5041 032e 0200     		.word	0x2
 5042 0330 74       		.byte	0x74
 5043 0331 30       		.sleb128 48
 5044 0332 07140000 		.long	LCFI37-Ltext0
 5045 0336 08140000 		.long	LFE27-Ltext0
 5046 033a 0200     		.word	0x2
 5047 033c 74       		.byte	0x74
 5048 033d 04       		.sleb128 4
 5049 033e 00000000 		.long	0
 5050 0342 00000000 		.long	0
 5051              	LLST19:
 5052 0346 08140000 		.long	LFB28-Ltext0
 5053 034a 0B140000 		.long	LCFI38-Ltext0
 5054 034e 0200     		.word	0x2
 5055 0350 74       		.byte	0x74
 5056 0351 04       		.sleb128 4
 5057 0352 0B140000 		.long	LCFI38-Ltext0
 5058 0356 1A140000 		.long	LCFI39-Ltext0
 5059 035a 0200     		.word	0x2
 5060 035c 74       		.byte	0x74
 5061 035d 20       		.sleb128 32
 5062 035e 1A140000 		.long	LCFI39-Ltext0
 5063 0362 1B140000 		.long	LFE28-Ltext0
 5064 0366 0200     		.word	0x2
 5065 0368 74       		.byte	0x74
 5066 0369 04       		.sleb128 4
 5067 036a 00000000 		.long	0
 5068 036e 00000000 		.long	0
 5069              		.section	.debug_aranges,"dr"
 5070 0000 1C000000 		.long	0x1c
 5071 0004 0200     		.word	0x2
 5072 0006 00000000 		.secrel32	Ldebug_info0
 5073 000a 04       		.byte	0x4
 5074 000b 00       		.byte	0
 5075 000c 0000     		.word	0
 5076 000e 0000     		.word	0
 5077 0010 00000000 		.long	Ltext0
 5078 0014 1B140000 		.long	Letext0-Ltext0
 5079 0018 00000000 		.long	0
 5080 001c 00000000 		.long	0
 5081              		.section	.debug_line,"dr"
 5082              	Ldebug_line0:
 5083 0000 1F040000 		.section	.debug_str,"dr"
 5083      0200F701 
 5083      00000101 
 5083      FB0E0D00 
 5083      01010101 
 5084              	LASF10:
 5085 0000 70617474 		.ascii "patternevt\0"
 5085      65726E65 
 5085      767400
 5086              	LASF2:
 5087 000b 706F696E 		.ascii "point\0"
 5087      7400
 5088              	LASF8:
GAS LISTING C:\cygwin\tmp\ccs5iBND.s 			page 109


 5089 0011 70617474 		.ascii "patternmsg\0"
 5089      65726E6D 
 5089      736700
 5090              	LASF15:
 5091 001c 70617474 		.ascii "patternbmk\0"
 5091      65726E62 
 5091      6D6B00
 5092              	LASF11:
 5093 0027 70617474 		.ascii "patternheap\0"
 5093      65726E68 
 5093      65617000 
 5094              	LASF3:
 5095 0033 64757261 		.ascii "duration\0"
 5095      74696F6E 
 5095      00
 5096              	LASF13:
 5097 003c 70617474 		.ascii "patterndyn\0"
 5097      65726E64 
 5097      796E00
 5098              	LASF14:
 5099 0047 70617474 		.ascii "patternqueues\0"
 5099      65726E71 
 5099      75657565 
 5099      7300
 5100              	LASF1:
 5101 0055 56697274 		.ascii "VirtualTimer\0"
 5101      75616C54 
 5101      696D6572 
 5101      00
 5102              	LASF12:
 5103 0062 70617474 		.ascii "patternpools\0"
 5103      65726E70 
 5103      6F6F6C73 
 5103      00
 5104              	LASF9:
 5105 006f 70617474 		.ascii "patternmbox\0"
 5105      65726E6D 
 5105      626F7800 
 5106              	LASF5:
 5107 007b 70617474 		.ascii "patternthd\0"
 5107      65726E74 
 5107      686400
 5108              	LASF7:
 5109 0086 70617474 		.ascii "patternmtx\0"
 5109      65726E6D 
 5109      747800
 5110              	LASF4:
 5111 0091 74657374 		.ascii "test_timer_done\0"
 5111      5F74696D 
 5111      65725F64 
 5111      6F6E6500 
 5112              	LASF0:
 5113 00a1 705F6E65 		.ascii "p_next\0"
 5113      787400
 5114              	LASF6:
 5115 00a8 70617474 		.ascii "patternsem\0"
 5115      65726E73 
GAS LISTING C:\cygwin\tmp\ccs5iBND.s 			page 110


 5115      656D00
 5116              		.def	_chTimeIsWithin;	.scl	2;	.type	32;	.endef
 5117              		.def	_chThdTerminate;	.scl	2;	.type	32;	.endef
 5118              		.def	_chThdWait;	.scl	2;	.type	32;	.endef
 5119              		.def	_ChkIntSources;	.scl	2;	.type	32;	.endef
 5120              		.def	_chThdSleep;	.scl	2;	.type	32;	.endef
 5121              		.def	_chVTSetI;	.scl	2;	.type	32;	.endef
 5122              		.def	___gcov_merge_add;	.scl	2;	.type	32;	.endef
 5123              		.def	___gcov_init;	.scl	2;	.type	32;	.endef
GAS LISTING C:\cygwin\tmp\ccs5iBND.s 			page 111


DEFINED SYMBOLS
                            *ABS*:00000000 test.c
C:\cygwin\tmp\ccs5iBND.s:44     .data:00000000 _patterns
                             .bss:00000000 _local_fail
C:\cygwin\tmp\ccs5iBND.s:57     .bss:00000001 _global_fail
C:\cygwin\tmp\ccs5iBND.s:59     .bss:00000004 _failpoint
C:\cygwin\tmp\ccs5iBND.s:59     .bss:00000008 _tokens_buffer
C:\cygwin\tmp\ccs5iBND.s:61     .bss:00000018 _tokp
                            *COM*:00014c30 _test
                            *COM*:00000014 _threads
C:\cygwin\tmp\ccs5iBND.s:67     .rdata:00000000 _wa
C:\cygwin\tmp\ccs5iBND.s:73     .bss:0000001c _chp
C:\cygwin\tmp\ccs5iBND.s:77     .text:00000000 _test_printn
C:\cygwin\tmp\ccs5iBND.s:195    .text:00000156 _test_print
C:\cygwin\tmp\ccs5iBND.s:256    .text:000001e2 _test_println
C:\cygwin\tmp\ccs5iBND.s:303    .text:0000026c _clear_tokens
C:\cygwin\tmp\ccs5iBND.s:327    .text:00000299 _print_tokens
C:\cygwin\tmp\ccs5iBND.s:384    .text:0000032e _test_emit_token
C:\cygwin\tmp\ccs5iBND.s:439    .text:000003a4 __test_fail
C:\cygwin\tmp\ccs5iBND.s:471    .text:000003e0 __test_assert
C:\cygwin\tmp\ccs5iBND.s:523    .text:00000462 __test_assert_sequence
C:\cygwin\tmp\ccs5iBND.s:626    .text:0000059c __test_assert_time_window
C:\cygwin\tmp\ccs5iBND.s:675    .text:00000624 _test_terminate_threads
C:\cygwin\tmp\ccs5iBND.s:737    .text:000006d6 _test_wait_threads
C:\cygwin\tmp\ccs5iBND.s:802    .text:0000079a _test_cpu_pulse
C:\cygwin\tmp\ccs5iBND.s:941    .text:00000934 _test_wait_tick
                            *COM*:00000001 _test_timer_done
C:\cygwin\tmp\ccs5iBND.s:974    .bss:00000020 _vt
C:\cygwin\tmp\ccs5iBND.s:976    .text:00000984 _tmr
C:\cygwin\tmp\ccs5iBND.s:1001   .text:000009ae _test_start_timer
C:\cygwin\tmp\ccs5iBND.s:1079   .text:00000a90 _execute_test
C:\cygwin\tmp\ccs5iBND.s:1194   .text:00000bf9 _print_line
C:\cygwin\tmp\ccs5iBND.s:1321   .text:00000cc4 _TestThread
C:\cygwin\tmp\ccs5iBND.s:1933   .text:00001408 __GLOBAL__sub_I_65535_0_wa

UNDEFINED SYMBOLS
_patternthd
_patternsem
_patternmtx
_patternmsg
_patternmbox
_patternevt
_patternheap
_patternpools
_patterndyn
_patternqueues
_patternbmk
_rlist
_vtlist
_chTimeIsWithin
_chThdTerminate
_chThdWait
_ChkIntSources
_chThdSleep
_chVTSetI
___gcov_merge_add
___gcov_init
GAS LISTING C:\cygwin\tmp\ccs5iBND.s 			page 112


