GAS LISTING C:\cygwin\tmp\ccHd38PY.s 			page 1


   1              		.file	"testheap.c"
   2              	 # GNU C (GCC) version 4.6.2 (mingw32)
   3              	 #	compiled by GNU C version 4.6.2, GMP version 5.0.1, MPFR version 2.4.1, MPC version 0.8.1
   4              	 # GGC heuristics: --param ggc-min-expand=100 --param ggc-min-heapsize=131072
   5              	 # options passed:  -I . -I ../../os/ports/GCC/SIMIA32
   6              	 # -I ../../os/kernel/include -I ../../test -I ../../os/hal/include
   7              	 # -I ../../os/hal/platforms/Win32 -I ../../boards/simulator
   8              	 # -I ../../os/various -iprefix c:\mingw\bin\../lib/gcc/mingw32/4.6.2/
   9              	 # -MD ../../test/testheap.d -MF .dep/testheap.o.d -MP
  10              	 # -MQ ../../test/testheap.o -D SIMULATOR ../../test/testheap.c -mtune=i386
  11              	 # -march=i386 -auxbase-strip ../../test/testheap.o -ggdb -O0 -Wall -Wextra
  12              	 # -Wstrict-prototypes -fomit-frame-pointer -fprofile-arcs -ftest-coverage
  13              	 # -fverbose-asm
  14              	 # options enabled:  -fasynchronous-unwind-tables -fauto-inc-dec
  15              	 # -fbranch-count-reg -fcommon -fdelete-null-pointer-checks
  16              	 # -fdwarf2-cfi-asm -fearly-inlining -feliminate-unused-debug-types
  17              	 # -ffunction-cse -fgcse-lm -fident -finline-functions-called-once
  18              	 # -fira-share-save-slots -fira-share-spill-slots -fivopts
  19              	 # -fkeep-inline-dllexport -fkeep-static-consts -fleading-underscore
  20              	 # -fmath-errno -fmerge-debug-strings -fmove-loop-invariants
  21              	 # -fomit-frame-pointer -fpeephole -fprefetch-loop-arrays -fprofile-arcs
  22              	 # -freg-struct-return -fsched-critical-path-heuristic
  23              	 # -fsched-dep-count-heuristic -fsched-group-heuristic -fsched-interblock
  24              	 # -fsched-last-insn-heuristic -fsched-rank-heuristic -fsched-spec
  25              	 # -fsched-spec-insn-heuristic -fsched-stalled-insns-dep
  26              	 # -fset-stack-executable -fshow-column -fsigned-zeros
  27              	 # -fsplit-ivs-in-unroller -fstrict-volatile-bitfields -ftest-coverage
  28              	 # -ftrapping-math -ftree-cselim -ftree-forwprop -ftree-loop-if-convert
  29              	 # -ftree-loop-im -ftree-loop-ivcanon -ftree-loop-optimize
  30              	 # -ftree-parallelize-loops= -ftree-phiprop -ftree-pta -ftree-reassoc
  31              	 # -ftree-scev-cprop -ftree-slp-vectorize -ftree-vect-loop-version
  32              	 # -funit-at-a-time -funwind-tables -fvect-cost-model -fverbose-asm
  33              	 # -fzero-initialized-in-bss -m32 -m80387 -m96bit-long-double
  34              	 # -maccumulate-outgoing-args -malign-double -malign-stringops
  35              	 # -mfancy-math-387 -mfp-ret-in-387 -mieee-fp -mno-red-zone -mno-sse4
  36              	 # -mpush-args -msahf -mstack-arg-probe
  37              	
  38              		.text
  39              	Ltext0:
  40              	 # Compiler executable checksum: c20aed7c018482d7b62efcd5dcab2a9d
  41              	
  42              	.lcomm _test_heap,48,32
  43              		.def	_heap1_setup;	.scl	3;	.type	32;	.endef
  44              	_heap1_setup:
  45              	LFB0:
  46              		.file 1 "../../test/testheap.c"
  47              		.loc 1 68 0
  48              		.cfi_startproc
  49 0000 83EC1C   		subl	$28, %esp	 #,
  50              	LCFI0:
  51              		.cfi_def_cfa_offset 32
  52              		.loc 1 68 0
  53 0003 A1700200 		movl	LPBX1+560, %eax	 # *LPBX1, PROF_edge_counter.5
  53      00
  54 0008 8B157402 		movl	LPBX1+564, %edx	 # *LPBX1, PROF_edge_counter.5
  54      0000
  55 000e 83C001   		addl	$1, %eax	 #, PROF_edge_counter.5
GAS LISTING C:\cygwin\tmp\ccHd38PY.s 			page 2


  56 0011 83D200   		adcl	$0, %edx	 #, PROF_edge_counter.5
  57 0014 A3700200 		movl	%eax, LPBX1+560	 # PROF_edge_counter.5, *LPBX1
  57      00
  58 0019 89157402 		movl	%edx, LPBX1+564	 # PROF_edge_counter.5, *LPBX1
  58      0000
  59              		.loc 1 70 0
  60 001f C7442408 		movl	$85040, 8(%esp)	 #,
  60      304C0100 
  61 0027 C7442404 		movl	$_test, 4(%esp)	 #,
  61      00000000 
  62 002f C7042400 		movl	$_test_heap, (%esp)	 #,
  62      000000
  63 0036 E8000000 		call	_chHeapInit	 #
  63      00
  64 003b A1780200 		movl	LPBX1+568, %eax	 # *LPBX1, PROF_edge_counter.5
  64      00
  65 0040 8B157C02 		movl	LPBX1+572, %edx	 # *LPBX1, PROF_edge_counter.5
  65      0000
  66 0046 83C001   		addl	$1, %eax	 #, PROF_edge_counter.5
  67 0049 83D200   		adcl	$0, %edx	 #, PROF_edge_counter.5
  68 004c A3780200 		movl	%eax, LPBX1+568	 # PROF_edge_counter.5, *LPBX1
  68      00
  69 0051 89157C02 		movl	%edx, LPBX1+572	 # PROF_edge_counter.5, *LPBX1
  69      0000
  70              		.loc 1 71 0
  71 0057 83C41C   		addl	$28, %esp	 #,
  72              	LCFI1:
  73              		.cfi_def_cfa_offset 4
  74 005a C3       		ret
  75              		.cfi_endproc
  76              	LFE0:
  77              		.def	_heap1_execute;	.scl	3;	.type	32;	.endef
  78              	_heap1_execute:
  79              	LFB1:
  80              		.loc 1 73 0
  81              		.cfi_startproc
  82 005b 83EC3C   		subl	$60, %esp	 #,
  83              	LCFI2:
  84              		.cfi_def_cfa_offset 64
  85              		.loc 1 73 0
  86 005e A1400000 		movl	LPBX1, %eax	 # *LPBX1, PROF_edge_counter.4
  86      00
  87 0063 8B154400 		movl	LPBX1+4, %edx	 # *LPBX1, PROF_edge_counter.4
  87      0000
  88 0069 83C001   		addl	$1, %eax	 #, PROF_edge_counter.4
  89 006c 83D200   		adcl	$0, %edx	 #, PROF_edge_counter.4
  90 006f A3400000 		movl	%eax, LPBX1	 # PROF_edge_counter.4, *LPBX1
  90      00
  91 0074 89154400 		movl	%edx, LPBX1+4	 # PROF_edge_counter.4, *LPBX1
  91      0000
  92              		.loc 1 78 0
  93 007a E8000000 		call	_chCoreStatus	 #
  93      00
  94 007f A1480000 		movl	LPBX1+8, %eax	 # *LPBX1, PROF_edge_counter.4
  94      00
  95 0084 8B154C00 		movl	LPBX1+12, %edx	 # *LPBX1, PROF_edge_counter.4
  95      0000
GAS LISTING C:\cygwin\tmp\ccHd38PY.s 			page 3


  96 008a 83C001   		addl	$1, %eax	 #, PROF_edge_counter.4
  97 008d 83D200   		adcl	$0, %edx	 #, PROF_edge_counter.4
  98 0090 A3480000 		movl	%eax, LPBX1+8	 # PROF_edge_counter.4, *LPBX1
  98      00
  99 0095 89154C00 		movl	%edx, LPBX1+12	 # PROF_edge_counter.4, *LPBX1
  99      0000
 100              		.loc 1 84 0
 101 009b 8D44241C 		leal	28(%esp), %eax	 #, tmp238
 102 009f 89442404 		movl	%eax, 4(%esp)	 # tmp238,
 103 00a3 C7042400 		movl	$0, (%esp)	 #,
 103      000000
 104 00aa E8000000 		call	_chHeapStatus	 #
 104      00
 105 00af A1500000 		movl	LPBX1+16, %eax	 # *LPBX1, PROF_edge_counter.4
 105      00
 106 00b4 8B155400 		movl	LPBX1+20, %edx	 # *LPBX1, PROF_edge_counter.4
 106      0000
 107 00ba 83C001   		addl	$1, %eax	 #, PROF_edge_counter.4
 108 00bd 83D200   		adcl	$0, %edx	 #, PROF_edge_counter.4
 109 00c0 A3500000 		movl	%eax, LPBX1+16	 # PROF_edge_counter.4, *LPBX1
 109      00
 110 00c5 89155400 		movl	%edx, LPBX1+20	 # PROF_edge_counter.4, *LPBX1
 110      0000
 111              		.loc 1 85 0
 112 00cb C7442404 		movl	$16, 4(%esp)	 #,
 112      10000000 
 113 00d3 C7042400 		movl	$0, (%esp)	 #,
 113      000000
 114 00da E8000000 		call	_chHeapAlloc	 #
 114      00
 115 00df 8944242C 		movl	%eax, 44(%esp)	 # tmp239, p1
 116 00e3 A1580000 		movl	LPBX1+24, %eax	 # *LPBX1, PROF_edge_counter.4
 116      00
 117 00e8 8B155C00 		movl	LPBX1+28, %edx	 # *LPBX1, PROF_edge_counter.4
 117      0000
 118 00ee 83C001   		addl	$1, %eax	 #, PROF_edge_counter.4
 119 00f1 83D200   		adcl	$0, %edx	 #, PROF_edge_counter.4
 120 00f4 A3580000 		movl	%eax, LPBX1+24	 # PROF_edge_counter.4, *LPBX1
 120      00
 121 00f9 89155C00 		movl	%edx, LPBX1+28	 # PROF_edge_counter.4, *LPBX1
 121      0000
 122              		.loc 1 86 0
 123 00ff 837C242C 		cmpl	$0, 44(%esp)	 #, p1
 123      00
 124 0104 0F95C0   		setne	%al	 #, tmp240
 125 0107 0FB6C0   		movzbl	%al, %eax	 # tmp240, D.2803
 126 010a 89442404 		movl	%eax, 4(%esp)	 # D.2803,
 127 010e C7042401 		movl	$1, (%esp)	 #,
 127      000000
 128 0115 E8000000 		call	__test_assert	 #
 128      00
 129 011a 84C0     		testb	%al, %al	 # D.2804
 130 011c 7421     		je	L3	 #,
 131              		.loc 1 86 0 is_stmt 0 discriminator 1
 132 011e A1680000 		movl	LPBX1+40, %eax	 # *LPBX1, PROF_edge_counter.4
 132      00
 133 0123 8B156C00 		movl	LPBX1+44, %edx	 # *LPBX1, PROF_edge_counter.4
GAS LISTING C:\cygwin\tmp\ccHd38PY.s 			page 4


 133      0000
 134 0129 83C001   		addl	$1, %eax	 #, PROF_edge_counter.4
 135 012c 83D200   		adcl	$0, %edx	 #, PROF_edge_counter.4
 136 012f A3680000 		movl	%eax, LPBX1+40	 # PROF_edge_counter.4, *LPBX1
 136      00
 137 0134 89156C00 		movl	%edx, LPBX1+44	 # PROF_edge_counter.4, *LPBX1
 137      0000
 138 013a E9A00B00 		jmp	L2	 #
 138      00
 139              	L3:
 140              		.loc 1 86 0
 141 013f A1600000 		movl	LPBX1+32, %eax	 # *LPBX1, PROF_edge_counter.4
 141      00
 142 0144 8B156400 		movl	LPBX1+36, %edx	 # *LPBX1, PROF_edge_counter.4
 142      0000
 143 014a 83C001   		addl	$1, %eax	 #, PROF_edge_counter.4
 144 014d 83D200   		adcl	$0, %edx	 #, PROF_edge_counter.4
 145 0150 A3600000 		movl	%eax, LPBX1+32	 # PROF_edge_counter.4, *LPBX1
 145      00
 146 0155 89156400 		movl	%edx, LPBX1+36	 # PROF_edge_counter.4, *LPBX1
 146      0000
 147              		.loc 1 87 0 is_stmt 1
 148 015b 8B44242C 		movl	44(%esp), %eax	 # p1, tmp241
 149 015f 890424   		movl	%eax, (%esp)	 # tmp241,
 150 0162 E8000000 		call	_chHeapFree	 #
 150      00
 151 0167 A1700000 		movl	LPBX1+48, %eax	 # *LPBX1, PROF_edge_counter.4
 151      00
 152 016c 8B157400 		movl	LPBX1+52, %edx	 # *LPBX1, PROF_edge_counter.4
 152      0000
 153 0172 83C001   		addl	$1, %eax	 #, PROF_edge_counter.4
 154 0175 83D200   		adcl	$0, %edx	 #, PROF_edge_counter.4
 155 0178 A3700000 		movl	%eax, LPBX1+48	 # PROF_edge_counter.4, *LPBX1
 155      00
 156 017d 89157400 		movl	%edx, LPBX1+52	 # PROF_edge_counter.4, *LPBX1
 156      0000
 157              		.loc 1 88 0
 158 0183 C7442404 		movl	$-256, 4(%esp)	 #,
 158      00FFFFFF 
 159 018b C7042400 		movl	$0, (%esp)	 #,
 159      000000
 160 0192 E8000000 		call	_chHeapAlloc	 #
 160      00
 161 0197 8944242C 		movl	%eax, 44(%esp)	 # tmp242, p1
 162 019b A1780000 		movl	LPBX1+56, %eax	 # *LPBX1, PROF_edge_counter.4
 162      00
 163 01a0 8B157C00 		movl	LPBX1+60, %edx	 # *LPBX1, PROF_edge_counter.4
 163      0000
 164 01a6 83C001   		addl	$1, %eax	 #, PROF_edge_counter.4
 165 01a9 83D200   		adcl	$0, %edx	 #, PROF_edge_counter.4
 166 01ac A3780000 		movl	%eax, LPBX1+56	 # PROF_edge_counter.4, *LPBX1
 166      00
 167 01b1 89157C00 		movl	%edx, LPBX1+60	 # PROF_edge_counter.4, *LPBX1
 167      0000
 168              		.loc 1 89 0
 169 01b7 837C242C 		cmpl	$0, 44(%esp)	 #, p1
 169      00
GAS LISTING C:\cygwin\tmp\ccHd38PY.s 			page 5


 170 01bc 0F94C0   		sete	%al	 #, tmp243
 171 01bf 0FB6C0   		movzbl	%al, %eax	 # tmp243, D.2807
 172 01c2 89442404 		movl	%eax, 4(%esp)	 # D.2807,
 173 01c6 C7042402 		movl	$2, (%esp)	 #,
 173      000000
 174 01cd E8000000 		call	__test_assert	 #
 174      00
 175 01d2 84C0     		testb	%al, %al	 # D.2808
 176 01d4 7421     		je	L5	 #,
 177              		.loc 1 89 0 is_stmt 0 discriminator 1
 178 01d6 A1880000 		movl	LPBX1+72, %eax	 # *LPBX1, PROF_edge_counter.4
 178      00
 179 01db 8B158C00 		movl	LPBX1+76, %edx	 # *LPBX1, PROF_edge_counter.4
 179      0000
 180 01e1 83C001   		addl	$1, %eax	 #, PROF_edge_counter.4
 181 01e4 83D200   		adcl	$0, %edx	 #, PROF_edge_counter.4
 182 01e7 A3880000 		movl	%eax, LPBX1+72	 # PROF_edge_counter.4, *LPBX1
 182      00
 183 01ec 89158C00 		movl	%edx, LPBX1+76	 # PROF_edge_counter.4, *LPBX1
 183      0000
 184 01f2 E9E80A00 		jmp	L2	 #
 184      00
 185              	L5:
 186              		.loc 1 89 0
 187 01f7 A1800000 		movl	LPBX1+64, %eax	 # *LPBX1, PROF_edge_counter.4
 187      00
 188 01fc 8B158400 		movl	LPBX1+68, %edx	 # *LPBX1, PROF_edge_counter.4
 188      0000
 189 0202 83C001   		addl	$1, %eax	 #, PROF_edge_counter.4
 190 0205 83D200   		adcl	$0, %edx	 #, PROF_edge_counter.4
 191 0208 A3800000 		movl	%eax, LPBX1+64	 # PROF_edge_counter.4, *LPBX1
 191      00
 192 020d 89158400 		movl	%edx, LPBX1+68	 # PROF_edge_counter.4, *LPBX1
 192      0000
 193              		.loc 1 92 0 is_stmt 1
 194 0213 8D44241C 		leal	28(%esp), %eax	 #, tmp244
 195 0217 89442404 		movl	%eax, 4(%esp)	 # tmp244,
 196 021b C7042400 		movl	$_test_heap, (%esp)	 #,
 196      000000
 197 0222 E8000000 		call	_chHeapStatus	 #
 197      00
 198 0227 A1900000 		movl	LPBX1+80, %eax	 # *LPBX1, PROF_edge_counter.4
 198      00
 199 022c 8B159400 		movl	LPBX1+84, %edx	 # *LPBX1, PROF_edge_counter.4
 199      0000
 200 0232 83C001   		addl	$1, %eax	 #, PROF_edge_counter.4
 201 0235 83D200   		adcl	$0, %edx	 #, PROF_edge_counter.4
 202 0238 A3900000 		movl	%eax, LPBX1+80	 # PROF_edge_counter.4, *LPBX1
 202      00
 203 023d 89159400 		movl	%edx, LPBX1+84	 # PROF_edge_counter.4, *LPBX1
 203      0000
 204              		.loc 1 95 0
 205 0243 C7442404 		movl	$16, 4(%esp)	 #,
 205      10000000 
 206 024b C7042400 		movl	$_test_heap, (%esp)	 #,
 206      000000
 207 0252 E8000000 		call	_chHeapAlloc	 #
GAS LISTING C:\cygwin\tmp\ccHd38PY.s 			page 6


 207      00
 208 0257 8944242C 		movl	%eax, 44(%esp)	 # tmp245, p1
 209 025b A1980000 		movl	LPBX1+88, %eax	 # *LPBX1, PROF_edge_counter.4
 209      00
 210 0260 8B159C00 		movl	LPBX1+92, %edx	 # *LPBX1, PROF_edge_counter.4
 210      0000
 211 0266 83C001   		addl	$1, %eax	 #, PROF_edge_counter.4
 212 0269 83D200   		adcl	$0, %edx	 #, PROF_edge_counter.4
 213 026c A3980000 		movl	%eax, LPBX1+88	 # PROF_edge_counter.4, *LPBX1
 213      00
 214 0271 89159C00 		movl	%edx, LPBX1+92	 # PROF_edge_counter.4, *LPBX1
 214      0000
 215              		.loc 1 96 0
 216 0277 C7442404 		movl	$16, 4(%esp)	 #,
 216      10000000 
 217 027f C7042400 		movl	$_test_heap, (%esp)	 #,
 217      000000
 218 0286 E8000000 		call	_chHeapAlloc	 #
 218      00
 219 028b 89442428 		movl	%eax, 40(%esp)	 # tmp246, p2
 220 028f A1A00000 		movl	LPBX1+96, %eax	 # *LPBX1, PROF_edge_counter.4
 220      00
 221 0294 8B15A400 		movl	LPBX1+100, %edx	 # *LPBX1, PROF_edge_counter.4
 221      0000
 222 029a 83C001   		addl	$1, %eax	 #, PROF_edge_counter.4
 223 029d 83D200   		adcl	$0, %edx	 #, PROF_edge_counter.4
 224 02a0 A3A00000 		movl	%eax, LPBX1+96	 # PROF_edge_counter.4, *LPBX1
 224      00
 225 02a5 8915A400 		movl	%edx, LPBX1+100	 # PROF_edge_counter.4, *LPBX1
 225      0000
 226              		.loc 1 97 0
 227 02ab C7442404 		movl	$16, 4(%esp)	 #,
 227      10000000 
 228 02b3 C7042400 		movl	$_test_heap, (%esp)	 #,
 228      000000
 229 02ba E8000000 		call	_chHeapAlloc	 #
 229      00
 230 02bf 89442424 		movl	%eax, 36(%esp)	 # tmp247, p3
 231 02c3 A1A80000 		movl	LPBX1+104, %eax	 # *LPBX1, PROF_edge_counter.4
 231      00
 232 02c8 8B15AC00 		movl	LPBX1+108, %edx	 # *LPBX1, PROF_edge_counter.4
 232      0000
 233 02ce 83C001   		addl	$1, %eax	 #, PROF_edge_counter.4
 234 02d1 83D200   		adcl	$0, %edx	 #, PROF_edge_counter.4
 235 02d4 A3A80000 		movl	%eax, LPBX1+104	 # PROF_edge_counter.4, *LPBX1
 235      00
 236 02d9 8915AC00 		movl	%edx, LPBX1+108	 # PROF_edge_counter.4, *LPBX1
 236      0000
 237              		.loc 1 98 0
 238 02df 8B44242C 		movl	44(%esp), %eax	 # p1, tmp248
 239 02e3 890424   		movl	%eax, (%esp)	 # tmp248,
 240 02e6 E8000000 		call	_chHeapFree	 #
 240      00
 241 02eb A1B00000 		movl	LPBX1+112, %eax	 # *LPBX1, PROF_edge_counter.4
 241      00
 242 02f0 8B15B400 		movl	LPBX1+116, %edx	 # *LPBX1, PROF_edge_counter.4
 242      0000
GAS LISTING C:\cygwin\tmp\ccHd38PY.s 			page 7


 243 02f6 83C001   		addl	$1, %eax	 #, PROF_edge_counter.4
 244 02f9 83D200   		adcl	$0, %edx	 #, PROF_edge_counter.4
 245 02fc A3B00000 		movl	%eax, LPBX1+112	 # PROF_edge_counter.4, *LPBX1
 245      00
 246 0301 8915B400 		movl	%edx, LPBX1+116	 # PROF_edge_counter.4, *LPBX1
 246      0000
 247              		.loc 1 99 0
 248 0307 8B442428 		movl	40(%esp), %eax	 # p2, tmp249
 249 030b 890424   		movl	%eax, (%esp)	 # tmp249,
 250 030e E8000000 		call	_chHeapFree	 #
 250      00
 251 0313 A1B80000 		movl	LPBX1+120, %eax	 # *LPBX1, PROF_edge_counter.4
 251      00
 252 0318 8B15BC00 		movl	LPBX1+124, %edx	 # *LPBX1, PROF_edge_counter.4
 252      0000
 253 031e 83C001   		addl	$1, %eax	 #, PROF_edge_counter.4
 254 0321 83D200   		adcl	$0, %edx	 #, PROF_edge_counter.4
 255 0324 A3B80000 		movl	%eax, LPBX1+120	 # PROF_edge_counter.4, *LPBX1
 255      00
 256 0329 8915BC00 		movl	%edx, LPBX1+124	 # PROF_edge_counter.4, *LPBX1
 256      0000
 257              		.loc 1 100 0
 258 032f 8B442424 		movl	36(%esp), %eax	 # p3, tmp250
 259 0333 890424   		movl	%eax, (%esp)	 # tmp250,
 260 0336 E8000000 		call	_chHeapFree	 #
 260      00
 261 033b A1C00000 		movl	LPBX1+128, %eax	 # *LPBX1, PROF_edge_counter.4
 261      00
 262 0340 8B15C400 		movl	LPBX1+132, %edx	 # *LPBX1, PROF_edge_counter.4
 262      0000
 263 0346 83C001   		addl	$1, %eax	 #, PROF_edge_counter.4
 264 0349 83D200   		adcl	$0, %edx	 #, PROF_edge_counter.4
 265 034c A3C00000 		movl	%eax, LPBX1+128	 # PROF_edge_counter.4, *LPBX1
 265      00
 266 0351 8915C400 		movl	%edx, LPBX1+132	 # PROF_edge_counter.4, *LPBX1
 266      0000
 267              		.loc 1 101 0
 268 0357 8D442420 		leal	32(%esp), %eax	 #, tmp251
 269 035b 89442404 		movl	%eax, 4(%esp)	 # tmp251,
 270 035f C7042400 		movl	$_test_heap, (%esp)	 #,
 270      000000
 271 0366 E8000000 		call	_chHeapStatus	 #
 271      00
 272 036b 89C1     		movl	%eax, %ecx	 #, D.2811
 273 036d A1C80000 		movl	LPBX1+136, %eax	 # *LPBX1, PROF_edge_counter.4
 273      00
 274 0372 8B15CC00 		movl	LPBX1+140, %edx	 # *LPBX1, PROF_edge_counter.4
 274      0000
 275 0378 83C001   		addl	$1, %eax	 #, PROF_edge_counter.4
 276 037b 83D200   		adcl	$0, %edx	 #, PROF_edge_counter.4
 277 037e A3C80000 		movl	%eax, LPBX1+136	 # PROF_edge_counter.4, *LPBX1
 277      00
 278 0383 8915CC00 		movl	%edx, LPBX1+140	 # PROF_edge_counter.4, *LPBX1
 278      0000
 279 0389 83F901   		cmpl	$1, %ecx	 #, D.2811
 280 038c 0F94C0   		sete	%al	 #, tmp252
 281 038f 0FB6C0   		movzbl	%al, %eax	 # tmp252, D.2812
GAS LISTING C:\cygwin\tmp\ccHd38PY.s 			page 8


 282 0392 89442404 		movl	%eax, 4(%esp)	 # D.2812,
 283 0396 C7042403 		movl	$3, (%esp)	 #,
 283      000000
 284 039d E8000000 		call	__test_assert	 #
 284      00
 285 03a2 84C0     		testb	%al, %al	 # D.2813
 286 03a4 7421     		je	L6	 #,
 287              		.loc 1 101 0 is_stmt 0 discriminator 1
 288 03a6 A1D80000 		movl	LPBX1+152, %eax	 # *LPBX1, PROF_edge_counter.4
 288      00
 289 03ab 8B15DC00 		movl	LPBX1+156, %edx	 # *LPBX1, PROF_edge_counter.4
 289      0000
 290 03b1 83C001   		addl	$1, %eax	 #, PROF_edge_counter.4
 291 03b4 83D200   		adcl	$0, %edx	 #, PROF_edge_counter.4
 292 03b7 A3D80000 		movl	%eax, LPBX1+152	 # PROF_edge_counter.4, *LPBX1
 292      00
 293 03bc 8915DC00 		movl	%edx, LPBX1+156	 # PROF_edge_counter.4, *LPBX1
 293      0000
 294 03c2 E9180900 		jmp	L2	 #
 294      00
 295              	L6:
 296              		.loc 1 101 0
 297 03c7 A1D00000 		movl	LPBX1+144, %eax	 # *LPBX1, PROF_edge_counter.4
 297      00
 298 03cc 8B15D400 		movl	LPBX1+148, %edx	 # *LPBX1, PROF_edge_counter.4
 298      0000
 299 03d2 83C001   		addl	$1, %eax	 #, PROF_edge_counter.4
 300 03d5 83D200   		adcl	$0, %edx	 #, PROF_edge_counter.4
 301 03d8 A3D00000 		movl	%eax, LPBX1+144	 # PROF_edge_counter.4, *LPBX1
 301      00
 302 03dd 8915D400 		movl	%edx, LPBX1+148	 # PROF_edge_counter.4, *LPBX1
 302      0000
 303              		.loc 1 104 0 is_stmt 1
 304 03e3 C7442404 		movl	$16, 4(%esp)	 #,
 304      10000000 
 305 03eb C7042400 		movl	$_test_heap, (%esp)	 #,
 305      000000
 306 03f2 E8000000 		call	_chHeapAlloc	 #
 306      00
 307 03f7 8944242C 		movl	%eax, 44(%esp)	 # tmp253, p1
 308 03fb A1E00000 		movl	LPBX1+160, %eax	 # *LPBX1, PROF_edge_counter.4
 308      00
 309 0400 8B15E400 		movl	LPBX1+164, %edx	 # *LPBX1, PROF_edge_counter.4
 309      0000
 310 0406 83C001   		addl	$1, %eax	 #, PROF_edge_counter.4
 311 0409 83D200   		adcl	$0, %edx	 #, PROF_edge_counter.4
 312 040c A3E00000 		movl	%eax, LPBX1+160	 # PROF_edge_counter.4, *LPBX1
 312      00
 313 0411 8915E400 		movl	%edx, LPBX1+164	 # PROF_edge_counter.4, *LPBX1
 313      0000
 314              		.loc 1 105 0
 315 0417 C7442404 		movl	$16, 4(%esp)	 #,
 315      10000000 
 316 041f C7042400 		movl	$_test_heap, (%esp)	 #,
 316      000000
 317 0426 E8000000 		call	_chHeapAlloc	 #
 317      00
GAS LISTING C:\cygwin\tmp\ccHd38PY.s 			page 9


 318 042b 89442428 		movl	%eax, 40(%esp)	 # tmp254, p2
 319 042f A1E80000 		movl	LPBX1+168, %eax	 # *LPBX1, PROF_edge_counter.4
 319      00
 320 0434 8B15EC00 		movl	LPBX1+172, %edx	 # *LPBX1, PROF_edge_counter.4
 320      0000
 321 043a 83C001   		addl	$1, %eax	 #, PROF_edge_counter.4
 322 043d 83D200   		adcl	$0, %edx	 #, PROF_edge_counter.4
 323 0440 A3E80000 		movl	%eax, LPBX1+168	 # PROF_edge_counter.4, *LPBX1
 323      00
 324 0445 8915EC00 		movl	%edx, LPBX1+172	 # PROF_edge_counter.4, *LPBX1
 324      0000
 325              		.loc 1 106 0
 326 044b C7442404 		movl	$16, 4(%esp)	 #,
 326      10000000 
 327 0453 C7042400 		movl	$_test_heap, (%esp)	 #,
 327      000000
 328 045a E8000000 		call	_chHeapAlloc	 #
 328      00
 329 045f 89442424 		movl	%eax, 36(%esp)	 # tmp255, p3
 330 0463 A1F00000 		movl	LPBX1+176, %eax	 # *LPBX1, PROF_edge_counter.4
 330      00
 331 0468 8B15F400 		movl	LPBX1+180, %edx	 # *LPBX1, PROF_edge_counter.4
 331      0000
 332 046e 83C001   		addl	$1, %eax	 #, PROF_edge_counter.4
 333 0471 83D200   		adcl	$0, %edx	 #, PROF_edge_counter.4
 334 0474 A3F00000 		movl	%eax, LPBX1+176	 # PROF_edge_counter.4, *LPBX1
 334      00
 335 0479 8915F400 		movl	%edx, LPBX1+180	 # PROF_edge_counter.4, *LPBX1
 335      0000
 336              		.loc 1 107 0
 337 047f 8B442424 		movl	36(%esp), %eax	 # p3, tmp256
 338 0483 890424   		movl	%eax, (%esp)	 # tmp256,
 339 0486 E8000000 		call	_chHeapFree	 #
 339      00
 340 048b A1F80000 		movl	LPBX1+184, %eax	 # *LPBX1, PROF_edge_counter.4
 340      00
 341 0490 8B15FC00 		movl	LPBX1+188, %edx	 # *LPBX1, PROF_edge_counter.4
 341      0000
 342 0496 83C001   		addl	$1, %eax	 #, PROF_edge_counter.4
 343 0499 83D200   		adcl	$0, %edx	 #, PROF_edge_counter.4
 344 049c A3F80000 		movl	%eax, LPBX1+184	 # PROF_edge_counter.4, *LPBX1
 344      00
 345 04a1 8915FC00 		movl	%edx, LPBX1+188	 # PROF_edge_counter.4, *LPBX1
 345      0000
 346              		.loc 1 108 0
 347 04a7 8B442428 		movl	40(%esp), %eax	 # p2, tmp257
 348 04ab 890424   		movl	%eax, (%esp)	 # tmp257,
 349 04ae E8000000 		call	_chHeapFree	 #
 349      00
 350 04b3 A1000100 		movl	LPBX1+192, %eax	 # *LPBX1, PROF_edge_counter.4
 350      00
 351 04b8 8B150401 		movl	LPBX1+196, %edx	 # *LPBX1, PROF_edge_counter.4
 351      0000
 352 04be 83C001   		addl	$1, %eax	 #, PROF_edge_counter.4
 353 04c1 83D200   		adcl	$0, %edx	 #, PROF_edge_counter.4
 354 04c4 A3000100 		movl	%eax, LPBX1+192	 # PROF_edge_counter.4, *LPBX1
 354      00
GAS LISTING C:\cygwin\tmp\ccHd38PY.s 			page 10


 355 04c9 89150401 		movl	%edx, LPBX1+196	 # PROF_edge_counter.4, *LPBX1
 355      0000
 356              		.loc 1 109 0
 357 04cf 8B44242C 		movl	44(%esp), %eax	 # p1, tmp258
 358 04d3 890424   		movl	%eax, (%esp)	 # tmp258,
 359 04d6 E8000000 		call	_chHeapFree	 #
 359      00
 360 04db A1080100 		movl	LPBX1+200, %eax	 # *LPBX1, PROF_edge_counter.4
 360      00
 361 04e0 8B150C01 		movl	LPBX1+204, %edx	 # *LPBX1, PROF_edge_counter.4
 361      0000
 362 04e6 83C001   		addl	$1, %eax	 #, PROF_edge_counter.4
 363 04e9 83D200   		adcl	$0, %edx	 #, PROF_edge_counter.4
 364 04ec A3080100 		movl	%eax, LPBX1+200	 # PROF_edge_counter.4, *LPBX1
 364      00
 365 04f1 89150C01 		movl	%edx, LPBX1+204	 # PROF_edge_counter.4, *LPBX1
 365      0000
 366              		.loc 1 110 0
 367 04f7 8D442420 		leal	32(%esp), %eax	 #, tmp259
 368 04fb 89442404 		movl	%eax, 4(%esp)	 # tmp259,
 369 04ff C7042400 		movl	$_test_heap, (%esp)	 #,
 369      000000
 370 0506 E8000000 		call	_chHeapStatus	 #
 370      00
 371 050b 89C1     		movl	%eax, %ecx	 #, D.2816
 372 050d A1100100 		movl	LPBX1+208, %eax	 # *LPBX1, PROF_edge_counter.4
 372      00
 373 0512 8B151401 		movl	LPBX1+212, %edx	 # *LPBX1, PROF_edge_counter.4
 373      0000
 374 0518 83C001   		addl	$1, %eax	 #, PROF_edge_counter.4
 375 051b 83D200   		adcl	$0, %edx	 #, PROF_edge_counter.4
 376 051e A3100100 		movl	%eax, LPBX1+208	 # PROF_edge_counter.4, *LPBX1
 376      00
 377 0523 89151401 		movl	%edx, LPBX1+212	 # PROF_edge_counter.4, *LPBX1
 377      0000
 378 0529 83F901   		cmpl	$1, %ecx	 #, D.2816
 379 052c 0F94C0   		sete	%al	 #, tmp260
 380 052f 0FB6C0   		movzbl	%al, %eax	 # tmp260, D.2817
 381 0532 89442404 		movl	%eax, 4(%esp)	 # D.2817,
 382 0536 C7042404 		movl	$4, (%esp)	 #,
 382      000000
 383 053d E8000000 		call	__test_assert	 #
 383      00
 384 0542 84C0     		testb	%al, %al	 # D.2818
 385 0544 7421     		je	L7	 #,
 386              		.loc 1 110 0 is_stmt 0 discriminator 1
 387 0546 A1200100 		movl	LPBX1+224, %eax	 # *LPBX1, PROF_edge_counter.4
 387      00
 388 054b 8B152401 		movl	LPBX1+228, %edx	 # *LPBX1, PROF_edge_counter.4
 388      0000
 389 0551 83C001   		addl	$1, %eax	 #, PROF_edge_counter.4
 390 0554 83D200   		adcl	$0, %edx	 #, PROF_edge_counter.4
 391 0557 A3200100 		movl	%eax, LPBX1+224	 # PROF_edge_counter.4, *LPBX1
 391      00
 392 055c 89152401 		movl	%edx, LPBX1+228	 # PROF_edge_counter.4, *LPBX1
 392      0000
 393 0562 E9780700 		jmp	L2	 #
GAS LISTING C:\cygwin\tmp\ccHd38PY.s 			page 11


 393      00
 394              	L7:
 395              		.loc 1 110 0
 396 0567 A1180100 		movl	LPBX1+216, %eax	 # *LPBX1, PROF_edge_counter.4
 396      00
 397 056c 8B151C01 		movl	LPBX1+220, %edx	 # *LPBX1, PROF_edge_counter.4
 397      0000
 398 0572 83C001   		addl	$1, %eax	 #, PROF_edge_counter.4
 399 0575 83D200   		adcl	$0, %edx	 #, PROF_edge_counter.4
 400 0578 A3180100 		movl	%eax, LPBX1+216	 # PROF_edge_counter.4, *LPBX1
 400      00
 401 057d 89151C01 		movl	%edx, LPBX1+220	 # PROF_edge_counter.4, *LPBX1
 401      0000
 402              		.loc 1 113 0 is_stmt 1
 403 0583 C7442404 		movl	$17, 4(%esp)	 #,
 403      11000000 
 404 058b C7042400 		movl	$_test_heap, (%esp)	 #,
 404      000000
 405 0592 E8000000 		call	_chHeapAlloc	 #
 405      00
 406 0597 8944242C 		movl	%eax, 44(%esp)	 # tmp261, p1
 407 059b A1280100 		movl	LPBX1+232, %eax	 # *LPBX1, PROF_edge_counter.4
 407      00
 408 05a0 8B152C01 		movl	LPBX1+236, %edx	 # *LPBX1, PROF_edge_counter.4
 408      0000
 409 05a6 83C001   		addl	$1, %eax	 #, PROF_edge_counter.4
 410 05a9 83D200   		adcl	$0, %edx	 #, PROF_edge_counter.4
 411 05ac A3280100 		movl	%eax, LPBX1+232	 # PROF_edge_counter.4, *LPBX1
 411      00
 412 05b1 89152C01 		movl	%edx, LPBX1+236	 # PROF_edge_counter.4, *LPBX1
 412      0000
 413              		.loc 1 114 0
 414 05b7 C7442404 		movl	$16, 4(%esp)	 #,
 414      10000000 
 415 05bf C7042400 		movl	$_test_heap, (%esp)	 #,
 415      000000
 416 05c6 E8000000 		call	_chHeapAlloc	 #
 416      00
 417 05cb 89442428 		movl	%eax, 40(%esp)	 # tmp262, p2
 418 05cf A1300100 		movl	LPBX1+240, %eax	 # *LPBX1, PROF_edge_counter.4
 418      00
 419 05d4 8B153401 		movl	LPBX1+244, %edx	 # *LPBX1, PROF_edge_counter.4
 419      0000
 420 05da 83C001   		addl	$1, %eax	 #, PROF_edge_counter.4
 421 05dd 83D200   		adcl	$0, %edx	 #, PROF_edge_counter.4
 422 05e0 A3300100 		movl	%eax, LPBX1+240	 # PROF_edge_counter.4, *LPBX1
 422      00
 423 05e5 89153401 		movl	%edx, LPBX1+244	 # PROF_edge_counter.4, *LPBX1
 423      0000
 424              		.loc 1 115 0
 425 05eb 8B44242C 		movl	44(%esp), %eax	 # p1, tmp263
 426 05ef 890424   		movl	%eax, (%esp)	 # tmp263,
 427 05f2 E8000000 		call	_chHeapFree	 #
 427      00
 428 05f7 A1380100 		movl	LPBX1+248, %eax	 # *LPBX1, PROF_edge_counter.4
 428      00
 429 05fc 8B153C01 		movl	LPBX1+252, %edx	 # *LPBX1, PROF_edge_counter.4
GAS LISTING C:\cygwin\tmp\ccHd38PY.s 			page 12


 429      0000
 430 0602 83C001   		addl	$1, %eax	 #, PROF_edge_counter.4
 431 0605 83D200   		adcl	$0, %edx	 #, PROF_edge_counter.4
 432 0608 A3380100 		movl	%eax, LPBX1+248	 # PROF_edge_counter.4, *LPBX1
 432      00
 433 060d 89153C01 		movl	%edx, LPBX1+252	 # PROF_edge_counter.4, *LPBX1
 433      0000
 434              		.loc 1 116 0
 435 0613 8D442420 		leal	32(%esp), %eax	 #, tmp264
 436 0617 89442404 		movl	%eax, 4(%esp)	 # tmp264,
 437 061b C7042400 		movl	$_test_heap, (%esp)	 #,
 437      000000
 438 0622 E8000000 		call	_chHeapStatus	 #
 438      00
 439 0627 89C1     		movl	%eax, %ecx	 #, D.2821
 440 0629 A1400100 		movl	LPBX1+256, %eax	 # *LPBX1, PROF_edge_counter.4
 440      00
 441 062e 8B154401 		movl	LPBX1+260, %edx	 # *LPBX1, PROF_edge_counter.4
 441      0000
 442 0634 83C001   		addl	$1, %eax	 #, PROF_edge_counter.4
 443 0637 83D200   		adcl	$0, %edx	 #, PROF_edge_counter.4
 444 063a A3400100 		movl	%eax, LPBX1+256	 # PROF_edge_counter.4, *LPBX1
 444      00
 445 063f 89154401 		movl	%edx, LPBX1+260	 # PROF_edge_counter.4, *LPBX1
 445      0000
 446 0645 83F902   		cmpl	$2, %ecx	 #, D.2821
 447 0648 0F94C0   		sete	%al	 #, tmp265
 448 064b 0FB6C0   		movzbl	%al, %eax	 # tmp265, D.2822
 449 064e 89442404 		movl	%eax, 4(%esp)	 # D.2822,
 450 0652 C7042405 		movl	$5, (%esp)	 #,
 450      000000
 451 0659 E8000000 		call	__test_assert	 #
 451      00
 452 065e 84C0     		testb	%al, %al	 # D.2823
 453 0660 7421     		je	L8	 #,
 454              		.loc 1 116 0 is_stmt 0 discriminator 1
 455 0662 A1500100 		movl	LPBX1+272, %eax	 # *LPBX1, PROF_edge_counter.4
 455      00
 456 0667 8B155401 		movl	LPBX1+276, %edx	 # *LPBX1, PROF_edge_counter.4
 456      0000
 457 066d 83C001   		addl	$1, %eax	 #, PROF_edge_counter.4
 458 0670 83D200   		adcl	$0, %edx	 #, PROF_edge_counter.4
 459 0673 A3500100 		movl	%eax, LPBX1+272	 # PROF_edge_counter.4, *LPBX1
 459      00
 460 0678 89155401 		movl	%edx, LPBX1+276	 # PROF_edge_counter.4, *LPBX1
 460      0000
 461 067e E95C0600 		jmp	L2	 #
 461      00
 462              	L8:
 463              		.loc 1 116 0
 464 0683 A1480100 		movl	LPBX1+264, %eax	 # *LPBX1, PROF_edge_counter.4
 464      00
 465 0688 8B154C01 		movl	LPBX1+268, %edx	 # *LPBX1, PROF_edge_counter.4
 465      0000
 466 068e 83C001   		addl	$1, %eax	 #, PROF_edge_counter.4
 467 0691 83D200   		adcl	$0, %edx	 #, PROF_edge_counter.4
 468 0694 A3480100 		movl	%eax, LPBX1+264	 # PROF_edge_counter.4, *LPBX1
GAS LISTING C:\cygwin\tmp\ccHd38PY.s 			page 13


 468      00
 469 0699 89154C01 		movl	%edx, LPBX1+268	 # PROF_edge_counter.4, *LPBX1
 469      0000
 470              		.loc 1 117 0 is_stmt 1
 471 069f C7442404 		movl	$16, 4(%esp)	 #,
 471      10000000 
 472 06a7 C7042400 		movl	$_test_heap, (%esp)	 #,
 472      000000
 473 06ae E8000000 		call	_chHeapAlloc	 #
 473      00
 474 06b3 8944242C 		movl	%eax, 44(%esp)	 # tmp266, p1
 475 06b7 A1580100 		movl	LPBX1+280, %eax	 # *LPBX1, PROF_edge_counter.4
 475      00
 476 06bc 8B155C01 		movl	LPBX1+284, %edx	 # *LPBX1, PROF_edge_counter.4
 476      0000
 477 06c2 83C001   		addl	$1, %eax	 #, PROF_edge_counter.4
 478 06c5 83D200   		adcl	$0, %edx	 #, PROF_edge_counter.4
 479 06c8 A3580100 		movl	%eax, LPBX1+280	 # PROF_edge_counter.4, *LPBX1
 479      00
 480 06cd 89155C01 		movl	%edx, LPBX1+284	 # PROF_edge_counter.4, *LPBX1
 480      0000
 481              		.loc 1 120 0
 482 06d3 8D442420 		leal	32(%esp), %eax	 #, tmp267
 483 06d7 89442404 		movl	%eax, 4(%esp)	 # tmp267,
 484 06db C7042400 		movl	$_test_heap, (%esp)	 #,
 484      000000
 485 06e2 E8000000 		call	_chHeapStatus	 #
 485      00
 486 06e7 83F801   		cmpl	$1, %eax	 #, D.2830
 487 06ea 7453     		je	L9	 #,
 488              		.loc 1 120 0 is_stmt 0 discriminator 2
 489 06ec A1600100 		movl	LPBX1+288, %eax	 # *LPBX1, PROF_edge_counter.4
 489      00
 490 06f1 8B156401 		movl	LPBX1+292, %edx	 # *LPBX1, PROF_edge_counter.4
 490      0000
 491 06f7 83C001   		addl	$1, %eax	 #, PROF_edge_counter.4
 492 06fa 83D200   		adcl	$0, %edx	 #, PROF_edge_counter.4
 493 06fd A3600100 		movl	%eax, LPBX1+288	 # PROF_edge_counter.4, *LPBX1
 493      00
 494 0702 89156401 		movl	%edx, LPBX1+292	 # PROF_edge_counter.4, *LPBX1
 494      0000
 495 0708 8D442420 		leal	32(%esp), %eax	 #, tmp268
 496 070c 89442404 		movl	%eax, 4(%esp)	 # tmp268,
 497 0710 C7042400 		movl	$_test_heap, (%esp)	 #,
 497      000000
 498 0717 E8000000 		call	_chHeapStatus	 #
 498      00
 499 071c 89C1     		movl	%eax, %ecx	 #, D.2832
 500 071e A1680100 		movl	LPBX1+296, %eax	 # *LPBX1, PROF_edge_counter.4
 500      00
 501 0723 8B156C01 		movl	LPBX1+300, %edx	 # *LPBX1, PROF_edge_counter.4
 501      0000
 502 0729 83C001   		addl	$1, %eax	 #, PROF_edge_counter.4
 503 072c 83D200   		adcl	$0, %edx	 #, PROF_edge_counter.4
 504 072f A3680100 		movl	%eax, LPBX1+296	 # PROF_edge_counter.4, *LPBX1
 504      00
 505 0734 89156C01 		movl	%edx, LPBX1+300	 # PROF_edge_counter.4, *LPBX1
GAS LISTING C:\cygwin\tmp\ccHd38PY.s 			page 14


 505      0000
 506 073a 83F902   		cmpl	$2, %ecx	 #, D.2832
 507 073d 7523     		jne	L10	 #,
 508              	L9:
 509              		.loc 1 120 0 discriminator 1
 510 073f B9010000 		movl	$1, %ecx	 #, iftmp.0
 510      00
 511 0744 A1700100 		movl	LPBX1+304, %eax	 # *LPBX1, PROF_edge_counter.4
 511      00
 512 0749 8B157401 		movl	LPBX1+308, %edx	 # *LPBX1, PROF_edge_counter.4
 512      0000
 513 074f 83C001   		addl	$1, %eax	 #, PROF_edge_counter.4
 514 0752 83D200   		adcl	$0, %edx	 #, PROF_edge_counter.4
 515 0755 A3700100 		movl	%eax, LPBX1+304	 # PROF_edge_counter.4, *LPBX1
 515      00
 516 075a 89157401 		movl	%edx, LPBX1+308	 # PROF_edge_counter.4, *LPBX1
 516      0000
 517 0760 EB21     		jmp	L11	 #
 518              	L10:
 519              		.loc 1 120 0 discriminator 3
 520 0762 B9000000 		movl	$0, %ecx	 #, iftmp.0
 520      00
 521 0767 A1780100 		movl	LPBX1+312, %eax	 # *LPBX1, PROF_edge_counter.4
 521      00
 522 076c 8B157C01 		movl	LPBX1+316, %edx	 # *LPBX1, PROF_edge_counter.4
 522      0000
 523 0772 83C001   		addl	$1, %eax	 #, PROF_edge_counter.4
 524 0775 83D200   		adcl	$0, %edx	 #, PROF_edge_counter.4
 525 0778 A3780100 		movl	%eax, LPBX1+312	 # PROF_edge_counter.4, *LPBX1
 525      00
 526 077d 89157C01 		movl	%edx, LPBX1+316	 # PROF_edge_counter.4, *LPBX1
 526      0000
 527              	L11:
 528              		.loc 1 120 0 discriminator 4
 529 0783 88C8     		movb	%cl, %al	 # iftmp.0, D.2833
 530 0785 0FB6C0   		movzbl	%al, %eax	 # D.2833, D.2834
 531 0788 89442404 		movl	%eax, 4(%esp)	 # D.2834,
 532 078c C7042406 		movl	$6, (%esp)	 #,
 532      000000
 533 0793 E8000000 		call	__test_assert	 #
 533      00
 534 0798 84C0     		testb	%al, %al	 # D.2835
 535 079a 7421     		je	L12	 #,
 536              		.loc 1 120 0 discriminator 5
 537 079c A1880100 		movl	LPBX1+328, %eax	 # *LPBX1, PROF_edge_counter.4
 537      00
 538 07a1 8B158C01 		movl	LPBX1+332, %edx	 # *LPBX1, PROF_edge_counter.4
 538      0000
 539 07a7 83C001   		addl	$1, %eax	 #, PROF_edge_counter.4
 540 07aa 83D200   		adcl	$0, %edx	 #, PROF_edge_counter.4
 541 07ad A3880100 		movl	%eax, LPBX1+328	 # PROF_edge_counter.4, *LPBX1
 541      00
 542 07b2 89158C01 		movl	%edx, LPBX1+332	 # PROF_edge_counter.4, *LPBX1
 542      0000
 543 07b8 E9220500 		jmp	L2	 #
 543      00
 544              	L12:
GAS LISTING C:\cygwin\tmp\ccHd38PY.s 			page 15


 545              		.loc 1 120 0
 546 07bd A1800100 		movl	LPBX1+320, %eax	 # *LPBX1, PROF_edge_counter.4
 546      00
 547 07c2 8B158401 		movl	LPBX1+324, %edx	 # *LPBX1, PROF_edge_counter.4
 547      0000
 548 07c8 83C001   		addl	$1, %eax	 #, PROF_edge_counter.4
 549 07cb 83D200   		adcl	$0, %edx	 #, PROF_edge_counter.4
 550 07ce A3800100 		movl	%eax, LPBX1+320	 # PROF_edge_counter.4, *LPBX1
 550      00
 551 07d3 89158401 		movl	%edx, LPBX1+324	 # PROF_edge_counter.4, *LPBX1
 551      0000
 552              		.loc 1 122 0 is_stmt 1
 553 07d9 8B442428 		movl	40(%esp), %eax	 # p2, tmp269
 554 07dd 890424   		movl	%eax, (%esp)	 # tmp269,
 555 07e0 E8000000 		call	_chHeapFree	 #
 555      00
 556 07e5 A1900100 		movl	LPBX1+336, %eax	 # *LPBX1, PROF_edge_counter.4
 556      00
 557 07ea 8B159401 		movl	LPBX1+340, %edx	 # *LPBX1, PROF_edge_counter.4
 557      0000
 558 07f0 83C001   		addl	$1, %eax	 #, PROF_edge_counter.4
 559 07f3 83D200   		adcl	$0, %edx	 #, PROF_edge_counter.4
 560 07f6 A3900100 		movl	%eax, LPBX1+336	 # PROF_edge_counter.4, *LPBX1
 560      00
 561 07fb 89159401 		movl	%edx, LPBX1+340	 # PROF_edge_counter.4, *LPBX1
 561      0000
 562              		.loc 1 123 0
 563 0801 8B44242C 		movl	44(%esp), %eax	 # p1, tmp270
 564 0805 890424   		movl	%eax, (%esp)	 # tmp270,
 565 0808 E8000000 		call	_chHeapFree	 #
 565      00
 566 080d A1980100 		movl	LPBX1+344, %eax	 # *LPBX1, PROF_edge_counter.4
 566      00
 567 0812 8B159C01 		movl	LPBX1+348, %edx	 # *LPBX1, PROF_edge_counter.4
 567      0000
 568 0818 83C001   		addl	$1, %eax	 #, PROF_edge_counter.4
 569 081b 83D200   		adcl	$0, %edx	 #, PROF_edge_counter.4
 570 081e A3980100 		movl	%eax, LPBX1+344	 # PROF_edge_counter.4, *LPBX1
 570      00
 571 0823 89159C01 		movl	%edx, LPBX1+348	 # PROF_edge_counter.4, *LPBX1
 571      0000
 572              		.loc 1 124 0
 573 0829 8D442420 		leal	32(%esp), %eax	 #, tmp271
 574 082d 89442404 		movl	%eax, 4(%esp)	 # tmp271,
 575 0831 C7042400 		movl	$_test_heap, (%esp)	 #,
 575      000000
 576 0838 E8000000 		call	_chHeapStatus	 #
 576      00
 577 083d 89C1     		movl	%eax, %ecx	 #, D.2838
 578 083f A1A00100 		movl	LPBX1+352, %eax	 # *LPBX1, PROF_edge_counter.4
 578      00
 579 0844 8B15A401 		movl	LPBX1+356, %edx	 # *LPBX1, PROF_edge_counter.4
 579      0000
 580 084a 83C001   		addl	$1, %eax	 #, PROF_edge_counter.4
 581 084d 83D200   		adcl	$0, %edx	 #, PROF_edge_counter.4
 582 0850 A3A00100 		movl	%eax, LPBX1+352	 # PROF_edge_counter.4, *LPBX1
 582      00
GAS LISTING C:\cygwin\tmp\ccHd38PY.s 			page 16


 583 0855 8915A401 		movl	%edx, LPBX1+356	 # PROF_edge_counter.4, *LPBX1
 583      0000
 584 085b 83F901   		cmpl	$1, %ecx	 #, D.2838
 585 085e 0F94C0   		sete	%al	 #, tmp272
 586 0861 0FB6C0   		movzbl	%al, %eax	 # tmp272, D.2839
 587 0864 89442404 		movl	%eax, 4(%esp)	 # D.2839,
 588 0868 C7042407 		movl	$7, (%esp)	 #,
 588      000000
 589 086f E8000000 		call	__test_assert	 #
 589      00
 590 0874 84C0     		testb	%al, %al	 # D.2840
 591 0876 7421     		je	L13	 #,
 592              		.loc 1 124 0 is_stmt 0 discriminator 1
 593 0878 A1B00100 		movl	LPBX1+368, %eax	 # *LPBX1, PROF_edge_counter.4
 593      00
 594 087d 8B15B401 		movl	LPBX1+372, %edx	 # *LPBX1, PROF_edge_counter.4
 594      0000
 595 0883 83C001   		addl	$1, %eax	 #, PROF_edge_counter.4
 596 0886 83D200   		adcl	$0, %edx	 #, PROF_edge_counter.4
 597 0889 A3B00100 		movl	%eax, LPBX1+368	 # PROF_edge_counter.4, *LPBX1
 597      00
 598 088e 8915B401 		movl	%edx, LPBX1+372	 # PROF_edge_counter.4, *LPBX1
 598      0000
 599 0894 E9460400 		jmp	L2	 #
 599      00
 600              	L13:
 601              		.loc 1 124 0
 602 0899 A1A80100 		movl	LPBX1+360, %eax	 # *LPBX1, PROF_edge_counter.4
 602      00
 603 089e 8B15AC01 		movl	LPBX1+364, %edx	 # *LPBX1, PROF_edge_counter.4
 603      0000
 604 08a4 83C001   		addl	$1, %eax	 #, PROF_edge_counter.4
 605 08a7 83D200   		adcl	$0, %edx	 #, PROF_edge_counter.4
 606 08aa A3A80100 		movl	%eax, LPBX1+360	 # PROF_edge_counter.4, *LPBX1
 606      00
 607 08af 8915AC01 		movl	%edx, LPBX1+364	 # PROF_edge_counter.4, *LPBX1
 607      0000
 608              		.loc 1 127 0 is_stmt 1
 609 08b5 C7442404 		movl	$16, 4(%esp)	 #,
 609      10000000 
 610 08bd C7042400 		movl	$_test_heap, (%esp)	 #,
 610      000000
 611 08c4 E8000000 		call	_chHeapAlloc	 #
 611      00
 612 08c9 8944242C 		movl	%eax, 44(%esp)	 # tmp273, p1
 613 08cd A1B80100 		movl	LPBX1+376, %eax	 # *LPBX1, PROF_edge_counter.4
 613      00
 614 08d2 8B15BC01 		movl	LPBX1+380, %edx	 # *LPBX1, PROF_edge_counter.4
 614      0000
 615 08d8 83C001   		addl	$1, %eax	 #, PROF_edge_counter.4
 616 08db 83D200   		adcl	$0, %edx	 #, PROF_edge_counter.4
 617 08de A3B80100 		movl	%eax, LPBX1+376	 # PROF_edge_counter.4, *LPBX1
 617      00
 618 08e3 8915BC01 		movl	%edx, LPBX1+380	 # PROF_edge_counter.4, *LPBX1
 618      0000
 619              		.loc 1 128 0
 620 08e9 C7442404 		movl	$16, 4(%esp)	 #,
GAS LISTING C:\cygwin\tmp\ccHd38PY.s 			page 17


 620      10000000 
 621 08f1 C7042400 		movl	$_test_heap, (%esp)	 #,
 621      000000
 622 08f8 E8000000 		call	_chHeapAlloc	 #
 622      00
 623 08fd 89442428 		movl	%eax, 40(%esp)	 # tmp274, p2
 624 0901 A1C00100 		movl	LPBX1+384, %eax	 # *LPBX1, PROF_edge_counter.4
 624      00
 625 0906 8B15C401 		movl	LPBX1+388, %edx	 # *LPBX1, PROF_edge_counter.4
 625      0000
 626 090c 83C001   		addl	$1, %eax	 #, PROF_edge_counter.4
 627 090f 83D200   		adcl	$0, %edx	 #, PROF_edge_counter.4
 628 0912 A3C00100 		movl	%eax, LPBX1+384	 # PROF_edge_counter.4, *LPBX1
 628      00
 629 0917 8915C401 		movl	%edx, LPBX1+388	 # PROF_edge_counter.4, *LPBX1
 629      0000
 630              		.loc 1 129 0
 631 091d 8B44242C 		movl	44(%esp), %eax	 # p1, tmp275
 632 0921 890424   		movl	%eax, (%esp)	 # tmp275,
 633 0924 E8000000 		call	_chHeapFree	 #
 633      00
 634 0929 A1C80100 		movl	LPBX1+392, %eax	 # *LPBX1, PROF_edge_counter.4
 634      00
 635 092e 8B15CC01 		movl	LPBX1+396, %edx	 # *LPBX1, PROF_edge_counter.4
 635      0000
 636 0934 83C001   		addl	$1, %eax	 #, PROF_edge_counter.4
 637 0937 83D200   		adcl	$0, %edx	 #, PROF_edge_counter.4
 638 093a A3C80100 		movl	%eax, LPBX1+392	 # PROF_edge_counter.4, *LPBX1
 638      00
 639 093f 8915CC01 		movl	%edx, LPBX1+396	 # PROF_edge_counter.4, *LPBX1
 639      0000
 640              		.loc 1 130 0
 641 0945 8D442420 		leal	32(%esp), %eax	 #, tmp276
 642 0949 89442404 		movl	%eax, 4(%esp)	 # tmp276,
 643 094d C7042400 		movl	$_test_heap, (%esp)	 #,
 643      000000
 644 0954 E8000000 		call	_chHeapStatus	 #
 644      00
 645 0959 89C1     		movl	%eax, %ecx	 #, D.2843
 646 095b A1D00100 		movl	LPBX1+400, %eax	 # *LPBX1, PROF_edge_counter.4
 646      00
 647 0960 8B15D401 		movl	LPBX1+404, %edx	 # *LPBX1, PROF_edge_counter.4
 647      0000
 648 0966 83C001   		addl	$1, %eax	 #, PROF_edge_counter.4
 649 0969 83D200   		adcl	$0, %edx	 #, PROF_edge_counter.4
 650 096c A3D00100 		movl	%eax, LPBX1+400	 # PROF_edge_counter.4, *LPBX1
 650      00
 651 0971 8915D401 		movl	%edx, LPBX1+404	 # PROF_edge_counter.4, *LPBX1
 651      0000
 652 0977 83F902   		cmpl	$2, %ecx	 #, D.2843
 653 097a 0F94C0   		sete	%al	 #, tmp277
 654 097d 0FB6C0   		movzbl	%al, %eax	 # tmp277, D.2844
 655 0980 89442404 		movl	%eax, 4(%esp)	 # D.2844,
 656 0984 C7042408 		movl	$8, (%esp)	 #,
 656      000000
 657 098b E8000000 		call	__test_assert	 #
 657      00
GAS LISTING C:\cygwin\tmp\ccHd38PY.s 			page 18


 658 0990 84C0     		testb	%al, %al	 # D.2845
 659 0992 7421     		je	L14	 #,
 660              		.loc 1 130 0 is_stmt 0 discriminator 1
 661 0994 A1E00100 		movl	LPBX1+416, %eax	 # *LPBX1, PROF_edge_counter.4
 661      00
 662 0999 8B15E401 		movl	LPBX1+420, %edx	 # *LPBX1, PROF_edge_counter.4
 662      0000
 663 099f 83C001   		addl	$1, %eax	 #, PROF_edge_counter.4
 664 09a2 83D200   		adcl	$0, %edx	 #, PROF_edge_counter.4
 665 09a5 A3E00100 		movl	%eax, LPBX1+416	 # PROF_edge_counter.4, *LPBX1
 665      00
 666 09aa 8915E401 		movl	%edx, LPBX1+420	 # PROF_edge_counter.4, *LPBX1
 666      0000
 667 09b0 E92A0300 		jmp	L2	 #
 667      00
 668              	L14:
 669              		.loc 1 130 0
 670 09b5 A1D80100 		movl	LPBX1+408, %eax	 # *LPBX1, PROF_edge_counter.4
 670      00
 671 09ba 8B15DC01 		movl	LPBX1+412, %edx	 # *LPBX1, PROF_edge_counter.4
 671      0000
 672 09c0 83C001   		addl	$1, %eax	 #, PROF_edge_counter.4
 673 09c3 83D200   		adcl	$0, %edx	 #, PROF_edge_counter.4
 674 09c6 A3D80100 		movl	%eax, LPBX1+408	 # PROF_edge_counter.4, *LPBX1
 674      00
 675 09cb 8915DC01 		movl	%edx, LPBX1+412	 # PROF_edge_counter.4, *LPBX1
 675      0000
 676              		.loc 1 131 0 is_stmt 1
 677 09d1 C7442404 		movl	$32, 4(%esp)	 #,
 677      20000000 
 678 09d9 C7042400 		movl	$_test_heap, (%esp)	 #,
 678      000000
 679 09e0 E8000000 		call	_chHeapAlloc	 #
 679      00
 680 09e5 8944242C 		movl	%eax, 44(%esp)	 # tmp278, p1
 681 09e9 A1E80100 		movl	LPBX1+424, %eax	 # *LPBX1, PROF_edge_counter.4
 681      00
 682 09ee 8B15EC01 		movl	LPBX1+428, %edx	 # *LPBX1, PROF_edge_counter.4
 682      0000
 683 09f4 83C001   		addl	$1, %eax	 #, PROF_edge_counter.4
 684 09f7 83D200   		adcl	$0, %edx	 #, PROF_edge_counter.4
 685 09fa A3E80100 		movl	%eax, LPBX1+424	 # PROF_edge_counter.4, *LPBX1
 685      00
 686 09ff 8915EC01 		movl	%edx, LPBX1+428	 # PROF_edge_counter.4, *LPBX1
 686      0000
 687              		.loc 1 132 0
 688 0a05 8B44242C 		movl	44(%esp), %eax	 # p1, tmp279
 689 0a09 890424   		movl	%eax, (%esp)	 # tmp279,
 690 0a0c E8000000 		call	_chHeapFree	 #
 690      00
 691 0a11 A1F00100 		movl	LPBX1+432, %eax	 # *LPBX1, PROF_edge_counter.4
 691      00
 692 0a16 8B15F401 		movl	LPBX1+436, %edx	 # *LPBX1, PROF_edge_counter.4
 692      0000
 693 0a1c 83C001   		addl	$1, %eax	 #, PROF_edge_counter.4
 694 0a1f 83D200   		adcl	$0, %edx	 #, PROF_edge_counter.4
 695 0a22 A3F00100 		movl	%eax, LPBX1+432	 # PROF_edge_counter.4, *LPBX1
GAS LISTING C:\cygwin\tmp\ccHd38PY.s 			page 19


 695      00
 696 0a27 8915F401 		movl	%edx, LPBX1+436	 # PROF_edge_counter.4, *LPBX1
 696      0000
 697              		.loc 1 133 0
 698 0a2d 8B442428 		movl	40(%esp), %eax	 # p2, tmp280
 699 0a31 890424   		movl	%eax, (%esp)	 # tmp280,
 700 0a34 E8000000 		call	_chHeapFree	 #
 700      00
 701 0a39 A1F80100 		movl	LPBX1+440, %eax	 # *LPBX1, PROF_edge_counter.4
 701      00
 702 0a3e 8B15FC01 		movl	LPBX1+444, %edx	 # *LPBX1, PROF_edge_counter.4
 702      0000
 703 0a44 83C001   		addl	$1, %eax	 #, PROF_edge_counter.4
 704 0a47 83D200   		adcl	$0, %edx	 #, PROF_edge_counter.4
 705 0a4a A3F80100 		movl	%eax, LPBX1+440	 # PROF_edge_counter.4, *LPBX1
 705      00
 706 0a4f 8915FC01 		movl	%edx, LPBX1+444	 # PROF_edge_counter.4, *LPBX1
 706      0000
 707              		.loc 1 134 0
 708 0a55 8D442420 		leal	32(%esp), %eax	 #, tmp281
 709 0a59 89442404 		movl	%eax, 4(%esp)	 # tmp281,
 710 0a5d C7042400 		movl	$_test_heap, (%esp)	 #,
 710      000000
 711 0a64 E8000000 		call	_chHeapStatus	 #
 711      00
 712 0a69 89C1     		movl	%eax, %ecx	 #, D.2848
 713 0a6b A1000200 		movl	LPBX1+448, %eax	 # *LPBX1, PROF_edge_counter.4
 713      00
 714 0a70 8B150402 		movl	LPBX1+452, %edx	 # *LPBX1, PROF_edge_counter.4
 714      0000
 715 0a76 83C001   		addl	$1, %eax	 #, PROF_edge_counter.4
 716 0a79 83D200   		adcl	$0, %edx	 #, PROF_edge_counter.4
 717 0a7c A3000200 		movl	%eax, LPBX1+448	 # PROF_edge_counter.4, *LPBX1
 717      00
 718 0a81 89150402 		movl	%edx, LPBX1+452	 # PROF_edge_counter.4, *LPBX1
 718      0000
 719 0a87 83F901   		cmpl	$1, %ecx	 #, D.2848
 720 0a8a 0F94C0   		sete	%al	 #, tmp282
 721 0a8d 0FB6C0   		movzbl	%al, %eax	 # tmp282, D.2849
 722 0a90 89442404 		movl	%eax, 4(%esp)	 # D.2849,
 723 0a94 C7042409 		movl	$9, (%esp)	 #,
 723      000000
 724 0a9b E8000000 		call	__test_assert	 #
 724      00
 725 0aa0 84C0     		testb	%al, %al	 # D.2850
 726 0aa2 7421     		je	L15	 #,
 727              		.loc 1 134 0 is_stmt 0 discriminator 1
 728 0aa4 A1100200 		movl	LPBX1+464, %eax	 # *LPBX1, PROF_edge_counter.4
 728      00
 729 0aa9 8B151402 		movl	LPBX1+468, %edx	 # *LPBX1, PROF_edge_counter.4
 729      0000
 730 0aaf 83C001   		addl	$1, %eax	 #, PROF_edge_counter.4
 731 0ab2 83D200   		adcl	$0, %edx	 #, PROF_edge_counter.4
 732 0ab5 A3100200 		movl	%eax, LPBX1+464	 # PROF_edge_counter.4, *LPBX1
 732      00
 733 0aba 89151402 		movl	%edx, LPBX1+468	 # PROF_edge_counter.4, *LPBX1
 733      0000
GAS LISTING C:\cygwin\tmp\ccHd38PY.s 			page 20


 734 0ac0 E91A0200 		jmp	L2	 #
 734      00
 735              	L15:
 736              		.loc 1 134 0
 737 0ac5 A1080200 		movl	LPBX1+456, %eax	 # *LPBX1, PROF_edge_counter.4
 737      00
 738 0aca 8B150C02 		movl	LPBX1+460, %edx	 # *LPBX1, PROF_edge_counter.4
 738      0000
 739 0ad0 83C001   		addl	$1, %eax	 #, PROF_edge_counter.4
 740 0ad3 83D200   		adcl	$0, %edx	 #, PROF_edge_counter.4
 741 0ad6 A3080200 		movl	%eax, LPBX1+456	 # PROF_edge_counter.4, *LPBX1
 741      00
 742 0adb 89150C02 		movl	%edx, LPBX1+460	 # PROF_edge_counter.4, *LPBX1
 742      0000
 743              		.loc 1 137 0 is_stmt 1
 744 0ae1 8D442420 		leal	32(%esp), %eax	 #, tmp283
 745 0ae5 89442404 		movl	%eax, 4(%esp)	 # tmp283,
 746 0ae9 C7042400 		movl	$_test_heap, (%esp)	 #,
 746      000000
 747 0af0 E8000000 		call	_chHeapStatus	 #
 747      00
 748 0af5 A1180200 		movl	LPBX1+472, %eax	 # *LPBX1, PROF_edge_counter.4
 748      00
 749 0afa 8B151C02 		movl	LPBX1+476, %edx	 # *LPBX1, PROF_edge_counter.4
 749      0000
 750 0b00 83C001   		addl	$1, %eax	 #, PROF_edge_counter.4
 751 0b03 83D200   		adcl	$0, %edx	 #, PROF_edge_counter.4
 752 0b06 A3180200 		movl	%eax, LPBX1+472	 # PROF_edge_counter.4, *LPBX1
 752      00
 753 0b0b 89151C02 		movl	%edx, LPBX1+476	 # PROF_edge_counter.4, *LPBX1
 753      0000
 754              		.loc 1 138 0
 755 0b11 8B442420 		movl	32(%esp), %eax	 # n, n.1
 756 0b15 89442404 		movl	%eax, 4(%esp)	 # n.1,
 757 0b19 C7042400 		movl	$_test_heap, (%esp)	 #,
 757      000000
 758 0b20 E8000000 		call	_chHeapAlloc	 #
 758      00
 759 0b25 8944242C 		movl	%eax, 44(%esp)	 # tmp284, p1
 760 0b29 A1200200 		movl	LPBX1+480, %eax	 # *LPBX1, PROF_edge_counter.4
 760      00
 761 0b2e 8B152402 		movl	LPBX1+484, %edx	 # *LPBX1, PROF_edge_counter.4
 761      0000
 762 0b34 83C001   		addl	$1, %eax	 #, PROF_edge_counter.4
 763 0b37 83D200   		adcl	$0, %edx	 #, PROF_edge_counter.4
 764 0b3a A3200200 		movl	%eax, LPBX1+480	 # PROF_edge_counter.4, *LPBX1
 764      00
 765 0b3f 89152402 		movl	%edx, LPBX1+484	 # PROF_edge_counter.4, *LPBX1
 765      0000
 766              		.loc 1 139 0
 767 0b45 8D442420 		leal	32(%esp), %eax	 #, tmp285
 768 0b49 89442404 		movl	%eax, 4(%esp)	 # tmp285,
 769 0b4d C7042400 		movl	$_test_heap, (%esp)	 #,
 769      000000
 770 0b54 E8000000 		call	_chHeapStatus	 #
 770      00
 771 0b59 89C1     		movl	%eax, %ecx	 #, D.2854
GAS LISTING C:\cygwin\tmp\ccHd38PY.s 			page 21


 772 0b5b A1280200 		movl	LPBX1+488, %eax	 # *LPBX1, PROF_edge_counter.4
 772      00
 773 0b60 8B152C02 		movl	LPBX1+492, %edx	 # *LPBX1, PROF_edge_counter.4
 773      0000
 774 0b66 83C001   		addl	$1, %eax	 #, PROF_edge_counter.4
 775 0b69 83D200   		adcl	$0, %edx	 #, PROF_edge_counter.4
 776 0b6c A3280200 		movl	%eax, LPBX1+488	 # PROF_edge_counter.4, *LPBX1
 776      00
 777 0b71 89152C02 		movl	%edx, LPBX1+492	 # PROF_edge_counter.4, *LPBX1
 777      0000
 778 0b77 85C9     		testl	%ecx, %ecx	 # D.2854
 779 0b79 0F94C0   		sete	%al	 #, tmp286
 780 0b7c 0FB6C0   		movzbl	%al, %eax	 # tmp286, D.2855
 781 0b7f 89442404 		movl	%eax, 4(%esp)	 # D.2855,
 782 0b83 C704240A 		movl	$10, (%esp)	 #,
 782      000000
 783 0b8a E8000000 		call	__test_assert	 #
 783      00
 784 0b8f 84C0     		testb	%al, %al	 # D.2856
 785 0b91 7421     		je	L16	 #,
 786              		.loc 1 139 0 is_stmt 0 discriminator 1
 787 0b93 A1380200 		movl	LPBX1+504, %eax	 # *LPBX1, PROF_edge_counter.4
 787      00
 788 0b98 8B153C02 		movl	LPBX1+508, %edx	 # *LPBX1, PROF_edge_counter.4
 788      0000
 789 0b9e 83C001   		addl	$1, %eax	 #, PROF_edge_counter.4
 790 0ba1 83D200   		adcl	$0, %edx	 #, PROF_edge_counter.4
 791 0ba4 A3380200 		movl	%eax, LPBX1+504	 # PROF_edge_counter.4, *LPBX1
 791      00
 792 0ba9 89153C02 		movl	%edx, LPBX1+508	 # PROF_edge_counter.4, *LPBX1
 792      0000
 793 0baf E92B0100 		jmp	L2	 #
 793      00
 794              	L16:
 795              		.loc 1 139 0
 796 0bb4 A1300200 		movl	LPBX1+496, %eax	 # *LPBX1, PROF_edge_counter.4
 796      00
 797 0bb9 8B153402 		movl	LPBX1+500, %edx	 # *LPBX1, PROF_edge_counter.4
 797      0000
 798 0bbf 83C001   		addl	$1, %eax	 #, PROF_edge_counter.4
 799 0bc2 83D200   		adcl	$0, %edx	 #, PROF_edge_counter.4
 800 0bc5 A3300200 		movl	%eax, LPBX1+496	 # PROF_edge_counter.4, *LPBX1
 800      00
 801 0bca 89153402 		movl	%edx, LPBX1+500	 # PROF_edge_counter.4, *LPBX1
 801      0000
 802              		.loc 1 140 0 is_stmt 1
 803 0bd0 8B44242C 		movl	44(%esp), %eax	 # p1, tmp287
 804 0bd4 890424   		movl	%eax, (%esp)	 # tmp287,
 805 0bd7 E8000000 		call	_chHeapFree	 #
 805      00
 806 0bdc A1400200 		movl	LPBX1+512, %eax	 # *LPBX1, PROF_edge_counter.4
 806      00
 807 0be1 8B154402 		movl	LPBX1+516, %edx	 # *LPBX1, PROF_edge_counter.4
 807      0000
 808 0be7 83C001   		addl	$1, %eax	 #, PROF_edge_counter.4
 809 0bea 83D200   		adcl	$0, %edx	 #, PROF_edge_counter.4
 810 0bed A3400200 		movl	%eax, LPBX1+512	 # PROF_edge_counter.4, *LPBX1
GAS LISTING C:\cygwin\tmp\ccHd38PY.s 			page 22


 810      00
 811 0bf2 89154402 		movl	%edx, LPBX1+516	 # PROF_edge_counter.4, *LPBX1
 811      0000
 812              		.loc 1 142 0
 813 0bf8 8D442420 		leal	32(%esp), %eax	 #, tmp288
 814 0bfc 89442404 		movl	%eax, 4(%esp)	 # tmp288,
 815 0c00 C7042400 		movl	$_test_heap, (%esp)	 #,
 815      000000
 816 0c07 E8000000 		call	_chHeapStatus	 #
 816      00
 817 0c0c 89C1     		movl	%eax, %ecx	 #, D.2859
 818 0c0e A1480200 		movl	LPBX1+520, %eax	 # *LPBX1, PROF_edge_counter.4
 818      00
 819 0c13 8B154C02 		movl	LPBX1+524, %edx	 # *LPBX1, PROF_edge_counter.4
 819      0000
 820 0c19 83C001   		addl	$1, %eax	 #, PROF_edge_counter.4
 821 0c1c 83D200   		adcl	$0, %edx	 #, PROF_edge_counter.4
 822 0c1f A3480200 		movl	%eax, LPBX1+520	 # PROF_edge_counter.4, *LPBX1
 822      00
 823 0c24 89154C02 		movl	%edx, LPBX1+524	 # PROF_edge_counter.4, *LPBX1
 823      0000
 824 0c2a 83F901   		cmpl	$1, %ecx	 #, D.2859
 825 0c2d 0F94C0   		sete	%al	 #, tmp289
 826 0c30 0FB6C0   		movzbl	%al, %eax	 # tmp289, D.2860
 827 0c33 89442404 		movl	%eax, 4(%esp)	 # D.2860,
 828 0c37 C704240B 		movl	$11, (%esp)	 #,
 828      000000
 829 0c3e E8000000 		call	__test_assert	 #
 829      00
 830 0c43 84C0     		testb	%al, %al	 # D.2861
 831 0c45 741E     		je	L17	 #,
 832              		.loc 1 142 0 is_stmt 0 discriminator 1
 833 0c47 A1580200 		movl	LPBX1+536, %eax	 # *LPBX1, PROF_edge_counter.4
 833      00
 834 0c4c 8B155C02 		movl	LPBX1+540, %edx	 # *LPBX1, PROF_edge_counter.4
 834      0000
 835 0c52 83C001   		addl	$1, %eax	 #, PROF_edge_counter.4
 836 0c55 83D200   		adcl	$0, %edx	 #, PROF_edge_counter.4
 837 0c58 A3580200 		movl	%eax, LPBX1+536	 # PROF_edge_counter.4, *LPBX1
 837      00
 838 0c5d 89155C02 		movl	%edx, LPBX1+540	 # PROF_edge_counter.4, *LPBX1
 838      0000
 839 0c63 EB7A     		jmp	L2	 #
 840              	L17:
 841              		.loc 1 142 0
 842 0c65 A1500200 		movl	LPBX1+528, %eax	 # *LPBX1, PROF_edge_counter.4
 842      00
 843 0c6a 8B155402 		movl	LPBX1+532, %edx	 # *LPBX1, PROF_edge_counter.4
 843      0000
 844 0c70 83C001   		addl	$1, %eax	 #, PROF_edge_counter.4
 845 0c73 83D200   		adcl	$0, %edx	 #, PROF_edge_counter.4
 846 0c76 A3500200 		movl	%eax, LPBX1+528	 # PROF_edge_counter.4, *LPBX1
 846      00
 847 0c7b 89155402 		movl	%edx, LPBX1+532	 # PROF_edge_counter.4, *LPBX1
 847      0000
 848              		.loc 1 143 0 is_stmt 1
 849 0c81 8B542420 		movl	32(%esp), %edx	 # n, n.2
GAS LISTING C:\cygwin\tmp\ccHd38PY.s 			page 23


 850 0c85 8B44241C 		movl	28(%esp), %eax	 # sz, sz.3
 851 0c89 39C2     		cmpl	%eax, %edx	 # sz.3, n.2
 852 0c8b 0F94C0   		sete	%al	 #, tmp290
 853 0c8e 0FB6C0   		movzbl	%al, %eax	 # tmp290, D.2866
 854 0c91 89442404 		movl	%eax, 4(%esp)	 # D.2866,
 855 0c95 C704240C 		movl	$12, (%esp)	 #,
 855      000000
 856 0c9c E8000000 		call	__test_assert	 #
 856      00
 857 0ca1 88C1     		movb	%al, %cl	 #, D.2867
 858 0ca3 A1600200 		movl	LPBX1+544, %eax	 # *LPBX1, PROF_edge_counter.4
 858      00
 859 0ca8 8B156402 		movl	LPBX1+548, %edx	 # *LPBX1, PROF_edge_counter.4
 859      0000
 860 0cae 83C001   		addl	$1, %eax	 #, PROF_edge_counter.4
 861 0cb1 83D200   		adcl	$0, %edx	 #, PROF_edge_counter.4
 862 0cb4 A3600200 		movl	%eax, LPBX1+544	 # PROF_edge_counter.4, *LPBX1
 862      00
 863 0cb9 89156402 		movl	%edx, LPBX1+548	 # PROF_edge_counter.4, *LPBX1
 863      0000
 864 0cbf 84C9     		testb	%cl, %cl	 # D.2867
 865 0cc1 741C     		je	L2	 #,
 866              		.loc 1 143 0 is_stmt 0 discriminator 1
 867 0cc3 A1680200 		movl	LPBX1+552, %eax	 # *LPBX1, PROF_edge_counter.4
 867      00
 868 0cc8 8B156C02 		movl	LPBX1+556, %edx	 # *LPBX1, PROF_edge_counter.4
 868      0000
 869 0cce 83C001   		addl	$1, %eax	 #, PROF_edge_counter.4
 870 0cd1 83D200   		adcl	$0, %edx	 #, PROF_edge_counter.4
 871 0cd4 A3680200 		movl	%eax, LPBX1+552	 # PROF_edge_counter.4, *LPBX1
 871      00
 872 0cd9 89156C02 		movl	%edx, LPBX1+556	 # PROF_edge_counter.4, *LPBX1
 872      0000
 873              	L2:
 874              		.loc 1 144 0 is_stmt 1
 875 0cdf 83C43C   		addl	$60, %esp	 #,
 876              	LCFI3:
 877              		.cfi_def_cfa_offset 4
 878 0ce2 C3       		ret
 879              		.cfi_endproc
 880              	LFE1:
 881              		.globl	_testheap1
 882              		.section .rdata,"dr"
 883              		.align 4
 884              	LC0:
 885 0000 48656170 		.ascii "Heap, allocation and fragmentation test\0"
 885      2C20616C 
 885      6C6F6361 
 885      74696F6E 
 885      20616E64 
 886              		.align 4
 887              	_testheap1:
 888              	 # name:
 889 0028 00000000 		.long	LC0
 890              	 # setup:
 891 002c 00000000 		.long	_heap1_setup
 892              	 # teardown:
GAS LISTING C:\cygwin\tmp\ccHd38PY.s 			page 24


 893 0030 00000000 		.long	0
 894              	 # execute:
 895 0034 5B000000 		.long	_heap1_execute
 896              		.globl	_patternheap
 897              		.align 4
 898              	_patternheap:
 899 0038 28000000 		.long	_testheap1
 900 003c 00000000 		.long	0
 901              	.lcomm LPBX1,576,32
 902              		.align 4
 903              	LC1:
 904 0040 433A5C64 		.ascii "C:\\develop\\gyro\\ChibiOS\\test\\coverage/../../test/testheap.gcda\0"
 904      6576656C 
 904      6F705C67 
 904      79726F5C 
 904      43686962 
 905 007f 00       		.data
 906              		.align 4
 907              	LC2:
 908              	 # <anonymous>:
 909 0000 02000000 		.long	2
 910              	 # <anonymous>:
 911 0004 2F5B445B 		.long	1531206447
 912              	 # <anonymous>:
 913 0008 46000000 		.long	70
 914              	 # <anonymous>:
 915 000c 01000000 		.long	1
 916              	 # <anonymous>:
 917 0010 C694FDCB 		.long	-872573754
 918              	 # <anonymous>:
 919 0014 02000000 		.long	2
 920 0018 00000000 		.align 32
 920      00000000 
 921              	LPBX0:
 922              	 # <anonymous>:
 923 0020 2A363034 		.long	875574826
 924              	 # <anonymous>:
 925 0024 00000000 		.long	0
 926              	 # <anonymous>:
 927 0028 34377060 		.long	1617966900
 928              	 # <anonymous>:
 929 002c 40000000 		.long	LC1
 930              	 # <anonymous>:
 931 0030 02000000 		.long	2
 932              	 # <anonymous>:
 933 0034 00000000 		.long	LC2
 934              	 # <anonymous>:
 935 0038 01000000 		.long	1
 936              	 # <anonymous>:
 937              	 # <anonymous>:
 938 003c 48000000 		.long	72
 939              	 # <anonymous>:
 940 0040 40000000 		.long	LPBX1
 941              	 # <anonymous>:
 942 0044 00000000 		.long	___gcov_merge_add
 943 0048 00000000 		.space 12
 943      00000000 
GAS LISTING C:\cygwin\tmp\ccHd38PY.s 			page 25


 943      00000000 
 944 0054 00000000 		.text
 944      00000000 
 944      00000000 
 945              		.def	__GLOBAL__sub_I_65535_0_testheap1;	.scl	3;	.type	32;	.endef
 946              	__GLOBAL__sub_I_65535_0_testheap1:
 947              	LFB2:
 948              		.loc 1 163 0
 949              		.cfi_startproc
 950 0ce3 83EC1C   		subl	$28, %esp	 #,
 951              	LCFI4:
 952              		.cfi_def_cfa_offset 32
 953              		.loc 1 163 0
 954 0ce6 C7042420 		movl	$LPBX0, (%esp)	 #,
 954      000000
 955 0ced E8000000 		call	___gcov_init	 #
 955      00
 956 0cf2 83C41C   		addl	$28, %esp	 #,
 957              	LCFI5:
 958              		.cfi_def_cfa_offset 4
 959 0cf5 C3       		ret
 960              		.cfi_endproc
 961              	LFE2:
 962              		.section	.ctors,"w"
 963              		.align 4
 964 0000 E30C0000 		.long	__GLOBAL__sub_I_65535_0_testheap1
 965              		.text
 966              	Letext0:
 967              		.file 2 "c:/mingw/bin/../lib/gcc/mingw32/4.6.2/include/stddef.h"
 968              		.file 3 "c:/mingw/bin/../lib/gcc/mingw32/4.6.2/../../../../include/stdint.h"
 969              		.file 4 "../../os/ports/GCC/SIMIA32/chtypes.h"
 970              		.file 5 "../../os/kernel/include/chlists.h"
 971              		.file 6 "../../os/kernel/include/chthreads.h"
 972              		.file 7 "../../os/ports/GCC/SIMIA32/chcore.h"
 973              		.file 8 "../../os/kernel/include/chmtx.h"
 974              		.file 9 "../../os/kernel/include/chmemcore.h"
 975              		.file 10 "../../os/kernel/include/chheap.h"
 976              		.file 11 "../../test/test.h"