GAS LISTING C:\cygwin\tmp\cckjuxoe.s 			page 1


   1              		.file	"testthd.c"
   2              	 # GNU C (GCC) version 4.6.2 (mingw32)
   3              	 #	compiled by GNU C version 4.6.2, GMP version 5.0.1, MPFR version 2.4.1, MPC version 0.8.1
   4              	 # GGC heuristics: --param ggc-min-expand=100 --param ggc-min-heapsize=131072
   5              	 # options passed:  -I . -I ../../os/ports/GCC/SIMIA32
   6              	 # -I ../../os/kernel/include -I ../../test -I ../../os/hal/include
   7              	 # -I ../../os/hal/platforms/Win32 -I ../../boards/simulator
   8              	 # -I ../../os/various -iprefix c:\mingw\bin\../lib/gcc/mingw32/4.6.2/
   9              	 # -MD ../../test/testthd.d -MF .dep/testthd.o.d -MP
  10              	 # -MQ ../../test/testthd.o -D SIMULATOR ../../test/testthd.c -mtune=i386
  11              	 # -march=i386 -auxbase-strip ../../test/testthd.o -ggdb -O0 -Wall -Wextra
  12              	 # -Wstrict-prototypes -fomit-frame-pointer -fprofile-arcs -ftest-coverage
  13              	 # -fverbose-asm
  14              	 # options enabled:  -fasynchronous-unwind-tables -fauto-inc-dec
  15              	 # -fbranch-count-reg -fcommon -fdelete-null-pointer-checks
  16              	 # -fdwarf2-cfi-asm -fearly-inlining -feliminate-unused-debug-types
  17              	 # -ffunction-cse -fgcse-lm -fident -finline-functions-called-once
  18              	 # -fira-share-save-slots -fira-share-spill-slots -fivopts
  19              	 # -fkeep-inline-dllexport -fkeep-static-consts -fleading-underscore
  20              	 # -fmath-errno -fmerge-debug-strings -fmove-loop-invariants
  21              	 # -fomit-frame-pointer -fpeephole -fprefetch-loop-arrays -fprofile-arcs
  22              	 # -freg-struct-return -fsched-critical-path-heuristic
  23              	 # -fsched-dep-count-heuristic -fsched-group-heuristic -fsched-interblock
  24              	 # -fsched-last-insn-heuristic -fsched-rank-heuristic -fsched-spec
  25              	 # -fsched-spec-insn-heuristic -fsched-stalled-insns-dep
  26              	 # -fset-stack-executable -fshow-column -fsigned-zeros
  27              	 # -fsplit-ivs-in-unroller -fstrict-volatile-bitfields -ftest-coverage
  28              	 # -ftrapping-math -ftree-cselim -ftree-forwprop -ftree-loop-if-convert
  29              	 # -ftree-loop-im -ftree-loop-ivcanon -ftree-loop-optimize
  30              	 # -ftree-parallelize-loops= -ftree-phiprop -ftree-pta -ftree-reassoc
  31              	 # -ftree-scev-cprop -ftree-slp-vectorize -ftree-vect-loop-version
  32              	 # -funit-at-a-time -funwind-tables -fvect-cost-model -fverbose-asm
  33              	 # -fzero-initialized-in-bss -m32 -m80387 -m96bit-long-double
  34              	 # -maccumulate-outgoing-args -malign-double -malign-stringops
  35              	 # -mfancy-math-387 -mfp-ret-in-387 -mieee-fp -mno-red-zone -mno-sse4
  36              	 # -mpush-args -msahf -mstack-arg-probe
  37              	
  38              		.text
  39              	Ltext0:
  40              	 # Compiler executable checksum: c20aed7c018482d7b62efcd5dcab2a9d
  41              	
  42              		.def	_thread;	.scl	3;	.type	32;	.endef
  43              	_thread:
  44              	LFB0:
  45              		.file 1 "../../test/testthd.c"
  46              		.loc 1 64 0
  47              		.cfi_startproc
  48 0000 83EC1C   		subl	$28, %esp	 #,
  49              	LCFI0:
  50              		.cfi_def_cfa_offset 32
  51              		.loc 1 64 0
  52 0003 A1100200 		movl	LPBX1+528, %eax	 # *LPBX1, PROF_edge_counter.4
  52      00
  53 0008 8B151402 		movl	LPBX1+532, %edx	 # *LPBX1, PROF_edge_counter.4
  53      0000
  54 000e 83C001   		addl	$1, %eax	 #, PROF_edge_counter.4
  55 0011 83D200   		adcl	$0, %edx	 #, PROF_edge_counter.4
GAS LISTING C:\cygwin\tmp\cckjuxoe.s 			page 2


  56 0014 A3100200 		movl	%eax, LPBX1+528	 # PROF_edge_counter.4, *LPBX1
  56      00
  57 0019 89151402 		movl	%edx, LPBX1+532	 # PROF_edge_counter.4, *LPBX1
  57      0000
  58              		.loc 1 66 0
  59 001f 8B442420 		movl	32(%esp), %eax	 # p, tmp67
  60 0023 8A00     		movb	(%eax), %al	 # MEM[(char *)p_1(D)], D.2972
  61 0025 0FBEC0   		movsbl	%al, %eax	 # D.2972, D.2973
  62 0028 890424   		movl	%eax, (%esp)	 # D.2973,
  63 002b E8000000 		call	_test_emit_token	 #
  63      00
  64 0030 A1180200 		movl	LPBX1+536, %eax	 # *LPBX1, PROF_edge_counter.4
  64      00
  65 0035 8B151C02 		movl	LPBX1+540, %edx	 # *LPBX1, PROF_edge_counter.4
  65      0000
  66 003b 83C001   		addl	$1, %eax	 #, PROF_edge_counter.4
  67 003e 83D200   		adcl	$0, %edx	 #, PROF_edge_counter.4
  68 0041 A3180200 		movl	%eax, LPBX1+536	 # PROF_edge_counter.4, *LPBX1
  68      00
  69 0046 89151C02 		movl	%edx, LPBX1+540	 # PROF_edge_counter.4, *LPBX1
  69      0000
  70              		.loc 1 67 0
  71 004c B8000000 		movl	$0, %eax	 #, D.2974
  71      00
  72              		.loc 1 68 0
  73 0051 83C41C   		addl	$28, %esp	 #,
  74              	LCFI1:
  75              		.cfi_def_cfa_offset 4
  76 0054 C3       		ret
  77              		.cfi_endproc
  78              	LFE0:
  79              		.section .rdata,"dr"
  80              	LC0:
  81 0000 4500     		.ascii "E\0"
  82              	LC1:
  83 0002 4400     		.ascii "D\0"
  84              	LC2:
  85 0004 4300     		.ascii "C\0"
  86              	LC3:
  87 0006 4200     		.ascii "B\0"
  88              	LC4:
  89 0008 4100     		.ascii "A\0"
  90              	LC5:
  91 000a 41424344 		.ascii "ABCDE\0"
  91      4500
  92              		.text
  93              		.def	_thd1_execute;	.scl	3;	.type	32;	.endef
  94              	_thd1_execute:
  95              	LFB1:
  96              		.loc 1 70 0
  97              		.cfi_startproc
  98 0055 83EC2C   		subl	$44, %esp	 #,
  99              	LCFI2:
 100              		.cfi_def_cfa_offset 48
 101              		.loc 1 70 0
 102 0058 A1C80100 		movl	LPBX1+456, %eax	 # *LPBX1, PROF_edge_counter.3
 102      00
GAS LISTING C:\cygwin\tmp\cckjuxoe.s 			page 3


 103 005d 8B15CC01 		movl	LPBX1+460, %edx	 # *LPBX1, PROF_edge_counter.3
 103      0000
 104 0063 83C001   		addl	$1, %eax	 #, PROF_edge_counter.3
 105 0066 83D200   		adcl	$0, %edx	 #, PROF_edge_counter.3
 106 0069 A3C80100 		movl	%eax, LPBX1+456	 # PROF_edge_counter.3, *LPBX1
 106      00
 107 006e 8915CC01 		movl	%edx, LPBX1+460	 # PROF_edge_counter.3, *LPBX1
 107      0000
 108              		.loc 1 72 0
 109 0074 A1180000 		movl	_rlist+24, %eax	 # rlist.r_current, D.2943
 109      00
 110 0079 8B4008   		movl	8(%eax), %eax	 # D.2943_1->p_prio, D.2944
 111 007c 8D50FB   		leal	-5(%eax), %edx	 #, D.2945
 112 007f A1000000 		movl	_wa, %eax	 # wa, D.2946
 112      00
 113 0084 C7442410 		movl	$LC0, 16(%esp)	 #,
 113      00000000 
 114 008c C744240C 		movl	$_thread, 12(%esp)	 #,
 114      00000000 
 115 0094 89542408 		movl	%edx, 8(%esp)	 # D.2945,
 116 0098 C7442404 		movl	$17008, 4(%esp)	 #,
 116      70420000 
 117 00a0 890424   		movl	%eax, (%esp)	 # D.2946,
 118 00a3 E8000000 		call	_chThdCreateStatic	 #
 118      00
 119 00a8 89C1     		movl	%eax, %ecx	 #, D.2947
 120 00aa A1D00100 		movl	LPBX1+464, %eax	 # *LPBX1, PROF_edge_counter.3
 120      00
 121 00af 8B15D401 		movl	LPBX1+468, %edx	 # *LPBX1, PROF_edge_counter.3
 121      0000
 122 00b5 83C001   		addl	$1, %eax	 #, PROF_edge_counter.3
 123 00b8 83D200   		adcl	$0, %edx	 #, PROF_edge_counter.3
 124 00bb A3D00100 		movl	%eax, LPBX1+464	 # PROF_edge_counter.3, *LPBX1
 124      00
 125 00c0 8915D401 		movl	%edx, LPBX1+468	 # PROF_edge_counter.3, *LPBX1
 125      0000
 126 00c6 890D0000 		movl	%ecx, _threads	 # D.2947, threads
 126      0000
 127              		.loc 1 73 0
 128 00cc A1180000 		movl	_rlist+24, %eax	 # rlist.r_current, D.2948
 128      00
 129 00d1 8B4008   		movl	8(%eax), %eax	 # D.2948_6->p_prio, D.2949
 130 00d4 8D50FC   		leal	-4(%eax), %edx	 #, D.2950
 131 00d7 A1040000 		movl	_wa+4, %eax	 # wa, D.2951
 131      00
 132 00dc C7442410 		movl	$LC1, 16(%esp)	 #,
 132      02000000 
 133 00e4 C744240C 		movl	$_thread, 12(%esp)	 #,
 133      00000000 
 134 00ec 89542408 		movl	%edx, 8(%esp)	 # D.2950,
 135 00f0 C7442404 		movl	$17008, 4(%esp)	 #,
 135      70420000 
 136 00f8 890424   		movl	%eax, (%esp)	 # D.2951,
 137 00fb E8000000 		call	_chThdCreateStatic	 #
 137      00
 138 0100 89C1     		movl	%eax, %ecx	 #, D.2952
 139 0102 A1D80100 		movl	LPBX1+472, %eax	 # *LPBX1, PROF_edge_counter.3
GAS LISTING C:\cygwin\tmp\cckjuxoe.s 			page 4


 139      00
 140 0107 8B15DC01 		movl	LPBX1+476, %edx	 # *LPBX1, PROF_edge_counter.3
 140      0000
 141 010d 83C001   		addl	$1, %eax	 #, PROF_edge_counter.3
 142 0110 83D200   		adcl	$0, %edx	 #, PROF_edge_counter.3
 143 0113 A3D80100 		movl	%eax, LPBX1+472	 # PROF_edge_counter.3, *LPBX1
 143      00
 144 0118 8915DC01 		movl	%edx, LPBX1+476	 # PROF_edge_counter.3, *LPBX1
 144      0000
 145 011e 890D0400 		movl	%ecx, _threads+4	 # D.2952, threads
 145      0000
 146              		.loc 1 74 0
 147 0124 A1180000 		movl	_rlist+24, %eax	 # rlist.r_current, D.2953
 147      00
 148 0129 8B4008   		movl	8(%eax), %eax	 # D.2953_11->p_prio, D.2954
 149 012c 8D50FD   		leal	-3(%eax), %edx	 #, D.2955
 150 012f A1080000 		movl	_wa+8, %eax	 # wa, D.2956
 150      00
 151 0134 C7442410 		movl	$LC2, 16(%esp)	 #,
 151      04000000 
 152 013c C744240C 		movl	$_thread, 12(%esp)	 #,
 152      00000000 
 153 0144 89542408 		movl	%edx, 8(%esp)	 # D.2955,
 154 0148 C7442404 		movl	$17008, 4(%esp)	 #,
 154      70420000 
 155 0150 890424   		movl	%eax, (%esp)	 # D.2956,
 156 0153 E8000000 		call	_chThdCreateStatic	 #
 156      00
 157 0158 89C1     		movl	%eax, %ecx	 #, D.2957
 158 015a A1E00100 		movl	LPBX1+480, %eax	 # *LPBX1, PROF_edge_counter.3
 158      00
 159 015f 8B15E401 		movl	LPBX1+484, %edx	 # *LPBX1, PROF_edge_counter.3
 159      0000
 160 0165 83C001   		addl	$1, %eax	 #, PROF_edge_counter.3
 161 0168 83D200   		adcl	$0, %edx	 #, PROF_edge_counter.3
 162 016b A3E00100 		movl	%eax, LPBX1+480	 # PROF_edge_counter.3, *LPBX1
 162      00
 163 0170 8915E401 		movl	%edx, LPBX1+484	 # PROF_edge_counter.3, *LPBX1
 163      0000
 164 0176 890D0800 		movl	%ecx, _threads+8	 # D.2957, threads
 164      0000
 165              		.loc 1 75 0
 166 017c A1180000 		movl	_rlist+24, %eax	 # rlist.r_current, D.2958
 166      00
 167 0181 8B4008   		movl	8(%eax), %eax	 # D.2958_16->p_prio, D.2959
 168 0184 8D50FE   		leal	-2(%eax), %edx	 #, D.2960
 169 0187 A10C0000 		movl	_wa+12, %eax	 # wa, D.2961
 169      00
 170 018c C7442410 		movl	$LC3, 16(%esp)	 #,
 170      06000000 
 171 0194 C744240C 		movl	$_thread, 12(%esp)	 #,
 171      00000000 
 172 019c 89542408 		movl	%edx, 8(%esp)	 # D.2960,
 173 01a0 C7442404 		movl	$17008, 4(%esp)	 #,
 173      70420000 
 174 01a8 890424   		movl	%eax, (%esp)	 # D.2961,
 175 01ab E8000000 		call	_chThdCreateStatic	 #
GAS LISTING C:\cygwin\tmp\cckjuxoe.s 			page 5


 175      00
 176 01b0 89C1     		movl	%eax, %ecx	 #, D.2962
 177 01b2 A1E80100 		movl	LPBX1+488, %eax	 # *LPBX1, PROF_edge_counter.3
 177      00
 178 01b7 8B15EC01 		movl	LPBX1+492, %edx	 # *LPBX1, PROF_edge_counter.3
 178      0000
 179 01bd 83C001   		addl	$1, %eax	 #, PROF_edge_counter.3
 180 01c0 83D200   		adcl	$0, %edx	 #, PROF_edge_counter.3
 181 01c3 A3E80100 		movl	%eax, LPBX1+488	 # PROF_edge_counter.3, *LPBX1
 181      00
 182 01c8 8915EC01 		movl	%edx, LPBX1+492	 # PROF_edge_counter.3, *LPBX1
 182      0000
 183 01ce 890D0C00 		movl	%ecx, _threads+12	 # D.2962, threads
 183      0000
 184              		.loc 1 76 0
 185 01d4 A1180000 		movl	_rlist+24, %eax	 # rlist.r_current, D.2963
 185      00
 186 01d9 8B4008   		movl	8(%eax), %eax	 # D.2963_21->p_prio, D.2964
 187 01dc 8D50FF   		leal	-1(%eax), %edx	 #, D.2965
 188 01df A1100000 		movl	_wa+16, %eax	 # wa, D.2966
 188      00
 189 01e4 C7442410 		movl	$LC4, 16(%esp)	 #,
 189      08000000 
 190 01ec C744240C 		movl	$_thread, 12(%esp)	 #,
 190      00000000 
 191 01f4 89542408 		movl	%edx, 8(%esp)	 # D.2965,
 192 01f8 C7442404 		movl	$17008, 4(%esp)	 #,
 192      70420000 
 193 0200 890424   		movl	%eax, (%esp)	 # D.2966,
 194 0203 E8000000 		call	_chThdCreateStatic	 #
 194      00
 195 0208 89C1     		movl	%eax, %ecx	 #, D.2967
 196 020a A1F00100 		movl	LPBX1+496, %eax	 # *LPBX1, PROF_edge_counter.3
 196      00
 197 020f 8B15F401 		movl	LPBX1+500, %edx	 # *LPBX1, PROF_edge_counter.3
 197      0000
 198 0215 83C001   		addl	$1, %eax	 #, PROF_edge_counter.3
 199 0218 83D200   		adcl	$0, %edx	 #, PROF_edge_counter.3
 200 021b A3F00100 		movl	%eax, LPBX1+496	 # PROF_edge_counter.3, *LPBX1
 200      00
 201 0220 8915F401 		movl	%edx, LPBX1+500	 # PROF_edge_counter.3, *LPBX1
 201      0000
 202 0226 890D1000 		movl	%ecx, _threads+16	 # D.2967, threads
 202      0000
 203              		.loc 1 77 0
 204 022c E8000000 		call	_test_wait_threads	 #
 204      00
 205 0231 A1F80100 		movl	LPBX1+504, %eax	 # *LPBX1, PROF_edge_counter.3
 205      00
 206 0236 8B15FC01 		movl	LPBX1+508, %edx	 # *LPBX1, PROF_edge_counter.3
 206      0000
 207 023c 83C001   		addl	$1, %eax	 #, PROF_edge_counter.3
 208 023f 83D200   		adcl	$0, %edx	 #, PROF_edge_counter.3
 209 0242 A3F80100 		movl	%eax, LPBX1+504	 # PROF_edge_counter.3, *LPBX1
 209      00
 210 0247 8915FC01 		movl	%edx, LPBX1+508	 # PROF_edge_counter.3, *LPBX1
 210      0000
GAS LISTING C:\cygwin\tmp\cckjuxoe.s 			page 6


 211              		.loc 1 78 0
 212 024d C7442404 		movl	$LC5, 4(%esp)	 #,
 212      0A000000 
 213 0255 C7042401 		movl	$1, (%esp)	 #,
 213      000000
 214 025c E8000000 		call	__test_assert_sequence	 #
 214      00
 215 0261 88C1     		movb	%al, %cl	 #, D.2968
 216 0263 A1000200 		movl	LPBX1+512, %eax	 # *LPBX1, PROF_edge_counter.3
 216      00
 217 0268 8B150402 		movl	LPBX1+516, %edx	 # *LPBX1, PROF_edge_counter.3
 217      0000
 218 026e 83C001   		addl	$1, %eax	 #, PROF_edge_counter.3
 219 0271 83D200   		adcl	$0, %edx	 #, PROF_edge_counter.3
 220 0274 A3000200 		movl	%eax, LPBX1+512	 # PROF_edge_counter.3, *LPBX1
 220      00
 221 0279 89150402 		movl	%edx, LPBX1+516	 # PROF_edge_counter.3, *LPBX1
 221      0000
 222 027f 84C9     		testb	%cl, %cl	 # D.2968
 223 0281 741C     		je	L2	 #,
 224              		.loc 1 78 0 is_stmt 0 discriminator 1
 225 0283 A1080200 		movl	LPBX1+520, %eax	 # *LPBX1, PROF_edge_counter.3
 225      00
 226 0288 8B150C02 		movl	LPBX1+524, %edx	 # *LPBX1, PROF_edge_counter.3
 226      0000
 227 028e 83C001   		addl	$1, %eax	 #, PROF_edge_counter.3
 228 0291 83D200   		adcl	$0, %edx	 #, PROF_edge_counter.3
 229 0294 A3080200 		movl	%eax, LPBX1+520	 # PROF_edge_counter.3, *LPBX1
 229      00
 230 0299 89150C02 		movl	%edx, LPBX1+524	 # PROF_edge_counter.3, *LPBX1
 230      0000
 231              	L2:
 232              		.loc 1 79 0 is_stmt 1
 233 029f 83C42C   		addl	$44, %esp	 #,
 234              	LCFI3:
 235              		.cfi_def_cfa_offset 4
 236 02a2 C3       		ret
 237              		.cfi_endproc
 238              	LFE1:
 239              		.globl	_testthd1
 240              		.section .rdata,"dr"
 241              	LC6:
 242 0010 54687265 		.ascii "Threads, enqueuing test #1\0"
 242      6164732C 
 242      20656E71 
 242      75657569 
 242      6E672074 
 243 002b 00       		.align 4
 244              	_testthd1:
 245              	 # name:
 246 002c 10000000 		.long	LC6
 247              	 # setup:
 248 0030 00000000 		.long	0
 249              	 # teardown:
 250 0034 00000000 		.long	0
 251              	 # execute:
 252 0038 55000000 		.long	_thd1_execute
GAS LISTING C:\cygwin\tmp\cckjuxoe.s 			page 7


 253              		.text
 254              		.def	_thd2_execute;	.scl	3;	.type	32;	.endef
 255              	_thd2_execute:
 256              	LFB2:
 257              		.loc 1 98 0
 258              		.cfi_startproc
 259 02a3 83EC2C   		subl	$44, %esp	 #,
 260              	LCFI4:
 261              		.cfi_def_cfa_offset 48
 262              		.loc 1 98 0
 263 02a6 A1680100 		movl	LPBX1+360, %eax	 # *LPBX1, PROF_edge_counter.2
 263      00
 264 02ab 8B156C01 		movl	LPBX1+364, %edx	 # *LPBX1, PROF_edge_counter.2
 264      0000
 265 02b1 83C001   		addl	$1, %eax	 #, PROF_edge_counter.2
 266 02b4 83D200   		adcl	$0, %edx	 #, PROF_edge_counter.2
 267 02b7 A3680100 		movl	%eax, LPBX1+360	 # PROF_edge_counter.2, *LPBX1
 267      00
 268 02bc 89156C01 		movl	%edx, LPBX1+364	 # PROF_edge_counter.2, *LPBX1
 268      0000
 269              		.loc 1 100 0
 270 02c2 A1180000 		movl	_rlist+24, %eax	 # rlist.r_current, D.2913
 270      00
 271 02c7 8B4008   		movl	8(%eax), %eax	 # D.2913_1->p_prio, D.2914
 272 02ca 8D50FC   		leal	-4(%eax), %edx	 #, D.2915
 273 02cd A1040000 		movl	_wa+4, %eax	 # wa, D.2916
 273      00
 274 02d2 C7442410 		movl	$LC1, 16(%esp)	 #,
 274      02000000 
 275 02da C744240C 		movl	$_thread, 12(%esp)	 #,
 275      00000000 
 276 02e2 89542408 		movl	%edx, 8(%esp)	 # D.2915,
 277 02e6 C7442404 		movl	$17008, 4(%esp)	 #,
 277      70420000 
 278 02ee 890424   		movl	%eax, (%esp)	 # D.2916,
 279 02f1 E8000000 		call	_chThdCreateStatic	 #
 279      00
 280 02f6 89C1     		movl	%eax, %ecx	 #, D.2917
 281 02f8 A1700100 		movl	LPBX1+368, %eax	 # *LPBX1, PROF_edge_counter.2
 281      00
 282 02fd 8B157401 		movl	LPBX1+372, %edx	 # *LPBX1, PROF_edge_counter.2
 282      0000
 283 0303 83C001   		addl	$1, %eax	 #, PROF_edge_counter.2
 284 0306 83D200   		adcl	$0, %edx	 #, PROF_edge_counter.2
 285 0309 A3700100 		movl	%eax, LPBX1+368	 # PROF_edge_counter.2, *LPBX1
 285      00
 286 030e 89157401 		movl	%edx, LPBX1+372	 # PROF_edge_counter.2, *LPBX1
 286      0000
 287 0314 890D0400 		movl	%ecx, _threads+4	 # D.2917, threads
 287      0000
 288              		.loc 1 101 0
 289 031a A1180000 		movl	_rlist+24, %eax	 # rlist.r_current, D.2918
 289      00
 290 031f 8B4008   		movl	8(%eax), %eax	 # D.2918_6->p_prio, D.2919
 291 0322 8D50FB   		leal	-5(%eax), %edx	 #, D.2920
 292 0325 A1000000 		movl	_wa, %eax	 # wa, D.2921
 292      00
GAS LISTING C:\cygwin\tmp\cckjuxoe.s 			page 8


 293 032a C7442410 		movl	$LC0, 16(%esp)	 #,
 293      00000000 
 294 0332 C744240C 		movl	$_thread, 12(%esp)	 #,
 294      00000000 
 295 033a 89542408 		movl	%edx, 8(%esp)	 # D.2920,
 296 033e C7442404 		movl	$17008, 4(%esp)	 #,
 296      70420000 
 297 0346 890424   		movl	%eax, (%esp)	 # D.2921,
 298 0349 E8000000 		call	_chThdCreateStatic	 #
 298      00
 299 034e 89C1     		movl	%eax, %ecx	 #, D.2922
 300 0350 A1780100 		movl	LPBX1+376, %eax	 # *LPBX1, PROF_edge_counter.2
 300      00
 301 0355 8B157C01 		movl	LPBX1+380, %edx	 # *LPBX1, PROF_edge_counter.2
 301      0000
 302 035b 83C001   		addl	$1, %eax	 #, PROF_edge_counter.2
 303 035e 83D200   		adcl	$0, %edx	 #, PROF_edge_counter.2
 304 0361 A3780100 		movl	%eax, LPBX1+376	 # PROF_edge_counter.2, *LPBX1
 304      00
 305 0366 89157C01 		movl	%edx, LPBX1+380	 # PROF_edge_counter.2, *LPBX1
 305      0000
 306 036c 890D0000 		movl	%ecx, _threads	 # D.2922, threads
 306      0000
 307              		.loc 1 102 0
 308 0372 A1180000 		movl	_rlist+24, %eax	 # rlist.r_current, D.2923
 308      00
 309 0377 8B4008   		movl	8(%eax), %eax	 # D.2923_11->p_prio, D.2924
 310 037a 8D50FF   		leal	-1(%eax), %edx	 #, D.2925
 311 037d A1100000 		movl	_wa+16, %eax	 # wa, D.2926
 311      00
 312 0382 C7442410 		movl	$LC4, 16(%esp)	 #,
 312      08000000 
 313 038a C744240C 		movl	$_thread, 12(%esp)	 #,
 313      00000000 
 314 0392 89542408 		movl	%edx, 8(%esp)	 # D.2925,
 315 0396 C7442404 		movl	$17008, 4(%esp)	 #,
 315      70420000 
 316 039e 890424   		movl	%eax, (%esp)	 # D.2926,
 317 03a1 E8000000 		call	_chThdCreateStatic	 #
 317      00
 318 03a6 89C1     		movl	%eax, %ecx	 #, D.2927
 319 03a8 A1800100 		movl	LPBX1+384, %eax	 # *LPBX1, PROF_edge_counter.2
 319      00
 320 03ad 8B158401 		movl	LPBX1+388, %edx	 # *LPBX1, PROF_edge_counter.2
 320      0000
 321 03b3 83C001   		addl	$1, %eax	 #, PROF_edge_counter.2
 322 03b6 83D200   		adcl	$0, %edx	 #, PROF_edge_counter.2
 323 03b9 A3800100 		movl	%eax, LPBX1+384	 # PROF_edge_counter.2, *LPBX1
 323      00
 324 03be 89158401 		movl	%edx, LPBX1+388	 # PROF_edge_counter.2, *LPBX1
 324      0000
 325 03c4 890D1000 		movl	%ecx, _threads+16	 # D.2927, threads
 325      0000
 326              		.loc 1 103 0
 327 03ca A1180000 		movl	_rlist+24, %eax	 # rlist.r_current, D.2928
 327      00
 328 03cf 8B4008   		movl	8(%eax), %eax	 # D.2928_16->p_prio, D.2929
GAS LISTING C:\cygwin\tmp\cckjuxoe.s 			page 9


 329 03d2 8D50FE   		leal	-2(%eax), %edx	 #, D.2930
 330 03d5 A10C0000 		movl	_wa+12, %eax	 # wa, D.2931
 330      00
 331 03da C7442410 		movl	$LC3, 16(%esp)	 #,
 331      06000000 
 332 03e2 C744240C 		movl	$_thread, 12(%esp)	 #,
 332      00000000 
 333 03ea 89542408 		movl	%edx, 8(%esp)	 # D.2930,
 334 03ee C7442404 		movl	$17008, 4(%esp)	 #,
 334      70420000 
 335 03f6 890424   		movl	%eax, (%esp)	 # D.2931,
 336 03f9 E8000000 		call	_chThdCreateStatic	 #
 336      00
 337 03fe 89C1     		movl	%eax, %ecx	 #, D.2932
 338 0400 A1880100 		movl	LPBX1+392, %eax	 # *LPBX1, PROF_edge_counter.2
 338      00
 339 0405 8B158C01 		movl	LPBX1+396, %edx	 # *LPBX1, PROF_edge_counter.2
 339      0000
 340 040b 83C001   		addl	$1, %eax	 #, PROF_edge_counter.2
 341 040e 83D200   		adcl	$0, %edx	 #, PROF_edge_counter.2
 342 0411 A3880100 		movl	%eax, LPBX1+392	 # PROF_edge_counter.2, *LPBX1
 342      00
 343 0416 89158C01 		movl	%edx, LPBX1+396	 # PROF_edge_counter.2, *LPBX1
 343      0000
 344 041c 890D0C00 		movl	%ecx, _threads+12	 # D.2932, threads
 344      0000
 345              		.loc 1 105 0
 346              	/APP
 347              	 # 105 "../../test/testthd.c" 1
 348 0422 90       		nop
 349              	 # 0 "" 2
 350              	/NO_APP
 351 0423 A1900100 		movl	LPBX1+400, %eax	 # *LPBX1, PROF_edge_counter.2
 351      00
 352 0428 8B159401 		movl	LPBX1+404, %edx	 # *LPBX1, PROF_edge_counter.2
 352      0000
 353 042e 83C001   		addl	$1, %eax	 #, PROF_edge_counter.2
 354 0431 83D200   		adcl	$0, %edx	 #, PROF_edge_counter.2
 355 0434 A3900100 		movl	%eax, LPBX1+400	 # PROF_edge_counter.2, *LPBX1
 355      00
 356 0439 89159401 		movl	%edx, LPBX1+404	 # PROF_edge_counter.2, *LPBX1
 356      0000
 357              		.loc 1 106 0
 358 043f A1180000 		movl	_rlist+24, %eax	 # rlist.r_current, D.2933
 358      00
 359 0444 8B4008   		movl	8(%eax), %eax	 # D.2933_21->p_prio, D.2934
 360 0447 8D50FD   		leal	-3(%eax), %edx	 #, D.2935
 361 044a A1080000 		movl	_wa+8, %eax	 # wa, D.2936
 361      00
 362 044f C7442410 		movl	$LC2, 16(%esp)	 #,
 362      04000000 
 363 0457 C744240C 		movl	$_thread, 12(%esp)	 #,
 363      00000000 
 364 045f 89542408 		movl	%edx, 8(%esp)	 # D.2935,
 365 0463 C7442404 		movl	$17008, 4(%esp)	 #,
 365      70420000 
 366 046b 890424   		movl	%eax, (%esp)	 # D.2936,
GAS LISTING C:\cygwin\tmp\cckjuxoe.s 			page 10


 367 046e E8000000 		call	_chThdCreateI	 #
 367      00
 368 0473 89C1     		movl	%eax, %ecx	 #, D.2937
 369 0475 A1980100 		movl	LPBX1+408, %eax	 # *LPBX1, PROF_edge_counter.2
 369      00
 370 047a 8B159C01 		movl	LPBX1+412, %edx	 # *LPBX1, PROF_edge_counter.2
 370      0000
 371 0480 83C001   		addl	$1, %eax	 #, PROF_edge_counter.2
 372 0483 83D200   		adcl	$0, %edx	 #, PROF_edge_counter.2
 373 0486 A3980100 		movl	%eax, LPBX1+408	 # PROF_edge_counter.2, *LPBX1
 373      00
 374 048b 89159C01 		movl	%edx, LPBX1+412	 # PROF_edge_counter.2, *LPBX1
 374      0000
 375 0491 890D0800 		movl	%ecx, _threads+8	 # D.2937, threads
 375      0000
 376              		.loc 1 107 0
 377              	/APP
 378              	 # 107 "../../test/testthd.c" 1
 379 0497 90       		nop
 380              	 # 0 "" 2
 381              	/NO_APP
 382 0498 A1A00100 		movl	LPBX1+416, %eax	 # *LPBX1, PROF_edge_counter.2
 382      00
 383 049d 8B15A401 		movl	LPBX1+420, %edx	 # *LPBX1, PROF_edge_counter.2
 383      0000
 384 04a3 83C001   		addl	$1, %eax	 #, PROF_edge_counter.2
 385 04a6 83D200   		adcl	$0, %edx	 #, PROF_edge_counter.2
 386 04a9 A3A00100 		movl	%eax, LPBX1+416	 # PROF_edge_counter.2, *LPBX1
 386      00
 387 04ae 8915A401 		movl	%edx, LPBX1+420	 # PROF_edge_counter.2, *LPBX1
 387      0000
 388              		.loc 1 108 0
 389 04b4 A1080000 		movl	_threads+8, %eax	 # threads, D.2938
 389      00
 390 04b9 890424   		movl	%eax, (%esp)	 # D.2938,
 391 04bc E8000000 		call	_chThdResume	 #
 391      00
 392 04c1 A1A80100 		movl	LPBX1+424, %eax	 # *LPBX1, PROF_edge_counter.2
 392      00
 393 04c6 8B15AC01 		movl	LPBX1+428, %edx	 # *LPBX1, PROF_edge_counter.2
 393      0000
 394 04cc 83C001   		addl	$1, %eax	 #, PROF_edge_counter.2
 395 04cf 83D200   		adcl	$0, %edx	 #, PROF_edge_counter.2
 396 04d2 A3A80100 		movl	%eax, LPBX1+424	 # PROF_edge_counter.2, *LPBX1
 396      00
 397 04d7 8915AC01 		movl	%edx, LPBX1+428	 # PROF_edge_counter.2, *LPBX1
 397      0000
 398              		.loc 1 109 0
 399 04dd E8000000 		call	_test_wait_threads	 #
 399      00
 400 04e2 A1B00100 		movl	LPBX1+432, %eax	 # *LPBX1, PROF_edge_counter.2
 400      00
 401 04e7 8B15B401 		movl	LPBX1+436, %edx	 # *LPBX1, PROF_edge_counter.2
 401      0000
 402 04ed 83C001   		addl	$1, %eax	 #, PROF_edge_counter.2
 403 04f0 83D200   		adcl	$0, %edx	 #, PROF_edge_counter.2
 404 04f3 A3B00100 		movl	%eax, LPBX1+432	 # PROF_edge_counter.2, *LPBX1
GAS LISTING C:\cygwin\tmp\cckjuxoe.s 			page 11


 404      00
 405 04f8 8915B401 		movl	%edx, LPBX1+436	 # PROF_edge_counter.2, *LPBX1
 405      0000
 406              		.loc 1 110 0
 407 04fe C7442404 		movl	$LC5, 4(%esp)	 #,
 407      0A000000 
 408 0506 C7042401 		movl	$1, (%esp)	 #,
 408      000000
 409 050d E8000000 		call	__test_assert_sequence	 #
 409      00
 410 0512 88C1     		movb	%al, %cl	 #, D.2939
 411 0514 A1B80100 		movl	LPBX1+440, %eax	 # *LPBX1, PROF_edge_counter.2
 411      00
 412 0519 8B15BC01 		movl	LPBX1+444, %edx	 # *LPBX1, PROF_edge_counter.2
 412      0000
 413 051f 83C001   		addl	$1, %eax	 #, PROF_edge_counter.2
 414 0522 83D200   		adcl	$0, %edx	 #, PROF_edge_counter.2
 415 0525 A3B80100 		movl	%eax, LPBX1+440	 # PROF_edge_counter.2, *LPBX1
 415      00
 416 052a 8915BC01 		movl	%edx, LPBX1+444	 # PROF_edge_counter.2, *LPBX1
 416      0000
 417 0530 84C9     		testb	%cl, %cl	 # D.2939
 418 0532 741C     		je	L4	 #,
 419              		.loc 1 110 0 is_stmt 0 discriminator 1
 420 0534 A1C00100 		movl	LPBX1+448, %eax	 # *LPBX1, PROF_edge_counter.2
 420      00
 421 0539 8B15C401 		movl	LPBX1+452, %edx	 # *LPBX1, PROF_edge_counter.2
 421      0000
 422 053f 83C001   		addl	$1, %eax	 #, PROF_edge_counter.2
 423 0542 83D200   		adcl	$0, %edx	 #, PROF_edge_counter.2
 424 0545 A3C00100 		movl	%eax, LPBX1+448	 # PROF_edge_counter.2, *LPBX1
 424      00
 425 054a 8915C401 		movl	%edx, LPBX1+452	 # PROF_edge_counter.2, *LPBX1
 425      0000
 426              	L4:
 427              		.loc 1 111 0 is_stmt 1
 428 0550 83C42C   		addl	$44, %esp	 #,
 429              	LCFI5:
 430              		.cfi_def_cfa_offset 4
 431 0553 C3       		ret
 432              		.cfi_endproc
 433              	LFE2:
 434              		.globl	_testthd2
 435              		.section .rdata,"dr"
 436              	LC7:
 437 003c 54687265 		.ascii "Threads, enqueuing test #2\0"
 437      6164732C 
 437      20656E71 
 437      75657569 
 437      6E672074 
 438 0057 00       		.align 4
 439              	_testthd2:
 440              	 # name:
 441 0058 3C000000 		.long	LC7
 442              	 # setup:
 443 005c 00000000 		.long	0
 444              	 # teardown:
GAS LISTING C:\cygwin\tmp\cckjuxoe.s 			page 12


 445 0060 00000000 		.long	0
 446              	 # execute:
 447 0064 A3020000 		.long	_thd2_execute
 448              		.text
 449              		.def	_thd3_execute;	.scl	3;	.type	32;	.endef
 450              	_thd3_execute:
 451              	LFB3:
 452              		.loc 1 130 0
 453              		.cfi_startproc
 454 0554 83EC2C   		subl	$44, %esp	 #,
 455              	LCFI6:
 456              		.cfi_def_cfa_offset 48
 457              		.loc 1 130 0
 458 0557 A1700000 		movl	LPBX1+112, %eax	 # *LPBX1, PROF_edge_counter.1
 458      00
 459 055c 8B157400 		movl	LPBX1+116, %edx	 # *LPBX1, PROF_edge_counter.1
 459      0000
 460 0562 83C001   		addl	$1, %eax	 #, PROF_edge_counter.1
 461 0565 83D200   		adcl	$0, %edx	 #, PROF_edge_counter.1
 462 0568 A3700000 		movl	%eax, LPBX1+112	 # PROF_edge_counter.1, *LPBX1
 462      00
 463 056d 89157400 		movl	%edx, LPBX1+116	 # PROF_edge_counter.1, *LPBX1
 463      0000
 464              		.loc 1 133 0
 465 0573 A1180000 		movl	_rlist+24, %eax	 # rlist.r_current, D.2836
 465      00
 466 0578 8B4008   		movl	8(%eax), %eax	 # D.2836_1->p_prio, tmp175
 467 057b 8944241C 		movl	%eax, 28(%esp)	 # tmp175, prio
 468              		.loc 1 134 0
 469 057f 8B44241C 		movl	28(%esp), %eax	 # prio, tmp176
 470 0583 40       		incl	%eax	 # D.2837
 471 0584 890424   		movl	%eax, (%esp)	 # D.2837,
 472 0587 E8000000 		call	_chThdSetPriority	 #
 472      00
 473 058c 89442418 		movl	%eax, 24(%esp)	 # tmp177, p1
 474 0590 A1780000 		movl	LPBX1+120, %eax	 # *LPBX1, PROF_edge_counter.1
 474      00
 475 0595 8B157C00 		movl	LPBX1+124, %edx	 # *LPBX1, PROF_edge_counter.1
 475      0000
 476 059b 83C001   		addl	$1, %eax	 #, PROF_edge_counter.1
 477 059e 83D200   		adcl	$0, %edx	 #, PROF_edge_counter.1
 478 05a1 A3780000 		movl	%eax, LPBX1+120	 # PROF_edge_counter.1, *LPBX1
 478      00
 479 05a6 89157C00 		movl	%edx, LPBX1+124	 # PROF_edge_counter.1, *LPBX1
 479      0000
 480              		.loc 1 135 0
 481 05ac 8B442418 		movl	24(%esp), %eax	 # p1, tmp179
 482 05b0 3B44241C 		cmpl	28(%esp), %eax	 # prio, tmp179
 483 05b4 0F94C0   		sete	%al	 #, tmp178
 484 05b7 0FB6C0   		movzbl	%al, %eax	 # tmp178, D.2838
 485 05ba 89442404 		movl	%eax, 4(%esp)	 # D.2838,
 486 05be C7042401 		movl	$1, (%esp)	 #,
 486      000000
 487 05c5 E8000000 		call	__test_assert	 #
 487      00
 488 05ca 84C0     		testb	%al, %al	 # D.2839
 489 05cc 7421     		je	L7	 #,
GAS LISTING C:\cygwin\tmp\cckjuxoe.s 			page 13


 490              		.loc 1 135 0 is_stmt 0 discriminator 1
 491 05ce A1880000 		movl	LPBX1+136, %eax	 # *LPBX1, PROF_edge_counter.1
 491      00
 492 05d3 8B158C00 		movl	LPBX1+140, %edx	 # *LPBX1, PROF_edge_counter.1
 492      0000
 493 05d9 83C001   		addl	$1, %eax	 #, PROF_edge_counter.1
 494 05dc 83D200   		adcl	$0, %edx	 #, PROF_edge_counter.1
 495 05df A3880000 		movl	%eax, LPBX1+136	 # PROF_edge_counter.1, *LPBX1
 495      00
 496 05e4 89158C00 		movl	%edx, LPBX1+140	 # PROF_edge_counter.1, *LPBX1
 496      0000
 497 05ea E92F0500 		jmp	L6	 #
 497      00
 498              	L7:
 499              		.loc 1 135 0
 500 05ef A1800000 		movl	LPBX1+128, %eax	 # *LPBX1, PROF_edge_counter.1
 500      00
 501 05f4 8B158400 		movl	LPBX1+132, %edx	 # *LPBX1, PROF_edge_counter.1
 501      0000
 502 05fa 83C001   		addl	$1, %eax	 #, PROF_edge_counter.1
 503 05fd 83D200   		adcl	$0, %edx	 #, PROF_edge_counter.1
 504 0600 A3800000 		movl	%eax, LPBX1+128	 # PROF_edge_counter.1, *LPBX1
 504      00
 505 0605 89158400 		movl	%edx, LPBX1+132	 # PROF_edge_counter.1, *LPBX1
 505      0000
 506              		.loc 1 137 0 is_stmt 1
 507 060b A1180000 		movl	_rlist+24, %eax	 # rlist.r_current, D.2842
 507      00
 508 0610 8B4008   		movl	8(%eax), %eax	 # D.2842_7->p_prio, D.2843
 509 0613 8B54241C 		movl	28(%esp), %edx	 # prio, tmp180
 510 0617 42       		incl	%edx	 # D.2844
 511 0618 39D0     		cmpl	%edx, %eax	 # D.2844, D.2843
 512 061a 0F94C0   		sete	%al	 #, tmp181
 513 061d 0FB6C0   		movzbl	%al, %eax	 # tmp181, D.2845
 514 0620 89442404 		movl	%eax, 4(%esp)	 # D.2845,
 515 0624 C7042402 		movl	$2, (%esp)	 #,
 515      000000
 516 062b E8000000 		call	__test_assert	 #
 516      00
 517 0630 84C0     		testb	%al, %al	 # D.2846
 518 0632 7421     		je	L9	 #,
 519              		.loc 1 137 0 is_stmt 0 discriminator 1
 520 0634 A1980000 		movl	LPBX1+152, %eax	 # *LPBX1, PROF_edge_counter.1
 520      00
 521 0639 8B159C00 		movl	LPBX1+156, %edx	 # *LPBX1, PROF_edge_counter.1
 521      0000
 522 063f 83C001   		addl	$1, %eax	 #, PROF_edge_counter.1
 523 0642 83D200   		adcl	$0, %edx	 #, PROF_edge_counter.1
 524 0645 A3980000 		movl	%eax, LPBX1+152	 # PROF_edge_counter.1, *LPBX1
 524      00
 525 064a 89159C00 		movl	%edx, LPBX1+156	 # PROF_edge_counter.1, *LPBX1
 525      0000
 526 0650 E9C90400 		jmp	L6	 #
 526      00
 527              	L9:
 528              		.loc 1 137 0
 529 0655 A1900000 		movl	LPBX1+144, %eax	 # *LPBX1, PROF_edge_counter.1
GAS LISTING C:\cygwin\tmp\cckjuxoe.s 			page 14


 529      00
 530 065a 8B159400 		movl	LPBX1+148, %edx	 # *LPBX1, PROF_edge_counter.1
 530      0000
 531 0660 83C001   		addl	$1, %eax	 #, PROF_edge_counter.1
 532 0663 83D200   		adcl	$0, %edx	 #, PROF_edge_counter.1
 533 0666 A3900000 		movl	%eax, LPBX1+144	 # PROF_edge_counter.1, *LPBX1
 533      00
 534 066b 89159400 		movl	%edx, LPBX1+148	 # PROF_edge_counter.1, *LPBX1
 534      0000
 535              		.loc 1 139 0 is_stmt 1
 536 0671 8B442418 		movl	24(%esp), %eax	 # p1, tmp182
 537 0675 890424   		movl	%eax, (%esp)	 # tmp182,
 538 0678 E8000000 		call	_chThdSetPriority	 #
 538      00
 539 067d 89442418 		movl	%eax, 24(%esp)	 # tmp183, p1
 540 0681 A1A00000 		movl	LPBX1+160, %eax	 # *LPBX1, PROF_edge_counter.1
 540      00
 541 0686 8B15A400 		movl	LPBX1+164, %edx	 # *LPBX1, PROF_edge_counter.1
 541      0000
 542 068c 83C001   		addl	$1, %eax	 #, PROF_edge_counter.1
 543 068f 83D200   		adcl	$0, %edx	 #, PROF_edge_counter.1
 544 0692 A3A00000 		movl	%eax, LPBX1+160	 # PROF_edge_counter.1, *LPBX1
 544      00
 545 0697 8915A400 		movl	%edx, LPBX1+164	 # PROF_edge_counter.1, *LPBX1
 545      0000
 546              		.loc 1 140 0
 547 069d 8B44241C 		movl	28(%esp), %eax	 # prio, tmp184
 548 06a1 40       		incl	%eax	 # D.2849
 549 06a2 3B442418 		cmpl	24(%esp), %eax	 # p1, D.2849
 550 06a6 0F94C0   		sete	%al	 #, tmp185
 551 06a9 0FB6C0   		movzbl	%al, %eax	 # tmp185, D.2850
 552 06ac 89442404 		movl	%eax, 4(%esp)	 # D.2850,
 553 06b0 C7042403 		movl	$3, (%esp)	 #,
 553      000000
 554 06b7 E8000000 		call	__test_assert	 #
 554      00
 555 06bc 84C0     		testb	%al, %al	 # D.2851
 556 06be 7421     		je	L10	 #,
 557              		.loc 1 140 0 is_stmt 0 discriminator 1
 558 06c0 A1B00000 		movl	LPBX1+176, %eax	 # *LPBX1, PROF_edge_counter.1
 558      00
 559 06c5 8B15B400 		movl	LPBX1+180, %edx	 # *LPBX1, PROF_edge_counter.1
 559      0000
 560 06cb 83C001   		addl	$1, %eax	 #, PROF_edge_counter.1
 561 06ce 83D200   		adcl	$0, %edx	 #, PROF_edge_counter.1
 562 06d1 A3B00000 		movl	%eax, LPBX1+176	 # PROF_edge_counter.1, *LPBX1
 562      00
 563 06d6 8915B400 		movl	%edx, LPBX1+180	 # PROF_edge_counter.1, *LPBX1
 563      0000
 564 06dc E93D0400 		jmp	L6	 #
 564      00
 565              	L10:
 566              		.loc 1 140 0
 567 06e1 A1A80000 		movl	LPBX1+168, %eax	 # *LPBX1, PROF_edge_counter.1
 567      00
 568 06e6 8B15AC00 		movl	LPBX1+172, %edx	 # *LPBX1, PROF_edge_counter.1
 568      0000
GAS LISTING C:\cygwin\tmp\cckjuxoe.s 			page 15


 569 06ec 83C001   		addl	$1, %eax	 #, PROF_edge_counter.1
 570 06ef 83D200   		adcl	$0, %edx	 #, PROF_edge_counter.1
 571 06f2 A3A80000 		movl	%eax, LPBX1+168	 # PROF_edge_counter.1, *LPBX1
 571      00
 572 06f7 8915AC00 		movl	%edx, LPBX1+172	 # PROF_edge_counter.1, *LPBX1
 572      0000
 573              		.loc 1 142 0 is_stmt 1
 574 06fd A1180000 		movl	_rlist+24, %eax	 # rlist.r_current, D.2854
 574      00
 575 0702 8B4008   		movl	8(%eax), %eax	 # D.2854_16->p_prio, D.2855
 576 0705 3B44241C 		cmpl	28(%esp), %eax	 # prio, D.2855
 577 0709 0F94C0   		sete	%al	 #, tmp186
 578 070c 0FB6C0   		movzbl	%al, %eax	 # tmp186, D.2856
 579 070f 89442404 		movl	%eax, 4(%esp)	 # D.2856,
 580 0713 C7042404 		movl	$4, (%esp)	 #,
 580      000000
 581 071a E8000000 		call	__test_assert	 #
 581      00
 582 071f 84C0     		testb	%al, %al	 # D.2857
 583 0721 7421     		je	L11	 #,
 584              		.loc 1 142 0 is_stmt 0 discriminator 1
 585 0723 A1C00000 		movl	LPBX1+192, %eax	 # *LPBX1, PROF_edge_counter.1
 585      00
 586 0728 8B15C400 		movl	LPBX1+196, %edx	 # *LPBX1, PROF_edge_counter.1
 586      0000
 587 072e 83C001   		addl	$1, %eax	 #, PROF_edge_counter.1
 588 0731 83D200   		adcl	$0, %edx	 #, PROF_edge_counter.1
 589 0734 A3C00000 		movl	%eax, LPBX1+192	 # PROF_edge_counter.1, *LPBX1
 589      00
 590 0739 8915C400 		movl	%edx, LPBX1+196	 # PROF_edge_counter.1, *LPBX1
 590      0000
 591 073f E9DA0300 		jmp	L6	 #
 591      00
 592              	L11:
 593              		.loc 1 142 0
 594 0744 A1B80000 		movl	LPBX1+184, %eax	 # *LPBX1, PROF_edge_counter.1
 594      00
 595 0749 8B15BC00 		movl	LPBX1+188, %edx	 # *LPBX1, PROF_edge_counter.1
 595      0000
 596 074f 83C001   		addl	$1, %eax	 #, PROF_edge_counter.1
 597 0752 83D200   		adcl	$0, %edx	 #, PROF_edge_counter.1
 598 0755 A3B80000 		movl	%eax, LPBX1+184	 # PROF_edge_counter.1, *LPBX1
 598      00
 599 075a 8915BC00 		movl	%edx, LPBX1+188	 # PROF_edge_counter.1, *LPBX1
 599      0000
 600              		.loc 1 147 0 is_stmt 1
 601              	/APP
 602              	 # 147 "../../test/testthd.c" 1
 603 0760 90       		nop
 604              	 # 0 "" 2
 605              	/NO_APP
 606 0761 A1C80000 		movl	LPBX1+200, %eax	 # *LPBX1, PROF_edge_counter.1
 606      00
 607 0766 8B15CC00 		movl	LPBX1+204, %edx	 # *LPBX1, PROF_edge_counter.1
 607      0000
 608 076c 83C001   		addl	$1, %eax	 #, PROF_edge_counter.1
 609 076f 83D200   		adcl	$0, %edx	 #, PROF_edge_counter.1
GAS LISTING C:\cygwin\tmp\cckjuxoe.s 			page 16


 610 0772 A3C80000 		movl	%eax, LPBX1+200	 # PROF_edge_counter.1, *LPBX1
 610      00
 611 0777 8915CC00 		movl	%edx, LPBX1+204	 # PROF_edge_counter.1, *LPBX1
 611      0000
 612              		.loc 1 148 0
 613 077d A1180000 		movl	_rlist+24, %eax	 # rlist.r_current, D.2860
 613      00
 614 0782 8B151800 		movl	_rlist+24, %edx	 # rlist.r_current, D.2861
 614      0000
 615 0788 8B5208   		movl	8(%edx), %edx	 # D.2861_21->p_prio, D.2862
 616 078b 83C202   		addl	$2, %edx	 #, D.2863
 617 078e 895008   		movl	%edx, 8(%eax)	 # D.2863, D.2860_20->p_prio
 618              		.loc 1 149 0
 619              	/APP
 620              	 # 149 "../../test/testthd.c" 1
 621 0791 90       		nop
 622              	 # 0 "" 2
 623              	/NO_APP
 624 0792 A1D00000 		movl	LPBX1+208, %eax	 # *LPBX1, PROF_edge_counter.1
 624      00
 625 0797 8B15D400 		movl	LPBX1+212, %edx	 # *LPBX1, PROF_edge_counter.1
 625      0000
 626 079d 83C001   		addl	$1, %eax	 #, PROF_edge_counter.1
 627 07a0 83D200   		adcl	$0, %edx	 #, PROF_edge_counter.1
 628 07a3 A3D00000 		movl	%eax, LPBX1+208	 # PROF_edge_counter.1, *LPBX1
 628      00
 629 07a8 8915D400 		movl	%edx, LPBX1+212	 # PROF_edge_counter.1, *LPBX1
 629      0000
 630              		.loc 1 150 0
 631 07ae A1180000 		movl	_rlist+24, %eax	 # rlist.r_current, D.2864
 631      00
 632 07b3 8B4008   		movl	8(%eax), %eax	 # D.2864_24->p_prio, D.2865
 633 07b6 8B54241C 		movl	28(%esp), %edx	 # prio, tmp187
 634 07ba 83C202   		addl	$2, %edx	 #, D.2866
 635 07bd 39D0     		cmpl	%edx, %eax	 # D.2866, D.2865
 636 07bf 0F94C0   		sete	%al	 #, tmp188
 637 07c2 0FB6C0   		movzbl	%al, %eax	 # tmp188, D.2867
 638 07c5 89442404 		movl	%eax, 4(%esp)	 # D.2867,
 639 07c9 C7042405 		movl	$5, (%esp)	 #,
 639      000000
 640 07d0 E8000000 		call	__test_assert	 #
 640      00
 641 07d5 84C0     		testb	%al, %al	 # D.2868
 642 07d7 7421     		je	L12	 #,
 643              		.loc 1 150 0 is_stmt 0 discriminator 1
 644 07d9 A1E00000 		movl	LPBX1+224, %eax	 # *LPBX1, PROF_edge_counter.1
 644      00
 645 07de 8B15E400 		movl	LPBX1+228, %edx	 # *LPBX1, PROF_edge_counter.1
 645      0000
 646 07e4 83C001   		addl	$1, %eax	 #, PROF_edge_counter.1
 647 07e7 83D200   		adcl	$0, %edx	 #, PROF_edge_counter.1
 648 07ea A3E00000 		movl	%eax, LPBX1+224	 # PROF_edge_counter.1, *LPBX1
 648      00
 649 07ef 8915E400 		movl	%edx, LPBX1+228	 # PROF_edge_counter.1, *LPBX1
 649      0000
 650 07f5 E9240300 		jmp	L6	 #
 650      00
GAS LISTING C:\cygwin\tmp\cckjuxoe.s 			page 17


 651              	L12:
 652              		.loc 1 150 0
 653 07fa A1D80000 		movl	LPBX1+216, %eax	 # *LPBX1, PROF_edge_counter.1
 653      00
 654 07ff 8B15DC00 		movl	LPBX1+220, %edx	 # *LPBX1, PROF_edge_counter.1
 654      0000
 655 0805 83C001   		addl	$1, %eax	 #, PROF_edge_counter.1
 656 0808 83D200   		adcl	$0, %edx	 #, PROF_edge_counter.1
 657 080b A3D80000 		movl	%eax, LPBX1+216	 # PROF_edge_counter.1, *LPBX1
 657      00
 658 0810 8915DC00 		movl	%edx, LPBX1+220	 # PROF_edge_counter.1, *LPBX1
 658      0000
 659              		.loc 1 154 0 is_stmt 1
 660 0816 8B44241C 		movl	28(%esp), %eax	 # prio, tmp189
 661 081a 40       		incl	%eax	 # D.2871
 662 081b 890424   		movl	%eax, (%esp)	 # D.2871,
 663 081e E8000000 		call	_chThdSetPriority	 #
 663      00
 664 0823 89442418 		movl	%eax, 24(%esp)	 # tmp190, p1
 665 0827 A1E80000 		movl	LPBX1+232, %eax	 # *LPBX1, PROF_edge_counter.1
 665      00
 666 082c 8B15EC00 		movl	LPBX1+236, %edx	 # *LPBX1, PROF_edge_counter.1
 666      0000
 667 0832 83C001   		addl	$1, %eax	 #, PROF_edge_counter.1
 668 0835 83D200   		adcl	$0, %edx	 #, PROF_edge_counter.1
 669 0838 A3E80000 		movl	%eax, LPBX1+232	 # PROF_edge_counter.1, *LPBX1
 669      00
 670 083d 8915EC00 		movl	%edx, LPBX1+236	 # PROF_edge_counter.1, *LPBX1
 670      0000
 671              		.loc 1 155 0
 672 0843 8B442418 		movl	24(%esp), %eax	 # p1, tmp192
 673 0847 3B44241C 		cmpl	28(%esp), %eax	 # prio, tmp192
 674 084b 0F94C0   		sete	%al	 #, tmp191
 675 084e 0FB6C0   		movzbl	%al, %eax	 # tmp191, D.2872
 676 0851 89442404 		movl	%eax, 4(%esp)	 # D.2872,
 677 0855 C7042406 		movl	$6, (%esp)	 #,
 677      000000
 678 085c E8000000 		call	__test_assert	 #
 678      00
 679 0861 84C0     		testb	%al, %al	 # D.2873
 680 0863 7421     		je	L13	 #,
 681              		.loc 1 155 0 is_stmt 0 discriminator 1
 682 0865 A1F80000 		movl	LPBX1+248, %eax	 # *LPBX1, PROF_edge_counter.1
 682      00
 683 086a 8B15FC00 		movl	LPBX1+252, %edx	 # *LPBX1, PROF_edge_counter.1
 683      0000
 684 0870 83C001   		addl	$1, %eax	 #, PROF_edge_counter.1
 685 0873 83D200   		adcl	$0, %edx	 #, PROF_edge_counter.1
 686 0876 A3F80000 		movl	%eax, LPBX1+248	 # PROF_edge_counter.1, *LPBX1
 686      00
 687 087b 8915FC00 		movl	%edx, LPBX1+252	 # PROF_edge_counter.1, *LPBX1
 687      0000
 688 0881 E9980200 		jmp	L6	 #
 688      00
 689              	L13:
 690              		.loc 1 155 0
 691 0886 A1F00000 		movl	LPBX1+240, %eax	 # *LPBX1, PROF_edge_counter.1
GAS LISTING C:\cygwin\tmp\cckjuxoe.s 			page 18


 691      00
 692 088b 8B15F400 		movl	LPBX1+244, %edx	 # *LPBX1, PROF_edge_counter.1
 692      0000
 693 0891 83C001   		addl	$1, %eax	 #, PROF_edge_counter.1
 694 0894 83D200   		adcl	$0, %edx	 #, PROF_edge_counter.1
 695 0897 A3F00000 		movl	%eax, LPBX1+240	 # PROF_edge_counter.1, *LPBX1
 695      00
 696 089c 8915F400 		movl	%edx, LPBX1+244	 # PROF_edge_counter.1, *LPBX1
 696      0000
 697              		.loc 1 157 0 is_stmt 1
 698 08a2 A1180000 		movl	_rlist+24, %eax	 # rlist.r_current, D.2876
 698      00
 699 08a7 8B4008   		movl	8(%eax), %eax	 # D.2876_33->p_prio, D.2877
 700 08aa 8B54241C 		movl	28(%esp), %edx	 # prio, tmp193
 701 08ae 83C202   		addl	$2, %edx	 #, D.2878
 702 08b1 39D0     		cmpl	%edx, %eax	 # D.2878, D.2877
 703 08b3 0F94C0   		sete	%al	 #, tmp194
 704 08b6 0FB6C0   		movzbl	%al, %eax	 # tmp194, D.2879
 705 08b9 89442404 		movl	%eax, 4(%esp)	 # D.2879,
 706 08bd C7042407 		movl	$7, (%esp)	 #,
 706      000000
 707 08c4 E8000000 		call	__test_assert	 #
 707      00
 708 08c9 84C0     		testb	%al, %al	 # D.2880
 709 08cb 7421     		je	L14	 #,
 710              		.loc 1 157 0 is_stmt 0 discriminator 1
 711 08cd A1080100 		movl	LPBX1+264, %eax	 # *LPBX1, PROF_edge_counter.1
 711      00
 712 08d2 8B150C01 		movl	LPBX1+268, %edx	 # *LPBX1, PROF_edge_counter.1
 712      0000
 713 08d8 83C001   		addl	$1, %eax	 #, PROF_edge_counter.1
 714 08db 83D200   		adcl	$0, %edx	 #, PROF_edge_counter.1
 715 08de A3080100 		movl	%eax, LPBX1+264	 # PROF_edge_counter.1, *LPBX1
 715      00
 716 08e3 89150C01 		movl	%edx, LPBX1+268	 # PROF_edge_counter.1, *LPBX1
 716      0000
 717 08e9 E9300200 		jmp	L6	 #
 717      00
 718              	L14:
 719              		.loc 1 157 0
 720 08ee A1000100 		movl	LPBX1+256, %eax	 # *LPBX1, PROF_edge_counter.1
 720      00
 721 08f3 8B150401 		movl	LPBX1+260, %edx	 # *LPBX1, PROF_edge_counter.1
 721      0000
 722 08f9 83C001   		addl	$1, %eax	 #, PROF_edge_counter.1
 723 08fc 83D200   		adcl	$0, %edx	 #, PROF_edge_counter.1
 724 08ff A3000100 		movl	%eax, LPBX1+256	 # PROF_edge_counter.1, *LPBX1
 724      00
 725 0904 89150401 		movl	%edx, LPBX1+260	 # PROF_edge_counter.1, *LPBX1
 725      0000
 726              		.loc 1 159 0 is_stmt 1
 727 090a A1180000 		movl	_rlist+24, %eax	 # rlist.r_current, D.2883
 727      00
 728 090f 8B4040   		movl	64(%eax), %eax	 # D.2883_38->p_realprio, D.2884
 729 0912 8B54241C 		movl	28(%esp), %edx	 # prio, tmp195
 730 0916 42       		incl	%edx	 # D.2885
 731 0917 39D0     		cmpl	%edx, %eax	 # D.2885, D.2884
GAS LISTING C:\cygwin\tmp\cckjuxoe.s 			page 19


 732 0919 0F94C0   		sete	%al	 #, tmp196
 733 091c 0FB6C0   		movzbl	%al, %eax	 # tmp196, D.2886
 734 091f 89442404 		movl	%eax, 4(%esp)	 # D.2886,
 735 0923 C7042408 		movl	$8, (%esp)	 #,
 735      000000
 736 092a E8000000 		call	__test_assert	 #
 736      00
 737 092f 84C0     		testb	%al, %al	 # D.2887
 738 0931 7421     		je	L15	 #,
 739              		.loc 1 159 0 is_stmt 0 discriminator 1
 740 0933 A1180100 		movl	LPBX1+280, %eax	 # *LPBX1, PROF_edge_counter.1
 740      00
 741 0938 8B151C01 		movl	LPBX1+284, %edx	 # *LPBX1, PROF_edge_counter.1
 741      0000
 742 093e 83C001   		addl	$1, %eax	 #, PROF_edge_counter.1
 743 0941 83D200   		adcl	$0, %edx	 #, PROF_edge_counter.1
 744 0944 A3180100 		movl	%eax, LPBX1+280	 # PROF_edge_counter.1, *LPBX1
 744      00
 745 0949 89151C01 		movl	%edx, LPBX1+284	 # PROF_edge_counter.1, *LPBX1
 745      0000
 746 094f E9CA0100 		jmp	L6	 #
 746      00
 747              	L15:
 748              		.loc 1 159 0
 749 0954 A1100100 		movl	LPBX1+272, %eax	 # *LPBX1, PROF_edge_counter.1
 749      00
 750 0959 8B151401 		movl	LPBX1+276, %edx	 # *LPBX1, PROF_edge_counter.1
 750      0000
 751 095f 83C001   		addl	$1, %eax	 #, PROF_edge_counter.1
 752 0962 83D200   		adcl	$0, %edx	 #, PROF_edge_counter.1
 753 0965 A3100100 		movl	%eax, LPBX1+272	 # PROF_edge_counter.1, *LPBX1
 753      00
 754 096a 89151401 		movl	%edx, LPBX1+276	 # PROF_edge_counter.1, *LPBX1
 754      0000
 755              		.loc 1 163 0 is_stmt 1
 756 0970 8B44241C 		movl	28(%esp), %eax	 # prio, tmp197
 757 0974 83C003   		addl	$3, %eax	 #, D.2890
 758 0977 890424   		movl	%eax, (%esp)	 # D.2890,
 759 097a E8000000 		call	_chThdSetPriority	 #
 759      00
 760 097f 89442418 		movl	%eax, 24(%esp)	 # tmp198, p1
 761 0983 A1200100 		movl	LPBX1+288, %eax	 # *LPBX1, PROF_edge_counter.1
 761      00
 762 0988 8B152401 		movl	LPBX1+292, %edx	 # *LPBX1, PROF_edge_counter.1
 762      0000
 763 098e 83C001   		addl	$1, %eax	 #, PROF_edge_counter.1
 764 0991 83D200   		adcl	$0, %edx	 #, PROF_edge_counter.1
 765 0994 A3200100 		movl	%eax, LPBX1+288	 # PROF_edge_counter.1, *LPBX1
 765      00
 766 0999 89152401 		movl	%edx, LPBX1+292	 # PROF_edge_counter.1, *LPBX1
 766      0000
 767              		.loc 1 164 0
 768 099f 8B44241C 		movl	28(%esp), %eax	 # prio, tmp199
 769 09a3 40       		incl	%eax	 # D.2891
 770 09a4 3B442418 		cmpl	24(%esp), %eax	 # p1, D.2891
 771 09a8 0F94C0   		sete	%al	 #, tmp200
 772 09ab 0FB6C0   		movzbl	%al, %eax	 # tmp200, D.2892
GAS LISTING C:\cygwin\tmp\cckjuxoe.s 			page 20


 773 09ae 89442404 		movl	%eax, 4(%esp)	 # D.2892,
 774 09b2 C7042409 		movl	$9, (%esp)	 #,
 774      000000
 775 09b9 E8000000 		call	__test_assert	 #
 775      00
 776 09be 84C0     		testb	%al, %al	 # D.2893
 777 09c0 7421     		je	L16	 #,
 778              		.loc 1 164 0 is_stmt 0 discriminator 1
 779 09c2 A1300100 		movl	LPBX1+304, %eax	 # *LPBX1, PROF_edge_counter.1
 779      00
 780 09c7 8B153401 		movl	LPBX1+308, %edx	 # *LPBX1, PROF_edge_counter.1
 780      0000
 781 09cd 83C001   		addl	$1, %eax	 #, PROF_edge_counter.1
 782 09d0 83D200   		adcl	$0, %edx	 #, PROF_edge_counter.1
 783 09d3 A3300100 		movl	%eax, LPBX1+304	 # PROF_edge_counter.1, *LPBX1
 783      00
 784 09d8 89153401 		movl	%edx, LPBX1+308	 # PROF_edge_counter.1, *LPBX1
 784      0000
 785 09de E93B0100 		jmp	L6	 #
 785      00
 786              	L16:
 787              		.loc 1 164 0
 788 09e3 A1280100 		movl	LPBX1+296, %eax	 # *LPBX1, PROF_edge_counter.1
 788      00
 789 09e8 8B152C01 		movl	LPBX1+300, %edx	 # *LPBX1, PROF_edge_counter.1
 789      0000
 790 09ee 83C001   		addl	$1, %eax	 #, PROF_edge_counter.1
 791 09f1 83D200   		adcl	$0, %edx	 #, PROF_edge_counter.1
 792 09f4 A3280100 		movl	%eax, LPBX1+296	 # PROF_edge_counter.1, *LPBX1
 792      00
 793 09f9 89152C01 		movl	%edx, LPBX1+300	 # PROF_edge_counter.1, *LPBX1
 793      0000
 794              		.loc 1 166 0 is_stmt 1
 795 09ff A1180000 		movl	_rlist+24, %eax	 # rlist.r_current, D.2896
 795      00
 796 0a04 8B4008   		movl	8(%eax), %eax	 # D.2896_48->p_prio, D.2897
 797 0a07 8B54241C 		movl	28(%esp), %edx	 # prio, tmp201
 798 0a0b 83C203   		addl	$3, %edx	 #, D.2898
 799 0a0e 39D0     		cmpl	%edx, %eax	 # D.2898, D.2897
 800 0a10 0F94C0   		sete	%al	 #, tmp202
 801 0a13 0FB6C0   		movzbl	%al, %eax	 # tmp202, D.2899
 802 0a16 89442404 		movl	%eax, 4(%esp)	 # D.2899,
 803 0a1a C704240A 		movl	$10, (%esp)	 #,
 803      000000
 804 0a21 E8000000 		call	__test_assert	 #
 804      00
 805 0a26 84C0     		testb	%al, %al	 # D.2900
 806 0a28 7421     		je	L17	 #,
 807              		.loc 1 166 0 is_stmt 0 discriminator 1
 808 0a2a A1400100 		movl	LPBX1+320, %eax	 # *LPBX1, PROF_edge_counter.1
 808      00
 809 0a2f 8B154401 		movl	LPBX1+324, %edx	 # *LPBX1, PROF_edge_counter.1
 809      0000
 810 0a35 83C001   		addl	$1, %eax	 #, PROF_edge_counter.1
 811 0a38 83D200   		adcl	$0, %edx	 #, PROF_edge_counter.1
 812 0a3b A3400100 		movl	%eax, LPBX1+320	 # PROF_edge_counter.1, *LPBX1
 812      00
GAS LISTING C:\cygwin\tmp\cckjuxoe.s 			page 21


 813 0a40 89154401 		movl	%edx, LPBX1+324	 # PROF_edge_counter.1, *LPBX1
 813      0000
 814 0a46 E9D30000 		jmp	L6	 #
 814      00
 815              	L17:
 816              		.loc 1 166 0
 817 0a4b A1380100 		movl	LPBX1+312, %eax	 # *LPBX1, PROF_edge_counter.1
 817      00
 818 0a50 8B153C01 		movl	LPBX1+316, %edx	 # *LPBX1, PROF_edge_counter.1
 818      0000
 819 0a56 83C001   		addl	$1, %eax	 #, PROF_edge_counter.1
 820 0a59 83D200   		adcl	$0, %edx	 #, PROF_edge_counter.1
 821 0a5c A3380100 		movl	%eax, LPBX1+312	 # PROF_edge_counter.1, *LPBX1
 821      00
 822 0a61 89153C01 		movl	%edx, LPBX1+316	 # PROF_edge_counter.1, *LPBX1
 822      0000
 823              		.loc 1 168 0 is_stmt 1
 824 0a67 A1180000 		movl	_rlist+24, %eax	 # rlist.r_current, D.2903
 824      00
 825 0a6c 8B4040   		movl	64(%eax), %eax	 # D.2903_53->p_realprio, D.2904
 826 0a6f 8B54241C 		movl	28(%esp), %edx	 # prio, tmp203
 827 0a73 83C203   		addl	$3, %edx	 #, D.2905
 828 0a76 39D0     		cmpl	%edx, %eax	 # D.2905, D.2904
 829 0a78 0F94C0   		sete	%al	 #, tmp204
 830 0a7b 0FB6C0   		movzbl	%al, %eax	 # tmp204, D.2906
 831 0a7e 89442404 		movl	%eax, 4(%esp)	 # D.2906,
 832 0a82 C704240B 		movl	$11, (%esp)	 #,
 832      000000
 833 0a89 E8000000 		call	__test_assert	 #
 833      00
 834 0a8e 84C0     		testb	%al, %al	 # D.2907
 835 0a90 741E     		je	L18	 #,
 836              		.loc 1 168 0 is_stmt 0 discriminator 1
 837 0a92 A1500100 		movl	LPBX1+336, %eax	 # *LPBX1, PROF_edge_counter.1
 837      00
 838 0a97 8B155401 		movl	LPBX1+340, %edx	 # *LPBX1, PROF_edge_counter.1
 838      0000
 839 0a9d 83C001   		addl	$1, %eax	 #, PROF_edge_counter.1
 840 0aa0 83D200   		adcl	$0, %edx	 #, PROF_edge_counter.1
 841 0aa3 A3500100 		movl	%eax, LPBX1+336	 # PROF_edge_counter.1, *LPBX1
 841      00
 842 0aa8 89155401 		movl	%edx, LPBX1+340	 # PROF_edge_counter.1, *LPBX1
 842      0000
 843 0aae EB6E     		jmp	L6	 #
 844              	L18:
 845              		.loc 1 168 0
 846 0ab0 A1480100 		movl	LPBX1+328, %eax	 # *LPBX1, PROF_edge_counter.1
 846      00
 847 0ab5 8B154C01 		movl	LPBX1+332, %edx	 # *LPBX1, PROF_edge_counter.1
 847      0000
 848 0abb 83C001   		addl	$1, %eax	 #, PROF_edge_counter.1
 849 0abe 83D200   		adcl	$0, %edx	 #, PROF_edge_counter.1
 850 0ac1 A3480100 		movl	%eax, LPBX1+328	 # PROF_edge_counter.1, *LPBX1
 850      00
 851 0ac6 89154C01 		movl	%edx, LPBX1+332	 # PROF_edge_counter.1, *LPBX1
 851      0000
 852              		.loc 1 171 0 is_stmt 1
GAS LISTING C:\cygwin\tmp\cckjuxoe.s 			page 22


 853              	/APP
 854              	 # 171 "../../test/testthd.c" 1
 855 0acc 90       		nop
 856              	 # 0 "" 2
 857              	/NO_APP
 858 0acd A1580100 		movl	LPBX1+344, %eax	 # *LPBX1, PROF_edge_counter.1
 858      00
 859 0ad2 8B155C01 		movl	LPBX1+348, %edx	 # *LPBX1, PROF_edge_counter.1
 859      0000
 860 0ad8 83C001   		addl	$1, %eax	 #, PROF_edge_counter.1
 861 0adb 83D200   		adcl	$0, %edx	 #, PROF_edge_counter.1
 862 0ade A3580100 		movl	%eax, LPBX1+344	 # PROF_edge_counter.1, *LPBX1
 862      00
 863 0ae3 89155C01 		movl	%edx, LPBX1+348	 # PROF_edge_counter.1, *LPBX1
 863      0000
 864              		.loc 1 172 0
 865 0ae9 A1180000 		movl	_rlist+24, %eax	 # rlist.r_current, D.2910
 865      00
 866 0aee 8B54241C 		movl	28(%esp), %edx	 # prio, tmp205
 867 0af2 895008   		movl	%edx, 8(%eax)	 # tmp205, D.2910_58->p_prio
 868              		.loc 1 173 0
 869 0af5 A1180000 		movl	_rlist+24, %eax	 # rlist.r_current, D.2911
 869      00
 870 0afa 8B54241C 		movl	28(%esp), %edx	 # prio, tmp206
 871 0afe 895040   		movl	%edx, 64(%eax)	 # tmp206, D.2911_59->p_realprio
 872              		.loc 1 174 0
 873              	/APP
 874              	 # 174 "../../test/testthd.c" 1
 875 0b01 90       		nop
 876              	 # 0 "" 2
 877              	/NO_APP
 878 0b02 A1600100 		movl	LPBX1+352, %eax	 # *LPBX1, PROF_edge_counter.1
 878      00
 879 0b07 8B156401 		movl	LPBX1+356, %edx	 # *LPBX1, PROF_edge_counter.1
 879      0000
 880 0b0d 83C001   		addl	$1, %eax	 #, PROF_edge_counter.1
 881 0b10 83D200   		adcl	$0, %edx	 #, PROF_edge_counter.1
 882 0b13 A3600100 		movl	%eax, LPBX1+352	 # PROF_edge_counter.1, *LPBX1
 882      00
 883 0b18 89156401 		movl	%edx, LPBX1+356	 # PROF_edge_counter.1, *LPBX1
 883      0000
 884              	L6:
 885              		.loc 1 176 0
 886 0b1e 83C42C   		addl	$44, %esp	 #,
 887              	LCFI7:
 888              		.cfi_def_cfa_offset 4
 889 0b21 C3       		ret
 890              		.cfi_endproc
 891              	LFE3:
 892              		.globl	_testthd3
 893              		.section .rdata,"dr"
 894              	LC8:
 895 0068 54687265 		.ascii "Threads, priority change\0"
 895      6164732C 
 895      20707269 
 895      6F726974 
 895      79206368 
GAS LISTING C:\cygwin\tmp\cckjuxoe.s 			page 23


 896 0081 000000   		.align 4
 897              	_testthd3:
 898              	 # name:
 899 0084 68000000 		.long	LC8
 900              	 # setup:
 901 0088 00000000 		.long	0
 902              	 # teardown:
 903 008c 00000000 		.long	0
 904              	 # execute:
 905 0090 54050000 		.long	_thd3_execute
 906              		.text
 907              		.def	_thd4_execute;	.scl	3;	.type	32;	.endef
 908              	_thd4_execute:
 909              	LFB4:
 910              		.loc 1 193 0
 911              		.cfi_startproc
 912 0b22 83EC2C   		subl	$44, %esp	 #,
 913              	LCFI8:
 914              		.cfi_def_cfa_offset 48
 915              		.loc 1 193 0
 916 0b25 A1000000 		movl	LPBX1, %eax	 # *LPBX1, PROF_edge_counter.0
 916      00
 917 0b2a 8B150400 		movl	LPBX1+4, %edx	 # *LPBX1, PROF_edge_counter.0
 917      0000
 918 0b30 83C001   		addl	$1, %eax	 #, PROF_edge_counter.0
 919 0b33 83D200   		adcl	$0, %edx	 #, PROF_edge_counter.0
 920 0b36 A3000000 		movl	%eax, LPBX1	 # PROF_edge_counter.0, *LPBX1
 920      00
 921 0b3b 89150400 		movl	%edx, LPBX1+4	 # PROF_edge_counter.0, *LPBX1
 921      0000
 922              		.loc 1 196 0
 923 0b41 E8000000 		call	_test_wait_tick	 #
 923      00
 924 0b46 A1080000 		movl	LPBX1+8, %eax	 # *LPBX1, PROF_edge_counter.0
 924      00
 925 0b4b 8B150C00 		movl	LPBX1+12, %edx	 # *LPBX1, PROF_edge_counter.0
 925      0000
 926 0b51 83C001   		addl	$1, %eax	 #, PROF_edge_counter.0
 927 0b54 83D200   		adcl	$0, %edx	 #, PROF_edge_counter.0
 928 0b57 A3080000 		movl	%eax, LPBX1+8	 # PROF_edge_counter.0, *LPBX1
 928      00
 929 0b5c 89150C00 		movl	%edx, LPBX1+12	 # PROF_edge_counter.0, *LPBX1
 929      0000
 930              		.loc 1 199 0
 931 0b62 A10C0000 		movl	_vtlist+12, %eax	 # vtlist.vt_systime, tmp99
 931      00
 932 0b67 8944241C 		movl	%eax, 28(%esp)	 # tmp99, time
 933              		.loc 1 200 0
 934 0b6b C7042464 		movl	$100, (%esp)	 #,
 934      000000
 935 0b72 E8000000 		call	_chThdSleep	 #
 935      00
 936 0b77 A1100000 		movl	LPBX1+16, %eax	 # *LPBX1, PROF_edge_counter.0
 936      00
 937 0b7c 8B151400 		movl	LPBX1+20, %edx	 # *LPBX1, PROF_edge_counter.0
 937      0000
 938 0b82 83C001   		addl	$1, %eax	 #, PROF_edge_counter.0
GAS LISTING C:\cygwin\tmp\cckjuxoe.s 			page 24


 939 0b85 83D200   		adcl	$0, %edx	 #, PROF_edge_counter.0
 940 0b88 A3100000 		movl	%eax, LPBX1+16	 # PROF_edge_counter.0, *LPBX1
 940      00
 941 0b8d 89151400 		movl	%edx, LPBX1+20	 # PROF_edge_counter.0, *LPBX1
 941      0000
 942              		.loc 1 201 0
 943 0b93 8B44241C 		movl	28(%esp), %eax	 # time, tmp100
 944 0b97 8D5065   		leal	101(%eax), %edx	 #, D.2815
 945 0b9a 8B44241C 		movl	28(%esp), %eax	 # time, tmp101
 946 0b9e 83C064   		addl	$100, %eax	 #, D.2816
 947 0ba1 89542408 		movl	%edx, 8(%esp)	 # D.2815,
 948 0ba5 89442404 		movl	%eax, 4(%esp)	 # D.2816,
 949 0ba9 C7042401 		movl	$1, (%esp)	 #,
 949      000000
 950 0bb0 E8000000 		call	__test_assert_time_window	 #
 950      00
 951 0bb5 84C0     		testb	%al, %al	 # D.2817
 952 0bb7 7421     		je	L20	 #,
 953              		.loc 1 201 0 is_stmt 0 discriminator 1
 954 0bb9 A1200000 		movl	LPBX1+32, %eax	 # *LPBX1, PROF_edge_counter.0
 954      00
 955 0bbe 8B152400 		movl	LPBX1+36, %edx	 # *LPBX1, PROF_edge_counter.0
 955      0000
 956 0bc4 83C001   		addl	$1, %eax	 #, PROF_edge_counter.0
 957 0bc7 83D200   		adcl	$0, %edx	 #, PROF_edge_counter.0
 958 0bca A3200000 		movl	%eax, LPBX1+32	 # PROF_edge_counter.0, *LPBX1
 958      00
 959 0bcf 89152400 		movl	%edx, LPBX1+36	 # PROF_edge_counter.0, *LPBX1
 959      0000
 960 0bd5 E9D80100 		jmp	L19	 #
 960      00
 961              	L20:
 962              		.loc 1 201 0
 963 0bda A1180000 		movl	LPBX1+24, %eax	 # *LPBX1, PROF_edge_counter.0
 963      00
 964 0bdf 8B151C00 		movl	LPBX1+28, %edx	 # *LPBX1, PROF_edge_counter.0
 964      0000
 965 0be5 83C001   		addl	$1, %eax	 #, PROF_edge_counter.0
 966 0be8 83D200   		adcl	$0, %edx	 #, PROF_edge_counter.0
 967 0beb A3180000 		movl	%eax, LPBX1+24	 # PROF_edge_counter.0, *LPBX1
 967      00
 968 0bf0 89151C00 		movl	%edx, LPBX1+28	 # PROF_edge_counter.0, *LPBX1
 968      0000
 969              		.loc 1 204 0 is_stmt 1
 970 0bf6 A10C0000 		movl	_vtlist+12, %eax	 # vtlist.vt_systime, tmp102
 970      00
 971 0bfb 8944241C 		movl	%eax, 28(%esp)	 # tmp102, time
 972              		.loc 1 205 0
 973 0bff C7042464 		movl	$100, (%esp)	 #,
 973      000000
 974 0c06 E8000000 		call	_chThdSleep	 #
 974      00
 975 0c0b A1280000 		movl	LPBX1+40, %eax	 # *LPBX1, PROF_edge_counter.0
 975      00
 976 0c10 8B152C00 		movl	LPBX1+44, %edx	 # *LPBX1, PROF_edge_counter.0
 976      0000
 977 0c16 83C001   		addl	$1, %eax	 #, PROF_edge_counter.0
GAS LISTING C:\cygwin\tmp\cckjuxoe.s 			page 25


 978 0c19 83D200   		adcl	$0, %edx	 #, PROF_edge_counter.0
 979 0c1c A3280000 		movl	%eax, LPBX1+40	 # PROF_edge_counter.0, *LPBX1
 979      00
 980 0c21 89152C00 		movl	%edx, LPBX1+44	 # PROF_edge_counter.0, *LPBX1
 980      0000
 981              		.loc 1 206 0
 982 0c27 8B44241C 		movl	28(%esp), %eax	 # time, tmp103
 983 0c2b 8D5065   		leal	101(%eax), %edx	 #, D.2820
 984 0c2e 8B44241C 		movl	28(%esp), %eax	 # time, tmp104
 985 0c32 83C064   		addl	$100, %eax	 #, D.2821
 986 0c35 89542408 		movl	%edx, 8(%esp)	 # D.2820,
 987 0c39 89442404 		movl	%eax, 4(%esp)	 # D.2821,
 988 0c3d C7042402 		movl	$2, (%esp)	 #,
 988      000000
 989 0c44 E8000000 		call	__test_assert_time_window	 #
 989      00
 990 0c49 84C0     		testb	%al, %al	 # D.2822
 991 0c4b 7421     		je	L22	 #,
 992              		.loc 1 206 0 is_stmt 0 discriminator 1
 993 0c4d A1380000 		movl	LPBX1+56, %eax	 # *LPBX1, PROF_edge_counter.0
 993      00
 994 0c52 8B153C00 		movl	LPBX1+60, %edx	 # *LPBX1, PROF_edge_counter.0
 994      0000
 995 0c58 83C001   		addl	$1, %eax	 #, PROF_edge_counter.0
 996 0c5b 83D200   		adcl	$0, %edx	 #, PROF_edge_counter.0
 997 0c5e A3380000 		movl	%eax, LPBX1+56	 # PROF_edge_counter.0, *LPBX1
 997      00
 998 0c63 89153C00 		movl	%edx, LPBX1+60	 # PROF_edge_counter.0, *LPBX1
 998      0000
 999 0c69 E9440100 		jmp	L19	 #
 999      00
 1000              	L22:
 1001              		.loc 1 206 0
 1002 0c6e A1300000 		movl	LPBX1+48, %eax	 # *LPBX1, PROF_edge_counter.0
 1002      00
 1003 0c73 8B153400 		movl	LPBX1+52, %edx	 # *LPBX1, PROF_edge_counter.0
 1003      0000
 1004 0c79 83C001   		addl	$1, %eax	 #, PROF_edge_counter.0
 1005 0c7c 83D200   		adcl	$0, %edx	 #, PROF_edge_counter.0
 1006 0c7f A3300000 		movl	%eax, LPBX1+48	 # PROF_edge_counter.0, *LPBX1
 1006      00
 1007 0c84 89153400 		movl	%edx, LPBX1+52	 # PROF_edge_counter.0, *LPBX1
 1007      0000
 1008              		.loc 1 209 0 is_stmt 1
 1009 0c8a A10C0000 		movl	_vtlist+12, %eax	 # vtlist.vt_systime, tmp105
 1009      00
 1010 0c8f 8944241C 		movl	%eax, 28(%esp)	 # tmp105, time
 1011              		.loc 1 210 0
 1012 0c93 C70424E8 		movl	$1000, (%esp)	 #,
 1012      030000
 1013 0c9a E8000000 		call	_chThdSleep	 #
 1013      00
 1014 0c9f A1400000 		movl	LPBX1+64, %eax	 # *LPBX1, PROF_edge_counter.0
 1014      00
 1015 0ca4 8B154400 		movl	LPBX1+68, %edx	 # *LPBX1, PROF_edge_counter.0
 1015      0000
 1016 0caa 83C001   		addl	$1, %eax	 #, PROF_edge_counter.0
GAS LISTING C:\cygwin\tmp\cckjuxoe.s 			page 26


 1017 0cad 83D200   		adcl	$0, %edx	 #, PROF_edge_counter.0
 1018 0cb0 A3400000 		movl	%eax, LPBX1+64	 # PROF_edge_counter.0, *LPBX1
 1018      00
 1019 0cb5 89154400 		movl	%edx, LPBX1+68	 # PROF_edge_counter.0, *LPBX1
 1019      0000
 1020              		.loc 1 211 0
 1021 0cbb 8B44241C 		movl	28(%esp), %eax	 # time, tmp106
 1022 0cbf 8D90E903 		leal	1001(%eax), %edx	 #, D.2825
 1022      0000
 1023 0cc5 8B44241C 		movl	28(%esp), %eax	 # time, tmp107
 1024 0cc9 05E80300 		addl	$1000, %eax	 #, D.2826
 1024      00
 1025 0cce 89542408 		movl	%edx, 8(%esp)	 # D.2825,
 1026 0cd2 89442404 		movl	%eax, 4(%esp)	 # D.2826,
 1027 0cd6 C7042403 		movl	$3, (%esp)	 #,
 1027      000000
 1028 0cdd E8000000 		call	__test_assert_time_window	 #
 1028      00
 1029 0ce2 84C0     		testb	%al, %al	 # D.2827
 1030 0ce4 7421     		je	L23	 #,
 1031              		.loc 1 211 0 is_stmt 0 discriminator 1
 1032 0ce6 A1500000 		movl	LPBX1+80, %eax	 # *LPBX1, PROF_edge_counter.0
 1032      00
 1033 0ceb 8B155400 		movl	LPBX1+84, %edx	 # *LPBX1, PROF_edge_counter.0
 1033      0000
 1034 0cf1 83C001   		addl	$1, %eax	 #, PROF_edge_counter.0
 1035 0cf4 83D200   		adcl	$0, %edx	 #, PROF_edge_counter.0
 1036 0cf7 A3500000 		movl	%eax, LPBX1+80	 # PROF_edge_counter.0, *LPBX1
 1036      00
 1037 0cfc 89155400 		movl	%edx, LPBX1+84	 # PROF_edge_counter.0, *LPBX1
 1037      0000
 1038 0d02 E9AB0000 		jmp	L19	 #
 1038      00
 1039              	L23:
 1040              		.loc 1 211 0
 1041 0d07 A1480000 		movl	LPBX1+72, %eax	 # *LPBX1, PROF_edge_counter.0
 1041      00
 1042 0d0c 8B154C00 		movl	LPBX1+76, %edx	 # *LPBX1, PROF_edge_counter.0
 1042      0000
 1043 0d12 83C001   		addl	$1, %eax	 #, PROF_edge_counter.0
 1044 0d15 83D200   		adcl	$0, %edx	 #, PROF_edge_counter.0
 1045 0d18 A3480000 		movl	%eax, LPBX1+72	 # PROF_edge_counter.0, *LPBX1
 1045      00
 1046 0d1d 89154C00 		movl	%edx, LPBX1+76	 # PROF_edge_counter.0, *LPBX1
 1046      0000
 1047              		.loc 1 214 0 is_stmt 1
 1048 0d23 A10C0000 		movl	_vtlist+12, %eax	 # vtlist.vt_systime, D.2830
 1048      00
 1049 0d28 83C064   		addl	$100, %eax	 #, tmp108
 1050 0d2b 8944241C 		movl	%eax, 28(%esp)	 # tmp108, time
 1051              		.loc 1 215 0
 1052 0d2f 8B44241C 		movl	28(%esp), %eax	 # time, tmp109
 1053 0d33 890424   		movl	%eax, (%esp)	 # tmp109,
 1054 0d36 E8000000 		call	_chThdSleepUntil	 #
 1054      00
 1055 0d3b A1580000 		movl	LPBX1+88, %eax	 # *LPBX1, PROF_edge_counter.0
 1055      00
GAS LISTING C:\cygwin\tmp\cckjuxoe.s 			page 27


 1056 0d40 8B155C00 		movl	LPBX1+92, %edx	 # *LPBX1, PROF_edge_counter.0
 1056      0000
 1057 0d46 83C001   		addl	$1, %eax	 #, PROF_edge_counter.0
 1058 0d49 83D200   		adcl	$0, %edx	 #, PROF_edge_counter.0
 1059 0d4c A3580000 		movl	%eax, LPBX1+88	 # PROF_edge_counter.0, *LPBX1
 1059      00
 1060 0d51 89155C00 		movl	%edx, LPBX1+92	 # PROF_edge_counter.0, *LPBX1
 1060      0000
 1061              		.loc 1 216 0
 1062 0d57 8B44241C 		movl	28(%esp), %eax	 # time, tmp110
 1063 0d5b 40       		incl	%eax	 # D.2831
 1064 0d5c 89442408 		movl	%eax, 8(%esp)	 # D.2831,
 1065 0d60 8B44241C 		movl	28(%esp), %eax	 # time, tmp111
 1066 0d64 89442404 		movl	%eax, 4(%esp)	 # tmp111,
 1067 0d68 C7042404 		movl	$4, (%esp)	 #,
 1067      000000
 1068 0d6f E8000000 		call	__test_assert_time_window	 #
 1068      00
 1069 0d74 88C1     		movb	%al, %cl	 #, D.2832
 1070 0d76 A1600000 		movl	LPBX1+96, %eax	 # *LPBX1, PROF_edge_counter.0
 1070      00
 1071 0d7b 8B156400 		movl	LPBX1+100, %edx	 # *LPBX1, PROF_edge_counter.0
 1071      0000
 1072 0d81 83C001   		addl	$1, %eax	 #, PROF_edge_counter.0
 1073 0d84 83D200   		adcl	$0, %edx	 #, PROF_edge_counter.0
 1074 0d87 A3600000 		movl	%eax, LPBX1+96	 # PROF_edge_counter.0, *LPBX1
 1074      00
 1075 0d8c 89156400 		movl	%edx, LPBX1+100	 # PROF_edge_counter.0, *LPBX1
 1075      0000
 1076 0d92 84C9     		testb	%cl, %cl	 # D.2832
 1077 0d94 741C     		je	L19	 #,
 1078              		.loc 1 216 0 is_stmt 0 discriminator 1
 1079 0d96 A1680000 		movl	LPBX1+104, %eax	 # *LPBX1, PROF_edge_counter.0
 1079      00
 1080 0d9b 8B156C00 		movl	LPBX1+108, %edx	 # *LPBX1, PROF_edge_counter.0
 1080      0000
 1081 0da1 83C001   		addl	$1, %eax	 #, PROF_edge_counter.0
 1082 0da4 83D200   		adcl	$0, %edx	 #, PROF_edge_counter.0
 1083 0da7 A3680000 		movl	%eax, LPBX1+104	 # PROF_edge_counter.0, *LPBX1
 1083      00
 1084 0dac 89156C00 		movl	%edx, LPBX1+108	 # PROF_edge_counter.0, *LPBX1
 1084      0000
 1085              	L19:
 1086              		.loc 1 217 0 is_stmt 1
 1087 0db2 83C42C   		addl	$44, %esp	 #,
 1088              	LCFI9:
 1089              		.cfi_def_cfa_offset 4
 1090 0db5 C3       		ret
 1091              		.cfi_endproc
 1092              	LFE4:
 1093              		.globl	_testthd4
 1094              		.section .rdata,"dr"
 1095              	LC9:
 1096 0094 54687265 		.ascii "Threads, delays\0"
 1096      6164732C 
 1096      2064656C 
 1096      61797300 
GAS LISTING C:\cygwin\tmp\cckjuxoe.s 			page 28


 1097              		.align 4
 1098              	_testthd4:
 1099              	 # name:
 1100 00a4 94000000 		.long	LC9
 1101              	 # setup:
 1102 00a8 00000000 		.long	0
 1103              	 # teardown:
 1104 00ac 00000000 		.long	0
 1105              	 # execute:
 1106 00b0 220B0000 		.long	_thd4_execute
 1107              		.globl	_patternthd
 1108              		.align 4
 1109              	_patternthd:
 1110 00b4 2C000000 		.long	_testthd1
 1111 00b8 58000000 		.long	_testthd2
 1112 00bc 84000000 		.long	_testthd3
 1113 00c0 A4000000 		.long	_testthd4
 1114 00c4 00000000 		.long	0
 1115              	.lcomm LPBX1,544,32
 1116              		.align 4
 1117              	LC10:
 1118 00c8 433A5C64 		.ascii "C:\\develop\\gyro\\ChibiOS\\test\\coverage/../../test/testthd.gcda\0"
 1118      6576656C 
 1118      6F705C67 
 1118      79726F5C 
 1118      43686962 
 1119 0106 0000     		.data
 1120              		.align 32
 1121              	LC11:
 1122              	 # <anonymous>:
 1123 0000 05000000 		.long	5
 1124              	 # <anonymous>:
 1125 0004 9F153342 		.long	1110644127
 1126              	 # <anonymous>:
 1127 0008 0E000000 		.long	14
 1128              	 # <anonymous>:
 1129 000c 04000000 		.long	4
 1130              	 # <anonymous>:
 1131 0010 43B59AEB 		.long	-342182589
 1132              	 # <anonymous>:
 1133 0014 1F000000 		.long	31
 1134              	 # <anonymous>:
 1135 0018 03000000 		.long	3
 1136              	 # <anonymous>:
 1137 001c 30F85387 		.long	-2024540112
 1138              	 # <anonymous>:
 1139 0020 0C000000 		.long	12
 1140              	 # <anonymous>:
 1141 0024 02000000 		.long	2
 1142              	 # <anonymous>:
 1143 0028 12CDDEA6 		.long	-1495347950
 1144              	 # <anonymous>:
 1145 002c 09000000 		.long	9
 1146              	 # <anonymous>:
 1147 0030 01000000 		.long	1
 1148              	 # <anonymous>:
 1149 0034 E1958863 		.long	1669895649
GAS LISTING C:\cygwin\tmp\cckjuxoe.s 			page 29


 1150              	 # <anonymous>:
 1151 0038 02000000 		.long	2
 1152 003c 00000000 		.align 32
 1153              	LPBX0:
 1154              	 # <anonymous>:
 1155 0040 2A363034 		.long	875574826
 1156              	 # <anonymous>:
 1157 0044 00000000 		.long	0
 1158              	 # <anonymous>:
 1159 0048 792C7060 		.long	1617964153
 1160              	 # <anonymous>:
 1161 004c C8000000 		.long	LC10
 1162              	 # <anonymous>:
 1163 0050 05000000 		.long	5
 1164              	 # <anonymous>:
 1165 0054 00000000 		.long	LC11
 1166              	 # <anonymous>:
 1167 0058 01000000 		.long	1
 1168              	 # <anonymous>:
 1169              	 # <anonymous>:
 1170 005c 44000000 		.long	68
 1171              	 # <anonymous>:
 1172 0060 00000000 		.long	LPBX1
 1173              	 # <anonymous>:
 1174 0064 00000000 		.long	___gcov_merge_add
 1175 0068 00000000 		.space 12
 1175      00000000 
 1175      00000000 
 1176 0074 00000000 		.text
 1176      00000000 
 1176      00000000 
 1177              		.def	__GLOBAL__sub_I_65535_0_testthd1;	.scl	3;	.type	32;	.endef
 1178              	__GLOBAL__sub_I_65535_0_testthd1:
 1179              	LFB5:
 1180              		.loc 1 235 0
 1181              		.cfi_startproc
 1182 0db6 83EC1C   		subl	$28, %esp	 #,
 1183              	LCFI10:
 1184              		.cfi_def_cfa_offset 32
 1185              		.loc 1 235 0
 1186 0db9 C7042440 		movl	$LPBX0, (%esp)	 #,
 1186      000000
 1187 0dc0 E8000000 		call	___gcov_init	 #
 1187      00
 1188 0dc5 83C41C   		addl	$28, %esp	 #,
 1189              	LCFI11:
 1190              		.cfi_def_cfa_offset 4
 1191 0dc8 C3       		ret
 1192              		.cfi_endproc
 1193              	LFE5:
 1194              		.section	.ctors,"w"
 1195              		.align 4
 1196 0000 B60D0000 		.long	__GLOBAL__sub_I_65535_0_testthd1
 1197              		.text
 1198              	Letext0:
 1199              		.file 2 "c:/mingw/bin/../lib/gcc/mingw32/4.6.2/../../../../include/stdint.h"
 1200              		.file 3 "../../os/ports/GCC/SIMIA32/chtypes.h"
GAS LISTING C:\cygwin\tmp\cckjuxoe.s 			page 30


 1201              		.file 4 "../../os/kernel/include/chlists.h"
 1202              		.file 5 "../../os/kernel/include/chthreads.h"
 1203              		.file 6 "../../os/ports/GCC/SIMIA32/chcore.h"
 1204              		.file 7 "../../os/kernel/include/chvt.h"
 1205              		.file 8 "../../os/kernel/include/chschd.h"
 1206              		.file 9 "../../os/kernel/include/chmtx.h"
 1207              		.file 10 "../../test/test.h"