GAS LISTING C:\cygwin\tmp\ccgmAwz3.s 			page 1


   1              		.file	"testmbox.c"
   2              	 # GNU C (GCC) version 4.6.2 (mingw32)
   3              	 #	compiled by GNU C version 4.6.2, GMP version 5.0.1, MPFR version 2.4.1, MPC version 0.8.1
   4              	 # GGC heuristics: --param ggc-min-expand=100 --param ggc-min-heapsize=131072
   5              	 # options passed:  -I . -I ../../os/ports/GCC/SIMIA32
   6              	 # -I ../../os/kernel/include -I ../../test -I ../../os/hal/include
   7              	 # -I ../../os/hal/platforms/Win32 -I ../../boards/simulator
   8              	 # -I ../../os/various -iprefix c:\mingw\bin\../lib/gcc/mingw32/4.6.2/
   9              	 # -MD ../../test/testmbox.d -MF .dep/testmbox.o.d -MP
  10              	 # -MQ ../../test/testmbox.o -D SIMULATOR ../../test/testmbox.c -mtune=i386
  11              	 # -march=i386 -auxbase-strip ../../test/testmbox.o -ggdb -O0 -Wall -Wextra
  12              	 # -Wstrict-prototypes -fomit-frame-pointer -fprofile-arcs -ftest-coverage
  13              	 # -fverbose-asm
  14              	 # options enabled:  -fasynchronous-unwind-tables -fauto-inc-dec
  15              	 # -fbranch-count-reg -fcommon -fdelete-null-pointer-checks
  16              	 # -fdwarf2-cfi-asm -fearly-inlining -feliminate-unused-debug-types
  17              	 # -ffunction-cse -fgcse-lm -fident -finline-functions-called-once
  18              	 # -fira-share-save-slots -fira-share-spill-slots -fivopts
  19              	 # -fkeep-inline-dllexport -fkeep-static-consts -fleading-underscore
  20              	 # -fmath-errno -fmerge-debug-strings -fmove-loop-invariants
  21              	 # -fomit-frame-pointer -fpeephole -fprefetch-loop-arrays -fprofile-arcs
  22              	 # -freg-struct-return -fsched-critical-path-heuristic
  23              	 # -fsched-dep-count-heuristic -fsched-group-heuristic -fsched-interblock
  24              	 # -fsched-last-insn-heuristic -fsched-rank-heuristic -fsched-spec
  25              	 # -fsched-spec-insn-heuristic -fsched-stalled-insns-dep
  26              	 # -fset-stack-executable -fshow-column -fsigned-zeros
  27              	 # -fsplit-ivs-in-unroller -fstrict-volatile-bitfields -ftest-coverage
  28              	 # -ftrapping-math -ftree-cselim -ftree-forwprop -ftree-loop-if-convert
  29              	 # -ftree-loop-im -ftree-loop-ivcanon -ftree-loop-optimize
  30              	 # -ftree-parallelize-loops= -ftree-phiprop -ftree-pta -ftree-reassoc
  31              	 # -ftree-scev-cprop -ftree-slp-vectorize -ftree-vect-loop-version
  32              	 # -funit-at-a-time -funwind-tables -fvect-cost-model -fverbose-asm
  33              	 # -fzero-initialized-in-bss -m32 -m80387 -m96bit-long-double
  34              	 # -maccumulate-outgoing-args -malign-double -malign-stringops
  35              	 # -mfancy-math-387 -mfp-ret-in-387 -mieee-fp -mno-red-zone -mno-sse4
  36              	 # -mpush-args -msahf -mstack-arg-probe
  37              	
  38              		.text
  39              	Ltext0:
  40              	 # Compiler executable checksum: c20aed7c018482d7b62efcd5dcab2a9d
  41              	
  42              		.data
  43              		.align 32
  44              	_mb1:
  45              	 # mb_buffer:
  46 0000 00000000 		.long	_test
  47              	 # mb_top:
  48 0004 14000000 		.long	_test+20
  49              	 # mb_wrptr:
  50 0008 00000000 		.long	_test
  51              	 # mb_rdptr:
  52 000c 00000000 		.long	_test
  53              	 # mb_fullsem:
  54              	 # s_queue:
  55              	 # p_next:
  56 0010 10000000 		.long	_mb1+16
  57              	 # p_prev:
GAS LISTING C:\cygwin\tmp\ccgmAwz3.s 			page 2


  58 0014 10000000 		.long	_mb1+16
  59              	 # s_cnt:
  60 0018 00000000 		.long	0
  61              	 # mb_emptysem:
  62              	 # s_queue:
  63              	 # p_next:
  64 001c 1C000000 		.long	_mb1+28
  65              	 # p_prev:
  66 0020 1C000000 		.long	_mb1+28
  67              	 # s_cnt:
  68 0024 05000000 		.long	5
  69              		.text
  70              		.def	_mbox1_setup;	.scl	3;	.type	32;	.endef
  71              	_mbox1_setup:
  72              	LFB0:
  73              		.file 1 "../../test/testmbox.c"
  74              		.loc 1 75 0
  75              		.cfi_startproc
  76 0000 83EC1C   		subl	$28, %esp	 #,
  77              	LCFI0:
  78              		.cfi_def_cfa_offset 32
  79              		.loc 1 75 0
  80 0003 A1B00500 		movl	LPBX1+1456, %eax	 # *LPBX1, PROF_edge_counter.4
  80      00
  81 0008 8B15B405 		movl	LPBX1+1460, %edx	 # *LPBX1, PROF_edge_counter.4
  81      0000
  82 000e 83C001   		addl	$1, %eax	 #, PROF_edge_counter.4
  83 0011 83D200   		adcl	$0, %edx	 #, PROF_edge_counter.4
  84 0014 A3B00500 		movl	%eax, LPBX1+1456	 # PROF_edge_counter.4, *LPBX1
  84      00
  85 0019 8915B405 		movl	%edx, LPBX1+1460	 # PROF_edge_counter.4, *LPBX1
  85      0000
  86              		.loc 1 77 0
  87 001f C7442408 		movl	$5, 8(%esp)	 #,
  87      05000000 
  88 0027 C7442404 		movl	$_test, 4(%esp)	 #,
  88      00000000 
  89 002f C7042400 		movl	$_mb1, (%esp)	 #,
  89      000000
  90 0036 E8000000 		call	_chMBInit	 #
  90      00
  91 003b A1B80500 		movl	LPBX1+1464, %eax	 # *LPBX1, PROF_edge_counter.4
  91      00
  92 0040 8B15BC05 		movl	LPBX1+1468, %edx	 # *LPBX1, PROF_edge_counter.4
  92      0000
  93 0046 83C001   		addl	$1, %eax	 #, PROF_edge_counter.4
  94 0049 83D200   		adcl	$0, %edx	 #, PROF_edge_counter.4
  95 004c A3B80500 		movl	%eax, LPBX1+1464	 # PROF_edge_counter.4, *LPBX1
  95      00
  96 0051 8915BC05 		movl	%edx, LPBX1+1468	 # PROF_edge_counter.4, *LPBX1
  96      0000
  97              		.loc 1 78 0
  98 0057 83C41C   		addl	$28, %esp	 #,
  99              	LCFI1:
 100              		.cfi_def_cfa_offset 4
 101 005a C3       		ret
 102              		.cfi_endproc
GAS LISTING C:\cygwin\tmp\ccgmAwz3.s 			page 3


 103              	LFE0:
 104              		.section .rdata,"dr"
 105              	LC0:
 106 0000 41424344 		.ascii "ABCDE\0"
 106      4500
 107              		.text
 108              		.def	_mbox1_execute;	.scl	3;	.type	32;	.endef
 109              	_mbox1_execute:
 110              	LFB1:
 111              		.loc 1 80 0
 112              		.cfi_startproc
 113 005b 83EC2C   		subl	$44, %esp	 #,
 114              	LCFI2:
 115              		.cfi_def_cfa_offset 48
 116              		.loc 1 80 0
 117 005e A1000000 		movl	LPBX1, %eax	 # *LPBX1, PROF_edge_counter.3
 117      00
 118 0063 8B150400 		movl	LPBX1+4, %edx	 # *LPBX1, PROF_edge_counter.3
 118      0000
 119 0069 83C001   		addl	$1, %eax	 #, PROF_edge_counter.3
 120 006c 83D200   		adcl	$0, %edx	 #, PROF_edge_counter.3
 121 006f A3000000 		movl	%eax, LPBX1	 # PROF_edge_counter.3, *LPBX1
 121      00
 122 0074 89150400 		movl	%edx, LPBX1+4	 # PROF_edge_counter.3, *LPBX1
 122      0000
 123              		.loc 1 87 0
 124 007a A1240000 		movl	_mb1+36, %eax	 # mb1.mb_emptysem.s_cnt, D.2813
 124      00
 125 007f 83F805   		cmpl	$5, %eax	 #, D.2813
 126 0082 0F94C0   		sete	%al	 #, tmp558
 127 0085 0FB6C0   		movzbl	%al, %eax	 # tmp558, D.2814
 128 0088 89442404 		movl	%eax, 4(%esp)	 # D.2814,
 129 008c C7042401 		movl	$1, (%esp)	 #,
 129      000000
 130 0093 E8000000 		call	__test_assert	 #
 130      00
 131 0098 84C0     		testb	%al, %al	 # D.2815
 132 009a 7421     		je	L3	 #,
 133              		.loc 1 87 0 is_stmt 0 discriminator 1
 134 009c A1080000 		movl	LPBX1+8, %eax	 # *LPBX1, PROF_edge_counter.3
 134      00
 135 00a1 8B150C00 		movl	LPBX1+12, %edx	 # *LPBX1, PROF_edge_counter.3
 135      0000
 136 00a7 83C001   		addl	$1, %eax	 #, PROF_edge_counter.3
 137 00aa 83D200   		adcl	$0, %edx	 #, PROF_edge_counter.3
 138 00ad A3080000 		movl	%eax, LPBX1+8	 # PROF_edge_counter.3, *LPBX1
 138      00
 139 00b2 89150C00 		movl	%edx, LPBX1+12	 # PROF_edge_counter.3, *LPBX1
 139      0000
 140 00b8 E9C81D00 		jmp	L2	 #
 140      00
 141              	L3:
 142              		.loc 1 92 0 is_stmt 1
 143 00bd C744241C 		movl	$0, 28(%esp)	 #, i
 143      00000000 
 144 00c5 E9BB0000 		jmp	L5	 #
 144      00
GAS LISTING C:\cygwin\tmp\ccgmAwz3.s 			page 4


 145              	L7:
 146 00ca A1280000 		movl	LPBX1+40, %eax	 # *LPBX1, PROF_edge_counter.3
 146      00
 147 00cf 8B152C00 		movl	LPBX1+44, %edx	 # *LPBX1, PROF_edge_counter.3
 147      0000
 148 00d5 83C001   		addl	$1, %eax	 #, PROF_edge_counter.3
 149 00d8 83D200   		adcl	$0, %edx	 #, PROF_edge_counter.3
 150 00db A3280000 		movl	%eax, LPBX1+40	 # PROF_edge_counter.3, *LPBX1
 150      00
 151 00e0 89152C00 		movl	%edx, LPBX1+44	 # PROF_edge_counter.3, *LPBX1
 151      0000
 152              		.loc 1 93 0
 153 00e6 8B44241C 		movl	28(%esp), %eax	 # i, tmp559
 154 00ea 83C042   		addl	$66, %eax	 #, D.2818
 155 00ed C7442408 		movl	$-1, 8(%esp)	 #,
 155      FFFFFFFF 
 156 00f5 89442404 		movl	%eax, 4(%esp)	 # D.2819,
 157 00f9 C7042400 		movl	$_mb1, (%esp)	 #,
 157      000000
 158 0100 E8000000 		call	_chMBPost	 #
 158      00
 159 0105 89442418 		movl	%eax, 24(%esp)	 # tmp560, msg1
 160 0109 A1100000 		movl	LPBX1+16, %eax	 # *LPBX1, PROF_edge_counter.3
 160      00
 161 010e 8B151400 		movl	LPBX1+20, %edx	 # *LPBX1, PROF_edge_counter.3
 161      0000
 162 0114 83C001   		addl	$1, %eax	 #, PROF_edge_counter.3
 163 0117 83D200   		adcl	$0, %edx	 #, PROF_edge_counter.3
 164 011a A3100000 		movl	%eax, LPBX1+16	 # PROF_edge_counter.3, *LPBX1
 164      00
 165 011f 89151400 		movl	%edx, LPBX1+20	 # PROF_edge_counter.3, *LPBX1
 165      0000
 166              		.loc 1 94 0
 167 0125 837C2418 		cmpl	$0, 24(%esp)	 #, msg1
 167      00
 168 012a 0F94C0   		sete	%al	 #, tmp561
 169 012d 0FB6C0   		movzbl	%al, %eax	 # tmp561, D.2820
 170 0130 89442404 		movl	%eax, 4(%esp)	 # D.2820,
 171 0134 C7042402 		movl	$2, (%esp)	 #,
 171      000000
 172 013b E8000000 		call	__test_assert	 #
 172      00
 173 0140 84C0     		testb	%al, %al	 # D.2821
 174 0142 7421     		je	L6	 #,
 175              		.loc 1 94 0 is_stmt 0 discriminator 1
 176 0144 A1180000 		movl	LPBX1+24, %eax	 # *LPBX1, PROF_edge_counter.3
 176      00
 177 0149 8B151C00 		movl	LPBX1+28, %edx	 # *LPBX1, PROF_edge_counter.3
 177      0000
 178 014f 83C001   		addl	$1, %eax	 #, PROF_edge_counter.3
 179 0152 83D200   		adcl	$0, %edx	 #, PROF_edge_counter.3
 180 0155 A3180000 		movl	%eax, LPBX1+24	 # PROF_edge_counter.3, *LPBX1
 180      00
 181 015a 89151C00 		movl	%edx, LPBX1+28	 # PROF_edge_counter.3, *LPBX1
 181      0000
 182 0160 E9201D00 		jmp	L2	 #
 182      00
GAS LISTING C:\cygwin\tmp\ccgmAwz3.s 			page 5


 183              	L6:
 184              		.loc 1 92 0 is_stmt 1
 185 0165 FF44241C 		incl	28(%esp)	 # i
 186 0169 A1200000 		movl	LPBX1+32, %eax	 # *LPBX1, PROF_edge_counter.3
 186      00
 187 016e 8B152400 		movl	LPBX1+36, %edx	 # *LPBX1, PROF_edge_counter.3
 187      0000
 188 0174 83C001   		addl	$1, %eax	 #, PROF_edge_counter.3
 189 0177 83D200   		adcl	$0, %edx	 #, PROF_edge_counter.3
 190 017a A3200000 		movl	%eax, LPBX1+32	 # PROF_edge_counter.3, *LPBX1
 190      00
 191 017f 89152400 		movl	%edx, LPBX1+36	 # PROF_edge_counter.3, *LPBX1
 191      0000
 192              	L5:
 193              		.loc 1 92 0 is_stmt 0 discriminator 1
 194 0185 837C241C 		cmpl	$3, 28(%esp)	 #, i
 194      03
 195 018a 0F863AFF 		jbe	L7	 #,
 195      FFFF
 196              		.loc 1 92 0
 197 0190 A1300000 		movl	LPBX1+48, %eax	 # *LPBX1, PROF_edge_counter.3
 197      00
 198 0195 8B153400 		movl	LPBX1+52, %edx	 # *LPBX1, PROF_edge_counter.3
 198      0000
 199 019b 83C001   		addl	$1, %eax	 #, PROF_edge_counter.3
 200 019e 83D200   		adcl	$0, %edx	 #, PROF_edge_counter.3
 201 01a1 A3300000 		movl	%eax, LPBX1+48	 # PROF_edge_counter.3, *LPBX1
 201      00
 202 01a6 89153400 		movl	%edx, LPBX1+52	 # PROF_edge_counter.3, *LPBX1
 202      0000
 203              		.loc 1 96 0 is_stmt 1
 204 01ac C7442408 		movl	$-1, 8(%esp)	 #,
 204      FFFFFFFF 
 205 01b4 C7442404 		movl	$65, 4(%esp)	 #,
 205      41000000 
 206 01bc C7042400 		movl	$_mb1, (%esp)	 #,
 206      000000
 207 01c3 E8000000 		call	_chMBPostAhead	 #
 207      00
 208 01c8 89442418 		movl	%eax, 24(%esp)	 # tmp562, msg1
 209 01cc A1380000 		movl	LPBX1+56, %eax	 # *LPBX1, PROF_edge_counter.3
 209      00
 210 01d1 8B153C00 		movl	LPBX1+60, %edx	 # *LPBX1, PROF_edge_counter.3
 210      0000
 211 01d7 83C001   		addl	$1, %eax	 #, PROF_edge_counter.3
 212 01da 83D200   		adcl	$0, %edx	 #, PROF_edge_counter.3
 213 01dd A3380000 		movl	%eax, LPBX1+56	 # PROF_edge_counter.3, *LPBX1
 213      00
 214 01e2 89153C00 		movl	%edx, LPBX1+60	 # PROF_edge_counter.3, *LPBX1
 214      0000
 215              		.loc 1 97 0
 216 01e8 837C2418 		cmpl	$0, 24(%esp)	 #, msg1
 216      00
 217 01ed 0F94C0   		sete	%al	 #, tmp563
 218 01f0 0FB6C0   		movzbl	%al, %eax	 # tmp563, D.2824
 219 01f3 89442404 		movl	%eax, 4(%esp)	 # D.2824,
 220 01f7 C7042403 		movl	$3, (%esp)	 #,
GAS LISTING C:\cygwin\tmp\ccgmAwz3.s 			page 6


 220      000000
 221 01fe E8000000 		call	__test_assert	 #
 221      00
 222 0203 84C0     		testb	%al, %al	 # D.2825
 223 0205 7421     		je	L8	 #,
 224              		.loc 1 97 0 is_stmt 0 discriminator 1
 225 0207 A1480000 		movl	LPBX1+72, %eax	 # *LPBX1, PROF_edge_counter.3
 225      00
 226 020c 8B154C00 		movl	LPBX1+76, %edx	 # *LPBX1, PROF_edge_counter.3
 226      0000
 227 0212 83C001   		addl	$1, %eax	 #, PROF_edge_counter.3
 228 0215 83D200   		adcl	$0, %edx	 #, PROF_edge_counter.3
 229 0218 A3480000 		movl	%eax, LPBX1+72	 # PROF_edge_counter.3, *LPBX1
 229      00
 230 021d 89154C00 		movl	%edx, LPBX1+76	 # PROF_edge_counter.3, *LPBX1
 230      0000
 231 0223 E95D1C00 		jmp	L2	 #
 231      00
 232              	L8:
 233              		.loc 1 97 0
 234 0228 A1400000 		movl	LPBX1+64, %eax	 # *LPBX1, PROF_edge_counter.3
 234      00
 235 022d 8B154400 		movl	LPBX1+68, %edx	 # *LPBX1, PROF_edge_counter.3
 235      0000
 236 0233 83C001   		addl	$1, %eax	 #, PROF_edge_counter.3
 237 0236 83D200   		adcl	$0, %edx	 #, PROF_edge_counter.3
 238 0239 A3400000 		movl	%eax, LPBX1+64	 # PROF_edge_counter.3, *LPBX1
 238      00
 239 023e 89154400 		movl	%edx, LPBX1+68	 # PROF_edge_counter.3, *LPBX1
 239      0000
 240              		.loc 1 102 0 is_stmt 1
 241 0244 C7442408 		movl	$1, 8(%esp)	 #,
 241      01000000 
 242 024c C7442404 		movl	$88, 4(%esp)	 #,
 242      58000000 
 243 0254 C7042400 		movl	$_mb1, (%esp)	 #,
 243      000000
 244 025b E8000000 		call	_chMBPost	 #
 244      00
 245 0260 89442418 		movl	%eax, 24(%esp)	 # tmp564, msg1
 246 0264 A1500000 		movl	LPBX1+80, %eax	 # *LPBX1, PROF_edge_counter.3
 246      00
 247 0269 8B155400 		movl	LPBX1+84, %edx	 # *LPBX1, PROF_edge_counter.3
 247      0000
 248 026f 83C001   		addl	$1, %eax	 #, PROF_edge_counter.3
 249 0272 83D200   		adcl	$0, %edx	 #, PROF_edge_counter.3
 250 0275 A3500000 		movl	%eax, LPBX1+80	 # PROF_edge_counter.3, *LPBX1
 250      00
 251 027a 89155400 		movl	%edx, LPBX1+84	 # PROF_edge_counter.3, *LPBX1
 251      0000
 252              		.loc 1 103 0
 253 0280 837C2418 		cmpl	$-1, 24(%esp)	 #, msg1
 253      FF
 254 0285 0F94C0   		sete	%al	 #, tmp565
 255 0288 0FB6C0   		movzbl	%al, %eax	 # tmp565, D.2828
 256 028b 89442404 		movl	%eax, 4(%esp)	 # D.2828,
 257 028f C7042404 		movl	$4, (%esp)	 #,
GAS LISTING C:\cygwin\tmp\ccgmAwz3.s 			page 7


 257      000000
 258 0296 E8000000 		call	__test_assert	 #
 258      00
 259 029b 84C0     		testb	%al, %al	 # D.2829
 260 029d 7421     		je	L9	 #,
 261              		.loc 1 103 0 is_stmt 0 discriminator 1
 262 029f A1600000 		movl	LPBX1+96, %eax	 # *LPBX1, PROF_edge_counter.3
 262      00
 263 02a4 8B156400 		movl	LPBX1+100, %edx	 # *LPBX1, PROF_edge_counter.3
 263      0000
 264 02aa 83C001   		addl	$1, %eax	 #, PROF_edge_counter.3
 265 02ad 83D200   		adcl	$0, %edx	 #, PROF_edge_counter.3
 266 02b0 A3600000 		movl	%eax, LPBX1+96	 # PROF_edge_counter.3, *LPBX1
 266      00
 267 02b5 89156400 		movl	%edx, LPBX1+100	 # PROF_edge_counter.3, *LPBX1
 267      0000
 268 02bb E9C51B00 		jmp	L2	 #
 268      00
 269              	L9:
 270              		.loc 1 103 0
 271 02c0 A1580000 		movl	LPBX1+88, %eax	 # *LPBX1, PROF_edge_counter.3
 271      00
 272 02c5 8B155C00 		movl	LPBX1+92, %edx	 # *LPBX1, PROF_edge_counter.3
 272      0000
 273 02cb 83C001   		addl	$1, %eax	 #, PROF_edge_counter.3
 274 02ce 83D200   		adcl	$0, %edx	 #, PROF_edge_counter.3
 275 02d1 A3580000 		movl	%eax, LPBX1+88	 # PROF_edge_counter.3, *LPBX1
 275      00
 276 02d6 89155C00 		movl	%edx, LPBX1+92	 # PROF_edge_counter.3, *LPBX1
 276      0000
 277              		.loc 1 104 0 is_stmt 1
 278              	/APP
 279              	 # 104 "../../test/testmbox.c" 1
 280 02dc 90       		nop
 281              	 # 0 "" 2
 282              	/NO_APP
 283 02dd A1680000 		movl	LPBX1+104, %eax	 # *LPBX1, PROF_edge_counter.3
 283      00
 284 02e2 8B156C00 		movl	LPBX1+108, %edx	 # *LPBX1, PROF_edge_counter.3
 284      0000
 285 02e8 83C001   		addl	$1, %eax	 #, PROF_edge_counter.3
 286 02eb 83D200   		adcl	$0, %edx	 #, PROF_edge_counter.3
 287 02ee A3680000 		movl	%eax, LPBX1+104	 # PROF_edge_counter.3, *LPBX1
 287      00
 288 02f3 89156C00 		movl	%edx, LPBX1+108	 # PROF_edge_counter.3, *LPBX1
 288      0000
 289              		.loc 1 105 0
 290 02f9 C7442404 		movl	$88, 4(%esp)	 #,
 290      58000000 
 291 0301 C7042400 		movl	$_mb1, (%esp)	 #,
 291      000000
 292 0308 E8000000 		call	_chMBPostI	 #
 292      00
 293 030d 89442418 		movl	%eax, 24(%esp)	 # tmp566, msg1
 294 0311 A1700000 		movl	LPBX1+112, %eax	 # *LPBX1, PROF_edge_counter.3
 294      00
 295 0316 8B157400 		movl	LPBX1+116, %edx	 # *LPBX1, PROF_edge_counter.3
GAS LISTING C:\cygwin\tmp\ccgmAwz3.s 			page 8


 295      0000
 296 031c 83C001   		addl	$1, %eax	 #, PROF_edge_counter.3
 297 031f 83D200   		adcl	$0, %edx	 #, PROF_edge_counter.3
 298 0322 A3700000 		movl	%eax, LPBX1+112	 # PROF_edge_counter.3, *LPBX1
 298      00
 299 0327 89157400 		movl	%edx, LPBX1+116	 # PROF_edge_counter.3, *LPBX1
 299      0000
 300              		.loc 1 106 0
 301              	/APP
 302              	 # 106 "../../test/testmbox.c" 1
 303 032d 90       		nop
 304              	 # 0 "" 2
 305              	/NO_APP
 306 032e A1780000 		movl	LPBX1+120, %eax	 # *LPBX1, PROF_edge_counter.3
 306      00
 307 0333 8B157C00 		movl	LPBX1+124, %edx	 # *LPBX1, PROF_edge_counter.3
 307      0000
 308 0339 83C001   		addl	$1, %eax	 #, PROF_edge_counter.3
 309 033c 83D200   		adcl	$0, %edx	 #, PROF_edge_counter.3
 310 033f A3780000 		movl	%eax, LPBX1+120	 # PROF_edge_counter.3, *LPBX1
 310      00
 311 0344 89157C00 		movl	%edx, LPBX1+124	 # PROF_edge_counter.3, *LPBX1
 311      0000
 312              		.loc 1 107 0
 313 034a 837C2418 		cmpl	$-1, 24(%esp)	 #, msg1
 313      FF
 314 034f 0F94C0   		sete	%al	 #, tmp567
 315 0352 0FB6C0   		movzbl	%al, %eax	 # tmp567, D.2832
 316 0355 89442404 		movl	%eax, 4(%esp)	 # D.2832,
 317 0359 C7042405 		movl	$5, (%esp)	 #,
 317      000000
 318 0360 E8000000 		call	__test_assert	 #
 318      00
 319 0365 84C0     		testb	%al, %al	 # D.2833
 320 0367 7421     		je	L10	 #,
 321              		.loc 1 107 0 is_stmt 0 discriminator 1
 322 0369 A1880000 		movl	LPBX1+136, %eax	 # *LPBX1, PROF_edge_counter.3
 322      00
 323 036e 8B158C00 		movl	LPBX1+140, %edx	 # *LPBX1, PROF_edge_counter.3
 323      0000
 324 0374 83C001   		addl	$1, %eax	 #, PROF_edge_counter.3
 325 0377 83D200   		adcl	$0, %edx	 #, PROF_edge_counter.3
 326 037a A3880000 		movl	%eax, LPBX1+136	 # PROF_edge_counter.3, *LPBX1
 326      00
 327 037f 89158C00 		movl	%edx, LPBX1+140	 # PROF_edge_counter.3, *LPBX1
 327      0000
 328 0385 E9FB1A00 		jmp	L2	 #
 328      00
 329              	L10:
 330              		.loc 1 107 0
 331 038a A1800000 		movl	LPBX1+128, %eax	 # *LPBX1, PROF_edge_counter.3
 331      00
 332 038f 8B158400 		movl	LPBX1+132, %edx	 # *LPBX1, PROF_edge_counter.3
 332      0000
 333 0395 83C001   		addl	$1, %eax	 #, PROF_edge_counter.3
 334 0398 83D200   		adcl	$0, %edx	 #, PROF_edge_counter.3
 335 039b A3800000 		movl	%eax, LPBX1+128	 # PROF_edge_counter.3, *LPBX1
GAS LISTING C:\cygwin\tmp\ccgmAwz3.s 			page 9


 335      00
 336 03a0 89158400 		movl	%edx, LPBX1+132	 # PROF_edge_counter.3, *LPBX1
 336      0000
 337              		.loc 1 108 0 is_stmt 1
 338 03a6 C7442408 		movl	$1, 8(%esp)	 #,
 338      01000000 
 339 03ae C7442404 		movl	$88, 4(%esp)	 #,
 339      58000000 
 340 03b6 C7042400 		movl	$_mb1, (%esp)	 #,
 340      000000
 341 03bd E8000000 		call	_chMBPostAhead	 #
 341      00
 342 03c2 89442418 		movl	%eax, 24(%esp)	 # tmp568, msg1
 343 03c6 A1900000 		movl	LPBX1+144, %eax	 # *LPBX1, PROF_edge_counter.3
 343      00
 344 03cb 8B159400 		movl	LPBX1+148, %edx	 # *LPBX1, PROF_edge_counter.3
 344      0000
 345 03d1 83C001   		addl	$1, %eax	 #, PROF_edge_counter.3
 346 03d4 83D200   		adcl	$0, %edx	 #, PROF_edge_counter.3
 347 03d7 A3900000 		movl	%eax, LPBX1+144	 # PROF_edge_counter.3, *LPBX1
 347      00
 348 03dc 89159400 		movl	%edx, LPBX1+148	 # PROF_edge_counter.3, *LPBX1
 348      0000
 349              		.loc 1 109 0
 350 03e2 837C2418 		cmpl	$-1, 24(%esp)	 #, msg1
 350      FF
 351 03e7 0F94C0   		sete	%al	 #, tmp569
 352 03ea 0FB6C0   		movzbl	%al, %eax	 # tmp569, D.2836
 353 03ed 89442404 		movl	%eax, 4(%esp)	 # D.2836,
 354 03f1 C7042406 		movl	$6, (%esp)	 #,
 354      000000
 355 03f8 E8000000 		call	__test_assert	 #
 355      00
 356 03fd 84C0     		testb	%al, %al	 # D.2837
 357 03ff 7421     		je	L11	 #,
 358              		.loc 1 109 0 is_stmt 0 discriminator 1
 359 0401 A1A00000 		movl	LPBX1+160, %eax	 # *LPBX1, PROF_edge_counter.3
 359      00
 360 0406 8B15A400 		movl	LPBX1+164, %edx	 # *LPBX1, PROF_edge_counter.3
 360      0000
 361 040c 83C001   		addl	$1, %eax	 #, PROF_edge_counter.3
 362 040f 83D200   		adcl	$0, %edx	 #, PROF_edge_counter.3
 363 0412 A3A00000 		movl	%eax, LPBX1+160	 # PROF_edge_counter.3, *LPBX1
 363      00
 364 0417 8915A400 		movl	%edx, LPBX1+164	 # PROF_edge_counter.3, *LPBX1
 364      0000
 365 041d E9631A00 		jmp	L2	 #
 365      00
 366              	L11:
 367              		.loc 1 109 0
 368 0422 A1980000 		movl	LPBX1+152, %eax	 # *LPBX1, PROF_edge_counter.3
 368      00
 369 0427 8B159C00 		movl	LPBX1+156, %edx	 # *LPBX1, PROF_edge_counter.3
 369      0000
 370 042d 83C001   		addl	$1, %eax	 #, PROF_edge_counter.3
 371 0430 83D200   		adcl	$0, %edx	 #, PROF_edge_counter.3
 372 0433 A3980000 		movl	%eax, LPBX1+152	 # PROF_edge_counter.3, *LPBX1
GAS LISTING C:\cygwin\tmp\ccgmAwz3.s 			page 10


 372      00
 373 0438 89159C00 		movl	%edx, LPBX1+156	 # PROF_edge_counter.3, *LPBX1
 373      0000
 374              		.loc 1 110 0 is_stmt 1
 375              	/APP
 376              	 # 110 "../../test/testmbox.c" 1
 377 043e 90       		nop
 378              	 # 0 "" 2
 379              	/NO_APP
 380 043f A1A80000 		movl	LPBX1+168, %eax	 # *LPBX1, PROF_edge_counter.3
 380      00
 381 0444 8B15AC00 		movl	LPBX1+172, %edx	 # *LPBX1, PROF_edge_counter.3
 381      0000
 382 044a 83C001   		addl	$1, %eax	 #, PROF_edge_counter.3
 383 044d 83D200   		adcl	$0, %edx	 #, PROF_edge_counter.3
 384 0450 A3A80000 		movl	%eax, LPBX1+168	 # PROF_edge_counter.3, *LPBX1
 384      00
 385 0455 8915AC00 		movl	%edx, LPBX1+172	 # PROF_edge_counter.3, *LPBX1
 385      0000
 386              		.loc 1 111 0
 387 045b C7442404 		movl	$88, 4(%esp)	 #,
 387      58000000 
 388 0463 C7042400 		movl	$_mb1, (%esp)	 #,
 388      000000
 389 046a E8000000 		call	_chMBPostAheadI	 #
 389      00
 390 046f 89442418 		movl	%eax, 24(%esp)	 # tmp570, msg1
 391 0473 A1B00000 		movl	LPBX1+176, %eax	 # *LPBX1, PROF_edge_counter.3
 391      00
 392 0478 8B15B400 		movl	LPBX1+180, %edx	 # *LPBX1, PROF_edge_counter.3
 392      0000
 393 047e 83C001   		addl	$1, %eax	 #, PROF_edge_counter.3
 394 0481 83D200   		adcl	$0, %edx	 #, PROF_edge_counter.3
 395 0484 A3B00000 		movl	%eax, LPBX1+176	 # PROF_edge_counter.3, *LPBX1
 395      00
 396 0489 8915B400 		movl	%edx, LPBX1+180	 # PROF_edge_counter.3, *LPBX1
 396      0000
 397              		.loc 1 112 0
 398              	/APP
 399              	 # 112 "../../test/testmbox.c" 1
 400 048f 90       		nop
 401              	 # 0 "" 2
 402              	/NO_APP
 403 0490 A1B80000 		movl	LPBX1+184, %eax	 # *LPBX1, PROF_edge_counter.3
 403      00
 404 0495 8B15BC00 		movl	LPBX1+188, %edx	 # *LPBX1, PROF_edge_counter.3
 404      0000
 405 049b 83C001   		addl	$1, %eax	 #, PROF_edge_counter.3
 406 049e 83D200   		adcl	$0, %edx	 #, PROF_edge_counter.3
 407 04a1 A3B80000 		movl	%eax, LPBX1+184	 # PROF_edge_counter.3, *LPBX1
 407      00
 408 04a6 8915BC00 		movl	%edx, LPBX1+188	 # PROF_edge_counter.3, *LPBX1
 408      0000
 409              		.loc 1 113 0
 410 04ac 837C2418 		cmpl	$-1, 24(%esp)	 #, msg1
 410      FF
 411 04b1 0F94C0   		sete	%al	 #, tmp571
GAS LISTING C:\cygwin\tmp\ccgmAwz3.s 			page 11


 412 04b4 0FB6C0   		movzbl	%al, %eax	 # tmp571, D.2840
 413 04b7 89442404 		movl	%eax, 4(%esp)	 # D.2840,
 414 04bb C7042407 		movl	$7, (%esp)	 #,
 414      000000
 415 04c2 E8000000 		call	__test_assert	 #
 415      00
 416 04c7 84C0     		testb	%al, %al	 # D.2841
 417 04c9 7421     		je	L12	 #,
 418              		.loc 1 113 0 is_stmt 0 discriminator 1
 419 04cb A1C80000 		movl	LPBX1+200, %eax	 # *LPBX1, PROF_edge_counter.3
 419      00
 420 04d0 8B15CC00 		movl	LPBX1+204, %edx	 # *LPBX1, PROF_edge_counter.3
 420      0000
 421 04d6 83C001   		addl	$1, %eax	 #, PROF_edge_counter.3
 422 04d9 83D200   		adcl	$0, %edx	 #, PROF_edge_counter.3
 423 04dc A3C80000 		movl	%eax, LPBX1+200	 # PROF_edge_counter.3, *LPBX1
 423      00
 424 04e1 8915CC00 		movl	%edx, LPBX1+204	 # PROF_edge_counter.3, *LPBX1
 424      0000
 425 04e7 E9991900 		jmp	L2	 #
 425      00
 426              	L12:
 427              		.loc 1 113 0
 428 04ec A1C00000 		movl	LPBX1+192, %eax	 # *LPBX1, PROF_edge_counter.3
 428      00
 429 04f1 8B15C400 		movl	LPBX1+196, %edx	 # *LPBX1, PROF_edge_counter.3
 429      0000
 430 04f7 83C001   		addl	$1, %eax	 #, PROF_edge_counter.3
 431 04fa 83D200   		adcl	$0, %edx	 #, PROF_edge_counter.3
 432 04fd A3C00000 		movl	%eax, LPBX1+192	 # PROF_edge_counter.3, *LPBX1
 432      00
 433 0502 8915C400 		movl	%edx, LPBX1+196	 # PROF_edge_counter.3, *LPBX1
 433      0000
 434              		.loc 1 118 0 is_stmt 1
 435              	/APP
 436              	 # 118 "../../test/testmbox.c" 1
 437 0508 90       		nop
 438              	 # 0 "" 2
 439              	/NO_APP
 440 0509 A1D00000 		movl	LPBX1+208, %eax	 # *LPBX1, PROF_edge_counter.3
 440      00
 441 050e 8B15D400 		movl	LPBX1+212, %edx	 # *LPBX1, PROF_edge_counter.3
 441      0000
 442 0514 83C001   		addl	$1, %eax	 #, PROF_edge_counter.3
 443 0517 83D200   		adcl	$0, %edx	 #, PROF_edge_counter.3
 444 051a A3D00000 		movl	%eax, LPBX1+208	 # PROF_edge_counter.3, *LPBX1
 444      00
 445 051f 8915D400 		movl	%edx, LPBX1+212	 # PROF_edge_counter.3, *LPBX1
 445      0000
 446 0525 A1240000 		movl	_mb1+36, %eax	 # mb1.mb_emptysem.s_cnt, D.2844
 446      00
 447 052a 85C0     		testl	%eax, %eax	 # D.2844
 448 052c 0F94C0   		sete	%al	 #, tmp572
 449 052f 0FB6C0   		movzbl	%al, %eax	 # tmp572, D.2845
 450 0532 89442404 		movl	%eax, 4(%esp)	 # D.2845,
 451 0536 C7042408 		movl	$8, (%esp)	 #,
 451      000000
GAS LISTING C:\cygwin\tmp\ccgmAwz3.s 			page 12


 452 053d E8000000 		call	__test_assert	 #
 452      00
 453 0542 84C0     		testb	%al, %al	 # D.2846
 454 0544 743E     		je	L13	 #,
 455              		.loc 1 118 0 is_stmt 0 discriminator 1
 456 0546 A1D80000 		movl	LPBX1+216, %eax	 # *LPBX1, PROF_edge_counter.3
 456      00
 457 054b 8B15DC00 		movl	LPBX1+220, %edx	 # *LPBX1, PROF_edge_counter.3
 457      0000
 458 0551 83C001   		addl	$1, %eax	 #, PROF_edge_counter.3
 459 0554 83D200   		adcl	$0, %edx	 #, PROF_edge_counter.3
 460 0557 A3D80000 		movl	%eax, LPBX1+216	 # PROF_edge_counter.3, *LPBX1
 460      00
 461 055c 8915DC00 		movl	%edx, LPBX1+220	 # PROF_edge_counter.3, *LPBX1
 461      0000
 462              	/APP
 463              	 # 118 "../../test/testmbox.c" 1
 464 0562 90       		nop
 465              	 # 0 "" 2
 466              	/NO_APP
 467 0563 A1E80000 		movl	LPBX1+232, %eax	 # *LPBX1, PROF_edge_counter.3
 467      00
 468 0568 8B15EC00 		movl	LPBX1+236, %edx	 # *LPBX1, PROF_edge_counter.3
 468      0000
 469 056e 83C001   		addl	$1, %eax	 #, PROF_edge_counter.3
 470 0571 83D200   		adcl	$0, %edx	 #, PROF_edge_counter.3
 471 0574 A3E80000 		movl	%eax, LPBX1+232	 # PROF_edge_counter.3, *LPBX1
 471      00
 472 0579 8915EC00 		movl	%edx, LPBX1+236	 # PROF_edge_counter.3, *LPBX1
 472      0000
 473 057f E9011900 		jmp	L2	 #
 473      00
 474              	L13:
 475              		.loc 1 118 0 discriminator 2
 476 0584 A1E00000 		movl	LPBX1+224, %eax	 # *LPBX1, PROF_edge_counter.3
 476      00
 477 0589 8B15E400 		movl	LPBX1+228, %edx	 # *LPBX1, PROF_edge_counter.3
 477      0000
 478 058f 83C001   		addl	$1, %eax	 #, PROF_edge_counter.3
 479 0592 83D200   		adcl	$0, %edx	 #, PROF_edge_counter.3
 480 0595 A3E00000 		movl	%eax, LPBX1+224	 # PROF_edge_counter.3, *LPBX1
 480      00
 481 059a 8915E400 		movl	%edx, LPBX1+228	 # PROF_edge_counter.3, *LPBX1
 481      0000
 482              	/APP
 483              	 # 118 "../../test/testmbox.c" 1
 484 05a0 90       		nop
 485              	 # 0 "" 2
 486              	/NO_APP
 487 05a1 A1F00000 		movl	LPBX1+240, %eax	 # *LPBX1, PROF_edge_counter.3
 487      00
 488 05a6 8B15F400 		movl	LPBX1+244, %edx	 # *LPBX1, PROF_edge_counter.3
 488      0000
 489 05ac 83C001   		addl	$1, %eax	 #, PROF_edge_counter.3
 490 05af 83D200   		adcl	$0, %edx	 #, PROF_edge_counter.3
 491 05b2 A3F00000 		movl	%eax, LPBX1+240	 # PROF_edge_counter.3, *LPBX1
 491      00
GAS LISTING C:\cygwin\tmp\ccgmAwz3.s 			page 13


 492 05b7 8915F400 		movl	%edx, LPBX1+244	 # PROF_edge_counter.3, *LPBX1
 492      0000
 493              		.loc 1 119 0 is_stmt 1 discriminator 2
 494              	/APP
 495              	 # 119 "../../test/testmbox.c" 1
 496 05bd 90       		nop
 497              	 # 0 "" 2
 498              	/NO_APP
 499 05be A1F80000 		movl	LPBX1+248, %eax	 # *LPBX1, PROF_edge_counter.3
 499      00
 500 05c3 8B15FC00 		movl	LPBX1+252, %edx	 # *LPBX1, PROF_edge_counter.3
 500      0000
 501 05c9 83C001   		addl	$1, %eax	 #, PROF_edge_counter.3
 502 05cc 83D200   		adcl	$0, %edx	 #, PROF_edge_counter.3
 503 05cf A3F80000 		movl	%eax, LPBX1+248	 # PROF_edge_counter.3, *LPBX1
 503      00
 504 05d4 8915FC00 		movl	%edx, LPBX1+252	 # PROF_edge_counter.3, *LPBX1
 504      0000
 505 05da A1180000 		movl	_mb1+24, %eax	 # mb1.mb_fullsem.s_cnt, D.2849
 505      00
 506 05df 83F805   		cmpl	$5, %eax	 #, D.2849
 507 05e2 0F94C0   		sete	%al	 #, tmp573
 508 05e5 0FB6C0   		movzbl	%al, %eax	 # tmp573, D.2850
 509 05e8 89442404 		movl	%eax, 4(%esp)	 # D.2850,
 510 05ec C7042409 		movl	$9, (%esp)	 #,
 510      000000
 511 05f3 E8000000 		call	__test_assert	 #
 511      00
 512 05f8 84C0     		testb	%al, %al	 # D.2851
 513 05fa 743E     		je	L14	 #,
 514              		.loc 1 119 0 is_stmt 0 discriminator 1
 515 05fc A1000100 		movl	LPBX1+256, %eax	 # *LPBX1, PROF_edge_counter.3
 515      00
 516 0601 8B150401 		movl	LPBX1+260, %edx	 # *LPBX1, PROF_edge_counter.3
 516      0000
 517 0607 83C001   		addl	$1, %eax	 #, PROF_edge_counter.3
 518 060a 83D200   		adcl	$0, %edx	 #, PROF_edge_counter.3
 519 060d A3000100 		movl	%eax, LPBX1+256	 # PROF_edge_counter.3, *LPBX1
 519      00
 520 0612 89150401 		movl	%edx, LPBX1+260	 # PROF_edge_counter.3, *LPBX1
 520      0000
 521              	/APP
 522              	 # 119 "../../test/testmbox.c" 1
 523 0618 90       		nop
 524              	 # 0 "" 2
 525              	/NO_APP
 526 0619 A1100100 		movl	LPBX1+272, %eax	 # *LPBX1, PROF_edge_counter.3
 526      00
 527 061e 8B151401 		movl	LPBX1+276, %edx	 # *LPBX1, PROF_edge_counter.3
 527      0000
 528 0624 83C001   		addl	$1, %eax	 #, PROF_edge_counter.3
 529 0627 83D200   		adcl	$0, %edx	 #, PROF_edge_counter.3
 530 062a A3100100 		movl	%eax, LPBX1+272	 # PROF_edge_counter.3, *LPBX1
 530      00
 531 062f 89151401 		movl	%edx, LPBX1+276	 # PROF_edge_counter.3, *LPBX1
 531      0000
 532 0635 E94B1800 		jmp	L2	 #
GAS LISTING C:\cygwin\tmp\ccgmAwz3.s 			page 14


 532      00
 533              	L14:
 534              		.loc 1 119 0 discriminator 2
 535 063a A1080100 		movl	LPBX1+264, %eax	 # *LPBX1, PROF_edge_counter.3
 535      00
 536 063f 8B150C01 		movl	LPBX1+268, %edx	 # *LPBX1, PROF_edge_counter.3
 536      0000
 537 0645 83C001   		addl	$1, %eax	 #, PROF_edge_counter.3
 538 0648 83D200   		adcl	$0, %edx	 #, PROF_edge_counter.3
 539 064b A3080100 		movl	%eax, LPBX1+264	 # PROF_edge_counter.3, *LPBX1
 539      00
 540 0650 89150C01 		movl	%edx, LPBX1+268	 # PROF_edge_counter.3, *LPBX1
 540      0000
 541              	/APP
 542              	 # 119 "../../test/testmbox.c" 1
 543 0656 90       		nop
 544              	 # 0 "" 2
 545              	/NO_APP
 546 0657 A1180100 		movl	LPBX1+280, %eax	 # *LPBX1, PROF_edge_counter.3
 546      00
 547 065c 8B151C01 		movl	LPBX1+284, %edx	 # *LPBX1, PROF_edge_counter.3
 547      0000
 548 0662 83C001   		addl	$1, %eax	 #, PROF_edge_counter.3
 549 0665 83D200   		adcl	$0, %edx	 #, PROF_edge_counter.3
 550 0668 A3180100 		movl	%eax, LPBX1+280	 # PROF_edge_counter.3, *LPBX1
 550      00
 551 066d 89151C01 		movl	%edx, LPBX1+284	 # PROF_edge_counter.3, *LPBX1
 551      0000
 552              		.loc 1 120 0 is_stmt 1 discriminator 2
 553              	/APP
 554              	 # 120 "../../test/testmbox.c" 1
 555 0673 90       		nop
 556              	 # 0 "" 2
 557              	/NO_APP
 558 0674 A1200100 		movl	LPBX1+288, %eax	 # *LPBX1, PROF_edge_counter.3
 558      00
 559 0679 8B152401 		movl	LPBX1+292, %edx	 # *LPBX1, PROF_edge_counter.3
 559      0000
 560 067f 83C001   		addl	$1, %eax	 #, PROF_edge_counter.3
 561 0682 83D200   		adcl	$0, %edx	 #, PROF_edge_counter.3
 562 0685 A3200100 		movl	%eax, LPBX1+288	 # PROF_edge_counter.3, *LPBX1
 562      00
 563 068a 89152401 		movl	%edx, LPBX1+292	 # PROF_edge_counter.3, *LPBX1
 563      0000
 564 0690 8B150C00 		movl	_mb1+12, %edx	 # mb1.mb_rdptr, D.2854
 564      0000
 565 0696 A1080000 		movl	_mb1+8, %eax	 # mb1.mb_wrptr, D.2855
 565      00
 566 069b 39C2     		cmpl	%eax, %edx	 # D.2855, D.2854
 567 069d 0F94C0   		sete	%al	 #, tmp574
 568 06a0 0FB6C0   		movzbl	%al, %eax	 # tmp574, D.2856
 569 06a3 89442404 		movl	%eax, 4(%esp)	 # D.2856,
 570 06a7 C704240A 		movl	$10, (%esp)	 #,
 570      000000
 571 06ae E8000000 		call	__test_assert	 #
 571      00
 572 06b3 84C0     		testb	%al, %al	 # D.2857
GAS LISTING C:\cygwin\tmp\ccgmAwz3.s 			page 15


 573 06b5 743E     		je	L15	 #,
 574              		.loc 1 120 0 is_stmt 0 discriminator 1
 575 06b7 A1280100 		movl	LPBX1+296, %eax	 # *LPBX1, PROF_edge_counter.3
 575      00
 576 06bc 8B152C01 		movl	LPBX1+300, %edx	 # *LPBX1, PROF_edge_counter.3
 576      0000
 577 06c2 83C001   		addl	$1, %eax	 #, PROF_edge_counter.3
 578 06c5 83D200   		adcl	$0, %edx	 #, PROF_edge_counter.3
 579 06c8 A3280100 		movl	%eax, LPBX1+296	 # PROF_edge_counter.3, *LPBX1
 579      00
 580 06cd 89152C01 		movl	%edx, LPBX1+300	 # PROF_edge_counter.3, *LPBX1
 580      0000
 581              	/APP
 582              	 # 120 "../../test/testmbox.c" 1
 583 06d3 90       		nop
 584              	 # 0 "" 2
 585              	/NO_APP
 586 06d4 A1380100 		movl	LPBX1+312, %eax	 # *LPBX1, PROF_edge_counter.3
 586      00
 587 06d9 8B153C01 		movl	LPBX1+316, %edx	 # *LPBX1, PROF_edge_counter.3
 587      0000
 588 06df 83C001   		addl	$1, %eax	 #, PROF_edge_counter.3
 589 06e2 83D200   		adcl	$0, %edx	 #, PROF_edge_counter.3
 590 06e5 A3380100 		movl	%eax, LPBX1+312	 # PROF_edge_counter.3, *LPBX1
 590      00
 591 06ea 89153C01 		movl	%edx, LPBX1+316	 # PROF_edge_counter.3, *LPBX1
 591      0000
 592 06f0 E9901700 		jmp	L2	 #
 592      00
 593              	L15:
 594              		.loc 1 120 0 discriminator 2
 595 06f5 A1300100 		movl	LPBX1+304, %eax	 # *LPBX1, PROF_edge_counter.3
 595      00
 596 06fa 8B153401 		movl	LPBX1+308, %edx	 # *LPBX1, PROF_edge_counter.3
 596      0000
 597 0700 83C001   		addl	$1, %eax	 #, PROF_edge_counter.3
 598 0703 83D200   		adcl	$0, %edx	 #, PROF_edge_counter.3
 599 0706 A3300100 		movl	%eax, LPBX1+304	 # PROF_edge_counter.3, *LPBX1
 599      00
 600 070b 89153401 		movl	%edx, LPBX1+308	 # PROF_edge_counter.3, *LPBX1
 600      0000
 601              	/APP
 602              	 # 120 "../../test/testmbox.c" 1
 603 0711 90       		nop
 604              	 # 0 "" 2
 605              		.loc 1 125 0 is_stmt 1 discriminator 2
 606              	/NO_APP
 607 0712 C744241C 		movl	$0, 28(%esp)	 #, i
 607      00000000 
 608 071a E9E30000 		jmp	L16	 #
 608      00
 609              	L18:
 610              		.loc 1 125 0 is_stmt 0
 611 071f A1600100 		movl	LPBX1+352, %eax	 # *LPBX1, PROF_edge_counter.3
 611      00
 612 0724 8B156401 		movl	LPBX1+356, %edx	 # *LPBX1, PROF_edge_counter.3
 612      0000
GAS LISTING C:\cygwin\tmp\ccgmAwz3.s 			page 16


 613 072a 83C001   		addl	$1, %eax	 #, PROF_edge_counter.3
 614 072d 83D200   		adcl	$0, %edx	 #, PROF_edge_counter.3
 615 0730 A3600100 		movl	%eax, LPBX1+352	 # PROF_edge_counter.3, *LPBX1
 615      00
 616 0735 89156401 		movl	%edx, LPBX1+356	 # PROF_edge_counter.3, *LPBX1
 616      0000
 617              		.loc 1 126 0 is_stmt 1
 618 073b C7442408 		movl	$-1, 8(%esp)	 #,
 618      FFFFFFFF 
 619 0743 8D442414 		leal	20(%esp), %eax	 #, tmp575
 620 0747 89442404 		movl	%eax, 4(%esp)	 # tmp575,
 621 074b C7042400 		movl	$_mb1, (%esp)	 #,
 621      000000
 622 0752 E8000000 		call	_chMBFetch	 #
 622      00
 623 0757 89442418 		movl	%eax, 24(%esp)	 # tmp576, msg1
 624 075b A1400100 		movl	LPBX1+320, %eax	 # *LPBX1, PROF_edge_counter.3
 624      00
 625 0760 8B154401 		movl	LPBX1+324, %edx	 # *LPBX1, PROF_edge_counter.3
 625      0000
 626 0766 83C001   		addl	$1, %eax	 #, PROF_edge_counter.3
 627 0769 83D200   		adcl	$0, %edx	 #, PROF_edge_counter.3
 628 076c A3400100 		movl	%eax, LPBX1+320	 # PROF_edge_counter.3, *LPBX1
 628      00
 629 0771 89154401 		movl	%edx, LPBX1+324	 # PROF_edge_counter.3, *LPBX1
 629      0000
 630              		.loc 1 127 0
 631 0777 837C2418 		cmpl	$0, 24(%esp)	 #, msg1
 631      00
 632 077c 0F94C0   		sete	%al	 #, tmp577
 633 077f 0FB6C0   		movzbl	%al, %eax	 # tmp577, D.2860
 634 0782 89442404 		movl	%eax, 4(%esp)	 # D.2860,
 635 0786 C704240B 		movl	$11, (%esp)	 #,
 635      000000
 636 078d E8000000 		call	__test_assert	 #
 636      00
 637 0792 84C0     		testb	%al, %al	 # D.2861
 638 0794 7421     		je	L17	 #,
 639              		.loc 1 127 0 is_stmt 0 discriminator 1
 640 0796 A1500100 		movl	LPBX1+336, %eax	 # *LPBX1, PROF_edge_counter.3
 640      00
 641 079b 8B155401 		movl	LPBX1+340, %edx	 # *LPBX1, PROF_edge_counter.3
 641      0000
 642 07a1 83C001   		addl	$1, %eax	 #, PROF_edge_counter.3
 643 07a4 83D200   		adcl	$0, %edx	 #, PROF_edge_counter.3
 644 07a7 A3500100 		movl	%eax, LPBX1+336	 # PROF_edge_counter.3, *LPBX1
 644      00
 645 07ac 89155401 		movl	%edx, LPBX1+340	 # PROF_edge_counter.3, *LPBX1
 645      0000
 646 07b2 E9CE1600 		jmp	L2	 #
 646      00
 647              	L17:
 648              		.loc 1 127 0
 649 07b7 A1480100 		movl	LPBX1+328, %eax	 # *LPBX1, PROF_edge_counter.3
 649      00
 650 07bc 8B154C01 		movl	LPBX1+332, %edx	 # *LPBX1, PROF_edge_counter.3
 650      0000
GAS LISTING C:\cygwin\tmp\ccgmAwz3.s 			page 17


 651 07c2 83C001   		addl	$1, %eax	 #, PROF_edge_counter.3
 652 07c5 83D200   		adcl	$0, %edx	 #, PROF_edge_counter.3
 653 07c8 A3480100 		movl	%eax, LPBX1+328	 # PROF_edge_counter.3, *LPBX1
 653      00
 654 07cd 89154C01 		movl	%edx, LPBX1+332	 # PROF_edge_counter.3, *LPBX1
 654      0000
 655              		.loc 1 128 0 is_stmt 1
 656 07d3 8B442414 		movl	20(%esp), %eax	 # msg2, msg2.0
 657 07d7 0FBEC0   		movsbl	%al, %eax	 # D.2865, D.2866
 658 07da 890424   		movl	%eax, (%esp)	 # D.2866,
 659 07dd E8000000 		call	_test_emit_token	 #
 659      00
 660              		.loc 1 125 0
 661 07e2 FF44241C 		incl	28(%esp)	 # i
 662 07e6 A1580100 		movl	LPBX1+344, %eax	 # *LPBX1, PROF_edge_counter.3
 662      00
 663 07eb 8B155C01 		movl	LPBX1+348, %edx	 # *LPBX1, PROF_edge_counter.3
 663      0000
 664 07f1 83C001   		addl	$1, %eax	 #, PROF_edge_counter.3
 665 07f4 83D200   		adcl	$0, %edx	 #, PROF_edge_counter.3
 666 07f7 A3580100 		movl	%eax, LPBX1+344	 # PROF_edge_counter.3, *LPBX1
 666      00
 667 07fc 89155C01 		movl	%edx, LPBX1+348	 # PROF_edge_counter.3, *LPBX1
 667      0000
 668              	L16:
 669              		.loc 1 125 0 is_stmt 0 discriminator 1
 670 0802 837C241C 		cmpl	$4, 28(%esp)	 #, i
 670      04
 671 0807 0F8612FF 		jbe	L18	 #,
 671      FFFF
 672              		.loc 1 125 0
 673 080d A1680100 		movl	LPBX1+360, %eax	 # *LPBX1, PROF_edge_counter.3
 673      00
 674 0812 8B156C01 		movl	LPBX1+364, %edx	 # *LPBX1, PROF_edge_counter.3
 674      0000
 675 0818 83C001   		addl	$1, %eax	 #, PROF_edge_counter.3
 676 081b 83D200   		adcl	$0, %edx	 #, PROF_edge_counter.3
 677 081e A3680100 		movl	%eax, LPBX1+360	 # PROF_edge_counter.3, *LPBX1
 677      00
 678 0823 89156C01 		movl	%edx, LPBX1+364	 # PROF_edge_counter.3, *LPBX1
 678      0000
 679              		.loc 1 130 0 is_stmt 1
 680 0829 C7442404 		movl	$LC0, 4(%esp)	 #,
 680      00000000 
 681 0831 C704240C 		movl	$12, (%esp)	 #,
 681      000000
 682 0838 E8000000 		call	__test_assert_sequence	 #
 682      00
 683 083d 84C0     		testb	%al, %al	 # D.2867
 684 083f 7421     		je	L19	 #,
 685              		.loc 1 130 0 is_stmt 0 discriminator 1
 686 0841 A1780100 		movl	LPBX1+376, %eax	 # *LPBX1, PROF_edge_counter.3
 686      00
 687 0846 8B157C01 		movl	LPBX1+380, %edx	 # *LPBX1, PROF_edge_counter.3
 687      0000
 688 084c 83C001   		addl	$1, %eax	 #, PROF_edge_counter.3
 689 084f 83D200   		adcl	$0, %edx	 #, PROF_edge_counter.3
GAS LISTING C:\cygwin\tmp\ccgmAwz3.s 			page 18


 690 0852 A3780100 		movl	%eax, LPBX1+376	 # PROF_edge_counter.3, *LPBX1
 690      00
 691 0857 89157C01 		movl	%edx, LPBX1+380	 # PROF_edge_counter.3, *LPBX1
 691      0000
 692 085d E9231600 		jmp	L2	 #
 692      00
 693              	L19:
 694              		.loc 1 130 0
 695 0862 A1700100 		movl	LPBX1+368, %eax	 # *LPBX1, PROF_edge_counter.3
 695      00
 696 0867 8B157401 		movl	LPBX1+372, %edx	 # *LPBX1, PROF_edge_counter.3
 696      0000
 697 086d 83C001   		addl	$1, %eax	 #, PROF_edge_counter.3
 698 0870 83D200   		adcl	$0, %edx	 #, PROF_edge_counter.3
 699 0873 A3700100 		movl	%eax, LPBX1+368	 # PROF_edge_counter.3, *LPBX1
 699      00
 700 0878 89157401 		movl	%edx, LPBX1+372	 # PROF_edge_counter.3, *LPBX1
 700      0000
 701              		.loc 1 135 0 is_stmt 1
 702 087e 8B44241C 		movl	28(%esp), %eax	 # i, tmp578
 703 0882 83C042   		addl	$66, %eax	 #, D.2870
 704 0885 C7442408 		movl	$-1, 8(%esp)	 #,
 704      FFFFFFFF 
 705 088d 89442404 		movl	%eax, 4(%esp)	 # D.2871,
 706 0891 C7042400 		movl	$_mb1, (%esp)	 #,
 706      000000
 707 0898 E8000000 		call	_chMBPost	 #
 707      00
 708 089d 89442418 		movl	%eax, 24(%esp)	 # tmp579, msg1
 709 08a1 A1800100 		movl	LPBX1+384, %eax	 # *LPBX1, PROF_edge_counter.3
 709      00
 710 08a6 8B158401 		movl	LPBX1+388, %edx	 # *LPBX1, PROF_edge_counter.3
 710      0000
 711 08ac 83C001   		addl	$1, %eax	 #, PROF_edge_counter.3
 712 08af 83D200   		adcl	$0, %edx	 #, PROF_edge_counter.3
 713 08b2 A3800100 		movl	%eax, LPBX1+384	 # PROF_edge_counter.3, *LPBX1
 713      00
 714 08b7 89158401 		movl	%edx, LPBX1+388	 # PROF_edge_counter.3, *LPBX1
 714      0000
 715              		.loc 1 136 0
 716 08bd 837C2418 		cmpl	$0, 24(%esp)	 #, msg1
 716      00
 717 08c2 0F94C0   		sete	%al	 #, tmp580
 718 08c5 0FB6C0   		movzbl	%al, %eax	 # tmp580, D.2872
 719 08c8 89442404 		movl	%eax, 4(%esp)	 # D.2872,
 720 08cc C704240D 		movl	$13, (%esp)	 #,
 720      000000
 721 08d3 E8000000 		call	__test_assert	 #
 721      00
 722 08d8 84C0     		testb	%al, %al	 # D.2873
 723 08da 7421     		je	L20	 #,
 724              		.loc 1 136 0 is_stmt 0 discriminator 1
 725 08dc A1900100 		movl	LPBX1+400, %eax	 # *LPBX1, PROF_edge_counter.3
 725      00
 726 08e1 8B159401 		movl	LPBX1+404, %edx	 # *LPBX1, PROF_edge_counter.3
 726      0000
 727 08e7 83C001   		addl	$1, %eax	 #, PROF_edge_counter.3
GAS LISTING C:\cygwin\tmp\ccgmAwz3.s 			page 19


 728 08ea 83D200   		adcl	$0, %edx	 #, PROF_edge_counter.3
 729 08ed A3900100 		movl	%eax, LPBX1+400	 # PROF_edge_counter.3, *LPBX1
 729      00
 730 08f2 89159401 		movl	%edx, LPBX1+404	 # PROF_edge_counter.3, *LPBX1
 730      0000
 731 08f8 E9881500 		jmp	L2	 #
 731      00
 732              	L20:
 733              		.loc 1 136 0
 734 08fd A1880100 		movl	LPBX1+392, %eax	 # *LPBX1, PROF_edge_counter.3
 734      00
 735 0902 8B158C01 		movl	LPBX1+396, %edx	 # *LPBX1, PROF_edge_counter.3
 735      0000
 736 0908 83C001   		addl	$1, %eax	 #, PROF_edge_counter.3
 737 090b 83D200   		adcl	$0, %edx	 #, PROF_edge_counter.3
 738 090e A3880100 		movl	%eax, LPBX1+392	 # PROF_edge_counter.3, *LPBX1
 738      00
 739 0913 89158C01 		movl	%edx, LPBX1+396	 # PROF_edge_counter.3, *LPBX1
 739      0000
 740              		.loc 1 137 0 is_stmt 1
 741 0919 C7442408 		movl	$-1, 8(%esp)	 #,
 741      FFFFFFFF 
 742 0921 8D442414 		leal	20(%esp), %eax	 #, tmp581
 743 0925 89442404 		movl	%eax, 4(%esp)	 # tmp581,
 744 0929 C7042400 		movl	$_mb1, (%esp)	 #,
 744      000000
 745 0930 E8000000 		call	_chMBFetch	 #
 745      00
 746 0935 89442418 		movl	%eax, 24(%esp)	 # tmp582, msg1
 747 0939 A1980100 		movl	LPBX1+408, %eax	 # *LPBX1, PROF_edge_counter.3
 747      00
 748 093e 8B159C01 		movl	LPBX1+412, %edx	 # *LPBX1, PROF_edge_counter.3
 748      0000
 749 0944 83C001   		addl	$1, %eax	 #, PROF_edge_counter.3
 750 0947 83D200   		adcl	$0, %edx	 #, PROF_edge_counter.3
 751 094a A3980100 		movl	%eax, LPBX1+408	 # PROF_edge_counter.3, *LPBX1
 751      00
 752 094f 89159C01 		movl	%edx, LPBX1+412	 # PROF_edge_counter.3, *LPBX1
 752      0000
 753              		.loc 1 138 0
 754 0955 837C2418 		cmpl	$0, 24(%esp)	 #, msg1
 754      00
 755 095a 0F94C0   		sete	%al	 #, tmp583
 756 095d 0FB6C0   		movzbl	%al, %eax	 # tmp583, D.2876
 757 0960 89442404 		movl	%eax, 4(%esp)	 # D.2876,
 758 0964 C704240E 		movl	$14, (%esp)	 #,
 758      000000
 759 096b E8000000 		call	__test_assert	 #
 759      00
 760 0970 84C0     		testb	%al, %al	 # D.2877
 761 0972 7421     		je	L21	 #,
 762              		.loc 1 138 0 is_stmt 0 discriminator 1
 763 0974 A1A80100 		movl	LPBX1+424, %eax	 # *LPBX1, PROF_edge_counter.3
 763      00
 764 0979 8B15AC01 		movl	LPBX1+428, %edx	 # *LPBX1, PROF_edge_counter.3
 764      0000
 765 097f 83C001   		addl	$1, %eax	 #, PROF_edge_counter.3
GAS LISTING C:\cygwin\tmp\ccgmAwz3.s 			page 20


 766 0982 83D200   		adcl	$0, %edx	 #, PROF_edge_counter.3
 767 0985 A3A80100 		movl	%eax, LPBX1+424	 # PROF_edge_counter.3, *LPBX1
 767      00
 768 098a 8915AC01 		movl	%edx, LPBX1+428	 # PROF_edge_counter.3, *LPBX1
 768      0000
 769 0990 E9F01400 		jmp	L2	 #
 769      00
 770              	L21:
 771              		.loc 1 138 0
 772 0995 A1A00100 		movl	LPBX1+416, %eax	 # *LPBX1, PROF_edge_counter.3
 772      00
 773 099a 8B15A401 		movl	LPBX1+420, %edx	 # *LPBX1, PROF_edge_counter.3
 773      0000
 774 09a0 83C001   		addl	$1, %eax	 #, PROF_edge_counter.3
 775 09a3 83D200   		adcl	$0, %edx	 #, PROF_edge_counter.3
 776 09a6 A3A00100 		movl	%eax, LPBX1+416	 # PROF_edge_counter.3, *LPBX1
 776      00
 777 09ab 8915A401 		movl	%edx, LPBX1+420	 # PROF_edge_counter.3, *LPBX1
 777      0000
 778              		.loc 1 139 0 is_stmt 1
 779 09b1 8B150000 		movl	_mb1, %edx	 # mb1.mb_buffer, D.2880
 779      0000
 780 09b7 A1080000 		movl	_mb1+8, %eax	 # mb1.mb_wrptr, D.2881
 780      00
 781 09bc 39C2     		cmpl	%eax, %edx	 # D.2881, D.2880
 782 09be 0F94C0   		sete	%al	 #, tmp584
 783 09c1 0FB6C0   		movzbl	%al, %eax	 # tmp584, D.2882
 784 09c4 89442404 		movl	%eax, 4(%esp)	 # D.2882,
 785 09c8 C704240F 		movl	$15, (%esp)	 #,
 785      000000
 786 09cf E8000000 		call	__test_assert	 #
 786      00
 787 09d4 84C0     		testb	%al, %al	 # D.2883
 788 09d6 7421     		je	L22	 #,
 789              		.loc 1 139 0 is_stmt 0 discriminator 1
 790 09d8 A1B80100 		movl	LPBX1+440, %eax	 # *LPBX1, PROF_edge_counter.3
 790      00
 791 09dd 8B15BC01 		movl	LPBX1+444, %edx	 # *LPBX1, PROF_edge_counter.3
 791      0000
 792 09e3 83C001   		addl	$1, %eax	 #, PROF_edge_counter.3
 793 09e6 83D200   		adcl	$0, %edx	 #, PROF_edge_counter.3
 794 09e9 A3B80100 		movl	%eax, LPBX1+440	 # PROF_edge_counter.3, *LPBX1
 794      00
 795 09ee 8915BC01 		movl	%edx, LPBX1+444	 # PROF_edge_counter.3, *LPBX1
 795      0000
 796 09f4 E98C1400 		jmp	L2	 #
 796      00
 797              	L22:
 798              		.loc 1 139 0
 799 09f9 A1B00100 		movl	LPBX1+432, %eax	 # *LPBX1, PROF_edge_counter.3
 799      00
 800 09fe 8B15B401 		movl	LPBX1+436, %edx	 # *LPBX1, PROF_edge_counter.3
 800      0000
 801 0a04 83C001   		addl	$1, %eax	 #, PROF_edge_counter.3
 802 0a07 83D200   		adcl	$0, %edx	 #, PROF_edge_counter.3
 803 0a0a A3B00100 		movl	%eax, LPBX1+432	 # PROF_edge_counter.3, *LPBX1
 803      00
GAS LISTING C:\cygwin\tmp\ccgmAwz3.s 			page 21


 804 0a0f 8915B401 		movl	%edx, LPBX1+436	 # PROF_edge_counter.3, *LPBX1
 804      0000
 805              		.loc 1 140 0 is_stmt 1
 806 0a15 8B150000 		movl	_mb1, %edx	 # mb1.mb_buffer, D.2886
 806      0000
 807 0a1b A10C0000 		movl	_mb1+12, %eax	 # mb1.mb_rdptr, D.2887
 807      00
 808 0a20 39C2     		cmpl	%eax, %edx	 # D.2887, D.2886
 809 0a22 0F94C0   		sete	%al	 #, tmp585
 810 0a25 0FB6C0   		movzbl	%al, %eax	 # tmp585, D.2888
 811 0a28 89442404 		movl	%eax, 4(%esp)	 # D.2888,
 812 0a2c C7042410 		movl	$16, (%esp)	 #,
 812      000000
 813 0a33 E8000000 		call	__test_assert	 #
 813      00
 814 0a38 84C0     		testb	%al, %al	 # D.2889
 815 0a3a 7421     		je	L23	 #,
 816              		.loc 1 140 0 is_stmt 0 discriminator 1
 817 0a3c A1C80100 		movl	LPBX1+456, %eax	 # *LPBX1, PROF_edge_counter.3
 817      00
 818 0a41 8B15CC01 		movl	LPBX1+460, %edx	 # *LPBX1, PROF_edge_counter.3
 818      0000
 819 0a47 83C001   		addl	$1, %eax	 #, PROF_edge_counter.3
 820 0a4a 83D200   		adcl	$0, %edx	 #, PROF_edge_counter.3
 821 0a4d A3C80100 		movl	%eax, LPBX1+456	 # PROF_edge_counter.3, *LPBX1
 821      00
 822 0a52 8915CC01 		movl	%edx, LPBX1+460	 # PROF_edge_counter.3, *LPBX1
 822      0000
 823 0a58 E9281400 		jmp	L2	 #
 823      00
 824              	L23:
 825              		.loc 1 140 0
 826 0a5d A1C00100 		movl	LPBX1+448, %eax	 # *LPBX1, PROF_edge_counter.3
 826      00
 827 0a62 8B15C401 		movl	LPBX1+452, %edx	 # *LPBX1, PROF_edge_counter.3
 827      0000
 828 0a68 83C001   		addl	$1, %eax	 #, PROF_edge_counter.3
 829 0a6b 83D200   		adcl	$0, %edx	 #, PROF_edge_counter.3
 830 0a6e A3C00100 		movl	%eax, LPBX1+448	 # PROF_edge_counter.3, *LPBX1
 830      00
 831 0a73 8915C401 		movl	%edx, LPBX1+452	 # PROF_edge_counter.3, *LPBX1
 831      0000
 832              		.loc 1 145 0 is_stmt 1
 833 0a79 C7442408 		movl	$1, 8(%esp)	 #,
 833      01000000 
 834 0a81 8D442414 		leal	20(%esp), %eax	 #, tmp586
 835 0a85 89442404 		movl	%eax, 4(%esp)	 # tmp586,
 836 0a89 C7042400 		movl	$_mb1, (%esp)	 #,
 836      000000
 837 0a90 E8000000 		call	_chMBFetch	 #
 837      00
 838 0a95 89442418 		movl	%eax, 24(%esp)	 # tmp587, msg1
 839 0a99 A1D00100 		movl	LPBX1+464, %eax	 # *LPBX1, PROF_edge_counter.3
 839      00
 840 0a9e 8B15D401 		movl	LPBX1+468, %edx	 # *LPBX1, PROF_edge_counter.3
 840      0000
 841 0aa4 83C001   		addl	$1, %eax	 #, PROF_edge_counter.3
GAS LISTING C:\cygwin\tmp\ccgmAwz3.s 			page 22


 842 0aa7 83D200   		adcl	$0, %edx	 #, PROF_edge_counter.3
 843 0aaa A3D00100 		movl	%eax, LPBX1+464	 # PROF_edge_counter.3, *LPBX1
 843      00
 844 0aaf 8915D401 		movl	%edx, LPBX1+468	 # PROF_edge_counter.3, *LPBX1
 844      0000
 845              		.loc 1 146 0
 846 0ab5 837C2418 		cmpl	$-1, 24(%esp)	 #, msg1
 846      FF
 847 0aba 0F94C0   		sete	%al	 #, tmp588
 848 0abd 0FB6C0   		movzbl	%al, %eax	 # tmp588, D.2892
 849 0ac0 89442404 		movl	%eax, 4(%esp)	 # D.2892,
 850 0ac4 C7042411 		movl	$17, (%esp)	 #,
 850      000000
 851 0acb E8000000 		call	__test_assert	 #
 851      00
 852 0ad0 84C0     		testb	%al, %al	 # D.2893
 853 0ad2 7421     		je	L24	 #,
 854              		.loc 1 146 0 is_stmt 0 discriminator 1
 855 0ad4 A1E00100 		movl	LPBX1+480, %eax	 # *LPBX1, PROF_edge_counter.3
 855      00
 856 0ad9 8B15E401 		movl	LPBX1+484, %edx	 # *LPBX1, PROF_edge_counter.3
 856      0000
 857 0adf 83C001   		addl	$1, %eax	 #, PROF_edge_counter.3
 858 0ae2 83D200   		adcl	$0, %edx	 #, PROF_edge_counter.3
 859 0ae5 A3E00100 		movl	%eax, LPBX1+480	 # PROF_edge_counter.3, *LPBX1
 859      00
 860 0aea 8915E401 		movl	%edx, LPBX1+484	 # PROF_edge_counter.3, *LPBX1
 860      0000
 861 0af0 E9901300 		jmp	L2	 #
 861      00
 862              	L24:
 863              		.loc 1 146 0
 864 0af5 A1D80100 		movl	LPBX1+472, %eax	 # *LPBX1, PROF_edge_counter.3
 864      00
 865 0afa 8B15DC01 		movl	LPBX1+476, %edx	 # *LPBX1, PROF_edge_counter.3
 865      0000
 866 0b00 83C001   		addl	$1, %eax	 #, PROF_edge_counter.3
 867 0b03 83D200   		adcl	$0, %edx	 #, PROF_edge_counter.3
 868 0b06 A3D80100 		movl	%eax, LPBX1+472	 # PROF_edge_counter.3, *LPBX1
 868      00
 869 0b0b 8915DC01 		movl	%edx, LPBX1+476	 # PROF_edge_counter.3, *LPBX1
 869      0000
 870              		.loc 1 147 0 is_stmt 1
 871              	/APP
 872              	 # 147 "../../test/testmbox.c" 1
 873 0b11 90       		nop
 874              	 # 0 "" 2
 875              	/NO_APP
 876 0b12 A1E80100 		movl	LPBX1+488, %eax	 # *LPBX1, PROF_edge_counter.3
 876      00
 877 0b17 8B15EC01 		movl	LPBX1+492, %edx	 # *LPBX1, PROF_edge_counter.3
 877      0000
 878 0b1d 83C001   		addl	$1, %eax	 #, PROF_edge_counter.3
 879 0b20 83D200   		adcl	$0, %edx	 #, PROF_edge_counter.3
 880 0b23 A3E80100 		movl	%eax, LPBX1+488	 # PROF_edge_counter.3, *LPBX1
 880      00
 881 0b28 8915EC01 		movl	%edx, LPBX1+492	 # PROF_edge_counter.3, *LPBX1
GAS LISTING C:\cygwin\tmp\ccgmAwz3.s 			page 23


 881      0000
 882              		.loc 1 148 0
 883 0b2e 8D442414 		leal	20(%esp), %eax	 #, tmp589
 884 0b32 89442404 		movl	%eax, 4(%esp)	 # tmp589,
 885 0b36 C7042400 		movl	$_mb1, (%esp)	 #,
 885      000000
 886 0b3d E8000000 		call	_chMBFetchI	 #
 886      00
 887 0b42 89442418 		movl	%eax, 24(%esp)	 # tmp590, msg1
 888 0b46 A1F00100 		movl	LPBX1+496, %eax	 # *LPBX1, PROF_edge_counter.3
 888      00
 889 0b4b 8B15F401 		movl	LPBX1+500, %edx	 # *LPBX1, PROF_edge_counter.3
 889      0000
 890 0b51 83C001   		addl	$1, %eax	 #, PROF_edge_counter.3
 891 0b54 83D200   		adcl	$0, %edx	 #, PROF_edge_counter.3
 892 0b57 A3F00100 		movl	%eax, LPBX1+496	 # PROF_edge_counter.3, *LPBX1
 892      00
 893 0b5c 8915F401 		movl	%edx, LPBX1+500	 # PROF_edge_counter.3, *LPBX1
 893      0000
 894              		.loc 1 149 0
 895              	/APP
 896              	 # 149 "../../test/testmbox.c" 1
 897 0b62 90       		nop
 898              	 # 0 "" 2
 899              	/NO_APP
 900 0b63 A1F80100 		movl	LPBX1+504, %eax	 # *LPBX1, PROF_edge_counter.3
 900      00
 901 0b68 8B15FC01 		movl	LPBX1+508, %edx	 # *LPBX1, PROF_edge_counter.3
 901      0000
 902 0b6e 83C001   		addl	$1, %eax	 #, PROF_edge_counter.3
 903 0b71 83D200   		adcl	$0, %edx	 #, PROF_edge_counter.3
 904 0b74 A3F80100 		movl	%eax, LPBX1+504	 # PROF_edge_counter.3, *LPBX1
 904      00
 905 0b79 8915FC01 		movl	%edx, LPBX1+508	 # PROF_edge_counter.3, *LPBX1
 905      0000
 906              		.loc 1 150 0
 907 0b7f 837C2418 		cmpl	$-1, 24(%esp)	 #, msg1
 907      FF
 908 0b84 0F94C0   		sete	%al	 #, tmp591
 909 0b87 0FB6C0   		movzbl	%al, %eax	 # tmp591, D.2896
 910 0b8a 89442404 		movl	%eax, 4(%esp)	 # D.2896,
 911 0b8e C7042412 		movl	$18, (%esp)	 #,
 911      000000
 912 0b95 E8000000 		call	__test_assert	 #
 912      00
 913 0b9a 84C0     		testb	%al, %al	 # D.2897
 914 0b9c 7421     		je	L25	 #,
 915              		.loc 1 150 0 is_stmt 0 discriminator 1
 916 0b9e A1080200 		movl	LPBX1+520, %eax	 # *LPBX1, PROF_edge_counter.3
 916      00
 917 0ba3 8B150C02 		movl	LPBX1+524, %edx	 # *LPBX1, PROF_edge_counter.3
 917      0000
 918 0ba9 83C001   		addl	$1, %eax	 #, PROF_edge_counter.3
 919 0bac 83D200   		adcl	$0, %edx	 #, PROF_edge_counter.3
 920 0baf A3080200 		movl	%eax, LPBX1+520	 # PROF_edge_counter.3, *LPBX1
 920      00
 921 0bb4 89150C02 		movl	%edx, LPBX1+524	 # PROF_edge_counter.3, *LPBX1
GAS LISTING C:\cygwin\tmp\ccgmAwz3.s 			page 24


 921      0000
 922 0bba E9C61200 		jmp	L2	 #
 922      00
 923              	L25:
 924              		.loc 1 150 0
 925 0bbf A1000200 		movl	LPBX1+512, %eax	 # *LPBX1, PROF_edge_counter.3
 925      00
 926 0bc4 8B150402 		movl	LPBX1+516, %edx	 # *LPBX1, PROF_edge_counter.3
 926      0000
 927 0bca 83C001   		addl	$1, %eax	 #, PROF_edge_counter.3
 928 0bcd 83D200   		adcl	$0, %edx	 #, PROF_edge_counter.3
 929 0bd0 A3000200 		movl	%eax, LPBX1+512	 # PROF_edge_counter.3, *LPBX1
 929      00
 930 0bd5 89150402 		movl	%edx, LPBX1+516	 # PROF_edge_counter.3, *LPBX1
 930      0000
 931              		.loc 1 155 0 is_stmt 1
 932              	/APP
 933              	 # 155 "../../test/testmbox.c" 1
 934 0bdb 90       		nop
 935              	 # 0 "" 2
 936              	/NO_APP
 937 0bdc A1100200 		movl	LPBX1+528, %eax	 # *LPBX1, PROF_edge_counter.3
 937      00
 938 0be1 8B151402 		movl	LPBX1+532, %edx	 # *LPBX1, PROF_edge_counter.3
 938      0000
 939 0be7 83C001   		addl	$1, %eax	 #, PROF_edge_counter.3
 940 0bea 83D200   		adcl	$0, %edx	 #, PROF_edge_counter.3
 941 0bed A3100200 		movl	%eax, LPBX1+528	 # PROF_edge_counter.3, *LPBX1
 941      00
 942 0bf2 89151402 		movl	%edx, LPBX1+532	 # PROF_edge_counter.3, *LPBX1
 942      0000
 943 0bf8 A1240000 		movl	_mb1+36, %eax	 # mb1.mb_emptysem.s_cnt, D.2900
 943      00
 944 0bfd 83F805   		cmpl	$5, %eax	 #, D.2900
 945 0c00 0F94C0   		sete	%al	 #, tmp592
 946 0c03 0FB6C0   		movzbl	%al, %eax	 # tmp592, D.2901
 947 0c06 89442404 		movl	%eax, 4(%esp)	 # D.2901,
 948 0c0a C7042413 		movl	$19, (%esp)	 #,
 948      000000
 949 0c11 E8000000 		call	__test_assert	 #
 949      00
 950 0c16 84C0     		testb	%al, %al	 # D.2902
 951 0c18 743E     		je	L26	 #,
 952              		.loc 1 155 0 is_stmt 0 discriminator 1
 953 0c1a A1180200 		movl	LPBX1+536, %eax	 # *LPBX1, PROF_edge_counter.3
 953      00
 954 0c1f 8B151C02 		movl	LPBX1+540, %edx	 # *LPBX1, PROF_edge_counter.3
 954      0000
 955 0c25 83C001   		addl	$1, %eax	 #, PROF_edge_counter.3
 956 0c28 83D200   		adcl	$0, %edx	 #, PROF_edge_counter.3
 957 0c2b A3180200 		movl	%eax, LPBX1+536	 # PROF_edge_counter.3, *LPBX1
 957      00
 958 0c30 89151C02 		movl	%edx, LPBX1+540	 # PROF_edge_counter.3, *LPBX1
 958      0000
 959              	/APP
 960              	 # 155 "../../test/testmbox.c" 1
 961 0c36 90       		nop
GAS LISTING C:\cygwin\tmp\ccgmAwz3.s 			page 25


 962              	 # 0 "" 2
 963              	/NO_APP
 964 0c37 A1280200 		movl	LPBX1+552, %eax	 # *LPBX1, PROF_edge_counter.3
 964      00
 965 0c3c 8B152C02 		movl	LPBX1+556, %edx	 # *LPBX1, PROF_edge_counter.3
 965      0000
 966 0c42 83C001   		addl	$1, %eax	 #, PROF_edge_counter.3
 967 0c45 83D200   		adcl	$0, %edx	 #, PROF_edge_counter.3
 968 0c48 A3280200 		movl	%eax, LPBX1+552	 # PROF_edge_counter.3, *LPBX1
 968      00
 969 0c4d 89152C02 		movl	%edx, LPBX1+556	 # PROF_edge_counter.3, *LPBX1
 969      0000
 970 0c53 E92D1200 		jmp	L2	 #
 970      00
 971              	L26:
 972              		.loc 1 155 0 discriminator 2
 973 0c58 A1200200 		movl	LPBX1+544, %eax	 # *LPBX1, PROF_edge_counter.3
 973      00
 974 0c5d 8B152402 		movl	LPBX1+548, %edx	 # *LPBX1, PROF_edge_counter.3
 974      0000
 975 0c63 83C001   		addl	$1, %eax	 #, PROF_edge_counter.3
 976 0c66 83D200   		adcl	$0, %edx	 #, PROF_edge_counter.3
 977 0c69 A3200200 		movl	%eax, LPBX1+544	 # PROF_edge_counter.3, *LPBX1
 977      00
 978 0c6e 89152402 		movl	%edx, LPBX1+548	 # PROF_edge_counter.3, *LPBX1
 978      0000
 979              	/APP
 980              	 # 155 "../../test/testmbox.c" 1
 981 0c74 90       		nop
 982              	 # 0 "" 2
 983              	/NO_APP
 984 0c75 A1300200 		movl	LPBX1+560, %eax	 # *LPBX1, PROF_edge_counter.3
 984      00
 985 0c7a 8B153402 		movl	LPBX1+564, %edx	 # *LPBX1, PROF_edge_counter.3
 985      0000
 986 0c80 83C001   		addl	$1, %eax	 #, PROF_edge_counter.3
 987 0c83 83D200   		adcl	$0, %edx	 #, PROF_edge_counter.3
 988 0c86 A3300200 		movl	%eax, LPBX1+560	 # PROF_edge_counter.3, *LPBX1
 988      00
 989 0c8b 89153402 		movl	%edx, LPBX1+564	 # PROF_edge_counter.3, *LPBX1
 989      0000
 990              		.loc 1 156 0 is_stmt 1 discriminator 2
 991              	/APP
 992              	 # 156 "../../test/testmbox.c" 1
 993 0c91 90       		nop
 994              	 # 0 "" 2
 995              	/NO_APP
 996 0c92 A1380200 		movl	LPBX1+568, %eax	 # *LPBX1, PROF_edge_counter.3
 996      00
 997 0c97 8B153C02 		movl	LPBX1+572, %edx	 # *LPBX1, PROF_edge_counter.3
 997      0000
 998 0c9d 83C001   		addl	$1, %eax	 #, PROF_edge_counter.3
 999 0ca0 83D200   		adcl	$0, %edx	 #, PROF_edge_counter.3
 1000 0ca3 A3380200 		movl	%eax, LPBX1+568	 # PROF_edge_counter.3, *LPBX1
 1000      00
 1001 0ca8 89153C02 		movl	%edx, LPBX1+572	 # PROF_edge_counter.3, *LPBX1
 1001      0000
GAS LISTING C:\cygwin\tmp\ccgmAwz3.s 			page 26


 1002 0cae A1180000 		movl	_mb1+24, %eax	 # mb1.mb_fullsem.s_cnt, D.2905
 1002      00
 1003 0cb3 85C0     		testl	%eax, %eax	 # D.2905
 1004 0cb5 0F94C0   		sete	%al	 #, tmp593
 1005 0cb8 0FB6C0   		movzbl	%al, %eax	 # tmp593, D.2906
 1006 0cbb 89442404 		movl	%eax, 4(%esp)	 # D.2906,
 1007 0cbf C7042414 		movl	$20, (%esp)	 #,
 1007      000000
 1008 0cc6 E8000000 		call	__test_assert	 #
 1008      00
 1009 0ccb 84C0     		testb	%al, %al	 # D.2907
 1010 0ccd 743E     		je	L27	 #,
 1011              		.loc 1 156 0 is_stmt 0 discriminator 1
 1012 0ccf A1400200 		movl	LPBX1+576, %eax	 # *LPBX1, PROF_edge_counter.3
 1012      00
 1013 0cd4 8B154402 		movl	LPBX1+580, %edx	 # *LPBX1, PROF_edge_counter.3
 1013      0000
 1014 0cda 83C001   		addl	$1, %eax	 #, PROF_edge_counter.3
 1015 0cdd 83D200   		adcl	$0, %edx	 #, PROF_edge_counter.3
 1016 0ce0 A3400200 		movl	%eax, LPBX1+576	 # PROF_edge_counter.3, *LPBX1
 1016      00
 1017 0ce5 89154402 		movl	%edx, LPBX1+580	 # PROF_edge_counter.3, *LPBX1
 1017      0000
 1018              	/APP
 1019              	 # 156 "../../test/testmbox.c" 1
 1020 0ceb 90       		nop
 1021              	 # 0 "" 2
 1022              	/NO_APP
 1023 0cec A1500200 		movl	LPBX1+592, %eax	 # *LPBX1, PROF_edge_counter.3
 1023      00
 1024 0cf1 8B155402 		movl	LPBX1+596, %edx	 # *LPBX1, PROF_edge_counter.3
 1024      0000
 1025 0cf7 83C001   		addl	$1, %eax	 #, PROF_edge_counter.3
 1026 0cfa 83D200   		adcl	$0, %edx	 #, PROF_edge_counter.3
 1027 0cfd A3500200 		movl	%eax, LPBX1+592	 # PROF_edge_counter.3, *LPBX1
 1027      00
 1028 0d02 89155402 		movl	%edx, LPBX1+596	 # PROF_edge_counter.3, *LPBX1
 1028      0000
 1029 0d08 E9781100 		jmp	L2	 #
 1029      00
 1030              	L27:
 1031              		.loc 1 156 0 discriminator 2
 1032 0d0d A1480200 		movl	LPBX1+584, %eax	 # *LPBX1, PROF_edge_counter.3
 1032      00
 1033 0d12 8B154C02 		movl	LPBX1+588, %edx	 # *LPBX1, PROF_edge_counter.3
 1033      0000
 1034 0d18 83C001   		addl	$1, %eax	 #, PROF_edge_counter.3
 1035 0d1b 83D200   		adcl	$0, %edx	 #, PROF_edge_counter.3
 1036 0d1e A3480200 		movl	%eax, LPBX1+584	 # PROF_edge_counter.3, *LPBX1
 1036      00
 1037 0d23 89154C02 		movl	%edx, LPBX1+588	 # PROF_edge_counter.3, *LPBX1
 1037      0000
 1038              	/APP
 1039              	 # 156 "../../test/testmbox.c" 1
 1040 0d29 90       		nop
 1041              	 # 0 "" 2
 1042              	/NO_APP
GAS LISTING C:\cygwin\tmp\ccgmAwz3.s 			page 27


 1043 0d2a A1580200 		movl	LPBX1+600, %eax	 # *LPBX1, PROF_edge_counter.3
 1043      00
 1044 0d2f 8B155C02 		movl	LPBX1+604, %edx	 # *LPBX1, PROF_edge_counter.3
 1044      0000
 1045 0d35 83C001   		addl	$1, %eax	 #, PROF_edge_counter.3
 1046 0d38 83D200   		adcl	$0, %edx	 #, PROF_edge_counter.3
 1047 0d3b A3580200 		movl	%eax, LPBX1+600	 # PROF_edge_counter.3, *LPBX1
 1047      00
 1048 0d40 89155C02 		movl	%edx, LPBX1+604	 # PROF_edge_counter.3, *LPBX1
 1048      0000
 1049              		.loc 1 157 0 is_stmt 1 discriminator 2
 1050              	/APP
 1051              	 # 157 "../../test/testmbox.c" 1
 1052 0d46 90       		nop
 1053              	 # 0 "" 2
 1054              	/NO_APP
 1055 0d47 A1600200 		movl	LPBX1+608, %eax	 # *LPBX1, PROF_edge_counter.3
 1055      00
 1056 0d4c 8B156402 		movl	LPBX1+612, %edx	 # *LPBX1, PROF_edge_counter.3
 1056      0000
 1057 0d52 83C001   		addl	$1, %eax	 #, PROF_edge_counter.3
 1058 0d55 83D200   		adcl	$0, %edx	 #, PROF_edge_counter.3
 1059 0d58 A3600200 		movl	%eax, LPBX1+608	 # PROF_edge_counter.3, *LPBX1
 1059      00
 1060 0d5d 89156402 		movl	%edx, LPBX1+612	 # PROF_edge_counter.3, *LPBX1
 1060      0000
 1061 0d63 8B150C00 		movl	_mb1+12, %edx	 # mb1.mb_rdptr, D.2910
 1061      0000
 1062 0d69 A1080000 		movl	_mb1+8, %eax	 # mb1.mb_wrptr, D.2911
 1062      00
 1063 0d6e 39C2     		cmpl	%eax, %edx	 # D.2911, D.2910
 1064 0d70 0F94C0   		sete	%al	 #, tmp594
 1065 0d73 0FB6C0   		movzbl	%al, %eax	 # tmp594, D.2912
 1066 0d76 89442404 		movl	%eax, 4(%esp)	 # D.2912,
 1067 0d7a C7042415 		movl	$21, (%esp)	 #,
 1067      000000
 1068 0d81 E8000000 		call	__test_assert	 #
 1068      00
 1069 0d86 84C0     		testb	%al, %al	 # D.2913
 1070 0d88 743E     		je	L28	 #,
 1071              		.loc 1 157 0 is_stmt 0 discriminator 1
 1072 0d8a A1680200 		movl	LPBX1+616, %eax	 # *LPBX1, PROF_edge_counter.3
 1072      00
 1073 0d8f 8B156C02 		movl	LPBX1+620, %edx	 # *LPBX1, PROF_edge_counter.3
 1073      0000
 1074 0d95 83C001   		addl	$1, %eax	 #, PROF_edge_counter.3
 1075 0d98 83D200   		adcl	$0, %edx	 #, PROF_edge_counter.3
 1076 0d9b A3680200 		movl	%eax, LPBX1+616	 # PROF_edge_counter.3, *LPBX1
 1076      00
 1077 0da0 89156C02 		movl	%edx, LPBX1+620	 # PROF_edge_counter.3, *LPBX1
 1077      0000
 1078              	/APP
 1079              	 # 157 "../../test/testmbox.c" 1
 1080 0da6 90       		nop
 1081              	 # 0 "" 2
 1082              	/NO_APP
 1083 0da7 A1780200 		movl	LPBX1+632, %eax	 # *LPBX1, PROF_edge_counter.3
GAS LISTING C:\cygwin\tmp\ccgmAwz3.s 			page 28


 1083      00
 1084 0dac 8B157C02 		movl	LPBX1+636, %edx	 # *LPBX1, PROF_edge_counter.3
 1084      0000
 1085 0db2 83C001   		addl	$1, %eax	 #, PROF_edge_counter.3
 1086 0db5 83D200   		adcl	$0, %edx	 #, PROF_edge_counter.3
 1087 0db8 A3780200 		movl	%eax, LPBX1+632	 # PROF_edge_counter.3, *LPBX1
 1087      00
 1088 0dbd 89157C02 		movl	%edx, LPBX1+636	 # PROF_edge_counter.3, *LPBX1
 1088      0000
 1089 0dc3 E9BD1000 		jmp	L2	 #
 1089      00
 1090              	L28:
 1091              		.loc 1 157 0 discriminator 2
 1092 0dc8 A1700200 		movl	LPBX1+624, %eax	 # *LPBX1, PROF_edge_counter.3
 1092      00
 1093 0dcd 8B157402 		movl	LPBX1+628, %edx	 # *LPBX1, PROF_edge_counter.3
 1093      0000
 1094 0dd3 83C001   		addl	$1, %eax	 #, PROF_edge_counter.3
 1095 0dd6 83D200   		adcl	$0, %edx	 #, PROF_edge_counter.3
 1096 0dd9 A3700200 		movl	%eax, LPBX1+624	 # PROF_edge_counter.3, *LPBX1
 1096      00
 1097 0dde 89157402 		movl	%edx, LPBX1+628	 # PROF_edge_counter.3, *LPBX1
 1097      0000
 1098              	/APP
 1099              	 # 157 "../../test/testmbox.c" 1
 1100 0de4 90       		nop
 1101              	 # 0 "" 2
 1102              	/NO_APP
 1103 0de5 A1800200 		movl	LPBX1+640, %eax	 # *LPBX1, PROF_edge_counter.3
 1103      00
 1104 0dea 8B158402 		movl	LPBX1+644, %edx	 # *LPBX1, PROF_edge_counter.3
 1104      0000
 1105 0df0 83C001   		addl	$1, %eax	 #, PROF_edge_counter.3
 1106 0df3 83D200   		adcl	$0, %edx	 #, PROF_edge_counter.3
 1107 0df6 A3800200 		movl	%eax, LPBX1+640	 # PROF_edge_counter.3, *LPBX1
 1107      00
 1108 0dfb 89158402 		movl	%edx, LPBX1+644	 # PROF_edge_counter.3, *LPBX1
 1108      0000
 1109              		.loc 1 162 0 is_stmt 1 discriminator 2
 1110              	/APP
 1111              	 # 162 "../../test/testmbox.c" 1
 1112 0e01 90       		nop
 1113              	 # 0 "" 2
 1114              	/NO_APP
 1115 0e02 A1880200 		movl	LPBX1+648, %eax	 # *LPBX1, PROF_edge_counter.3
 1115      00
 1116 0e07 8B158C02 		movl	LPBX1+652, %edx	 # *LPBX1, PROF_edge_counter.3
 1116      0000
 1117 0e0d 83C001   		addl	$1, %eax	 #, PROF_edge_counter.3
 1118 0e10 83D200   		adcl	$0, %edx	 #, PROF_edge_counter.3
 1119 0e13 A3880200 		movl	%eax, LPBX1+648	 # PROF_edge_counter.3, *LPBX1
 1119      00
 1120 0e18 89158C02 		movl	%edx, LPBX1+652	 # PROF_edge_counter.3, *LPBX1
 1120      0000
 1121              		.loc 1 163 0 discriminator 2
 1122 0e1e C7442404 		movl	$65, 4(%esp)	 #,
 1122      41000000 
GAS LISTING C:\cygwin\tmp\ccgmAwz3.s 			page 29


 1123 0e26 C7042400 		movl	$_mb1, (%esp)	 #,
 1123      000000
 1124 0e2d E8000000 		call	_chMBPostI	 #
 1124      00
 1125 0e32 89442418 		movl	%eax, 24(%esp)	 # tmp595, msg1
 1126 0e36 A1900200 		movl	LPBX1+656, %eax	 # *LPBX1, PROF_edge_counter.3
 1126      00
 1127 0e3b 8B159402 		movl	LPBX1+660, %edx	 # *LPBX1, PROF_edge_counter.3
 1127      0000
 1128 0e41 83C001   		addl	$1, %eax	 #, PROF_edge_counter.3
 1129 0e44 83D200   		adcl	$0, %edx	 #, PROF_edge_counter.3
 1130 0e47 A3900200 		movl	%eax, LPBX1+656	 # PROF_edge_counter.3, *LPBX1
 1130      00
 1131 0e4c 89159402 		movl	%edx, LPBX1+660	 # PROF_edge_counter.3, *LPBX1
 1131      0000
 1132              		.loc 1 164 0 discriminator 2
 1133 0e52 837C2418 		cmpl	$0, 24(%esp)	 #, msg1
 1133      00
 1134 0e57 0F94C0   		sete	%al	 #, tmp596
 1135 0e5a 0FB6C0   		movzbl	%al, %eax	 # tmp596, D.2916
 1136 0e5d 89442404 		movl	%eax, 4(%esp)	 # D.2916,
 1137 0e61 C7042416 		movl	$22, (%esp)	 #,
 1137      000000
 1138 0e68 E8000000 		call	__test_assert	 #
 1138      00
 1139 0e6d 84C0     		testb	%al, %al	 # D.2917
 1140 0e6f 7421     		je	L29	 #,
 1141              		.loc 1 164 0 is_stmt 0 discriminator 1
 1142 0e71 A1A00200 		movl	LPBX1+672, %eax	 # *LPBX1, PROF_edge_counter.3
 1142      00
 1143 0e76 8B15A402 		movl	LPBX1+676, %edx	 # *LPBX1, PROF_edge_counter.3
 1143      0000
 1144 0e7c 83C001   		addl	$1, %eax	 #, PROF_edge_counter.3
 1145 0e7f 83D200   		adcl	$0, %edx	 #, PROF_edge_counter.3
 1146 0e82 A3A00200 		movl	%eax, LPBX1+672	 # PROF_edge_counter.3, *LPBX1
 1146      00
 1147 0e87 8915A402 		movl	%edx, LPBX1+676	 # PROF_edge_counter.3, *LPBX1
 1147      0000
 1148 0e8d E9F30F00 		jmp	L2	 #
 1148      00
 1149              	L29:
 1150              		.loc 1 164 0
 1151 0e92 A1980200 		movl	LPBX1+664, %eax	 # *LPBX1, PROF_edge_counter.3
 1151      00
 1152 0e97 8B159C02 		movl	LPBX1+668, %edx	 # *LPBX1, PROF_edge_counter.3
 1152      0000
 1153 0e9d 83C001   		addl	$1, %eax	 #, PROF_edge_counter.3
 1154 0ea0 83D200   		adcl	$0, %edx	 #, PROF_edge_counter.3
 1155 0ea3 A3980200 		movl	%eax, LPBX1+664	 # PROF_edge_counter.3, *LPBX1
 1155      00
 1156 0ea8 89159C02 		movl	%edx, LPBX1+668	 # PROF_edge_counter.3, *LPBX1
 1156      0000
 1157              		.loc 1 165 0 is_stmt 1
 1158 0eae C7442404 		movl	$66, 4(%esp)	 #,
 1158      42000000 
 1159 0eb6 C7042400 		movl	$_mb1, (%esp)	 #,
 1159      000000
GAS LISTING C:\cygwin\tmp\ccgmAwz3.s 			page 30


 1160 0ebd E8000000 		call	_chMBPostI	 #
 1160      00
 1161 0ec2 89442418 		movl	%eax, 24(%esp)	 # tmp597, msg1
 1162 0ec6 A1A80200 		movl	LPBX1+680, %eax	 # *LPBX1, PROF_edge_counter.3
 1162      00
 1163 0ecb 8B15AC02 		movl	LPBX1+684, %edx	 # *LPBX1, PROF_edge_counter.3
 1163      0000
 1164 0ed1 83C001   		addl	$1, %eax	 #, PROF_edge_counter.3
 1165 0ed4 83D200   		adcl	$0, %edx	 #, PROF_edge_counter.3
 1166 0ed7 A3A80200 		movl	%eax, LPBX1+680	 # PROF_edge_counter.3, *LPBX1
 1166      00
 1167 0edc 8915AC02 		movl	%edx, LPBX1+684	 # PROF_edge_counter.3, *LPBX1
 1167      0000
 1168              		.loc 1 166 0
 1169 0ee2 837C2418 		cmpl	$0, 24(%esp)	 #, msg1
 1169      00
 1170 0ee7 0F94C0   		sete	%al	 #, tmp598
 1171 0eea 0FB6C0   		movzbl	%al, %eax	 # tmp598, D.2920
 1172 0eed 89442404 		movl	%eax, 4(%esp)	 # D.2920,
 1173 0ef1 C7042417 		movl	$23, (%esp)	 #,
 1173      000000
 1174 0ef8 E8000000 		call	__test_assert	 #
 1174      00
 1175 0efd 84C0     		testb	%al, %al	 # D.2921
 1176 0eff 7421     		je	L30	 #,
 1177              		.loc 1 166 0 is_stmt 0 discriminator 1
 1178 0f01 A1B80200 		movl	LPBX1+696, %eax	 # *LPBX1, PROF_edge_counter.3
 1178      00
 1179 0f06 8B15BC02 		movl	LPBX1+700, %edx	 # *LPBX1, PROF_edge_counter.3
 1179      0000
 1180 0f0c 83C001   		addl	$1, %eax	 #, PROF_edge_counter.3
 1181 0f0f 83D200   		adcl	$0, %edx	 #, PROF_edge_counter.3
 1182 0f12 A3B80200 		movl	%eax, LPBX1+696	 # PROF_edge_counter.3, *LPBX1
 1182      00
 1183 0f17 8915BC02 		movl	%edx, LPBX1+700	 # PROF_edge_counter.3, *LPBX1
 1183      0000
 1184 0f1d E9630F00 		jmp	L2	 #
 1184      00
 1185              	L30:
 1186              		.loc 1 166 0
 1187 0f22 A1B00200 		movl	LPBX1+688, %eax	 # *LPBX1, PROF_edge_counter.3
 1187      00
 1188 0f27 8B15B402 		movl	LPBX1+692, %edx	 # *LPBX1, PROF_edge_counter.3
 1188      0000
 1189 0f2d 83C001   		addl	$1, %eax	 #, PROF_edge_counter.3
 1190 0f30 83D200   		adcl	$0, %edx	 #, PROF_edge_counter.3
 1191 0f33 A3B00200 		movl	%eax, LPBX1+688	 # PROF_edge_counter.3, *LPBX1
 1191      00
 1192 0f38 8915B402 		movl	%edx, LPBX1+692	 # PROF_edge_counter.3, *LPBX1
 1192      0000
 1193              		.loc 1 167 0 is_stmt 1
 1194 0f3e C7442404 		movl	$67, 4(%esp)	 #,
 1194      43000000 
 1195 0f46 C7042400 		movl	$_mb1, (%esp)	 #,
 1195      000000
 1196 0f4d E8000000 		call	_chMBPostI	 #
 1196      00
GAS LISTING C:\cygwin\tmp\ccgmAwz3.s 			page 31


 1197 0f52 89442418 		movl	%eax, 24(%esp)	 # tmp599, msg1
 1198 0f56 A1C00200 		movl	LPBX1+704, %eax	 # *LPBX1, PROF_edge_counter.3
 1198      00
 1199 0f5b 8B15C402 		movl	LPBX1+708, %edx	 # *LPBX1, PROF_edge_counter.3
 1199      0000
 1200 0f61 83C001   		addl	$1, %eax	 #, PROF_edge_counter.3
 1201 0f64 83D200   		adcl	$0, %edx	 #, PROF_edge_counter.3
 1202 0f67 A3C00200 		movl	%eax, LPBX1+704	 # PROF_edge_counter.3, *LPBX1
 1202      00
 1203 0f6c 8915C402 		movl	%edx, LPBX1+708	 # PROF_edge_counter.3, *LPBX1
 1203      0000
 1204              		.loc 1 168 0
 1205 0f72 837C2418 		cmpl	$0, 24(%esp)	 #, msg1
 1205      00
 1206 0f77 0F94C0   		sete	%al	 #, tmp600
 1207 0f7a 0FB6C0   		movzbl	%al, %eax	 # tmp600, D.2924
 1208 0f7d 89442404 		movl	%eax, 4(%esp)	 # D.2924,
 1209 0f81 C7042418 		movl	$24, (%esp)	 #,
 1209      000000
 1210 0f88 E8000000 		call	__test_assert	 #
 1210      00
 1211 0f8d 84C0     		testb	%al, %al	 # D.2925
 1212 0f8f 7421     		je	L31	 #,
 1213              		.loc 1 168 0 is_stmt 0 discriminator 1
 1214 0f91 A1D00200 		movl	LPBX1+720, %eax	 # *LPBX1, PROF_edge_counter.3
 1214      00
 1215 0f96 8B15D402 		movl	LPBX1+724, %edx	 # *LPBX1, PROF_edge_counter.3
 1215      0000
 1216 0f9c 83C001   		addl	$1, %eax	 #, PROF_edge_counter.3
 1217 0f9f 83D200   		adcl	$0, %edx	 #, PROF_edge_counter.3
 1218 0fa2 A3D00200 		movl	%eax, LPBX1+720	 # PROF_edge_counter.3, *LPBX1
 1218      00
 1219 0fa7 8915D402 		movl	%edx, LPBX1+724	 # PROF_edge_counter.3, *LPBX1
 1219      0000
 1220 0fad E9D30E00 		jmp	L2	 #
 1220      00
 1221              	L31:
 1222              		.loc 1 168 0
 1223 0fb2 A1C80200 		movl	LPBX1+712, %eax	 # *LPBX1, PROF_edge_counter.3
 1223      00
 1224 0fb7 8B15CC02 		movl	LPBX1+716, %edx	 # *LPBX1, PROF_edge_counter.3
 1224      0000
 1225 0fbd 83C001   		addl	$1, %eax	 #, PROF_edge_counter.3
 1226 0fc0 83D200   		adcl	$0, %edx	 #, PROF_edge_counter.3
 1227 0fc3 A3C80200 		movl	%eax, LPBX1+712	 # PROF_edge_counter.3, *LPBX1
 1227      00
 1228 0fc8 8915CC02 		movl	%edx, LPBX1+716	 # PROF_edge_counter.3, *LPBX1
 1228      0000
 1229              		.loc 1 169 0 is_stmt 1
 1230 0fce C7442404 		movl	$68, 4(%esp)	 #,
 1230      44000000 
 1231 0fd6 C7042400 		movl	$_mb1, (%esp)	 #,
 1231      000000
 1232 0fdd E8000000 		call	_chMBPostI	 #
 1232      00
 1233 0fe2 89442418 		movl	%eax, 24(%esp)	 # tmp601, msg1
 1234 0fe6 A1D80200 		movl	LPBX1+728, %eax	 # *LPBX1, PROF_edge_counter.3
GAS LISTING C:\cygwin\tmp\ccgmAwz3.s 			page 32


 1234      00
 1235 0feb 8B15DC02 		movl	LPBX1+732, %edx	 # *LPBX1, PROF_edge_counter.3
 1235      0000
 1236 0ff1 83C001   		addl	$1, %eax	 #, PROF_edge_counter.3
 1237 0ff4 83D200   		adcl	$0, %edx	 #, PROF_edge_counter.3
 1238 0ff7 A3D80200 		movl	%eax, LPBX1+728	 # PROF_edge_counter.3, *LPBX1
 1238      00
 1239 0ffc 8915DC02 		movl	%edx, LPBX1+732	 # PROF_edge_counter.3, *LPBX1
 1239      0000
 1240              		.loc 1 170 0
 1241 1002 837C2418 		cmpl	$0, 24(%esp)	 #, msg1
 1241      00
 1242 1007 0F94C0   		sete	%al	 #, tmp602
 1243 100a 0FB6C0   		movzbl	%al, %eax	 # tmp602, D.2928
 1244 100d 89442404 		movl	%eax, 4(%esp)	 # D.2928,
 1245 1011 C7042419 		movl	$25, (%esp)	 #,
 1245      000000
 1246 1018 E8000000 		call	__test_assert	 #
 1246      00
 1247 101d 84C0     		testb	%al, %al	 # D.2929
 1248 101f 7421     		je	L32	 #,
 1249              		.loc 1 170 0 is_stmt 0 discriminator 1
 1250 1021 A1E80200 		movl	LPBX1+744, %eax	 # *LPBX1, PROF_edge_counter.3
 1250      00
 1251 1026 8B15EC02 		movl	LPBX1+748, %edx	 # *LPBX1, PROF_edge_counter.3
 1251      0000
 1252 102c 83C001   		addl	$1, %eax	 #, PROF_edge_counter.3
 1253 102f 83D200   		adcl	$0, %edx	 #, PROF_edge_counter.3
 1254 1032 A3E80200 		movl	%eax, LPBX1+744	 # PROF_edge_counter.3, *LPBX1
 1254      00
 1255 1037 8915EC02 		movl	%edx, LPBX1+748	 # PROF_edge_counter.3, *LPBX1
 1255      0000
 1256 103d E9430E00 		jmp	L2	 #
 1256      00
 1257              	L32:
 1258              		.loc 1 170 0
 1259 1042 A1E00200 		movl	LPBX1+736, %eax	 # *LPBX1, PROF_edge_counter.3
 1259      00
 1260 1047 8B15E402 		movl	LPBX1+740, %edx	 # *LPBX1, PROF_edge_counter.3
 1260      0000
 1261 104d 83C001   		addl	$1, %eax	 #, PROF_edge_counter.3
 1262 1050 83D200   		adcl	$0, %edx	 #, PROF_edge_counter.3
 1263 1053 A3E00200 		movl	%eax, LPBX1+736	 # PROF_edge_counter.3, *LPBX1
 1263      00
 1264 1058 8915E402 		movl	%edx, LPBX1+740	 # PROF_edge_counter.3, *LPBX1
 1264      0000
 1265              		.loc 1 171 0 is_stmt 1
 1266 105e C7442404 		movl	$69, 4(%esp)	 #,
 1266      45000000 
 1267 1066 C7042400 		movl	$_mb1, (%esp)	 #,
 1267      000000
 1268 106d E8000000 		call	_chMBPostI	 #
 1268      00
 1269 1072 89442418 		movl	%eax, 24(%esp)	 # tmp603, msg1
 1270 1076 A1F00200 		movl	LPBX1+752, %eax	 # *LPBX1, PROF_edge_counter.3
 1270      00
 1271 107b 8B15F402 		movl	LPBX1+756, %edx	 # *LPBX1, PROF_edge_counter.3
GAS LISTING C:\cygwin\tmp\ccgmAwz3.s 			page 33


 1271      0000
 1272 1081 83C001   		addl	$1, %eax	 #, PROF_edge_counter.3
 1273 1084 83D200   		adcl	$0, %edx	 #, PROF_edge_counter.3
 1274 1087 A3F00200 		movl	%eax, LPBX1+752	 # PROF_edge_counter.3, *LPBX1
 1274      00
 1275 108c 8915F402 		movl	%edx, LPBX1+756	 # PROF_edge_counter.3, *LPBX1
 1275      0000
 1276              		.loc 1 172 0
 1277              	/APP
 1278              	 # 172 "../../test/testmbox.c" 1
 1279 1092 90       		nop
 1280              	 # 0 "" 2
 1281              	/NO_APP
 1282 1093 A1F80200 		movl	LPBX1+760, %eax	 # *LPBX1, PROF_edge_counter.3
 1282      00
 1283 1098 8B15FC02 		movl	LPBX1+764, %edx	 # *LPBX1, PROF_edge_counter.3
 1283      0000
 1284 109e 83C001   		addl	$1, %eax	 #, PROF_edge_counter.3
 1285 10a1 83D200   		adcl	$0, %edx	 #, PROF_edge_counter.3
 1286 10a4 A3F80200 		movl	%eax, LPBX1+760	 # PROF_edge_counter.3, *LPBX1
 1286      00
 1287 10a9 8915FC02 		movl	%edx, LPBX1+764	 # PROF_edge_counter.3, *LPBX1
 1287      0000
 1288              		.loc 1 173 0
 1289 10af 837C2418 		cmpl	$0, 24(%esp)	 #, msg1
 1289      00
 1290 10b4 0F94C0   		sete	%al	 #, tmp604
 1291 10b7 0FB6C0   		movzbl	%al, %eax	 # tmp604, D.2932
 1292 10ba 89442404 		movl	%eax, 4(%esp)	 # D.2932,
 1293 10be C704241A 		movl	$26, (%esp)	 #,
 1293      000000
 1294 10c5 E8000000 		call	__test_assert	 #
 1294      00
 1295 10ca 84C0     		testb	%al, %al	 # D.2933
 1296 10cc 7421     		je	L33	 #,
 1297              		.loc 1 173 0 is_stmt 0 discriminator 1
 1298 10ce A1080300 		movl	LPBX1+776, %eax	 # *LPBX1, PROF_edge_counter.3
 1298      00
 1299 10d3 8B150C03 		movl	LPBX1+780, %edx	 # *LPBX1, PROF_edge_counter.3
 1299      0000
 1300 10d9 83C001   		addl	$1, %eax	 #, PROF_edge_counter.3
 1301 10dc 83D200   		adcl	$0, %edx	 #, PROF_edge_counter.3
 1302 10df A3080300 		movl	%eax, LPBX1+776	 # PROF_edge_counter.3, *LPBX1
 1302      00
 1303 10e4 89150C03 		movl	%edx, LPBX1+780	 # PROF_edge_counter.3, *LPBX1
 1303      0000
 1304 10ea E9960D00 		jmp	L2	 #
 1304      00
 1305              	L33:
 1306              		.loc 1 173 0
 1307 10ef A1000300 		movl	LPBX1+768, %eax	 # *LPBX1, PROF_edge_counter.3
 1307      00
 1308 10f4 8B150403 		movl	LPBX1+772, %edx	 # *LPBX1, PROF_edge_counter.3
 1308      0000
 1309 10fa 83C001   		addl	$1, %eax	 #, PROF_edge_counter.3
 1310 10fd 83D200   		adcl	$0, %edx	 #, PROF_edge_counter.3
 1311 1100 A3000300 		movl	%eax, LPBX1+768	 # PROF_edge_counter.3, *LPBX1
GAS LISTING C:\cygwin\tmp\ccgmAwz3.s 			page 34


 1311      00
 1312 1105 89150403 		movl	%edx, LPBX1+772	 # PROF_edge_counter.3, *LPBX1
 1312      0000
 1313              		.loc 1 174 0 is_stmt 1
 1314 110b 8B150C00 		movl	_mb1+12, %edx	 # mb1.mb_rdptr, D.2936
 1314      0000
 1315 1111 A1080000 		movl	_mb1+8, %eax	 # mb1.mb_wrptr, D.2937
 1315      00
 1316 1116 39C2     		cmpl	%eax, %edx	 # D.2937, D.2936
 1317 1118 0F94C0   		sete	%al	 #, tmp605
 1318 111b 0FB6C0   		movzbl	%al, %eax	 # tmp605, D.2938
 1319 111e 89442404 		movl	%eax, 4(%esp)	 # D.2938,
 1320 1122 C704241B 		movl	$27, (%esp)	 #,
 1320      000000
 1321 1129 E8000000 		call	__test_assert	 #
 1321      00
 1322 112e 84C0     		testb	%al, %al	 # D.2939
 1323 1130 7421     		je	L34	 #,
 1324              		.loc 1 174 0 is_stmt 0 discriminator 1
 1325 1132 A1100300 		movl	LPBX1+784, %eax	 # *LPBX1, PROF_edge_counter.3
 1325      00
 1326 1137 8B151403 		movl	LPBX1+788, %edx	 # *LPBX1, PROF_edge_counter.3
 1326      0000
 1327 113d 83C001   		addl	$1, %eax	 #, PROF_edge_counter.3
 1328 1140 83D200   		adcl	$0, %edx	 #, PROF_edge_counter.3
 1329 1143 A3100300 		movl	%eax, LPBX1+784	 # PROF_edge_counter.3, *LPBX1
 1329      00
 1330 1148 89151403 		movl	%edx, LPBX1+788	 # PROF_edge_counter.3, *LPBX1
 1330      0000
 1331 114e E9320D00 		jmp	L2	 #
 1331      00
 1332              	L34:
 1333              		.loc 1 175 0 is_stmt 1
 1334 1153 C744241C 		movl	$0, 28(%esp)	 #, i
 1334      00000000 
 1335 115b E9150100 		jmp	L35	 #
 1335      00
 1336              	L37:
 1337 1160 A1480300 		movl	LPBX1+840, %eax	 # *LPBX1, PROF_edge_counter.3
 1337      00
 1338 1165 8B154C03 		movl	LPBX1+844, %edx	 # *LPBX1, PROF_edge_counter.3
 1338      0000
 1339 116b 83C001   		addl	$1, %eax	 #, PROF_edge_counter.3
 1340 116e 83D200   		adcl	$0, %edx	 #, PROF_edge_counter.3
 1341 1171 A3480300 		movl	%eax, LPBX1+840	 # PROF_edge_counter.3, *LPBX1
 1341      00
 1342 1176 89154C03 		movl	%edx, LPBX1+844	 # PROF_edge_counter.3, *LPBX1
 1342      0000
 1343              		.loc 1 176 0
 1344              	/APP
 1345              	 # 176 "../../test/testmbox.c" 1
 1346 117c 90       		nop
 1347              	 # 0 "" 2
 1348              	/NO_APP
 1349 117d A1180300 		movl	LPBX1+792, %eax	 # *LPBX1, PROF_edge_counter.3
 1349      00
 1350 1182 8B151C03 		movl	LPBX1+796, %edx	 # *LPBX1, PROF_edge_counter.3
GAS LISTING C:\cygwin\tmp\ccgmAwz3.s 			page 35


 1350      0000
 1351 1188 83C001   		addl	$1, %eax	 #, PROF_edge_counter.3
 1352 118b 83D200   		adcl	$0, %edx	 #, PROF_edge_counter.3
 1353 118e A3180300 		movl	%eax, LPBX1+792	 # PROF_edge_counter.3, *LPBX1
 1353      00
 1354 1193 89151C03 		movl	%edx, LPBX1+796	 # PROF_edge_counter.3, *LPBX1
 1354      0000
 1355              		.loc 1 177 0
 1356 1199 8D442414 		leal	20(%esp), %eax	 #, tmp606
 1357 119d 89442404 		movl	%eax, 4(%esp)	 # tmp606,
 1358 11a1 C7042400 		movl	$_mb1, (%esp)	 #,
 1358      000000
 1359 11a8 E8000000 		call	_chMBFetchI	 #
 1359      00
 1360 11ad 89442418 		movl	%eax, 24(%esp)	 # tmp607, msg1
 1361 11b1 A1200300 		movl	LPBX1+800, %eax	 # *LPBX1, PROF_edge_counter.3
 1361      00
 1362 11b6 8B152403 		movl	LPBX1+804, %edx	 # *LPBX1, PROF_edge_counter.3
 1362      0000
 1363 11bc 83C001   		addl	$1, %eax	 #, PROF_edge_counter.3
 1364 11bf 83D200   		adcl	$0, %edx	 #, PROF_edge_counter.3
 1365 11c2 A3200300 		movl	%eax, LPBX1+800	 # PROF_edge_counter.3, *LPBX1
 1365      00
 1366 11c7 89152403 		movl	%edx, LPBX1+804	 # PROF_edge_counter.3, *LPBX1
 1366      0000
 1367              		.loc 1 178 0
 1368              	/APP
 1369              	 # 178 "../../test/testmbox.c" 1
 1370 11cd 90       		nop
 1371              	 # 0 "" 2
 1372              	/NO_APP
 1373 11ce A1280300 		movl	LPBX1+808, %eax	 # *LPBX1, PROF_edge_counter.3
 1373      00
 1374 11d3 8B152C03 		movl	LPBX1+812, %edx	 # *LPBX1, PROF_edge_counter.3
 1374      0000
 1375 11d9 83C001   		addl	$1, %eax	 #, PROF_edge_counter.3
 1376 11dc 83D200   		adcl	$0, %edx	 #, PROF_edge_counter.3
 1377 11df A3280300 		movl	%eax, LPBX1+808	 # PROF_edge_counter.3, *LPBX1
 1377      00
 1378 11e4 89152C03 		movl	%edx, LPBX1+812	 # PROF_edge_counter.3, *LPBX1
 1378      0000
 1379              		.loc 1 179 0
 1380 11ea 837C2418 		cmpl	$0, 24(%esp)	 #, msg1
 1380      00
 1381 11ef 0F94C0   		sete	%al	 #, tmp608
 1382 11f2 0FB6C0   		movzbl	%al, %eax	 # tmp608, D.2942
 1383 11f5 89442404 		movl	%eax, 4(%esp)	 # D.2942,
 1384 11f9 C704241C 		movl	$28, (%esp)	 #,
 1384      000000
 1385 1200 E8000000 		call	__test_assert	 #
 1385      00
 1386 1205 84C0     		testb	%al, %al	 # D.2943
 1387 1207 7421     		je	L36	 #,
 1388              		.loc 1 179 0 is_stmt 0 discriminator 1
 1389 1209 A1380300 		movl	LPBX1+824, %eax	 # *LPBX1, PROF_edge_counter.3
 1389      00
 1390 120e 8B153C03 		movl	LPBX1+828, %edx	 # *LPBX1, PROF_edge_counter.3
GAS LISTING C:\cygwin\tmp\ccgmAwz3.s 			page 36


 1390      0000
 1391 1214 83C001   		addl	$1, %eax	 #, PROF_edge_counter.3
 1392 1217 83D200   		adcl	$0, %edx	 #, PROF_edge_counter.3
 1393 121a A3380300 		movl	%eax, LPBX1+824	 # PROF_edge_counter.3, *LPBX1
 1393      00
 1394 121f 89153C03 		movl	%edx, LPBX1+828	 # PROF_edge_counter.3, *LPBX1
 1394      0000
 1395 1225 E95B0C00 		jmp	L2	 #
 1395      00
 1396              	L36:
 1397              		.loc 1 179 0
 1398 122a A1300300 		movl	LPBX1+816, %eax	 # *LPBX1, PROF_edge_counter.3
 1398      00
 1399 122f 8B153403 		movl	LPBX1+820, %edx	 # *LPBX1, PROF_edge_counter.3
 1399      0000
 1400 1235 83C001   		addl	$1, %eax	 #, PROF_edge_counter.3
 1401 1238 83D200   		adcl	$0, %edx	 #, PROF_edge_counter.3
 1402 123b A3300300 		movl	%eax, LPBX1+816	 # PROF_edge_counter.3, *LPBX1
 1402      00
 1403 1240 89153403 		movl	%edx, LPBX1+820	 # PROF_edge_counter.3, *LPBX1
 1403      0000
 1404              		.loc 1 180 0 is_stmt 1
 1405 1246 8B442414 		movl	20(%esp), %eax	 # msg2, msg2.1
 1406 124a 0FBEC0   		movsbl	%al, %eax	 # D.2947, D.2948
 1407 124d 890424   		movl	%eax, (%esp)	 # D.2948,
 1408 1250 E8000000 		call	_test_emit_token	 #
 1408      00
 1409              		.loc 1 175 0
 1410 1255 FF44241C 		incl	28(%esp)	 # i
 1411 1259 A1400300 		movl	LPBX1+832, %eax	 # *LPBX1, PROF_edge_counter.3
 1411      00
 1412 125e 8B154403 		movl	LPBX1+836, %edx	 # *LPBX1, PROF_edge_counter.3
 1412      0000
 1413 1264 83C001   		addl	$1, %eax	 #, PROF_edge_counter.3
 1414 1267 83D200   		adcl	$0, %edx	 #, PROF_edge_counter.3
 1415 126a A3400300 		movl	%eax, LPBX1+832	 # PROF_edge_counter.3, *LPBX1
 1415      00
 1416 126f 89154403 		movl	%edx, LPBX1+836	 # PROF_edge_counter.3, *LPBX1
 1416      0000
 1417              	L35:
 1418              		.loc 1 175 0 is_stmt 0 discriminator 1
 1419 1275 837C241C 		cmpl	$4, 28(%esp)	 #, i
 1419      04
 1420 127a 0F86E0FE 		jbe	L37	 #,
 1420      FFFF
 1421              		.loc 1 175 0
 1422 1280 A1500300 		movl	LPBX1+848, %eax	 # *LPBX1, PROF_edge_counter.3
 1422      00
 1423 1285 8B155403 		movl	LPBX1+852, %edx	 # *LPBX1, PROF_edge_counter.3
 1423      0000
 1424 128b 83C001   		addl	$1, %eax	 #, PROF_edge_counter.3
 1425 128e 83D200   		adcl	$0, %edx	 #, PROF_edge_counter.3
 1426 1291 A3500300 		movl	%eax, LPBX1+848	 # PROF_edge_counter.3, *LPBX1
 1426      00
 1427 1296 89155403 		movl	%edx, LPBX1+852	 # PROF_edge_counter.3, *LPBX1
 1427      0000
 1428              		.loc 1 182 0 is_stmt 1
GAS LISTING C:\cygwin\tmp\ccgmAwz3.s 			page 37


 1429 129c C7442404 		movl	$LC0, 4(%esp)	 #,
 1429      00000000 
 1430 12a4 C704241D 		movl	$29, (%esp)	 #,
 1430      000000
 1431 12ab E8000000 		call	__test_assert_sequence	 #
 1431      00
 1432 12b0 84C0     		testb	%al, %al	 # D.2949
 1433 12b2 7421     		je	L38	 #,
 1434              		.loc 1 182 0 is_stmt 0 discriminator 1
 1435 12b4 A1600300 		movl	LPBX1+864, %eax	 # *LPBX1, PROF_edge_counter.3
 1435      00
 1436 12b9 8B156403 		movl	LPBX1+868, %edx	 # *LPBX1, PROF_edge_counter.3
 1436      0000
 1437 12bf 83C001   		addl	$1, %eax	 #, PROF_edge_counter.3
 1438 12c2 83D200   		adcl	$0, %edx	 #, PROF_edge_counter.3
 1439 12c5 A3600300 		movl	%eax, LPBX1+864	 # PROF_edge_counter.3, *LPBX1
 1439      00
 1440 12ca 89156403 		movl	%edx, LPBX1+868	 # PROF_edge_counter.3, *LPBX1
 1440      0000
 1441 12d0 E9B00B00 		jmp	L2	 #
 1441      00
 1442              	L38:
 1443              		.loc 1 182 0
 1444 12d5 A1580300 		movl	LPBX1+856, %eax	 # *LPBX1, PROF_edge_counter.3
 1444      00
 1445 12da 8B155C03 		movl	LPBX1+860, %edx	 # *LPBX1, PROF_edge_counter.3
 1445      0000
 1446 12e0 83C001   		addl	$1, %eax	 #, PROF_edge_counter.3
 1447 12e3 83D200   		adcl	$0, %edx	 #, PROF_edge_counter.3
 1448 12e6 A3580300 		movl	%eax, LPBX1+856	 # PROF_edge_counter.3, *LPBX1
 1448      00
 1449 12eb 89155C03 		movl	%edx, LPBX1+860	 # PROF_edge_counter.3, *LPBX1
 1449      0000
 1450              		.loc 1 183 0 is_stmt 1
 1451              	/APP
 1452              	 # 183 "../../test/testmbox.c" 1
 1453 12f1 90       		nop
 1454              	 # 0 "" 2
 1455              	/NO_APP
 1456 12f2 A1680300 		movl	LPBX1+872, %eax	 # *LPBX1, PROF_edge_counter.3
 1456      00
 1457 12f7 8B156C03 		movl	LPBX1+876, %edx	 # *LPBX1, PROF_edge_counter.3
 1457      0000
 1458 12fd 83C001   		addl	$1, %eax	 #, PROF_edge_counter.3
 1459 1300 83D200   		adcl	$0, %edx	 #, PROF_edge_counter.3
 1460 1303 A3680300 		movl	%eax, LPBX1+872	 # PROF_edge_counter.3, *LPBX1
 1460      00
 1461 1308 89156C03 		movl	%edx, LPBX1+876	 # PROF_edge_counter.3, *LPBX1
 1461      0000
 1462 130e A1240000 		movl	_mb1+36, %eax	 # mb1.mb_emptysem.s_cnt, D.2952
 1462      00
 1463 1313 83F805   		cmpl	$5, %eax	 #, D.2952
 1464 1316 0F94C0   		sete	%al	 #, tmp609
 1465 1319 0FB6C0   		movzbl	%al, %eax	 # tmp609, D.2953
 1466 131c 89442404 		movl	%eax, 4(%esp)	 # D.2953,
 1467 1320 C704241E 		movl	$30, (%esp)	 #,
 1467      000000
GAS LISTING C:\cygwin\tmp\ccgmAwz3.s 			page 38


 1468 1327 E8000000 		call	__test_assert	 #
 1468      00
 1469 132c 84C0     		testb	%al, %al	 # D.2954
 1470 132e 743E     		je	L39	 #,
 1471              		.loc 1 183 0 is_stmt 0 discriminator 1
 1472 1330 A1700300 		movl	LPBX1+880, %eax	 # *LPBX1, PROF_edge_counter.3
 1472      00
 1473 1335 8B157403 		movl	LPBX1+884, %edx	 # *LPBX1, PROF_edge_counter.3
 1473      0000
 1474 133b 83C001   		addl	$1, %eax	 #, PROF_edge_counter.3
 1475 133e 83D200   		adcl	$0, %edx	 #, PROF_edge_counter.3
 1476 1341 A3700300 		movl	%eax, LPBX1+880	 # PROF_edge_counter.3, *LPBX1
 1476      00
 1477 1346 89157403 		movl	%edx, LPBX1+884	 # PROF_edge_counter.3, *LPBX1
 1477      0000
 1478              	/APP
 1479              	 # 183 "../../test/testmbox.c" 1
 1480 134c 90       		nop
 1481              	 # 0 "" 2
 1482              	/NO_APP
 1483 134d A1800300 		movl	LPBX1+896, %eax	 # *LPBX1, PROF_edge_counter.3
 1483      00
 1484 1352 8B158403 		movl	LPBX1+900, %edx	 # *LPBX1, PROF_edge_counter.3
 1484      0000
 1485 1358 83C001   		addl	$1, %eax	 #, PROF_edge_counter.3
 1486 135b 83D200   		adcl	$0, %edx	 #, PROF_edge_counter.3
 1487 135e A3800300 		movl	%eax, LPBX1+896	 # PROF_edge_counter.3, *LPBX1
 1487      00
 1488 1363 89158403 		movl	%edx, LPBX1+900	 # PROF_edge_counter.3, *LPBX1
 1488      0000
 1489 1369 E9170B00 		jmp	L2	 #
 1489      00
 1490              	L39:
 1491              		.loc 1 183 0 discriminator 2
 1492 136e A1780300 		movl	LPBX1+888, %eax	 # *LPBX1, PROF_edge_counter.3
 1492      00
 1493 1373 8B157C03 		movl	LPBX1+892, %edx	 # *LPBX1, PROF_edge_counter.3
 1493      0000
 1494 1379 83C001   		addl	$1, %eax	 #, PROF_edge_counter.3
 1495 137c 83D200   		adcl	$0, %edx	 #, PROF_edge_counter.3
 1496 137f A3780300 		movl	%eax, LPBX1+888	 # PROF_edge_counter.3, *LPBX1
 1496      00
 1497 1384 89157C03 		movl	%edx, LPBX1+892	 # PROF_edge_counter.3, *LPBX1
 1497      0000
 1498              	/APP
 1499              	 # 183 "../../test/testmbox.c" 1
 1500 138a 90       		nop
 1501              	 # 0 "" 2
 1502              	/NO_APP
 1503 138b A1880300 		movl	LPBX1+904, %eax	 # *LPBX1, PROF_edge_counter.3
 1503      00
 1504 1390 8B158C03 		movl	LPBX1+908, %edx	 # *LPBX1, PROF_edge_counter.3
 1504      0000
 1505 1396 83C001   		addl	$1, %eax	 #, PROF_edge_counter.3
 1506 1399 83D200   		adcl	$0, %edx	 #, PROF_edge_counter.3
 1507 139c A3880300 		movl	%eax, LPBX1+904	 # PROF_edge_counter.3, *LPBX1
 1507      00
GAS LISTING C:\cygwin\tmp\ccgmAwz3.s 			page 39


 1508 13a1 89158C03 		movl	%edx, LPBX1+908	 # PROF_edge_counter.3, *LPBX1
 1508      0000
 1509              		.loc 1 184 0 is_stmt 1 discriminator 2
 1510              	/APP
 1511              	 # 184 "../../test/testmbox.c" 1
 1512 13a7 90       		nop
 1513              	 # 0 "" 2
 1514              	/NO_APP
 1515 13a8 A1900300 		movl	LPBX1+912, %eax	 # *LPBX1, PROF_edge_counter.3
 1515      00
 1516 13ad 8B159403 		movl	LPBX1+916, %edx	 # *LPBX1, PROF_edge_counter.3
 1516      0000
 1517 13b3 83C001   		addl	$1, %eax	 #, PROF_edge_counter.3
 1518 13b6 83D200   		adcl	$0, %edx	 #, PROF_edge_counter.3
 1519 13b9 A3900300 		movl	%eax, LPBX1+912	 # PROF_edge_counter.3, *LPBX1
 1519      00
 1520 13be 89159403 		movl	%edx, LPBX1+916	 # PROF_edge_counter.3, *LPBX1
 1520      0000
 1521 13c4 A1180000 		movl	_mb1+24, %eax	 # mb1.mb_fullsem.s_cnt, D.2957
 1521      00
 1522 13c9 85C0     		testl	%eax, %eax	 # D.2957
 1523 13cb 0F94C0   		sete	%al	 #, tmp610
 1524 13ce 0FB6C0   		movzbl	%al, %eax	 # tmp610, D.2958
 1525 13d1 89442404 		movl	%eax, 4(%esp)	 # D.2958,
 1526 13d5 C704241F 		movl	$31, (%esp)	 #,
 1526      000000
 1527 13dc E8000000 		call	__test_assert	 #
 1527      00
 1528 13e1 84C0     		testb	%al, %al	 # D.2959
 1529 13e3 743E     		je	L40	 #,
 1530              		.loc 1 184 0 is_stmt 0 discriminator 1
 1531 13e5 A1980300 		movl	LPBX1+920, %eax	 # *LPBX1, PROF_edge_counter.3
 1531      00
 1532 13ea 8B159C03 		movl	LPBX1+924, %edx	 # *LPBX1, PROF_edge_counter.3
 1532      0000
 1533 13f0 83C001   		addl	$1, %eax	 #, PROF_edge_counter.3
 1534 13f3 83D200   		adcl	$0, %edx	 #, PROF_edge_counter.3
 1535 13f6 A3980300 		movl	%eax, LPBX1+920	 # PROF_edge_counter.3, *LPBX1
 1535      00
 1536 13fb 89159C03 		movl	%edx, LPBX1+924	 # PROF_edge_counter.3, *LPBX1
 1536      0000
 1537              	/APP
 1538              	 # 184 "../../test/testmbox.c" 1
 1539 1401 90       		nop
 1540              	 # 0 "" 2
 1541              	/NO_APP
 1542 1402 A1A80300 		movl	LPBX1+936, %eax	 # *LPBX1, PROF_edge_counter.3
 1542      00
 1543 1407 8B15AC03 		movl	LPBX1+940, %edx	 # *LPBX1, PROF_edge_counter.3
 1543      0000
 1544 140d 83C001   		addl	$1, %eax	 #, PROF_edge_counter.3
 1545 1410 83D200   		adcl	$0, %edx	 #, PROF_edge_counter.3
 1546 1413 A3A80300 		movl	%eax, LPBX1+936	 # PROF_edge_counter.3, *LPBX1
 1546      00
 1547 1418 8915AC03 		movl	%edx, LPBX1+940	 # PROF_edge_counter.3, *LPBX1
 1547      0000
 1548 141e E9620A00 		jmp	L2	 #
GAS LISTING C:\cygwin\tmp\ccgmAwz3.s 			page 40


 1548      00
 1549              	L40:
 1550              		.loc 1 184 0 discriminator 2
 1551 1423 A1A00300 		movl	LPBX1+928, %eax	 # *LPBX1, PROF_edge_counter.3
 1551      00
 1552 1428 8B15A403 		movl	LPBX1+932, %edx	 # *LPBX1, PROF_edge_counter.3
 1552      0000
 1553 142e 83C001   		addl	$1, %eax	 #, PROF_edge_counter.3
 1554 1431 83D200   		adcl	$0, %edx	 #, PROF_edge_counter.3
 1555 1434 A3A00300 		movl	%eax, LPBX1+928	 # PROF_edge_counter.3, *LPBX1
 1555      00
 1556 1439 8915A403 		movl	%edx, LPBX1+932	 # PROF_edge_counter.3, *LPBX1
 1556      0000
 1557              	/APP
 1558              	 # 184 "../../test/testmbox.c" 1
 1559 143f 90       		nop
 1560              	 # 0 "" 2
 1561              	/NO_APP
 1562 1440 A1B00300 		movl	LPBX1+944, %eax	 # *LPBX1, PROF_edge_counter.3
 1562      00
 1563 1445 8B15B403 		movl	LPBX1+948, %edx	 # *LPBX1, PROF_edge_counter.3
 1563      0000
 1564 144b 83C001   		addl	$1, %eax	 #, PROF_edge_counter.3
 1565 144e 83D200   		adcl	$0, %edx	 #, PROF_edge_counter.3
 1566 1451 A3B00300 		movl	%eax, LPBX1+944	 # PROF_edge_counter.3, *LPBX1
 1566      00
 1567 1456 8915B403 		movl	%edx, LPBX1+948	 # PROF_edge_counter.3, *LPBX1
 1567      0000
 1568              		.loc 1 185 0 is_stmt 1 discriminator 2
 1569 145c 8B150C00 		movl	_mb1+12, %edx	 # mb1.mb_rdptr, D.2962
 1569      0000
 1570 1462 A1080000 		movl	_mb1+8, %eax	 # mb1.mb_wrptr, D.2963
 1570      00
 1571 1467 39C2     		cmpl	%eax, %edx	 # D.2963, D.2962
 1572 1469 0F94C0   		sete	%al	 #, tmp611
 1573 146c 0FB6C0   		movzbl	%al, %eax	 # tmp611, D.2964
 1574 146f 89442404 		movl	%eax, 4(%esp)	 # D.2964,
 1575 1473 C7042420 		movl	$32, (%esp)	 #,
 1575      000000
 1576 147a E8000000 		call	__test_assert	 #
 1576      00
 1577 147f 84C0     		testb	%al, %al	 # D.2965
 1578 1481 7421     		je	L41	 #,
 1579              		.loc 1 185 0 is_stmt 0 discriminator 1
 1580 1483 A1C00300 		movl	LPBX1+960, %eax	 # *LPBX1, PROF_edge_counter.3
 1580      00
 1581 1488 8B15C403 		movl	LPBX1+964, %edx	 # *LPBX1, PROF_edge_counter.3
 1581      0000
 1582 148e 83C001   		addl	$1, %eax	 #, PROF_edge_counter.3
 1583 1491 83D200   		adcl	$0, %edx	 #, PROF_edge_counter.3
 1584 1494 A3C00300 		movl	%eax, LPBX1+960	 # PROF_edge_counter.3, *LPBX1
 1584      00
 1585 1499 8915C403 		movl	%edx, LPBX1+964	 # PROF_edge_counter.3, *LPBX1
 1585      0000
 1586 149f E9E10900 		jmp	L2	 #
 1586      00
 1587              	L41:
GAS LISTING C:\cygwin\tmp\ccgmAwz3.s 			page 41


 1588              		.loc 1 185 0
 1589 14a4 A1B80300 		movl	LPBX1+952, %eax	 # *LPBX1, PROF_edge_counter.3
 1589      00
 1590 14a9 8B15BC03 		movl	LPBX1+956, %edx	 # *LPBX1, PROF_edge_counter.3
 1590      0000
 1591 14af 83C001   		addl	$1, %eax	 #, PROF_edge_counter.3
 1592 14b2 83D200   		adcl	$0, %edx	 #, PROF_edge_counter.3
 1593 14b5 A3B80300 		movl	%eax, LPBX1+952	 # PROF_edge_counter.3, *LPBX1
 1593      00
 1594 14ba 8915BC03 		movl	%edx, LPBX1+956	 # PROF_edge_counter.3, *LPBX1
 1594      0000
 1595              		.loc 1 187 0 is_stmt 1
 1596              	/APP
 1597              	 # 187 "../../test/testmbox.c" 1
 1598 14c0 90       		nop
 1599              	 # 0 "" 2
 1600              	/NO_APP
 1601 14c1 A1C80300 		movl	LPBX1+968, %eax	 # *LPBX1, PROF_edge_counter.3
 1601      00
 1602 14c6 8B15CC03 		movl	LPBX1+972, %edx	 # *LPBX1, PROF_edge_counter.3
 1602      0000
 1603 14cc 83C001   		addl	$1, %eax	 #, PROF_edge_counter.3
 1604 14cf 83D200   		adcl	$0, %edx	 #, PROF_edge_counter.3
 1605 14d2 A3C80300 		movl	%eax, LPBX1+968	 # PROF_edge_counter.3, *LPBX1
 1605      00
 1606 14d7 8915CC03 		movl	%edx, LPBX1+972	 # PROF_edge_counter.3, *LPBX1
 1606      0000
 1607              		.loc 1 188 0
 1608 14dd C7442404 		movl	$69, 4(%esp)	 #,
 1608      45000000 
 1609 14e5 C7042400 		movl	$_mb1, (%esp)	 #,
 1609      000000
 1610 14ec E8000000 		call	_chMBPostAheadI	 #
 1610      00
 1611 14f1 89442418 		movl	%eax, 24(%esp)	 # tmp612, msg1
 1612 14f5 A1D00300 		movl	LPBX1+976, %eax	 # *LPBX1, PROF_edge_counter.3
 1612      00
 1613 14fa 8B15D403 		movl	LPBX1+980, %edx	 # *LPBX1, PROF_edge_counter.3
 1613      0000
 1614 1500 83C001   		addl	$1, %eax	 #, PROF_edge_counter.3
 1615 1503 83D200   		adcl	$0, %edx	 #, PROF_edge_counter.3
 1616 1506 A3D00300 		movl	%eax, LPBX1+976	 # PROF_edge_counter.3, *LPBX1
 1616      00
 1617 150b 8915D403 		movl	%edx, LPBX1+980	 # PROF_edge_counter.3, *LPBX1
 1617      0000
 1618              		.loc 1 189 0
 1619 1511 837C2418 		cmpl	$0, 24(%esp)	 #, msg1
 1619      00
 1620 1516 0F94C0   		sete	%al	 #, tmp613
 1621 1519 0FB6C0   		movzbl	%al, %eax	 # tmp613, D.2968
 1622 151c 89442404 		movl	%eax, 4(%esp)	 # D.2968,
 1623 1520 C7042421 		movl	$33, (%esp)	 #,
 1623      000000
 1624 1527 E8000000 		call	__test_assert	 #
 1624      00
 1625 152c 84C0     		testb	%al, %al	 # D.2969
 1626 152e 7421     		je	L42	 #,
GAS LISTING C:\cygwin\tmp\ccgmAwz3.s 			page 42


 1627              		.loc 1 189 0 is_stmt 0 discriminator 1
 1628 1530 A1E00300 		movl	LPBX1+992, %eax	 # *LPBX1, PROF_edge_counter.3
 1628      00
 1629 1535 8B15E403 		movl	LPBX1+996, %edx	 # *LPBX1, PROF_edge_counter.3
 1629      0000
 1630 153b 83C001   		addl	$1, %eax	 #, PROF_edge_counter.3
 1631 153e 83D200   		adcl	$0, %edx	 #, PROF_edge_counter.3
 1632 1541 A3E00300 		movl	%eax, LPBX1+992	 # PROF_edge_counter.3, *LPBX1
 1632      00
 1633 1546 8915E403 		movl	%edx, LPBX1+996	 # PROF_edge_counter.3, *LPBX1
 1633      0000
 1634 154c E9340900 		jmp	L2	 #
 1634      00
 1635              	L42:
 1636              		.loc 1 189 0
 1637 1551 A1D80300 		movl	LPBX1+984, %eax	 # *LPBX1, PROF_edge_counter.3
 1637      00
 1638 1556 8B15DC03 		movl	LPBX1+988, %edx	 # *LPBX1, PROF_edge_counter.3
 1638      0000
 1639 155c 83C001   		addl	$1, %eax	 #, PROF_edge_counter.3
 1640 155f 83D200   		adcl	$0, %edx	 #, PROF_edge_counter.3
 1641 1562 A3D80300 		movl	%eax, LPBX1+984	 # PROF_edge_counter.3, *LPBX1
 1641      00
 1642 1567 8915DC03 		movl	%edx, LPBX1+988	 # PROF_edge_counter.3, *LPBX1
 1642      0000
 1643              		.loc 1 190 0 is_stmt 1
 1644 156d C7442404 		movl	$68, 4(%esp)	 #,
 1644      44000000 
 1645 1575 C7042400 		movl	$_mb1, (%esp)	 #,
 1645      000000
 1646 157c E8000000 		call	_chMBPostAheadI	 #
 1646      00
 1647 1581 89442418 		movl	%eax, 24(%esp)	 # tmp614, msg1
 1648 1585 A1E80300 		movl	LPBX1+1000, %eax	 # *LPBX1, PROF_edge_counter.3
 1648      00
 1649 158a 8B15EC03 		movl	LPBX1+1004, %edx	 # *LPBX1, PROF_edge_counter.3
 1649      0000
 1650 1590 83C001   		addl	$1, %eax	 #, PROF_edge_counter.3
 1651 1593 83D200   		adcl	$0, %edx	 #, PROF_edge_counter.3
 1652 1596 A3E80300 		movl	%eax, LPBX1+1000	 # PROF_edge_counter.3, *LPBX1
 1652      00
 1653 159b 8915EC03 		movl	%edx, LPBX1+1004	 # PROF_edge_counter.3, *LPBX1
 1653      0000
 1654              		.loc 1 191 0
 1655 15a1 837C2418 		cmpl	$0, 24(%esp)	 #, msg1
 1655      00
 1656 15a6 0F94C0   		sete	%al	 #, tmp615
 1657 15a9 0FB6C0   		movzbl	%al, %eax	 # tmp615, D.2972
 1658 15ac 89442404 		movl	%eax, 4(%esp)	 # D.2972,
 1659 15b0 C7042422 		movl	$34, (%esp)	 #,
 1659      000000
 1660 15b7 E8000000 		call	__test_assert	 #
 1660      00
 1661 15bc 84C0     		testb	%al, %al	 # D.2973
 1662 15be 7421     		je	L43	 #,
 1663              		.loc 1 191 0 is_stmt 0 discriminator 1
 1664 15c0 A1F80300 		movl	LPBX1+1016, %eax	 # *LPBX1, PROF_edge_counter.3
GAS LISTING C:\cygwin\tmp\ccgmAwz3.s 			page 43


 1664      00
 1665 15c5 8B15FC03 		movl	LPBX1+1020, %edx	 # *LPBX1, PROF_edge_counter.3
 1665      0000
 1666 15cb 83C001   		addl	$1, %eax	 #, PROF_edge_counter.3
 1667 15ce 83D200   		adcl	$0, %edx	 #, PROF_edge_counter.3
 1668 15d1 A3F80300 		movl	%eax, LPBX1+1016	 # PROF_edge_counter.3, *LPBX1
 1668      00
 1669 15d6 8915FC03 		movl	%edx, LPBX1+1020	 # PROF_edge_counter.3, *LPBX1
 1669      0000
 1670 15dc E9A40800 		jmp	L2	 #
 1670      00
 1671              	L43:
 1672              		.loc 1 191 0
 1673 15e1 A1F00300 		movl	LPBX1+1008, %eax	 # *LPBX1, PROF_edge_counter.3
 1673      00
 1674 15e6 8B15F403 		movl	LPBX1+1012, %edx	 # *LPBX1, PROF_edge_counter.3
 1674      0000
 1675 15ec 83C001   		addl	$1, %eax	 #, PROF_edge_counter.3
 1676 15ef 83D200   		adcl	$0, %edx	 #, PROF_edge_counter.3
 1677 15f2 A3F00300 		movl	%eax, LPBX1+1008	 # PROF_edge_counter.3, *LPBX1
 1677      00
 1678 15f7 8915F403 		movl	%edx, LPBX1+1012	 # PROF_edge_counter.3, *LPBX1
 1678      0000
 1679              		.loc 1 192 0 is_stmt 1
 1680 15fd C7442404 		movl	$67, 4(%esp)	 #,
 1680      43000000 
 1681 1605 C7042400 		movl	$_mb1, (%esp)	 #,
 1681      000000
 1682 160c E8000000 		call	_chMBPostAheadI	 #
 1682      00
 1683 1611 89442418 		movl	%eax, 24(%esp)	 # tmp616, msg1
 1684 1615 A1000400 		movl	LPBX1+1024, %eax	 # *LPBX1, PROF_edge_counter.3
 1684      00
 1685 161a 8B150404 		movl	LPBX1+1028, %edx	 # *LPBX1, PROF_edge_counter.3
 1685      0000
 1686 1620 83C001   		addl	$1, %eax	 #, PROF_edge_counter.3
 1687 1623 83D200   		adcl	$0, %edx	 #, PROF_edge_counter.3
 1688 1626 A3000400 		movl	%eax, LPBX1+1024	 # PROF_edge_counter.3, *LPBX1
 1688      00
 1689 162b 89150404 		movl	%edx, LPBX1+1028	 # PROF_edge_counter.3, *LPBX1
 1689      0000
 1690              		.loc 1 193 0
 1691 1631 837C2418 		cmpl	$0, 24(%esp)	 #, msg1
 1691      00
 1692 1636 0F94C0   		sete	%al	 #, tmp617
 1693 1639 0FB6C0   		movzbl	%al, %eax	 # tmp617, D.2976
 1694 163c 89442404 		movl	%eax, 4(%esp)	 # D.2976,
 1695 1640 C7042423 		movl	$35, (%esp)	 #,
 1695      000000
 1696 1647 E8000000 		call	__test_assert	 #
 1696      00
 1697 164c 84C0     		testb	%al, %al	 # D.2977
 1698 164e 7421     		je	L44	 #,
 1699              		.loc 1 193 0 is_stmt 0 discriminator 1
 1700 1650 A1100400 		movl	LPBX1+1040, %eax	 # *LPBX1, PROF_edge_counter.3
 1700      00
 1701 1655 8B151404 		movl	LPBX1+1044, %edx	 # *LPBX1, PROF_edge_counter.3
GAS LISTING C:\cygwin\tmp\ccgmAwz3.s 			page 44


 1701      0000
 1702 165b 83C001   		addl	$1, %eax	 #, PROF_edge_counter.3
 1703 165e 83D200   		adcl	$0, %edx	 #, PROF_edge_counter.3
 1704 1661 A3100400 		movl	%eax, LPBX1+1040	 # PROF_edge_counter.3, *LPBX1
 1704      00
 1705 1666 89151404 		movl	%edx, LPBX1+1044	 # PROF_edge_counter.3, *LPBX1
 1705      0000
 1706 166c E9140800 		jmp	L2	 #
 1706      00
 1707              	L44:
 1708              		.loc 1 193 0
 1709 1671 A1080400 		movl	LPBX1+1032, %eax	 # *LPBX1, PROF_edge_counter.3
 1709      00
 1710 1676 8B150C04 		movl	LPBX1+1036, %edx	 # *LPBX1, PROF_edge_counter.3
 1710      0000
 1711 167c 83C001   		addl	$1, %eax	 #, PROF_edge_counter.3
 1712 167f 83D200   		adcl	$0, %edx	 #, PROF_edge_counter.3
 1713 1682 A3080400 		movl	%eax, LPBX1+1032	 # PROF_edge_counter.3, *LPBX1
 1713      00
 1714 1687 89150C04 		movl	%edx, LPBX1+1036	 # PROF_edge_counter.3, *LPBX1
 1714      0000
 1715              		.loc 1 194 0 is_stmt 1
 1716 168d C7442404 		movl	$66, 4(%esp)	 #,
 1716      42000000 
 1717 1695 C7042400 		movl	$_mb1, (%esp)	 #,
 1717      000000
 1718 169c E8000000 		call	_chMBPostAheadI	 #
 1718      00
 1719 16a1 89442418 		movl	%eax, 24(%esp)	 # tmp618, msg1
 1720 16a5 A1180400 		movl	LPBX1+1048, %eax	 # *LPBX1, PROF_edge_counter.3
 1720      00
 1721 16aa 8B151C04 		movl	LPBX1+1052, %edx	 # *LPBX1, PROF_edge_counter.3
 1721      0000
 1722 16b0 83C001   		addl	$1, %eax	 #, PROF_edge_counter.3
 1723 16b3 83D200   		adcl	$0, %edx	 #, PROF_edge_counter.3
 1724 16b6 A3180400 		movl	%eax, LPBX1+1048	 # PROF_edge_counter.3, *LPBX1
 1724      00
 1725 16bb 89151C04 		movl	%edx, LPBX1+1052	 # PROF_edge_counter.3, *LPBX1
 1725      0000
 1726              		.loc 1 195 0
 1727 16c1 837C2418 		cmpl	$0, 24(%esp)	 #, msg1
 1727      00
 1728 16c6 0F94C0   		sete	%al	 #, tmp619
 1729 16c9 0FB6C0   		movzbl	%al, %eax	 # tmp619, D.2980
 1730 16cc 89442404 		movl	%eax, 4(%esp)	 # D.2980,
 1731 16d0 C7042424 		movl	$36, (%esp)	 #,
 1731      000000
 1732 16d7 E8000000 		call	__test_assert	 #
 1732      00
 1733 16dc 84C0     		testb	%al, %al	 # D.2981
 1734 16de 7421     		je	L45	 #,
 1735              		.loc 1 195 0 is_stmt 0 discriminator 1
 1736 16e0 A1280400 		movl	LPBX1+1064, %eax	 # *LPBX1, PROF_edge_counter.3
 1736      00
 1737 16e5 8B152C04 		movl	LPBX1+1068, %edx	 # *LPBX1, PROF_edge_counter.3
 1737      0000
 1738 16eb 83C001   		addl	$1, %eax	 #, PROF_edge_counter.3
GAS LISTING C:\cygwin\tmp\ccgmAwz3.s 			page 45


 1739 16ee 83D200   		adcl	$0, %edx	 #, PROF_edge_counter.3
 1740 16f1 A3280400 		movl	%eax, LPBX1+1064	 # PROF_edge_counter.3, *LPBX1
 1740      00
 1741 16f6 89152C04 		movl	%edx, LPBX1+1068	 # PROF_edge_counter.3, *LPBX1
 1741      0000
 1742 16fc E9840700 		jmp	L2	 #
 1742      00
 1743              	L45:
 1744              		.loc 1 195 0
 1745 1701 A1200400 		movl	LPBX1+1056, %eax	 # *LPBX1, PROF_edge_counter.3
 1745      00
 1746 1706 8B152404 		movl	LPBX1+1060, %edx	 # *LPBX1, PROF_edge_counter.3
 1746      0000
 1747 170c 83C001   		addl	$1, %eax	 #, PROF_edge_counter.3
 1748 170f 83D200   		adcl	$0, %edx	 #, PROF_edge_counter.3
 1749 1712 A3200400 		movl	%eax, LPBX1+1056	 # PROF_edge_counter.3, *LPBX1
 1749      00
 1750 1717 89152404 		movl	%edx, LPBX1+1060	 # PROF_edge_counter.3, *LPBX1
 1750      0000
 1751              		.loc 1 196 0 is_stmt 1
 1752 171d C7442404 		movl	$65, 4(%esp)	 #,
 1752      41000000 
 1753 1725 C7042400 		movl	$_mb1, (%esp)	 #,
 1753      000000
 1754 172c E8000000 		call	_chMBPostAheadI	 #
 1754      00
 1755 1731 89442418 		movl	%eax, 24(%esp)	 # tmp620, msg1
 1756 1735 A1300400 		movl	LPBX1+1072, %eax	 # *LPBX1, PROF_edge_counter.3
 1756      00
 1757 173a 8B153404 		movl	LPBX1+1076, %edx	 # *LPBX1, PROF_edge_counter.3
 1757      0000
 1758 1740 83C001   		addl	$1, %eax	 #, PROF_edge_counter.3
 1759 1743 83D200   		adcl	$0, %edx	 #, PROF_edge_counter.3
 1760 1746 A3300400 		movl	%eax, LPBX1+1072	 # PROF_edge_counter.3, *LPBX1
 1760      00
 1761 174b 89153404 		movl	%edx, LPBX1+1076	 # PROF_edge_counter.3, *LPBX1
 1761      0000
 1762              		.loc 1 197 0
 1763              	/APP
 1764              	 # 197 "../../test/testmbox.c" 1
 1765 1751 90       		nop
 1766              	 # 0 "" 2
 1767              	/NO_APP
 1768 1752 A1380400 		movl	LPBX1+1080, %eax	 # *LPBX1, PROF_edge_counter.3
 1768      00
 1769 1757 8B153C04 		movl	LPBX1+1084, %edx	 # *LPBX1, PROF_edge_counter.3
 1769      0000
 1770 175d 83C001   		addl	$1, %eax	 #, PROF_edge_counter.3
 1771 1760 83D200   		adcl	$0, %edx	 #, PROF_edge_counter.3
 1772 1763 A3380400 		movl	%eax, LPBX1+1080	 # PROF_edge_counter.3, *LPBX1
 1772      00
 1773 1768 89153C04 		movl	%edx, LPBX1+1084	 # PROF_edge_counter.3, *LPBX1
 1773      0000
 1774              		.loc 1 198 0
 1775 176e 837C2418 		cmpl	$0, 24(%esp)	 #, msg1
 1775      00
 1776 1773 0F94C0   		sete	%al	 #, tmp621
GAS LISTING C:\cygwin\tmp\ccgmAwz3.s 			page 46


 1777 1776 0FB6C0   		movzbl	%al, %eax	 # tmp621, D.2984
 1778 1779 89442404 		movl	%eax, 4(%esp)	 # D.2984,
 1779 177d C7042425 		movl	$37, (%esp)	 #,
 1779      000000
 1780 1784 E8000000 		call	__test_assert	 #
 1780      00
 1781 1789 84C0     		testb	%al, %al	 # D.2985
 1782 178b 7421     		je	L46	 #,
 1783              		.loc 1 198 0 is_stmt 0 discriminator 1
 1784 178d A1480400 		movl	LPBX1+1096, %eax	 # *LPBX1, PROF_edge_counter.3
 1784      00
 1785 1792 8B154C04 		movl	LPBX1+1100, %edx	 # *LPBX1, PROF_edge_counter.3
 1785      0000
 1786 1798 83C001   		addl	$1, %eax	 #, PROF_edge_counter.3
 1787 179b 83D200   		adcl	$0, %edx	 #, PROF_edge_counter.3
 1788 179e A3480400 		movl	%eax, LPBX1+1096	 # PROF_edge_counter.3, *LPBX1
 1788      00
 1789 17a3 89154C04 		movl	%edx, LPBX1+1100	 # PROF_edge_counter.3, *LPBX1
 1789      0000
 1790 17a9 E9D70600 		jmp	L2	 #
 1790      00
 1791              	L46:
 1792              		.loc 1 198 0
 1793 17ae A1400400 		movl	LPBX1+1088, %eax	 # *LPBX1, PROF_edge_counter.3
 1793      00
 1794 17b3 8B154404 		movl	LPBX1+1092, %edx	 # *LPBX1, PROF_edge_counter.3
 1794      0000
 1795 17b9 83C001   		addl	$1, %eax	 #, PROF_edge_counter.3
 1796 17bc 83D200   		adcl	$0, %edx	 #, PROF_edge_counter.3
 1797 17bf A3400400 		movl	%eax, LPBX1+1088	 # PROF_edge_counter.3, *LPBX1
 1797      00
 1798 17c4 89154404 		movl	%edx, LPBX1+1092	 # PROF_edge_counter.3, *LPBX1
 1798      0000
 1799              		.loc 1 199 0 is_stmt 1
 1800 17ca 8B150C00 		movl	_mb1+12, %edx	 # mb1.mb_rdptr, D.2988
 1800      0000
 1801 17d0 A1080000 		movl	_mb1+8, %eax	 # mb1.mb_wrptr, D.2989
 1801      00
 1802 17d5 39C2     		cmpl	%eax, %edx	 # D.2989, D.2988
 1803 17d7 0F94C0   		sete	%al	 #, tmp622
 1804 17da 0FB6C0   		movzbl	%al, %eax	 # tmp622, D.2990
 1805 17dd 89442404 		movl	%eax, 4(%esp)	 # D.2990,
 1806 17e1 C7042426 		movl	$38, (%esp)	 #,
 1806      000000
 1807 17e8 E8000000 		call	__test_assert	 #
 1807      00
 1808 17ed 84C0     		testb	%al, %al	 # D.2991
 1809 17ef 7421     		je	L47	 #,
 1810              		.loc 1 199 0 is_stmt 0 discriminator 1
 1811 17f1 A1500400 		movl	LPBX1+1104, %eax	 # *LPBX1, PROF_edge_counter.3
 1811      00
 1812 17f6 8B155404 		movl	LPBX1+1108, %edx	 # *LPBX1, PROF_edge_counter.3
 1812      0000
 1813 17fc 83C001   		addl	$1, %eax	 #, PROF_edge_counter.3
 1814 17ff 83D200   		adcl	$0, %edx	 #, PROF_edge_counter.3
 1815 1802 A3500400 		movl	%eax, LPBX1+1104	 # PROF_edge_counter.3, *LPBX1
 1815      00
GAS LISTING C:\cygwin\tmp\ccgmAwz3.s 			page 47


 1816 1807 89155404 		movl	%edx, LPBX1+1108	 # PROF_edge_counter.3, *LPBX1
 1816      0000
 1817 180d E9730600 		jmp	L2	 #
 1817      00
 1818              	L47:
 1819              		.loc 1 200 0 is_stmt 1
 1820 1812 C744241C 		movl	$0, 28(%esp)	 #, i
 1820      00000000 
 1821 181a E9150100 		jmp	L48	 #
 1821      00
 1822              	L50:
 1823 181f A1880400 		movl	LPBX1+1160, %eax	 # *LPBX1, PROF_edge_counter.3
 1823      00
 1824 1824 8B158C04 		movl	LPBX1+1164, %edx	 # *LPBX1, PROF_edge_counter.3
 1824      0000
 1825 182a 83C001   		addl	$1, %eax	 #, PROF_edge_counter.3
 1826 182d 83D200   		adcl	$0, %edx	 #, PROF_edge_counter.3
 1827 1830 A3880400 		movl	%eax, LPBX1+1160	 # PROF_edge_counter.3, *LPBX1
 1827      00
 1828 1835 89158C04 		movl	%edx, LPBX1+1164	 # PROF_edge_counter.3, *LPBX1
 1828      0000
 1829              		.loc 1 201 0
 1830              	/APP
 1831              	 # 201 "../../test/testmbox.c" 1
 1832 183b 90       		nop
 1833              	 # 0 "" 2
 1834              	/NO_APP
 1835 183c A1580400 		movl	LPBX1+1112, %eax	 # *LPBX1, PROF_edge_counter.3
 1835      00
 1836 1841 8B155C04 		movl	LPBX1+1116, %edx	 # *LPBX1, PROF_edge_counter.3
 1836      0000
 1837 1847 83C001   		addl	$1, %eax	 #, PROF_edge_counter.3
 1838 184a 83D200   		adcl	$0, %edx	 #, PROF_edge_counter.3
 1839 184d A3580400 		movl	%eax, LPBX1+1112	 # PROF_edge_counter.3, *LPBX1
 1839      00
 1840 1852 89155C04 		movl	%edx, LPBX1+1116	 # PROF_edge_counter.3, *LPBX1
 1840      0000
 1841              		.loc 1 202 0
 1842 1858 8D442414 		leal	20(%esp), %eax	 #, tmp623
 1843 185c 89442404 		movl	%eax, 4(%esp)	 # tmp623,
 1844 1860 C7042400 		movl	$_mb1, (%esp)	 #,
 1844      000000
 1845 1867 E8000000 		call	_chMBFetchI	 #
 1845      00
 1846 186c 89442418 		movl	%eax, 24(%esp)	 # tmp624, msg1
 1847 1870 A1600400 		movl	LPBX1+1120, %eax	 # *LPBX1, PROF_edge_counter.3
 1847      00
 1848 1875 8B156404 		movl	LPBX1+1124, %edx	 # *LPBX1, PROF_edge_counter.3
 1848      0000
 1849 187b 83C001   		addl	$1, %eax	 #, PROF_edge_counter.3
 1850 187e 83D200   		adcl	$0, %edx	 #, PROF_edge_counter.3
 1851 1881 A3600400 		movl	%eax, LPBX1+1120	 # PROF_edge_counter.3, *LPBX1
 1851      00
 1852 1886 89156404 		movl	%edx, LPBX1+1124	 # PROF_edge_counter.3, *LPBX1
 1852      0000
 1853              		.loc 1 203 0
 1854              	/APP
GAS LISTING C:\cygwin\tmp\ccgmAwz3.s 			page 48


 1855              	 # 203 "../../test/testmbox.c" 1
 1856 188c 90       		nop
 1857              	 # 0 "" 2
 1858              	/NO_APP
 1859 188d A1680400 		movl	LPBX1+1128, %eax	 # *LPBX1, PROF_edge_counter.3
 1859      00
 1860 1892 8B156C04 		movl	LPBX1+1132, %edx	 # *LPBX1, PROF_edge_counter.3
 1860      0000
 1861 1898 83C001   		addl	$1, %eax	 #, PROF_edge_counter.3
 1862 189b 83D200   		adcl	$0, %edx	 #, PROF_edge_counter.3
 1863 189e A3680400 		movl	%eax, LPBX1+1128	 # PROF_edge_counter.3, *LPBX1
 1863      00
 1864 18a3 89156C04 		movl	%edx, LPBX1+1132	 # PROF_edge_counter.3, *LPBX1
 1864      0000
 1865              		.loc 1 204 0
 1866 18a9 837C2418 		cmpl	$0, 24(%esp)	 #, msg1
 1866      00
 1867 18ae 0F94C0   		sete	%al	 #, tmp625
 1868 18b1 0FB6C0   		movzbl	%al, %eax	 # tmp625, D.2994
 1869 18b4 89442404 		movl	%eax, 4(%esp)	 # D.2994,
 1870 18b8 C7042427 		movl	$39, (%esp)	 #,
 1870      000000
 1871 18bf E8000000 		call	__test_assert	 #
 1871      00
 1872 18c4 84C0     		testb	%al, %al	 # D.2995
 1873 18c6 7421     		je	L49	 #,
 1874              		.loc 1 204 0 is_stmt 0 discriminator 1
 1875 18c8 A1780400 		movl	LPBX1+1144, %eax	 # *LPBX1, PROF_edge_counter.3
 1875      00
 1876 18cd 8B157C04 		movl	LPBX1+1148, %edx	 # *LPBX1, PROF_edge_counter.3
 1876      0000
 1877 18d3 83C001   		addl	$1, %eax	 #, PROF_edge_counter.3
 1878 18d6 83D200   		adcl	$0, %edx	 #, PROF_edge_counter.3
 1879 18d9 A3780400 		movl	%eax, LPBX1+1144	 # PROF_edge_counter.3, *LPBX1
 1879      00
 1880 18de 89157C04 		movl	%edx, LPBX1+1148	 # PROF_edge_counter.3, *LPBX1
 1880      0000
 1881 18e4 E99C0500 		jmp	L2	 #
 1881      00
 1882              	L49:
 1883              		.loc 1 204 0
 1884 18e9 A1700400 		movl	LPBX1+1136, %eax	 # *LPBX1, PROF_edge_counter.3
 1884      00
 1885 18ee 8B157404 		movl	LPBX1+1140, %edx	 # *LPBX1, PROF_edge_counter.3
 1885      0000
 1886 18f4 83C001   		addl	$1, %eax	 #, PROF_edge_counter.3
 1887 18f7 83D200   		adcl	$0, %edx	 #, PROF_edge_counter.3
 1888 18fa A3700400 		movl	%eax, LPBX1+1136	 # PROF_edge_counter.3, *LPBX1
 1888      00
 1889 18ff 89157404 		movl	%edx, LPBX1+1140	 # PROF_edge_counter.3, *LPBX1
 1889      0000
 1890              		.loc 1 205 0 is_stmt 1
 1891 1905 8B442414 		movl	20(%esp), %eax	 # msg2, msg2.2
 1892 1909 0FBEC0   		movsbl	%al, %eax	 # D.2999, D.3000
 1893 190c 890424   		movl	%eax, (%esp)	 # D.3000,
 1894 190f E8000000 		call	_test_emit_token	 #
 1894      00
GAS LISTING C:\cygwin\tmp\ccgmAwz3.s 			page 49


 1895              		.loc 1 200 0
 1896 1914 FF44241C 		incl	28(%esp)	 # i
 1897 1918 A1800400 		movl	LPBX1+1152, %eax	 # *LPBX1, PROF_edge_counter.3
 1897      00
 1898 191d 8B158404 		movl	LPBX1+1156, %edx	 # *LPBX1, PROF_edge_counter.3
 1898      0000
 1899 1923 83C001   		addl	$1, %eax	 #, PROF_edge_counter.3
 1900 1926 83D200   		adcl	$0, %edx	 #, PROF_edge_counter.3
 1901 1929 A3800400 		movl	%eax, LPBX1+1152	 # PROF_edge_counter.3, *LPBX1
 1901      00
 1902 192e 89158404 		movl	%edx, LPBX1+1156	 # PROF_edge_counter.3, *LPBX1
 1902      0000
 1903              	L48:
 1904              		.loc 1 200 0 is_stmt 0 discriminator 1
 1905 1934 837C241C 		cmpl	$4, 28(%esp)	 #, i
 1905      04
 1906 1939 0F86E0FE 		jbe	L50	 #,
 1906      FFFF
 1907              		.loc 1 200 0
 1908 193f A1900400 		movl	LPBX1+1168, %eax	 # *LPBX1, PROF_edge_counter.3
 1908      00
 1909 1944 8B159404 		movl	LPBX1+1172, %edx	 # *LPBX1, PROF_edge_counter.3
 1909      0000
 1910 194a 83C001   		addl	$1, %eax	 #, PROF_edge_counter.3
 1911 194d 83D200   		adcl	$0, %edx	 #, PROF_edge_counter.3
 1912 1950 A3900400 		movl	%eax, LPBX1+1168	 # PROF_edge_counter.3, *LPBX1
 1912      00
 1913 1955 89159404 		movl	%edx, LPBX1+1172	 # PROF_edge_counter.3, *LPBX1
 1913      0000
 1914              		.loc 1 207 0 is_stmt 1
 1915 195b C7442404 		movl	$LC0, 4(%esp)	 #,
 1915      00000000 
 1916 1963 C7042428 		movl	$40, (%esp)	 #,
 1916      000000
 1917 196a E8000000 		call	__test_assert_sequence	 #
 1917      00
 1918 196f 84C0     		testb	%al, %al	 # D.3001
 1919 1971 7421     		je	L51	 #,
 1920              		.loc 1 207 0 is_stmt 0 discriminator 1
 1921 1973 A1A00400 		movl	LPBX1+1184, %eax	 # *LPBX1, PROF_edge_counter.3
 1921      00
 1922 1978 8B15A404 		movl	LPBX1+1188, %edx	 # *LPBX1, PROF_edge_counter.3
 1922      0000
 1923 197e 83C001   		addl	$1, %eax	 #, PROF_edge_counter.3
 1924 1981 83D200   		adcl	$0, %edx	 #, PROF_edge_counter.3
 1925 1984 A3A00400 		movl	%eax, LPBX1+1184	 # PROF_edge_counter.3, *LPBX1
 1925      00
 1926 1989 8915A404 		movl	%edx, LPBX1+1188	 # PROF_edge_counter.3, *LPBX1
 1926      0000
 1927 198f E9F10400 		jmp	L2	 #
 1927      00
 1928              	L51:
 1929              		.loc 1 207 0
 1930 1994 A1980400 		movl	LPBX1+1176, %eax	 # *LPBX1, PROF_edge_counter.3
 1930      00
 1931 1999 8B159C04 		movl	LPBX1+1180, %edx	 # *LPBX1, PROF_edge_counter.3
 1931      0000
GAS LISTING C:\cygwin\tmp\ccgmAwz3.s 			page 50


 1932 199f 83C001   		addl	$1, %eax	 #, PROF_edge_counter.3
 1933 19a2 83D200   		adcl	$0, %edx	 #, PROF_edge_counter.3
 1934 19a5 A3980400 		movl	%eax, LPBX1+1176	 # PROF_edge_counter.3, *LPBX1
 1934      00
 1935 19aa 89159C04 		movl	%edx, LPBX1+1180	 # PROF_edge_counter.3, *LPBX1
 1935      0000
 1936              		.loc 1 208 0 is_stmt 1
 1937              	/APP
 1938              	 # 208 "../../test/testmbox.c" 1
 1939 19b0 90       		nop
 1940              	 # 0 "" 2
 1941              	/NO_APP
 1942 19b1 A1A80400 		movl	LPBX1+1192, %eax	 # *LPBX1, PROF_edge_counter.3
 1942      00
 1943 19b6 8B15AC04 		movl	LPBX1+1196, %edx	 # *LPBX1, PROF_edge_counter.3
 1943      0000
 1944 19bc 83C001   		addl	$1, %eax	 #, PROF_edge_counter.3
 1945 19bf 83D200   		adcl	$0, %edx	 #, PROF_edge_counter.3
 1946 19c2 A3A80400 		movl	%eax, LPBX1+1192	 # PROF_edge_counter.3, *LPBX1
 1946      00
 1947 19c7 8915AC04 		movl	%edx, LPBX1+1196	 # PROF_edge_counter.3, *LPBX1
 1947      0000
 1948 19cd A1240000 		movl	_mb1+36, %eax	 # mb1.mb_emptysem.s_cnt, D.3004
 1948      00
 1949 19d2 83F805   		cmpl	$5, %eax	 #, D.3004
 1950 19d5 0F94C0   		sete	%al	 #, tmp626
 1951 19d8 0FB6C0   		movzbl	%al, %eax	 # tmp626, D.3005
 1952 19db 89442404 		movl	%eax, 4(%esp)	 # D.3005,
 1953 19df C7042429 		movl	$41, (%esp)	 #,
 1953      000000
 1954 19e6 E8000000 		call	__test_assert	 #
 1954      00
 1955 19eb 84C0     		testb	%al, %al	 # D.3006
 1956 19ed 743E     		je	L52	 #,
 1957              		.loc 1 208 0 is_stmt 0 discriminator 1
 1958 19ef A1B00400 		movl	LPBX1+1200, %eax	 # *LPBX1, PROF_edge_counter.3
 1958      00
 1959 19f4 8B15B404 		movl	LPBX1+1204, %edx	 # *LPBX1, PROF_edge_counter.3
 1959      0000
 1960 19fa 83C001   		addl	$1, %eax	 #, PROF_edge_counter.3
 1961 19fd 83D200   		adcl	$0, %edx	 #, PROF_edge_counter.3
 1962 1a00 A3B00400 		movl	%eax, LPBX1+1200	 # PROF_edge_counter.3, *LPBX1
 1962      00
 1963 1a05 8915B404 		movl	%edx, LPBX1+1204	 # PROF_edge_counter.3, *LPBX1
 1963      0000
 1964              	/APP
 1965              	 # 208 "../../test/testmbox.c" 1
 1966 1a0b 90       		nop
 1967              	 # 0 "" 2
 1968              	/NO_APP
 1969 1a0c A1C00400 		movl	LPBX1+1216, %eax	 # *LPBX1, PROF_edge_counter.3
 1969      00
 1970 1a11 8B15C404 		movl	LPBX1+1220, %edx	 # *LPBX1, PROF_edge_counter.3
 1970      0000
 1971 1a17 83C001   		addl	$1, %eax	 #, PROF_edge_counter.3
 1972 1a1a 83D200   		adcl	$0, %edx	 #, PROF_edge_counter.3
 1973 1a1d A3C00400 		movl	%eax, LPBX1+1216	 # PROF_edge_counter.3, *LPBX1
GAS LISTING C:\cygwin\tmp\ccgmAwz3.s 			page 51


 1973      00
 1974 1a22 8915C404 		movl	%edx, LPBX1+1220	 # PROF_edge_counter.3, *LPBX1
 1974      0000
 1975 1a28 E9580400 		jmp	L2	 #
 1975      00
 1976              	L52:
 1977              		.loc 1 208 0 discriminator 2
 1978 1a2d A1B80400 		movl	LPBX1+1208, %eax	 # *LPBX1, PROF_edge_counter.3
 1978      00
 1979 1a32 8B15BC04 		movl	LPBX1+1212, %edx	 # *LPBX1, PROF_edge_counter.3
 1979      0000
 1980 1a38 83C001   		addl	$1, %eax	 #, PROF_edge_counter.3
 1981 1a3b 83D200   		adcl	$0, %edx	 #, PROF_edge_counter.3
 1982 1a3e A3B80400 		movl	%eax, LPBX1+1208	 # PROF_edge_counter.3, *LPBX1
 1982      00
 1983 1a43 8915BC04 		movl	%edx, LPBX1+1212	 # PROF_edge_counter.3, *LPBX1
 1983      0000
 1984              	/APP
 1985              	 # 208 "../../test/testmbox.c" 1
 1986 1a49 90       		nop
 1987              	 # 0 "" 2
 1988              	/NO_APP
 1989 1a4a A1C80400 		movl	LPBX1+1224, %eax	 # *LPBX1, PROF_edge_counter.3
 1989      00
 1990 1a4f 8B15CC04 		movl	LPBX1+1228, %edx	 # *LPBX1, PROF_edge_counter.3
 1990      0000
 1991 1a55 83C001   		addl	$1, %eax	 #, PROF_edge_counter.3
 1992 1a58 83D200   		adcl	$0, %edx	 #, PROF_edge_counter.3
 1993 1a5b A3C80400 		movl	%eax, LPBX1+1224	 # PROF_edge_counter.3, *LPBX1
 1993      00
 1994 1a60 8915CC04 		movl	%edx, LPBX1+1228	 # PROF_edge_counter.3, *LPBX1
 1994      0000
 1995              		.loc 1 209 0 is_stmt 1 discriminator 2
 1996              	/APP
 1997              	 # 209 "../../test/testmbox.c" 1
 1998 1a66 90       		nop
 1999              	 # 0 "" 2
 2000              	/NO_APP
 2001 1a67 A1D00400 		movl	LPBX1+1232, %eax	 # *LPBX1, PROF_edge_counter.3
 2001      00
 2002 1a6c 8B15D404 		movl	LPBX1+1236, %edx	 # *LPBX1, PROF_edge_counter.3
 2002      0000
 2003 1a72 83C001   		addl	$1, %eax	 #, PROF_edge_counter.3
 2004 1a75 83D200   		adcl	$0, %edx	 #, PROF_edge_counter.3
 2005 1a78 A3D00400 		movl	%eax, LPBX1+1232	 # PROF_edge_counter.3, *LPBX1
 2005      00
 2006 1a7d 8915D404 		movl	%edx, LPBX1+1236	 # PROF_edge_counter.3, *LPBX1
 2006      0000
 2007 1a83 A1180000 		movl	_mb1+24, %eax	 # mb1.mb_fullsem.s_cnt, D.3009
 2007      00
 2008 1a88 85C0     		testl	%eax, %eax	 # D.3009
 2009 1a8a 0F94C0   		sete	%al	 #, tmp627
 2010 1a8d 0FB6C0   		movzbl	%al, %eax	 # tmp627, D.3010
 2011 1a90 89442404 		movl	%eax, 4(%esp)	 # D.3010,
 2012 1a94 C704242A 		movl	$42, (%esp)	 #,
 2012      000000
 2013 1a9b E8000000 		call	__test_assert	 #
GAS LISTING C:\cygwin\tmp\ccgmAwz3.s 			page 52


 2013      00
 2014 1aa0 84C0     		testb	%al, %al	 # D.3011
 2015 1aa2 743E     		je	L53	 #,
 2016              		.loc 1 209 0 is_stmt 0 discriminator 1
 2017 1aa4 A1D80400 		movl	LPBX1+1240, %eax	 # *LPBX1, PROF_edge_counter.3
 2017      00
 2018 1aa9 8B15DC04 		movl	LPBX1+1244, %edx	 # *LPBX1, PROF_edge_counter.3
 2018      0000
 2019 1aaf 83C001   		addl	$1, %eax	 #, PROF_edge_counter.3
 2020 1ab2 83D200   		adcl	$0, %edx	 #, PROF_edge_counter.3
 2021 1ab5 A3D80400 		movl	%eax, LPBX1+1240	 # PROF_edge_counter.3, *LPBX1
 2021      00
 2022 1aba 8915DC04 		movl	%edx, LPBX1+1244	 # PROF_edge_counter.3, *LPBX1
 2022      0000
 2023              	/APP
 2024              	 # 209 "../../test/testmbox.c" 1
 2025 1ac0 90       		nop
 2026              	 # 0 "" 2
 2027              	/NO_APP
 2028 1ac1 A1E80400 		movl	LPBX1+1256, %eax	 # *LPBX1, PROF_edge_counter.3
 2028      00
 2029 1ac6 8B15EC04 		movl	LPBX1+1260, %edx	 # *LPBX1, PROF_edge_counter.3
 2029      0000
 2030 1acc 83C001   		addl	$1, %eax	 #, PROF_edge_counter.3
 2031 1acf 83D200   		adcl	$0, %edx	 #, PROF_edge_counter.3
 2032 1ad2 A3E80400 		movl	%eax, LPBX1+1256	 # PROF_edge_counter.3, *LPBX1
 2032      00
 2033 1ad7 8915EC04 		movl	%edx, LPBX1+1260	 # PROF_edge_counter.3, *LPBX1
 2033      0000
 2034 1add E9A30300 		jmp	L2	 #
 2034      00
 2035              	L53:
 2036              		.loc 1 209 0 discriminator 2
 2037 1ae2 A1E00400 		movl	LPBX1+1248, %eax	 # *LPBX1, PROF_edge_counter.3
 2037      00
 2038 1ae7 8B15E404 		movl	LPBX1+1252, %edx	 # *LPBX1, PROF_edge_counter.3
 2038      0000
 2039 1aed 83C001   		addl	$1, %eax	 #, PROF_edge_counter.3
 2040 1af0 83D200   		adcl	$0, %edx	 #, PROF_edge_counter.3
 2041 1af3 A3E00400 		movl	%eax, LPBX1+1248	 # PROF_edge_counter.3, *LPBX1
 2041      00
 2042 1af8 8915E404 		movl	%edx, LPBX1+1252	 # PROF_edge_counter.3, *LPBX1
 2042      0000
 2043              	/APP
 2044              	 # 209 "../../test/testmbox.c" 1
 2045 1afe 90       		nop
 2046              	 # 0 "" 2
 2047              	/NO_APP
 2048 1aff A1F00400 		movl	LPBX1+1264, %eax	 # *LPBX1, PROF_edge_counter.3
 2048      00
 2049 1b04 8B15F404 		movl	LPBX1+1268, %edx	 # *LPBX1, PROF_edge_counter.3
 2049      0000
 2050 1b0a 83C001   		addl	$1, %eax	 #, PROF_edge_counter.3
 2051 1b0d 83D200   		adcl	$0, %edx	 #, PROF_edge_counter.3
 2052 1b10 A3F00400 		movl	%eax, LPBX1+1264	 # PROF_edge_counter.3, *LPBX1
 2052      00
 2053 1b15 8915F404 		movl	%edx, LPBX1+1268	 # PROF_edge_counter.3, *LPBX1
GAS LISTING C:\cygwin\tmp\ccgmAwz3.s 			page 53


 2053      0000
 2054              		.loc 1 210 0 is_stmt 1 discriminator 2
 2055 1b1b 8B150C00 		movl	_mb1+12, %edx	 # mb1.mb_rdptr, D.3014
 2055      0000
 2056 1b21 A1080000 		movl	_mb1+8, %eax	 # mb1.mb_wrptr, D.3015
 2056      00
 2057 1b26 39C2     		cmpl	%eax, %edx	 # D.3015, D.3014
 2058 1b28 0F94C0   		sete	%al	 #, tmp628
 2059 1b2b 0FB6C0   		movzbl	%al, %eax	 # tmp628, D.3016
 2060 1b2e 89442404 		movl	%eax, 4(%esp)	 # D.3016,
 2061 1b32 C704242B 		movl	$43, (%esp)	 #,
 2061      000000
 2062 1b39 E8000000 		call	__test_assert	 #
 2062      00
 2063 1b3e 84C0     		testb	%al, %al	 # D.3017
 2064 1b40 7421     		je	L54	 #,
 2065              		.loc 1 210 0 is_stmt 0 discriminator 1
 2066 1b42 A1000500 		movl	LPBX1+1280, %eax	 # *LPBX1, PROF_edge_counter.3
 2066      00
 2067 1b47 8B150405 		movl	LPBX1+1284, %edx	 # *LPBX1, PROF_edge_counter.3
 2067      0000
 2068 1b4d 83C001   		addl	$1, %eax	 #, PROF_edge_counter.3
 2069 1b50 83D200   		adcl	$0, %edx	 #, PROF_edge_counter.3
 2070 1b53 A3000500 		movl	%eax, LPBX1+1280	 # PROF_edge_counter.3, *LPBX1
 2070      00
 2071 1b58 89150405 		movl	%edx, LPBX1+1284	 # PROF_edge_counter.3, *LPBX1
 2071      0000
 2072 1b5e E9220300 		jmp	L2	 #
 2072      00
 2073              	L54:
 2074              		.loc 1 210 0
 2075 1b63 A1F80400 		movl	LPBX1+1272, %eax	 # *LPBX1, PROF_edge_counter.3
 2075      00
 2076 1b68 8B15FC04 		movl	LPBX1+1276, %edx	 # *LPBX1, PROF_edge_counter.3
 2076      0000
 2077 1b6e 83C001   		addl	$1, %eax	 #, PROF_edge_counter.3
 2078 1b71 83D200   		adcl	$0, %edx	 #, PROF_edge_counter.3
 2079 1b74 A3F80400 		movl	%eax, LPBX1+1272	 # PROF_edge_counter.3, *LPBX1
 2079      00
 2080 1b79 8915FC04 		movl	%edx, LPBX1+1276	 # PROF_edge_counter.3, *LPBX1
 2080      0000
 2081              		.loc 1 215 0 is_stmt 1
 2082 1b7f C7042400 		movl	$_mb1, (%esp)	 #,
 2082      000000
 2083 1b86 E8000000 		call	_chMBReset	 #
 2083      00
 2084 1b8b A1080500 		movl	LPBX1+1288, %eax	 # *LPBX1, PROF_edge_counter.3
 2084      00
 2085 1b90 8B150C05 		movl	LPBX1+1292, %edx	 # *LPBX1, PROF_edge_counter.3
 2085      0000
 2086 1b96 83C001   		addl	$1, %eax	 #, PROF_edge_counter.3
 2087 1b99 83D200   		adcl	$0, %edx	 #, PROF_edge_counter.3
 2088 1b9c A3080500 		movl	%eax, LPBX1+1288	 # PROF_edge_counter.3, *LPBX1
 2088      00
 2089 1ba1 89150C05 		movl	%edx, LPBX1+1292	 # PROF_edge_counter.3, *LPBX1
 2089      0000
 2090              		.loc 1 220 0
GAS LISTING C:\cygwin\tmp\ccgmAwz3.s 			page 54


 2091              	/APP
 2092              	 # 220 "../../test/testmbox.c" 1
 2093 1ba7 90       		nop
 2094              	 # 0 "" 2
 2095              	/NO_APP
 2096 1ba8 A1100500 		movl	LPBX1+1296, %eax	 # *LPBX1, PROF_edge_counter.3
 2096      00
 2097 1bad 8B151405 		movl	LPBX1+1300, %edx	 # *LPBX1, PROF_edge_counter.3
 2097      0000
 2098 1bb3 83C001   		addl	$1, %eax	 #, PROF_edge_counter.3
 2099 1bb6 83D200   		adcl	$0, %edx	 #, PROF_edge_counter.3
 2100 1bb9 A3100500 		movl	%eax, LPBX1+1296	 # PROF_edge_counter.3, *LPBX1
 2100      00
 2101 1bbe 89151405 		movl	%edx, LPBX1+1300	 # PROF_edge_counter.3, *LPBX1
 2101      0000
 2102 1bc4 A1240000 		movl	_mb1+36, %eax	 # mb1.mb_emptysem.s_cnt, D.3020
 2102      00
 2103 1bc9 83F805   		cmpl	$5, %eax	 #, D.3020
 2104 1bcc 0F94C0   		sete	%al	 #, tmp629
 2105 1bcf 0FB6C0   		movzbl	%al, %eax	 # tmp629, D.3021
 2106 1bd2 89442404 		movl	%eax, 4(%esp)	 # D.3021,
 2107 1bd6 C704242C 		movl	$44, (%esp)	 #,
 2107      000000
 2108 1bdd E8000000 		call	__test_assert	 #
 2108      00
 2109 1be2 84C0     		testb	%al, %al	 # D.3022
 2110 1be4 743E     		je	L55	 #,
 2111              		.loc 1 220 0 is_stmt 0 discriminator 1
 2112 1be6 A1180500 		movl	LPBX1+1304, %eax	 # *LPBX1, PROF_edge_counter.3
 2112      00
 2113 1beb 8B151C05 		movl	LPBX1+1308, %edx	 # *LPBX1, PROF_edge_counter.3
 2113      0000
 2114 1bf1 83C001   		addl	$1, %eax	 #, PROF_edge_counter.3
 2115 1bf4 83D200   		adcl	$0, %edx	 #, PROF_edge_counter.3
 2116 1bf7 A3180500 		movl	%eax, LPBX1+1304	 # PROF_edge_counter.3, *LPBX1
 2116      00
 2117 1bfc 89151C05 		movl	%edx, LPBX1+1308	 # PROF_edge_counter.3, *LPBX1
 2117      0000
 2118              	/APP
 2119              	 # 220 "../../test/testmbox.c" 1
 2120 1c02 90       		nop
 2121              	 # 0 "" 2
 2122              	/NO_APP
 2123 1c03 A1280500 		movl	LPBX1+1320, %eax	 # *LPBX1, PROF_edge_counter.3
 2123      00
 2124 1c08 8B152C05 		movl	LPBX1+1324, %edx	 # *LPBX1, PROF_edge_counter.3
 2124      0000
 2125 1c0e 83C001   		addl	$1, %eax	 #, PROF_edge_counter.3
 2126 1c11 83D200   		adcl	$0, %edx	 #, PROF_edge_counter.3
 2127 1c14 A3280500 		movl	%eax, LPBX1+1320	 # PROF_edge_counter.3, *LPBX1
 2127      00
 2128 1c19 89152C05 		movl	%edx, LPBX1+1324	 # PROF_edge_counter.3, *LPBX1
 2128      0000
 2129 1c1f E9610200 		jmp	L2	 #
 2129      00
 2130              	L55:
 2131              		.loc 1 220 0 discriminator 2
GAS LISTING C:\cygwin\tmp\ccgmAwz3.s 			page 55


 2132 1c24 A1200500 		movl	LPBX1+1312, %eax	 # *LPBX1, PROF_edge_counter.3
 2132      00
 2133 1c29 8B152405 		movl	LPBX1+1316, %edx	 # *LPBX1, PROF_edge_counter.3
 2133      0000
 2134 1c2f 83C001   		addl	$1, %eax	 #, PROF_edge_counter.3
 2135 1c32 83D200   		adcl	$0, %edx	 #, PROF_edge_counter.3
 2136 1c35 A3200500 		movl	%eax, LPBX1+1312	 # PROF_edge_counter.3, *LPBX1
 2136      00
 2137 1c3a 89152405 		movl	%edx, LPBX1+1316	 # PROF_edge_counter.3, *LPBX1
 2137      0000
 2138              	/APP
 2139              	 # 220 "../../test/testmbox.c" 1
 2140 1c40 90       		nop
 2141              	 # 0 "" 2
 2142              	/NO_APP
 2143 1c41 A1300500 		movl	LPBX1+1328, %eax	 # *LPBX1, PROF_edge_counter.3
 2143      00
 2144 1c46 8B153405 		movl	LPBX1+1332, %edx	 # *LPBX1, PROF_edge_counter.3
 2144      0000
 2145 1c4c 83C001   		addl	$1, %eax	 #, PROF_edge_counter.3
 2146 1c4f 83D200   		adcl	$0, %edx	 #, PROF_edge_counter.3
 2147 1c52 A3300500 		movl	%eax, LPBX1+1328	 # PROF_edge_counter.3, *LPBX1
 2147      00
 2148 1c57 89153405 		movl	%edx, LPBX1+1332	 # PROF_edge_counter.3, *LPBX1
 2148      0000
 2149              		.loc 1 221 0 is_stmt 1 discriminator 2
 2150              	/APP
 2151              	 # 221 "../../test/testmbox.c" 1
 2152 1c5d 90       		nop
 2153              	 # 0 "" 2
 2154              	/NO_APP
 2155 1c5e A1380500 		movl	LPBX1+1336, %eax	 # *LPBX1, PROF_edge_counter.3
 2155      00
 2156 1c63 8B153C05 		movl	LPBX1+1340, %edx	 # *LPBX1, PROF_edge_counter.3
 2156      0000
 2157 1c69 83C001   		addl	$1, %eax	 #, PROF_edge_counter.3
 2158 1c6c 83D200   		adcl	$0, %edx	 #, PROF_edge_counter.3
 2159 1c6f A3380500 		movl	%eax, LPBX1+1336	 # PROF_edge_counter.3, *LPBX1
 2159      00
 2160 1c74 89153C05 		movl	%edx, LPBX1+1340	 # PROF_edge_counter.3, *LPBX1
 2160      0000
 2161 1c7a A1180000 		movl	_mb1+24, %eax	 # mb1.mb_fullsem.s_cnt, D.3025
 2161      00
 2162 1c7f 85C0     		testl	%eax, %eax	 # D.3025
 2163 1c81 0F94C0   		sete	%al	 #, tmp630
 2164 1c84 0FB6C0   		movzbl	%al, %eax	 # tmp630, D.3026
 2165 1c87 89442404 		movl	%eax, 4(%esp)	 # D.3026,
 2166 1c8b C704242D 		movl	$45, (%esp)	 #,
 2166      000000
 2167 1c92 E8000000 		call	__test_assert	 #
 2167      00
 2168 1c97 84C0     		testb	%al, %al	 # D.3027
 2169 1c99 743E     		je	L56	 #,
 2170              		.loc 1 221 0 is_stmt 0 discriminator 1
 2171 1c9b A1400500 		movl	LPBX1+1344, %eax	 # *LPBX1, PROF_edge_counter.3
 2171      00
 2172 1ca0 8B154405 		movl	LPBX1+1348, %edx	 # *LPBX1, PROF_edge_counter.3
GAS LISTING C:\cygwin\tmp\ccgmAwz3.s 			page 56


 2172      0000
 2173 1ca6 83C001   		addl	$1, %eax	 #, PROF_edge_counter.3
 2174 1ca9 83D200   		adcl	$0, %edx	 #, PROF_edge_counter.3
 2175 1cac A3400500 		movl	%eax, LPBX1+1344	 # PROF_edge_counter.3, *LPBX1
 2175      00
 2176 1cb1 89154405 		movl	%edx, LPBX1+1348	 # PROF_edge_counter.3, *LPBX1
 2176      0000
 2177              	/APP
 2178              	 # 221 "../../test/testmbox.c" 1
 2179 1cb7 90       		nop
 2180              	 # 0 "" 2
 2181              	/NO_APP
 2182 1cb8 A1500500 		movl	LPBX1+1360, %eax	 # *LPBX1, PROF_edge_counter.3
 2182      00
 2183 1cbd 8B155405 		movl	LPBX1+1364, %edx	 # *LPBX1, PROF_edge_counter.3
 2183      0000
 2184 1cc3 83C001   		addl	$1, %eax	 #, PROF_edge_counter.3
 2185 1cc6 83D200   		adcl	$0, %edx	 #, PROF_edge_counter.3
 2186 1cc9 A3500500 		movl	%eax, LPBX1+1360	 # PROF_edge_counter.3, *LPBX1
 2186      00
 2187 1cce 89155405 		movl	%edx, LPBX1+1364	 # PROF_edge_counter.3, *LPBX1
 2187      0000
 2188 1cd4 E9AC0100 		jmp	L2	 #
 2188      00
 2189              	L56:
 2190              		.loc 1 221 0 discriminator 2
 2191 1cd9 A1480500 		movl	LPBX1+1352, %eax	 # *LPBX1, PROF_edge_counter.3
 2191      00
 2192 1cde 8B154C05 		movl	LPBX1+1356, %edx	 # *LPBX1, PROF_edge_counter.3
 2192      0000
 2193 1ce4 83C001   		addl	$1, %eax	 #, PROF_edge_counter.3
 2194 1ce7 83D200   		adcl	$0, %edx	 #, PROF_edge_counter.3
 2195 1cea A3480500 		movl	%eax, LPBX1+1352	 # PROF_edge_counter.3, *LPBX1
 2195      00
 2196 1cef 89154C05 		movl	%edx, LPBX1+1356	 # PROF_edge_counter.3, *LPBX1
 2196      0000
 2197              	/APP
 2198              	 # 221 "../../test/testmbox.c" 1
 2199 1cf5 90       		nop
 2200              	 # 0 "" 2
 2201              	/NO_APP
 2202 1cf6 A1580500 		movl	LPBX1+1368, %eax	 # *LPBX1, PROF_edge_counter.3
 2202      00
 2203 1cfb 8B155C05 		movl	LPBX1+1372, %edx	 # *LPBX1, PROF_edge_counter.3
 2203      0000
 2204 1d01 83C001   		addl	$1, %eax	 #, PROF_edge_counter.3
 2205 1d04 83D200   		adcl	$0, %edx	 #, PROF_edge_counter.3
 2206 1d07 A3580500 		movl	%eax, LPBX1+1368	 # PROF_edge_counter.3, *LPBX1
 2206      00
 2207 1d0c 89155C05 		movl	%edx, LPBX1+1372	 # PROF_edge_counter.3, *LPBX1
 2207      0000
 2208              		.loc 1 222 0 is_stmt 1 discriminator 2
 2209              	/APP
 2210              	 # 222 "../../test/testmbox.c" 1
 2211 1d12 90       		nop
 2212              	 # 0 "" 2
 2213              	/NO_APP
GAS LISTING C:\cygwin\tmp\ccgmAwz3.s 			page 57


 2214 1d13 A1600500 		movl	LPBX1+1376, %eax	 # *LPBX1, PROF_edge_counter.3
 2214      00
 2215 1d18 8B156405 		movl	LPBX1+1380, %edx	 # *LPBX1, PROF_edge_counter.3
 2215      0000
 2216 1d1e 83C001   		addl	$1, %eax	 #, PROF_edge_counter.3
 2217 1d21 83D200   		adcl	$0, %edx	 #, PROF_edge_counter.3
 2218 1d24 A3600500 		movl	%eax, LPBX1+1376	 # PROF_edge_counter.3, *LPBX1
 2218      00
 2219 1d29 89156405 		movl	%edx, LPBX1+1380	 # PROF_edge_counter.3, *LPBX1
 2219      0000
 2220 1d2f 8B150000 		movl	_mb1, %edx	 # mb1.mb_buffer, D.3030
 2220      0000
 2221 1d35 A1080000 		movl	_mb1+8, %eax	 # mb1.mb_wrptr, D.3031
 2221      00
 2222 1d3a 39C2     		cmpl	%eax, %edx	 # D.3031, D.3030
 2223 1d3c 0F94C0   		sete	%al	 #, tmp631
 2224 1d3f 0FB6C0   		movzbl	%al, %eax	 # tmp631, D.3032
 2225 1d42 89442404 		movl	%eax, 4(%esp)	 # D.3032,
 2226 1d46 C704242E 		movl	$46, (%esp)	 #,
 2226      000000
 2227 1d4d E8000000 		call	__test_assert	 #
 2227      00
 2228 1d52 84C0     		testb	%al, %al	 # D.3033
 2229 1d54 743E     		je	L57	 #,
 2230              		.loc 1 222 0 is_stmt 0 discriminator 1
 2231 1d56 A1680500 		movl	LPBX1+1384, %eax	 # *LPBX1, PROF_edge_counter.3
 2231      00
 2232 1d5b 8B156C05 		movl	LPBX1+1388, %edx	 # *LPBX1, PROF_edge_counter.3
 2232      0000
 2233 1d61 83C001   		addl	$1, %eax	 #, PROF_edge_counter.3
 2234 1d64 83D200   		adcl	$0, %edx	 #, PROF_edge_counter.3
 2235 1d67 A3680500 		movl	%eax, LPBX1+1384	 # PROF_edge_counter.3, *LPBX1
 2235      00
 2236 1d6c 89156C05 		movl	%edx, LPBX1+1388	 # PROF_edge_counter.3, *LPBX1
 2236      0000
 2237              	/APP
 2238              	 # 222 "../../test/testmbox.c" 1
 2239 1d72 90       		nop
 2240              	 # 0 "" 2
 2241              	/NO_APP
 2242 1d73 A1780500 		movl	LPBX1+1400, %eax	 # *LPBX1, PROF_edge_counter.3
 2242      00
 2243 1d78 8B157C05 		movl	LPBX1+1404, %edx	 # *LPBX1, PROF_edge_counter.3
 2243      0000
 2244 1d7e 83C001   		addl	$1, %eax	 #, PROF_edge_counter.3
 2245 1d81 83D200   		adcl	$0, %edx	 #, PROF_edge_counter.3
 2246 1d84 A3780500 		movl	%eax, LPBX1+1400	 # PROF_edge_counter.3, *LPBX1
 2246      00
 2247 1d89 89157C05 		movl	%edx, LPBX1+1404	 # PROF_edge_counter.3, *LPBX1
 2247      0000
 2248 1d8f E9F10000 		jmp	L2	 #
 2248      00
 2249              	L57:
 2250              		.loc 1 222 0 discriminator 2
 2251 1d94 A1700500 		movl	LPBX1+1392, %eax	 # *LPBX1, PROF_edge_counter.3
 2251      00
 2252 1d99 8B157405 		movl	LPBX1+1396, %edx	 # *LPBX1, PROF_edge_counter.3
GAS LISTING C:\cygwin\tmp\ccgmAwz3.s 			page 58


 2252      0000
 2253 1d9f 83C001   		addl	$1, %eax	 #, PROF_edge_counter.3
 2254 1da2 83D200   		adcl	$0, %edx	 #, PROF_edge_counter.3
 2255 1da5 A3700500 		movl	%eax, LPBX1+1392	 # PROF_edge_counter.3, *LPBX1
 2255      00
 2256 1daa 89157405 		movl	%edx, LPBX1+1396	 # PROF_edge_counter.3, *LPBX1
 2256      0000
 2257              	/APP
 2258              	 # 222 "../../test/testmbox.c" 1
 2259 1db0 90       		nop
 2260              	 # 0 "" 2
 2261              	/NO_APP
 2262 1db1 A1800500 		movl	LPBX1+1408, %eax	 # *LPBX1, PROF_edge_counter.3
 2262      00
 2263 1db6 8B158405 		movl	LPBX1+1412, %edx	 # *LPBX1, PROF_edge_counter.3
 2263      0000
 2264 1dbc 83C001   		addl	$1, %eax	 #, PROF_edge_counter.3
 2265 1dbf 83D200   		adcl	$0, %edx	 #, PROF_edge_counter.3
 2266 1dc2 A3800500 		movl	%eax, LPBX1+1408	 # PROF_edge_counter.3, *LPBX1
 2266      00
 2267 1dc7 89158405 		movl	%edx, LPBX1+1412	 # PROF_edge_counter.3, *LPBX1
 2267      0000
 2268              		.loc 1 223 0 is_stmt 1 discriminator 2
 2269              	/APP
 2270              	 # 223 "../../test/testmbox.c" 1
 2271 1dcd 90       		nop
 2272              	 # 0 "" 2
 2273              	/NO_APP
 2274 1dce A1880500 		movl	LPBX1+1416, %eax	 # *LPBX1, PROF_edge_counter.3
 2274      00
 2275 1dd3 8B158C05 		movl	LPBX1+1420, %edx	 # *LPBX1, PROF_edge_counter.3
 2275      0000
 2276 1dd9 83C001   		addl	$1, %eax	 #, PROF_edge_counter.3
 2277 1ddc 83D200   		adcl	$0, %edx	 #, PROF_edge_counter.3
 2278 1ddf A3880500 		movl	%eax, LPBX1+1416	 # PROF_edge_counter.3, *LPBX1
 2278      00
 2279 1de4 89158C05 		movl	%edx, LPBX1+1420	 # PROF_edge_counter.3, *LPBX1
 2279      0000
 2280 1dea 8B150000 		movl	_mb1, %edx	 # mb1.mb_buffer, D.3036
 2280      0000
 2281 1df0 A10C0000 		movl	_mb1+12, %eax	 # mb1.mb_rdptr, D.3037
 2281      00
 2282 1df5 39C2     		cmpl	%eax, %edx	 # D.3037, D.3036
 2283 1df7 0F94C0   		sete	%al	 #, tmp632
 2284 1dfa 0FB6C0   		movzbl	%al, %eax	 # tmp632, D.3038
 2285 1dfd 89442404 		movl	%eax, 4(%esp)	 # D.3038,
 2286 1e01 C704242F 		movl	$47, (%esp)	 #,
 2286      000000
 2287 1e08 E8000000 		call	__test_assert	 #
 2287      00
 2288 1e0d 84C0     		testb	%al, %al	 # D.3039
 2289 1e0f 743B     		je	L58	 #,
 2290              		.loc 1 223 0 is_stmt 0 discriminator 1
 2291 1e11 A1900500 		movl	LPBX1+1424, %eax	 # *LPBX1, PROF_edge_counter.3
 2291      00
 2292 1e16 8B159405 		movl	LPBX1+1428, %edx	 # *LPBX1, PROF_edge_counter.3
 2292      0000
GAS LISTING C:\cygwin\tmp\ccgmAwz3.s 			page 59


 2293 1e1c 83C001   		addl	$1, %eax	 #, PROF_edge_counter.3
 2294 1e1f 83D200   		adcl	$0, %edx	 #, PROF_edge_counter.3
 2295 1e22 A3900500 		movl	%eax, LPBX1+1424	 # PROF_edge_counter.3, *LPBX1
 2295      00
 2296 1e27 89159405 		movl	%edx, LPBX1+1428	 # PROF_edge_counter.3, *LPBX1
 2296      0000
 2297              	/APP
 2298              	 # 223 "../../test/testmbox.c" 1
 2299 1e2d 90       		nop
 2300              	 # 0 "" 2
 2301              	/NO_APP
 2302 1e2e A1A00500 		movl	LPBX1+1440, %eax	 # *LPBX1, PROF_edge_counter.3
 2302      00
 2303 1e33 8B15A405 		movl	LPBX1+1444, %edx	 # *LPBX1, PROF_edge_counter.3
 2303      0000
 2304 1e39 83C001   		addl	$1, %eax	 #, PROF_edge_counter.3
 2305 1e3c 83D200   		adcl	$0, %edx	 #, PROF_edge_counter.3
 2306 1e3f A3A00500 		movl	%eax, LPBX1+1440	 # PROF_edge_counter.3, *LPBX1
 2306      00
 2307 1e44 8915A405 		movl	%edx, LPBX1+1444	 # PROF_edge_counter.3, *LPBX1
 2307      0000
 2308 1e4a EB39     		jmp	L2	 #
 2309              	L58:
 2310              		.loc 1 223 0 discriminator 2
 2311 1e4c A1980500 		movl	LPBX1+1432, %eax	 # *LPBX1, PROF_edge_counter.3
 2311      00
 2312 1e51 8B159C05 		movl	LPBX1+1436, %edx	 # *LPBX1, PROF_edge_counter.3
 2312      0000
 2313 1e57 83C001   		addl	$1, %eax	 #, PROF_edge_counter.3
 2314 1e5a 83D200   		adcl	$0, %edx	 #, PROF_edge_counter.3
 2315 1e5d A3980500 		movl	%eax, LPBX1+1432	 # PROF_edge_counter.3, *LPBX1
 2315      00
 2316 1e62 89159C05 		movl	%edx, LPBX1+1436	 # PROF_edge_counter.3, *LPBX1
 2316      0000
 2317              	/APP
 2318              	 # 223 "../../test/testmbox.c" 1
 2319 1e68 90       		nop
 2320              	 # 0 "" 2
 2321              	/NO_APP
 2322 1e69 A1A80500 		movl	LPBX1+1448, %eax	 # *LPBX1, PROF_edge_counter.3
 2322      00
 2323 1e6e 8B15AC05 		movl	LPBX1+1452, %edx	 # *LPBX1, PROF_edge_counter.3
 2323      0000
 2324 1e74 83C001   		addl	$1, %eax	 #, PROF_edge_counter.3
 2325 1e77 83D200   		adcl	$0, %edx	 #, PROF_edge_counter.3
 2326 1e7a A3A80500 		movl	%eax, LPBX1+1448	 # PROF_edge_counter.3, *LPBX1
 2326      00
 2327 1e7f 8915AC05 		movl	%edx, LPBX1+1452	 # PROF_edge_counter.3, *LPBX1
 2327      0000
 2328              	L2:
 2329              		.loc 1 224 0 is_stmt 1
 2330 1e85 83C42C   		addl	$44, %esp	 #,
 2331              	LCFI3:
 2332              		.cfi_def_cfa_offset 4
 2333 1e88 C3       		ret
 2334              		.cfi_endproc
 2335              	LFE1:
GAS LISTING C:\cygwin\tmp\ccgmAwz3.s 			page 60


 2336              		.globl	_testmbox1
 2337              		.section .rdata,"dr"
 2338 0006 0000     		.align 4
 2339              	LC1:
 2340 0008 4D61696C 		.ascii "Mailboxes, queuing and timeouts\0"
 2340      626F7865 
 2340      732C2071 
 2340      75657569 
 2340      6E672061 
 2341              		.align 4
 2342              	_testmbox1:
 2343              	 # name:
 2344 0028 08000000 		.long	LC1
 2345              	 # setup:
 2346 002c 00000000 		.long	_mbox1_setup
 2347              	 # teardown:
 2348 0030 00000000 		.long	0
 2349              	 # execute:
 2350 0034 5B000000 		.long	_mbox1_execute
 2351              		.globl	_patternmbox
 2352              		.align 4
 2353              	_patternmbox:
 2354 0038 28000000 		.long	_testmbox1
 2355 003c 00000000 		.long	0
 2356              	.lcomm LPBX1,1472,32
 2357              		.align 4
 2358              	LC2:
 2359 0040 433A5C64 		.ascii "C:\\develop\\gyro\\ChibiOS\\test\\coverage/../../test/testmbox.gcda\0"
 2359      6576656C 
 2359      6F705C67 
 2359      79726F5C 
 2359      43686962 
 2360 007f 00       		.data
 2361              		.align 4
 2362              	LC3:
 2363              	 # <anonymous>:
 2364 0028 02000000 		.long	2
 2365              	 # <anonymous>:
 2366 002c 27135E32 		.long	845026087
 2367              	 # <anonymous>:
 2368 0030 B6000000 		.long	182
 2369              	 # <anonymous>:
 2370 0034 01000000 		.long	1
 2371              	 # <anonymous>:
 2372 0038 97F8E353 		.long	1407449239
 2373              	 # <anonymous>:
 2374 003c 02000000 		.long	2
 2375              		.align 32
 2376              	LPBX0:
 2377              	 # <anonymous>:
 2378 0040 2A363034 		.long	875574826
 2379              	 # <anonymous>:
 2380 0044 00000000 		.long	0
 2381              	 # <anonymous>:
 2382 0048 88337060 		.long	1617965960
 2383              	 # <anonymous>:
 2384 004c 40000000 		.long	LC2
GAS LISTING C:\cygwin\tmp\ccgmAwz3.s 			page 61


 2385              	 # <anonymous>:
 2386 0050 02000000 		.long	2
 2387              	 # <anonymous>:
 2388 0054 28000000 		.long	LC3
 2389              	 # <anonymous>:
 2390 0058 01000000 		.long	1
 2391              	 # <anonymous>:
 2392              	 # <anonymous>:
 2393 005c B8000000 		.long	184
 2394              	 # <anonymous>:
 2395 0060 00000000 		.long	LPBX1
 2396              	 # <anonymous>:
 2397 0064 00000000 		.long	___gcov_merge_add
 2398 0068 00000000 		.space 12
 2398      00000000 
 2398      00000000 
 2399 0074 00000000 		.text
 2399      00000000 
 2399      00000000 
 2400              		.def	__GLOBAL__sub_I_65535_0_testmbox1;	.scl	3;	.type	32;	.endef
 2401              	__GLOBAL__sub_I_65535_0_testmbox1:
 2402              	LFB2:
 2403              		.loc 1 243 0
 2404              		.cfi_startproc
 2405 1e89 83EC1C   		subl	$28, %esp	 #,
 2406              	LCFI4:
 2407              		.cfi_def_cfa_offset 32
 2408              		.loc 1 243 0
 2409 1e8c C7042440 		movl	$LPBX0, (%esp)	 #,
 2409      000000
 2410 1e93 E8000000 		call	___gcov_init	 #
 2410      00
 2411 1e98 83C41C   		addl	$28, %esp	 #,
 2412              	LCFI5:
 2413              		.cfi_def_cfa_offset 4
 2414 1e9b C3       		ret
 2415              		.cfi_endproc
 2416              	LFE2:
 2417              		.section	.ctors,"w"
 2418              		.align 4
 2419 0000 891E0000 		.long	__GLOBAL__sub_I_65535_0_testmbox1
 2420              		.text
 2421              	Letext0:
 2422              		.file 2 "c:/mingw/bin/../lib/gcc/mingw32/4.6.2/../../../../include/stdint.h"
 2423              		.file 3 "../../os/ports/GCC/SIMIA32/chtypes.h"
 2424              		.file 4 "../../os/kernel/include/chlists.h"
 2425              		.file 5 "../../os/kernel/include/chthreads.h"
 2426              		.file 6 "../../os/ports/GCC/SIMIA32/chcore.h"
 2427              		.file 7 "../../os/kernel/include/chsem.h"
 2428              		.file 8 "../../os/kernel/include/chmtx.h"
 2429              		.file 9 "../../os/kernel/include/chmboxes.h"
 2430              		.file 10 "../../test/test.h"
 2431              		.section	.debug_info,"dr"
 2432              	Ldebug_info0:
 2433 0000 0A080000 		.long	0x80a
 2434 0004 0200     		.word	0x2
 2435 0006 00000000 		.secrel32	Ldebug_abbrev0
GAS LISTING C:\cygwin\tmp\ccgmAwz3.s 			page 62


 2436 000a 04       		.byte	0x4
 2437 000b 01       		.uleb128 0x1
 2438 000c 474E5520 		.ascii "GNU C 4.6.2\0"
 2438      4320342E 
 2438      362E3200 
 2439 0018 01       		.byte	0x1
 2440 0019 2E2E2F2E 		.ascii "../../test/testmbox.c\0"
 2440      2E2F7465 
 2440      73742F74 
 2440      6573746D 
 2440      626F782E 
 2441 002f 433A5C64 		.ascii "C:\\develop\\gyro\\ChibiOS\\test\\coverage\0"
 2441      6576656C 
 2441      6F705C67 
 2441      79726F5C 
 2441      43686962 
 2442 0055 00000000 		.long	Ltext0
 2443 0059 9C1E0000 		.long	Letext0
 2444 005d 00000000 		.secrel32	Ldebug_line0
 2445 0061 02       		.uleb128 0x2
 2446 0062 04       		.byte	0x4
 2447 0063 05       		.byte	0x5
 2448 0064 696E7400 		.ascii "int\0"
 2449 0068 02       		.uleb128 0x2
 2450 0069 04       		.byte	0x4
 2451 006a 07       		.byte	0x7
 2452 006b 756E7369 		.ascii "unsigned int\0"
 2452      676E6564 
 2452      20696E74 
 2452      00
 2453 0078 02       		.uleb128 0x2
 2454 0079 02       		.byte	0x2
 2455 007a 07       		.byte	0x7
 2456 007b 73686F72 		.ascii "short unsigned int\0"
 2456      7420756E 
 2456      7369676E 
 2456      65642069 
 2456      6E7400
 2457 008e 02       		.uleb128 0x2
 2458 008f 01       		.byte	0x1
 2459 0090 06       		.byte	0x6
 2460 0091 7369676E 		.ascii "signed char\0"
 2460      65642063 
 2460      68617200 
 2461 009d 03       		.uleb128 0x3
 2462 009e 75696E74 		.ascii "uint8_t\0"
 2462      385F7400 
 2463 00a6 02       		.byte	0x2
 2464 00a7 1C       		.byte	0x1c
 2465 00a8 AC000000 		.long	0xac
 2466 00ac 02       		.uleb128 0x2
 2467 00ad 01       		.byte	0x1
 2468 00ae 08       		.byte	0x8
 2469 00af 756E7369 		.ascii "unsigned char\0"
 2469      676E6564 
 2469      20636861 
 2469      7200
GAS LISTING C:\cygwin\tmp\ccgmAwz3.s 			page 63


 2470 00bd 02       		.uleb128 0x2
 2471 00be 02       		.byte	0x2
 2472 00bf 05       		.byte	0x5
 2473 00c0 73686F72 		.ascii "short int\0"
 2473      7420696E 
 2473      7400
 2474 00ca 03       		.uleb128 0x3
 2475 00cb 696E7433 		.ascii "int32_t\0"
 2475      325F7400 
 2476 00d3 02       		.byte	0x2
 2477 00d4 1F       		.byte	0x1f
 2478 00d5 61000000 		.long	0x61
 2479 00d9 03       		.uleb128 0x3
 2480 00da 75696E74 		.ascii "uint32_t\0"
 2480      33325F74 
 2480      00
 2481 00e3 02       		.byte	0x2
 2482 00e4 20       		.byte	0x20
 2483 00e5 68000000 		.long	0x68
 2484 00e9 02       		.uleb128 0x2
 2485 00ea 08       		.byte	0x8
 2486 00eb 05       		.byte	0x5
 2487 00ec 6C6F6E67 		.ascii "long long int\0"
 2487      206C6F6E 
 2487      6720696E 
 2487      7400
 2488 00fa 02       		.uleb128 0x2
 2489 00fb 08       		.byte	0x8
 2490 00fc 07       		.byte	0x7
 2491 00fd 6C6F6E67 		.ascii "long long unsigned int\0"
 2491      206C6F6E 
 2491      6720756E 
 2491      7369676E 
 2491      65642069 
 2492 0114 02       		.uleb128 0x2
 2493 0115 01       		.byte	0x1
 2494 0116 02       		.byte	0x2
 2495 0117 5F426F6F 		.ascii "_Bool\0"
 2495      6C00
 2496 011d 03       		.uleb128 0x3
 2497 011e 746D6F64 		.ascii "tmode_t\0"
 2497      655F7400 
 2498 0126 03       		.byte	0x3
 2499 0127 1D       		.byte	0x1d
 2500 0128 9D000000 		.long	0x9d
 2501 012c 03       		.uleb128 0x3
 2502 012d 74737461 		.ascii "tstate_t\0"
 2502      74655F74 
 2502      00
 2503 0136 03       		.byte	0x3
 2504 0137 1E       		.byte	0x1e
 2505 0138 9D000000 		.long	0x9d
 2506 013c 03       		.uleb128 0x3
 2507 013d 74726566 		.ascii "trefs_t\0"
 2507      735F7400 
 2508 0145 03       		.byte	0x3
 2509 0146 1F       		.byte	0x1f
GAS LISTING C:\cygwin\tmp\ccgmAwz3.s 			page 64


 2510 0147 9D000000 		.long	0x9d
 2511 014b 03       		.uleb128 0x3
 2512 014c 74736C69 		.ascii "tslices_t\0"
 2512      6365735F 
 2512      7400
 2513 0156 03       		.byte	0x3
 2514 0157 20       		.byte	0x20
 2515 0158 9D000000 		.long	0x9d
 2516 015c 03       		.uleb128 0x3
 2517 015d 74707269 		.ascii "tprio_t\0"
 2517      6F5F7400 
 2518 0165 03       		.byte	0x3
 2519 0166 21       		.byte	0x21
 2520 0167 D9000000 		.long	0xd9
 2521 016b 03       		.uleb128 0x3
 2522 016c 6D73675F 		.ascii "msg_t\0"
 2522      7400
 2523 0172 03       		.byte	0x3
 2524 0173 22       		.byte	0x22
 2525 0174 CA000000 		.long	0xca
 2526 0178 03       		.uleb128 0x3
 2527 0179 6576656E 		.ascii "eventmask_t\0"
 2527      746D6173 
 2527      6B5F7400 
 2528 0185 03       		.byte	0x3
 2529 0186 24       		.byte	0x24
 2530 0187 D9000000 		.long	0xd9
 2531 018b 03       		.uleb128 0x3
 2532 018c 73797374 		.ascii "systime_t\0"
 2532      696D655F 
 2532      7400
 2533 0196 03       		.byte	0x3
 2534 0197 26       		.byte	0x26
 2535 0198 D9000000 		.long	0xd9
 2536 019c 03       		.uleb128 0x3
 2537 019d 636E745F 		.ascii "cnt_t\0"
 2537      7400
 2538 01a3 03       		.byte	0x3
 2539 01a4 27       		.byte	0x27
 2540 01a5 CA000000 		.long	0xca
 2541 01a9 03       		.uleb128 0x3
 2542 01aa 54687265 		.ascii "Thread\0"
 2542      616400
 2543 01b1 04       		.byte	0x4
 2544 01b2 23       		.byte	0x23
 2545 01b3 B7010000 		.long	0x1b7
 2546 01b7 04       		.uleb128 0x4
 2547 01b8 54687265 		.ascii "Thread\0"
 2547      616400
 2548 01bf 48       		.byte	0x48
 2549 01c0 05       		.byte	0x5
 2550 01c1 57       		.byte	0x57
 2551 01c2 2D030000 		.long	0x32d
 2552 01c6 05       		.uleb128 0x5
 2553 01c7 14000000 		.secrel32	LASF0
 2554 01cb 05       		.byte	0x5
 2555 01cc 58       		.byte	0x58
GAS LISTING C:\cygwin\tmp\ccgmAwz3.s 			page 65


 2556 01cd 55030000 		.long	0x355
 2557 01d1 02       		.byte	0x2
 2558 01d2 23       		.byte	0x23
 2559 01d3 00       		.uleb128 0
 2560 01d4 06       		.uleb128 0x6
 2561 01d5 705F7072 		.ascii "p_prev\0"
 2561      657600
 2562 01dc 05       		.byte	0x5
 2563 01dd 5A       		.byte	0x5a
 2564 01de 55030000 		.long	0x355
 2565 01e2 02       		.byte	0x2
 2566 01e3 23       		.byte	0x23
 2567 01e4 04       		.uleb128 0x4
 2568 01e5 06       		.uleb128 0x6
 2569 01e6 705F7072 		.ascii "p_prio\0"
 2569      696F00
 2570 01ed 05       		.byte	0x5
 2571 01ee 5C       		.byte	0x5c
 2572 01ef 5C010000 		.long	0x15c
 2573 01f3 02       		.byte	0x2
 2574 01f4 23       		.byte	0x23
 2575 01f5 08       		.uleb128 0x8
 2576 01f6 06       		.uleb128 0x6
 2577 01f7 705F6374 		.ascii "p_ctx\0"
 2577      7800
 2578 01fd 05       		.byte	0x5
 2579 01fe 5D       		.byte	0x5d
 2580 01ff 36040000 		.long	0x436
 2581 0203 02       		.byte	0x2
 2582 0204 23       		.byte	0x23
 2583 0205 0C       		.uleb128 0xc
 2584 0206 06       		.uleb128 0x6
 2585 0207 705F6E65 		.ascii "p_newer\0"
 2585      77657200 
 2586 020f 05       		.byte	0x5
 2587 0210 5F       		.byte	0x5f
 2588 0211 55030000 		.long	0x355
 2589 0215 02       		.byte	0x2
 2590 0216 23       		.byte	0x23
 2591 0217 10       		.uleb128 0x10
 2592 0218 06       		.uleb128 0x6
 2593 0219 705F6F6C 		.ascii "p_older\0"
 2593      64657200 
 2594 0221 05       		.byte	0x5
 2595 0222 60       		.byte	0x60
 2596 0223 55030000 		.long	0x355
 2597 0227 02       		.byte	0x2
 2598 0228 23       		.byte	0x23
 2599 0229 14       		.uleb128 0x14
 2600 022a 06       		.uleb128 0x6
 2601 022b 705F6E61 		.ascii "p_name\0"
 2601      6D6500
 2602 0232 05       		.byte	0x5
 2603 0233 67       		.byte	0x67
 2604 0234 CD050000 		.long	0x5cd
 2605 0238 02       		.byte	0x2
 2606 0239 23       		.byte	0x23
GAS LISTING C:\cygwin\tmp\ccgmAwz3.s 			page 66


 2607 023a 18       		.uleb128 0x18
 2608 023b 06       		.uleb128 0x6
 2609 023c 705F7374 		.ascii "p_state\0"
 2609      61746500 
 2610 0244 05       		.byte	0x5
 2611 0245 72       		.byte	0x72
 2612 0246 2C010000 		.long	0x12c
 2613 024a 02       		.byte	0x2
 2614 024b 23       		.byte	0x23
 2615 024c 1C       		.uleb128 0x1c
 2616 024d 06       		.uleb128 0x6
 2617 024e 705F666C 		.ascii "p_flags\0"
 2617      61677300 
 2618 0256 05       		.byte	0x5
 2619 0257 76       		.byte	0x76
 2620 0258 1D010000 		.long	0x11d
 2621 025c 02       		.byte	0x2
 2622 025d 23       		.byte	0x23
 2623 025e 1D       		.uleb128 0x1d
 2624 025f 06       		.uleb128 0x6
 2625 0260 705F7265 		.ascii "p_refs\0"
 2625      667300
 2626 0267 05       		.byte	0x5
 2627 0268 7B       		.byte	0x7b
 2628 0269 3C010000 		.long	0x13c
 2629 026d 02       		.byte	0x2
 2630 026e 23       		.byte	0x23
 2631 026f 1E       		.uleb128 0x1e
 2632 0270 06       		.uleb128 0x6
 2633 0271 705F7072 		.ascii "p_preempt\0"
 2633      65656D70 
 2633      7400
 2634 027b 05       		.byte	0x5
 2635 027c 81       		.byte	0x81
 2636 027d 4B010000 		.long	0x14b
 2637 0281 02       		.byte	0x2
 2638 0282 23       		.byte	0x23
 2639 0283 1F       		.uleb128 0x1f
 2640 0284 06       		.uleb128 0x6
 2641 0285 705F7469 		.ascii "p_time\0"
 2641      6D6500
 2642 028c 05       		.byte	0x5
 2643 028d 88       		.byte	0x88
 2644 028e 60040000 		.long	0x460
 2645 0292 02       		.byte	0x2
 2646 0293 23       		.byte	0x23
 2647 0294 20       		.uleb128 0x20
 2648 0295 06       		.uleb128 0x6
 2649 0296 705F7500 		.ascii "p_u\0"
 2650 029a 05       		.byte	0x5
 2651 029b AD       		.byte	0xad
 2652 029c 8A050000 		.long	0x58a
 2653 02a0 02       		.byte	0x2
 2654 02a1 23       		.byte	0x23
 2655 02a2 24       		.uleb128 0x24
 2656 02a3 06       		.uleb128 0x6
 2657 02a4 705F7761 		.ascii "p_waiting\0"
GAS LISTING C:\cygwin\tmp\ccgmAwz3.s 			page 67


 2657      6974696E 
 2657      6700
 2658 02ae 05       		.byte	0x5
 2659 02af B2       		.byte	0xb2
 2660 02b0 86030000 		.long	0x386
 2661 02b4 02       		.byte	0x2
 2662 02b5 23       		.byte	0x23
 2663 02b6 28       		.uleb128 0x28
 2664 02b7 06       		.uleb128 0x6
 2665 02b8 705F6D73 		.ascii "p_msgqueue\0"
 2665      67717565 
 2665      756500
 2666 02c3 05       		.byte	0x5
 2667 02c4 B8       		.byte	0xb8
 2668 02c5 5B030000 		.long	0x35b
 2669 02c9 02       		.byte	0x2
 2670 02ca 23       		.byte	0x23
 2671 02cb 2C       		.uleb128 0x2c
 2672 02cc 06       		.uleb128 0x6
 2673 02cd 705F6D73 		.ascii "p_msg\0"
 2673      6700
 2674 02d3 05       		.byte	0x5
 2675 02d4 BC       		.byte	0xbc
 2676 02d5 6B010000 		.long	0x16b
 2677 02d9 02       		.byte	0x2
 2678 02da 23       		.byte	0x23
 2679 02db 34       		.uleb128 0x34
 2680 02dc 06       		.uleb128 0x6
 2681 02dd 705F6570 		.ascii "p_epending\0"
 2681      656E6469 
 2681      6E6700
 2682 02e8 05       		.byte	0x5
 2683 02e9 C2       		.byte	0xc2
 2684 02ea 78010000 		.long	0x178
 2685 02ee 02       		.byte	0x2
 2686 02ef 23       		.byte	0x23
 2687 02f0 38       		.uleb128 0x38
 2688 02f1 06       		.uleb128 0x6
 2689 02f2 705F6D74 		.ascii "p_mtxlist\0"
 2689      786C6973 
 2689      7400
 2690 02fc 05       		.byte	0x5
 2691 02fd C9       		.byte	0xc9
 2692 02fe E0050000 		.long	0x5e0
 2693 0302 02       		.byte	0x2
 2694 0303 23       		.byte	0x23
 2695 0304 3C       		.uleb128 0x3c
 2696 0305 06       		.uleb128 0x6
 2697 0306 705F7265 		.ascii "p_realprio\0"
 2697      616C7072 
 2697      696F00
 2698 0311 05       		.byte	0x5
 2699 0312 CD       		.byte	0xcd
 2700 0313 5C010000 		.long	0x15c
 2701 0317 02       		.byte	0x2
 2702 0318 23       		.byte	0x23
 2703 0319 40       		.uleb128 0x40
GAS LISTING C:\cygwin\tmp\ccgmAwz3.s 			page 68


 2704 031a 06       		.uleb128 0x6
 2705 031b 705F6D70 		.ascii "p_mpool\0"
 2705      6F6F6C00 
 2706 0323 05       		.byte	0x5
 2707 0324 D3       		.byte	0xd3
 2708 0325 DE030000 		.long	0x3de
 2709 0329 02       		.byte	0x2
 2710 032a 23       		.byte	0x23
 2711 032b 44       		.uleb128 0x44
 2712 032c 00       		.byte	0
 2713 032d 07       		.uleb128 0x7
 2714 032e 08       		.byte	0x8
 2715 032f 04       		.byte	0x4
 2716 0330 5A       		.byte	0x5a
 2717 0331 55030000 		.long	0x355
 2718 0335 05       		.uleb128 0x5
 2719 0336 14000000 		.secrel32	LASF0
 2720 033a 04       		.byte	0x4
 2721 033b 5B       		.byte	0x5b
 2722 033c 55030000 		.long	0x355
 2723 0340 02       		.byte	0x2
 2724 0341 23       		.byte	0x23
 2725 0342 00       		.uleb128 0
 2726 0343 06       		.uleb128 0x6
 2727 0344 705F7072 		.ascii "p_prev\0"
 2727      657600
 2728 034b 04       		.byte	0x4
 2729 034c 5D       		.byte	0x5d
 2730 034d 55030000 		.long	0x355
 2731 0351 02       		.byte	0x2
 2732 0352 23       		.byte	0x23
 2733 0353 04       		.uleb128 0x4
 2734 0354 00       		.byte	0
 2735 0355 08       		.uleb128 0x8
 2736 0356 04       		.byte	0x4
 2737 0357 A9010000 		.long	0x1a9
 2738 035b 03       		.uleb128 0x3
 2739 035c 54687265 		.ascii "ThreadsQueue\0"
 2739      61647351 
 2739      75657565 
 2739      00
 2740 0369 04       		.byte	0x4
 2741 036a 5F       		.byte	0x5f
 2742 036b 2D030000 		.long	0x32d
 2743 036f 07       		.uleb128 0x7
 2744 0370 04       		.byte	0x4
 2745 0371 04       		.byte	0x4
 2746 0372 64       		.byte	0x64
 2747 0373 86030000 		.long	0x386
 2748 0377 05       		.uleb128 0x5
 2749 0378 14000000 		.secrel32	LASF0
 2750 037c 04       		.byte	0x4
 2751 037d 66       		.byte	0x66
 2752 037e 55030000 		.long	0x355
 2753 0382 02       		.byte	0x2
 2754 0383 23       		.byte	0x23
 2755 0384 00       		.uleb128 0
GAS LISTING C:\cygwin\tmp\ccgmAwz3.s 			page 69


 2756 0385 00       		.byte	0
 2757 0386 03       		.uleb128 0x3
 2758 0387 54687265 		.ascii "ThreadsList\0"
 2758      6164734C 
 2758      69737400 
 2759 0393 04       		.byte	0x4
 2760 0394 69       		.byte	0x69
 2761 0395 6F030000 		.long	0x36f
 2762 0399 07       		.uleb128 0x7
 2763 039a 10       		.byte	0x10
 2764 039b 06       		.byte	0x6
 2765 039c 3D       		.byte	0x3d
 2766 039d AE030000 		.long	0x3ae
 2767 03a1 06       		.uleb128 0x6
 2768 03a2 6100     		.ascii "a\0"
 2769 03a4 06       		.byte	0x6
 2770 03a5 3E       		.byte	0x3e
 2771 03a6 AE030000 		.long	0x3ae
 2772 03aa 02       		.byte	0x2
 2773 03ab 23       		.byte	0x23
 2774 03ac 00       		.uleb128 0
 2775 03ad 00       		.byte	0
 2776 03ae 09       		.uleb128 0x9
 2777 03af 9D000000 		.long	0x9d
 2778 03b3 BE030000 		.long	0x3be
 2779 03b7 0A       		.uleb128 0xa
 2780 03b8 68000000 		.long	0x68
 2781 03bc 0F       		.byte	0xf
 2782 03bd 00       		.byte	0
 2783 03be 03       		.uleb128 0x3
 2784 03bf 73746B61 		.ascii "stkalign_t\0"
 2784      6C69676E 
 2784      5F7400
 2785 03ca 06       		.byte	0x6
 2786 03cb 3F       		.byte	0x3f
 2787 03cc 99030000 		.long	0x399
 2788 03d0 03       		.uleb128 0x3
 2789 03d1 72656778 		.ascii "regx86\0"
 2789      383600
 2790 03d8 06       		.byte	0x6
 2791 03d9 44       		.byte	0x44
 2792 03da DE030000 		.long	0x3de
 2793 03de 0B       		.uleb128 0xb
 2794 03df 04       		.byte	0x4
 2795 03e0 04       		.uleb128 0x4
 2796 03e1 696E7463 		.ascii "intctx\0"
 2796      747800
 2797 03e8 14       		.byte	0x14
 2798 03e9 06       		.byte	0x6
 2799 03ea 52       		.byte	0x52
 2800 03eb 36040000 		.long	0x436
 2801 03ef 06       		.uleb128 0x6
 2802 03f0 65627800 		.ascii "ebx\0"
 2803 03f4 06       		.byte	0x6
 2804 03f5 53       		.byte	0x53
 2805 03f6 D0030000 		.long	0x3d0
 2806 03fa 02       		.byte	0x2
GAS LISTING C:\cygwin\tmp\ccgmAwz3.s 			page 70


 2807 03fb 23       		.byte	0x23
 2808 03fc 00       		.uleb128 0
 2809 03fd 06       		.uleb128 0x6
 2810 03fe 65646900 		.ascii "edi\0"
 2811 0402 06       		.byte	0x6
 2812 0403 54       		.byte	0x54
 2813 0404 D0030000 		.long	0x3d0
 2814 0408 02       		.byte	0x2
 2815 0409 23       		.byte	0x23
 2816 040a 04       		.uleb128 0x4
 2817 040b 06       		.uleb128 0x6
 2818 040c 65736900 		.ascii "esi\0"
 2819 0410 06       		.byte	0x6
 2820 0411 55       		.byte	0x55
 2821 0412 D0030000 		.long	0x3d0
 2822 0416 02       		.byte	0x2
 2823 0417 23       		.byte	0x23
 2824 0418 08       		.uleb128 0x8
 2825 0419 06       		.uleb128 0x6
 2826 041a 65627000 		.ascii "ebp\0"
 2827 041e 06       		.byte	0x6
 2828 041f 56       		.byte	0x56
 2829 0420 D0030000 		.long	0x3d0
 2830 0424 02       		.byte	0x2
 2831 0425 23       		.byte	0x23
 2832 0426 0C       		.uleb128 0xc
 2833 0427 06       		.uleb128 0x6
 2834 0428 65697000 		.ascii "eip\0"
 2835 042c 06       		.byte	0x6
 2836 042d 57       		.byte	0x57
 2837 042e D0030000 		.long	0x3d0
 2838 0432 02       		.byte	0x2
 2839 0433 23       		.byte	0x23
 2840 0434 10       		.uleb128 0x10
 2841 0435 00       		.byte	0
 2842 0436 04       		.uleb128 0x4
 2843 0437 636F6E74 		.ascii "context\0"
 2843      65787400 
 2844 043f 04       		.byte	0x4
 2845 0440 06       		.byte	0x6
 2846 0441 5F       		.byte	0x5f
 2847 0442 55040000 		.long	0x455
 2848 0446 06       		.uleb128 0x6
 2849 0447 65737000 		.ascii "esp\0"
 2850 044b 06       		.byte	0x6
 2851 044c 60       		.byte	0x60
 2852 044d 55040000 		.long	0x455
 2853 0451 02       		.byte	0x2
 2854 0452 23       		.byte	0x23
 2855 0453 00       		.uleb128 0
 2856 0454 00       		.byte	0
 2857 0455 08       		.uleb128 0x8
 2858 0456 04       		.byte	0x4
 2859 0457 5B040000 		.long	0x45b
 2860 045b 0C       		.uleb128 0xc
 2861 045c E0030000 		.long	0x3e0
 2862 0460 0C       		.uleb128 0xc
GAS LISTING C:\cygwin\tmp\ccgmAwz3.s 			page 71


 2863 0461 8B010000 		.long	0x18b
 2864 0465 0D       		.uleb128 0xd
 2865 0466 00000000 		.secrel32	LASF1
 2866 046a 0C       		.byte	0xc
 2867 046b 07       		.byte	0x7
 2868 046c 25       		.byte	0x25
 2869 046d 94040000 		.long	0x494
 2870 0471 06       		.uleb128 0x6
 2871 0472 735F7175 		.ascii "s_queue\0"
 2871      65756500 
 2872 047a 07       		.byte	0x7
 2873 047b 26       		.byte	0x26
 2874 047c 5B030000 		.long	0x35b
 2875 0480 02       		.byte	0x2
 2876 0481 23       		.byte	0x23
 2877 0482 00       		.uleb128 0
 2878 0483 06       		.uleb128 0x6
 2879 0484 735F636E 		.ascii "s_cnt\0"
 2879      7400
 2880 048a 07       		.byte	0x7
 2881 048b 28       		.byte	0x28
 2882 048c 9C010000 		.long	0x19c
 2883 0490 02       		.byte	0x2
 2884 0491 23       		.byte	0x23
 2885 0492 08       		.uleb128 0x8
 2886 0493 00       		.byte	0
 2887 0494 0E       		.uleb128 0xe
 2888 0495 00000000 		.secrel32	LASF1
 2889 0499 07       		.byte	0x7
 2890 049a 29       		.byte	0x29
 2891 049b 65040000 		.long	0x465
 2892 049f 04       		.uleb128 0x4
 2893 04a0 4D757465 		.ascii "Mutex\0"
 2893      7800
 2894 04a6 10       		.byte	0x10
 2895 04a7 08       		.byte	0x8
 2896 04a8 25       		.byte	0x25
 2897 04a9 E3040000 		.long	0x4e3
 2898 04ad 06       		.uleb128 0x6
 2899 04ae 6D5F7175 		.ascii "m_queue\0"
 2899      65756500 
 2900 04b6 08       		.byte	0x8
 2901 04b7 26       		.byte	0x26
 2902 04b8 5B030000 		.long	0x35b
 2903 04bc 02       		.byte	0x2
 2904 04bd 23       		.byte	0x23
 2905 04be 00       		.uleb128 0
 2906 04bf 06       		.uleb128 0x6
 2907 04c0 6D5F6F77 		.ascii "m_owner\0"
 2907      6E657200 
 2908 04c8 08       		.byte	0x8
 2909 04c9 28       		.byte	0x28
 2910 04ca 55030000 		.long	0x355
 2911 04ce 02       		.byte	0x2
 2912 04cf 23       		.byte	0x23
 2913 04d0 08       		.uleb128 0x8
 2914 04d1 06       		.uleb128 0x6
GAS LISTING C:\cygwin\tmp\ccgmAwz3.s 			page 72


 2915 04d2 6D5F6E65 		.ascii "m_next\0"
 2915      787400
 2916 04d9 08       		.byte	0x8
 2917 04da 2A       		.byte	0x2a
 2918 04db E3040000 		.long	0x4e3
 2919 04df 02       		.byte	0x2
 2920 04e0 23       		.byte	0x23
 2921 04e1 0C       		.uleb128 0xc
 2922 04e2 00       		.byte	0
 2923 04e3 08       		.uleb128 0x8
 2924 04e4 04       		.byte	0x4
 2925 04e5 9F040000 		.long	0x49f
 2926 04e9 03       		.uleb128 0x3
 2927 04ea 4D757465 		.ascii "Mutex\0"
 2927      7800
 2928 04f0 08       		.byte	0x8
 2929 04f1 2C       		.byte	0x2c
 2930 04f2 9F040000 		.long	0x49f
 2931 04f6 07       		.uleb128 0x7
 2932 04f7 28       		.byte	0x28
 2933 04f8 09       		.byte	0x9
 2934 04f9 2C       		.byte	0x2c
 2935 04fa 75050000 		.long	0x575
 2936 04fe 06       		.uleb128 0x6
 2937 04ff 6D625F62 		.ascii "mb_buffer\0"
 2937      75666665 
 2937      7200
 2938 0509 09       		.byte	0x9
 2939 050a 2D       		.byte	0x2d
 2940 050b 75050000 		.long	0x575
 2941 050f 02       		.byte	0x2
 2942 0510 23       		.byte	0x23
 2943 0511 00       		.uleb128 0
 2944 0512 06       		.uleb128 0x6
 2945 0513 6D625F74 		.ascii "mb_top\0"
 2945      6F7000
 2946 051a 09       		.byte	0x9
 2947 051b 2F       		.byte	0x2f
 2948 051c 75050000 		.long	0x575
 2949 0520 02       		.byte	0x2
 2950 0521 23       		.byte	0x23
 2951 0522 04       		.uleb128 0x4
 2952 0523 06       		.uleb128 0x6
 2953 0524 6D625F77 		.ascii "mb_wrptr\0"
 2953      72707472 
 2953      00
 2954 052d 09       		.byte	0x9
 2955 052e 31       		.byte	0x31
 2956 052f 75050000 		.long	0x575
 2957 0533 02       		.byte	0x2
 2958 0534 23       		.byte	0x23
 2959 0535 08       		.uleb128 0x8
 2960 0536 06       		.uleb128 0x6
 2961 0537 6D625F72 		.ascii "mb_rdptr\0"
 2961      64707472 
 2961      00
 2962 0540 09       		.byte	0x9
GAS LISTING C:\cygwin\tmp\ccgmAwz3.s 			page 73


 2963 0541 32       		.byte	0x32
 2964 0542 75050000 		.long	0x575
 2965 0546 02       		.byte	0x2
 2966 0547 23       		.byte	0x23
 2967 0548 0C       		.uleb128 0xc
 2968 0549 06       		.uleb128 0x6
 2969 054a 6D625F66 		.ascii "mb_fullsem\0"
 2969      756C6C73 
 2969      656D00
 2970 0555 09       		.byte	0x9
 2971 0556 33       		.byte	0x33
 2972 0557 94040000 		.long	0x494
 2973 055b 02       		.byte	0x2
 2974 055c 23       		.byte	0x23
 2975 055d 10       		.uleb128 0x10
 2976 055e 06       		.uleb128 0x6
 2977 055f 6D625F65 		.ascii "mb_emptysem\0"
 2977      6D707479 
 2977      73656D00 
 2978 056b 09       		.byte	0x9
 2979 056c 35       		.byte	0x35
 2980 056d 94040000 		.long	0x494
 2981 0571 02       		.byte	0x2
 2982 0572 23       		.byte	0x23
 2983 0573 1C       		.uleb128 0x1c
 2984 0574 00       		.byte	0
 2985 0575 08       		.uleb128 0x8
 2986 0576 04       		.byte	0x4
 2987 0577 6B010000 		.long	0x16b
 2988 057b 03       		.uleb128 0x3
 2989 057c 4D61696C 		.ascii "Mailbox\0"
 2989      626F7800 
 2990 0584 09       		.byte	0x9
 2991 0585 37       		.byte	0x37
 2992 0586 F6040000 		.long	0x4f6
 2993 058a 0F       		.uleb128 0xf
 2994 058b 04       		.byte	0x4
 2995 058c 05       		.byte	0x5
 2996 058d 8F       		.byte	0x8f
 2997 058e CD050000 		.long	0x5cd
 2998 0592 10       		.uleb128 0x10
 2999 0593 7264796D 		.ascii "rdymsg\0"
 2999      736700
 3000 059a 05       		.byte	0x5
 3001 059b 96       		.byte	0x96
 3002 059c 6B010000 		.long	0x16b
 3003 05a0 10       		.uleb128 0x10
 3004 05a1 65786974 		.ascii "exitcode\0"
 3004      636F6465 
 3004      00
 3005 05aa 05       		.byte	0x5
 3006 05ab 9D       		.byte	0x9d
 3007 05ac 6B010000 		.long	0x16b
 3008 05b0 10       		.uleb128 0x10
 3009 05b1 77746F62 		.ascii "wtobjp\0"
 3009      6A7000
 3010 05b8 05       		.byte	0x5
GAS LISTING C:\cygwin\tmp\ccgmAwz3.s 			page 74


 3011 05b9 A4       		.byte	0xa4
 3012 05ba DE030000 		.long	0x3de
 3013 05be 10       		.uleb128 0x10
 3014 05bf 65776D61 		.ascii "ewmask\0"
 3014      736B00
 3015 05c6 05       		.byte	0x5
 3016 05c7 AB       		.byte	0xab
 3017 05c8 78010000 		.long	0x178
 3018 05cc 00       		.byte	0
 3019 05cd 08       		.uleb128 0x8
 3020 05ce 04       		.byte	0x4
 3021 05cf D3050000 		.long	0x5d3
 3022 05d3 11       		.uleb128 0x11
 3023 05d4 D8050000 		.long	0x5d8
 3024 05d8 02       		.uleb128 0x2
 3025 05d9 01       		.byte	0x1
 3026 05da 06       		.byte	0x6
 3027 05db 63686172 		.ascii "char\0"
 3027      00
 3028 05e0 08       		.uleb128 0x8
 3029 05e1 04       		.byte	0x4
 3030 05e2 E9040000 		.long	0x4e9
 3031 05e6 04       		.uleb128 0x4
 3032 05e7 74657374 		.ascii "testcase\0"
 3032      63617365 
 3032      00
 3033 05f0 10       		.byte	0x10
 3034 05f1 0A       		.byte	0xa
 3035 05f2 3F       		.byte	0x3f
 3036 05f3 3C060000 		.long	0x63c
 3037 05f7 06       		.uleb128 0x6
 3038 05f8 6E616D65 		.ascii "name\0"
 3038      00
 3039 05fd 0A       		.byte	0xa
 3040 05fe 40       		.byte	0x40
 3041 05ff CD050000 		.long	0x5cd
 3042 0603 02       		.byte	0x2
 3043 0604 23       		.byte	0x23
 3044 0605 00       		.uleb128 0
 3045 0606 06       		.uleb128 0x6
 3046 0607 73657475 		.ascii "setup\0"
 3046      7000
 3047 060d 0A       		.byte	0xa
 3048 060e 41       		.byte	0x41
 3049 060f 3E060000 		.long	0x63e
 3050 0613 02       		.byte	0x2
 3051 0614 23       		.byte	0x23
 3052 0615 04       		.uleb128 0x4
 3053 0616 06       		.uleb128 0x6
 3054 0617 74656172 		.ascii "teardown\0"
 3054      646F776E 
 3054      00
 3055 0620 0A       		.byte	0xa
 3056 0621 42       		.byte	0x42
 3057 0622 3E060000 		.long	0x63e
 3058 0626 02       		.byte	0x2
 3059 0627 23       		.byte	0x23
GAS LISTING C:\cygwin\tmp\ccgmAwz3.s 			page 75


 3060 0628 08       		.uleb128 0x8
 3061 0629 06       		.uleb128 0x6
 3062 062a 65786563 		.ascii "execute\0"
 3062      75746500 
 3063 0632 0A       		.byte	0xa
 3064 0633 43       		.byte	0x43
 3065 0634 3E060000 		.long	0x63e
 3066 0638 02       		.byte	0x2
 3067 0639 23       		.byte	0x23
 3068 063a 0C       		.uleb128 0xc
 3069 063b 00       		.byte	0
 3070 063c 12       		.uleb128 0x12
 3071 063d 01       		.byte	0x1
 3072 063e 08       		.uleb128 0x8
 3073 063f 04       		.byte	0x4
 3074 0640 3C060000 		.long	0x63c
 3075 0644 13       		.uleb128 0x13
 3076 0645 304C0100 		.long	0x14c30
 3077 0649 0A       		.byte	0xa
 3078 064a 48       		.byte	0x48
 3079 064b 99060000 		.long	0x699
 3080 064f 06       		.uleb128 0x6
 3081 0650 543000   		.ascii "T0\0"
 3082 0653 0A       		.byte	0xa
 3083 0654 49       		.byte	0x49
 3084 0655 99060000 		.long	0x699
 3085 0659 02       		.byte	0x2
 3086 065a 23       		.byte	0x23
 3087 065b 00       		.uleb128 0
 3088 065c 06       		.uleb128 0x6
 3089 065d 543100   		.ascii "T1\0"
 3090 0660 0A       		.byte	0xa
 3091 0661 4A       		.byte	0x4a
 3092 0662 99060000 		.long	0x699
 3093 0666 04       		.byte	0x4
 3094 0667 23       		.byte	0x23
 3095 0668 F08401   		.uleb128 0x4270
 3096 066b 06       		.uleb128 0x6
 3097 066c 543200   		.ascii "T2\0"
 3098 066f 0A       		.byte	0xa
 3099 0670 4B       		.byte	0x4b
 3100 0671 99060000 		.long	0x699
 3101 0675 04       		.byte	0x4
 3102 0676 23       		.byte	0x23
 3103 0677 E08902   		.uleb128 0x84e0
 3104 067a 06       		.uleb128 0x6
 3105 067b 543300   		.ascii "T3\0"
 3106 067e 0A       		.byte	0xa
 3107 067f 4C       		.byte	0x4c
 3108 0680 99060000 		.long	0x699
 3109 0684 04       		.byte	0x4
 3110 0685 23       		.byte	0x23
 3111 0686 D08E03   		.uleb128 0xc750
 3112 0689 06       		.uleb128 0x6
 3113 068a 543400   		.ascii "T4\0"
 3114 068d 0A       		.byte	0xa
 3115 068e 4D       		.byte	0x4d
GAS LISTING C:\cygwin\tmp\ccgmAwz3.s 			page 76


 3116 068f 99060000 		.long	0x699
 3117 0693 04       		.byte	0x4
 3118 0694 23       		.byte	0x23
 3119 0695 C09304   		.uleb128 0x109c0
 3120 0698 00       		.byte	0
 3121 0699 09       		.uleb128 0x9
 3122 069a BE030000 		.long	0x3be
 3123 069e AA060000 		.long	0x6aa
 3124 06a2 14       		.uleb128 0x14
 3125 06a3 68000000 		.long	0x68
 3126 06a7 2604     		.word	0x426
 3127 06a9 00       		.byte	0
 3128 06aa 15       		.uleb128 0x15
 3129 06ab 74657374 		.ascii "test_buffers\0"
 3129      5F627566 
 3129      66657273 
 3129      00
 3130 06b8 304C0100 		.long	0x14c30
 3131 06bc 0A       		.byte	0xa
 3132 06bd 47       		.byte	0x47
 3133 06be DB060000 		.long	0x6db
 3134 06c2 10       		.uleb128 0x10
 3135 06c3 776100   		.ascii "wa\0"
 3136 06c6 0A       		.byte	0xa
 3137 06c7 4E       		.byte	0x4e
 3138 06c8 44060000 		.long	0x644
 3139 06cc 10       		.uleb128 0x10
 3140 06cd 62756666 		.ascii "buffer\0"
 3140      657200
 3141 06d4 0A       		.byte	0xa
 3142 06d5 4F       		.byte	0x4f
 3143 06d6 DB060000 		.long	0x6db
 3144 06da 00       		.byte	0
 3145 06db 09       		.uleb128 0x9
 3146 06dc 9D000000 		.long	0x9d
 3147 06e0 EE060000 		.long	0x6ee
 3148 06e4 16       		.uleb128 0x16
 3149 06e5 68000000 		.long	0x68
 3150 06e9 2F4C0100 		.long	0x14c2f
 3151 06ed 00       		.byte	0
 3152 06ee 17       		.uleb128 0x17
 3153 06ef 6D626F78 		.ascii "mbox1_setup\0"
 3153      315F7365 
 3153      74757000 
 3154 06fb 01       		.byte	0x1
 3155 06fc 4B       		.byte	0x4b
 3156 06fd 01       		.byte	0x1
 3157 06fe 00000000 		.long	LFB0
 3158 0702 5B000000 		.long	LFE0
 3159 0706 00000000 		.secrel32	LLST0
 3160 070a 18       		.uleb128 0x18
 3161 070b 6D626F78 		.ascii "mbox1_execute\0"
 3161      315F6578 
 3161      65637574 
 3161      6500
 3162 0719 01       		.byte	0x1
 3163 071a 50       		.byte	0x50
GAS LISTING C:\cygwin\tmp\ccgmAwz3.s 			page 77


 3164 071b 01       		.byte	0x1
 3165 071c 5B000000 		.long	LFB1
 3166 0720 891E0000 		.long	LFE1
 3167 0724 2C000000 		.secrel32	LLST1
 3168 0728 57070000 		.long	0x757
 3169 072c 19       		.uleb128 0x19
 3170 072d 6D736731 		.ascii "msg1\0"
 3170      00
 3171 0732 01       		.byte	0x1
 3172 0733 51       		.byte	0x51
 3173 0734 6B010000 		.long	0x16b
 3174 0738 02       		.byte	0x2
 3175 0739 91       		.byte	0x91
 3176 073a 68       		.sleb128 -24
 3177 073b 19       		.uleb128 0x19
 3178 073c 6D736732 		.ascii "msg2\0"
 3178      00
 3179 0741 01       		.byte	0x1
 3180 0742 51       		.byte	0x51
 3181 0743 6B010000 		.long	0x16b
 3182 0747 02       		.byte	0x2
 3183 0748 91       		.byte	0x91
 3184 0749 64       		.sleb128 -28
 3185 074a 19       		.uleb128 0x19
 3186 074b 6900     		.ascii "i\0"
 3187 074d 01       		.byte	0x1
 3188 074e 52       		.byte	0x52
 3189 074f 68000000 		.long	0x68
 3190 0753 02       		.byte	0x2
 3191 0754 91       		.byte	0x91
 3192 0755 6C       		.sleb128 -20
 3193 0756 00       		.byte	0
 3194 0757 1A       		.uleb128 0x1a
 3195 0758 5F474C4F 		.ascii "_GLOBAL__sub_I_65535_0_testmbox1\0"
 3195      42414C5F 
 3195      5F737562 
 3195      5F495F36 
 3195      35353335 
 3196 0779 01       		.byte	0x1
 3197 077a 01       		.byte	0x1
 3198 077b 891E0000 		.long	LFB2
 3199 077f 9C1E0000 		.long	LFE2
 3200 0783 58000000 		.secrel32	LLST2
 3201 0787 1B       		.uleb128 0x1b
 3202 0788 74657374 		.ascii "test\0"
 3202      00
 3203 078d 0A       		.byte	0xa
 3204 078e AA       		.byte	0xaa
 3205 078f AA060000 		.long	0x6aa
 3206 0793 01       		.byte	0x1
 3207 0794 01       		.byte	0x1
 3208 0795 19       		.uleb128 0x19
 3209 0796 6D623100 		.ascii "mb1\0"
 3210 079a 01       		.byte	0x1
 3211 079b 40       		.byte	0x40
 3212 079c 7B050000 		.long	0x57b
 3213 07a0 05       		.byte	0x5
GAS LISTING C:\cygwin\tmp\ccgmAwz3.s 			page 78


 3214 07a1 03       		.byte	0x3
 3215 07a2 00000000 		.long	_mb1
 3216 07a6 1C       		.uleb128 0x1c
 3217 07a7 0A000000 		.secrel32	LASF2
 3218 07ab 01       		.byte	0x1
 3219 07ac E2       		.byte	0xe2
 3220 07ad B3070000 		.long	0x7b3
 3221 07b1 01       		.byte	0x1
 3222 07b2 01       		.byte	0x1
 3223 07b3 11       		.uleb128 0x11
 3224 07b4 E6050000 		.long	0x5e6
 3225 07b8 1B       		.uleb128 0x1b
 3226 07b9 74657374 		.ascii "test\0"
 3226      00
 3227 07be 0A       		.byte	0xa
 3228 07bf AA       		.byte	0xaa
 3229 07c0 AA060000 		.long	0x6aa
 3230 07c4 01       		.byte	0x1
 3231 07c5 01       		.byte	0x1
 3232 07c6 1D       		.uleb128 0x1d
 3233 07c7 0A000000 		.secrel32	LASF2
 3234 07cb 01       		.byte	0x1
 3235 07cc E2       		.byte	0xe2
 3236 07cd B3070000 		.long	0x7b3
 3237 07d1 01       		.byte	0x1
 3238 07d2 05       		.byte	0x5
 3239 07d3 03       		.byte	0x3
 3240 07d4 28000000 		.long	_testmbox1
 3241 07d8 09       		.uleb128 0x9
 3242 07d9 E8070000 		.long	0x7e8
 3243 07dd E8070000 		.long	0x7e8
 3244 07e1 0A       		.uleb128 0xa
 3245 07e2 68000000 		.long	0x68
 3246 07e6 01       		.byte	0x1
 3247 07e7 00       		.byte	0
 3248 07e8 08       		.uleb128 0x8
 3249 07e9 04       		.byte	0x4
 3250 07ea B3070000 		.long	0x7b3
 3251 07ee 1E       		.uleb128 0x1e
 3252 07ef 70617474 		.ascii "patternmbox\0"
 3252      65726E6D 
 3252      626F7800 
 3253 07fb 01       		.byte	0x1
 3254 07fc EE       		.byte	0xee
 3255 07fd 08080000 		.long	0x808
 3256 0801 01       		.byte	0x1
 3257 0802 05       		.byte	0x5
 3258 0803 03       		.byte	0x3
 3259 0804 38000000 		.long	_patternmbox
 3260 0808 11       		.uleb128 0x11
 3261 0809 D8070000 		.long	0x7d8
 3262 080d 00       		.byte	0
 3263              		.section	.debug_abbrev,"dr"
 3264              	Ldebug_abbrev0:
 3265 0000 01       		.uleb128 0x1
 3266 0001 11       		.uleb128 0x11
 3267 0002 01       		.byte	0x1
GAS LISTING C:\cygwin\tmp\ccgmAwz3.s 			page 79


 3268 0003 25       		.uleb128 0x25
 3269 0004 08       		.uleb128 0x8
 3270 0005 13       		.uleb128 0x13
 3271 0006 0B       		.uleb128 0xb
 3272 0007 03       		.uleb128 0x3
 3273 0008 08       		.uleb128 0x8
 3274 0009 1B       		.uleb128 0x1b
 3275 000a 08       		.uleb128 0x8
 3276 000b 11       		.uleb128 0x11
 3277 000c 01       		.uleb128 0x1
 3278 000d 12       		.uleb128 0x12
 3279 000e 01       		.uleb128 0x1
 3280 000f 10       		.uleb128 0x10
 3281 0010 06       		.uleb128 0x6
 3282 0011 00       		.byte	0
 3283 0012 00       		.byte	0
 3284 0013 02       		.uleb128 0x2
 3285 0014 24       		.uleb128 0x24
 3286 0015 00       		.byte	0
 3287 0016 0B       		.uleb128 0xb
 3288 0017 0B       		.uleb128 0xb
 3289 0018 3E       		.uleb128 0x3e
 3290 0019 0B       		.uleb128 0xb
 3291 001a 03       		.uleb128 0x3
 3292 001b 08       		.uleb128 0x8
 3293 001c 00       		.byte	0
 3294 001d 00       		.byte	0
 3295 001e 03       		.uleb128 0x3
 3296 001f 16       		.uleb128 0x16
 3297 0020 00       		.byte	0
 3298 0021 03       		.uleb128 0x3
 3299 0022 08       		.uleb128 0x8
 3300 0023 3A       		.uleb128 0x3a
 3301 0024 0B       		.uleb128 0xb
 3302 0025 3B       		.uleb128 0x3b
 3303 0026 0B       		.uleb128 0xb
 3304 0027 49       		.uleb128 0x49
 3305 0028 13       		.uleb128 0x13
 3306 0029 00       		.byte	0
 3307 002a 00       		.byte	0
 3308 002b 04       		.uleb128 0x4
 3309 002c 13       		.uleb128 0x13
 3310 002d 01       		.byte	0x1
 3311 002e 03       		.uleb128 0x3
 3312 002f 08       		.uleb128 0x8
 3313 0030 0B       		.uleb128 0xb
 3314 0031 0B       		.uleb128 0xb
 3315 0032 3A       		.uleb128 0x3a
 3316 0033 0B       		.uleb128 0xb
 3317 0034 3B       		.uleb128 0x3b
 3318 0035 0B       		.uleb128 0xb
 3319 0036 01       		.uleb128 0x1
 3320 0037 13       		.uleb128 0x13
 3321 0038 00       		.byte	0
 3322 0039 00       		.byte	0
 3323 003a 05       		.uleb128 0x5
 3324 003b 0D       		.uleb128 0xd
GAS LISTING C:\cygwin\tmp\ccgmAwz3.s 			page 80


 3325 003c 00       		.byte	0
 3326 003d 03       		.uleb128 0x3
 3327 003e 0E       		.uleb128 0xe
 3328 003f 3A       		.uleb128 0x3a
 3329 0040 0B       		.uleb128 0xb
 3330 0041 3B       		.uleb128 0x3b
 3331 0042 0B       		.uleb128 0xb
 3332 0043 49       		.uleb128 0x49
 3333 0044 13       		.uleb128 0x13
 3334 0045 38       		.uleb128 0x38
 3335 0046 0A       		.uleb128 0xa
 3336 0047 00       		.byte	0
 3337 0048 00       		.byte	0
 3338 0049 06       		.uleb128 0x6
 3339 004a 0D       		.uleb128 0xd
 3340 004b 00       		.byte	0
 3341 004c 03       		.uleb128 0x3
 3342 004d 08       		.uleb128 0x8
 3343 004e 3A       		.uleb128 0x3a
 3344 004f 0B       		.uleb128 0xb
 3345 0050 3B       		.uleb128 0x3b
 3346 0051 0B       		.uleb128 0xb
 3347 0052 49       		.uleb128 0x49
 3348 0053 13       		.uleb128 0x13
 3349 0054 38       		.uleb128 0x38
 3350 0055 0A       		.uleb128 0xa
 3351 0056 00       		.byte	0
 3352 0057 00       		.byte	0
 3353 0058 07       		.uleb128 0x7
 3354 0059 13       		.uleb128 0x13
 3355 005a 01       		.byte	0x1
 3356 005b 0B       		.uleb128 0xb
 3357 005c 0B       		.uleb128 0xb
 3358 005d 3A       		.uleb128 0x3a
 3359 005e 0B       		.uleb128 0xb
 3360 005f 3B       		.uleb128 0x3b
 3361 0060 0B       		.uleb128 0xb
 3362 0061 01       		.uleb128 0x1
 3363 0062 13       		.uleb128 0x13
 3364 0063 00       		.byte	0
 3365 0064 00       		.byte	0
 3366 0065 08       		.uleb128 0x8
 3367 0066 0F       		.uleb128 0xf
 3368 0067 00       		.byte	0
 3369 0068 0B       		.uleb128 0xb
 3370 0069 0B       		.uleb128 0xb
 3371 006a 49       		.uleb128 0x49
 3372 006b 13       		.uleb128 0x13
 3373 006c 00       		.byte	0
 3374 006d 00       		.byte	0
 3375 006e 09       		.uleb128 0x9
 3376 006f 01       		.uleb128 0x1
 3377 0070 01       		.byte	0x1
 3378 0071 49       		.uleb128 0x49
 3379 0072 13       		.uleb128 0x13
 3380 0073 01       		.uleb128 0x1
 3381 0074 13       		.uleb128 0x13
GAS LISTING C:\cygwin\tmp\ccgmAwz3.s 			page 81


 3382 0075 00       		.byte	0
 3383 0076 00       		.byte	0
 3384 0077 0A       		.uleb128 0xa
 3385 0078 21       		.uleb128 0x21
 3386 0079 00       		.byte	0
 3387 007a 49       		.uleb128 0x49
 3388 007b 13       		.uleb128 0x13
 3389 007c 2F       		.uleb128 0x2f
 3390 007d 0B       		.uleb128 0xb
 3391 007e 00       		.byte	0
 3392 007f 00       		.byte	0
 3393 0080 0B       		.uleb128 0xb
 3394 0081 0F       		.uleb128 0xf
 3395 0082 00       		.byte	0
 3396 0083 0B       		.uleb128 0xb
 3397 0084 0B       		.uleb128 0xb
 3398 0085 00       		.byte	0
 3399 0086 00       		.byte	0
 3400 0087 0C       		.uleb128 0xc
 3401 0088 35       		.uleb128 0x35
 3402 0089 00       		.byte	0
 3403 008a 49       		.uleb128 0x49
 3404 008b 13       		.uleb128 0x13
 3405 008c 00       		.byte	0
 3406 008d 00       		.byte	0
 3407 008e 0D       		.uleb128 0xd
 3408 008f 13       		.uleb128 0x13
 3409 0090 01       		.byte	0x1
 3410 0091 03       		.uleb128 0x3
 3411 0092 0E       		.uleb128 0xe
 3412 0093 0B       		.uleb128 0xb
 3413 0094 0B       		.uleb128 0xb
 3414 0095 3A       		.uleb128 0x3a
 3415 0096 0B       		.uleb128 0xb
 3416 0097 3B       		.uleb128 0x3b
 3417 0098 0B       		.uleb128 0xb
 3418 0099 01       		.uleb128 0x1
 3419 009a 13       		.uleb128 0x13
 3420 009b 00       		.byte	0
 3421 009c 00       		.byte	0
 3422 009d 0E       		.uleb128 0xe
 3423 009e 16       		.uleb128 0x16
 3424 009f 00       		.byte	0
 3425 00a0 03       		.uleb128 0x3
 3426 00a1 0E       		.uleb128 0xe
 3427 00a2 3A       		.uleb128 0x3a
 3428 00a3 0B       		.uleb128 0xb
 3429 00a4 3B       		.uleb128 0x3b
 3430 00a5 0B       		.uleb128 0xb
 3431 00a6 49       		.uleb128 0x49
 3432 00a7 13       		.uleb128 0x13
 3433 00a8 00       		.byte	0
 3434 00a9 00       		.byte	0
 3435 00aa 0F       		.uleb128 0xf
 3436 00ab 17       		.uleb128 0x17
 3437 00ac 01       		.byte	0x1
 3438 00ad 0B       		.uleb128 0xb
GAS LISTING C:\cygwin\tmp\ccgmAwz3.s 			page 82


 3439 00ae 0B       		.uleb128 0xb
 3440 00af 3A       		.uleb128 0x3a
 3441 00b0 0B       		.uleb128 0xb
 3442 00b1 3B       		.uleb128 0x3b
 3443 00b2 0B       		.uleb128 0xb
 3444 00b3 01       		.uleb128 0x1
 3445 00b4 13       		.uleb128 0x13
 3446 00b5 00       		.byte	0
 3447 00b6 00       		.byte	0
 3448 00b7 10       		.uleb128 0x10
 3449 00b8 0D       		.uleb128 0xd
 3450 00b9 00       		.byte	0
 3451 00ba 03       		.uleb128 0x3
 3452 00bb 08       		.uleb128 0x8
 3453 00bc 3A       		.uleb128 0x3a
 3454 00bd 0B       		.uleb128 0xb
 3455 00be 3B       		.uleb128 0x3b
 3456 00bf 0B       		.uleb128 0xb
 3457 00c0 49       		.uleb128 0x49
 3458 00c1 13       		.uleb128 0x13
 3459 00c2 00       		.byte	0
 3460 00c3 00       		.byte	0
 3461 00c4 11       		.uleb128 0x11
 3462 00c5 26       		.uleb128 0x26
 3463 00c6 00       		.byte	0
 3464 00c7 49       		.uleb128 0x49
 3465 00c8 13       		.uleb128 0x13
 3466 00c9 00       		.byte	0
 3467 00ca 00       		.byte	0
 3468 00cb 12       		.uleb128 0x12
 3469 00cc 15       		.uleb128 0x15
 3470 00cd 00       		.byte	0
 3471 00ce 27       		.uleb128 0x27
 3472 00cf 0C       		.uleb128 0xc
 3473 00d0 00       		.byte	0
 3474 00d1 00       		.byte	0
 3475 00d2 13       		.uleb128 0x13
 3476 00d3 13       		.uleb128 0x13
 3477 00d4 01       		.byte	0x1
 3478 00d5 0B       		.uleb128 0xb
 3479 00d6 06       		.uleb128 0x6
 3480 00d7 3A       		.uleb128 0x3a
 3481 00d8 0B       		.uleb128 0xb
 3482 00d9 3B       		.uleb128 0x3b
 3483 00da 0B       		.uleb128 0xb
 3484 00db 01       		.uleb128 0x1
 3485 00dc 13       		.uleb128 0x13
 3486 00dd 00       		.byte	0
 3487 00de 00       		.byte	0
 3488 00df 14       		.uleb128 0x14
 3489 00e0 21       		.uleb128 0x21
 3490 00e1 00       		.byte	0
 3491 00e2 49       		.uleb128 0x49
 3492 00e3 13       		.uleb128 0x13
 3493 00e4 2F       		.uleb128 0x2f
 3494 00e5 05       		.uleb128 0x5
 3495 00e6 00       		.byte	0
GAS LISTING C:\cygwin\tmp\ccgmAwz3.s 			page 83


 3496 00e7 00       		.byte	0
 3497 00e8 15       		.uleb128 0x15
 3498 00e9 17       		.uleb128 0x17
 3499 00ea 01       		.byte	0x1
 3500 00eb 03       		.uleb128 0x3
 3501 00ec 08       		.uleb128 0x8
 3502 00ed 0B       		.uleb128 0xb
 3503 00ee 06       		.uleb128 0x6
 3504 00ef 3A       		.uleb128 0x3a
 3505 00f0 0B       		.uleb128 0xb
 3506 00f1 3B       		.uleb128 0x3b
 3507 00f2 0B       		.uleb128 0xb
 3508 00f3 01       		.uleb128 0x1
 3509 00f4 13       		.uleb128 0x13
 3510 00f5 00       		.byte	0
 3511 00f6 00       		.byte	0
 3512 00f7 16       		.uleb128 0x16
 3513 00f8 21       		.uleb128 0x21
 3514 00f9 00       		.byte	0
 3515 00fa 49       		.uleb128 0x49
 3516 00fb 13       		.uleb128 0x13
 3517 00fc 2F       		.uleb128 0x2f
 3518 00fd 06       		.uleb128 0x6
 3519 00fe 00       		.byte	0
 3520 00ff 00       		.byte	0
 3521 0100 17       		.uleb128 0x17
 3522 0101 2E       		.uleb128 0x2e
 3523 0102 00       		.byte	0
 3524 0103 03       		.uleb128 0x3
 3525 0104 08       		.uleb128 0x8
 3526 0105 3A       		.uleb128 0x3a
 3527 0106 0B       		.uleb128 0xb
 3528 0107 3B       		.uleb128 0x3b
 3529 0108 0B       		.uleb128 0xb
 3530 0109 27       		.uleb128 0x27
 3531 010a 0C       		.uleb128 0xc
 3532 010b 11       		.uleb128 0x11
 3533 010c 01       		.uleb128 0x1
 3534 010d 12       		.uleb128 0x12
 3535 010e 01       		.uleb128 0x1
 3536 010f 40       		.uleb128 0x40
 3537 0110 06       		.uleb128 0x6
 3538 0111 00       		.byte	0
 3539 0112 00       		.byte	0
 3540 0113 18       		.uleb128 0x18
 3541 0114 2E       		.uleb128 0x2e
 3542 0115 01       		.byte	0x1
 3543 0116 03       		.uleb128 0x3
 3544 0117 08       		.uleb128 0x8
 3545 0118 3A       		.uleb128 0x3a
 3546 0119 0B       		.uleb128 0xb
 3547 011a 3B       		.uleb128 0x3b
 3548 011b 0B       		.uleb128 0xb
 3549 011c 27       		.uleb128 0x27
 3550 011d 0C       		.uleb128 0xc
 3551 011e 11       		.uleb128 0x11
 3552 011f 01       		.uleb128 0x1
GAS LISTING C:\cygwin\tmp\ccgmAwz3.s 			page 84


 3553 0120 12       		.uleb128 0x12
 3554 0121 01       		.uleb128 0x1
 3555 0122 40       		.uleb128 0x40
 3556 0123 06       		.uleb128 0x6
 3557 0124 01       		.uleb128 0x1
 3558 0125 13       		.uleb128 0x13
 3559 0126 00       		.byte	0
 3560 0127 00       		.byte	0
 3561 0128 19       		.uleb128 0x19
 3562 0129 34       		.uleb128 0x34
 3563 012a 00       		.byte	0
 3564 012b 03       		.uleb128 0x3
 3565 012c 08       		.uleb128 0x8
 3566 012d 3A       		.uleb128 0x3a
 3567 012e 0B       		.uleb128 0xb
 3568 012f 3B       		.uleb128 0x3b
 3569 0130 0B       		.uleb128 0xb
 3570 0131 49       		.uleb128 0x49
 3571 0132 13       		.uleb128 0x13
 3572 0133 02       		.uleb128 0x2
 3573 0134 0A       		.uleb128 0xa
 3574 0135 00       		.byte	0
 3575 0136 00       		.byte	0
 3576 0137 1A       		.uleb128 0x1a
 3577 0138 2E       		.uleb128 0x2e
 3578 0139 00       		.byte	0
 3579 013a 03       		.uleb128 0x3
 3580 013b 08       		.uleb128 0x8
 3581 013c 27       		.uleb128 0x27
 3582 013d 0C       		.uleb128 0xc
 3583 013e 34       		.uleb128 0x34
 3584 013f 0C       		.uleb128 0xc
 3585 0140 11       		.uleb128 0x11
 3586 0141 01       		.uleb128 0x1
 3587 0142 12       		.uleb128 0x12
 3588 0143 01       		.uleb128 0x1
 3589 0144 40       		.uleb128 0x40
 3590 0145 06       		.uleb128 0x6
 3591 0146 00       		.byte	0
 3592 0147 00       		.byte	0
 3593 0148 1B       		.uleb128 0x1b
 3594 0149 34       		.uleb128 0x34
 3595 014a 00       		.byte	0
 3596 014b 03       		.uleb128 0x3
 3597 014c 08       		.uleb128 0x8
 3598 014d 3A       		.uleb128 0x3a
 3599 014e 0B       		.uleb128 0xb
 3600 014f 3B       		.uleb128 0x3b
 3601 0150 0B       		.uleb128 0xb
 3602 0151 49       		.uleb128 0x49
 3603 0152 13       		.uleb128 0x13
 3604 0153 3F       		.uleb128 0x3f
 3605 0154 0C       		.uleb128 0xc
 3606 0155 3C       		.uleb128 0x3c
 3607 0156 0C       		.uleb128 0xc
 3608 0157 00       		.byte	0
 3609 0158 00       		.byte	0
GAS LISTING C:\cygwin\tmp\ccgmAwz3.s 			page 85


 3610 0159 1C       		.uleb128 0x1c
 3611 015a 34       		.uleb128 0x34
 3612 015b 00       		.byte	0
 3613 015c 03       		.uleb128 0x3
 3614 015d 0E       		.uleb128 0xe
 3615 015e 3A       		.uleb128 0x3a
 3616 015f 0B       		.uleb128 0xb
 3617 0160 3B       		.uleb128 0x3b
 3618 0161 0B       		.uleb128 0xb
 3619 0162 49       		.uleb128 0x49
 3620 0163 13       		.uleb128 0x13
 3621 0164 3F       		.uleb128 0x3f
 3622 0165 0C       		.uleb128 0xc
 3623 0166 3C       		.uleb128 0x3c
 3624 0167 0C       		.uleb128 0xc
 3625 0168 00       		.byte	0
 3626 0169 00       		.byte	0
 3627 016a 1D       		.uleb128 0x1d
 3628 016b 34       		.uleb128 0x34
 3629 016c 00       		.byte	0
 3630 016d 03       		.uleb128 0x3
 3631 016e 0E       		.uleb128 0xe
 3632 016f 3A       		.uleb128 0x3a
 3633 0170 0B       		.uleb128 0xb
 3634 0171 3B       		.uleb128 0x3b
 3635 0172 0B       		.uleb128 0xb
 3636 0173 49       		.uleb128 0x49
 3637 0174 13       		.uleb128 0x13
 3638 0175 3F       		.uleb128 0x3f
 3639 0176 0C       		.uleb128 0xc
 3640 0177 02       		.uleb128 0x2
 3641 0178 0A       		.uleb128 0xa
 3642 0179 00       		.byte	0
 3643 017a 00       		.byte	0
 3644 017b 1E       		.uleb128 0x1e
 3645 017c 34       		.uleb128 0x34
 3646 017d 00       		.byte	0
 3647 017e 03       		.uleb128 0x3
 3648 017f 08       		.uleb128 0x8
 3649 0180 3A       		.uleb128 0x3a
 3650 0181 0B       		.uleb128 0xb
 3651 0182 3B       		.uleb128 0x3b
 3652 0183 0B       		.uleb128 0xb
 3653 0184 49       		.uleb128 0x49
 3654 0185 13       		.uleb128 0x13
 3655 0186 3F       		.uleb128 0x3f
 3656 0187 0C       		.uleb128 0xc
 3657 0188 02       		.uleb128 0x2
 3658 0189 0A       		.uleb128 0xa
 3659 018a 00       		.byte	0
 3660 018b 00       		.byte	0
 3661 018c 00       		.byte	0
 3662              		.section	.debug_loc,"dr"
 3663              	Ldebug_loc0:
 3664              	LLST0:
 3665 0000 00000000 		.long	LFB0-Ltext0
 3666 0004 03000000 		.long	LCFI0-Ltext0
GAS LISTING C:\cygwin\tmp\ccgmAwz3.s 			page 86


 3667 0008 0200     		.word	0x2
 3668 000a 74       		.byte	0x74
 3669 000b 04       		.sleb128 4
 3670 000c 03000000 		.long	LCFI0-Ltext0
 3671 0010 5A000000 		.long	LCFI1-Ltext0
 3672 0014 0200     		.word	0x2
 3673 0016 74       		.byte	0x74
 3674 0017 20       		.sleb128 32
 3675 0018 5A000000 		.long	LCFI1-Ltext0
 3676 001c 5B000000 		.long	LFE0-Ltext0
 3677 0020 0200     		.word	0x2
 3678 0022 74       		.byte	0x74
 3679 0023 04       		.sleb128 4
 3680 0024 00000000 		.long	0
 3681 0028 00000000 		.long	0
 3682              	LLST1:
 3683 002c 5B000000 		.long	LFB1-Ltext0
 3684 0030 5E000000 		.long	LCFI2-Ltext0
 3685 0034 0200     		.word	0x2
 3686 0036 74       		.byte	0x74
 3687 0037 04       		.sleb128 4
 3688 0038 5E000000 		.long	LCFI2-Ltext0
 3689 003c 881E0000 		.long	LCFI3-Ltext0
 3690 0040 0200     		.word	0x2
 3691 0042 74       		.byte	0x74
 3692 0043 30       		.sleb128 48
 3693 0044 881E0000 		.long	LCFI3-Ltext0
 3694 0048 891E0000 		.long	LFE1-Ltext0
 3695 004c 0200     		.word	0x2
 3696 004e 74       		.byte	0x74
 3697 004f 04       		.sleb128 4
 3698 0050 00000000 		.long	0
 3699 0054 00000000 		.long	0
 3700              	LLST2:
 3701 0058 891E0000 		.long	LFB2-Ltext0
 3702 005c 8C1E0000 		.long	LCFI4-Ltext0
 3703 0060 0200     		.word	0x2
 3704 0062 74       		.byte	0x74
 3705 0063 04       		.sleb128 4
 3706 0064 8C1E0000 		.long	LCFI4-Ltext0
 3707 0068 9B1E0000 		.long	LCFI5-Ltext0
 3708 006c 0200     		.word	0x2
 3709 006e 74       		.byte	0x74
 3710 006f 20       		.sleb128 32
 3711 0070 9B1E0000 		.long	LCFI5-Ltext0
 3712 0074 9C1E0000 		.long	LFE2-Ltext0
 3713 0078 0200     		.word	0x2
 3714 007a 74       		.byte	0x74
 3715 007b 04       		.sleb128 4
 3716 007c 00000000 		.long	0
 3717 0080 00000000 		.long	0
 3718              		.section	.debug_aranges,"dr"
 3719 0000 1C000000 		.long	0x1c
 3720 0004 0200     		.word	0x2
 3721 0006 00000000 		.secrel32	Ldebug_info0
 3722 000a 04       		.byte	0x4
 3723 000b 00       		.byte	0
GAS LISTING C:\cygwin\tmp\ccgmAwz3.s 			page 87


 3724 000c 0000     		.word	0
 3725 000e 0000     		.word	0
 3726 0010 00000000 		.long	Ltext0
 3727 0014 9C1E0000 		.long	Letext0-Ltext0
 3728 0018 00000000 		.long	0
 3729 001c 00000000 		.long	0
 3730              		.section	.debug_line,"dr"
 3731              	Ldebug_line0:
 3732 0000 9D040000 		.section	.debug_str,"dr"
 3732      02000801 
 3732      00000101 
 3732      FB0E0D00 
 3732      01010101 
 3733              	LASF1:
 3734 0000 53656D61 		.ascii "Semaphore\0"
 3734      70686F72 
 3734      6500
 3735              	LASF2:
 3736 000a 74657374 		.ascii "testmbox1\0"
 3736      6D626F78 
 3736      3100
 3737              	LASF0:
 3738 0014 705F6E65 		.ascii "p_next\0"
 3738      787400
 3739              		.def	_chMBInit;	.scl	2;	.type	32;	.endef
 3740              		.def	__test_assert;	.scl	2;	.type	32;	.endef
 3741              		.def	_chMBPost;	.scl	2;	.type	32;	.endef
 3742              		.def	_chMBPostAhead;	.scl	2;	.type	32;	.endef
 3743              		.def	_chMBPostI;	.scl	2;	.type	32;	.endef
 3744              		.def	_chMBPostAheadI;	.scl	2;	.type	32;	.endef
 3745              		.def	_chMBFetch;	.scl	2;	.type	32;	.endef
 3746              		.def	_test_emit_token;	.scl	2;	.type	32;	.endef
 3747              		.def	__test_assert_sequence;	.scl	2;	.type	32;	.endef
 3748              		.def	_chMBFetchI;	.scl	2;	.type	32;	.endef
 3749              		.def	_chMBReset;	.scl	2;	.type	32;	.endef
 3750              		.def	___gcov_merge_add;	.scl	2;	.type	32;	.endef
 3751              		.def	___gcov_init;	.scl	2;	.type	32;	.endef
GAS LISTING C:\cygwin\tmp\ccgmAwz3.s 			page 88


DEFINED SYMBOLS
                            *ABS*:00000000 testmbox.c
C:\cygwin\tmp\ccgmAwz3.s:44     .data:00000000 _mb1
C:\cygwin\tmp\ccgmAwz3.s:71     .text:00000000 _mbox1_setup
C:\cygwin\tmp\ccgmAwz3.s:109    .text:0000005b _mbox1_execute
C:\cygwin\tmp\ccgmAwz3.s:2342   .rdata:00000028 _testmbox1
C:\cygwin\tmp\ccgmAwz3.s:2353   .rdata:00000038 _patternmbox
C:\cygwin\tmp\ccgmAwz3.s:2401   .text:00001e89 __GLOBAL__sub_I_65535_0_testmbox1

UNDEFINED SYMBOLS
_test
_chMBInit
__test_assert
_chMBPost
_chMBPostAhead
_chMBPostI
_chMBPostAheadI
_chMBFetch
_test_emit_token
__test_assert_sequence
_chMBFetchI
_chMBReset
___gcov_merge_add
___gcov_init
