GAS LISTING C:\cygwin\tmp\ccbhk3zs.s 			page 1


   1              		.file	"testevt.c"
   2              	 # GNU C (GCC) version 4.6.2 (mingw32)
   3              	 #	compiled by GNU C version 4.6.2, GMP version 5.0.1, MPFR version 2.4.1, MPC version 0.8.1
   4              	 # GGC heuristics: --param ggc-min-expand=100 --param ggc-min-heapsize=131072
   5              	 # options passed:  -I . -I ../../os/ports/GCC/SIMIA32
   6              	 # -I ../../os/kernel/include -I ../../test -I ../../os/hal/include
   7              	 # -I ../../os/hal/platforms/Win32 -I ../../boards/simulator
   8              	 # -I ../../os/various -iprefix c:\mingw\bin\../lib/gcc/mingw32/4.6.2/
   9              	 # -MD ../../test/testevt.d -MF .dep/testevt.o.d -MP
  10              	 # -MQ ../../test/testevt.o -D SIMULATOR ../../test/testevt.c -mtune=i386
  11              	 # -march=i386 -auxbase-strip ../../test/testevt.o -ggdb -O0 -Wall -Wextra
  12              	 # -Wstrict-prototypes -fomit-frame-pointer -fprofile-arcs -ftest-coverage
  13              	 # -fverbose-asm
  14              	 # options enabled:  -fasynchronous-unwind-tables -fauto-inc-dec
  15              	 # -fbranch-count-reg -fcommon -fdelete-null-pointer-checks
  16              	 # -fdwarf2-cfi-asm -fearly-inlining -feliminate-unused-debug-types
  17              	 # -ffunction-cse -fgcse-lm -fident -finline-functions-called-once
  18              	 # -fira-share-save-slots -fira-share-spill-slots -fivopts
  19              	 # -fkeep-inline-dllexport -fkeep-static-consts -fleading-underscore
  20              	 # -fmath-errno -fmerge-debug-strings -fmove-loop-invariants
  21              	 # -fomit-frame-pointer -fpeephole -fprefetch-loop-arrays -fprofile-arcs
  22              	 # -freg-struct-return -fsched-critical-path-heuristic
  23              	 # -fsched-dep-count-heuristic -fsched-group-heuristic -fsched-interblock
  24              	 # -fsched-last-insn-heuristic -fsched-rank-heuristic -fsched-spec
  25              	 # -fsched-spec-insn-heuristic -fsched-stalled-insns-dep
  26              	 # -fset-stack-executable -fshow-column -fsigned-zeros
  27              	 # -fsplit-ivs-in-unroller -fstrict-volatile-bitfields -ftest-coverage
  28              	 # -ftrapping-math -ftree-cselim -ftree-forwprop -ftree-loop-if-convert
  29              	 # -ftree-loop-im -ftree-loop-ivcanon -ftree-loop-optimize
  30              	 # -ftree-parallelize-loops= -ftree-phiprop -ftree-pta -ftree-reassoc
  31              	 # -ftree-scev-cprop -ftree-slp-vectorize -ftree-vect-loop-version
  32              	 # -funit-at-a-time -funwind-tables -fvect-cost-model -fverbose-asm
  33              	 # -fzero-initialized-in-bss -m32 -m80387 -m96bit-long-double
  34              	 # -maccumulate-outgoing-args -malign-double -malign-stringops
  35              	 # -mfancy-math-387 -mfp-ret-in-387 -mieee-fp -mno-red-zone -mno-sse4
  36              	 # -mpush-args -msahf -mstack-arg-probe
  37              	
  38              		.text
  39              	Ltext0:
  40              	 # Compiler executable checksum: c20aed7c018482d7b62efcd5dcab2a9d
  41              	
  42              		.data
  43              		.align 4
  44              	_es1:
  45              	 # es_next:
  46 0000 00000000 		.long	_es1
  47              		.align 4
  48              	_es2:
  49              	 # es_next:
  50 0004 04000000 		.long	_es2
  51              		.text
  52              		.def	_evt1_setup;	.scl	3;	.type	32;	.endef
  53              	_evt1_setup:
  54              	LFB0:
  55              		.file 1 "../../test/testevt.c"
  56              		.loc 1 79 0
  57              		.cfi_startproc
GAS LISTING C:\cygwin\tmp\ccbhk3zs.s 			page 2


  58 0000 83EC1C   		subl	$28, %esp	 #,
  59              	LCFI0:
  60              		.cfi_def_cfa_offset 32
  61              		.loc 1 79 0
  62 0003 A1580300 		movl	LPBX1+856, %eax	 # *LPBX1, PROF_edge_counter.10
  62      00
  63 0008 8B155C03 		movl	LPBX1+860, %edx	 # *LPBX1, PROF_edge_counter.10
  63      0000
  64 000e 83C001   		addl	$1, %eax	 #, PROF_edge_counter.10
  65 0011 83D200   		adcl	$0, %edx	 #, PROF_edge_counter.10
  66 0014 A3580300 		movl	%eax, LPBX1+856	 # PROF_edge_counter.10, *LPBX1
  66      00
  67 0019 89155C03 		movl	%edx, LPBX1+860	 # PROF_edge_counter.10, *LPBX1
  67      0000
  68              		.loc 1 81 0
  69 001f C70424FF 		movl	$-1, (%esp)	 #,
  69      FFFFFF
  70 0026 E8000000 		call	_chEvtGetAndClearEvents	 #
  70      00
  71 002b A1600300 		movl	LPBX1+864, %eax	 # *LPBX1, PROF_edge_counter.10
  71      00
  72 0030 8B156403 		movl	LPBX1+868, %edx	 # *LPBX1, PROF_edge_counter.10
  72      0000
  73 0036 83C001   		addl	$1, %eax	 #, PROF_edge_counter.10
  74 0039 83D200   		adcl	$0, %edx	 #, PROF_edge_counter.10
  75 003c A3600300 		movl	%eax, LPBX1+864	 # PROF_edge_counter.10, *LPBX1
  75      00
  76 0041 89156403 		movl	%edx, LPBX1+868	 # PROF_edge_counter.10, *LPBX1
  76      0000
  77              		.loc 1 82 0
  78 0047 83C41C   		addl	$28, %esp	 #,
  79              	LCFI1:
  80              		.cfi_def_cfa_offset 4
  81 004a C3       		ret
  82              		.cfi_endproc
  83              	LFE0:
  84              		.def	_h1;	.scl	3;	.type	32;	.endef
  85              	_h1:
  86              	LFB1:
  87              		.loc 1 84 0
  88              		.cfi_startproc
  89 004b 83EC1C   		subl	$28, %esp	 #,
  90              	LCFI2:
  91              		.cfi_def_cfa_offset 32
  92              		.loc 1 84 0
  93 004e A1480300 		movl	LPBX1+840, %eax	 # *LPBX1, PROF_edge_counter.9
  93      00
  94 0053 8B154C03 		movl	LPBX1+844, %edx	 # *LPBX1, PROF_edge_counter.9
  94      0000
  95 0059 83C001   		addl	$1, %eax	 #, PROF_edge_counter.9
  96 005c 83D200   		adcl	$0, %edx	 #, PROF_edge_counter.9
  97 005f A3480300 		movl	%eax, LPBX1+840	 # PROF_edge_counter.9, *LPBX1
  97      00
  98 0064 89154C03 		movl	%edx, LPBX1+844	 # PROF_edge_counter.9, *LPBX1
  98      0000
  99 006a C7042441 		movl	$65, (%esp)	 #,
  99      000000
GAS LISTING C:\cygwin\tmp\ccbhk3zs.s 			page 3


 100 0071 E8000000 		call	_test_emit_token	 #
 100      00
 101 0076 A1500300 		movl	LPBX1+848, %eax	 # *LPBX1, PROF_edge_counter.9
 101      00
 102 007b 8B155403 		movl	LPBX1+852, %edx	 # *LPBX1, PROF_edge_counter.9
 102      0000
 103 0081 83C001   		addl	$1, %eax	 #, PROF_edge_counter.9
 104 0084 83D200   		adcl	$0, %edx	 #, PROF_edge_counter.9
 105 0087 A3500300 		movl	%eax, LPBX1+848	 # PROF_edge_counter.9, *LPBX1
 105      00
 106 008c 89155403 		movl	%edx, LPBX1+852	 # PROF_edge_counter.9, *LPBX1
 106      0000
 107 0092 83C41C   		addl	$28, %esp	 #,
 108              	LCFI3:
 109              		.cfi_def_cfa_offset 4
 110 0095 C3       		ret
 111              		.cfi_endproc
 112              	LFE1:
 113              		.def	_h2;	.scl	3;	.type	32;	.endef
 114              	_h2:
 115              	LFB2:
 116              		.loc 1 85 0
 117              		.cfi_startproc
 118 0096 83EC1C   		subl	$28, %esp	 #,
 119              	LCFI4:
 120              		.cfi_def_cfa_offset 32
 121              		.loc 1 85 0
 122 0099 A1380300 		movl	LPBX1+824, %eax	 # *LPBX1, PROF_edge_counter.8
 122      00
 123 009e 8B153C03 		movl	LPBX1+828, %edx	 # *LPBX1, PROF_edge_counter.8
 123      0000
 124 00a4 83C001   		addl	$1, %eax	 #, PROF_edge_counter.8
 125 00a7 83D200   		adcl	$0, %edx	 #, PROF_edge_counter.8
 126 00aa A3380300 		movl	%eax, LPBX1+824	 # PROF_edge_counter.8, *LPBX1
 126      00
 127 00af 89153C03 		movl	%edx, LPBX1+828	 # PROF_edge_counter.8, *LPBX1
 127      0000
 128 00b5 C7042442 		movl	$66, (%esp)	 #,
 128      000000
 129 00bc E8000000 		call	_test_emit_token	 #
 129      00
 130 00c1 A1400300 		movl	LPBX1+832, %eax	 # *LPBX1, PROF_edge_counter.8
 130      00
 131 00c6 8B154403 		movl	LPBX1+836, %edx	 # *LPBX1, PROF_edge_counter.8
 131      0000
 132 00cc 83C001   		addl	$1, %eax	 #, PROF_edge_counter.8
 133 00cf 83D200   		adcl	$0, %edx	 #, PROF_edge_counter.8
 134 00d2 A3400300 		movl	%eax, LPBX1+832	 # PROF_edge_counter.8, *LPBX1
 134      00
 135 00d7 89154403 		movl	%edx, LPBX1+836	 # PROF_edge_counter.8, *LPBX1
 135      0000
 136 00dd 83C41C   		addl	$28, %esp	 #,
 137              	LCFI5:
 138              		.cfi_def_cfa_offset 4
 139 00e0 C3       		ret
 140              		.cfi_endproc
 141              	LFE2:
GAS LISTING C:\cygwin\tmp\ccbhk3zs.s 			page 4


 142              		.def	_h3;	.scl	3;	.type	32;	.endef
 143              	_h3:
 144              	LFB3:
 145              		.loc 1 86 0
 146              		.cfi_startproc
 147 00e1 83EC1C   		subl	$28, %esp	 #,
 148              	LCFI6:
 149              		.cfi_def_cfa_offset 32
 150              		.loc 1 86 0
 151 00e4 A1280300 		movl	LPBX1+808, %eax	 # *LPBX1, PROF_edge_counter.7
 151      00
 152 00e9 8B152C03 		movl	LPBX1+812, %edx	 # *LPBX1, PROF_edge_counter.7
 152      0000
 153 00ef 83C001   		addl	$1, %eax	 #, PROF_edge_counter.7
 154 00f2 83D200   		adcl	$0, %edx	 #, PROF_edge_counter.7
 155 00f5 A3280300 		movl	%eax, LPBX1+808	 # PROF_edge_counter.7, *LPBX1
 155      00
 156 00fa 89152C03 		movl	%edx, LPBX1+812	 # PROF_edge_counter.7, *LPBX1
 156      0000
 157 0100 C7042443 		movl	$67, (%esp)	 #,
 157      000000
 158 0107 E8000000 		call	_test_emit_token	 #
 158      00
 159 010c A1300300 		movl	LPBX1+816, %eax	 # *LPBX1, PROF_edge_counter.7
 159      00
 160 0111 8B153403 		movl	LPBX1+820, %edx	 # *LPBX1, PROF_edge_counter.7
 160      0000
 161 0117 83C001   		addl	$1, %eax	 #, PROF_edge_counter.7
 162 011a 83D200   		adcl	$0, %edx	 #, PROF_edge_counter.7
 163 011d A3300300 		movl	%eax, LPBX1+816	 # PROF_edge_counter.7, *LPBX1
 163      00
 164 0122 89153403 		movl	%edx, LPBX1+820	 # PROF_edge_counter.7, *LPBX1
 164      0000
 165 0128 83C41C   		addl	$28, %esp	 #,
 166              	LCFI7:
 167              		.cfi_def_cfa_offset 4
 168 012b C3       		ret
 169              		.cfi_endproc
 170              	LFE3:
 171              		.section .rdata,"dr"
 172              		.align 4
 173              	_evhndl:
 174 0000 4B000000 		.long	_h1
 175 0004 96000000 		.long	_h2
 176 0008 E1000000 		.long	_h3
 177              	LC0:
 178 000c 41424300 		.ascii "ABC\0"
 179              		.text
 180              		.def	_evt1_execute;	.scl	3;	.type	32;	.endef
 181              	_evt1_execute:
 182              	LFB4:
 183              		.loc 1 89 0
 184              		.cfi_startproc
 185 012c 83EC3C   		subl	$60, %esp	 #,
 186              	LCFI8:
 187              		.cfi_def_cfa_offset 64
 188              		.loc 1 89 0
GAS LISTING C:\cygwin\tmp\ccbhk3zs.s 			page 5


 189 012f A1B80200 		movl	LPBX1+696, %eax	 # *LPBX1, PROF_edge_counter.6
 189      00
 190 0134 8B15BC02 		movl	LPBX1+700, %edx	 # *LPBX1, PROF_edge_counter.6
 190      0000
 191 013a 83C001   		addl	$1, %eax	 #, PROF_edge_counter.6
 192 013d 83D200   		adcl	$0, %edx	 #, PROF_edge_counter.6
 193 0140 A3B80200 		movl	%eax, LPBX1+696	 # PROF_edge_counter.6, *LPBX1
 193      00
 194 0145 8915BC02 		movl	%edx, LPBX1+700	 # PROF_edge_counter.6, *LPBX1
 194      0000
 195              		.loc 1 95 0
 196 014b C7050000 		movl	$_es1, _es1	 #, es1.es_next
 196      00000000 
 196      0000
 197              		.loc 1 96 0
 198 0155 C7442408 		movl	$1, 8(%esp)	 #,
 198      01000000 
 199 015d 8D442420 		leal	32(%esp), %eax	 #, tmp97
 200 0161 89442404 		movl	%eax, 4(%esp)	 # tmp97,
 201 0165 C7042400 		movl	$_es1, (%esp)	 #,
 201      000000
 202 016c E8000000 		call	_chEvtRegisterMask	 #
 202      00
 203 0171 A1C00200 		movl	LPBX1+704, %eax	 # *LPBX1, PROF_edge_counter.6
 203      00
 204 0176 8B15C402 		movl	LPBX1+708, %edx	 # *LPBX1, PROF_edge_counter.6
 204      0000
 205 017c 83C001   		addl	$1, %eax	 #, PROF_edge_counter.6
 206 017f 83D200   		adcl	$0, %edx	 #, PROF_edge_counter.6
 207 0182 A3C00200 		movl	%eax, LPBX1+704	 # PROF_edge_counter.6, *LPBX1
 207      00
 208 0187 8915C402 		movl	%edx, LPBX1+708	 # PROF_edge_counter.6, *LPBX1
 208      0000
 209              		.loc 1 97 0
 210 018d C7442408 		movl	$2, 8(%esp)	 #,
 210      02000000 
 211 0195 8D442410 		leal	16(%esp), %eax	 #, tmp98
 212 0199 89442404 		movl	%eax, 4(%esp)	 # tmp98,
 213 019d C7042400 		movl	$_es1, (%esp)	 #,
 213      000000
 214 01a4 E8000000 		call	_chEvtRegisterMask	 #
 214      00
 215 01a9 A1C80200 		movl	LPBX1+712, %eax	 # *LPBX1, PROF_edge_counter.6
 215      00
 216 01ae 8B15CC02 		movl	LPBX1+716, %edx	 # *LPBX1, PROF_edge_counter.6
 216      0000
 217 01b4 83C001   		addl	$1, %eax	 #, PROF_edge_counter.6
 218 01b7 83D200   		adcl	$0, %edx	 #, PROF_edge_counter.6
 219 01ba A3C80200 		movl	%eax, LPBX1+712	 # PROF_edge_counter.6, *LPBX1
 219      00
 220 01bf 8915CC02 		movl	%edx, LPBX1+716	 # PROF_edge_counter.6, *LPBX1
 220      0000
 221              		.loc 1 98 0
 222 01c5 A1000000 		movl	_es1, %eax	 # es1.es_next, D.2950
 222      00
 223 01ca 3D000000 		cmpl	$_es1, %eax	 #, D.2950
 223      00
GAS LISTING C:\cygwin\tmp\ccbhk3zs.s 			page 6


 224 01cf 0F95C0   		setne	%al	 #, tmp99
 225 01d2 0FB6C0   		movzbl	%al, %eax	 # tmp99, D.2951
 226 01d5 89442404 		movl	%eax, 4(%esp)	 # D.2951,
 227 01d9 C7042401 		movl	$1, (%esp)	 #,
 227      000000
 228 01e0 E8000000 		call	__test_assert	 #
 228      00
 229 01e5 84C0     		testb	%al, %al	 # D.2952
 230 01e7 7421     		je	L6	 #,
 231              		.loc 1 98 0 is_stmt 0 discriminator 1
 232 01e9 A1D80200 		movl	LPBX1+728, %eax	 # *LPBX1, PROF_edge_counter.6
 232      00
 233 01ee 8B15DC02 		movl	LPBX1+732, %edx	 # *LPBX1, PROF_edge_counter.6
 233      0000
 234 01f4 83C001   		addl	$1, %eax	 #, PROF_edge_counter.6
 235 01f7 83D200   		adcl	$0, %edx	 #, PROF_edge_counter.6
 236 01fa A3D80200 		movl	%eax, LPBX1+728	 # PROF_edge_counter.6, *LPBX1
 236      00
 237 01ff 8915DC02 		movl	%edx, LPBX1+732	 # PROF_edge_counter.6, *LPBX1
 237      0000
 238 0205 E9C00100 		jmp	L5	 #
 238      00
 239              	L6:
 240              		.loc 1 98 0
 241 020a A1D00200 		movl	LPBX1+720, %eax	 # *LPBX1, PROF_edge_counter.6
 241      00
 242 020f 8B15D402 		movl	LPBX1+724, %edx	 # *LPBX1, PROF_edge_counter.6
 242      0000
 243 0215 83C001   		addl	$1, %eax	 #, PROF_edge_counter.6
 244 0218 83D200   		adcl	$0, %edx	 #, PROF_edge_counter.6
 245 021b A3D00200 		movl	%eax, LPBX1+720	 # PROF_edge_counter.6, *LPBX1
 245      00
 246 0220 8915D402 		movl	%edx, LPBX1+724	 # PROF_edge_counter.6, *LPBX1
 246      0000
 247              		.loc 1 99 0 is_stmt 1
 248 0226 8D442420 		leal	32(%esp), %eax	 #, tmp100
 249 022a 89442404 		movl	%eax, 4(%esp)	 # tmp100,
 250 022e C7042400 		movl	$_es1, (%esp)	 #,
 250      000000
 251 0235 E8000000 		call	_chEvtUnregister	 #
 251      00
 252 023a A1E00200 		movl	LPBX1+736, %eax	 # *LPBX1, PROF_edge_counter.6
 252      00
 253 023f 8B15E402 		movl	LPBX1+740, %edx	 # *LPBX1, PROF_edge_counter.6
 253      0000
 254 0245 83C001   		addl	$1, %eax	 #, PROF_edge_counter.6
 255 0248 83D200   		adcl	$0, %edx	 #, PROF_edge_counter.6
 256 024b A3E00200 		movl	%eax, LPBX1+736	 # PROF_edge_counter.6, *LPBX1
 256      00
 257 0250 8915E402 		movl	%edx, LPBX1+740	 # PROF_edge_counter.6, *LPBX1
 257      0000
 258              		.loc 1 100 0
 259 0256 A1000000 		movl	_es1, %eax	 # es1.es_next, D.2955
 259      00
 260 025b 3D000000 		cmpl	$_es1, %eax	 #, D.2955
 260      00
 261 0260 0F95C0   		setne	%al	 #, tmp101
GAS LISTING C:\cygwin\tmp\ccbhk3zs.s 			page 7


 262 0263 0FB6C0   		movzbl	%al, %eax	 # tmp101, D.2956
 263 0266 89442404 		movl	%eax, 4(%esp)	 # D.2956,
 264 026a C7042402 		movl	$2, (%esp)	 #,
 264      000000
 265 0271 E8000000 		call	__test_assert	 #
 265      00
 266 0276 84C0     		testb	%al, %al	 # D.2957
 267 0278 7421     		je	L8	 #,
 268              		.loc 1 100 0 is_stmt 0 discriminator 1
 269 027a A1F00200 		movl	LPBX1+752, %eax	 # *LPBX1, PROF_edge_counter.6
 269      00
 270 027f 8B15F402 		movl	LPBX1+756, %edx	 # *LPBX1, PROF_edge_counter.6
 270      0000
 271 0285 83C001   		addl	$1, %eax	 #, PROF_edge_counter.6
 272 0288 83D200   		adcl	$0, %edx	 #, PROF_edge_counter.6
 273 028b A3F00200 		movl	%eax, LPBX1+752	 # PROF_edge_counter.6, *LPBX1
 273      00
 274 0290 8915F402 		movl	%edx, LPBX1+756	 # PROF_edge_counter.6, *LPBX1
 274      0000
 275 0296 E92F0100 		jmp	L5	 #
 275      00
 276              	L8:
 277              		.loc 1 100 0
 278 029b A1E80200 		movl	LPBX1+744, %eax	 # *LPBX1, PROF_edge_counter.6
 278      00
 279 02a0 8B15EC02 		movl	LPBX1+748, %edx	 # *LPBX1, PROF_edge_counter.6
 279      0000
 280 02a6 83C001   		addl	$1, %eax	 #, PROF_edge_counter.6
 281 02a9 83D200   		adcl	$0, %edx	 #, PROF_edge_counter.6
 282 02ac A3E80200 		movl	%eax, LPBX1+744	 # PROF_edge_counter.6, *LPBX1
 282      00
 283 02b1 8915EC02 		movl	%edx, LPBX1+748	 # PROF_edge_counter.6, *LPBX1
 283      0000
 284              		.loc 1 101 0 is_stmt 1
 285 02b7 8D442410 		leal	16(%esp), %eax	 #, tmp102
 286 02bb 89442404 		movl	%eax, 4(%esp)	 # tmp102,
 287 02bf C7042400 		movl	$_es1, (%esp)	 #,
 287      000000
 288 02c6 E8000000 		call	_chEvtUnregister	 #
 288      00
 289 02cb A1F80200 		movl	LPBX1+760, %eax	 # *LPBX1, PROF_edge_counter.6
 289      00
 290 02d0 8B15FC02 		movl	LPBX1+764, %edx	 # *LPBX1, PROF_edge_counter.6
 290      0000
 291 02d6 83C001   		addl	$1, %eax	 #, PROF_edge_counter.6
 292 02d9 83D200   		adcl	$0, %edx	 #, PROF_edge_counter.6
 293 02dc A3F80200 		movl	%eax, LPBX1+760	 # PROF_edge_counter.6, *LPBX1
 293      00
 294 02e1 8915FC02 		movl	%edx, LPBX1+764	 # PROF_edge_counter.6, *LPBX1
 294      0000
 295              		.loc 1 102 0
 296 02e7 A1000000 		movl	_es1, %eax	 # es1.es_next, D.2960
 296      00
 297 02ec 3D000000 		cmpl	$_es1, %eax	 #, D.2960
 297      00
 298 02f1 0F94C0   		sete	%al	 #, tmp103
 299 02f4 0FB6C0   		movzbl	%al, %eax	 # tmp103, D.2961
GAS LISTING C:\cygwin\tmp\ccbhk3zs.s 			page 8


 300 02f7 89442404 		movl	%eax, 4(%esp)	 # D.2961,
 301 02fb C7042403 		movl	$3, (%esp)	 #,
 301      000000
 302 0302 E8000000 		call	__test_assert	 #
 302      00
 303 0307 84C0     		testb	%al, %al	 # D.2962
 304 0309 7421     		je	L9	 #,
 305              		.loc 1 102 0 is_stmt 0 discriminator 1
 306 030b A1080300 		movl	LPBX1+776, %eax	 # *LPBX1, PROF_edge_counter.6
 306      00
 307 0310 8B150C03 		movl	LPBX1+780, %edx	 # *LPBX1, PROF_edge_counter.6
 307      0000
 308 0316 83C001   		addl	$1, %eax	 #, PROF_edge_counter.6
 309 0319 83D200   		adcl	$0, %edx	 #, PROF_edge_counter.6
 310 031c A3080300 		movl	%eax, LPBX1+776	 # PROF_edge_counter.6, *LPBX1
 310      00
 311 0321 89150C03 		movl	%edx, LPBX1+780	 # PROF_edge_counter.6, *LPBX1
 311      0000
 312 0327 E99E0000 		jmp	L5	 #
 312      00
 313              	L9:
 314              		.loc 1 102 0
 315 032c A1000300 		movl	LPBX1+768, %eax	 # *LPBX1, PROF_edge_counter.6
 315      00
 316 0331 8B150403 		movl	LPBX1+772, %edx	 # *LPBX1, PROF_edge_counter.6
 316      0000
 317 0337 83C001   		addl	$1, %eax	 #, PROF_edge_counter.6
 318 033a 83D200   		adcl	$0, %edx	 #, PROF_edge_counter.6
 319 033d A3000300 		movl	%eax, LPBX1+768	 # PROF_edge_counter.6, *LPBX1
 319      00
 320 0342 89150403 		movl	%edx, LPBX1+772	 # PROF_edge_counter.6, *LPBX1
 320      0000
 321              		.loc 1 107 0 is_stmt 1
 322 0348 C7442404 		movl	$7, 4(%esp)	 #,
 322      07000000 
 323 0350 C7042400 		movl	$_evhndl, (%esp)	 #,
 323      000000
 324 0357 E8000000 		call	_chEvtDispatch	 #
 324      00
 325 035c A1100300 		movl	LPBX1+784, %eax	 # *LPBX1, PROF_edge_counter.6
 325      00
 326 0361 8B151403 		movl	LPBX1+788, %edx	 # *LPBX1, PROF_edge_counter.6
 326      0000
 327 0367 83C001   		addl	$1, %eax	 #, PROF_edge_counter.6
 328 036a 83D200   		adcl	$0, %edx	 #, PROF_edge_counter.6
 329 036d A3100300 		movl	%eax, LPBX1+784	 # PROF_edge_counter.6, *LPBX1
 329      00
 330 0372 89151403 		movl	%edx, LPBX1+788	 # PROF_edge_counter.6, *LPBX1
 330      0000
 331              		.loc 1 108 0
 332 0378 C7442404 		movl	$LC0, 4(%esp)	 #,
 332      0C000000 
 333 0380 C7042404 		movl	$4, (%esp)	 #,
 333      000000
 334 0387 E8000000 		call	__test_assert_sequence	 #
 334      00
 335 038c 88C1     		movb	%al, %cl	 #, D.2965
GAS LISTING C:\cygwin\tmp\ccbhk3zs.s 			page 9


 336 038e A1180300 		movl	LPBX1+792, %eax	 # *LPBX1, PROF_edge_counter.6
 336      00
 337 0393 8B151C03 		movl	LPBX1+796, %edx	 # *LPBX1, PROF_edge_counter.6
 337      0000
 338 0399 83C001   		addl	$1, %eax	 #, PROF_edge_counter.6
 339 039c 83D200   		adcl	$0, %edx	 #, PROF_edge_counter.6
 340 039f A3180300 		movl	%eax, LPBX1+792	 # PROF_edge_counter.6, *LPBX1
 340      00
 341 03a4 89151C03 		movl	%edx, LPBX1+796	 # PROF_edge_counter.6, *LPBX1
 341      0000
 342 03aa 84C9     		testb	%cl, %cl	 # D.2965
 343 03ac 741C     		je	L5	 #,
 344              		.loc 1 108 0 is_stmt 0 discriminator 1
 345 03ae A1200300 		movl	LPBX1+800, %eax	 # *LPBX1, PROF_edge_counter.6
 345      00
 346 03b3 8B152403 		movl	LPBX1+804, %edx	 # *LPBX1, PROF_edge_counter.6
 346      0000
 347 03b9 83C001   		addl	$1, %eax	 #, PROF_edge_counter.6
 348 03bc 83D200   		adcl	$0, %edx	 #, PROF_edge_counter.6
 349 03bf A3200300 		movl	%eax, LPBX1+800	 # PROF_edge_counter.6, *LPBX1
 349      00
 350 03c4 89152403 		movl	%edx, LPBX1+804	 # PROF_edge_counter.6, *LPBX1
 350      0000
 351              	L5:
 352              		.loc 1 109 0 is_stmt 1
 353 03ca 83C43C   		addl	$60, %esp	 #,
 354              	LCFI9:
 355              		.cfi_def_cfa_offset 4
 356 03cd C3       		ret
 357              		.cfi_endproc
 358              	LFE4:
 359              		.globl	_testevt1
 360              		.section .rdata,"dr"
 361              		.align 4
 362              	LC1:
 363 0010 4576656E 		.ascii "Events, registration and dispatch\0"
 363      74732C20 
 363      72656769 
 363      73747261 
 363      74696F6E 
 364 0032 0000     		.align 4
 365              	_testevt1:
 366              	 # name:
 367 0034 10000000 		.long	LC1
 368              	 # setup:
 369 0038 00000000 		.long	_evt1_setup
 370              	 # teardown:
 371 003c 00000000 		.long	0
 372              	 # execute:
 373 0040 2C010000 		.long	_evt1_execute
 374              		.text
 375              		.def	_evt2_setup;	.scl	3;	.type	32;	.endef
 376              	_evt2_setup:
 377              	LFB5:
 378              		.loc 1 132 0
 379              		.cfi_startproc
 380 03ce 83EC1C   		subl	$28, %esp	 #,
GAS LISTING C:\cygwin\tmp\ccbhk3zs.s 			page 10


 381              	LCFI10:
 382              		.cfi_def_cfa_offset 32
 383              		.loc 1 132 0
 384 03d1 A1A80200 		movl	LPBX1+680, %eax	 # *LPBX1, PROF_edge_counter.5
 384      00
 385 03d6 8B15AC02 		movl	LPBX1+684, %edx	 # *LPBX1, PROF_edge_counter.5
 385      0000
 386 03dc 83C001   		addl	$1, %eax	 #, PROF_edge_counter.5
 387 03df 83D200   		adcl	$0, %edx	 #, PROF_edge_counter.5
 388 03e2 A3A80200 		movl	%eax, LPBX1+680	 # PROF_edge_counter.5, *LPBX1
 388      00
 389 03e7 8915AC02 		movl	%edx, LPBX1+684	 # PROF_edge_counter.5, *LPBX1
 389      0000
 390              		.loc 1 134 0
 391 03ed C70424FF 		movl	$-1, (%esp)	 #,
 391      FFFFFF
 392 03f4 E8000000 		call	_chEvtGetAndClearEvents	 #
 392      00
 393 03f9 A1B00200 		movl	LPBX1+688, %eax	 # *LPBX1, PROF_edge_counter.5
 393      00
 394 03fe 8B15B402 		movl	LPBX1+692, %edx	 # *LPBX1, PROF_edge_counter.5
 394      0000
 395 0404 83C001   		addl	$1, %eax	 #, PROF_edge_counter.5
 396 0407 83D200   		adcl	$0, %edx	 #, PROF_edge_counter.5
 397 040a A3B00200 		movl	%eax, LPBX1+688	 # PROF_edge_counter.5, *LPBX1
 397      00
 398 040f 8915B402 		movl	%edx, LPBX1+692	 # PROF_edge_counter.5, *LPBX1
 398      0000
 399              		.loc 1 135 0
 400 0415 83C41C   		addl	$28, %esp	 #,
 401              	LCFI11:
 402              		.cfi_def_cfa_offset 4
 403 0418 C3       		ret
 404              		.cfi_endproc
 405              	LFE5:
 406              		.def	_thread1;	.scl	3;	.type	32;	.endef
 407              	_thread1:
 408              	LFB6:
 409              		.loc 1 137 0
 410              		.cfi_startproc
 411 0419 83EC1C   		subl	$28, %esp	 #,
 412              	LCFI12:
 413              		.cfi_def_cfa_offset 32
 414              		.loc 1 137 0
 415 041c A1900200 		movl	LPBX1+656, %eax	 # *LPBX1, PROF_edge_counter.4
 415      00
 416 0421 8B159402 		movl	LPBX1+660, %edx	 # *LPBX1, PROF_edge_counter.4
 416      0000
 417 0427 83C001   		addl	$1, %eax	 #, PROF_edge_counter.4
 418 042a 83D200   		adcl	$0, %edx	 #, PROF_edge_counter.4
 419 042d A3900200 		movl	%eax, LPBX1+656	 # PROF_edge_counter.4, *LPBX1
 419      00
 420 0432 89159402 		movl	%edx, LPBX1+660	 # PROF_edge_counter.4, *LPBX1
 420      0000
 421              		.loc 1 139 0
 422 0438 C7042432 		movl	$50, (%esp)	 #,
 422      000000
GAS LISTING C:\cygwin\tmp\ccbhk3zs.s 			page 11


 423 043f E8000000 		call	_chThdSleep	 #
 423      00
 424 0444 A1980200 		movl	LPBX1+664, %eax	 # *LPBX1, PROF_edge_counter.4
 424      00
 425 0449 8B159C02 		movl	LPBX1+668, %edx	 # *LPBX1, PROF_edge_counter.4
 425      0000
 426 044f 83C001   		addl	$1, %eax	 #, PROF_edge_counter.4
 427 0452 83D200   		adcl	$0, %edx	 #, PROF_edge_counter.4
 428 0455 A3980200 		movl	%eax, LPBX1+664	 # PROF_edge_counter.4, *LPBX1
 428      00
 429 045a 89159C02 		movl	%edx, LPBX1+668	 # PROF_edge_counter.4, *LPBX1
 429      0000
 430              		.loc 1 140 0
 431 0460 C7442404 		movl	$1, 4(%esp)	 #,
 431      01000000 
 432 0468 8B442420 		movl	32(%esp), %eax	 # p, tmp67
 433 046c 890424   		movl	%eax, (%esp)	 # tmp67,
 434 046f E8000000 		call	_chEvtSignal	 #
 434      00
 435 0474 A1A00200 		movl	LPBX1+672, %eax	 # *LPBX1, PROF_edge_counter.4
 435      00
 436 0479 8B15A402 		movl	LPBX1+676, %edx	 # *LPBX1, PROF_edge_counter.4
 436      0000
 437 047f 83C001   		addl	$1, %eax	 #, PROF_edge_counter.4
 438 0482 83D200   		adcl	$0, %edx	 #, PROF_edge_counter.4
 439 0485 A3A00200 		movl	%eax, LPBX1+672	 # PROF_edge_counter.4, *LPBX1
 439      00
 440 048a 8915A402 		movl	%edx, LPBX1+676	 # PROF_edge_counter.4, *LPBX1
 440      0000
 441              		.loc 1 141 0
 442 0490 B8000000 		movl	$0, %eax	 #, D.2948
 442      00
 443              		.loc 1 142 0
 444 0495 83C41C   		addl	$28, %esp	 #,
 445              	LCFI13:
 446              		.cfi_def_cfa_offset 4
 447 0498 C3       		ret
 448              		.cfi_endproc
 449              	LFE6:
 450              		.def	_thread2;	.scl	3;	.type	32;	.endef
 451              	_thread2:
 452              	LFB7:
 453              		.loc 1 144 0
 454              		.cfi_startproc
 455 0499 83EC1C   		subl	$28, %esp	 #,
 456              	LCFI14:
 457              		.cfi_def_cfa_offset 32
 458              		.loc 1 144 0
 459 049c A1700200 		movl	LPBX1+624, %eax	 # *LPBX1, PROF_edge_counter.3
 459      00
 460 04a1 8B157402 		movl	LPBX1+628, %edx	 # *LPBX1, PROF_edge_counter.3
 460      0000
 461 04a7 83C001   		addl	$1, %eax	 #, PROF_edge_counter.3
 462 04aa 83D200   		adcl	$0, %edx	 #, PROF_edge_counter.3
 463 04ad A3700200 		movl	%eax, LPBX1+624	 # PROF_edge_counter.3, *LPBX1
 463      00
 464 04b2 89157402 		movl	%edx, LPBX1+628	 # PROF_edge_counter.3, *LPBX1
GAS LISTING C:\cygwin\tmp\ccbhk3zs.s 			page 12


 464      0000
 465              		.loc 1 147 0
 466 04b8 C7442404 		movl	$0, 4(%esp)	 #,
 466      00000000 
 467 04c0 C7042400 		movl	$_es1, (%esp)	 #,
 467      000000
 468 04c7 E8000000 		call	_chEvtBroadcastFlags	 #
 468      00
 469 04cc A1780200 		movl	LPBX1+632, %eax	 # *LPBX1, PROF_edge_counter.3
 469      00
 470 04d1 8B157C02 		movl	LPBX1+636, %edx	 # *LPBX1, PROF_edge_counter.3
 470      0000
 471 04d7 83C001   		addl	$1, %eax	 #, PROF_edge_counter.3
 472 04da 83D200   		adcl	$0, %edx	 #, PROF_edge_counter.3
 473 04dd A3780200 		movl	%eax, LPBX1+632	 # PROF_edge_counter.3, *LPBX1
 473      00
 474 04e2 89157C02 		movl	%edx, LPBX1+636	 # PROF_edge_counter.3, *LPBX1
 474      0000
 475              		.loc 1 148 0
 476 04e8 C7042432 		movl	$50, (%esp)	 #,
 476      000000
 477 04ef E8000000 		call	_chThdSleep	 #
 477      00
 478 04f4 A1800200 		movl	LPBX1+640, %eax	 # *LPBX1, PROF_edge_counter.3
 478      00
 479 04f9 8B158402 		movl	LPBX1+644, %edx	 # *LPBX1, PROF_edge_counter.3
 479      0000
 480 04ff 83C001   		addl	$1, %eax	 #, PROF_edge_counter.3
 481 0502 83D200   		adcl	$0, %edx	 #, PROF_edge_counter.3
 482 0505 A3800200 		movl	%eax, LPBX1+640	 # PROF_edge_counter.3, *LPBX1
 482      00
 483 050a 89158402 		movl	%edx, LPBX1+644	 # PROF_edge_counter.3, *LPBX1
 483      0000
 484              		.loc 1 149 0
 485 0510 C7442404 		movl	$0, 4(%esp)	 #,
 485      00000000 
 486 0518 C7042404 		movl	$_es2, (%esp)	 #,
 486      000000
 487 051f E8000000 		call	_chEvtBroadcastFlags	 #
 487      00
 488 0524 A1880200 		movl	LPBX1+648, %eax	 # *LPBX1, PROF_edge_counter.3
 488      00
 489 0529 8B158C02 		movl	LPBX1+652, %edx	 # *LPBX1, PROF_edge_counter.3
 489      0000
 490 052f 83C001   		addl	$1, %eax	 #, PROF_edge_counter.3
 491 0532 83D200   		adcl	$0, %edx	 #, PROF_edge_counter.3
 492 0535 A3880200 		movl	%eax, LPBX1+648	 # PROF_edge_counter.3, *LPBX1
 492      00
 493 053a 89158C02 		movl	%edx, LPBX1+652	 # PROF_edge_counter.3, *LPBX1
 493      0000
 494              		.loc 1 150 0
 495 0540 B8000000 		movl	$0, %eax	 #, D.2946
 495      00
 496              		.loc 1 151 0
 497 0545 83C41C   		addl	$28, %esp	 #,
 498              	LCFI15:
 499              		.cfi_def_cfa_offset 4
GAS LISTING C:\cygwin\tmp\ccbhk3zs.s 			page 13


 500 0548 C3       		ret
 501              		.cfi_endproc
 502              	LFE7:
 503              		.section .rdata,"dr"
 504              	LC2:
 505 0044 4100     		.ascii "A\0"
 506              		.text
 507              		.def	_evt2_execute;	.scl	3;	.type	32;	.endef
 508              	_evt2_execute:
 509              	LFB8:
 510              		.loc 1 153 0
 511              		.cfi_startproc
 512 0549 83EC5C   		subl	$92, %esp	 #,
 513              	LCFI16:
 514              		.cfi_def_cfa_offset 96
 515              		.loc 1 153 0
 516 054c A1A80000 		movl	LPBX1+168, %eax	 # *LPBX1, PROF_edge_counter.2
 516      00
 517 0551 8B15AC00 		movl	LPBX1+172, %edx	 # *LPBX1, PROF_edge_counter.2
 517      0000
 518 0557 83C001   		addl	$1, %eax	 #, PROF_edge_counter.2
 519 055a 83D200   		adcl	$0, %edx	 #, PROF_edge_counter.2
 520 055d A3A80000 		movl	%eax, LPBX1+168	 # PROF_edge_counter.2, *LPBX1
 520      00
 521 0562 8915AC00 		movl	%edx, LPBX1+172	 # PROF_edge_counter.2, *LPBX1
 521      0000
 522              		.loc 1 161 0
 523 0568 C7042405 		movl	$5, (%esp)	 #,
 523      000000
 524 056f E8000000 		call	_chEvtAddEvents	 #
 524      00
 525 0574 A1B00000 		movl	LPBX1+176, %eax	 # *LPBX1, PROF_edge_counter.2
 525      00
 526 0579 8B15B400 		movl	LPBX1+180, %edx	 # *LPBX1, PROF_edge_counter.2
 526      0000
 527 057f 83C001   		addl	$1, %eax	 #, PROF_edge_counter.2
 528 0582 83D200   		adcl	$0, %edx	 #, PROF_edge_counter.2
 529 0585 A3B00000 		movl	%eax, LPBX1+176	 # PROF_edge_counter.2, *LPBX1
 529      00
 530 058a 8915B400 		movl	%edx, LPBX1+180	 # PROF_edge_counter.2, *LPBX1
 530      0000
 531              		.loc 1 162 0
 532 0590 C7442404 		movl	$-1, 4(%esp)	 #,
 532      FFFFFFFF 
 533 0598 C70424FF 		movl	$-1, (%esp)	 #,
 533      FFFFFF
 534 059f E8000000 		call	_chEvtWaitOneTimeout	 #
 534      00
 535 05a4 8944244C 		movl	%eax, 76(%esp)	 # tmp225, m
 536 05a8 A1B80000 		movl	LPBX1+184, %eax	 # *LPBX1, PROF_edge_counter.2
 536      00
 537 05ad 8B15BC00 		movl	LPBX1+188, %edx	 # *LPBX1, PROF_edge_counter.2
 537      0000
 538 05b3 83C001   		addl	$1, %eax	 #, PROF_edge_counter.2
 539 05b6 83D200   		adcl	$0, %edx	 #, PROF_edge_counter.2
 540 05b9 A3B80000 		movl	%eax, LPBX1+184	 # PROF_edge_counter.2, *LPBX1
 540      00
GAS LISTING C:\cygwin\tmp\ccbhk3zs.s 			page 14


 541 05be 8915BC00 		movl	%edx, LPBX1+188	 # PROF_edge_counter.2, *LPBX1
 541      0000
 542              		.loc 1 163 0
 543 05c4 837C244C 		cmpl	$1, 76(%esp)	 #, m
 543      01
 544 05c9 0F94C0   		sete	%al	 #, tmp226
 545 05cc 0FB6C0   		movzbl	%al, %eax	 # tmp226, D.2863
 546 05cf 89442404 		movl	%eax, 4(%esp)	 # D.2863,
 547 05d3 C7042401 		movl	$1, (%esp)	 #,
 547      000000
 548 05da E8000000 		call	__test_assert	 #
 548      00
 549 05df 84C0     		testb	%al, %al	 # D.2864
 550 05e1 7421     		je	L14	 #,
 551              		.loc 1 163 0 is_stmt 0 discriminator 1
 552 05e3 A1C80000 		movl	LPBX1+200, %eax	 # *LPBX1, PROF_edge_counter.2
 552      00
 553 05e8 8B15CC00 		movl	LPBX1+204, %edx	 # *LPBX1, PROF_edge_counter.2
 553      0000
 554 05ee 83C001   		addl	$1, %eax	 #, PROF_edge_counter.2
 555 05f1 83D200   		adcl	$0, %edx	 #, PROF_edge_counter.2
 556 05f4 A3C80000 		movl	%eax, LPBX1+200	 # PROF_edge_counter.2, *LPBX1
 556      00
 557 05f9 8915CC00 		movl	%edx, LPBX1+204	 # PROF_edge_counter.2, *LPBX1
 557      0000
 558 05ff E9160A00 		jmp	L13	 #
 558      00
 559              	L14:
 560              		.loc 1 163 0
 561 0604 A1C00000 		movl	LPBX1+192, %eax	 # *LPBX1, PROF_edge_counter.2
 561      00
 562 0609 8B15C400 		movl	LPBX1+196, %edx	 # *LPBX1, PROF_edge_counter.2
 562      0000
 563 060f 83C001   		addl	$1, %eax	 #, PROF_edge_counter.2
 564 0612 83D200   		adcl	$0, %edx	 #, PROF_edge_counter.2
 565 0615 A3C00000 		movl	%eax, LPBX1+192	 # PROF_edge_counter.2, *LPBX1
 565      00
 566 061a 8915C400 		movl	%edx, LPBX1+196	 # PROF_edge_counter.2, *LPBX1
 566      0000
 567              		.loc 1 164 0 is_stmt 1
 568 0620 C7442404 		movl	$-1, 4(%esp)	 #,
 568      FFFFFFFF 
 569 0628 C70424FF 		movl	$-1, (%esp)	 #,
 569      FFFFFF
 570 062f E8000000 		call	_chEvtWaitOneTimeout	 #
 570      00
 571 0634 8944244C 		movl	%eax, 76(%esp)	 # tmp227, m
 572 0638 A1D00000 		movl	LPBX1+208, %eax	 # *LPBX1, PROF_edge_counter.2
 572      00
 573 063d 8B15D400 		movl	LPBX1+212, %edx	 # *LPBX1, PROF_edge_counter.2
 573      0000
 574 0643 83C001   		addl	$1, %eax	 #, PROF_edge_counter.2
 575 0646 83D200   		adcl	$0, %edx	 #, PROF_edge_counter.2
 576 0649 A3D00000 		movl	%eax, LPBX1+208	 # PROF_edge_counter.2, *LPBX1
 576      00
 577 064e 8915D400 		movl	%edx, LPBX1+212	 # PROF_edge_counter.2, *LPBX1
 577      0000
GAS LISTING C:\cygwin\tmp\ccbhk3zs.s 			page 15


 578              		.loc 1 165 0
 579 0654 837C244C 		cmpl	$4, 76(%esp)	 #, m
 579      04
 580 0659 0F94C0   		sete	%al	 #, tmp228
 581 065c 0FB6C0   		movzbl	%al, %eax	 # tmp228, D.2867
 582 065f 89442404 		movl	%eax, 4(%esp)	 # D.2867,
 583 0663 C7042402 		movl	$2, (%esp)	 #,
 583      000000
 584 066a E8000000 		call	__test_assert	 #
 584      00
 585 066f 84C0     		testb	%al, %al	 # D.2868
 586 0671 7421     		je	L16	 #,
 587              		.loc 1 165 0 is_stmt 0 discriminator 1
 588 0673 A1E00000 		movl	LPBX1+224, %eax	 # *LPBX1, PROF_edge_counter.2
 588      00
 589 0678 8B15E400 		movl	LPBX1+228, %edx	 # *LPBX1, PROF_edge_counter.2
 589      0000
 590 067e 83C001   		addl	$1, %eax	 #, PROF_edge_counter.2
 591 0681 83D200   		adcl	$0, %edx	 #, PROF_edge_counter.2
 592 0684 A3E00000 		movl	%eax, LPBX1+224	 # PROF_edge_counter.2, *LPBX1
 592      00
 593 0689 8915E400 		movl	%edx, LPBX1+228	 # PROF_edge_counter.2, *LPBX1
 593      0000
 594 068f E9860900 		jmp	L13	 #
 594      00
 595              	L16:
 596              		.loc 1 165 0
 597 0694 A1D80000 		movl	LPBX1+216, %eax	 # *LPBX1, PROF_edge_counter.2
 597      00
 598 0699 8B15DC00 		movl	LPBX1+220, %edx	 # *LPBX1, PROF_edge_counter.2
 598      0000
 599 069f 83C001   		addl	$1, %eax	 #, PROF_edge_counter.2
 600 06a2 83D200   		adcl	$0, %edx	 #, PROF_edge_counter.2
 601 06a5 A3D80000 		movl	%eax, LPBX1+216	 # PROF_edge_counter.2, *LPBX1
 601      00
 602 06aa 8915DC00 		movl	%edx, LPBX1+220	 # PROF_edge_counter.2, *LPBX1
 602      0000
 603              		.loc 1 166 0 is_stmt 1
 604 06b0 C70424FF 		movl	$-1, (%esp)	 #,
 604      FFFFFF
 605 06b7 E8000000 		call	_chEvtGetAndClearEvents	 #
 605      00
 606 06bc 8944244C 		movl	%eax, 76(%esp)	 # tmp229, m
 607 06c0 A1E80000 		movl	LPBX1+232, %eax	 # *LPBX1, PROF_edge_counter.2
 607      00
 608 06c5 8B15EC00 		movl	LPBX1+236, %edx	 # *LPBX1, PROF_edge_counter.2
 608      0000
 609 06cb 83C001   		addl	$1, %eax	 #, PROF_edge_counter.2
 610 06ce 83D200   		adcl	$0, %edx	 #, PROF_edge_counter.2
 611 06d1 A3E80000 		movl	%eax, LPBX1+232	 # PROF_edge_counter.2, *LPBX1
 611      00
 612 06d6 8915EC00 		movl	%edx, LPBX1+236	 # PROF_edge_counter.2, *LPBX1
 612      0000
 613              		.loc 1 167 0
 614 06dc 837C244C 		cmpl	$0, 76(%esp)	 #, m
 614      00
 615 06e1 0F94C0   		sete	%al	 #, tmp230
GAS LISTING C:\cygwin\tmp\ccbhk3zs.s 			page 16


 616 06e4 0FB6C0   		movzbl	%al, %eax	 # tmp230, D.2871
 617 06e7 89442404 		movl	%eax, 4(%esp)	 # D.2871,
 618 06eb C7042403 		movl	$3, (%esp)	 #,
 618      000000
 619 06f2 E8000000 		call	__test_assert	 #
 619      00
 620 06f7 84C0     		testb	%al, %al	 # D.2872
 621 06f9 7421     		je	L17	 #,
 622              		.loc 1 167 0 is_stmt 0 discriminator 1
 623 06fb A1F80000 		movl	LPBX1+248, %eax	 # *LPBX1, PROF_edge_counter.2
 623      00
 624 0700 8B15FC00 		movl	LPBX1+252, %edx	 # *LPBX1, PROF_edge_counter.2
 624      0000
 625 0706 83C001   		addl	$1, %eax	 #, PROF_edge_counter.2
 626 0709 83D200   		adcl	$0, %edx	 #, PROF_edge_counter.2
 627 070c A3F80000 		movl	%eax, LPBX1+248	 # PROF_edge_counter.2, *LPBX1
 627      00
 628 0711 8915FC00 		movl	%edx, LPBX1+252	 # PROF_edge_counter.2, *LPBX1
 628      0000
 629 0717 E9FE0800 		jmp	L13	 #
 629      00
 630              	L17:
 631              		.loc 1 167 0
 632 071c A1F00000 		movl	LPBX1+240, %eax	 # *LPBX1, PROF_edge_counter.2
 632      00
 633 0721 8B15F400 		movl	LPBX1+244, %edx	 # *LPBX1, PROF_edge_counter.2
 633      0000
 634 0727 83C001   		addl	$1, %eax	 #, PROF_edge_counter.2
 635 072a 83D200   		adcl	$0, %edx	 #, PROF_edge_counter.2
 636 072d A3F00000 		movl	%eax, LPBX1+240	 # PROF_edge_counter.2, *LPBX1
 636      00
 637 0732 8915F400 		movl	%edx, LPBX1+244	 # PROF_edge_counter.2, *LPBX1
 637      0000
 638              		.loc 1 172 0 is_stmt 1
 639 0738 E8000000 		call	_test_wait_tick	 #
 639      00
 640 073d A1000100 		movl	LPBX1+256, %eax	 # *LPBX1, PROF_edge_counter.2
 640      00
 641 0742 8B150401 		movl	LPBX1+260, %edx	 # *LPBX1, PROF_edge_counter.2
 641      0000
 642 0748 83C001   		addl	$1, %eax	 #, PROF_edge_counter.2
 643 074b 83D200   		adcl	$0, %edx	 #, PROF_edge_counter.2
 644 074e A3000100 		movl	%eax, LPBX1+256	 # PROF_edge_counter.2, *LPBX1
 644      00
 645 0753 89150401 		movl	%edx, LPBX1+260	 # PROF_edge_counter.2, *LPBX1
 645      0000
 646              		.loc 1 173 0
 647 0759 A10C0000 		movl	_vtlist+12, %eax	 # vtlist.vt_systime, D.2875
 647      00
 648 075e 83C032   		addl	$50, %eax	 #, tmp231
 649 0761 89442448 		movl	%eax, 72(%esp)	 # tmp231, target_time
 650              		.loc 1 175 0
 651 0765 8B151800 		movl	_rlist+24, %edx	 # rlist.r_current, D.2876
 651      0000
 652              		.loc 1 174 0
 653 076b A1180000 		movl	_rlist+24, %eax	 # rlist.r_current, D.2877
 653      00
GAS LISTING C:\cygwin\tmp\ccbhk3zs.s 			page 17


 654 0770 8B4008   		movl	8(%eax), %eax	 # D.2877_13->p_prio, D.2878
 655 0773 8D48FF   		leal	-1(%eax), %ecx	 #, D.2879
 656 0776 A1000000 		movl	_wa, %eax	 # wa, D.2880
 656      00
 657 077b 89542410 		movl	%edx, 16(%esp)	 # D.2876,
 658 077f C744240C 		movl	$_thread1, 12(%esp)	 #,
 658      19040000 
 659 0787 894C2408 		movl	%ecx, 8(%esp)	 # D.2879,
 660 078b C7442404 		movl	$17008, 4(%esp)	 #,
 660      70420000 
 661 0793 890424   		movl	%eax, (%esp)	 # D.2880,
 662 0796 E8000000 		call	_chThdCreateStatic	 #
 662      00
 663 079b 89C1     		movl	%eax, %ecx	 #, D.2881
 664 079d A1080100 		movl	LPBX1+264, %eax	 # *LPBX1, PROF_edge_counter.2
 664      00
 665 07a2 8B150C01 		movl	LPBX1+268, %edx	 # *LPBX1, PROF_edge_counter.2
 665      0000
 666 07a8 83C001   		addl	$1, %eax	 #, PROF_edge_counter.2
 667 07ab 83D200   		adcl	$0, %edx	 #, PROF_edge_counter.2
 668 07ae A3080100 		movl	%eax, LPBX1+264	 # PROF_edge_counter.2, *LPBX1
 668      00
 669 07b3 89150C01 		movl	%edx, LPBX1+268	 # PROF_edge_counter.2, *LPBX1
 669      0000
 670 07b9 890D0000 		movl	%ecx, _threads	 # D.2881, threads
 670      0000
 671              		.loc 1 176 0
 672 07bf C7442404 		movl	$-1, 4(%esp)	 #,
 672      FFFFFFFF 
 673 07c7 C70424FF 		movl	$-1, (%esp)	 #,
 673      FFFFFF
 674 07ce E8000000 		call	_chEvtWaitOneTimeout	 #
 674      00
 675 07d3 8944244C 		movl	%eax, 76(%esp)	 # tmp232, m
 676 07d7 A1100100 		movl	LPBX1+272, %eax	 # *LPBX1, PROF_edge_counter.2
 676      00
 677 07dc 8B151401 		movl	LPBX1+276, %edx	 # *LPBX1, PROF_edge_counter.2
 677      0000
 678 07e2 83C001   		addl	$1, %eax	 #, PROF_edge_counter.2
 679 07e5 83D200   		adcl	$0, %edx	 #, PROF_edge_counter.2
 680 07e8 A3100100 		movl	%eax, LPBX1+272	 # PROF_edge_counter.2, *LPBX1
 680      00
 681 07ed 89151401 		movl	%edx, LPBX1+276	 # PROF_edge_counter.2, *LPBX1
 681      0000
 682              		.loc 1 177 0
 683 07f3 8B442448 		movl	72(%esp), %eax	 # target_time, tmp233
 684 07f7 83C005   		addl	$5, %eax	 #, D.2882
 685 07fa 89442408 		movl	%eax, 8(%esp)	 # D.2882,
 686 07fe 8B442448 		movl	72(%esp), %eax	 # target_time, tmp234
 687 0802 89442404 		movl	%eax, 4(%esp)	 # tmp234,
 688 0806 C7042404 		movl	$4, (%esp)	 #,
 688      000000
 689 080d E8000000 		call	__test_assert_time_window	 #
 689      00
 690 0812 84C0     		testb	%al, %al	 # D.2883
 691 0814 7421     		je	L18	 #,
 692              		.loc 1 177 0 is_stmt 0 discriminator 1
GAS LISTING C:\cygwin\tmp\ccbhk3zs.s 			page 18


 693 0816 A1200100 		movl	LPBX1+288, %eax	 # *LPBX1, PROF_edge_counter.2
 693      00
 694 081b 8B152401 		movl	LPBX1+292, %edx	 # *LPBX1, PROF_edge_counter.2
 694      0000
 695 0821 83C001   		addl	$1, %eax	 #, PROF_edge_counter.2
 696 0824 83D200   		adcl	$0, %edx	 #, PROF_edge_counter.2
 697 0827 A3200100 		movl	%eax, LPBX1+288	 # PROF_edge_counter.2, *LPBX1
 697      00
 698 082c 89152401 		movl	%edx, LPBX1+292	 # PROF_edge_counter.2, *LPBX1
 698      0000
 699 0832 E9E30700 		jmp	L13	 #
 699      00
 700              	L18:
 701              		.loc 1 177 0
 702 0837 A1180100 		movl	LPBX1+280, %eax	 # *LPBX1, PROF_edge_counter.2
 702      00
 703 083c 8B151C01 		movl	LPBX1+284, %edx	 # *LPBX1, PROF_edge_counter.2
 703      0000
 704 0842 83C001   		addl	$1, %eax	 #, PROF_edge_counter.2
 705 0845 83D200   		adcl	$0, %edx	 #, PROF_edge_counter.2
 706 0848 A3180100 		movl	%eax, LPBX1+280	 # PROF_edge_counter.2, *LPBX1
 706      00
 707 084d 89151C01 		movl	%edx, LPBX1+284	 # PROF_edge_counter.2, *LPBX1
 707      0000
 708              		.loc 1 178 0 is_stmt 1
 709 0853 837C244C 		cmpl	$1, 76(%esp)	 #, m
 709      01
 710 0858 0F94C0   		sete	%al	 #, tmp235
 711 085b 0FB6C0   		movzbl	%al, %eax	 # tmp235, D.2886
 712 085e 89442404 		movl	%eax, 4(%esp)	 # D.2886,
 713 0862 C7042405 		movl	$5, (%esp)	 #,
 713      000000
 714 0869 E8000000 		call	__test_assert	 #
 714      00
 715 086e 84C0     		testb	%al, %al	 # D.2887
 716 0870 7421     		je	L19	 #,
 717              		.loc 1 178 0 is_stmt 0 discriminator 1
 718 0872 A1300100 		movl	LPBX1+304, %eax	 # *LPBX1, PROF_edge_counter.2
 718      00
 719 0877 8B153401 		movl	LPBX1+308, %edx	 # *LPBX1, PROF_edge_counter.2
 719      0000
 720 087d 83C001   		addl	$1, %eax	 #, PROF_edge_counter.2
 721 0880 83D200   		adcl	$0, %edx	 #, PROF_edge_counter.2
 722 0883 A3300100 		movl	%eax, LPBX1+304	 # PROF_edge_counter.2, *LPBX1
 722      00
 723 0888 89153401 		movl	%edx, LPBX1+308	 # PROF_edge_counter.2, *LPBX1
 723      0000
 724 088e E9870700 		jmp	L13	 #
 724      00
 725              	L19:
 726              		.loc 1 178 0
 727 0893 A1280100 		movl	LPBX1+296, %eax	 # *LPBX1, PROF_edge_counter.2
 727      00
 728 0898 8B152C01 		movl	LPBX1+300, %edx	 # *LPBX1, PROF_edge_counter.2
 728      0000
 729 089e 83C001   		addl	$1, %eax	 #, PROF_edge_counter.2
 730 08a1 83D200   		adcl	$0, %edx	 #, PROF_edge_counter.2
GAS LISTING C:\cygwin\tmp\ccbhk3zs.s 			page 19


 731 08a4 A3280100 		movl	%eax, LPBX1+296	 # PROF_edge_counter.2, *LPBX1
 731      00
 732 08a9 89152C01 		movl	%edx, LPBX1+300	 # PROF_edge_counter.2, *LPBX1
 732      0000
 733              		.loc 1 179 0 is_stmt 1
 734 08af C70424FF 		movl	$-1, (%esp)	 #,
 734      FFFFFF
 735 08b6 E8000000 		call	_chEvtGetAndClearEvents	 #
 735      00
 736 08bb 8944244C 		movl	%eax, 76(%esp)	 # tmp236, m
 737 08bf A1380100 		movl	LPBX1+312, %eax	 # *LPBX1, PROF_edge_counter.2
 737      00
 738 08c4 8B153C01 		movl	LPBX1+316, %edx	 # *LPBX1, PROF_edge_counter.2
 738      0000
 739 08ca 83C001   		addl	$1, %eax	 #, PROF_edge_counter.2
 740 08cd 83D200   		adcl	$0, %edx	 #, PROF_edge_counter.2
 741 08d0 A3380100 		movl	%eax, LPBX1+312	 # PROF_edge_counter.2, *LPBX1
 741      00
 742 08d5 89153C01 		movl	%edx, LPBX1+316	 # PROF_edge_counter.2, *LPBX1
 742      0000
 743              		.loc 1 180 0
 744 08db 837C244C 		cmpl	$0, 76(%esp)	 #, m
 744      00
 745 08e0 0F94C0   		sete	%al	 #, tmp237
 746 08e3 0FB6C0   		movzbl	%al, %eax	 # tmp237, D.2890
 747 08e6 89442404 		movl	%eax, 4(%esp)	 # D.2890,
 748 08ea C7042406 		movl	$6, (%esp)	 #,
 748      000000
 749 08f1 E8000000 		call	__test_assert	 #
 749      00
 750 08f6 84C0     		testb	%al, %al	 # D.2891
 751 08f8 7421     		je	L20	 #,
 752              		.loc 1 180 0 is_stmt 0 discriminator 1
 753 08fa A1480100 		movl	LPBX1+328, %eax	 # *LPBX1, PROF_edge_counter.2
 753      00
 754 08ff 8B154C01 		movl	LPBX1+332, %edx	 # *LPBX1, PROF_edge_counter.2
 754      0000
 755 0905 83C001   		addl	$1, %eax	 #, PROF_edge_counter.2
 756 0908 83D200   		adcl	$0, %edx	 #, PROF_edge_counter.2
 757 090b A3480100 		movl	%eax, LPBX1+328	 # PROF_edge_counter.2, *LPBX1
 757      00
 758 0910 89154C01 		movl	%edx, LPBX1+332	 # PROF_edge_counter.2, *LPBX1
 758      0000
 759 0916 E9FF0600 		jmp	L13	 #
 759      00
 760              	L20:
 761              		.loc 1 180 0
 762 091b A1400100 		movl	LPBX1+320, %eax	 # *LPBX1, PROF_edge_counter.2
 762      00
 763 0920 8B154401 		movl	LPBX1+324, %edx	 # *LPBX1, PROF_edge_counter.2
 763      0000
 764 0926 83C001   		addl	$1, %eax	 #, PROF_edge_counter.2
 765 0929 83D200   		adcl	$0, %edx	 #, PROF_edge_counter.2
 766 092c A3400100 		movl	%eax, LPBX1+320	 # PROF_edge_counter.2, *LPBX1
 766      00
 767 0931 89154401 		movl	%edx, LPBX1+324	 # PROF_edge_counter.2, *LPBX1
 767      0000
GAS LISTING C:\cygwin\tmp\ccbhk3zs.s 			page 20


 768              		.loc 1 181 0 is_stmt 1
 769 0937 E8000000 		call	_test_wait_threads	 #
 769      00
 770 093c A1500100 		movl	LPBX1+336, %eax	 # *LPBX1, PROF_edge_counter.2
 770      00
 771 0941 8B155401 		movl	LPBX1+340, %edx	 # *LPBX1, PROF_edge_counter.2
 771      0000
 772 0947 83C001   		addl	$1, %eax	 #, PROF_edge_counter.2
 773 094a 83D200   		adcl	$0, %edx	 #, PROF_edge_counter.2
 774 094d A3500100 		movl	%eax, LPBX1+336	 # PROF_edge_counter.2, *LPBX1
 774      00
 775 0952 89155401 		movl	%edx, LPBX1+340	 # PROF_edge_counter.2, *LPBX1
 775      0000
 776              		.loc 1 186 0
 777 0958 C7042405 		movl	$5, (%esp)	 #,
 777      000000
 778 095f E8000000 		call	_chEvtAddEvents	 #
 778      00
 779 0964 A1580100 		movl	LPBX1+344, %eax	 # *LPBX1, PROF_edge_counter.2
 779      00
 780 0969 8B155C01 		movl	LPBX1+348, %edx	 # *LPBX1, PROF_edge_counter.2
 780      0000
 781 096f 83C001   		addl	$1, %eax	 #, PROF_edge_counter.2
 782 0972 83D200   		adcl	$0, %edx	 #, PROF_edge_counter.2
 783 0975 A3580100 		movl	%eax, LPBX1+344	 # PROF_edge_counter.2, *LPBX1
 783      00
 784 097a 89155C01 		movl	%edx, LPBX1+348	 # PROF_edge_counter.2, *LPBX1
 784      0000
 785              		.loc 1 187 0
 786 0980 C7442404 		movl	$-1, 4(%esp)	 #,
 786      FFFFFFFF 
 787 0988 C70424FF 		movl	$-1, (%esp)	 #,
 787      FFFFFF
 788 098f E8000000 		call	_chEvtWaitAnyTimeout	 #
 788      00
 789 0994 8944244C 		movl	%eax, 76(%esp)	 # tmp238, m
 790 0998 A1600100 		movl	LPBX1+352, %eax	 # *LPBX1, PROF_edge_counter.2
 790      00
 791 099d 8B156401 		movl	LPBX1+356, %edx	 # *LPBX1, PROF_edge_counter.2
 791      0000
 792 09a3 83C001   		addl	$1, %eax	 #, PROF_edge_counter.2
 793 09a6 83D200   		adcl	$0, %edx	 #, PROF_edge_counter.2
 794 09a9 A3600100 		movl	%eax, LPBX1+352	 # PROF_edge_counter.2, *LPBX1
 794      00
 795 09ae 89156401 		movl	%edx, LPBX1+356	 # PROF_edge_counter.2, *LPBX1
 795      0000
 796              		.loc 1 188 0
 797 09b4 837C244C 		cmpl	$5, 76(%esp)	 #, m
 797      05
 798 09b9 0F94C0   		sete	%al	 #, tmp239
 799 09bc 0FB6C0   		movzbl	%al, %eax	 # tmp239, D.2894
 800 09bf 89442404 		movl	%eax, 4(%esp)	 # D.2894,
 801 09c3 C7042407 		movl	$7, (%esp)	 #,
 801      000000
 802 09ca E8000000 		call	__test_assert	 #
 802      00
 803 09cf 84C0     		testb	%al, %al	 # D.2895
GAS LISTING C:\cygwin\tmp\ccbhk3zs.s 			page 21


 804 09d1 7421     		je	L21	 #,
 805              		.loc 1 188 0 is_stmt 0 discriminator 1
 806 09d3 A1700100 		movl	LPBX1+368, %eax	 # *LPBX1, PROF_edge_counter.2
 806      00
 807 09d8 8B157401 		movl	LPBX1+372, %edx	 # *LPBX1, PROF_edge_counter.2
 807      0000
 808 09de 83C001   		addl	$1, %eax	 #, PROF_edge_counter.2
 809 09e1 83D200   		adcl	$0, %edx	 #, PROF_edge_counter.2
 810 09e4 A3700100 		movl	%eax, LPBX1+368	 # PROF_edge_counter.2, *LPBX1
 810      00
 811 09e9 89157401 		movl	%edx, LPBX1+372	 # PROF_edge_counter.2, *LPBX1
 811      0000
 812 09ef E9260600 		jmp	L13	 #
 812      00
 813              	L21:
 814              		.loc 1 188 0
 815 09f4 A1680100 		movl	LPBX1+360, %eax	 # *LPBX1, PROF_edge_counter.2
 815      00
 816 09f9 8B156C01 		movl	LPBX1+364, %edx	 # *LPBX1, PROF_edge_counter.2
 816      0000
 817 09ff 83C001   		addl	$1, %eax	 #, PROF_edge_counter.2
 818 0a02 83D200   		adcl	$0, %edx	 #, PROF_edge_counter.2
 819 0a05 A3680100 		movl	%eax, LPBX1+360	 # PROF_edge_counter.2, *LPBX1
 819      00
 820 0a0a 89156C01 		movl	%edx, LPBX1+364	 # PROF_edge_counter.2, *LPBX1
 820      0000
 821              		.loc 1 189 0 is_stmt 1
 822 0a10 C70424FF 		movl	$-1, (%esp)	 #,
 822      FFFFFF
 823 0a17 E8000000 		call	_chEvtGetAndClearEvents	 #
 823      00
 824 0a1c 8944244C 		movl	%eax, 76(%esp)	 # tmp240, m
 825 0a20 A1780100 		movl	LPBX1+376, %eax	 # *LPBX1, PROF_edge_counter.2
 825      00
 826 0a25 8B157C01 		movl	LPBX1+380, %edx	 # *LPBX1, PROF_edge_counter.2
 826      0000
 827 0a2b 83C001   		addl	$1, %eax	 #, PROF_edge_counter.2
 828 0a2e 83D200   		adcl	$0, %edx	 #, PROF_edge_counter.2
 829 0a31 A3780100 		movl	%eax, LPBX1+376	 # PROF_edge_counter.2, *LPBX1
 829      00
 830 0a36 89157C01 		movl	%edx, LPBX1+380	 # PROF_edge_counter.2, *LPBX1
 830      0000
 831              		.loc 1 190 0
 832 0a3c 837C244C 		cmpl	$0, 76(%esp)	 #, m
 832      00
 833 0a41 0F94C0   		sete	%al	 #, tmp241
 834 0a44 0FB6C0   		movzbl	%al, %eax	 # tmp241, D.2898
 835 0a47 89442404 		movl	%eax, 4(%esp)	 # D.2898,
 836 0a4b C7042408 		movl	$8, (%esp)	 #,
 836      000000
 837 0a52 E8000000 		call	__test_assert	 #
 837      00
 838 0a57 84C0     		testb	%al, %al	 # D.2899
 839 0a59 7421     		je	L22	 #,
 840              		.loc 1 190 0 is_stmt 0 discriminator 1
 841 0a5b A1880100 		movl	LPBX1+392, %eax	 # *LPBX1, PROF_edge_counter.2
 841      00
GAS LISTING C:\cygwin\tmp\ccbhk3zs.s 			page 22


 842 0a60 8B158C01 		movl	LPBX1+396, %edx	 # *LPBX1, PROF_edge_counter.2
 842      0000
 843 0a66 83C001   		addl	$1, %eax	 #, PROF_edge_counter.2
 844 0a69 83D200   		adcl	$0, %edx	 #, PROF_edge_counter.2
 845 0a6c A3880100 		movl	%eax, LPBX1+392	 # PROF_edge_counter.2, *LPBX1
 845      00
 846 0a71 89158C01 		movl	%edx, LPBX1+396	 # PROF_edge_counter.2, *LPBX1
 846      0000
 847 0a77 E99E0500 		jmp	L13	 #
 847      00
 848              	L22:
 849              		.loc 1 190 0
 850 0a7c A1800100 		movl	LPBX1+384, %eax	 # *LPBX1, PROF_edge_counter.2
 850      00
 851 0a81 8B158401 		movl	LPBX1+388, %edx	 # *LPBX1, PROF_edge_counter.2
 851      0000
 852 0a87 83C001   		addl	$1, %eax	 #, PROF_edge_counter.2
 853 0a8a 83D200   		adcl	$0, %edx	 #, PROF_edge_counter.2
 854 0a8d A3800100 		movl	%eax, LPBX1+384	 # PROF_edge_counter.2, *LPBX1
 854      00
 855 0a92 89158401 		movl	%edx, LPBX1+388	 # PROF_edge_counter.2, *LPBX1
 855      0000
 856              		.loc 1 195 0 is_stmt 1
 857 0a98 E8000000 		call	_test_wait_tick	 #
 857      00
 858 0a9d A1900100 		movl	LPBX1+400, %eax	 # *LPBX1, PROF_edge_counter.2
 858      00
 859 0aa2 8B159401 		movl	LPBX1+404, %edx	 # *LPBX1, PROF_edge_counter.2
 859      0000
 860 0aa8 83C001   		addl	$1, %eax	 #, PROF_edge_counter.2
 861 0aab 83D200   		adcl	$0, %edx	 #, PROF_edge_counter.2
 862 0aae A3900100 		movl	%eax, LPBX1+400	 # PROF_edge_counter.2, *LPBX1
 862      00
 863 0ab3 89159401 		movl	%edx, LPBX1+404	 # PROF_edge_counter.2, *LPBX1
 863      0000
 864              		.loc 1 196 0
 865 0ab9 A10C0000 		movl	_vtlist+12, %eax	 # vtlist.vt_systime, D.2902
 865      00
 866 0abe 83C032   		addl	$50, %eax	 #, tmp242
 867 0ac1 89442448 		movl	%eax, 72(%esp)	 # tmp242, target_time
 868              		.loc 1 198 0
 869 0ac5 8B151800 		movl	_rlist+24, %edx	 # rlist.r_current, D.2903
 869      0000
 870              		.loc 1 197 0
 871 0acb A1180000 		movl	_rlist+24, %eax	 # rlist.r_current, D.2904
 871      00
 872 0ad0 8B4008   		movl	8(%eax), %eax	 # D.2904_35->p_prio, D.2905
 873 0ad3 8D48FF   		leal	-1(%eax), %ecx	 #, D.2906
 874 0ad6 A1000000 		movl	_wa, %eax	 # wa, D.2907
 874      00
 875 0adb 89542410 		movl	%edx, 16(%esp)	 # D.2903,
 876 0adf C744240C 		movl	$_thread1, 12(%esp)	 #,
 876      19040000 
 877 0ae7 894C2408 		movl	%ecx, 8(%esp)	 # D.2906,
 878 0aeb C7442404 		movl	$17008, 4(%esp)	 #,
 878      70420000 
 879 0af3 890424   		movl	%eax, (%esp)	 # D.2907,
GAS LISTING C:\cygwin\tmp\ccbhk3zs.s 			page 23


 880 0af6 E8000000 		call	_chThdCreateStatic	 #
 880      00
 881 0afb 89C1     		movl	%eax, %ecx	 #, D.2908
 882 0afd A1980100 		movl	LPBX1+408, %eax	 # *LPBX1, PROF_edge_counter.2
 882      00
 883 0b02 8B159C01 		movl	LPBX1+412, %edx	 # *LPBX1, PROF_edge_counter.2
 883      0000
 884 0b08 83C001   		addl	$1, %eax	 #, PROF_edge_counter.2
 885 0b0b 83D200   		adcl	$0, %edx	 #, PROF_edge_counter.2
 886 0b0e A3980100 		movl	%eax, LPBX1+408	 # PROF_edge_counter.2, *LPBX1
 886      00
 887 0b13 89159C01 		movl	%edx, LPBX1+412	 # PROF_edge_counter.2, *LPBX1
 887      0000
 888 0b19 890D0000 		movl	%ecx, _threads	 # D.2908, threads
 888      0000
 889              		.loc 1 199 0
 890 0b1f C7442404 		movl	$-1, 4(%esp)	 #,
 890      FFFFFFFF 
 891 0b27 C70424FF 		movl	$-1, (%esp)	 #,
 891      FFFFFF
 892 0b2e E8000000 		call	_chEvtWaitAnyTimeout	 #
 892      00
 893 0b33 8944244C 		movl	%eax, 76(%esp)	 # tmp243, m
 894 0b37 A1A00100 		movl	LPBX1+416, %eax	 # *LPBX1, PROF_edge_counter.2
 894      00
 895 0b3c 8B15A401 		movl	LPBX1+420, %edx	 # *LPBX1, PROF_edge_counter.2
 895      0000
 896 0b42 83C001   		addl	$1, %eax	 #, PROF_edge_counter.2
 897 0b45 83D200   		adcl	$0, %edx	 #, PROF_edge_counter.2
 898 0b48 A3A00100 		movl	%eax, LPBX1+416	 # PROF_edge_counter.2, *LPBX1
 898      00
 899 0b4d 8915A401 		movl	%edx, LPBX1+420	 # PROF_edge_counter.2, *LPBX1
 899      0000
 900              		.loc 1 200 0
 901 0b53 8B442448 		movl	72(%esp), %eax	 # target_time, tmp244
 902 0b57 83C005   		addl	$5, %eax	 #, D.2909
 903 0b5a 89442408 		movl	%eax, 8(%esp)	 # D.2909,
 904 0b5e 8B442448 		movl	72(%esp), %eax	 # target_time, tmp245
 905 0b62 89442404 		movl	%eax, 4(%esp)	 # tmp245,
 906 0b66 C7042409 		movl	$9, (%esp)	 #,
 906      000000
 907 0b6d E8000000 		call	__test_assert_time_window	 #
 907      00
 908 0b72 84C0     		testb	%al, %al	 # D.2910
 909 0b74 7421     		je	L23	 #,
 910              		.loc 1 200 0 is_stmt 0 discriminator 1
 911 0b76 A1B00100 		movl	LPBX1+432, %eax	 # *LPBX1, PROF_edge_counter.2
 911      00
 912 0b7b 8B15B401 		movl	LPBX1+436, %edx	 # *LPBX1, PROF_edge_counter.2
 912      0000
 913 0b81 83C001   		addl	$1, %eax	 #, PROF_edge_counter.2
 914 0b84 83D200   		adcl	$0, %edx	 #, PROF_edge_counter.2
 915 0b87 A3B00100 		movl	%eax, LPBX1+432	 # PROF_edge_counter.2, *LPBX1
 915      00
 916 0b8c 8915B401 		movl	%edx, LPBX1+436	 # PROF_edge_counter.2, *LPBX1
 916      0000
 917 0b92 E9830400 		jmp	L13	 #
GAS LISTING C:\cygwin\tmp\ccbhk3zs.s 			page 24


 917      00
 918              	L23:
 919              		.loc 1 200 0
 920 0b97 A1A80100 		movl	LPBX1+424, %eax	 # *LPBX1, PROF_edge_counter.2
 920      00
 921 0b9c 8B15AC01 		movl	LPBX1+428, %edx	 # *LPBX1, PROF_edge_counter.2
 921      0000
 922 0ba2 83C001   		addl	$1, %eax	 #, PROF_edge_counter.2
 923 0ba5 83D200   		adcl	$0, %edx	 #, PROF_edge_counter.2
 924 0ba8 A3A80100 		movl	%eax, LPBX1+424	 # PROF_edge_counter.2, *LPBX1
 924      00
 925 0bad 8915AC01 		movl	%edx, LPBX1+428	 # PROF_edge_counter.2, *LPBX1
 925      0000
 926              		.loc 1 201 0 is_stmt 1
 927 0bb3 837C244C 		cmpl	$1, 76(%esp)	 #, m
 927      01
 928 0bb8 0F94C0   		sete	%al	 #, tmp246
 929 0bbb 0FB6C0   		movzbl	%al, %eax	 # tmp246, D.2913
 930 0bbe 89442404 		movl	%eax, 4(%esp)	 # D.2913,
 931 0bc2 C704240A 		movl	$10, (%esp)	 #,
 931      000000
 932 0bc9 E8000000 		call	__test_assert	 #
 932      00
 933 0bce 84C0     		testb	%al, %al	 # D.2914
 934 0bd0 7421     		je	L24	 #,
 935              		.loc 1 201 0 is_stmt 0 discriminator 1
 936 0bd2 A1C00100 		movl	LPBX1+448, %eax	 # *LPBX1, PROF_edge_counter.2
 936      00
 937 0bd7 8B15C401 		movl	LPBX1+452, %edx	 # *LPBX1, PROF_edge_counter.2
 937      0000
 938 0bdd 83C001   		addl	$1, %eax	 #, PROF_edge_counter.2
 939 0be0 83D200   		adcl	$0, %edx	 #, PROF_edge_counter.2
 940 0be3 A3C00100 		movl	%eax, LPBX1+448	 # PROF_edge_counter.2, *LPBX1
 940      00
 941 0be8 8915C401 		movl	%edx, LPBX1+452	 # PROF_edge_counter.2, *LPBX1
 941      0000
 942 0bee E9270400 		jmp	L13	 #
 942      00
 943              	L24:
 944              		.loc 1 201 0
 945 0bf3 A1B80100 		movl	LPBX1+440, %eax	 # *LPBX1, PROF_edge_counter.2
 945      00
 946 0bf8 8B15BC01 		movl	LPBX1+444, %edx	 # *LPBX1, PROF_edge_counter.2
 946      0000
 947 0bfe 83C001   		addl	$1, %eax	 #, PROF_edge_counter.2
 948 0c01 83D200   		adcl	$0, %edx	 #, PROF_edge_counter.2
 949 0c04 A3B80100 		movl	%eax, LPBX1+440	 # PROF_edge_counter.2, *LPBX1
 949      00
 950 0c09 8915BC01 		movl	%edx, LPBX1+444	 # PROF_edge_counter.2, *LPBX1
 950      0000
 951              		.loc 1 202 0 is_stmt 1
 952 0c0f C70424FF 		movl	$-1, (%esp)	 #,
 952      FFFFFF
 953 0c16 E8000000 		call	_chEvtGetAndClearEvents	 #
 953      00
 954 0c1b 8944244C 		movl	%eax, 76(%esp)	 # tmp247, m
 955 0c1f A1C80100 		movl	LPBX1+456, %eax	 # *LPBX1, PROF_edge_counter.2
GAS LISTING C:\cygwin\tmp\ccbhk3zs.s 			page 25


 955      00
 956 0c24 8B15CC01 		movl	LPBX1+460, %edx	 # *LPBX1, PROF_edge_counter.2
 956      0000
 957 0c2a 83C001   		addl	$1, %eax	 #, PROF_edge_counter.2
 958 0c2d 83D200   		adcl	$0, %edx	 #, PROF_edge_counter.2
 959 0c30 A3C80100 		movl	%eax, LPBX1+456	 # PROF_edge_counter.2, *LPBX1
 959      00
 960 0c35 8915CC01 		movl	%edx, LPBX1+460	 # PROF_edge_counter.2, *LPBX1
 960      0000
 961              		.loc 1 203 0
 962 0c3b 837C244C 		cmpl	$0, 76(%esp)	 #, m
 962      00
 963 0c40 0F94C0   		sete	%al	 #, tmp248
 964 0c43 0FB6C0   		movzbl	%al, %eax	 # tmp248, D.2917
 965 0c46 89442404 		movl	%eax, 4(%esp)	 # D.2917,
 966 0c4a C704240B 		movl	$11, (%esp)	 #,
 966      000000
 967 0c51 E8000000 		call	__test_assert	 #
 967      00
 968 0c56 84C0     		testb	%al, %al	 # D.2918
 969 0c58 7421     		je	L25	 #,
 970              		.loc 1 203 0 is_stmt 0 discriminator 1
 971 0c5a A1D80100 		movl	LPBX1+472, %eax	 # *LPBX1, PROF_edge_counter.2
 971      00
 972 0c5f 8B15DC01 		movl	LPBX1+476, %edx	 # *LPBX1, PROF_edge_counter.2
 972      0000
 973 0c65 83C001   		addl	$1, %eax	 #, PROF_edge_counter.2
 974 0c68 83D200   		adcl	$0, %edx	 #, PROF_edge_counter.2
 975 0c6b A3D80100 		movl	%eax, LPBX1+472	 # PROF_edge_counter.2, *LPBX1
 975      00
 976 0c70 8915DC01 		movl	%edx, LPBX1+476	 # PROF_edge_counter.2, *LPBX1
 976      0000
 977 0c76 E99F0300 		jmp	L13	 #
 977      00
 978              	L25:
 979              		.loc 1 203 0
 980 0c7b A1D00100 		movl	LPBX1+464, %eax	 # *LPBX1, PROF_edge_counter.2
 980      00
 981 0c80 8B15D401 		movl	LPBX1+468, %edx	 # *LPBX1, PROF_edge_counter.2
 981      0000
 982 0c86 83C001   		addl	$1, %eax	 #, PROF_edge_counter.2
 983 0c89 83D200   		adcl	$0, %edx	 #, PROF_edge_counter.2
 984 0c8c A3D00100 		movl	%eax, LPBX1+464	 # PROF_edge_counter.2, *LPBX1
 984      00
 985 0c91 8915D401 		movl	%edx, LPBX1+468	 # PROF_edge_counter.2, *LPBX1
 985      0000
 986              		.loc 1 204 0 is_stmt 1
 987 0c97 E8000000 		call	_test_wait_threads	 #
 987      00
 988 0c9c A1E00100 		movl	LPBX1+480, %eax	 # *LPBX1, PROF_edge_counter.2
 988      00
 989 0ca1 8B15E401 		movl	LPBX1+484, %edx	 # *LPBX1, PROF_edge_counter.2
 989      0000
 990 0ca7 83C001   		addl	$1, %eax	 #, PROF_edge_counter.2
 991 0caa 83D200   		adcl	$0, %edx	 #, PROF_edge_counter.2
 992 0cad A3E00100 		movl	%eax, LPBX1+480	 # PROF_edge_counter.2, *LPBX1
 992      00
GAS LISTING C:\cygwin\tmp\ccbhk3zs.s 			page 26


 993 0cb2 8915E401 		movl	%edx, LPBX1+484	 # PROF_edge_counter.2, *LPBX1
 993      0000
 994              		.loc 1 209 0
 995 0cb8 C7050000 		movl	$_es1, _es1	 #, es1.es_next
 995      00000000 
 995      0000
 996              		.loc 1 210 0
 997 0cc2 C7050400 		movl	$_es2, _es2	 #, es2.es_next
 997      00000400 
 997      0000
 998              		.loc 1 211 0
 999 0ccc C7442408 		movl	$1, 8(%esp)	 #,
 999      01000000 
 1000 0cd4 8D442438 		leal	56(%esp), %eax	 #, tmp249
 1001 0cd8 89442404 		movl	%eax, 4(%esp)	 # tmp249,
 1002 0cdc C7042400 		movl	$_es1, (%esp)	 #,
 1002      000000
 1003 0ce3 E8000000 		call	_chEvtRegisterMask	 #
 1003      00
 1004 0ce8 A1E80100 		movl	LPBX1+488, %eax	 # *LPBX1, PROF_edge_counter.2
 1004      00
 1005 0ced 8B15EC01 		movl	LPBX1+492, %edx	 # *LPBX1, PROF_edge_counter.2
 1005      0000
 1006 0cf3 83C001   		addl	$1, %eax	 #, PROF_edge_counter.2
 1007 0cf6 83D200   		adcl	$0, %edx	 #, PROF_edge_counter.2
 1008 0cf9 A3E80100 		movl	%eax, LPBX1+488	 # PROF_edge_counter.2, *LPBX1
 1008      00
 1009 0cfe 8915EC01 		movl	%edx, LPBX1+492	 # PROF_edge_counter.2, *LPBX1
 1009      0000
 1010              		.loc 1 212 0
 1011 0d04 C7442408 		movl	$4, 8(%esp)	 #,
 1011      04000000 
 1012 0d0c 8D442428 		leal	40(%esp), %eax	 #, tmp250
 1013 0d10 89442404 		movl	%eax, 4(%esp)	 # tmp250,
 1014 0d14 C7042404 		movl	$_es2, (%esp)	 #,
 1014      000000
 1015 0d1b E8000000 		call	_chEvtRegisterMask	 #
 1015      00
 1016 0d20 A1F00100 		movl	LPBX1+496, %eax	 # *LPBX1, PROF_edge_counter.2
 1016      00
 1017 0d25 8B15F401 		movl	LPBX1+500, %edx	 # *LPBX1, PROF_edge_counter.2
 1017      0000
 1018 0d2b 83C001   		addl	$1, %eax	 #, PROF_edge_counter.2
 1019 0d2e 83D200   		adcl	$0, %edx	 #, PROF_edge_counter.2
 1020 0d31 A3F00100 		movl	%eax, LPBX1+496	 # PROF_edge_counter.2, *LPBX1
 1020      00
 1021 0d36 8915F401 		movl	%edx, LPBX1+500	 # PROF_edge_counter.2, *LPBX1
 1021      0000
 1022              		.loc 1 213 0
 1023 0d3c E8000000 		call	_test_wait_tick	 #
 1023      00
 1024 0d41 A1F80100 		movl	LPBX1+504, %eax	 # *LPBX1, PROF_edge_counter.2
 1024      00
 1025 0d46 8B15FC01 		movl	LPBX1+508, %edx	 # *LPBX1, PROF_edge_counter.2
 1025      0000
 1026 0d4c 83C001   		addl	$1, %eax	 #, PROF_edge_counter.2
 1027 0d4f 83D200   		adcl	$0, %edx	 #, PROF_edge_counter.2
GAS LISTING C:\cygwin\tmp\ccbhk3zs.s 			page 27


 1028 0d52 A3F80100 		movl	%eax, LPBX1+504	 # PROF_edge_counter.2, *LPBX1
 1028      00
 1029 0d57 8915FC01 		movl	%edx, LPBX1+508	 # PROF_edge_counter.2, *LPBX1
 1029      0000
 1030              		.loc 1 214 0
 1031 0d5d A10C0000 		movl	_vtlist+12, %eax	 # vtlist.vt_systime, D.2921
 1031      00
 1032 0d62 83C032   		addl	$50, %eax	 #, tmp251
 1033 0d65 89442448 		movl	%eax, 72(%esp)	 # tmp251, target_time
 1034              		.loc 1 215 0
 1035 0d69 A1180000 		movl	_rlist+24, %eax	 # rlist.r_current, D.2922
 1035      00
 1036 0d6e 8B4008   		movl	8(%eax), %eax	 # D.2922_50->p_prio, D.2923
 1037 0d71 8D50FF   		leal	-1(%eax), %edx	 #, D.2924
 1038 0d74 A1000000 		movl	_wa, %eax	 # wa, D.2925
 1038      00
 1039 0d79 C7442410 		movl	$LC2, 16(%esp)	 #,
 1039      44000000 
 1040 0d81 C744240C 		movl	$_thread2, 12(%esp)	 #,
 1040      99040000 
 1041 0d89 89542408 		movl	%edx, 8(%esp)	 # D.2924,
 1042 0d8d C7442404 		movl	$17008, 4(%esp)	 #,
 1042      70420000 
 1043 0d95 890424   		movl	%eax, (%esp)	 # D.2925,
 1044 0d98 E8000000 		call	_chThdCreateStatic	 #
 1044      00
 1045 0d9d 89C1     		movl	%eax, %ecx	 #, D.2926
 1046 0d9f A1000200 		movl	LPBX1+512, %eax	 # *LPBX1, PROF_edge_counter.2
 1046      00
 1047 0da4 8B150402 		movl	LPBX1+516, %edx	 # *LPBX1, PROF_edge_counter.2
 1047      0000
 1048 0daa 83C001   		addl	$1, %eax	 #, PROF_edge_counter.2
 1049 0dad 83D200   		adcl	$0, %edx	 #, PROF_edge_counter.2
 1050 0db0 A3000200 		movl	%eax, LPBX1+512	 # PROF_edge_counter.2, *LPBX1
 1050      00
 1051 0db5 89150402 		movl	%edx, LPBX1+516	 # PROF_edge_counter.2, *LPBX1
 1051      0000
 1052 0dbb 890D0000 		movl	%ecx, _threads	 # D.2926, threads
 1052      0000
 1053              		.loc 1 217 0
 1054 0dc1 C7442404 		movl	$-1, 4(%esp)	 #,
 1054      FFFFFFFF 
 1055 0dc9 C7042405 		movl	$5, (%esp)	 #,
 1055      000000
 1056 0dd0 E8000000 		call	_chEvtWaitAllTimeout	 #
 1056      00
 1057 0dd5 8944244C 		movl	%eax, 76(%esp)	 # tmp252, m
 1058 0dd9 A1080200 		movl	LPBX1+520, %eax	 # *LPBX1, PROF_edge_counter.2
 1058      00
 1059 0dde 8B150C02 		movl	LPBX1+524, %edx	 # *LPBX1, PROF_edge_counter.2
 1059      0000
 1060 0de4 83C001   		addl	$1, %eax	 #, PROF_edge_counter.2
 1061 0de7 83D200   		adcl	$0, %edx	 #, PROF_edge_counter.2
 1062 0dea A3080200 		movl	%eax, LPBX1+520	 # PROF_edge_counter.2, *LPBX1
 1062      00
 1063 0def 89150C02 		movl	%edx, LPBX1+524	 # PROF_edge_counter.2, *LPBX1
 1063      0000
GAS LISTING C:\cygwin\tmp\ccbhk3zs.s 			page 28


 1064              		.loc 1 218 0
 1065 0df5 8B442448 		movl	72(%esp), %eax	 # target_time, tmp253
 1066 0df9 83C005   		addl	$5, %eax	 #, D.2927
 1067 0dfc 89442408 		movl	%eax, 8(%esp)	 # D.2927,
 1068 0e00 8B442448 		movl	72(%esp), %eax	 # target_time, tmp254
 1069 0e04 89442404 		movl	%eax, 4(%esp)	 # tmp254,
 1070 0e08 C704240C 		movl	$12, (%esp)	 #,
 1070      000000
 1071 0e0f E8000000 		call	__test_assert_time_window	 #
 1071      00
 1072 0e14 84C0     		testb	%al, %al	 # D.2928
 1073 0e16 7421     		je	L26	 #,
 1074              		.loc 1 218 0 is_stmt 0 discriminator 1
 1075 0e18 A1180200 		movl	LPBX1+536, %eax	 # *LPBX1, PROF_edge_counter.2
 1075      00
 1076 0e1d 8B151C02 		movl	LPBX1+540, %edx	 # *LPBX1, PROF_edge_counter.2
 1076      0000
 1077 0e23 83C001   		addl	$1, %eax	 #, PROF_edge_counter.2
 1078 0e26 83D200   		adcl	$0, %edx	 #, PROF_edge_counter.2
 1079 0e29 A3180200 		movl	%eax, LPBX1+536	 # PROF_edge_counter.2, *LPBX1
 1079      00
 1080 0e2e 89151C02 		movl	%edx, LPBX1+540	 # PROF_edge_counter.2, *LPBX1
 1080      0000
 1081 0e34 E9E10100 		jmp	L13	 #
 1081      00
 1082              	L26:
 1083              		.loc 1 218 0
 1084 0e39 A1100200 		movl	LPBX1+528, %eax	 # *LPBX1, PROF_edge_counter.2
 1084      00
 1085 0e3e 8B151402 		movl	LPBX1+532, %edx	 # *LPBX1, PROF_edge_counter.2
 1085      0000
 1086 0e44 83C001   		addl	$1, %eax	 #, PROF_edge_counter.2
 1087 0e47 83D200   		adcl	$0, %edx	 #, PROF_edge_counter.2
 1088 0e4a A3100200 		movl	%eax, LPBX1+528	 # PROF_edge_counter.2, *LPBX1
 1088      00
 1089 0e4f 89151402 		movl	%edx, LPBX1+532	 # PROF_edge_counter.2, *LPBX1
 1089      0000
 1090              		.loc 1 219 0 is_stmt 1
 1091 0e55 C70424FF 		movl	$-1, (%esp)	 #,
 1091      FFFFFF
 1092 0e5c E8000000 		call	_chEvtGetAndClearEvents	 #
 1092      00
 1093 0e61 8944244C 		movl	%eax, 76(%esp)	 # tmp255, m
 1094 0e65 A1200200 		movl	LPBX1+544, %eax	 # *LPBX1, PROF_edge_counter.2
 1094      00
 1095 0e6a 8B152402 		movl	LPBX1+548, %edx	 # *LPBX1, PROF_edge_counter.2
 1095      0000
 1096 0e70 83C001   		addl	$1, %eax	 #, PROF_edge_counter.2
 1097 0e73 83D200   		adcl	$0, %edx	 #, PROF_edge_counter.2
 1098 0e76 A3200200 		movl	%eax, LPBX1+544	 # PROF_edge_counter.2, *LPBX1
 1098      00
 1099 0e7b 89152402 		movl	%edx, LPBX1+548	 # PROF_edge_counter.2, *LPBX1
 1099      0000
 1100              		.loc 1 220 0
 1101 0e81 837C244C 		cmpl	$0, 76(%esp)	 #, m
 1101      00
 1102 0e86 0F94C0   		sete	%al	 #, tmp256
GAS LISTING C:\cygwin\tmp\ccbhk3zs.s 			page 29


 1103 0e89 0FB6C0   		movzbl	%al, %eax	 # tmp256, D.2931
 1104 0e8c 89442404 		movl	%eax, 4(%esp)	 # D.2931,
 1105 0e90 C704240D 		movl	$13, (%esp)	 #,
 1105      000000
 1106 0e97 E8000000 		call	__test_assert	 #
 1106      00
 1107 0e9c 84C0     		testb	%al, %al	 # D.2932
 1108 0e9e 7421     		je	L27	 #,
 1109              		.loc 1 220 0 is_stmt 0 discriminator 1
 1110 0ea0 A1300200 		movl	LPBX1+560, %eax	 # *LPBX1, PROF_edge_counter.2
 1110      00
 1111 0ea5 8B153402 		movl	LPBX1+564, %edx	 # *LPBX1, PROF_edge_counter.2
 1111      0000
 1112 0eab 83C001   		addl	$1, %eax	 #, PROF_edge_counter.2
 1113 0eae 83D200   		adcl	$0, %edx	 #, PROF_edge_counter.2
 1114 0eb1 A3300200 		movl	%eax, LPBX1+560	 # PROF_edge_counter.2, *LPBX1
 1114      00
 1115 0eb6 89153402 		movl	%edx, LPBX1+564	 # PROF_edge_counter.2, *LPBX1
 1115      0000
 1116 0ebc E9590100 		jmp	L13	 #
 1116      00
 1117              	L27:
 1118              		.loc 1 220 0
 1119 0ec1 A1280200 		movl	LPBX1+552, %eax	 # *LPBX1, PROF_edge_counter.2
 1119      00
 1120 0ec6 8B152C02 		movl	LPBX1+556, %edx	 # *LPBX1, PROF_edge_counter.2
 1120      0000
 1121 0ecc 83C001   		addl	$1, %eax	 #, PROF_edge_counter.2
 1122 0ecf 83D200   		adcl	$0, %edx	 #, PROF_edge_counter.2
 1123 0ed2 A3280200 		movl	%eax, LPBX1+552	 # PROF_edge_counter.2, *LPBX1
 1123      00
 1124 0ed7 89152C02 		movl	%edx, LPBX1+556	 # PROF_edge_counter.2, *LPBX1
 1124      0000
 1125              		.loc 1 221 0 is_stmt 1
 1126 0edd E8000000 		call	_test_wait_threads	 #
 1126      00
 1127 0ee2 A1380200 		movl	LPBX1+568, %eax	 # *LPBX1, PROF_edge_counter.2
 1127      00
 1128 0ee7 8B153C02 		movl	LPBX1+572, %edx	 # *LPBX1, PROF_edge_counter.2
 1128      0000
 1129 0eed 83C001   		addl	$1, %eax	 #, PROF_edge_counter.2
 1130 0ef0 83D200   		adcl	$0, %edx	 #, PROF_edge_counter.2
 1131 0ef3 A3380200 		movl	%eax, LPBX1+568	 # PROF_edge_counter.2, *LPBX1
 1131      00
 1132 0ef8 89153C02 		movl	%edx, LPBX1+572	 # PROF_edge_counter.2, *LPBX1
 1132      0000
 1133              		.loc 1 222 0
 1134 0efe 8D442438 		leal	56(%esp), %eax	 #, tmp257
 1135 0f02 89442404 		movl	%eax, 4(%esp)	 # tmp257,
 1136 0f06 C7042400 		movl	$_es1, (%esp)	 #,
 1136      000000
 1137 0f0d E8000000 		call	_chEvtUnregister	 #
 1137      00
 1138 0f12 A1400200 		movl	LPBX1+576, %eax	 # *LPBX1, PROF_edge_counter.2
 1138      00
 1139 0f17 8B154402 		movl	LPBX1+580, %edx	 # *LPBX1, PROF_edge_counter.2
 1139      0000
GAS LISTING C:\cygwin\tmp\ccbhk3zs.s 			page 30


 1140 0f1d 83C001   		addl	$1, %eax	 #, PROF_edge_counter.2
 1141 0f20 83D200   		adcl	$0, %edx	 #, PROF_edge_counter.2
 1142 0f23 A3400200 		movl	%eax, LPBX1+576	 # PROF_edge_counter.2, *LPBX1
 1142      00
 1143 0f28 89154402 		movl	%edx, LPBX1+580	 # PROF_edge_counter.2, *LPBX1
 1143      0000
 1144              		.loc 1 223 0
 1145 0f2e 8D442428 		leal	40(%esp), %eax	 #, tmp258
 1146 0f32 89442404 		movl	%eax, 4(%esp)	 # tmp258,
 1147 0f36 C7042404 		movl	$_es2, (%esp)	 #,
 1147      000000
 1148 0f3d E8000000 		call	_chEvtUnregister	 #
 1148      00
 1149 0f42 A1480200 		movl	LPBX1+584, %eax	 # *LPBX1, PROF_edge_counter.2
 1149      00
 1150 0f47 8B154C02 		movl	LPBX1+588, %edx	 # *LPBX1, PROF_edge_counter.2
 1150      0000
 1151 0f4d 83C001   		addl	$1, %eax	 #, PROF_edge_counter.2
 1152 0f50 83D200   		adcl	$0, %edx	 #, PROF_edge_counter.2
 1153 0f53 A3480200 		movl	%eax, LPBX1+584	 # PROF_edge_counter.2, *LPBX1
 1153      00
 1154 0f58 89154C02 		movl	%edx, LPBX1+588	 # PROF_edge_counter.2, *LPBX1
 1154      0000
 1155              		.loc 1 224 0
 1156 0f5e A1000000 		movl	_es1, %eax	 # es1.es_next, D.2935
 1156      00
 1157 0f63 3D000000 		cmpl	$_es1, %eax	 #, D.2935
 1157      00
 1158 0f68 0F94C0   		sete	%al	 #, tmp259
 1159 0f6b 0FB6C0   		movzbl	%al, %eax	 # tmp259, D.2936
 1160 0f6e 89442404 		movl	%eax, 4(%esp)	 # D.2936,
 1161 0f72 C704240E 		movl	$14, (%esp)	 #,
 1161      000000
 1162 0f79 E8000000 		call	__test_assert	 #
 1162      00
 1163 0f7e 84C0     		testb	%al, %al	 # D.2937
 1164 0f80 741E     		je	L28	 #,
 1165              		.loc 1 224 0 is_stmt 0 discriminator 1
 1166 0f82 A1580200 		movl	LPBX1+600, %eax	 # *LPBX1, PROF_edge_counter.2
 1166      00
 1167 0f87 8B155C02 		movl	LPBX1+604, %edx	 # *LPBX1, PROF_edge_counter.2
 1167      0000
 1168 0f8d 83C001   		addl	$1, %eax	 #, PROF_edge_counter.2
 1169 0f90 83D200   		adcl	$0, %edx	 #, PROF_edge_counter.2
 1170 0f93 A3580200 		movl	%eax, LPBX1+600	 # PROF_edge_counter.2, *LPBX1
 1170      00
 1171 0f98 89155C02 		movl	%edx, LPBX1+604	 # PROF_edge_counter.2, *LPBX1
 1171      0000
 1172 0f9e EB7A     		jmp	L13	 #
 1173              	L28:
 1174              		.loc 1 224 0
 1175 0fa0 A1500200 		movl	LPBX1+592, %eax	 # *LPBX1, PROF_edge_counter.2
 1175      00
 1176 0fa5 8B155402 		movl	LPBX1+596, %edx	 # *LPBX1, PROF_edge_counter.2
 1176      0000
 1177 0fab 83C001   		addl	$1, %eax	 #, PROF_edge_counter.2
 1178 0fae 83D200   		adcl	$0, %edx	 #, PROF_edge_counter.2
GAS LISTING C:\cygwin\tmp\ccbhk3zs.s 			page 31


 1179 0fb1 A3500200 		movl	%eax, LPBX1+592	 # PROF_edge_counter.2, *LPBX1
 1179      00
 1180 0fb6 89155402 		movl	%edx, LPBX1+596	 # PROF_edge_counter.2, *LPBX1
 1180      0000
 1181              		.loc 1 225 0 is_stmt 1
 1182 0fbc A1040000 		movl	_es2, %eax	 # es2.es_next, D.2940
 1182      00
 1183 0fc1 3D040000 		cmpl	$_es2, %eax	 #, D.2940
 1183      00
 1184 0fc6 0F94C0   		sete	%al	 #, tmp260
 1185 0fc9 0FB6C0   		movzbl	%al, %eax	 # tmp260, D.2941
 1186 0fcc 89442404 		movl	%eax, 4(%esp)	 # D.2941,
 1187 0fd0 C704240F 		movl	$15, (%esp)	 #,
 1187      000000
 1188 0fd7 E8000000 		call	__test_assert	 #
 1188      00
 1189 0fdc 88C1     		movb	%al, %cl	 #, D.2942
 1190 0fde A1600200 		movl	LPBX1+608, %eax	 # *LPBX1, PROF_edge_counter.2
 1190      00
 1191 0fe3 8B156402 		movl	LPBX1+612, %edx	 # *LPBX1, PROF_edge_counter.2
 1191      0000
 1192 0fe9 83C001   		addl	$1, %eax	 #, PROF_edge_counter.2
 1193 0fec 83D200   		adcl	$0, %edx	 #, PROF_edge_counter.2
 1194 0fef A3600200 		movl	%eax, LPBX1+608	 # PROF_edge_counter.2, *LPBX1
 1194      00
 1195 0ff4 89156402 		movl	%edx, LPBX1+612	 # PROF_edge_counter.2, *LPBX1
 1195      0000
 1196 0ffa 84C9     		testb	%cl, %cl	 # D.2942
 1197 0ffc 741C     		je	L13	 #,
 1198              		.loc 1 225 0 is_stmt 0 discriminator 1
 1199 0ffe A1680200 		movl	LPBX1+616, %eax	 # *LPBX1, PROF_edge_counter.2
 1199      00
 1200 1003 8B156C02 		movl	LPBX1+620, %edx	 # *LPBX1, PROF_edge_counter.2
 1200      0000
 1201 1009 83C001   		addl	$1, %eax	 #, PROF_edge_counter.2
 1202 100c 83D200   		adcl	$0, %edx	 #, PROF_edge_counter.2
 1203 100f A3680200 		movl	%eax, LPBX1+616	 # PROF_edge_counter.2, *LPBX1
 1203      00
 1204 1014 89156C02 		movl	%edx, LPBX1+620	 # PROF_edge_counter.2, *LPBX1
 1204      0000
 1205              	L13:
 1206              		.loc 1 226 0 is_stmt 1
 1207 101a 83C45C   		addl	$92, %esp	 #,
 1208              	LCFI17:
 1209              		.cfi_def_cfa_offset 4
 1210 101d C3       		ret
 1211              		.cfi_endproc
 1212              	LFE8:
 1213              		.globl	_testevt2
 1214              		.section .rdata,"dr"
 1215              	LC3:
 1216 0046 4576656E 		.ascii "Events, wait and broadcast\0"
 1216      74732C20 
 1216      77616974 
 1216      20616E64 
 1216      2062726F 
 1217 0061 000000   		.align 4
GAS LISTING C:\cygwin\tmp\ccbhk3zs.s 			page 32


 1218              	_testevt2:
 1219              	 # name:
 1220 0064 46000000 		.long	LC3
 1221              	 # setup:
 1222 0068 CE030000 		.long	_evt2_setup
 1223              	 # teardown:
 1224 006c 00000000 		.long	0
 1225              	 # execute:
 1226 0070 49050000 		.long	_evt2_execute
 1227              		.text
 1228              		.def	_evt3_setup;	.scl	3;	.type	32;	.endef
 1229              	_evt3_setup:
 1230              	LFB9:
 1231              		.loc 1 251 0
 1232              		.cfi_startproc
 1233 101e 83EC1C   		subl	$28, %esp	 #,
 1234              	LCFI18:
 1235              		.cfi_def_cfa_offset 32
 1236              		.loc 1 251 0
 1237 1021 A1980000 		movl	LPBX1+152, %eax	 # *LPBX1, PROF_edge_counter.1
 1237      00
 1238 1026 8B159C00 		movl	LPBX1+156, %edx	 # *LPBX1, PROF_edge_counter.1
 1238      0000
 1239 102c 83C001   		addl	$1, %eax	 #, PROF_edge_counter.1
 1240 102f 83D200   		adcl	$0, %edx	 #, PROF_edge_counter.1
 1241 1032 A3980000 		movl	%eax, LPBX1+152	 # PROF_edge_counter.1, *LPBX1
 1241      00
 1242 1037 89159C00 		movl	%edx, LPBX1+156	 # PROF_edge_counter.1, *LPBX1
 1242      0000
 1243              		.loc 1 253 0
 1244 103d C70424FF 		movl	$-1, (%esp)	 #,
 1244      FFFFFF
 1245 1044 E8000000 		call	_chEvtGetAndClearEvents	 #
 1245      00
 1246 1049 A1A00000 		movl	LPBX1+160, %eax	 # *LPBX1, PROF_edge_counter.1
 1246      00
 1247 104e 8B15A400 		movl	LPBX1+164, %edx	 # *LPBX1, PROF_edge_counter.1
 1247      0000
 1248 1054 83C001   		addl	$1, %eax	 #, PROF_edge_counter.1
 1249 1057 83D200   		adcl	$0, %edx	 #, PROF_edge_counter.1
 1250 105a A3A00000 		movl	%eax, LPBX1+160	 # PROF_edge_counter.1, *LPBX1
 1250      00
 1251 105f 8915A400 		movl	%edx, LPBX1+164	 # PROF_edge_counter.1, *LPBX1
 1251      0000
 1252              		.loc 1 254 0
 1253 1065 83C41C   		addl	$28, %esp	 #,
 1254              	LCFI19:
 1255              		.cfi_def_cfa_offset 4
 1256 1068 C3       		ret
 1257              		.cfi_endproc
 1258              	LFE9:
 1259              		.def	_evt3_execute;	.scl	3;	.type	32;	.endef
 1260              	_evt3_execute:
 1261              	LFB10:
 1262              		.loc 1 256 0
 1263              		.cfi_startproc
 1264 1069 83EC2C   		subl	$44, %esp	 #,
GAS LISTING C:\cygwin\tmp\ccbhk3zs.s 			page 33


 1265              	LCFI20:
 1266              		.cfi_def_cfa_offset 48
 1267              		.loc 1 256 0
 1268 106c A1000000 		movl	LPBX1, %eax	 # *LPBX1, PROF_edge_counter.0
 1268      00
 1269 1071 8B150400 		movl	LPBX1+4, %edx	 # *LPBX1, PROF_edge_counter.0
 1269      0000
 1270 1077 83C001   		addl	$1, %eax	 #, PROF_edge_counter.0
 1271 107a 83D200   		adcl	$0, %edx	 #, PROF_edge_counter.0
 1272 107d A3000000 		movl	%eax, LPBX1	 # PROF_edge_counter.0, *LPBX1
 1272      00
 1273 1082 89150400 		movl	%edx, LPBX1+4	 # PROF_edge_counter.0, *LPBX1
 1273      0000
 1274              		.loc 1 262 0
 1275 1088 C7442404 		movl	$0, 4(%esp)	 #,
 1275      00000000 
 1276 1090 C70424FF 		movl	$-1, (%esp)	 #,
 1276      FFFFFF
 1277 1097 E8000000 		call	_chEvtWaitOneTimeout	 #
 1277      00
 1278 109c 8944241C 		movl	%eax, 28(%esp)	 # tmp109, m
 1279 10a0 A1080000 		movl	LPBX1+8, %eax	 # *LPBX1, PROF_edge_counter.0
 1279      00
 1280 10a5 8B150C00 		movl	LPBX1+12, %edx	 # *LPBX1, PROF_edge_counter.0
 1280      0000
 1281 10ab 83C001   		addl	$1, %eax	 #, PROF_edge_counter.0
 1282 10ae 83D200   		adcl	$0, %edx	 #, PROF_edge_counter.0
 1283 10b1 A3080000 		movl	%eax, LPBX1+8	 # PROF_edge_counter.0, *LPBX1
 1283      00
 1284 10b6 89150C00 		movl	%edx, LPBX1+12	 # PROF_edge_counter.0, *LPBX1
 1284      0000
 1285              		.loc 1 263 0
 1286 10bc 837C241C 		cmpl	$0, 28(%esp)	 #, m
 1286      00
 1287 10c1 0F94C0   		sete	%al	 #, tmp110
 1288 10c4 0FB6C0   		movzbl	%al, %eax	 # tmp110, D.2838
 1289 10c7 89442404 		movl	%eax, 4(%esp)	 # D.2838,
 1290 10cb C7042401 		movl	$1, (%esp)	 #,
 1290      000000
 1291 10d2 E8000000 		call	__test_assert	 #
 1291      00
 1292 10d7 84C0     		testb	%al, %al	 # D.2839
 1293 10d9 7421     		je	L31	 #,
 1294              		.loc 1 263 0 is_stmt 0 discriminator 1
 1295 10db A1180000 		movl	LPBX1+24, %eax	 # *LPBX1, PROF_edge_counter.0
 1295      00
 1296 10e0 8B151C00 		movl	LPBX1+28, %edx	 # *LPBX1, PROF_edge_counter.0
 1296      0000
 1297 10e6 83C001   		addl	$1, %eax	 #, PROF_edge_counter.0
 1298 10e9 83D200   		adcl	$0, %edx	 #, PROF_edge_counter.0
 1299 10ec A3180000 		movl	%eax, LPBX1+24	 # PROF_edge_counter.0, *LPBX1
 1299      00
 1300 10f1 89151C00 		movl	%edx, LPBX1+28	 # PROF_edge_counter.0, *LPBX1
 1300      0000
 1301 10f7 E9E90200 		jmp	L30	 #
 1301      00
 1302              	L31:
GAS LISTING C:\cygwin\tmp\ccbhk3zs.s 			page 34


 1303              		.loc 1 263 0
 1304 10fc A1100000 		movl	LPBX1+16, %eax	 # *LPBX1, PROF_edge_counter.0
 1304      00
 1305 1101 8B151400 		movl	LPBX1+20, %edx	 # *LPBX1, PROF_edge_counter.0
 1305      0000
 1306 1107 83C001   		addl	$1, %eax	 #, PROF_edge_counter.0
 1307 110a 83D200   		adcl	$0, %edx	 #, PROF_edge_counter.0
 1308 110d A3100000 		movl	%eax, LPBX1+16	 # PROF_edge_counter.0, *LPBX1
 1308      00
 1309 1112 89151400 		movl	%edx, LPBX1+20	 # PROF_edge_counter.0, *LPBX1
 1309      0000
 1310              		.loc 1 264 0 is_stmt 1
 1311 1118 C7442404 		movl	$0, 4(%esp)	 #,
 1311      00000000 
 1312 1120 C70424FF 		movl	$-1, (%esp)	 #,
 1312      FFFFFF
 1313 1127 E8000000 		call	_chEvtWaitAnyTimeout	 #
 1313      00
 1314 112c 8944241C 		movl	%eax, 28(%esp)	 # tmp111, m
 1315 1130 A1200000 		movl	LPBX1+32, %eax	 # *LPBX1, PROF_edge_counter.0
 1315      00
 1316 1135 8B152400 		movl	LPBX1+36, %edx	 # *LPBX1, PROF_edge_counter.0
 1316      0000
 1317 113b 83C001   		addl	$1, %eax	 #, PROF_edge_counter.0
 1318 113e 83D200   		adcl	$0, %edx	 #, PROF_edge_counter.0
 1319 1141 A3200000 		movl	%eax, LPBX1+32	 # PROF_edge_counter.0, *LPBX1
 1319      00
 1320 1146 89152400 		movl	%edx, LPBX1+36	 # PROF_edge_counter.0, *LPBX1
 1320      0000
 1321              		.loc 1 265 0
 1322 114c 837C241C 		cmpl	$0, 28(%esp)	 #, m
 1322      00
 1323 1151 0F94C0   		sete	%al	 #, tmp112
 1324 1154 0FB6C0   		movzbl	%al, %eax	 # tmp112, D.2842
 1325 1157 89442404 		movl	%eax, 4(%esp)	 # D.2842,
 1326 115b C7042402 		movl	$2, (%esp)	 #,
 1326      000000
 1327 1162 E8000000 		call	__test_assert	 #
 1327      00
 1328 1167 84C0     		testb	%al, %al	 # D.2843
 1329 1169 7421     		je	L33	 #,
 1330              		.loc 1 265 0 is_stmt 0 discriminator 1
 1331 116b A1300000 		movl	LPBX1+48, %eax	 # *LPBX1, PROF_edge_counter.0
 1331      00
 1332 1170 8B153400 		movl	LPBX1+52, %edx	 # *LPBX1, PROF_edge_counter.0
 1332      0000
 1333 1176 83C001   		addl	$1, %eax	 #, PROF_edge_counter.0
 1334 1179 83D200   		adcl	$0, %edx	 #, PROF_edge_counter.0
 1335 117c A3300000 		movl	%eax, LPBX1+48	 # PROF_edge_counter.0, *LPBX1
 1335      00
 1336 1181 89153400 		movl	%edx, LPBX1+52	 # PROF_edge_counter.0, *LPBX1
 1336      0000
 1337 1187 E9590200 		jmp	L30	 #
 1337      00
 1338              	L33:
 1339              		.loc 1 265 0
 1340 118c A1280000 		movl	LPBX1+40, %eax	 # *LPBX1, PROF_edge_counter.0
GAS LISTING C:\cygwin\tmp\ccbhk3zs.s 			page 35


 1340      00
 1341 1191 8B152C00 		movl	LPBX1+44, %edx	 # *LPBX1, PROF_edge_counter.0
 1341      0000
 1342 1197 83C001   		addl	$1, %eax	 #, PROF_edge_counter.0
 1343 119a 83D200   		adcl	$0, %edx	 #, PROF_edge_counter.0
 1344 119d A3280000 		movl	%eax, LPBX1+40	 # PROF_edge_counter.0, *LPBX1
 1344      00
 1345 11a2 89152C00 		movl	%edx, LPBX1+44	 # PROF_edge_counter.0, *LPBX1
 1345      0000
 1346              		.loc 1 266 0 is_stmt 1
 1347 11a8 C7442404 		movl	$0, 4(%esp)	 #,
 1347      00000000 
 1348 11b0 C70424FF 		movl	$-1, (%esp)	 #,
 1348      FFFFFF
 1349 11b7 E8000000 		call	_chEvtWaitAllTimeout	 #
 1349      00
 1350 11bc 8944241C 		movl	%eax, 28(%esp)	 # tmp113, m
 1351 11c0 A1380000 		movl	LPBX1+56, %eax	 # *LPBX1, PROF_edge_counter.0
 1351      00
 1352 11c5 8B153C00 		movl	LPBX1+60, %edx	 # *LPBX1, PROF_edge_counter.0
 1352      0000
 1353 11cb 83C001   		addl	$1, %eax	 #, PROF_edge_counter.0
 1354 11ce 83D200   		adcl	$0, %edx	 #, PROF_edge_counter.0
 1355 11d1 A3380000 		movl	%eax, LPBX1+56	 # PROF_edge_counter.0, *LPBX1
 1355      00
 1356 11d6 89153C00 		movl	%edx, LPBX1+60	 # PROF_edge_counter.0, *LPBX1
 1356      0000
 1357              		.loc 1 267 0
 1358 11dc 837C241C 		cmpl	$0, 28(%esp)	 #, m
 1358      00
 1359 11e1 0F94C0   		sete	%al	 #, tmp114
 1360 11e4 0FB6C0   		movzbl	%al, %eax	 # tmp114, D.2846
 1361 11e7 89442404 		movl	%eax, 4(%esp)	 # D.2846,
 1362 11eb C7042403 		movl	$3, (%esp)	 #,
 1362      000000
 1363 11f2 E8000000 		call	__test_assert	 #
 1363      00
 1364 11f7 84C0     		testb	%al, %al	 # D.2847
 1365 11f9 7421     		je	L34	 #,
 1366              		.loc 1 267 0 is_stmt 0 discriminator 1
 1367 11fb A1480000 		movl	LPBX1+72, %eax	 # *LPBX1, PROF_edge_counter.0
 1367      00
 1368 1200 8B154C00 		movl	LPBX1+76, %edx	 # *LPBX1, PROF_edge_counter.0
 1368      0000
 1369 1206 83C001   		addl	$1, %eax	 #, PROF_edge_counter.0
 1370 1209 83D200   		adcl	$0, %edx	 #, PROF_edge_counter.0
 1371 120c A3480000 		movl	%eax, LPBX1+72	 # PROF_edge_counter.0, *LPBX1
 1371      00
 1372 1211 89154C00 		movl	%edx, LPBX1+76	 # PROF_edge_counter.0, *LPBX1
 1372      0000
 1373 1217 E9C90100 		jmp	L30	 #
 1373      00
 1374              	L34:
 1375              		.loc 1 267 0
 1376 121c A1400000 		movl	LPBX1+64, %eax	 # *LPBX1, PROF_edge_counter.0
 1376      00
 1377 1221 8B154400 		movl	LPBX1+68, %edx	 # *LPBX1, PROF_edge_counter.0
GAS LISTING C:\cygwin\tmp\ccbhk3zs.s 			page 36


 1377      0000
 1378 1227 83C001   		addl	$1, %eax	 #, PROF_edge_counter.0
 1379 122a 83D200   		adcl	$0, %edx	 #, PROF_edge_counter.0
 1380 122d A3400000 		movl	%eax, LPBX1+64	 # PROF_edge_counter.0, *LPBX1
 1380      00
 1381 1232 89154400 		movl	%edx, LPBX1+68	 # PROF_edge_counter.0, *LPBX1
 1381      0000
 1382              		.loc 1 268 0 is_stmt 1
 1383 1238 C7442404 		movl	$10, 4(%esp)	 #,
 1383      0A000000 
 1384 1240 C70424FF 		movl	$-1, (%esp)	 #,
 1384      FFFFFF
 1385 1247 E8000000 		call	_chEvtWaitOneTimeout	 #
 1385      00
 1386 124c 8944241C 		movl	%eax, 28(%esp)	 # tmp115, m
 1387 1250 A1500000 		movl	LPBX1+80, %eax	 # *LPBX1, PROF_edge_counter.0
 1387      00
 1388 1255 8B155400 		movl	LPBX1+84, %edx	 # *LPBX1, PROF_edge_counter.0
 1388      0000
 1389 125b 83C001   		addl	$1, %eax	 #, PROF_edge_counter.0
 1390 125e 83D200   		adcl	$0, %edx	 #, PROF_edge_counter.0
 1391 1261 A3500000 		movl	%eax, LPBX1+80	 # PROF_edge_counter.0, *LPBX1
 1391      00
 1392 1266 89155400 		movl	%edx, LPBX1+84	 # PROF_edge_counter.0, *LPBX1
 1392      0000
 1393              		.loc 1 269 0
 1394 126c 837C241C 		cmpl	$0, 28(%esp)	 #, m
 1394      00
 1395 1271 0F94C0   		sete	%al	 #, tmp116
 1396 1274 0FB6C0   		movzbl	%al, %eax	 # tmp116, D.2850
 1397 1277 89442404 		movl	%eax, 4(%esp)	 # D.2850,
 1398 127b C7042404 		movl	$4, (%esp)	 #,
 1398      000000
 1399 1282 E8000000 		call	__test_assert	 #
 1399      00
 1400 1287 84C0     		testb	%al, %al	 # D.2851
 1401 1289 7421     		je	L35	 #,
 1402              		.loc 1 269 0 is_stmt 0 discriminator 1
 1403 128b A1600000 		movl	LPBX1+96, %eax	 # *LPBX1, PROF_edge_counter.0
 1403      00
 1404 1290 8B156400 		movl	LPBX1+100, %edx	 # *LPBX1, PROF_edge_counter.0
 1404      0000
 1405 1296 83C001   		addl	$1, %eax	 #, PROF_edge_counter.0
 1406 1299 83D200   		adcl	$0, %edx	 #, PROF_edge_counter.0
 1407 129c A3600000 		movl	%eax, LPBX1+96	 # PROF_edge_counter.0, *LPBX1
 1407      00
 1408 12a1 89156400 		movl	%edx, LPBX1+100	 # PROF_edge_counter.0, *LPBX1
 1408      0000
 1409 12a7 E9390100 		jmp	L30	 #
 1409      00
 1410              	L35:
 1411              		.loc 1 269 0
 1412 12ac A1580000 		movl	LPBX1+88, %eax	 # *LPBX1, PROF_edge_counter.0
 1412      00
 1413 12b1 8B155C00 		movl	LPBX1+92, %edx	 # *LPBX1, PROF_edge_counter.0
 1413      0000
 1414 12b7 83C001   		addl	$1, %eax	 #, PROF_edge_counter.0
GAS LISTING C:\cygwin\tmp\ccbhk3zs.s 			page 37


 1415 12ba 83D200   		adcl	$0, %edx	 #, PROF_edge_counter.0
 1416 12bd A3580000 		movl	%eax, LPBX1+88	 # PROF_edge_counter.0, *LPBX1
 1416      00
 1417 12c2 89155C00 		movl	%edx, LPBX1+92	 # PROF_edge_counter.0, *LPBX1
 1417      0000
 1418              		.loc 1 270 0 is_stmt 1
 1419 12c8 C7442404 		movl	$10, 4(%esp)	 #,
 1419      0A000000 
 1420 12d0 C70424FF 		movl	$-1, (%esp)	 #,
 1420      FFFFFF
 1421 12d7 E8000000 		call	_chEvtWaitAnyTimeout	 #
 1421      00
 1422 12dc 8944241C 		movl	%eax, 28(%esp)	 # tmp117, m
 1423 12e0 A1680000 		movl	LPBX1+104, %eax	 # *LPBX1, PROF_edge_counter.0
 1423      00
 1424 12e5 8B156C00 		movl	LPBX1+108, %edx	 # *LPBX1, PROF_edge_counter.0
 1424      0000
 1425 12eb 83C001   		addl	$1, %eax	 #, PROF_edge_counter.0
 1426 12ee 83D200   		adcl	$0, %edx	 #, PROF_edge_counter.0
 1427 12f1 A3680000 		movl	%eax, LPBX1+104	 # PROF_edge_counter.0, *LPBX1
 1427      00
 1428 12f6 89156C00 		movl	%edx, LPBX1+108	 # PROF_edge_counter.0, *LPBX1
 1428      0000
 1429              		.loc 1 271 0
 1430 12fc 837C241C 		cmpl	$0, 28(%esp)	 #, m
 1430      00
 1431 1301 0F94C0   		sete	%al	 #, tmp118
 1432 1304 0FB6C0   		movzbl	%al, %eax	 # tmp118, D.2854
 1433 1307 89442404 		movl	%eax, 4(%esp)	 # D.2854,
 1434 130b C7042405 		movl	$5, (%esp)	 #,
 1434      000000
 1435 1312 E8000000 		call	__test_assert	 #
 1435      00
 1436 1317 84C0     		testb	%al, %al	 # D.2855
 1437 1319 7421     		je	L36	 #,
 1438              		.loc 1 271 0 is_stmt 0 discriminator 1
 1439 131b A1780000 		movl	LPBX1+120, %eax	 # *LPBX1, PROF_edge_counter.0
 1439      00
 1440 1320 8B157C00 		movl	LPBX1+124, %edx	 # *LPBX1, PROF_edge_counter.0
 1440      0000
 1441 1326 83C001   		addl	$1, %eax	 #, PROF_edge_counter.0
 1442 1329 83D200   		adcl	$0, %edx	 #, PROF_edge_counter.0
 1443 132c A3780000 		movl	%eax, LPBX1+120	 # PROF_edge_counter.0, *LPBX1
 1443      00
 1444 1331 89157C00 		movl	%edx, LPBX1+124	 # PROF_edge_counter.0, *LPBX1
 1444      0000
 1445 1337 E9A90000 		jmp	L30	 #
 1445      00
 1446              	L36:
 1447              		.loc 1 271 0
 1448 133c A1700000 		movl	LPBX1+112, %eax	 # *LPBX1, PROF_edge_counter.0
 1448      00
 1449 1341 8B157400 		movl	LPBX1+116, %edx	 # *LPBX1, PROF_edge_counter.0
 1449      0000
 1450 1347 83C001   		addl	$1, %eax	 #, PROF_edge_counter.0
 1451 134a 83D200   		adcl	$0, %edx	 #, PROF_edge_counter.0
 1452 134d A3700000 		movl	%eax, LPBX1+112	 # PROF_edge_counter.0, *LPBX1
GAS LISTING C:\cygwin\tmp\ccbhk3zs.s 			page 38


 1452      00
 1453 1352 89157400 		movl	%edx, LPBX1+116	 # PROF_edge_counter.0, *LPBX1
 1453      0000
 1454              		.loc 1 272 0 is_stmt 1
 1455 1358 C7442404 		movl	$10, 4(%esp)	 #,
 1455      0A000000 
 1456 1360 C70424FF 		movl	$-1, (%esp)	 #,
 1456      FFFFFF
 1457 1367 E8000000 		call	_chEvtWaitAllTimeout	 #
 1457      00
 1458 136c 8944241C 		movl	%eax, 28(%esp)	 # tmp119, m
 1459 1370 A1800000 		movl	LPBX1+128, %eax	 # *LPBX1, PROF_edge_counter.0
 1459      00
 1460 1375 8B158400 		movl	LPBX1+132, %edx	 # *LPBX1, PROF_edge_counter.0
 1460      0000
 1461 137b 83C001   		addl	$1, %eax	 #, PROF_edge_counter.0
 1462 137e 83D200   		adcl	$0, %edx	 #, PROF_edge_counter.0
 1463 1381 A3800000 		movl	%eax, LPBX1+128	 # PROF_edge_counter.0, *LPBX1
 1463      00
 1464 1386 89158400 		movl	%edx, LPBX1+132	 # PROF_edge_counter.0, *LPBX1
 1464      0000
 1465              		.loc 1 273 0
 1466 138c 837C241C 		cmpl	$0, 28(%esp)	 #, m
 1466      00
 1467 1391 0F94C0   		sete	%al	 #, tmp120
 1468 1394 0FB6C0   		movzbl	%al, %eax	 # tmp120, D.2858
 1469 1397 89442404 		movl	%eax, 4(%esp)	 # D.2858,
 1470 139b C7042406 		movl	$6, (%esp)	 #,
 1470      000000
 1471 13a2 E8000000 		call	__test_assert	 #
 1471      00
 1472 13a7 88C1     		movb	%al, %cl	 #, D.2859
 1473 13a9 A1880000 		movl	LPBX1+136, %eax	 # *LPBX1, PROF_edge_counter.0
 1473      00
 1474 13ae 8B158C00 		movl	LPBX1+140, %edx	 # *LPBX1, PROF_edge_counter.0
 1474      0000
 1475 13b4 83C001   		addl	$1, %eax	 #, PROF_edge_counter.0
 1476 13b7 83D200   		adcl	$0, %edx	 #, PROF_edge_counter.0
 1477 13ba A3880000 		movl	%eax, LPBX1+136	 # PROF_edge_counter.0, *LPBX1
 1477      00
 1478 13bf 89158C00 		movl	%edx, LPBX1+140	 # PROF_edge_counter.0, *LPBX1
 1478      0000
 1479 13c5 84C9     		testb	%cl, %cl	 # D.2859
 1480 13c7 741C     		je	L30	 #,
 1481              		.loc 1 273 0 is_stmt 0 discriminator 1
 1482 13c9 A1900000 		movl	LPBX1+144, %eax	 # *LPBX1, PROF_edge_counter.0
 1482      00
 1483 13ce 8B159400 		movl	LPBX1+148, %edx	 # *LPBX1, PROF_edge_counter.0
 1483      0000
 1484 13d4 83C001   		addl	$1, %eax	 #, PROF_edge_counter.0
 1485 13d7 83D200   		adcl	$0, %edx	 #, PROF_edge_counter.0
 1486 13da A3900000 		movl	%eax, LPBX1+144	 # PROF_edge_counter.0, *LPBX1
 1486      00
 1487 13df 89159400 		movl	%edx, LPBX1+148	 # PROF_edge_counter.0, *LPBX1
 1487      0000
 1488              	L30:
 1489              		.loc 1 274 0 is_stmt 1
GAS LISTING C:\cygwin\tmp\ccbhk3zs.s 			page 39


 1490 13e5 83C42C   		addl	$44, %esp	 #,
 1491              	LCFI21:
 1492              		.cfi_def_cfa_offset 4
 1493 13e8 C3       		ret
 1494              		.cfi_endproc
 1495              	LFE10:
 1496              		.globl	_testevt3
 1497              		.section .rdata,"dr"
 1498              	LC4:
 1499 0074 4576656E 		.ascii "Events, timeouts\0"
 1499      74732C20 
 1499      74696D65 
 1499      6F757473 
 1499      00
 1500 0085 000000   		.align 4
 1501              	_testevt3:
 1502              	 # name:
 1503 0088 74000000 		.long	LC4
 1504              	 # setup:
 1505 008c 1E100000 		.long	_evt3_setup
 1506              	 # teardown:
 1507 0090 00000000 		.long	0
 1508              	 # execute:
 1509 0094 69100000 		.long	_evt3_execute
 1510              		.globl	_patternevt
 1511              		.align 4
 1512              	_patternevt:
 1513 0098 34000000 		.long	_testevt1
 1514 009c 64000000 		.long	_testevt2
 1515 00a0 88000000 		.long	_testevt3
 1516 00a4 00000000 		.long	0
 1517              	.lcomm LPBX1,872,32
 1518              		.align 4
 1519              	LC5:
 1520 00a8 433A5C64 		.ascii "C:\\develop\\gyro\\ChibiOS\\test\\coverage/../../test/testevt.gcda\0"
 1520      6576656C 
 1520      6F705C67 
 1520      79726F5C 
 1520      43686962 
 1521 00e6 0000     		.data
 1522 0008 00000000 		.align 32
 1522      00000000 
 1522      00000000 
 1522      00000000 
 1522      00000000 
 1523              	LC6:
 1524              	 # <anonymous>:
 1525 0020 0B000000 		.long	11
 1526              	 # <anonymous>:
 1527 0024 0737756D 		.long	1836398343
 1528              	 # <anonymous>:
 1529 0028 13000000 		.long	19
 1530              	 # <anonymous>:
 1531 002c 0A000000 		.long	10
 1532              	 # <anonymous>:
 1533 0030 378BBA3C 		.long	1018858295
 1534              	 # <anonymous>:
GAS LISTING C:\cygwin\tmp\ccbhk3zs.s 			page 40


 1535 0034 02000000 		.long	2
 1536              	 # <anonymous>:
 1537 0038 09000000 		.long	9
 1538              	 # <anonymous>:
 1539 003c A62D414C 		.long	1279339942
 1540              	 # <anonymous>:
 1541 0040 39000000 		.long	57
 1542              	 # <anonymous>:
 1543 0044 08000000 		.long	8
 1544              	 # <anonymous>:
 1545 0048 FBC76458 		.long	1482999803
 1546              	 # <anonymous>:
 1547 004c 04000000 		.long	4
 1548              	 # <anonymous>:
 1549 0050 07000000 		.long	7
 1550              	 # <anonymous>:
 1551 0054 9DE5F2E9 		.long	-369957475
 1552              	 # <anonymous>:
 1553 0058 03000000 		.long	3
 1554              	 # <anonymous>:
 1555 005c 06000000 		.long	6
 1556              	 # <anonymous>:
 1557 0060 D235F857 		.long	1475884498
 1558              	 # <anonymous>:
 1559 0064 02000000 		.long	2
 1560              	 # <anonymous>:
 1561 0068 05000000 		.long	5
 1562              	 # <anonymous>:
 1563 006c 70C4AD07 		.long	128828528
 1564              	 # <anonymous>:
 1565 0070 0E000000 		.long	14
 1566              	 # <anonymous>:
 1567 0074 04000000 		.long	4
 1568              	 # <anonymous>:
 1569 0078 54F12548 		.long	1210446164
 1570              	 # <anonymous>:
 1571 007c 02000000 		.long	2
 1572              	 # <anonymous>:
 1573 0080 03000000 		.long	3
 1574              	 # <anonymous>:
 1575 0084 EB7A37D0 		.long	-801670421
 1576              	 # <anonymous>:
 1577 0088 02000000 		.long	2
 1578              	 # <anonymous>:
 1579 008c 02000000 		.long	2
 1580              	 # <anonymous>:
 1581 0090 74E86567 		.long	1734731892
 1582              	 # <anonymous>:
 1583 0094 02000000 		.long	2
 1584              	 # <anonymous>:
 1585 0098 01000000 		.long	1
 1586              	 # <anonymous>:
 1587 009c 9198BFB3 		.long	-1279289199
 1588              	 # <anonymous>:
 1589 00a0 02000000 		.long	2
 1590 00a4 00000000 		.align 32
 1590      00000000 
GAS LISTING C:\cygwin\tmp\ccbhk3zs.s 			page 41


 1590      00000000 
 1590      00000000 
 1590      00000000 
 1591              	LPBX0:
 1592              	 # <anonymous>:
 1593 00c0 2A363034 		.long	875574826
 1594              	 # <anonymous>:
 1595 00c4 00000000 		.long	0
 1596              	 # <anonymous>:
 1597 00c8 74357060 		.long	1617966452
 1598              	 # <anonymous>:
 1599 00cc A8000000 		.long	LC5
 1600              	 # <anonymous>:
 1601 00d0 0B000000 		.long	11
 1602              	 # <anonymous>:
 1603 00d4 20000000 		.long	LC6
 1604              	 # <anonymous>:
 1605 00d8 01000000 		.long	1
 1606              	 # <anonymous>:
 1607              	 # <anonymous>:
 1608 00dc 6D000000 		.long	109
 1609              	 # <anonymous>:
 1610 00e0 00000000 		.long	LPBX1
 1611              	 # <anonymous>:
 1612 00e4 00000000 		.long	___gcov_merge_add
 1613 00e8 00000000 		.space 12
 1613      00000000 
 1613      00000000 
 1614 00f4 00000000 		.text
 1614      00000000 
 1614      00000000 
 1615              		.def	__GLOBAL__sub_I_65535_0_testevt1;	.scl	3;	.type	32;	.endef
 1616              	__GLOBAL__sub_I_65535_0_testevt1:
 1617              	LFB11:
 1618              		.loc 1 296 0
 1619              		.cfi_startproc
 1620 13e9 83EC1C   		subl	$28, %esp	 #,
 1621              	LCFI22:
 1622              		.cfi_def_cfa_offset 32
 1623              		.loc 1 296 0
 1624 13ec C70424C0 		movl	$LPBX0, (%esp)	 #,
 1624      000000
 1625 13f3 E8000000 		call	___gcov_init	 #
 1625      00
 1626 13f8 83C41C   		addl	$28, %esp	 #,
 1627              	LCFI23:
 1628              		.cfi_def_cfa_offset 4
 1629 13fb C3       		ret
 1630              		.cfi_endproc
 1631              	LFE11:
 1632              		.section	.ctors,"w"
 1633              		.align 4
 1634 0000 E9130000 		.long	__GLOBAL__sub_I_65535_0_testevt1
 1635              		.text
 1636              	Letext0:
 1637              		.file 2 "c:/mingw/bin/../lib/gcc/mingw32/4.6.2/../../../../include/stdint.h"
 1638              		.file 3 "../../os/ports/GCC/SIMIA32/chtypes.h"
GAS LISTING C:\cygwin\tmp\ccbhk3zs.s 			page 42


 1639              		.file 4 "../../os/kernel/include/chlists.h"
 1640              		.file 5 "../../os/kernel/include/chthreads.h"
 1641              		.file 6 "../../os/ports/GCC/SIMIA32/chcore.h"
 1642              		.file 7 "../../os/kernel/include/chvt.h"
 1643              		.file 8 "../../os/kernel/include/chschd.h"
 1644              		.file 9 "../../os/kernel/include/chmtx.h"
 1645              		.file 10 "../../os/kernel/include/chevents.h"
 1646              		.file 11 "../../test/test.h"
 1647              		.section	.debug_info,"dr"
 1648              	Ldebug_info0:
 1649 0000 240B0000 		.long	0xb24
 1650 0004 0200     		.word	0x2
 1651 0006 00000000 		.secrel32	Ldebug_abbrev0
 1652 000a 04       		.byte	0x4
 1653 000b 01       		.uleb128 0x1
 1654 000c 474E5520 		.ascii "GNU C 4.6.2\0"
 1654      4320342E 
 1654      362E3200 
 1655 0018 01       		.byte	0x1
 1656 0019 2E2E2F2E 		.ascii "../../test/testevt.c\0"
 1656      2E2F7465 
 1656      73742F74 
 1656      65737465 
 1656      76742E63 
 1657 002e 433A5C64 		.ascii "C:\\develop\\gyro\\ChibiOS\\test\\coverage\0"
 1657      6576656C 
 1657      6F705C67 
 1657      79726F5C 
 1657      43686962 
 1658 0054 00000000 		.long	Ltext0
 1659 0058 FC130000 		.long	Letext0
 1660 005c 00000000 		.secrel32	Ldebug_line0
 1661 0060 02       		.uleb128 0x2
 1662 0061 04       		.byte	0x4
 1663 0062 05       		.byte	0x5
 1664 0063 696E7400 		.ascii "int\0"
 1665 0067 02       		.uleb128 0x2
 1666 0068 04       		.byte	0x4
 1667 0069 07       		.byte	0x7
 1668 006a 756E7369 		.ascii "unsigned int\0"
 1668      676E6564 
 1668      20696E74 
 1668      00
 1669 0077 02       		.uleb128 0x2
 1670 0078 02       		.byte	0x2
 1671 0079 07       		.byte	0x7
 1672 007a 73686F72 		.ascii "short unsigned int\0"
 1672      7420756E 
 1672      7369676E 
 1672      65642069 
 1672      6E7400
 1673 008d 02       		.uleb128 0x2
 1674 008e 01       		.byte	0x1
 1675 008f 06       		.byte	0x6
 1676 0090 7369676E 		.ascii "signed char\0"
 1676      65642063 
 1676      68617200 
GAS LISTING C:\cygwin\tmp\ccbhk3zs.s 			page 43


 1677 009c 03       		.uleb128 0x3
 1678 009d 75696E74 		.ascii "uint8_t\0"
 1678      385F7400 
 1679 00a5 02       		.byte	0x2
 1680 00a6 1C       		.byte	0x1c
 1681 00a7 AB000000 		.long	0xab
 1682 00ab 02       		.uleb128 0x2
 1683 00ac 01       		.byte	0x1
 1684 00ad 08       		.byte	0x8
 1685 00ae 756E7369 		.ascii "unsigned char\0"
 1685      676E6564 
 1685      20636861 
 1685      7200
 1686 00bc 02       		.uleb128 0x2
 1687 00bd 02       		.byte	0x2
 1688 00be 05       		.byte	0x5
 1689 00bf 73686F72 		.ascii "short int\0"
 1689      7420696E 
 1689      7400
 1690 00c9 03       		.uleb128 0x3
 1691 00ca 696E7433 		.ascii "int32_t\0"
 1691      325F7400 
 1692 00d2 02       		.byte	0x2
 1693 00d3 1F       		.byte	0x1f
 1694 00d4 60000000 		.long	0x60
 1695 00d8 03       		.uleb128 0x3
 1696 00d9 75696E74 		.ascii "uint32_t\0"
 1696      33325F74 
 1696      00
 1697 00e2 02       		.byte	0x2
 1698 00e3 20       		.byte	0x20
 1699 00e4 67000000 		.long	0x67
 1700 00e8 02       		.uleb128 0x2
 1701 00e9 08       		.byte	0x8
 1702 00ea 05       		.byte	0x5
 1703 00eb 6C6F6E67 		.ascii "long long int\0"
 1703      206C6F6E 
 1703      6720696E 
 1703      7400
 1704 00f9 02       		.uleb128 0x2
 1705 00fa 08       		.byte	0x8
 1706 00fb 07       		.byte	0x7
 1707 00fc 6C6F6E67 		.ascii "long long unsigned int\0"
 1707      206C6F6E 
 1707      6720756E 
 1707      7369676E 
 1707      65642069 
 1708 0113 02       		.uleb128 0x2
 1709 0114 01       		.byte	0x1
 1710 0115 02       		.byte	0x2
 1711 0116 5F426F6F 		.ascii "_Bool\0"
 1711      6C00
 1712 011c 03       		.uleb128 0x3
 1713 011d 746D6F64 		.ascii "tmode_t\0"
 1713      655F7400 
 1714 0125 03       		.byte	0x3
 1715 0126 1D       		.byte	0x1d
GAS LISTING C:\cygwin\tmp\ccbhk3zs.s 			page 44


 1716 0127 9C000000 		.long	0x9c
 1717 012b 03       		.uleb128 0x3
 1718 012c 74737461 		.ascii "tstate_t\0"
 1718      74655F74 
 1718      00
 1719 0135 03       		.byte	0x3
 1720 0136 1E       		.byte	0x1e
 1721 0137 9C000000 		.long	0x9c
 1722 013b 03       		.uleb128 0x3
 1723 013c 74726566 		.ascii "trefs_t\0"
 1723      735F7400 
 1724 0144 03       		.byte	0x3
 1725 0145 1F       		.byte	0x1f
 1726 0146 9C000000 		.long	0x9c
 1727 014a 03       		.uleb128 0x3
 1728 014b 74736C69 		.ascii "tslices_t\0"
 1728      6365735F 
 1728      7400
 1729 0155 03       		.byte	0x3
 1730 0156 20       		.byte	0x20
 1731 0157 9C000000 		.long	0x9c
 1732 015b 03       		.uleb128 0x3
 1733 015c 74707269 		.ascii "tprio_t\0"
 1733      6F5F7400 
 1734 0164 03       		.byte	0x3
 1735 0165 21       		.byte	0x21
 1736 0166 D8000000 		.long	0xd8
 1737 016a 03       		.uleb128 0x3
 1738 016b 6D73675F 		.ascii "msg_t\0"
 1738      7400
 1739 0171 03       		.byte	0x3
 1740 0172 22       		.byte	0x22
 1741 0173 C9000000 		.long	0xc9
 1742 0177 03       		.uleb128 0x3
 1743 0178 6576656E 		.ascii "eventid_t\0"
 1743      7469645F 
 1743      7400
 1744 0182 03       		.byte	0x3
 1745 0183 23       		.byte	0x23
 1746 0184 C9000000 		.long	0xc9
 1747 0188 03       		.uleb128 0x3
 1748 0189 6576656E 		.ascii "eventmask_t\0"
 1748      746D6173 
 1748      6B5F7400 
 1749 0195 03       		.byte	0x3
 1750 0196 24       		.byte	0x24
 1751 0197 D8000000 		.long	0xd8
 1752 019b 03       		.uleb128 0x3
 1753 019c 666C6167 		.ascii "flagsmask_t\0"
 1753      736D6173 
 1753      6B5F7400 
 1754 01a8 03       		.byte	0x3
 1755 01a9 25       		.byte	0x25
 1756 01aa D8000000 		.long	0xd8
 1757 01ae 03       		.uleb128 0x3
 1758 01af 73797374 		.ascii "systime_t\0"
 1758      696D655F 
GAS LISTING C:\cygwin\tmp\ccbhk3zs.s 			page 45


 1758      7400
 1759 01b9 03       		.byte	0x3
 1760 01ba 26       		.byte	0x26
 1761 01bb D8000000 		.long	0xd8
 1762 01bf 03       		.uleb128 0x3
 1763 01c0 54687265 		.ascii "Thread\0"
 1763      616400
 1764 01c7 04       		.byte	0x4
 1765 01c8 23       		.byte	0x23
 1766 01c9 CD010000 		.long	0x1cd
 1767 01cd 04       		.uleb128 0x4
 1768 01ce 54687265 		.ascii "Thread\0"
 1768      616400
 1769 01d5 48       		.byte	0x48
 1770 01d6 05       		.byte	0x5
 1771 01d7 57       		.byte	0x57
 1772 01d8 43030000 		.long	0x343
 1773 01dc 05       		.uleb128 0x5
 1774 01dd 00000000 		.secrel32	LASF0
 1775 01e1 05       		.byte	0x5
 1776 01e2 58       		.byte	0x58
 1777 01e3 6B030000 		.long	0x36b
 1778 01e7 02       		.byte	0x2
 1779 01e8 23       		.byte	0x23
 1780 01e9 00       		.uleb128 0
 1781 01ea 06       		.uleb128 0x6
 1782 01eb 705F7072 		.ascii "p_prev\0"
 1782      657600
 1783 01f2 05       		.byte	0x5
 1784 01f3 5A       		.byte	0x5a
 1785 01f4 6B030000 		.long	0x36b
 1786 01f8 02       		.byte	0x2
 1787 01f9 23       		.byte	0x23
 1788 01fa 04       		.uleb128 0x4
 1789 01fb 06       		.uleb128 0x6
 1790 01fc 705F7072 		.ascii "p_prio\0"
 1790      696F00
 1791 0203 05       		.byte	0x5
 1792 0204 5C       		.byte	0x5c
 1793 0205 5B010000 		.long	0x15b
 1794 0209 02       		.byte	0x2
 1795 020a 23       		.byte	0x23
 1796 020b 08       		.uleb128 0x8
 1797 020c 06       		.uleb128 0x6
 1798 020d 705F6374 		.ascii "p_ctx\0"
 1798      7800
 1799 0213 05       		.byte	0x5
 1800 0214 5D       		.byte	0x5d
 1801 0215 15040000 		.long	0x415
 1802 0219 02       		.byte	0x2
 1803 021a 23       		.byte	0x23
 1804 021b 0C       		.uleb128 0xc
 1805 021c 06       		.uleb128 0x6
 1806 021d 705F6E65 		.ascii "p_newer\0"
 1806      77657200 
 1807 0225 05       		.byte	0x5
 1808 0226 5F       		.byte	0x5f
GAS LISTING C:\cygwin\tmp\ccbhk3zs.s 			page 46


 1809 0227 6B030000 		.long	0x36b
 1810 022b 02       		.byte	0x2
 1811 022c 23       		.byte	0x23
 1812 022d 10       		.uleb128 0x10
 1813 022e 06       		.uleb128 0x6
 1814 022f 705F6F6C 		.ascii "p_older\0"
 1814      64657200 
 1815 0237 05       		.byte	0x5
 1816 0238 60       		.byte	0x60
 1817 0239 6B030000 		.long	0x36b
 1818 023d 02       		.byte	0x2
 1819 023e 23       		.byte	0x23
 1820 023f 14       		.uleb128 0x14
 1821 0240 06       		.uleb128 0x6
 1822 0241 705F6E61 		.ascii "p_name\0"
 1822      6D6500
 1823 0248 05       		.byte	0x5
 1824 0249 67       		.byte	0x67
 1825 024a 18070000 		.long	0x718
 1826 024e 02       		.byte	0x2
 1827 024f 23       		.byte	0x23
 1828 0250 18       		.uleb128 0x18
 1829 0251 06       		.uleb128 0x6
 1830 0252 705F7374 		.ascii "p_state\0"
 1830      61746500 
 1831 025a 05       		.byte	0x5
 1832 025b 72       		.byte	0x72
 1833 025c 2B010000 		.long	0x12b
 1834 0260 02       		.byte	0x2
 1835 0261 23       		.byte	0x23
 1836 0262 1C       		.uleb128 0x1c
 1837 0263 06       		.uleb128 0x6
 1838 0264 705F666C 		.ascii "p_flags\0"
 1838      61677300 
 1839 026c 05       		.byte	0x5
 1840 026d 76       		.byte	0x76
 1841 026e 1C010000 		.long	0x11c
 1842 0272 02       		.byte	0x2
 1843 0273 23       		.byte	0x23
 1844 0274 1D       		.uleb128 0x1d
 1845 0275 06       		.uleb128 0x6
 1846 0276 705F7265 		.ascii "p_refs\0"
 1846      667300
 1847 027d 05       		.byte	0x5
 1848 027e 7B       		.byte	0x7b
 1849 027f 3B010000 		.long	0x13b
 1850 0283 02       		.byte	0x2
 1851 0284 23       		.byte	0x23
 1852 0285 1E       		.uleb128 0x1e
 1853 0286 06       		.uleb128 0x6
 1854 0287 705F7072 		.ascii "p_preempt\0"
 1854      65656D70 
 1854      7400
 1855 0291 05       		.byte	0x5
 1856 0292 81       		.byte	0x81
 1857 0293 4A010000 		.long	0x14a
 1858 0297 02       		.byte	0x2
GAS LISTING C:\cygwin\tmp\ccbhk3zs.s 			page 47


 1859 0298 23       		.byte	0x23
 1860 0299 1F       		.uleb128 0x1f
 1861 029a 06       		.uleb128 0x6
 1862 029b 705F7469 		.ascii "p_time\0"
 1862      6D6500
 1863 02a2 05       		.byte	0x5
 1864 02a3 88       		.byte	0x88
 1865 02a4 2C050000 		.long	0x52c
 1866 02a8 02       		.byte	0x2
 1867 02a9 23       		.byte	0x23
 1868 02aa 20       		.uleb128 0x20
 1869 02ab 06       		.uleb128 0x6
 1870 02ac 705F7500 		.ascii "p_u\0"
 1871 02b0 05       		.byte	0x5
 1872 02b1 AD       		.byte	0xad
 1873 02b2 D5060000 		.long	0x6d5
 1874 02b6 02       		.byte	0x2
 1875 02b7 23       		.byte	0x23
 1876 02b8 24       		.uleb128 0x24
 1877 02b9 06       		.uleb128 0x6
 1878 02ba 705F7761 		.ascii "p_waiting\0"
 1878      6974696E 
 1878      6700
 1879 02c4 05       		.byte	0x5
 1880 02c5 B2       		.byte	0xb2
 1881 02c6 9C030000 		.long	0x39c
 1882 02ca 02       		.byte	0x2
 1883 02cb 23       		.byte	0x23
 1884 02cc 28       		.uleb128 0x28
 1885 02cd 06       		.uleb128 0x6
 1886 02ce 705F6D73 		.ascii "p_msgqueue\0"
 1886      67717565 
 1886      756500
 1887 02d9 05       		.byte	0x5
 1888 02da B8       		.byte	0xb8
 1889 02db 71030000 		.long	0x371
 1890 02df 02       		.byte	0x2
 1891 02e0 23       		.byte	0x23
 1892 02e1 2C       		.uleb128 0x2c
 1893 02e2 06       		.uleb128 0x6
 1894 02e3 705F6D73 		.ascii "p_msg\0"
 1894      6700
 1895 02e9 05       		.byte	0x5
 1896 02ea BC       		.byte	0xbc
 1897 02eb 6A010000 		.long	0x16a
 1898 02ef 02       		.byte	0x2
 1899 02f0 23       		.byte	0x23
 1900 02f1 34       		.uleb128 0x34
 1901 02f2 06       		.uleb128 0x6
 1902 02f3 705F6570 		.ascii "p_epending\0"
 1902      656E6469 
 1902      6E6700
 1903 02fe 05       		.byte	0x5
 1904 02ff C2       		.byte	0xc2
 1905 0300 88010000 		.long	0x188
 1906 0304 02       		.byte	0x2
 1907 0305 23       		.byte	0x23
GAS LISTING C:\cygwin\tmp\ccbhk3zs.s 			page 48


 1908 0306 38       		.uleb128 0x38
 1909 0307 06       		.uleb128 0x6
 1910 0308 705F6D74 		.ascii "p_mtxlist\0"
 1910      786C6973 
 1910      7400
 1911 0312 05       		.byte	0x5
 1912 0313 C9       		.byte	0xc9
 1913 0314 2B070000 		.long	0x72b
 1914 0318 02       		.byte	0x2
 1915 0319 23       		.byte	0x23
 1916 031a 3C       		.uleb128 0x3c
 1917 031b 06       		.uleb128 0x6
 1918 031c 705F7265 		.ascii "p_realprio\0"
 1918      616C7072 
 1918      696F00
 1919 0327 05       		.byte	0x5
 1920 0328 CD       		.byte	0xcd
 1921 0329 5B010000 		.long	0x15b
 1922 032d 02       		.byte	0x2
 1923 032e 23       		.byte	0x23
 1924 032f 40       		.uleb128 0x40
 1925 0330 06       		.uleb128 0x6
 1926 0331 705F6D70 		.ascii "p_mpool\0"
 1926      6F6F6C00 
 1927 0339 05       		.byte	0x5
 1928 033a D3       		.byte	0xd3
 1929 033b BD030000 		.long	0x3bd
 1930 033f 02       		.byte	0x2
 1931 0340 23       		.byte	0x23
 1932 0341 44       		.uleb128 0x44
 1933 0342 00       		.byte	0
 1934 0343 07       		.uleb128 0x7
 1935 0344 08       		.byte	0x8
 1936 0345 04       		.byte	0x4
 1937 0346 5A       		.byte	0x5a
 1938 0347 6B030000 		.long	0x36b
 1939 034b 05       		.uleb128 0x5
 1940 034c 00000000 		.secrel32	LASF0
 1941 0350 04       		.byte	0x4
 1942 0351 5B       		.byte	0x5b
 1943 0352 6B030000 		.long	0x36b
 1944 0356 02       		.byte	0x2
 1945 0357 23       		.byte	0x23
 1946 0358 00       		.uleb128 0
 1947 0359 06       		.uleb128 0x6
 1948 035a 705F7072 		.ascii "p_prev\0"
 1948      657600
 1949 0361 04       		.byte	0x4
 1950 0362 5D       		.byte	0x5d
 1951 0363 6B030000 		.long	0x36b
 1952 0367 02       		.byte	0x2
 1953 0368 23       		.byte	0x23
 1954 0369 04       		.uleb128 0x4
 1955 036a 00       		.byte	0
 1956 036b 08       		.uleb128 0x8
 1957 036c 04       		.byte	0x4
 1958 036d BF010000 		.long	0x1bf
GAS LISTING C:\cygwin\tmp\ccbhk3zs.s 			page 49


 1959 0371 03       		.uleb128 0x3
 1960 0372 54687265 		.ascii "ThreadsQueue\0"
 1960      61647351 
 1960      75657565 
 1960      00
 1961 037f 04       		.byte	0x4
 1962 0380 5F       		.byte	0x5f
 1963 0381 43030000 		.long	0x343
 1964 0385 07       		.uleb128 0x7
 1965 0386 04       		.byte	0x4
 1966 0387 04       		.byte	0x4
 1967 0388 64       		.byte	0x64
 1968 0389 9C030000 		.long	0x39c
 1969 038d 05       		.uleb128 0x5
 1970 038e 00000000 		.secrel32	LASF0
 1971 0392 04       		.byte	0x4
 1972 0393 66       		.byte	0x66
 1973 0394 6B030000 		.long	0x36b
 1974 0398 02       		.byte	0x2
 1975 0399 23       		.byte	0x23
 1976 039a 00       		.uleb128 0
 1977 039b 00       		.byte	0
 1978 039c 03       		.uleb128 0x3
 1979 039d 54687265 		.ascii "ThreadsList\0"
 1979      6164734C 
 1979      69737400 
 1980 03a9 04       		.byte	0x4
 1981 03aa 69       		.byte	0x69
 1982 03ab 85030000 		.long	0x385
 1983 03af 03       		.uleb128 0x3
 1984 03b0 72656778 		.ascii "regx86\0"
 1984      383600
 1985 03b7 06       		.byte	0x6
 1986 03b8 44       		.byte	0x44
 1987 03b9 BD030000 		.long	0x3bd
 1988 03bd 09       		.uleb128 0x9
 1989 03be 04       		.byte	0x4
 1990 03bf 04       		.uleb128 0x4
 1991 03c0 696E7463 		.ascii "intctx\0"
 1991      747800
 1992 03c7 14       		.byte	0x14
 1993 03c8 06       		.byte	0x6
 1994 03c9 52       		.byte	0x52
 1995 03ca 15040000 		.long	0x415
 1996 03ce 06       		.uleb128 0x6
 1997 03cf 65627800 		.ascii "ebx\0"
 1998 03d3 06       		.byte	0x6
 1999 03d4 53       		.byte	0x53
 2000 03d5 AF030000 		.long	0x3af
 2001 03d9 02       		.byte	0x2
 2002 03da 23       		.byte	0x23
 2003 03db 00       		.uleb128 0
 2004 03dc 06       		.uleb128 0x6
 2005 03dd 65646900 		.ascii "edi\0"
 2006 03e1 06       		.byte	0x6
 2007 03e2 54       		.byte	0x54
 2008 03e3 AF030000 		.long	0x3af
GAS LISTING C:\cygwin\tmp\ccbhk3zs.s 			page 50


 2009 03e7 02       		.byte	0x2
 2010 03e8 23       		.byte	0x23
 2011 03e9 04       		.uleb128 0x4
 2012 03ea 06       		.uleb128 0x6
 2013 03eb 65736900 		.ascii "esi\0"
 2014 03ef 06       		.byte	0x6
 2015 03f0 55       		.byte	0x55
 2016 03f1 AF030000 		.long	0x3af
 2017 03f5 02       		.byte	0x2
 2018 03f6 23       		.byte	0x23
 2019 03f7 08       		.uleb128 0x8
 2020 03f8 06       		.uleb128 0x6
 2021 03f9 65627000 		.ascii "ebp\0"
 2022 03fd 06       		.byte	0x6
 2023 03fe 56       		.byte	0x56
 2024 03ff AF030000 		.long	0x3af
 2025 0403 02       		.byte	0x2
 2026 0404 23       		.byte	0x23
 2027 0405 0C       		.uleb128 0xc
 2028 0406 06       		.uleb128 0x6
 2029 0407 65697000 		.ascii "eip\0"
 2030 040b 06       		.byte	0x6
 2031 040c 57       		.byte	0x57
 2032 040d AF030000 		.long	0x3af
 2033 0411 02       		.byte	0x2
 2034 0412 23       		.byte	0x23
 2035 0413 10       		.uleb128 0x10
 2036 0414 00       		.byte	0
 2037 0415 04       		.uleb128 0x4
 2038 0416 636F6E74 		.ascii "context\0"
 2038      65787400 
 2039 041e 04       		.byte	0x4
 2040 041f 06       		.byte	0x6
 2041 0420 5F       		.byte	0x5f
 2042 0421 34040000 		.long	0x434
 2043 0425 06       		.uleb128 0x6
 2044 0426 65737000 		.ascii "esp\0"
 2045 042a 06       		.byte	0x6
 2046 042b 60       		.byte	0x60
 2047 042c 34040000 		.long	0x434
 2048 0430 02       		.byte	0x2
 2049 0431 23       		.byte	0x23
 2050 0432 00       		.uleb128 0
 2051 0433 00       		.byte	0
 2052 0434 08       		.uleb128 0x8
 2053 0435 04       		.byte	0x4
 2054 0436 3A040000 		.long	0x43a
 2055 043a 0A       		.uleb128 0xa
 2056 043b BF030000 		.long	0x3bf
 2057 043f 03       		.uleb128 0x3
 2058 0440 76746675 		.ascii "vtfunc_t\0"
 2058      6E635F74 
 2058      00
 2059 0449 07       		.byte	0x7
 2060 044a 4E       		.byte	0x4e
 2061 044b 4F040000 		.long	0x44f
 2062 044f 08       		.uleb128 0x8
GAS LISTING C:\cygwin\tmp\ccbhk3zs.s 			page 51


 2063 0450 04       		.byte	0x4
 2064 0451 55040000 		.long	0x455
 2065 0455 0B       		.uleb128 0xb
 2066 0456 01       		.byte	0x1
 2067 0457 61040000 		.long	0x461
 2068 045b 0C       		.uleb128 0xc
 2069 045c BD030000 		.long	0x3bd
 2070 0460 00       		.byte	0
 2071 0461 0D       		.uleb128 0xd
 2072 0462 13000000 		.secrel32	LASF1
 2073 0466 07       		.byte	0x7
 2074 0467 53       		.byte	0x53
 2075 0468 6C040000 		.long	0x46c
 2076 046c 0E       		.uleb128 0xe
 2077 046d 13000000 		.secrel32	LASF1
 2078 0471 14       		.byte	0x14
 2079 0472 07       		.byte	0x7
 2080 0473 5A       		.byte	0x5a
 2081 0474 D2040000 		.long	0x4d2
 2082 0478 06       		.uleb128 0x6
 2083 0479 76745F6E 		.ascii "vt_next\0"
 2083      65787400 
 2084 0481 07       		.byte	0x7
 2085 0482 5B       		.byte	0x5b
 2086 0483 D2040000 		.long	0x4d2
 2087 0487 02       		.byte	0x2
 2088 0488 23       		.byte	0x23
 2089 0489 00       		.uleb128 0
 2090 048a 06       		.uleb128 0x6
 2091 048b 76745F70 		.ascii "vt_prev\0"
 2091      72657600 
 2092 0493 07       		.byte	0x7
 2093 0494 5D       		.byte	0x5d
 2094 0495 D2040000 		.long	0x4d2
 2095 0499 02       		.byte	0x2
 2096 049a 23       		.byte	0x23
 2097 049b 04       		.uleb128 0x4
 2098 049c 06       		.uleb128 0x6
 2099 049d 76745F74 		.ascii "vt_time\0"
 2099      696D6500 
 2100 04a5 07       		.byte	0x7
 2101 04a6 5F       		.byte	0x5f
 2102 04a7 AE010000 		.long	0x1ae
 2103 04ab 02       		.byte	0x2
 2104 04ac 23       		.byte	0x23
 2105 04ad 08       		.uleb128 0x8
 2106 04ae 06       		.uleb128 0x6
 2107 04af 76745F66 		.ascii "vt_func\0"
 2107      756E6300 
 2108 04b7 07       		.byte	0x7
 2109 04b8 60       		.byte	0x60
 2110 04b9 3F040000 		.long	0x43f
 2111 04bd 02       		.byte	0x2
 2112 04be 23       		.byte	0x23
 2113 04bf 0C       		.uleb128 0xc
 2114 04c0 06       		.uleb128 0x6
 2115 04c1 76745F70 		.ascii "vt_par\0"
GAS LISTING C:\cygwin\tmp\ccbhk3zs.s 			page 52


 2115      617200
 2116 04c8 07       		.byte	0x7
 2117 04c9 62       		.byte	0x62
 2118 04ca BD030000 		.long	0x3bd
 2119 04ce 02       		.byte	0x2
 2120 04cf 23       		.byte	0x23
 2121 04d0 10       		.uleb128 0x10
 2122 04d1 00       		.byte	0
 2123 04d2 08       		.uleb128 0x8
 2124 04d3 04       		.byte	0x4
 2125 04d4 61040000 		.long	0x461
 2126 04d8 07       		.uleb128 0x7
 2127 04d9 10       		.byte	0x10
 2128 04da 07       		.byte	0x7
 2129 04db 6C       		.byte	0x6c
 2130 04dc 2C050000 		.long	0x52c
 2131 04e0 06       		.uleb128 0x6
 2132 04e1 76745F6E 		.ascii "vt_next\0"
 2132      65787400 
 2133 04e9 07       		.byte	0x7
 2134 04ea 6D       		.byte	0x6d
 2135 04eb D2040000 		.long	0x4d2
 2136 04ef 02       		.byte	0x2
 2137 04f0 23       		.byte	0x23
 2138 04f1 00       		.uleb128 0
 2139 04f2 06       		.uleb128 0x6
 2140 04f3 76745F70 		.ascii "vt_prev\0"
 2140      72657600 
 2141 04fb 07       		.byte	0x7
 2142 04fc 6F       		.byte	0x6f
 2143 04fd D2040000 		.long	0x4d2
 2144 0501 02       		.byte	0x2
 2145 0502 23       		.byte	0x23
 2146 0503 04       		.uleb128 0x4
 2147 0504 06       		.uleb128 0x6
 2148 0505 76745F74 		.ascii "vt_time\0"
 2148      696D6500 
 2149 050d 07       		.byte	0x7
 2150 050e 71       		.byte	0x71
 2151 050f AE010000 		.long	0x1ae
 2152 0513 02       		.byte	0x2
 2153 0514 23       		.byte	0x23
 2154 0515 08       		.uleb128 0x8
 2155 0516 06       		.uleb128 0x6
 2156 0517 76745F73 		.ascii "vt_systime\0"
 2156      79737469 
 2156      6D6500
 2157 0522 07       		.byte	0x7
 2158 0523 72       		.byte	0x72
 2159 0524 2C050000 		.long	0x52c
 2160 0528 02       		.byte	0x2
 2161 0529 23       		.byte	0x23
 2162 052a 0C       		.uleb128 0xc
 2163 052b 00       		.byte	0
 2164 052c 0A       		.uleb128 0xa
 2165 052d AE010000 		.long	0x1ae
 2166 0531 03       		.uleb128 0x3
GAS LISTING C:\cygwin\tmp\ccbhk3zs.s 			page 53


 2167 0532 56544C69 		.ascii "VTList\0"
 2167      737400
 2168 0539 07       		.byte	0x7
 2169 053a 73       		.byte	0x73
 2170 053b D8040000 		.long	0x4d8
 2171 053f 07       		.uleb128 0x7
 2172 0540 1C       		.byte	0x1c
 2173 0541 08       		.byte	0x8
 2174 0542 57       		.byte	0x57
 2175 0543 B3050000 		.long	0x5b3
 2176 0547 06       		.uleb128 0x6
 2177 0548 725F7175 		.ascii "r_queue\0"
 2177      65756500 
 2178 0550 08       		.byte	0x8
 2179 0551 58       		.byte	0x58
 2180 0552 71030000 		.long	0x371
 2181 0556 02       		.byte	0x2
 2182 0557 23       		.byte	0x23
 2183 0558 00       		.uleb128 0
 2184 0559 06       		.uleb128 0x6
 2185 055a 725F7072 		.ascii "r_prio\0"
 2185      696F00
 2186 0561 08       		.byte	0x8
 2187 0562 59       		.byte	0x59
 2188 0563 5B010000 		.long	0x15b
 2189 0567 02       		.byte	0x2
 2190 0568 23       		.byte	0x23
 2191 0569 08       		.uleb128 0x8
 2192 056a 06       		.uleb128 0x6
 2193 056b 725F6374 		.ascii "r_ctx\0"
 2193      7800
 2194 0571 08       		.byte	0x8
 2195 0572 5B       		.byte	0x5b
 2196 0573 15040000 		.long	0x415
 2197 0577 02       		.byte	0x2
 2198 0578 23       		.byte	0x23
 2199 0579 0C       		.uleb128 0xc
 2200 057a 06       		.uleb128 0x6
 2201 057b 725F6E65 		.ascii "r_newer\0"
 2201      77657200 
 2202 0583 08       		.byte	0x8
 2203 0584 5E       		.byte	0x5e
 2204 0585 6B030000 		.long	0x36b
 2205 0589 02       		.byte	0x2
 2206 058a 23       		.byte	0x23
 2207 058b 10       		.uleb128 0x10
 2208 058c 06       		.uleb128 0x6
 2209 058d 725F6F6C 		.ascii "r_older\0"
 2209      64657200 
 2210 0595 08       		.byte	0x8
 2211 0596 5F       		.byte	0x5f
 2212 0597 6B030000 		.long	0x36b
 2213 059b 02       		.byte	0x2
 2214 059c 23       		.byte	0x23
 2215 059d 14       		.uleb128 0x14
 2216 059e 06       		.uleb128 0x6
 2217 059f 725F6375 		.ascii "r_current\0"
GAS LISTING C:\cygwin\tmp\ccbhk3zs.s 			page 54


 2217      7272656E 
 2217      7400
 2218 05a9 08       		.byte	0x8
 2219 05aa 62       		.byte	0x62
 2220 05ab 6B030000 		.long	0x36b
 2221 05af 02       		.byte	0x2
 2222 05b0 23       		.byte	0x23
 2223 05b1 18       		.uleb128 0x18
 2224 05b2 00       		.byte	0
 2225 05b3 03       		.uleb128 0x3
 2226 05b4 52656164 		.ascii "ReadyList\0"
 2226      794C6973 
 2226      7400
 2227 05be 08       		.byte	0x8
 2228 05bf 64       		.byte	0x64
 2229 05c0 3F050000 		.long	0x53f
 2230 05c4 04       		.uleb128 0x4
 2231 05c5 4D757465 		.ascii "Mutex\0"
 2231      7800
 2232 05cb 10       		.byte	0x10
 2233 05cc 09       		.byte	0x9
 2234 05cd 25       		.byte	0x25
 2235 05ce 08060000 		.long	0x608
 2236 05d2 06       		.uleb128 0x6
 2237 05d3 6D5F7175 		.ascii "m_queue\0"
 2237      65756500 
 2238 05db 09       		.byte	0x9
 2239 05dc 26       		.byte	0x26
 2240 05dd 71030000 		.long	0x371
 2241 05e1 02       		.byte	0x2
 2242 05e2 23       		.byte	0x23
 2243 05e3 00       		.uleb128 0
 2244 05e4 06       		.uleb128 0x6
 2245 05e5 6D5F6F77 		.ascii "m_owner\0"
 2245      6E657200 
 2246 05ed 09       		.byte	0x9
 2247 05ee 28       		.byte	0x28
 2248 05ef 6B030000 		.long	0x36b
 2249 05f3 02       		.byte	0x2
 2250 05f4 23       		.byte	0x23
 2251 05f5 08       		.uleb128 0x8
 2252 05f6 06       		.uleb128 0x6
 2253 05f7 6D5F6E65 		.ascii "m_next\0"
 2253      787400
 2254 05fe 09       		.byte	0x9
 2255 05ff 2A       		.byte	0x2a
 2256 0600 08060000 		.long	0x608
 2257 0604 02       		.byte	0x2
 2258 0605 23       		.byte	0x23
 2259 0606 0C       		.uleb128 0xc
 2260 0607 00       		.byte	0
 2261 0608 08       		.uleb128 0x8
 2262 0609 04       		.byte	0x4
 2263 060a C4050000 		.long	0x5c4
 2264 060e 03       		.uleb128 0x3
 2265 060f 4D757465 		.ascii "Mutex\0"
 2265      7800
GAS LISTING C:\cygwin\tmp\ccbhk3zs.s 			page 55


 2266 0615 09       		.byte	0x9
 2267 0616 2C       		.byte	0x2c
 2268 0617 C4050000 		.long	0x5c4
 2269 061b 0D       		.uleb128 0xd
 2270 061c 20000000 		.secrel32	LASF2
 2271 0620 0A       		.byte	0xa
 2272 0621 25       		.byte	0x25
 2273 0622 26060000 		.long	0x626
 2274 0626 0E       		.uleb128 0xe
 2275 0627 20000000 		.secrel32	LASF2
 2276 062b 10       		.byte	0x10
 2277 062c 0A       		.byte	0xa
 2278 062d 2A       		.byte	0x2a
 2279 062e 80060000 		.long	0x680
 2280 0632 06       		.uleb128 0x6
 2281 0633 656C5F6E 		.ascii "el_next\0"
 2281      65787400 
 2282 063b 0A       		.byte	0xa
 2283 063c 2B       		.byte	0x2b
 2284 063d 80060000 		.long	0x680
 2285 0641 02       		.byte	0x2
 2286 0642 23       		.byte	0x23
 2287 0643 00       		.uleb128 0
 2288 0644 06       		.uleb128 0x6
 2289 0645 656C5F6C 		.ascii "el_listener\0"
 2289      69737465 
 2289      6E657200 
 2290 0651 0A       		.byte	0xa
 2291 0652 2E       		.byte	0x2e
 2292 0653 6B030000 		.long	0x36b
 2293 0657 02       		.byte	0x2
 2294 0658 23       		.byte	0x23
 2295 0659 04       		.uleb128 0x4
 2296 065a 06       		.uleb128 0x6
 2297 065b 656C5F6D 		.ascii "el_mask\0"
 2297      61736B00 
 2298 0663 0A       		.byte	0xa
 2299 0664 30       		.byte	0x30
 2300 0665 88010000 		.long	0x188
 2301 0669 02       		.byte	0x2
 2302 066a 23       		.byte	0x23
 2303 066b 08       		.uleb128 0x8
 2304 066c 06       		.uleb128 0x6
 2305 066d 656C5F66 		.ascii "el_flags\0"
 2305      6C616773 
 2305      00
 2306 0676 0A       		.byte	0xa
 2307 0677 33       		.byte	0x33
 2308 0678 9B010000 		.long	0x19b
 2309 067c 02       		.byte	0x2
 2310 067d 23       		.byte	0x23
 2311 067e 0C       		.uleb128 0xc
 2312 067f 00       		.byte	0
 2313 0680 08       		.uleb128 0x8
 2314 0681 04       		.byte	0x4
 2315 0682 1B060000 		.long	0x61b
 2316 0686 0E       		.uleb128 0xe
GAS LISTING C:\cygwin\tmp\ccbhk3zs.s 			page 56


 2317 0687 07000000 		.secrel32	LASF3
 2318 068b 04       		.byte	0x4
 2319 068c 0A       		.byte	0xa
 2320 068d 3A       		.byte	0x3a
 2321 068e A5060000 		.long	0x6a5
 2322 0692 06       		.uleb128 0x6
 2323 0693 65735F6E 		.ascii "es_next\0"
 2323      65787400 
 2324 069b 0A       		.byte	0xa
 2325 069c 3B       		.byte	0x3b
 2326 069d 80060000 		.long	0x680
 2327 06a1 02       		.byte	0x2
 2328 06a2 23       		.byte	0x23
 2329 06a3 00       		.uleb128 0
 2330 06a4 00       		.byte	0
 2331 06a5 0D       		.uleb128 0xd
 2332 06a6 07000000 		.secrel32	LASF3
 2333 06aa 0A       		.byte	0xa
 2334 06ab 3E       		.byte	0x3e
 2335 06ac 86060000 		.long	0x686
 2336 06b0 03       		.uleb128 0x3
 2337 06b1 65766861 		.ascii "evhandler_t\0"
 2337      6E646C65 
 2337      725F7400 
 2338 06bd 0A       		.byte	0xa
 2339 06be 43       		.byte	0x43
 2340 06bf C3060000 		.long	0x6c3
 2341 06c3 08       		.uleb128 0x8
 2342 06c4 04       		.byte	0x4
 2343 06c5 C9060000 		.long	0x6c9
 2344 06c9 0B       		.uleb128 0xb
 2345 06ca 01       		.byte	0x1
 2346 06cb D5060000 		.long	0x6d5
 2347 06cf 0C       		.uleb128 0xc
 2348 06d0 77010000 		.long	0x177
 2349 06d4 00       		.byte	0
 2350 06d5 0F       		.uleb128 0xf
 2351 06d6 04       		.byte	0x4
 2352 06d7 05       		.byte	0x5
 2353 06d8 8F       		.byte	0x8f
 2354 06d9 18070000 		.long	0x718
 2355 06dd 10       		.uleb128 0x10
 2356 06de 7264796D 		.ascii "rdymsg\0"
 2356      736700
 2357 06e5 05       		.byte	0x5
 2358 06e6 96       		.byte	0x96
 2359 06e7 6A010000 		.long	0x16a
 2360 06eb 10       		.uleb128 0x10
 2361 06ec 65786974 		.ascii "exitcode\0"
 2361      636F6465 
 2361      00
 2362 06f5 05       		.byte	0x5
 2363 06f6 9D       		.byte	0x9d
 2364 06f7 6A010000 		.long	0x16a
 2365 06fb 10       		.uleb128 0x10
 2366 06fc 77746F62 		.ascii "wtobjp\0"
 2366      6A7000
GAS LISTING C:\cygwin\tmp\ccbhk3zs.s 			page 57


 2367 0703 05       		.byte	0x5
 2368 0704 A4       		.byte	0xa4
 2369 0705 BD030000 		.long	0x3bd
 2370 0709 10       		.uleb128 0x10
 2371 070a 65776D61 		.ascii "ewmask\0"
 2371      736B00
 2372 0711 05       		.byte	0x5
 2373 0712 AB       		.byte	0xab
 2374 0713 88010000 		.long	0x188
 2375 0717 00       		.byte	0
 2376 0718 08       		.uleb128 0x8
 2377 0719 04       		.byte	0x4
 2378 071a 1E070000 		.long	0x71e
 2379 071e 11       		.uleb128 0x11
 2380 071f 23070000 		.long	0x723
 2381 0723 02       		.uleb128 0x2
 2382 0724 01       		.byte	0x1
 2383 0725 06       		.byte	0x6
 2384 0726 63686172 		.ascii "char\0"
 2384      00
 2385 072b 08       		.uleb128 0x8
 2386 072c 04       		.byte	0x4
 2387 072d 0E060000 		.long	0x60e
 2388 0731 04       		.uleb128 0x4
 2389 0732 74657374 		.ascii "testcase\0"
 2389      63617365 
 2389      00
 2390 073b 10       		.byte	0x10
 2391 073c 0B       		.byte	0xb
 2392 073d 3F       		.byte	0x3f
 2393 073e 87070000 		.long	0x787
 2394 0742 06       		.uleb128 0x6
 2395 0743 6E616D65 		.ascii "name\0"
 2395      00
 2396 0748 0B       		.byte	0xb
 2397 0749 40       		.byte	0x40
 2398 074a 18070000 		.long	0x718
 2399 074e 02       		.byte	0x2
 2400 074f 23       		.byte	0x23
 2401 0750 00       		.uleb128 0
 2402 0751 06       		.uleb128 0x6
 2403 0752 73657475 		.ascii "setup\0"
 2403      7000
 2404 0758 0B       		.byte	0xb
 2405 0759 41       		.byte	0x41
 2406 075a 89070000 		.long	0x789
 2407 075e 02       		.byte	0x2
 2408 075f 23       		.byte	0x23
 2409 0760 04       		.uleb128 0x4
 2410 0761 06       		.uleb128 0x6
 2411 0762 74656172 		.ascii "teardown\0"
 2411      646F776E 
 2411      00
 2412 076b 0B       		.byte	0xb
 2413 076c 42       		.byte	0x42
 2414 076d 89070000 		.long	0x789
 2415 0771 02       		.byte	0x2
GAS LISTING C:\cygwin\tmp\ccbhk3zs.s 			page 58


 2416 0772 23       		.byte	0x23
 2417 0773 08       		.uleb128 0x8
 2418 0774 06       		.uleb128 0x6
 2419 0775 65786563 		.ascii "execute\0"
 2419      75746500 
 2420 077d 0B       		.byte	0xb
 2421 077e 43       		.byte	0x43
 2422 077f 89070000 		.long	0x789
 2423 0783 02       		.byte	0x2
 2424 0784 23       		.byte	0x23
 2425 0785 0C       		.uleb128 0xc
 2426 0786 00       		.byte	0
 2427 0787 12       		.uleb128 0x12
 2428 0788 01       		.byte	0x1
 2429 0789 08       		.uleb128 0x8
 2430 078a 04       		.byte	0x4
 2431 078b 87070000 		.long	0x787
 2432 078f 13       		.uleb128 0x13
 2433 0790 65767431 		.ascii "evt1_setup\0"
 2433      5F736574 
 2433      757000
 2434 079b 01       		.byte	0x1
 2435 079c 4F       		.byte	0x4f
 2436 079d 01       		.byte	0x1
 2437 079e 00000000 		.long	LFB0
 2438 07a2 4B000000 		.long	LFE0
 2439 07a6 00000000 		.secrel32	LLST0
 2440 07aa 14       		.uleb128 0x14
 2441 07ab 683100   		.ascii "h1\0"
 2442 07ae 01       		.byte	0x1
 2443 07af 54       		.byte	0x54
 2444 07b0 01       		.byte	0x1
 2445 07b1 4B000000 		.long	LFB1
 2446 07b5 96000000 		.long	LFE1
 2447 07b9 2C000000 		.secrel32	LLST1
 2448 07bd CF070000 		.long	0x7cf
 2449 07c1 15       		.uleb128 0x15
 2450 07c2 696400   		.ascii "id\0"
 2451 07c5 01       		.byte	0x1
 2452 07c6 54       		.byte	0x54
 2453 07c7 77010000 		.long	0x177
 2454 07cb 02       		.byte	0x2
 2455 07cc 91       		.byte	0x91
 2456 07cd 00       		.sleb128 0
 2457 07ce 00       		.byte	0
 2458 07cf 14       		.uleb128 0x14
 2459 07d0 683200   		.ascii "h2\0"
 2460 07d3 01       		.byte	0x1
 2461 07d4 55       		.byte	0x55
 2462 07d5 01       		.byte	0x1
 2463 07d6 96000000 		.long	LFB2
 2464 07da E1000000 		.long	LFE2
 2465 07de 58000000 		.secrel32	LLST2
 2466 07e2 F4070000 		.long	0x7f4
 2467 07e6 15       		.uleb128 0x15
 2468 07e7 696400   		.ascii "id\0"
 2469 07ea 01       		.byte	0x1
GAS LISTING C:\cygwin\tmp\ccbhk3zs.s 			page 59


 2470 07eb 55       		.byte	0x55
 2471 07ec 77010000 		.long	0x177
 2472 07f0 02       		.byte	0x2
 2473 07f1 91       		.byte	0x91
 2474 07f2 00       		.sleb128 0
 2475 07f3 00       		.byte	0
 2476 07f4 14       		.uleb128 0x14
 2477 07f5 683300   		.ascii "h3\0"
 2478 07f8 01       		.byte	0x1
 2479 07f9 56       		.byte	0x56
 2480 07fa 01       		.byte	0x1
 2481 07fb E1000000 		.long	LFB3
 2482 07ff 2C010000 		.long	LFE3
 2483 0803 84000000 		.secrel32	LLST3
 2484 0807 19080000 		.long	0x819
 2485 080b 15       		.uleb128 0x15
 2486 080c 696400   		.ascii "id\0"
 2487 080f 01       		.byte	0x1
 2488 0810 56       		.byte	0x56
 2489 0811 77010000 		.long	0x177
 2490 0815 02       		.byte	0x2
 2491 0816 91       		.byte	0x91
 2492 0817 00       		.sleb128 0
 2493 0818 00       		.byte	0
 2494 0819 14       		.uleb128 0x14
 2495 081a 65767431 		.ascii "evt1_execute\0"
 2495      5F657865 
 2495      63757465 
 2495      00
 2496 0827 01       		.byte	0x1
 2497 0828 59       		.byte	0x59
 2498 0829 01       		.byte	0x1
 2499 082a 2C010000 		.long	LFB4
 2500 082e CE030000 		.long	LFE4
 2501 0832 B0000000 		.secrel32	LLST4
 2502 0836 57080000 		.long	0x857
 2503 083a 16       		.uleb128 0x16
 2504 083b 656C3100 		.ascii "el1\0"
 2505 083f 01       		.byte	0x1
 2506 0840 5A       		.byte	0x5a
 2507 0841 1B060000 		.long	0x61b
 2508 0845 02       		.byte	0x2
 2509 0846 91       		.byte	0x91
 2510 0847 60       		.sleb128 -32
 2511 0848 16       		.uleb128 0x16
 2512 0849 656C3200 		.ascii "el2\0"
 2513 084d 01       		.byte	0x1
 2514 084e 5A       		.byte	0x5a
 2515 084f 1B060000 		.long	0x61b
 2516 0853 02       		.byte	0x2
 2517 0854 91       		.byte	0x91
 2518 0855 50       		.sleb128 -48
 2519 0856 00       		.byte	0
 2520 0857 13       		.uleb128 0x13
 2521 0858 65767432 		.ascii "evt2_setup\0"
 2521      5F736574 
 2521      757000
GAS LISTING C:\cygwin\tmp\ccbhk3zs.s 			page 60


 2522 0863 01       		.byte	0x1
 2523 0864 84       		.byte	0x84
 2524 0865 01       		.byte	0x1
 2525 0866 CE030000 		.long	LFB5
 2526 086a 19040000 		.long	LFE5
 2527 086e DD000000 		.secrel32	LLST5
 2528 0872 17       		.uleb128 0x17
 2529 0873 74687265 		.ascii "thread1\0"
 2529      61643100 
 2530 087b 01       		.byte	0x1
 2531 087c 89       		.byte	0x89
 2532 087d 01       		.byte	0x1
 2533 087e 6A010000 		.long	0x16a
 2534 0882 19040000 		.long	LFB6
 2535 0886 99040000 		.long	LFE6
 2536 088a 09010000 		.secrel32	LLST6
 2537 088e 9F080000 		.long	0x89f
 2538 0892 15       		.uleb128 0x15
 2539 0893 7000     		.ascii "p\0"
 2540 0895 01       		.byte	0x1
 2541 0896 89       		.byte	0x89
 2542 0897 BD030000 		.long	0x3bd
 2543 089b 02       		.byte	0x2
 2544 089c 91       		.byte	0x91
 2545 089d 00       		.sleb128 0
 2546 089e 00       		.byte	0
 2547 089f 17       		.uleb128 0x17
 2548 08a0 74687265 		.ascii "thread2\0"
 2548      61643200 
 2549 08a8 01       		.byte	0x1
 2550 08a9 90       		.byte	0x90
 2551 08aa 01       		.byte	0x1
 2552 08ab 6A010000 		.long	0x16a
 2553 08af 99040000 		.long	LFB7
 2554 08b3 49050000 		.long	LFE7
 2555 08b7 35010000 		.secrel32	LLST7
 2556 08bb CC080000 		.long	0x8cc
 2557 08bf 15       		.uleb128 0x15
 2558 08c0 7000     		.ascii "p\0"
 2559 08c2 01       		.byte	0x1
 2560 08c3 90       		.byte	0x90
 2561 08c4 BD030000 		.long	0x3bd
 2562 08c8 02       		.byte	0x2
 2563 08c9 91       		.byte	0x91
 2564 08ca 00       		.sleb128 0
 2565 08cb 00       		.byte	0
 2566 08cc 14       		.uleb128 0x14
 2567 08cd 65767432 		.ascii "evt2_execute\0"
 2567      5F657865 
 2567      63757465 
 2567      00
 2568 08da 01       		.byte	0x1
 2569 08db 99       		.byte	0x99
 2570 08dc 01       		.byte	0x1
 2571 08dd 49050000 		.long	LFB8
 2572 08e1 1E100000 		.long	LFE8
 2573 08e5 61010000 		.secrel32	LLST8
GAS LISTING C:\cygwin\tmp\ccbhk3zs.s 			page 61


 2574 08e9 2C090000 		.long	0x92c
 2575 08ed 16       		.uleb128 0x16
 2576 08ee 6D00     		.ascii "m\0"
 2577 08f0 01       		.byte	0x1
 2578 08f1 9A       		.byte	0x9a
 2579 08f2 88010000 		.long	0x188
 2580 08f6 02       		.byte	0x2
 2581 08f7 91       		.byte	0x91
 2582 08f8 6C       		.sleb128 -20
 2583 08f9 16       		.uleb128 0x16
 2584 08fa 656C3100 		.ascii "el1\0"
 2585 08fe 01       		.byte	0x1
 2586 08ff 9B       		.byte	0x9b
 2587 0900 1B060000 		.long	0x61b
 2588 0904 02       		.byte	0x2
 2589 0905 91       		.byte	0x91
 2590 0906 58       		.sleb128 -40
 2591 0907 16       		.uleb128 0x16
 2592 0908 656C3200 		.ascii "el2\0"
 2593 090c 01       		.byte	0x1
 2594 090d 9B       		.byte	0x9b
 2595 090e 1B060000 		.long	0x61b
 2596 0912 02       		.byte	0x2
 2597 0913 91       		.byte	0x91
 2598 0914 48       		.sleb128 -56
 2599 0915 16       		.uleb128 0x16
 2600 0916 74617267 		.ascii "target_time\0"
 2600      65745F74 
 2600      696D6500 
 2601 0922 01       		.byte	0x1
 2602 0923 9C       		.byte	0x9c
 2603 0924 AE010000 		.long	0x1ae
 2604 0928 02       		.byte	0x2
 2605 0929 91       		.byte	0x91
 2606 092a 68       		.sleb128 -24
 2607 092b 00       		.byte	0
 2608 092c 13       		.uleb128 0x13
 2609 092d 65767433 		.ascii "evt3_setup\0"
 2609      5F736574 
 2609      757000
 2610 0938 01       		.byte	0x1
 2611 0939 FB       		.byte	0xfb
 2612 093a 01       		.byte	0x1
 2613 093b 1E100000 		.long	LFB9
 2614 093f 69100000 		.long	LFE9
 2615 0943 8E010000 		.secrel32	LLST9
 2616 0947 18       		.uleb128 0x18
 2617 0948 65767433 		.ascii "evt3_execute\0"
 2617      5F657865 
 2617      63757465 
 2617      00
 2618 0955 01       		.byte	0x1
 2619 0956 0001     		.word	0x100
 2620 0958 01       		.byte	0x1
 2621 0959 69100000 		.long	LFB10
 2622 095d E9130000 		.long	LFE10
 2623 0961 BA010000 		.secrel32	LLST10
GAS LISTING C:\cygwin\tmp\ccbhk3zs.s 			page 62


 2624 0965 77090000 		.long	0x977
 2625 0969 19       		.uleb128 0x19
 2626 096a 6D00     		.ascii "m\0"
 2627 096c 01       		.byte	0x1
 2628 096d 0101     		.word	0x101
 2629 096f 88010000 		.long	0x188
 2630 0973 02       		.byte	0x2
 2631 0974 91       		.byte	0x91
 2632 0975 6C       		.sleb128 -20
 2633 0976 00       		.byte	0
 2634 0977 1A       		.uleb128 0x1a
 2635 0978 5F474C4F 		.ascii "_GLOBAL__sub_I_65535_0_testevt1\0"
 2635      42414C5F 
 2635      5F737562 
 2635      5F495F36 
 2635      35353335 
 2636 0998 01       		.byte	0x1
 2637 0999 01       		.byte	0x1
 2638 099a E9130000 		.long	LFB11
 2639 099e FC130000 		.long	LFE11
 2640 09a2 E6010000 		.secrel32	LLST11
 2641 09a6 1B       		.uleb128 0x1b
 2642 09a7 76746C69 		.ascii "vtlist\0"
 2642      737400
 2643 09ae 07       		.byte	0x7
 2644 09af D1       		.byte	0xd1
 2645 09b0 31050000 		.long	0x531
 2646 09b4 01       		.byte	0x1
 2647 09b5 01       		.byte	0x1
 2648 09b6 1B       		.uleb128 0x1b
 2649 09b7 726C6973 		.ascii "rlist\0"
 2649      7400
 2650 09bd 08       		.byte	0x8
 2651 09be 68       		.byte	0x68
 2652 09bf B3050000 		.long	0x5b3
 2653 09c3 01       		.byte	0x1
 2654 09c4 01       		.byte	0x1
 2655 09c5 1C       		.uleb128 0x1c
 2656 09c6 6B030000 		.long	0x36b
 2657 09ca D5090000 		.long	0x9d5
 2658 09ce 1D       		.uleb128 0x1d
 2659 09cf 67000000 		.long	0x67
 2660 09d3 04       		.byte	0x4
 2661 09d4 00       		.byte	0
 2662 09d5 1B       		.uleb128 0x1b
 2663 09d6 74687265 		.ascii "threads\0"
 2663      61647300 
 2664 09de 0B       		.byte	0xb
 2665 09df A9       		.byte	0xa9
 2666 09e0 C5090000 		.long	0x9c5
 2667 09e4 01       		.byte	0x1
 2668 09e5 01       		.byte	0x1
 2669 09e6 1C       		.uleb128 0x1c
 2670 09e7 BD030000 		.long	0x3bd
 2671 09eb F1090000 		.long	0x9f1
 2672 09ef 1E       		.uleb128 0x1e
 2673 09f0 00       		.byte	0
GAS LISTING C:\cygwin\tmp\ccbhk3zs.s 			page 63


 2674 09f1 1B       		.uleb128 0x1b
 2675 09f2 776100   		.ascii "wa\0"
 2676 09f5 0B       		.byte	0xb
 2677 09f6 AB       		.byte	0xab
 2678 09f7 FD090000 		.long	0x9fd
 2679 09fb 01       		.byte	0x1
 2680 09fc 01       		.byte	0x1
 2681 09fd 11       		.uleb128 0x11
 2682 09fe E6090000 		.long	0x9e6
 2683 0a02 16       		.uleb128 0x16
 2684 0a03 65733100 		.ascii "es1\0"
 2685 0a07 01       		.byte	0x1
 2686 0a08 3F       		.byte	0x3f
 2687 0a09 A5060000 		.long	0x6a5
 2688 0a0d 05       		.byte	0x5
 2689 0a0e 03       		.byte	0x3
 2690 0a0f 00000000 		.long	_es1
 2691 0a13 16       		.uleb128 0x16
 2692 0a14 65733200 		.ascii "es2\0"
 2693 0a18 01       		.byte	0x1
 2694 0a19 40       		.byte	0x40
 2695 0a1a A5060000 		.long	0x6a5
 2696 0a1e 05       		.byte	0x5
 2697 0a1f 03       		.byte	0x3
 2698 0a20 04000000 		.long	_es2
 2699 0a24 1C       		.uleb128 0x1c
 2700 0a25 B0060000 		.long	0x6b0
 2701 0a29 340A0000 		.long	0xa34
 2702 0a2d 1D       		.uleb128 0x1d
 2703 0a2e 67000000 		.long	0x67
 2704 0a32 02       		.byte	0x2
 2705 0a33 00       		.byte	0
 2706 0a34 16       		.uleb128 0x16
 2707 0a35 6576686E 		.ascii "evhndl\0"
 2707      646C00
 2708 0a3c 01       		.byte	0x1
 2709 0a3d 57       		.byte	0x57
 2710 0a3e 480A0000 		.long	0xa48
 2711 0a42 05       		.byte	0x5
 2712 0a43 03       		.byte	0x3
 2713 0a44 00000000 		.long	_evhndl
 2714 0a48 11       		.uleb128 0x11
 2715 0a49 240A0000 		.long	0xa24
 2716 0a4d 1F       		.uleb128 0x1f
 2717 0a4e 2E000000 		.secrel32	LASF4
 2718 0a52 01       		.byte	0x1
 2719 0a53 6F       		.byte	0x6f
 2720 0a54 5A0A0000 		.long	0xa5a
 2721 0a58 01       		.byte	0x1
 2722 0a59 01       		.byte	0x1
 2723 0a5a 11       		.uleb128 0x11
 2724 0a5b 31070000 		.long	0x731
 2725 0a5f 1F       		.uleb128 0x1f
 2726 0a60 37000000 		.secrel32	LASF5
 2727 0a64 01       		.byte	0x1
 2728 0a65 E4       		.byte	0xe4
 2729 0a66 5A0A0000 		.long	0xa5a
GAS LISTING C:\cygwin\tmp\ccbhk3zs.s 			page 64


 2730 0a6a 01       		.byte	0x1
 2731 0a6b 01       		.byte	0x1
 2732 0a6c 20       		.uleb128 0x20
 2733 0a6d 40000000 		.secrel32	LASF6
 2734 0a71 01       		.byte	0x1
 2735 0a72 1401     		.word	0x114
 2736 0a74 5A0A0000 		.long	0xa5a
 2737 0a78 01       		.byte	0x1
 2738 0a79 01       		.byte	0x1
 2739 0a7a 1B       		.uleb128 0x1b
 2740 0a7b 76746C69 		.ascii "vtlist\0"
 2740      737400
 2741 0a82 07       		.byte	0x7
 2742 0a83 D1       		.byte	0xd1
 2743 0a84 31050000 		.long	0x531
 2744 0a88 01       		.byte	0x1
 2745 0a89 01       		.byte	0x1
 2746 0a8a 1B       		.uleb128 0x1b
 2747 0a8b 726C6973 		.ascii "rlist\0"
 2747      7400
 2748 0a91 08       		.byte	0x8
 2749 0a92 68       		.byte	0x68
 2750 0a93 B3050000 		.long	0x5b3
 2751 0a97 01       		.byte	0x1
 2752 0a98 01       		.byte	0x1
 2753 0a99 1B       		.uleb128 0x1b
 2754 0a9a 74687265 		.ascii "threads\0"
 2754      61647300 
 2755 0aa2 0B       		.byte	0xb
 2756 0aa3 A9       		.byte	0xa9
 2757 0aa4 C5090000 		.long	0x9c5
 2758 0aa8 01       		.byte	0x1
 2759 0aa9 01       		.byte	0x1
 2760 0aaa 1B       		.uleb128 0x1b
 2761 0aab 776100   		.ascii "wa\0"
 2762 0aae 0B       		.byte	0xb
 2763 0aaf AB       		.byte	0xab
 2764 0ab0 B60A0000 		.long	0xab6
 2765 0ab4 01       		.byte	0x1
 2766 0ab5 01       		.byte	0x1
 2767 0ab6 11       		.uleb128 0x11
 2768 0ab7 E6090000 		.long	0x9e6
 2769 0abb 21       		.uleb128 0x21
 2770 0abc 2E000000 		.secrel32	LASF4
 2771 0ac0 01       		.byte	0x1
 2772 0ac1 6F       		.byte	0x6f
 2773 0ac2 5A0A0000 		.long	0xa5a
 2774 0ac6 01       		.byte	0x1
 2775 0ac7 05       		.byte	0x5
 2776 0ac8 03       		.byte	0x3
 2777 0ac9 34000000 		.long	_testevt1
 2778 0acd 21       		.uleb128 0x21
 2779 0ace 37000000 		.secrel32	LASF5
 2780 0ad2 01       		.byte	0x1
 2781 0ad3 E4       		.byte	0xe4
 2782 0ad4 5A0A0000 		.long	0xa5a
 2783 0ad8 01       		.byte	0x1
GAS LISTING C:\cygwin\tmp\ccbhk3zs.s 			page 65


 2784 0ad9 05       		.byte	0x5
 2785 0ada 03       		.byte	0x3
 2786 0adb 64000000 		.long	_testevt2
 2787 0adf 22       		.uleb128 0x22
 2788 0ae0 40000000 		.secrel32	LASF6
 2789 0ae4 01       		.byte	0x1
 2790 0ae5 1401     		.word	0x114
 2791 0ae7 5A0A0000 		.long	0xa5a
 2792 0aeb 01       		.byte	0x1
 2793 0aec 05       		.byte	0x5
 2794 0aed 03       		.byte	0x3
 2795 0aee 88000000 		.long	_testevt3
 2796 0af2 1C       		.uleb128 0x1c
 2797 0af3 020B0000 		.long	0xb02
 2798 0af7 020B0000 		.long	0xb02
 2799 0afb 1D       		.uleb128 0x1d
 2800 0afc 67000000 		.long	0x67
 2801 0b00 03       		.byte	0x3
 2802 0b01 00       		.byte	0
 2803 0b02 08       		.uleb128 0x8
 2804 0b03 04       		.byte	0x4
 2805 0b04 5A0A0000 		.long	0xa5a
 2806 0b08 23       		.uleb128 0x23
 2807 0b09 70617474 		.ascii "patternevt\0"
 2807      65726E65 
 2807      767400
 2808 0b14 01       		.byte	0x1
 2809 0b15 1F01     		.word	0x11f
 2810 0b17 220B0000 		.long	0xb22
 2811 0b1b 01       		.byte	0x1
 2812 0b1c 05       		.byte	0x5
 2813 0b1d 03       		.byte	0x3
 2814 0b1e 98000000 		.long	_patternevt
 2815 0b22 11       		.uleb128 0x11
 2816 0b23 F20A0000 		.long	0xaf2
 2817 0b27 00       		.byte	0
 2818              		.section	.debug_abbrev,"dr"
 2819              	Ldebug_abbrev0:
 2820 0000 01       		.uleb128 0x1
 2821 0001 11       		.uleb128 0x11
 2822 0002 01       		.byte	0x1
 2823 0003 25       		.uleb128 0x25
 2824 0004 08       		.uleb128 0x8
 2825 0005 13       		.uleb128 0x13
 2826 0006 0B       		.uleb128 0xb
 2827 0007 03       		.uleb128 0x3
 2828 0008 08       		.uleb128 0x8
 2829 0009 1B       		.uleb128 0x1b
 2830 000a 08       		.uleb128 0x8
 2831 000b 11       		.uleb128 0x11
 2832 000c 01       		.uleb128 0x1
 2833 000d 12       		.uleb128 0x12
 2834 000e 01       		.uleb128 0x1
 2835 000f 10       		.uleb128 0x10
 2836 0010 06       		.uleb128 0x6
 2837 0011 00       		.byte	0
 2838 0012 00       		.byte	0
GAS LISTING C:\cygwin\tmp\ccbhk3zs.s 			page 66


 2839 0013 02       		.uleb128 0x2
 2840 0014 24       		.uleb128 0x24
 2841 0015 00       		.byte	0
 2842 0016 0B       		.uleb128 0xb
 2843 0017 0B       		.uleb128 0xb
 2844 0018 3E       		.uleb128 0x3e
 2845 0019 0B       		.uleb128 0xb
 2846 001a 03       		.uleb128 0x3
 2847 001b 08       		.uleb128 0x8
 2848 001c 00       		.byte	0
 2849 001d 00       		.byte	0
 2850 001e 03       		.uleb128 0x3
 2851 001f 16       		.uleb128 0x16
 2852 0020 00       		.byte	0
 2853 0021 03       		.uleb128 0x3
 2854 0022 08       		.uleb128 0x8
 2855 0023 3A       		.uleb128 0x3a
 2856 0024 0B       		.uleb128 0xb
 2857 0025 3B       		.uleb128 0x3b
 2858 0026 0B       		.uleb128 0xb
 2859 0027 49       		.uleb128 0x49
 2860 0028 13       		.uleb128 0x13
 2861 0029 00       		.byte	0
 2862 002a 00       		.byte	0
 2863 002b 04       		.uleb128 0x4
 2864 002c 13       		.uleb128 0x13
 2865 002d 01       		.byte	0x1
 2866 002e 03       		.uleb128 0x3
 2867 002f 08       		.uleb128 0x8
 2868 0030 0B       		.uleb128 0xb
 2869 0031 0B       		.uleb128 0xb
 2870 0032 3A       		.uleb128 0x3a
 2871 0033 0B       		.uleb128 0xb
 2872 0034 3B       		.uleb128 0x3b
 2873 0035 0B       		.uleb128 0xb
 2874 0036 01       		.uleb128 0x1
 2875 0037 13       		.uleb128 0x13
 2876 0038 00       		.byte	0
 2877 0039 00       		.byte	0
 2878 003a 05       		.uleb128 0x5
 2879 003b 0D       		.uleb128 0xd
 2880 003c 00       		.byte	0
 2881 003d 03       		.uleb128 0x3
 2882 003e 0E       		.uleb128 0xe
 2883 003f 3A       		.uleb128 0x3a
 2884 0040 0B       		.uleb128 0xb
 2885 0041 3B       		.uleb128 0x3b
 2886 0042 0B       		.uleb128 0xb
 2887 0043 49       		.uleb128 0x49
 2888 0044 13       		.uleb128 0x13
 2889 0045 38       		.uleb128 0x38
 2890 0046 0A       		.uleb128 0xa
 2891 0047 00       		.byte	0
 2892 0048 00       		.byte	0
 2893 0049 06       		.uleb128 0x6
 2894 004a 0D       		.uleb128 0xd
 2895 004b 00       		.byte	0
GAS LISTING C:\cygwin\tmp\ccbhk3zs.s 			page 67


 2896 004c 03       		.uleb128 0x3
 2897 004d 08       		.uleb128 0x8
 2898 004e 3A       		.uleb128 0x3a
 2899 004f 0B       		.uleb128 0xb
 2900 0050 3B       		.uleb128 0x3b
 2901 0051 0B       		.uleb128 0xb
 2902 0052 49       		.uleb128 0x49
 2903 0053 13       		.uleb128 0x13
 2904 0054 38       		.uleb128 0x38
 2905 0055 0A       		.uleb128 0xa
 2906 0056 00       		.byte	0
 2907 0057 00       		.byte	0
 2908 0058 07       		.uleb128 0x7
 2909 0059 13       		.uleb128 0x13
 2910 005a 01       		.byte	0x1
 2911 005b 0B       		.uleb128 0xb
 2912 005c 0B       		.uleb128 0xb
 2913 005d 3A       		.uleb128 0x3a
 2914 005e 0B       		.uleb128 0xb
 2915 005f 3B       		.uleb128 0x3b
 2916 0060 0B       		.uleb128 0xb
 2917 0061 01       		.uleb128 0x1
 2918 0062 13       		.uleb128 0x13
 2919 0063 00       		.byte	0
 2920 0064 00       		.byte	0
 2921 0065 08       		.uleb128 0x8
 2922 0066 0F       		.uleb128 0xf
 2923 0067 00       		.byte	0
 2924 0068 0B       		.uleb128 0xb
 2925 0069 0B       		.uleb128 0xb
 2926 006a 49       		.uleb128 0x49
 2927 006b 13       		.uleb128 0x13
 2928 006c 00       		.byte	0
 2929 006d 00       		.byte	0
 2930 006e 09       		.uleb128 0x9
 2931 006f 0F       		.uleb128 0xf
 2932 0070 00       		.byte	0
 2933 0071 0B       		.uleb128 0xb
 2934 0072 0B       		.uleb128 0xb
 2935 0073 00       		.byte	0
 2936 0074 00       		.byte	0
 2937 0075 0A       		.uleb128 0xa
 2938 0076 35       		.uleb128 0x35
 2939 0077 00       		.byte	0
 2940 0078 49       		.uleb128 0x49
 2941 0079 13       		.uleb128 0x13
 2942 007a 00       		.byte	0
 2943 007b 00       		.byte	0
 2944 007c 0B       		.uleb128 0xb
 2945 007d 15       		.uleb128 0x15
 2946 007e 01       		.byte	0x1
 2947 007f 27       		.uleb128 0x27
 2948 0080 0C       		.uleb128 0xc
 2949 0081 01       		.uleb128 0x1
 2950 0082 13       		.uleb128 0x13
 2951 0083 00       		.byte	0
 2952 0084 00       		.byte	0
GAS LISTING C:\cygwin\tmp\ccbhk3zs.s 			page 68


 2953 0085 0C       		.uleb128 0xc
 2954 0086 05       		.uleb128 0x5
 2955 0087 00       		.byte	0
 2956 0088 49       		.uleb128 0x49
 2957 0089 13       		.uleb128 0x13
 2958 008a 00       		.byte	0
 2959 008b 00       		.byte	0
 2960 008c 0D       		.uleb128 0xd
 2961 008d 16       		.uleb128 0x16
 2962 008e 00       		.byte	0
 2963 008f 03       		.uleb128 0x3
 2964 0090 0E       		.uleb128 0xe
 2965 0091 3A       		.uleb128 0x3a
 2966 0092 0B       		.uleb128 0xb
 2967 0093 3B       		.uleb128 0x3b
 2968 0094 0B       		.uleb128 0xb
 2969 0095 49       		.uleb128 0x49
 2970 0096 13       		.uleb128 0x13
 2971 0097 00       		.byte	0
 2972 0098 00       		.byte	0
 2973 0099 0E       		.uleb128 0xe
 2974 009a 13       		.uleb128 0x13
 2975 009b 01       		.byte	0x1
 2976 009c 03       		.uleb128 0x3
 2977 009d 0E       		.uleb128 0xe
 2978 009e 0B       		.uleb128 0xb
 2979 009f 0B       		.uleb128 0xb
 2980 00a0 3A       		.uleb128 0x3a
 2981 00a1 0B       		.uleb128 0xb
 2982 00a2 3B       		.uleb128 0x3b
 2983 00a3 0B       		.uleb128 0xb
 2984 00a4 01       		.uleb128 0x1
 2985 00a5 13       		.uleb128 0x13
 2986 00a6 00       		.byte	0
 2987 00a7 00       		.byte	0
 2988 00a8 0F       		.uleb128 0xf
 2989 00a9 17       		.uleb128 0x17
 2990 00aa 01       		.byte	0x1
 2991 00ab 0B       		.uleb128 0xb
 2992 00ac 0B       		.uleb128 0xb
 2993 00ad 3A       		.uleb128 0x3a
 2994 00ae 0B       		.uleb128 0xb
 2995 00af 3B       		.uleb128 0x3b
 2996 00b0 0B       		.uleb128 0xb
 2997 00b1 01       		.uleb128 0x1
 2998 00b2 13       		.uleb128 0x13
 2999 00b3 00       		.byte	0
 3000 00b4 00       		.byte	0
 3001 00b5 10       		.uleb128 0x10
 3002 00b6 0D       		.uleb128 0xd
 3003 00b7 00       		.byte	0
 3004 00b8 03       		.uleb128 0x3
 3005 00b9 08       		.uleb128 0x8
 3006 00ba 3A       		.uleb128 0x3a
 3007 00bb 0B       		.uleb128 0xb
 3008 00bc 3B       		.uleb128 0x3b
 3009 00bd 0B       		.uleb128 0xb
GAS LISTING C:\cygwin\tmp\ccbhk3zs.s 			page 69


 3010 00be 49       		.uleb128 0x49
 3011 00bf 13       		.uleb128 0x13
 3012 00c0 00       		.byte	0
 3013 00c1 00       		.byte	0
 3014 00c2 11       		.uleb128 0x11
 3015 00c3 26       		.uleb128 0x26
 3016 00c4 00       		.byte	0
 3017 00c5 49       		.uleb128 0x49
 3018 00c6 13       		.uleb128 0x13
 3019 00c7 00       		.byte	0
 3020 00c8 00       		.byte	0
 3021 00c9 12       		.uleb128 0x12
 3022 00ca 15       		.uleb128 0x15
 3023 00cb 00       		.byte	0
 3024 00cc 27       		.uleb128 0x27
 3025 00cd 0C       		.uleb128 0xc
 3026 00ce 00       		.byte	0
 3027 00cf 00       		.byte	0
 3028 00d0 13       		.uleb128 0x13
 3029 00d1 2E       		.uleb128 0x2e
 3030 00d2 00       		.byte	0
 3031 00d3 03       		.uleb128 0x3
 3032 00d4 08       		.uleb128 0x8
 3033 00d5 3A       		.uleb128 0x3a
 3034 00d6 0B       		.uleb128 0xb
 3035 00d7 3B       		.uleb128 0x3b
 3036 00d8 0B       		.uleb128 0xb
 3037 00d9 27       		.uleb128 0x27
 3038 00da 0C       		.uleb128 0xc
 3039 00db 11       		.uleb128 0x11
 3040 00dc 01       		.uleb128 0x1
 3041 00dd 12       		.uleb128 0x12
 3042 00de 01       		.uleb128 0x1
 3043 00df 40       		.uleb128 0x40
 3044 00e0 06       		.uleb128 0x6
 3045 00e1 00       		.byte	0
 3046 00e2 00       		.byte	0
 3047 00e3 14       		.uleb128 0x14
 3048 00e4 2E       		.uleb128 0x2e
 3049 00e5 01       		.byte	0x1
 3050 00e6 03       		.uleb128 0x3
 3051 00e7 08       		.uleb128 0x8
 3052 00e8 3A       		.uleb128 0x3a
 3053 00e9 0B       		.uleb128 0xb
 3054 00ea 3B       		.uleb128 0x3b
 3055 00eb 0B       		.uleb128 0xb
 3056 00ec 27       		.uleb128 0x27
 3057 00ed 0C       		.uleb128 0xc
 3058 00ee 11       		.uleb128 0x11
 3059 00ef 01       		.uleb128 0x1
 3060 00f0 12       		.uleb128 0x12
 3061 00f1 01       		.uleb128 0x1
 3062 00f2 40       		.uleb128 0x40
 3063 00f3 06       		.uleb128 0x6
 3064 00f4 01       		.uleb128 0x1
 3065 00f5 13       		.uleb128 0x13
 3066 00f6 00       		.byte	0
GAS LISTING C:\cygwin\tmp\ccbhk3zs.s 			page 70


 3067 00f7 00       		.byte	0
 3068 00f8 15       		.uleb128 0x15
 3069 00f9 05       		.uleb128 0x5
 3070 00fa 00       		.byte	0
 3071 00fb 03       		.uleb128 0x3
 3072 00fc 08       		.uleb128 0x8
 3073 00fd 3A       		.uleb128 0x3a
 3074 00fe 0B       		.uleb128 0xb
 3075 00ff 3B       		.uleb128 0x3b
 3076 0100 0B       		.uleb128 0xb
 3077 0101 49       		.uleb128 0x49
 3078 0102 13       		.uleb128 0x13
 3079 0103 02       		.uleb128 0x2
 3080 0104 0A       		.uleb128 0xa
 3081 0105 00       		.byte	0
 3082 0106 00       		.byte	0
 3083 0107 16       		.uleb128 0x16
 3084 0108 34       		.uleb128 0x34
 3085 0109 00       		.byte	0
 3086 010a 03       		.uleb128 0x3
 3087 010b 08       		.uleb128 0x8
 3088 010c 3A       		.uleb128 0x3a
 3089 010d 0B       		.uleb128 0xb
 3090 010e 3B       		.uleb128 0x3b
 3091 010f 0B       		.uleb128 0xb
 3092 0110 49       		.uleb128 0x49
 3093 0111 13       		.uleb128 0x13
 3094 0112 02       		.uleb128 0x2
 3095 0113 0A       		.uleb128 0xa
 3096 0114 00       		.byte	0
 3097 0115 00       		.byte	0
 3098 0116 17       		.uleb128 0x17
 3099 0117 2E       		.uleb128 0x2e
 3100 0118 01       		.byte	0x1
 3101 0119 03       		.uleb128 0x3
 3102 011a 08       		.uleb128 0x8
 3103 011b 3A       		.uleb128 0x3a
 3104 011c 0B       		.uleb128 0xb
 3105 011d 3B       		.uleb128 0x3b
 3106 011e 0B       		.uleb128 0xb
 3107 011f 27       		.uleb128 0x27
 3108 0120 0C       		.uleb128 0xc
 3109 0121 49       		.uleb128 0x49
 3110 0122 13       		.uleb128 0x13
 3111 0123 11       		.uleb128 0x11
 3112 0124 01       		.uleb128 0x1
 3113 0125 12       		.uleb128 0x12
 3114 0126 01       		.uleb128 0x1
 3115 0127 40       		.uleb128 0x40
 3116 0128 06       		.uleb128 0x6
 3117 0129 01       		.uleb128 0x1
 3118 012a 13       		.uleb128 0x13
 3119 012b 00       		.byte	0
 3120 012c 00       		.byte	0
 3121 012d 18       		.uleb128 0x18
 3122 012e 2E       		.uleb128 0x2e
 3123 012f 01       		.byte	0x1
GAS LISTING C:\cygwin\tmp\ccbhk3zs.s 			page 71


 3124 0130 03       		.uleb128 0x3
 3125 0131 08       		.uleb128 0x8
 3126 0132 3A       		.uleb128 0x3a
 3127 0133 0B       		.uleb128 0xb
 3128 0134 3B       		.uleb128 0x3b
 3129 0135 05       		.uleb128 0x5
 3130 0136 27       		.uleb128 0x27
 3131 0137 0C       		.uleb128 0xc
 3132 0138 11       		.uleb128 0x11
 3133 0139 01       		.uleb128 0x1
 3134 013a 12       		.uleb128 0x12
 3135 013b 01       		.uleb128 0x1
 3136 013c 40       		.uleb128 0x40
 3137 013d 06       		.uleb128 0x6
 3138 013e 01       		.uleb128 0x1
 3139 013f 13       		.uleb128 0x13
 3140 0140 00       		.byte	0
 3141 0141 00       		.byte	0
 3142 0142 19       		.uleb128 0x19
 3143 0143 34       		.uleb128 0x34
 3144 0144 00       		.byte	0
 3145 0145 03       		.uleb128 0x3
 3146 0146 08       		.uleb128 0x8
 3147 0147 3A       		.uleb128 0x3a
 3148 0148 0B       		.uleb128 0xb
 3149 0149 3B       		.uleb128 0x3b
 3150 014a 05       		.uleb128 0x5
 3151 014b 49       		.uleb128 0x49
 3152 014c 13       		.uleb128 0x13
 3153 014d 02       		.uleb128 0x2
 3154 014e 0A       		.uleb128 0xa
 3155 014f 00       		.byte	0
 3156 0150 00       		.byte	0
 3157 0151 1A       		.uleb128 0x1a
 3158 0152 2E       		.uleb128 0x2e
 3159 0153 00       		.byte	0
 3160 0154 03       		.uleb128 0x3
 3161 0155 08       		.uleb128 0x8
 3162 0156 27       		.uleb128 0x27
 3163 0157 0C       		.uleb128 0xc
 3164 0158 34       		.uleb128 0x34
 3165 0159 0C       		.uleb128 0xc
 3166 015a 11       		.uleb128 0x11
 3167 015b 01       		.uleb128 0x1
 3168 015c 12       		.uleb128 0x12
 3169 015d 01       		.uleb128 0x1
 3170 015e 40       		.uleb128 0x40
 3171 015f 06       		.uleb128 0x6
 3172 0160 00       		.byte	0
 3173 0161 00       		.byte	0
 3174 0162 1B       		.uleb128 0x1b
 3175 0163 34       		.uleb128 0x34
 3176 0164 00       		.byte	0
 3177 0165 03       		.uleb128 0x3
 3178 0166 08       		.uleb128 0x8
 3179 0167 3A       		.uleb128 0x3a
 3180 0168 0B       		.uleb128 0xb
GAS LISTING C:\cygwin\tmp\ccbhk3zs.s 			page 72


 3181 0169 3B       		.uleb128 0x3b
 3182 016a 0B       		.uleb128 0xb
 3183 016b 49       		.uleb128 0x49
 3184 016c 13       		.uleb128 0x13
 3185 016d 3F       		.uleb128 0x3f
 3186 016e 0C       		.uleb128 0xc
 3187 016f 3C       		.uleb128 0x3c
 3188 0170 0C       		.uleb128 0xc
 3189 0171 00       		.byte	0
 3190 0172 00       		.byte	0
 3191 0173 1C       		.uleb128 0x1c
 3192 0174 01       		.uleb128 0x1
 3193 0175 01       		.byte	0x1
 3194 0176 49       		.uleb128 0x49
 3195 0177 13       		.uleb128 0x13
 3196 0178 01       		.uleb128 0x1
 3197 0179 13       		.uleb128 0x13
 3198 017a 00       		.byte	0
 3199 017b 00       		.byte	0
 3200 017c 1D       		.uleb128 0x1d
 3201 017d 21       		.uleb128 0x21
 3202 017e 00       		.byte	0
 3203 017f 49       		.uleb128 0x49
 3204 0180 13       		.uleb128 0x13
 3205 0181 2F       		.uleb128 0x2f
 3206 0182 0B       		.uleb128 0xb
 3207 0183 00       		.byte	0
 3208 0184 00       		.byte	0
 3209 0185 1E       		.uleb128 0x1e
 3210 0186 21       		.uleb128 0x21
 3211 0187 00       		.byte	0
 3212 0188 00       		.byte	0
 3213 0189 00       		.byte	0
 3214 018a 1F       		.uleb128 0x1f
 3215 018b 34       		.uleb128 0x34
 3216 018c 00       		.byte	0
 3217 018d 03       		.uleb128 0x3
 3218 018e 0E       		.uleb128 0xe
 3219 018f 3A       		.uleb128 0x3a
 3220 0190 0B       		.uleb128 0xb
 3221 0191 3B       		.uleb128 0x3b
 3222 0192 0B       		.uleb128 0xb
 3223 0193 49       		.uleb128 0x49
 3224 0194 13       		.uleb128 0x13
 3225 0195 3F       		.uleb128 0x3f
 3226 0196 0C       		.uleb128 0xc
 3227 0197 3C       		.uleb128 0x3c
 3228 0198 0C       		.uleb128 0xc
 3229 0199 00       		.byte	0
 3230 019a 00       		.byte	0
 3231 019b 20       		.uleb128 0x20
 3232 019c 34       		.uleb128 0x34
 3233 019d 00       		.byte	0
 3234 019e 03       		.uleb128 0x3
 3235 019f 0E       		.uleb128 0xe
 3236 01a0 3A       		.uleb128 0x3a
 3237 01a1 0B       		.uleb128 0xb
GAS LISTING C:\cygwin\tmp\ccbhk3zs.s 			page 73


 3238 01a2 3B       		.uleb128 0x3b
 3239 01a3 05       		.uleb128 0x5
 3240 01a4 49       		.uleb128 0x49
 3241 01a5 13       		.uleb128 0x13
 3242 01a6 3F       		.uleb128 0x3f
 3243 01a7 0C       		.uleb128 0xc
 3244 01a8 3C       		.uleb128 0x3c
 3245 01a9 0C       		.uleb128 0xc
 3246 01aa 00       		.byte	0
 3247 01ab 00       		.byte	0
 3248 01ac 21       		.uleb128 0x21
 3249 01ad 34       		.uleb128 0x34
 3250 01ae 00       		.byte	0
 3251 01af 03       		.uleb128 0x3
 3252 01b0 0E       		.uleb128 0xe
 3253 01b1 3A       		.uleb128 0x3a
 3254 01b2 0B       		.uleb128 0xb
 3255 01b3 3B       		.uleb128 0x3b
 3256 01b4 0B       		.uleb128 0xb
 3257 01b5 49       		.uleb128 0x49
 3258 01b6 13       		.uleb128 0x13
 3259 01b7 3F       		.uleb128 0x3f
 3260 01b8 0C       		.uleb128 0xc
 3261 01b9 02       		.uleb128 0x2
 3262 01ba 0A       		.uleb128 0xa
 3263 01bb 00       		.byte	0
 3264 01bc 00       		.byte	0
 3265 01bd 22       		.uleb128 0x22
 3266 01be 34       		.uleb128 0x34
 3267 01bf 00       		.byte	0
 3268 01c0 03       		.uleb128 0x3
 3269 01c1 0E       		.uleb128 0xe
 3270 01c2 3A       		.uleb128 0x3a
 3271 01c3 0B       		.uleb128 0xb
 3272 01c4 3B       		.uleb128 0x3b
 3273 01c5 05       		.uleb128 0x5
 3274 01c6 49       		.uleb128 0x49
 3275 01c7 13       		.uleb128 0x13
 3276 01c8 3F       		.uleb128 0x3f
 3277 01c9 0C       		.uleb128 0xc
 3278 01ca 02       		.uleb128 0x2
 3279 01cb 0A       		.uleb128 0xa
 3280 01cc 00       		.byte	0
 3281 01cd 00       		.byte	0
 3282 01ce 23       		.uleb128 0x23
 3283 01cf 34       		.uleb128 0x34
 3284 01d0 00       		.byte	0
 3285 01d1 03       		.uleb128 0x3
 3286 01d2 08       		.uleb128 0x8
 3287 01d3 3A       		.uleb128 0x3a
 3288 01d4 0B       		.uleb128 0xb
 3289 01d5 3B       		.uleb128 0x3b
 3290 01d6 05       		.uleb128 0x5
 3291 01d7 49       		.uleb128 0x49
 3292 01d8 13       		.uleb128 0x13
 3293 01d9 3F       		.uleb128 0x3f
 3294 01da 0C       		.uleb128 0xc
GAS LISTING C:\cygwin\tmp\ccbhk3zs.s 			page 74


 3295 01db 02       		.uleb128 0x2
 3296 01dc 0A       		.uleb128 0xa
 3297 01dd 00       		.byte	0
 3298 01de 00       		.byte	0
 3299 01df 00       		.byte	0
 3300              		.section	.debug_loc,"dr"
 3301              	Ldebug_loc0:
 3302              	LLST0:
 3303 0000 00000000 		.long	LFB0-Ltext0
 3304 0004 03000000 		.long	LCFI0-Ltext0
 3305 0008 0200     		.word	0x2
 3306 000a 74       		.byte	0x74
 3307 000b 04       		.sleb128 4
 3308 000c 03000000 		.long	LCFI0-Ltext0
 3309 0010 4A000000 		.long	LCFI1-Ltext0
 3310 0014 0200     		.word	0x2
 3311 0016 74       		.byte	0x74
 3312 0017 20       		.sleb128 32
 3313 0018 4A000000 		.long	LCFI1-Ltext0
 3314 001c 4B000000 		.long	LFE0-Ltext0
 3315 0020 0200     		.word	0x2
 3316 0022 74       		.byte	0x74
 3317 0023 04       		.sleb128 4
 3318 0024 00000000 		.long	0
 3319 0028 00000000 		.long	0
 3320              	LLST1:
 3321 002c 4B000000 		.long	LFB1-Ltext0
 3322 0030 4E000000 		.long	LCFI2-Ltext0
 3323 0034 0200     		.word	0x2
 3324 0036 74       		.byte	0x74
 3325 0037 04       		.sleb128 4
 3326 0038 4E000000 		.long	LCFI2-Ltext0
 3327 003c 95000000 		.long	LCFI3-Ltext0
 3328 0040 0200     		.word	0x2
 3329 0042 74       		.byte	0x74
 3330 0043 20       		.sleb128 32
 3331 0044 95000000 		.long	LCFI3-Ltext0
 3332 0048 96000000 		.long	LFE1-Ltext0
 3333 004c 0200     		.word	0x2
 3334 004e 74       		.byte	0x74
 3335 004f 04       		.sleb128 4
 3336 0050 00000000 		.long	0
 3337 0054 00000000 		.long	0
 3338              	LLST2:
 3339 0058 96000000 		.long	LFB2-Ltext0
 3340 005c 99000000 		.long	LCFI4-Ltext0
 3341 0060 0200     		.word	0x2
 3342 0062 74       		.byte	0x74
 3343 0063 04       		.sleb128 4
 3344 0064 99000000 		.long	LCFI4-Ltext0
 3345 0068 E0000000 		.long	LCFI5-Ltext0
 3346 006c 0200     		.word	0x2
 3347 006e 74       		.byte	0x74
 3348 006f 20       		.sleb128 32
 3349 0070 E0000000 		.long	LCFI5-Ltext0
 3350 0074 E1000000 		.long	LFE2-Ltext0
 3351 0078 0200     		.word	0x2
GAS LISTING C:\cygwin\tmp\ccbhk3zs.s 			page 75


 3352 007a 74       		.byte	0x74
 3353 007b 04       		.sleb128 4
 3354 007c 00000000 		.long	0
 3355 0080 00000000 		.long	0
 3356              	LLST3:
 3357 0084 E1000000 		.long	LFB3-Ltext0
 3358 0088 E4000000 		.long	LCFI6-Ltext0
 3359 008c 0200     		.word	0x2
 3360 008e 74       		.byte	0x74
 3361 008f 04       		.sleb128 4
 3362 0090 E4000000 		.long	LCFI6-Ltext0
 3363 0094 2B010000 		.long	LCFI7-Ltext0
 3364 0098 0200     		.word	0x2
 3365 009a 74       		.byte	0x74
 3366 009b 20       		.sleb128 32
 3367 009c 2B010000 		.long	LCFI7-Ltext0
 3368 00a0 2C010000 		.long	LFE3-Ltext0
 3369 00a4 0200     		.word	0x2
 3370 00a6 74       		.byte	0x74
 3371 00a7 04       		.sleb128 4
 3372 00a8 00000000 		.long	0
 3373 00ac 00000000 		.long	0
 3374              	LLST4:
 3375 00b0 2C010000 		.long	LFB4-Ltext0
 3376 00b4 2F010000 		.long	LCFI8-Ltext0
 3377 00b8 0200     		.word	0x2
 3378 00ba 74       		.byte	0x74
 3379 00bb 04       		.sleb128 4
 3380 00bc 2F010000 		.long	LCFI8-Ltext0
 3381 00c0 CD030000 		.long	LCFI9-Ltext0
 3382 00c4 0300     		.word	0x3
 3383 00c6 74       		.byte	0x74
 3384 00c7 C000     		.sleb128 64
 3385 00c9 CD030000 		.long	LCFI9-Ltext0
 3386 00cd CE030000 		.long	LFE4-Ltext0
 3387 00d1 0200     		.word	0x2
 3388 00d3 74       		.byte	0x74
 3389 00d4 04       		.sleb128 4
 3390 00d5 00000000 		.long	0
 3391 00d9 00000000 		.long	0
 3392              	LLST5:
 3393 00dd CE030000 		.long	LFB5-Ltext0
 3394 00e1 D1030000 		.long	LCFI10-Ltext0
 3395 00e5 0200     		.word	0x2
 3396 00e7 74       		.byte	0x74
 3397 00e8 04       		.sleb128 4
 3398 00e9 D1030000 		.long	LCFI10-Ltext0
 3399 00ed 18040000 		.long	LCFI11-Ltext0
 3400 00f1 0200     		.word	0x2
 3401 00f3 74       		.byte	0x74
 3402 00f4 20       		.sleb128 32
 3403 00f5 18040000 		.long	LCFI11-Ltext0
 3404 00f9 19040000 		.long	LFE5-Ltext0
 3405 00fd 0200     		.word	0x2
 3406 00ff 74       		.byte	0x74
 3407 0100 04       		.sleb128 4
 3408 0101 00000000 		.long	0
GAS LISTING C:\cygwin\tmp\ccbhk3zs.s 			page 76


 3409 0105 00000000 		.long	0
 3410              	LLST6:
 3411 0109 19040000 		.long	LFB6-Ltext0
 3412 010d 1C040000 		.long	LCFI12-Ltext0
 3413 0111 0200     		.word	0x2
 3414 0113 74       		.byte	0x74
 3415 0114 04       		.sleb128 4
 3416 0115 1C040000 		.long	LCFI12-Ltext0
 3417 0119 98040000 		.long	LCFI13-Ltext0
 3418 011d 0200     		.word	0x2
 3419 011f 74       		.byte	0x74
 3420 0120 20       		.sleb128 32
 3421 0121 98040000 		.long	LCFI13-Ltext0
 3422 0125 99040000 		.long	LFE6-Ltext0
 3423 0129 0200     		.word	0x2
 3424 012b 74       		.byte	0x74
 3425 012c 04       		.sleb128 4
 3426 012d 00000000 		.long	0
 3427 0131 00000000 		.long	0
 3428              	LLST7:
 3429 0135 99040000 		.long	LFB7-Ltext0
 3430 0139 9C040000 		.long	LCFI14-Ltext0
 3431 013d 0200     		.word	0x2
 3432 013f 74       		.byte	0x74
 3433 0140 04       		.sleb128 4
 3434 0141 9C040000 		.long	LCFI14-Ltext0
 3435 0145 48050000 		.long	LCFI15-Ltext0
 3436 0149 0200     		.word	0x2
 3437 014b 74       		.byte	0x74
 3438 014c 20       		.sleb128 32
 3439 014d 48050000 		.long	LCFI15-Ltext0
 3440 0151 49050000 		.long	LFE7-Ltext0
 3441 0155 0200     		.word	0x2
 3442 0157 74       		.byte	0x74
 3443 0158 04       		.sleb128 4
 3444 0159 00000000 		.long	0
 3445 015d 00000000 		.long	0
 3446              	LLST8:
 3447 0161 49050000 		.long	LFB8-Ltext0
 3448 0165 4C050000 		.long	LCFI16-Ltext0
 3449 0169 0200     		.word	0x2
 3450 016b 74       		.byte	0x74
 3451 016c 04       		.sleb128 4
 3452 016d 4C050000 		.long	LCFI16-Ltext0
 3453 0171 1D100000 		.long	LCFI17-Ltext0
 3454 0175 0300     		.word	0x3
 3455 0177 74       		.byte	0x74
 3456 0178 E000     		.sleb128 96
 3457 017a 1D100000 		.long	LCFI17-Ltext0
 3458 017e 1E100000 		.long	LFE8-Ltext0
 3459 0182 0200     		.word	0x2
 3460 0184 74       		.byte	0x74
 3461 0185 04       		.sleb128 4
 3462 0186 00000000 		.long	0
 3463 018a 00000000 		.long	0
 3464              	LLST9:
 3465 018e 1E100000 		.long	LFB9-Ltext0
GAS LISTING C:\cygwin\tmp\ccbhk3zs.s 			page 77


 3466 0192 21100000 		.long	LCFI18-Ltext0
 3467 0196 0200     		.word	0x2
 3468 0198 74       		.byte	0x74
 3469 0199 04       		.sleb128 4
 3470 019a 21100000 		.long	LCFI18-Ltext0
 3471 019e 68100000 		.long	LCFI19-Ltext0
 3472 01a2 0200     		.word	0x2
 3473 01a4 74       		.byte	0x74
 3474 01a5 20       		.sleb128 32
 3475 01a6 68100000 		.long	LCFI19-Ltext0
 3476 01aa 69100000 		.long	LFE9-Ltext0
 3477 01ae 0200     		.word	0x2
 3478 01b0 74       		.byte	0x74
 3479 01b1 04       		.sleb128 4
 3480 01b2 00000000 		.long	0
 3481 01b6 00000000 		.long	0
 3482              	LLST10:
 3483 01ba 69100000 		.long	LFB10-Ltext0
 3484 01be 6C100000 		.long	LCFI20-Ltext0
 3485 01c2 0200     		.word	0x2
 3486 01c4 74       		.byte	0x74
 3487 01c5 04       		.sleb128 4
 3488 01c6 6C100000 		.long	LCFI20-Ltext0
 3489 01ca E8130000 		.long	LCFI21-Ltext0
 3490 01ce 0200     		.word	0x2
 3491 01d0 74       		.byte	0x74
 3492 01d1 30       		.sleb128 48
 3493 01d2 E8130000 		.long	LCFI21-Ltext0
 3494 01d6 E9130000 		.long	LFE10-Ltext0
 3495 01da 0200     		.word	0x2
 3496 01dc 74       		.byte	0x74
 3497 01dd 04       		.sleb128 4
 3498 01de 00000000 		.long	0
 3499 01e2 00000000 		.long	0
 3500              	LLST11:
 3501 01e6 E9130000 		.long	LFB11-Ltext0
 3502 01ea EC130000 		.long	LCFI22-Ltext0
 3503 01ee 0200     		.word	0x2
 3504 01f0 74       		.byte	0x74
 3505 01f1 04       		.sleb128 4
 3506 01f2 EC130000 		.long	LCFI22-Ltext0
 3507 01f6 FB130000 		.long	LCFI23-Ltext0
 3508 01fa 0200     		.word	0x2
 3509 01fc 74       		.byte	0x74
 3510 01fd 20       		.sleb128 32
 3511 01fe FB130000 		.long	LCFI23-Ltext0
 3512 0202 FC130000 		.long	LFE11-Ltext0
 3513 0206 0200     		.word	0x2
 3514 0208 74       		.byte	0x74
 3515 0209 04       		.sleb128 4
 3516 020a 00000000 		.long	0
 3517 020e 00000000 		.long	0
 3518              		.section	.debug_aranges,"dr"
 3519 0000 1C000000 		.long	0x1c
 3520 0004 0200     		.word	0x2
 3521 0006 00000000 		.secrel32	Ldebug_info0
 3522 000a 04       		.byte	0x4
GAS LISTING C:\cygwin\tmp\ccbhk3zs.s 			page 78


 3523 000b 00       		.byte	0
 3524 000c 0000     		.word	0
 3525 000e 0000     		.word	0
 3526 0010 00000000 		.long	Ltext0
 3527 0014 FC130000 		.long	Letext0-Ltext0
 3528 0018 00000000 		.long	0
 3529 001c 00000000 		.long	0
 3530              		.section	.debug_line,"dr"
 3531              	Ldebug_line0:
 3532 0000 16030000 		.section	.debug_str,"dr"
 3532      02001201 
 3532      00000101 
 3532      FB0E0D00 
 3532      01010101 
 3533              	LASF0:
 3534 0000 705F6E65 		.ascii "p_next\0"
 3534      787400
 3535              	LASF3:
 3536 0007 4576656E 		.ascii "EventSource\0"
 3536      74536F75 
 3536      72636500 
 3537              	LASF1:
 3538 0013 56697274 		.ascii "VirtualTimer\0"
 3538      75616C54 
 3538      696D6572 
 3538      00
 3539              	LASF2:
 3540 0020 4576656E 		.ascii "EventListener\0"
 3540      744C6973 
 3540      74656E65 
 3540      7200
 3541              	LASF4:
 3542 002e 74657374 		.ascii "testevt1\0"
 3542      65767431 
 3542      00
 3543              	LASF5:
 3544 0037 74657374 		.ascii "testevt2\0"
 3544      65767432 
 3544      00
 3545              	LASF6:
 3546 0040 74657374 		.ascii "testevt3\0"
 3546      65767433 
 3546      00
 3547              		.def	_chEvtGetAndClearEvents;	.scl	2;	.type	32;	.endef
 3548              		.def	_test_emit_token;	.scl	2;	.type	32;	.endef
 3549              		.def	_chEvtRegisterMask;	.scl	2;	.type	32;	.endef
 3550              		.def	__test_assert;	.scl	2;	.type	32;	.endef
 3551              		.def	_chEvtUnregister;	.scl	2;	.type	32;	.endef
 3552              		.def	_chEvtDispatch;	.scl	2;	.type	32;	.endef
 3553              		.def	__test_assert_sequence;	.scl	2;	.type	32;	.endef
 3554              		.def	_chThdSleep;	.scl	2;	.type	32;	.endef
 3555              		.def	_chEvtSignal;	.scl	2;	.type	32;	.endef
 3556              		.def	_chEvtBroadcastFlags;	.scl	2;	.type	32;	.endef
 3557              		.def	_chEvtAddEvents;	.scl	2;	.type	32;	.endef
 3558              		.def	_chEvtWaitOneTimeout;	.scl	2;	.type	32;	.endef
 3559              		.def	_test_wait_tick;	.scl	2;	.type	32;	.endef
 3560              		.def	_chThdCreateStatic;	.scl	2;	.type	32;	.endef
GAS LISTING C:\cygwin\tmp\ccbhk3zs.s 			page 79


 3561              		.def	__test_assert_time_window;	.scl	2;	.type	32;	.endef
 3562              		.def	_test_wait_threads;	.scl	2;	.type	32;	.endef
 3563              		.def	_chEvtWaitAnyTimeout;	.scl	2;	.type	32;	.endef
 3564              		.def	_chEvtWaitAllTimeout;	.scl	2;	.type	32;	.endef
 3565              		.def	___gcov_merge_add;	.scl	2;	.type	32;	.endef
 3566              		.def	___gcov_init;	.scl	2;	.type	32;	.endef
GAS LISTING C:\cygwin\tmp\ccbhk3zs.s 			page 80


DEFINED SYMBOLS
                            *ABS*:00000000 testevt.c
C:\cygwin\tmp\ccbhk3zs.s:44     .data:00000000 _es1
C:\cygwin\tmp\ccbhk3zs.s:48     .data:00000004 _es2
C:\cygwin\tmp\ccbhk3zs.s:53     .text:00000000 _evt1_setup
C:\cygwin\tmp\ccbhk3zs.s:85     .text:0000004b _h1
C:\cygwin\tmp\ccbhk3zs.s:114    .text:00000096 _h2
C:\cygwin\tmp\ccbhk3zs.s:143    .text:000000e1 _h3
C:\cygwin\tmp\ccbhk3zs.s:173    .rdata:00000000 _evhndl
C:\cygwin\tmp\ccbhk3zs.s:181    .text:0000012c _evt1_execute
C:\cygwin\tmp\ccbhk3zs.s:365    .rdata:00000034 _testevt1
C:\cygwin\tmp\ccbhk3zs.s:376    .text:000003ce _evt2_setup
C:\cygwin\tmp\ccbhk3zs.s:407    .text:00000419 _thread1
C:\cygwin\tmp\ccbhk3zs.s:451    .text:00000499 _thread2
C:\cygwin\tmp\ccbhk3zs.s:508    .text:00000549 _evt2_execute
C:\cygwin\tmp\ccbhk3zs.s:1218   .rdata:00000064 _testevt2
C:\cygwin\tmp\ccbhk3zs.s:1229   .text:0000101e _evt3_setup
C:\cygwin\tmp\ccbhk3zs.s:1260   .text:00001069 _evt3_execute
C:\cygwin\tmp\ccbhk3zs.s:1501   .rdata:00000088 _testevt3
C:\cygwin\tmp\ccbhk3zs.s:1512   .rdata:00000098 _patternevt
C:\cygwin\tmp\ccbhk3zs.s:1616   .text:000013e9 __GLOBAL__sub_I_65535_0_testevt1

UNDEFINED SYMBOLS
_vtlist
_rlist
_wa
_threads
_chEvtGetAndClearEvents
_test_emit_token
_chEvtRegisterMask
__test_assert
_chEvtUnregister
_chEvtDispatch
__test_assert_sequence
_chThdSleep
_chEvtSignal
_chEvtBroadcastFlags
_chEvtAddEvents
_chEvtWaitOneTimeout
_test_wait_tick
_chThdCreateStatic
__test_assert_time_window
_test_wait_threads
_chEvtWaitAnyTimeout
_chEvtWaitAllTimeout
___gcov_merge_add
___gcov_init
