GAS LISTING C:\cygwin\tmp\ccMj9Rwe.s 			page 1


   1              		.file	"testpools.c"
   2              	 # GNU C (GCC) version 4.6.2 (mingw32)
   3              	 #	compiled by GNU C version 4.6.2, GMP version 5.0.1, MPFR version 2.4.1, MPC version 0.8.1
   4              	 # GGC heuristics: --param ggc-min-expand=100 --param ggc-min-heapsize=131072
   5              	 # options passed:  -I . -I ../../os/ports/GCC/SIMIA32
   6              	 # -I ../../os/kernel/include -I ../../test -I ../../os/hal/include
   7              	 # -I ../../os/hal/platforms/Win32 -I ../../boards/simulator
   8              	 # -I ../../os/various -iprefix c:\mingw\bin\../lib/gcc/mingw32/4.6.2/
   9              	 # -MD ../../test/testpools.d -MF .dep/testpools.o.d -MP
  10              	 # -MQ ../../test/testpools.o -D SIMULATOR ../../test/testpools.c
  11              	 # -mtune=i386 -march=i386 -auxbase-strip ../../test/testpools.o -ggdb -O0
  12              	 # -Wall -Wextra -Wstrict-prototypes -fomit-frame-pointer -fprofile-arcs
  13              	 # -ftest-coverage -fverbose-asm
  14              	 # options enabled:  -fasynchronous-unwind-tables -fauto-inc-dec
  15              	 # -fbranch-count-reg -fcommon -fdelete-null-pointer-checks
  16              	 # -fdwarf2-cfi-asm -fearly-inlining -feliminate-unused-debug-types
  17              	 # -ffunction-cse -fgcse-lm -fident -finline-functions-called-once
  18              	 # -fira-share-save-slots -fira-share-spill-slots -fivopts
  19              	 # -fkeep-inline-dllexport -fkeep-static-consts -fleading-underscore
  20              	 # -fmath-errno -fmerge-debug-strings -fmove-loop-invariants
  21              	 # -fomit-frame-pointer -fpeephole -fprefetch-loop-arrays -fprofile-arcs
  22              	 # -freg-struct-return -fsched-critical-path-heuristic
  23              	 # -fsched-dep-count-heuristic -fsched-group-heuristic -fsched-interblock
  24              	 # -fsched-last-insn-heuristic -fsched-rank-heuristic -fsched-spec
  25              	 # -fsched-spec-insn-heuristic -fsched-stalled-insns-dep
  26              	 # -fset-stack-executable -fshow-column -fsigned-zeros
  27              	 # -fsplit-ivs-in-unroller -fstrict-volatile-bitfields -ftest-coverage
  28              	 # -ftrapping-math -ftree-cselim -ftree-forwprop -ftree-loop-if-convert
  29              	 # -ftree-loop-im -ftree-loop-ivcanon -ftree-loop-optimize
  30              	 # -ftree-parallelize-loops= -ftree-phiprop -ftree-pta -ftree-reassoc
  31              	 # -ftree-scev-cprop -ftree-slp-vectorize -ftree-vect-loop-version
  32              	 # -funit-at-a-time -funwind-tables -fvect-cost-model -fverbose-asm
  33              	 # -fzero-initialized-in-bss -m32 -m80387 -m96bit-long-double
  34              	 # -maccumulate-outgoing-args -malign-double -malign-stringops
  35              	 # -mfancy-math-387 -mfp-ret-in-387 -mieee-fp -mno-red-zone -mno-sse4
  36              	 # -mpush-args -msahf -mstack-arg-probe
  37              	
  38              		.text
  39              	Ltext0:
  40              	 # Compiler executable checksum: c20aed7c018482d7b62efcd5dcab2a9d
  41              	
  42              		.data
  43              		.align 4
  44              	_mp1:
  45              	 # mp_next:
  46 0000 00000000 		.long	0
  47              	 # mp_object_size:
  48 0004 70420000 		.long	17008
  49              	 # mp_provider:
  50 0008 00000000 		.long	0
  51              		.text
  52              		.def	_null_provider;	.scl	3;	.type	32;	.endef
  53              	_null_provider:
  54              	LFB0:
  55              		.file 1 "../../test/testpools.c"
  56              		.loc 1 64 0
  57              		.cfi_startproc
GAS LISTING C:\cygwin\tmp\ccMj9Rwe.s 			page 2


  58 0000 83EC04   		subl	$4, %esp	 #,
  59              	LCFI0:
  60              		.cfi_def_cfa_offset 8
  61              		.loc 1 64 0
  62 0003 A1C00000 		movl	LPBX1+192, %eax	 # *LPBX1, PROF_edge_counter.2
  62      00
  63 0008 8B15C400 		movl	LPBX1+196, %edx	 # *LPBX1, PROF_edge_counter.2
  63      0000
  64 000e 83C001   		addl	$1, %eax	 #, PROF_edge_counter.2
  65 0011 83D200   		adcl	$0, %edx	 #, PROF_edge_counter.2
  66 0014 A3C00000 		movl	%eax, LPBX1+192	 # PROF_edge_counter.2, *LPBX1
  66      00
  67 0019 8915C400 		movl	%edx, LPBX1+196	 # PROF_edge_counter.2, *LPBX1
  67      0000
  68              		.loc 1 67 0
  69 001f B8000000 		movl	$0, %eax	 #, D.2839
  69      00
  70              		.loc 1 68 0
  71 0024 83C404   		addl	$4, %esp	 #,
  72              	LCFI1:
  73              		.cfi_def_cfa_offset 4
  74 0027 C3       		ret
  75              		.cfi_endproc
  76              	LFE0:
  77              		.def	_pools1_setup;	.scl	3;	.type	32;	.endef
  78              	_pools1_setup:
  79              	LFB1:
  80              		.loc 1 70 0
  81              		.cfi_startproc
  82 0028 83EC1C   		subl	$28, %esp	 #,
  83              	LCFI2:
  84              		.cfi_def_cfa_offset 32
  85              		.loc 1 70 0
  86 002b A1B00000 		movl	LPBX1+176, %eax	 # *LPBX1, PROF_edge_counter.1
  86      00
  87 0030 8B15B400 		movl	LPBX1+180, %edx	 # *LPBX1, PROF_edge_counter.1
  87      0000
  88 0036 83C001   		addl	$1, %eax	 #, PROF_edge_counter.1
  89 0039 83D200   		adcl	$0, %edx	 #, PROF_edge_counter.1
  90 003c A3B00000 		movl	%eax, LPBX1+176	 # PROF_edge_counter.1, *LPBX1
  90      00
  91 0041 8915B400 		movl	%edx, LPBX1+180	 # PROF_edge_counter.1, *LPBX1
  91      0000
  92              		.loc 1 72 0
  93 0047 C7442408 		movl	$0, 8(%esp)	 #,
  93      00000000 
  94 004f C7442404 		movl	$17008, 4(%esp)	 #,
  94      70420000 
  95 0057 C7042400 		movl	$_mp1, (%esp)	 #,
  95      000000
  96 005e E8000000 		call	_chPoolInit	 #
  96      00
  97 0063 A1B80000 		movl	LPBX1+184, %eax	 # *LPBX1, PROF_edge_counter.1
  97      00
  98 0068 8B15BC00 		movl	LPBX1+188, %edx	 # *LPBX1, PROF_edge_counter.1
  98      0000
  99 006e 83C001   		addl	$1, %eax	 #, PROF_edge_counter.1
GAS LISTING C:\cygwin\tmp\ccMj9Rwe.s 			page 3


 100 0071 83D200   		adcl	$0, %edx	 #, PROF_edge_counter.1
 101 0074 A3B80000 		movl	%eax, LPBX1+184	 # PROF_edge_counter.1, *LPBX1
 101      00
 102 0079 8915BC00 		movl	%edx, LPBX1+188	 # PROF_edge_counter.1, *LPBX1
 102      0000
 103              		.loc 1 73 0
 104 007f 83C41C   		addl	$28, %esp	 #,
 105              	LCFI3:
 106              		.cfi_def_cfa_offset 4
 107 0082 C3       		ret
 108              		.cfi_endproc
 109              	LFE1:
 110              		.def	_pools1_execute;	.scl	3;	.type	32;	.endef
 111              	_pools1_execute:
 112              	LFB2:
 113              		.loc 1 75 0
 114              		.cfi_startproc
 115 0083 83EC2C   		subl	$44, %esp	 #,
 116              	LCFI4:
 117              		.cfi_def_cfa_offset 48
 118              		.loc 1 75 0
 119 0086 A1000000 		movl	LPBX1, %eax	 # *LPBX1, PROF_edge_counter.0
 119      00
 120 008b 8B150400 		movl	LPBX1+4, %edx	 # *LPBX1, PROF_edge_counter.0
 120      0000
 121 0091 83C001   		addl	$1, %eax	 #, PROF_edge_counter.0
 122 0094 83D200   		adcl	$0, %edx	 #, PROF_edge_counter.0
 123 0097 A3000000 		movl	%eax, LPBX1	 # PROF_edge_counter.0, *LPBX1
 123      00
 124 009c 89150400 		movl	%edx, LPBX1+4	 # PROF_edge_counter.0, *LPBX1
 124      0000
 125              		.loc 1 79 0
 126 00a2 A1000000 		movl	_wa, %eax	 # wa, D.2811
 126      00
 127 00a7 C7442408 		movl	$5, 8(%esp)	 #,
 127      05000000 
 128 00af 89442404 		movl	%eax, 4(%esp)	 # D.2811,
 129 00b3 C7042400 		movl	$_mp1, (%esp)	 #,
 129      000000
 130 00ba E8000000 		call	_chPoolLoadArray	 #
 130      00
 131              		.loc 1 82 0
 132 00bf C744241C 		movl	$0, 28(%esp)	 #, i
 132      00000000 
 133 00c7 E9A30000 		jmp	L4	 #
 133      00
 134              	L7:
 135 00cc A1200000 		movl	LPBX1+32, %eax	 # *LPBX1, PROF_edge_counter.0
 135      00
 136 00d1 8B152400 		movl	LPBX1+36, %edx	 # *LPBX1, PROF_edge_counter.0
 136      0000
 137 00d7 83C001   		addl	$1, %eax	 #, PROF_edge_counter.0
 138 00da 83D200   		adcl	$0, %edx	 #, PROF_edge_counter.0
 139 00dd A3200000 		movl	%eax, LPBX1+32	 # PROF_edge_counter.0, *LPBX1
 139      00
 140 00e2 89152400 		movl	%edx, LPBX1+36	 # PROF_edge_counter.0, *LPBX1
 140      0000
GAS LISTING C:\cygwin\tmp\ccMj9Rwe.s 			page 4


 141              		.loc 1 83 0
 142 00e8 C7042400 		movl	$_mp1, (%esp)	 #,
 142      000000
 143 00ef E8000000 		call	_chPoolAlloc	 #
 143      00
 144 00f4 89C1     		movl	%eax, %ecx	 #, D.2812
 145 00f6 A1080000 		movl	LPBX1+8, %eax	 # *LPBX1, PROF_edge_counter.0
 145      00
 146 00fb 8B150C00 		movl	LPBX1+12, %edx	 # *LPBX1, PROF_edge_counter.0
 146      0000
 147 0101 83C001   		addl	$1, %eax	 #, PROF_edge_counter.0
 148 0104 83D200   		adcl	$0, %edx	 #, PROF_edge_counter.0
 149 0107 A3080000 		movl	%eax, LPBX1+8	 # PROF_edge_counter.0, *LPBX1
 149      00
 150 010c 89150C00 		movl	%edx, LPBX1+12	 # PROF_edge_counter.0, *LPBX1
 150      0000
 151 0112 85C9     		testl	%ecx, %ecx	 # D.2812
 152 0114 0F95C0   		setne	%al	 #, tmp120
 153 0117 0FB6C0   		movzbl	%al, %eax	 # tmp120, D.2813
 154 011a 89442404 		movl	%eax, 4(%esp)	 # D.2813,
 155 011e C7042401 		movl	$1, (%esp)	 #,
 155      000000
 156 0125 E8000000 		call	__test_assert	 #
 156      00
 157 012a 84C0     		testb	%al, %al	 # D.2814
 158 012c 7421     		je	L5	 #,
 159              		.loc 1 83 0 is_stmt 0 discriminator 1
 160 012e A1100000 		movl	LPBX1+16, %eax	 # *LPBX1, PROF_edge_counter.0
 160      00
 161 0133 8B151400 		movl	LPBX1+20, %edx	 # *LPBX1, PROF_edge_counter.0
 161      0000
 162 0139 83C001   		addl	$1, %eax	 #, PROF_edge_counter.0
 163 013c 83D200   		adcl	$0, %edx	 #, PROF_edge_counter.0
 164 013f A3100000 		movl	%eax, LPBX1+16	 # PROF_edge_counter.0, *LPBX1
 164      00
 165 0144 89151400 		movl	%edx, LPBX1+20	 # PROF_edge_counter.0, *LPBX1
 165      0000
 166 014a E9280300 		jmp	L3	 #
 166      00
 167              	L5:
 168              		.loc 1 82 0 is_stmt 1
 169 014f FF44241C 		incl	28(%esp)	 # i
 170 0153 A1180000 		movl	LPBX1+24, %eax	 # *LPBX1, PROF_edge_counter.0
 170      00
 171 0158 8B151C00 		movl	LPBX1+28, %edx	 # *LPBX1, PROF_edge_counter.0
 171      0000
 172 015e 83C001   		addl	$1, %eax	 #, PROF_edge_counter.0
 173 0161 83D200   		adcl	$0, %edx	 #, PROF_edge_counter.0
 174 0164 A3180000 		movl	%eax, LPBX1+24	 # PROF_edge_counter.0, *LPBX1
 174      00
 175 0169 89151C00 		movl	%edx, LPBX1+28	 # PROF_edge_counter.0, *LPBX1
 175      0000
 176              	L4:
 177              		.loc 1 82 0 is_stmt 0 discriminator 1
 178 016f 837C241C 		cmpl	$4, 28(%esp)	 #, i
 178      04
 179 0174 0F8E52FF 		jle	L7	 #,
GAS LISTING C:\cygwin\tmp\ccMj9Rwe.s 			page 5


 179      FFFF
 180              		.loc 1 82 0
 181 017a A1280000 		movl	LPBX1+40, %eax	 # *LPBX1, PROF_edge_counter.0
 181      00
 182 017f 8B152C00 		movl	LPBX1+44, %edx	 # *LPBX1, PROF_edge_counter.0
 182      0000
 183 0185 83C001   		addl	$1, %eax	 #, PROF_edge_counter.0
 184 0188 83D200   		adcl	$0, %edx	 #, PROF_edge_counter.0
 185 018b A3280000 		movl	%eax, LPBX1+40	 # PROF_edge_counter.0, *LPBX1
 185      00
 186 0190 89152C00 		movl	%edx, LPBX1+44	 # PROF_edge_counter.0, *LPBX1
 186      0000
 187              		.loc 1 86 0 is_stmt 1
 188 0196 C7042400 		movl	$_mp1, (%esp)	 #,
 188      000000
 189 019d E8000000 		call	_chPoolAlloc	 #
 189      00
 190 01a2 89C1     		movl	%eax, %ecx	 #, D.2817
 191 01a4 A1300000 		movl	LPBX1+48, %eax	 # *LPBX1, PROF_edge_counter.0
 191      00
 192 01a9 8B153400 		movl	LPBX1+52, %edx	 # *LPBX1, PROF_edge_counter.0
 192      0000
 193 01af 83C001   		addl	$1, %eax	 #, PROF_edge_counter.0
 194 01b2 83D200   		adcl	$0, %edx	 #, PROF_edge_counter.0
 195 01b5 A3300000 		movl	%eax, LPBX1+48	 # PROF_edge_counter.0, *LPBX1
 195      00
 196 01ba 89153400 		movl	%edx, LPBX1+52	 # PROF_edge_counter.0, *LPBX1
 196      0000
 197 01c0 85C9     		testl	%ecx, %ecx	 # D.2817
 198 01c2 0F94C0   		sete	%al	 #, tmp121
 199 01c5 0FB6C0   		movzbl	%al, %eax	 # tmp121, D.2818
 200 01c8 89442404 		movl	%eax, 4(%esp)	 # D.2818,
 201 01cc C7042402 		movl	$2, (%esp)	 #,
 201      000000
 202 01d3 E8000000 		call	__test_assert	 #
 202      00
 203 01d8 84C0     		testb	%al, %al	 # D.2819
 204 01da 7421     		je	L8	 #,
 205              		.loc 1 86 0 is_stmt 0 discriminator 1
 206 01dc A1380000 		movl	LPBX1+56, %eax	 # *LPBX1, PROF_edge_counter.0
 206      00
 207 01e1 8B153C00 		movl	LPBX1+60, %edx	 # *LPBX1, PROF_edge_counter.0
 207      0000
 208 01e7 83C001   		addl	$1, %eax	 #, PROF_edge_counter.0
 209 01ea 83D200   		adcl	$0, %edx	 #, PROF_edge_counter.0
 210 01ed A3380000 		movl	%eax, LPBX1+56	 # PROF_edge_counter.0, *LPBX1
 210      00
 211 01f2 89153C00 		movl	%edx, LPBX1+60	 # PROF_edge_counter.0, *LPBX1
 211      0000
 212 01f8 E97A0200 		jmp	L3	 #
 212      00
 213              	L8:
 214              		.loc 1 89 0 is_stmt 1
 215 01fd C744241C 		movl	$0, 28(%esp)	 #, i
 215      00000000 
 216 0205 EB57     		jmp	L9	 #
 217              	L10:
GAS LISTING C:\cygwin\tmp\ccMj9Rwe.s 			page 6


 218              		.loc 1 89 0 is_stmt 0 discriminator 2
 219 0207 A1480000 		movl	LPBX1+72, %eax	 # *LPBX1, PROF_edge_counter.0
 219      00
 220 020c 8B154C00 		movl	LPBX1+76, %edx	 # *LPBX1, PROF_edge_counter.0
 220      0000
 221 0212 83C001   		addl	$1, %eax	 #, PROF_edge_counter.0
 222 0215 83D200   		adcl	$0, %edx	 #, PROF_edge_counter.0
 223 0218 A3480000 		movl	%eax, LPBX1+72	 # PROF_edge_counter.0, *LPBX1
 223      00
 224 021d 89154C00 		movl	%edx, LPBX1+76	 # PROF_edge_counter.0, *LPBX1
 224      0000
 225              		.loc 1 90 0 is_stmt 1 discriminator 2
 226 0223 8B44241C 		movl	28(%esp), %eax	 # i, tmp122
 227 0227 8B048500 		movl	_wa(,%eax,4), %eax	 # wa, D.2822
 227      000000
 228 022e 89442404 		movl	%eax, 4(%esp)	 # D.2822,
 229 0232 C7042400 		movl	$_mp1, (%esp)	 #,
 229      000000
 230 0239 E8000000 		call	_chPoolFree	 #
 230      00
 231              		.loc 1 89 0 discriminator 2
 232 023e FF44241C 		incl	28(%esp)	 # i
 233 0242 A1400000 		movl	LPBX1+64, %eax	 # *LPBX1, PROF_edge_counter.0
 233      00
 234 0247 8B154400 		movl	LPBX1+68, %edx	 # *LPBX1, PROF_edge_counter.0
 234      0000
 235 024d 83C001   		addl	$1, %eax	 #, PROF_edge_counter.0
 236 0250 83D200   		adcl	$0, %edx	 #, PROF_edge_counter.0
 237 0253 A3400000 		movl	%eax, LPBX1+64	 # PROF_edge_counter.0, *LPBX1
 237      00
 238 0258 89154400 		movl	%edx, LPBX1+68	 # PROF_edge_counter.0, *LPBX1
 238      0000
 239              	L9:
 240              		.loc 1 89 0 is_stmt 0 discriminator 1
 241 025e 837C241C 		cmpl	$4, 28(%esp)	 #, i
 241      04
 242 0263 7EA2     		jle	L10	 #,
 243              		.loc 1 93 0 is_stmt 1
 244 0265 C744241C 		movl	$0, 28(%esp)	 #, i
 244      00000000 
 245 026d E9A30000 		jmp	L11	 #
 245      00
 246              	L13:
 247 0272 A1680000 		movl	LPBX1+104, %eax	 # *LPBX1, PROF_edge_counter.0
 247      00
 248 0277 8B156C00 		movl	LPBX1+108, %edx	 # *LPBX1, PROF_edge_counter.0
 248      0000
 249 027d 83C001   		addl	$1, %eax	 #, PROF_edge_counter.0
 250 0280 83D200   		adcl	$0, %edx	 #, PROF_edge_counter.0
 251 0283 A3680000 		movl	%eax, LPBX1+104	 # PROF_edge_counter.0, *LPBX1
 251      00
 252 0288 89156C00 		movl	%edx, LPBX1+108	 # PROF_edge_counter.0, *LPBX1
 252      0000
 253              		.loc 1 94 0
 254 028e C7042400 		movl	$_mp1, (%esp)	 #,
 254      000000
 255 0295 E8000000 		call	_chPoolAlloc	 #
GAS LISTING C:\cygwin\tmp\ccMj9Rwe.s 			page 7


 255      00
 256 029a 89C1     		movl	%eax, %ecx	 #, D.2823
 257 029c A1500000 		movl	LPBX1+80, %eax	 # *LPBX1, PROF_edge_counter.0
 257      00
 258 02a1 8B155400 		movl	LPBX1+84, %edx	 # *LPBX1, PROF_edge_counter.0
 258      0000
 259 02a7 83C001   		addl	$1, %eax	 #, PROF_edge_counter.0
 260 02aa 83D200   		adcl	$0, %edx	 #, PROF_edge_counter.0
 261 02ad A3500000 		movl	%eax, LPBX1+80	 # PROF_edge_counter.0, *LPBX1
 261      00
 262 02b2 89155400 		movl	%edx, LPBX1+84	 # PROF_edge_counter.0, *LPBX1
 262      0000
 263 02b8 85C9     		testl	%ecx, %ecx	 # D.2823
 264 02ba 0F95C0   		setne	%al	 #, tmp123
 265 02bd 0FB6C0   		movzbl	%al, %eax	 # tmp123, D.2824
 266 02c0 89442404 		movl	%eax, 4(%esp)	 # D.2824,
 267 02c4 C7042403 		movl	$3, (%esp)	 #,
 267      000000
 268 02cb E8000000 		call	__test_assert	 #
 268      00
 269 02d0 84C0     		testb	%al, %al	 # D.2825
 270 02d2 7421     		je	L12	 #,
 271              		.loc 1 94 0 is_stmt 0 discriminator 1
 272 02d4 A1580000 		movl	LPBX1+88, %eax	 # *LPBX1, PROF_edge_counter.0
 272      00
 273 02d9 8B155C00 		movl	LPBX1+92, %edx	 # *LPBX1, PROF_edge_counter.0
 273      0000
 274 02df 83C001   		addl	$1, %eax	 #, PROF_edge_counter.0
 275 02e2 83D200   		adcl	$0, %edx	 #, PROF_edge_counter.0
 276 02e5 A3580000 		movl	%eax, LPBX1+88	 # PROF_edge_counter.0, *LPBX1
 276      00
 277 02ea 89155C00 		movl	%edx, LPBX1+92	 # PROF_edge_counter.0, *LPBX1
 277      0000
 278 02f0 E9820100 		jmp	L3	 #
 278      00
 279              	L12:
 280              		.loc 1 93 0 is_stmt 1
 281 02f5 FF44241C 		incl	28(%esp)	 # i
 282 02f9 A1600000 		movl	LPBX1+96, %eax	 # *LPBX1, PROF_edge_counter.0
 282      00
 283 02fe 8B156400 		movl	LPBX1+100, %edx	 # *LPBX1, PROF_edge_counter.0
 283      0000
 284 0304 83C001   		addl	$1, %eax	 #, PROF_edge_counter.0
 285 0307 83D200   		adcl	$0, %edx	 #, PROF_edge_counter.0
 286 030a A3600000 		movl	%eax, LPBX1+96	 # PROF_edge_counter.0, *LPBX1
 286      00
 287 030f 89156400 		movl	%edx, LPBX1+100	 # PROF_edge_counter.0, *LPBX1
 287      0000
 288              	L11:
 289              		.loc 1 93 0 is_stmt 0 discriminator 1
 290 0315 837C241C 		cmpl	$4, 28(%esp)	 #, i
 290      04
 291 031a 0F8E52FF 		jle	L13	 #,
 291      FFFF
 292              		.loc 1 93 0
 293 0320 A1700000 		movl	LPBX1+112, %eax	 # *LPBX1, PROF_edge_counter.0
 293      00
GAS LISTING C:\cygwin\tmp\ccMj9Rwe.s 			page 8


 294 0325 8B157400 		movl	LPBX1+116, %edx	 # *LPBX1, PROF_edge_counter.0
 294      0000
 295 032b 83C001   		addl	$1, %eax	 #, PROF_edge_counter.0
 296 032e 83D200   		adcl	$0, %edx	 #, PROF_edge_counter.0
 297 0331 A3700000 		movl	%eax, LPBX1+112	 # PROF_edge_counter.0, *LPBX1
 297      00
 298 0336 89157400 		movl	%edx, LPBX1+116	 # PROF_edge_counter.0, *LPBX1
 298      0000
 299              		.loc 1 97 0 is_stmt 1
 300 033c C7042400 		movl	$_mp1, (%esp)	 #,
 300      000000
 301 0343 E8000000 		call	_chPoolAlloc	 #
 301      00
 302 0348 89C1     		movl	%eax, %ecx	 #, D.2828
 303 034a A1780000 		movl	LPBX1+120, %eax	 # *LPBX1, PROF_edge_counter.0
 303      00
 304 034f 8B157C00 		movl	LPBX1+124, %edx	 # *LPBX1, PROF_edge_counter.0
 304      0000
 305 0355 83C001   		addl	$1, %eax	 #, PROF_edge_counter.0
 306 0358 83D200   		adcl	$0, %edx	 #, PROF_edge_counter.0
 307 035b A3780000 		movl	%eax, LPBX1+120	 # PROF_edge_counter.0, *LPBX1
 307      00
 308 0360 89157C00 		movl	%edx, LPBX1+124	 # PROF_edge_counter.0, *LPBX1
 308      0000
 309 0366 85C9     		testl	%ecx, %ecx	 # D.2828
 310 0368 0F94C0   		sete	%al	 #, tmp124
 311 036b 0FB6C0   		movzbl	%al, %eax	 # tmp124, D.2829
 312 036e 89442404 		movl	%eax, 4(%esp)	 # D.2829,
 313 0372 C7042404 		movl	$4, (%esp)	 #,
 313      000000
 314 0379 E8000000 		call	__test_assert	 #
 314      00
 315 037e 84C0     		testb	%al, %al	 # D.2830
 316 0380 7421     		je	L14	 #,
 317              		.loc 1 97 0 is_stmt 0 discriminator 1
 318 0382 A1880000 		movl	LPBX1+136, %eax	 # *LPBX1, PROF_edge_counter.0
 318      00
 319 0387 8B158C00 		movl	LPBX1+140, %edx	 # *LPBX1, PROF_edge_counter.0
 319      0000
 320 038d 83C001   		addl	$1, %eax	 #, PROF_edge_counter.0
 321 0390 83D200   		adcl	$0, %edx	 #, PROF_edge_counter.0
 322 0393 A3880000 		movl	%eax, LPBX1+136	 # PROF_edge_counter.0, *LPBX1
 322      00
 323 0398 89158C00 		movl	%edx, LPBX1+140	 # PROF_edge_counter.0, *LPBX1
 323      0000
 324 039e E9D40000 		jmp	L3	 #
 324      00
 325              	L14:
 326              		.loc 1 97 0
 327 03a3 A1800000 		movl	LPBX1+128, %eax	 # *LPBX1, PROF_edge_counter.0
 327      00
 328 03a8 8B158400 		movl	LPBX1+132, %edx	 # *LPBX1, PROF_edge_counter.0
 328      0000
 329 03ae 83C001   		addl	$1, %eax	 #, PROF_edge_counter.0
 330 03b1 83D200   		adcl	$0, %edx	 #, PROF_edge_counter.0
 331 03b4 A3800000 		movl	%eax, LPBX1+128	 # PROF_edge_counter.0, *LPBX1
 331      00
GAS LISTING C:\cygwin\tmp\ccMj9Rwe.s 			page 9


 332 03b9 89158400 		movl	%edx, LPBX1+132	 # PROF_edge_counter.0, *LPBX1
 332      0000
 333              		.loc 1 100 0 is_stmt 1
 334 03bf C7442408 		movl	$_null_provider, 8(%esp)	 #,
 334      00000000 
 335 03c7 C7442404 		movl	$16, 4(%esp)	 #,
 335      10000000 
 336 03cf C7042400 		movl	$_mp1, (%esp)	 #,
 336      000000
 337 03d6 E8000000 		call	_chPoolInit	 #
 337      00
 338 03db A1900000 		movl	LPBX1+144, %eax	 # *LPBX1, PROF_edge_counter.0
 338      00
 339 03e0 8B159400 		movl	LPBX1+148, %edx	 # *LPBX1, PROF_edge_counter.0
 339      0000
 340 03e6 83C001   		addl	$1, %eax	 #, PROF_edge_counter.0
 341 03e9 83D200   		adcl	$0, %edx	 #, PROF_edge_counter.0
 342 03ec A3900000 		movl	%eax, LPBX1+144	 # PROF_edge_counter.0, *LPBX1
 342      00
 343 03f1 89159400 		movl	%edx, LPBX1+148	 # PROF_edge_counter.0, *LPBX1
 343      0000
 344              		.loc 1 101 0
 345 03f7 C7042400 		movl	$_mp1, (%esp)	 #,
 345      000000
 346 03fe E8000000 		call	_chPoolAlloc	 #
 346      00
 347 0403 89C1     		movl	%eax, %ecx	 #, D.2833
 348 0405 A1980000 		movl	LPBX1+152, %eax	 # *LPBX1, PROF_edge_counter.0
 348      00
 349 040a 8B159C00 		movl	LPBX1+156, %edx	 # *LPBX1, PROF_edge_counter.0
 349      0000
 350 0410 83C001   		addl	$1, %eax	 #, PROF_edge_counter.0
 351 0413 83D200   		adcl	$0, %edx	 #, PROF_edge_counter.0
 352 0416 A3980000 		movl	%eax, LPBX1+152	 # PROF_edge_counter.0, *LPBX1
 352      00
 353 041b 89159C00 		movl	%edx, LPBX1+156	 # PROF_edge_counter.0, *LPBX1
 353      0000
 354 0421 85C9     		testl	%ecx, %ecx	 # D.2833
 355 0423 0F94C0   		sete	%al	 #, tmp125
 356 0426 0FB6C0   		movzbl	%al, %eax	 # tmp125, D.2834
 357 0429 89442404 		movl	%eax, 4(%esp)	 # D.2834,
 358 042d C7042405 		movl	$5, (%esp)	 #,
 358      000000
 359 0434 E8000000 		call	__test_assert	 #
 359      00
 360 0439 88C1     		movb	%al, %cl	 #, D.2835
 361 043b A1A00000 		movl	LPBX1+160, %eax	 # *LPBX1, PROF_edge_counter.0
 361      00
 362 0440 8B15A400 		movl	LPBX1+164, %edx	 # *LPBX1, PROF_edge_counter.0
 362      0000
 363 0446 83C001   		addl	$1, %eax	 #, PROF_edge_counter.0
 364 0449 83D200   		adcl	$0, %edx	 #, PROF_edge_counter.0
 365 044c A3A00000 		movl	%eax, LPBX1+160	 # PROF_edge_counter.0, *LPBX1
 365      00
 366 0451 8915A400 		movl	%edx, LPBX1+164	 # PROF_edge_counter.0, *LPBX1
 366      0000
 367 0457 84C9     		testb	%cl, %cl	 # D.2835
GAS LISTING C:\cygwin\tmp\ccMj9Rwe.s 			page 10


 368 0459 741C     		je	L3	 #,
 369              		.loc 1 101 0 is_stmt 0 discriminator 1
 370 045b A1A80000 		movl	LPBX1+168, %eax	 # *LPBX1, PROF_edge_counter.0
 370      00
 371 0460 8B15AC00 		movl	LPBX1+172, %edx	 # *LPBX1, PROF_edge_counter.0
 371      0000
 372 0466 83C001   		addl	$1, %eax	 #, PROF_edge_counter.0
 373 0469 83D200   		adcl	$0, %edx	 #, PROF_edge_counter.0
 374 046c A3A80000 		movl	%eax, LPBX1+168	 # PROF_edge_counter.0, *LPBX1
 374      00
 375 0471 8915AC00 		movl	%edx, LPBX1+172	 # PROF_edge_counter.0, *LPBX1
 375      0000
 376              	L3:
 377              		.loc 1 102 0 is_stmt 1
 378 0477 83C42C   		addl	$44, %esp	 #,
 379              	LCFI5:
 380              		.cfi_def_cfa_offset 4
 381 047a C3       		ret
 382              		.cfi_endproc
 383              	LFE2:
 384              		.globl	_testpools1
 385              		.section .rdata,"dr"
 386              	LC0:
 387 0000 4D656D6F 		.ascii "Memory Pools, queue/dequeue\0"
 387      72792050 
 387      6F6F6C73 
 387      2C207175 
 387      6575652F 
 388              		.align 4
 389              	_testpools1:
 390              	 # name:
 391 001c 00000000 		.long	LC0
 392              	 # setup:
 393 0020 28000000 		.long	_pools1_setup
 394              	 # teardown:
 395 0024 00000000 		.long	0
 396              	 # execute:
 397 0028 83000000 		.long	_pools1_execute
 398              		.globl	_patternpools
 399              		.align 4
 400              	_patternpools:
 401 002c 1C000000 		.long	_testpools1
 402 0030 00000000 		.long	0
 403              	.lcomm LPBX1,200,32
 404              		.align 4
 405              	LC1:
 406 0034 433A5C64 		.ascii "C:\\develop\\gyro\\ChibiOS\\test\\coverage/../../test/testpools.gcda\0"
 406      6576656C 
 406      6F705C67 
 406      79726F5C 
 406      43686962 
 407              		.data
 408 000c 00000000 		.align 32
 408      00000000 
 408      00000000 
 408      00000000 
 408      00000000 
GAS LISTING C:\cygwin\tmp\ccMj9Rwe.s 			page 11


 409              	LC2:
 410              	 # <anonymous>:
 411 0020 03000000 		.long	3
 412              	 # <anonymous>:
 413 0024 866DEC53 		.long	1408003462
 414              	 # <anonymous>:
 415 0028 16000000 		.long	22
 416              	 # <anonymous>:
 417 002c 02000000 		.long	2
 418              	 # <anonymous>:
 419 0030 2B3236C0 		.long	-1070190037
 420              	 # <anonymous>:
 421 0034 02000000 		.long	2
 422              	 # <anonymous>:
 423 0038 01000000 		.long	1
 424              	 # <anonymous>:
 425 003c 4C91F3D0 		.long	-789343924
 426              	 # <anonymous>:
 427 0040 01000000 		.long	1
 428 0044 00000000 		.align 32
 428      00000000 
 428      00000000 
 428      00000000 
 428      00000000 
 429              	LPBX0:
 430              	 # <anonymous>:
 431 0060 2A363034 		.long	875574826
 432              	 # <anonymous>:
 433 0064 00000000 		.long	0
 434              	 # <anonymous>:
 435 0068 97387060 		.long	1617967255
 436              	 # <anonymous>:
 437 006c 34000000 		.long	LC1
 438              	 # <anonymous>:
 439 0070 03000000 		.long	3
 440              	 # <anonymous>:
 441 0074 20000000 		.long	LC2
 442              	 # <anonymous>:
 443 0078 01000000 		.long	1
 444              	 # <anonymous>:
 445              	 # <anonymous>:
 446 007c 19000000 		.long	25
 447              	 # <anonymous>:
 448 0080 00000000 		.long	LPBX1
 449              	 # <anonymous>:
 450 0084 00000000 		.long	___gcov_merge_add
 451 0088 00000000 		.space 12
 451      00000000 
 451      00000000 
 452 0094 00000000 		.text
 452      00000000 
 452      00000000 
 453              		.def	__GLOBAL__sub_I_65535_0_testpools1;	.scl	3;	.type	32;	.endef
 454              	__GLOBAL__sub_I_65535_0_testpools1:
 455              	LFB3:
 456              		.loc 1 121 0
 457              		.cfi_startproc
GAS LISTING C:\cygwin\tmp\ccMj9Rwe.s 			page 12


 458 047b 83EC1C   		subl	$28, %esp	 #,
 459              	LCFI6:
 460              		.cfi_def_cfa_offset 32
 461              		.loc 1 121 0
 462 047e C7042460 		movl	$LPBX0, (%esp)	 #,
 462      000000
 463 0485 E8000000 		call	___gcov_init	 #
 463      00
 464 048a 83C41C   		addl	$28, %esp	 #,
 465              	LCFI7:
 466              		.cfi_def_cfa_offset 4
 467 048d C3       		ret
 468              		.cfi_endproc
 469              	LFE3:
 470              		.section	.ctors,"w"
 471              		.align 4
 472 0000 7B040000 		.long	__GLOBAL__sub_I_65535_0_testpools1
 473              		.text
 474              	Letext0:
 475              		.file 2 "c:/mingw/bin/../lib/gcc/mingw32/4.6.2/include/stddef.h"
 476              		.file 3 "../../os/kernel/include/chmemcore.h"
 477              		.file 4 "../../os/kernel/include/chmempools.h"
 478              		.file 5 "../../test/test.h"