GAS LISTING C:\cygwin\tmp\ccHd38PY.s 			page 1


   1              		.file	"testheap.c"
   2              	 # GNU C (GCC) version 4.6.2 (mingw32)
   3              	 #	compiled by GNU C version 4.6.2, GMP version 5.0.1, MPFR version 2.4.1, MPC version 0.8.1
   4              	 # GGC heuristics: --param ggc-min-expand=100 --param ggc-min-heapsize=131072
   5              	 # options passed:  -I . -I ../../os/ports/GCC/SIMIA32
   6              	 # -I ../../os/kernel/include -I ../../test -I ../../os/hal/include
   7              	 # -I ../../os/hal/platforms/Win32 -I ../../boards/simulator
   8              	 # -I ../../os/various -iprefix c:\mingw\bin\../lib/gcc/mingw32/4.6.2/
   9              	 # -MD ../../test/testheap.d -MF .dep/testheap.o.d -MP
  10              	 # -MQ ../../test/testheap.o -D SIMULATOR ../../test/testheap.c -mtune=i386
  11              	 # -march=i386 -auxbase-strip ../../test/testheap.o -ggdb -O0 -Wall -Wextra
  12              	 # -Wstrict-prototypes -fomit-frame-pointer -fprofile-arcs -ftest-coverage
  13              	 # -fverbose-asm
  14              	 # options enabled:  -fasynchronous-unwind-tables -fauto-inc-dec
  15              	 # -fbranch-count-reg -fcommon -fdelete-null-pointer-checks
  16              	 # -fdwarf2-cfi-asm -fearly-inlining -feliminate-unused-debug-types
  17              	 # -ffunction-cse -fgcse-lm -fident -finline-functions-called-once
  18              	 # -fira-share-save-slots -fira-share-spill-slots -fivopts
  19              	 # -fkeep-inline-dllexport -fkeep-static-consts -fleading-underscore
  20              	 # -fmath-errno -fmerge-debug-strings -fmove-loop-invariants
  21              	 # -fomit-frame-pointer -fpeephole -fprefetch-loop-arrays -fprofile-arcs
  22              	 # -freg-struct-return -fsched-critical-path-heuristic
  23              	 # -fsched-dep-count-heuristic -fsched-group-heuristic -fsched-interblock
  24              	 # -fsched-last-insn-heuristic -fsched-rank-heuristic -fsched-spec
  25              	 # -fsched-spec-insn-heuristic -fsched-stalled-insns-dep
  26              	 # -fset-stack-executable -fshow-column -fsigned-zeros
  27              	 # -fsplit-ivs-in-unroller -fstrict-volatile-bitfields -ftest-coverage
  28              	 # -ftrapping-math -ftree-cselim -ftree-forwprop -ftree-loop-if-convert
  29              	 # -ftree-loop-im -ftree-loop-ivcanon -ftree-loop-optimize
  30              	 # -ftree-parallelize-loops= -ftree-phiprop -ftree-pta -ftree-reassoc
  31              	 # -ftree-scev-cprop -ftree-slp-vectorize -ftree-vect-loop-version
  32              	 # -funit-at-a-time -funwind-tables -fvect-cost-model -fverbose-asm
  33              	 # -fzero-initialized-in-bss -m32 -m80387 -m96bit-long-double
  34              	 # -maccumulate-outgoing-args -malign-double -malign-stringops
  35              	 # -mfancy-math-387 -mfp-ret-in-387 -mieee-fp -mno-red-zone -mno-sse4
  36              	 # -mpush-args -msahf -mstack-arg-probe
  37              	
  38              		.text
  39              	Ltext0:
  40              	 # Compiler executable checksum: c20aed7c018482d7b62efcd5dcab2a9d
  41              	
  42              	.lcomm _test_heap,48,32
  43              		.def	_heap1_setup;	.scl	3;	.type	32;	.endef
  44              	_heap1_setup:
  45              	LFB0:
  46              		.file 1 "../../test/testheap.c"
  47              		.loc 1 68 0
  48              		.cfi_startproc
  49 0000 83EC1C   		subl	$28, %esp	 #,
  50              	LCFI0:
  51              		.cfi_def_cfa_offset 32
  52              		.loc 1 68 0
  53 0003 A1700200 		movl	LPBX1+560, %eax	 # *LPBX1, PROF_edge_counter.5
  53      00
  54 0008 8B157402 		movl	LPBX1+564, %edx	 # *LPBX1, PROF_edge_counter.5
  54      0000
  55 000e 83C001   		addl	$1, %eax	 #, PROF_edge_counter.5
GAS LISTING C:\cygwin\tmp\ccHd38PY.s 			page 2


  56 0011 83D200   		adcl	$0, %edx	 #, PROF_edge_counter.5
  57 0014 A3700200 		movl	%eax, LPBX1+560	 # PROF_edge_counter.5, *LPBX1
  57      00
  58 0019 89157402 		movl	%edx, LPBX1+564	 # PROF_edge_counter.5, *LPBX1
  58      0000
  59              		.loc 1 70 0
  60 001f C7442408 		movl	$85040, 8(%esp)	 #,
  60      304C0100 
  61 0027 C7442404 		movl	$_test, 4(%esp)	 #,
  61      00000000 
  62 002f C7042400 		movl	$_test_heap, (%esp)	 #,
  62      000000
  63 0036 E8000000 		call	_chHeapInit	 #
  63      00
  64 003b A1780200 		movl	LPBX1+568, %eax	 # *LPBX1, PROF_edge_counter.5
  64      00
  65 0040 8B157C02 		movl	LPBX1+572, %edx	 # *LPBX1, PROF_edge_counter.5
  65      0000
  66 0046 83C001   		addl	$1, %eax	 #, PROF_edge_counter.5
  67 0049 83D200   		adcl	$0, %edx	 #, PROF_edge_counter.5
  68 004c A3780200 		movl	%eax, LPBX1+568	 # PROF_edge_counter.5, *LPBX1
  68      00
  69 0051 89157C02 		movl	%edx, LPBX1+572	 # PROF_edge_counter.5, *LPBX1
  69      0000
  70              		.loc 1 71 0
  71 0057 83C41C   		addl	$28, %esp	 #,
  72              	LCFI1:
  73              		.cfi_def_cfa_offset 4
  74 005a C3       		ret
  75              		.cfi_endproc
  76              	LFE0:
  77              		.def	_heap1_execute;	.scl	3;	.type	32;	.endef
  78              	_heap1_execute:
  79              	LFB1:
  80              		.loc 1 73 0
  81              		.cfi_startproc
  82 005b 83EC3C   		subl	$60, %esp	 #,
  83              	LCFI2:
  84              		.cfi_def_cfa_offset 64
  85              		.loc 1 73 0
  86 005e A1400000 		movl	LPBX1, %eax	 # *LPBX1, PROF_edge_counter.4
  86      00
  87 0063 8B154400 		movl	LPBX1+4, %edx	 # *LPBX1, PROF_edge_counter.4
  87      0000
  88 0069 83C001   		addl	$1, %eax	 #, PROF_edge_counter.4
  89 006c 83D200   		adcl	$0, %edx	 #, PROF_edge_counter.4
  90 006f A3400000 		movl	%eax, LPBX1	 # PROF_edge_counter.4, *LPBX1
  90      00
  91 0074 89154400 		movl	%edx, LPBX1+4	 # PROF_edge_counter.4, *LPBX1
  91      0000
  92              		.loc 1 78 0
  93 007a E8000000 		call	_chCoreStatus	 #
  93      00
  94 007f A1480000 		movl	LPBX1+8, %eax	 # *LPBX1, PROF_edge_counter.4
  94      00
  95 0084 8B154C00 		movl	LPBX1+12, %edx	 # *LPBX1, PROF_edge_counter.4
  95      0000
GAS LISTING C:\cygwin\tmp\ccHd38PY.s 			page 3


  96 008a 83C001   		addl	$1, %eax	 #, PROF_edge_counter.4
  97 008d 83D200   		adcl	$0, %edx	 #, PROF_edge_counter.4
  98 0090 A3480000 		movl	%eax, LPBX1+8	 # PROF_edge_counter.4, *LPBX1
  98      00
  99 0095 89154C00 		movl	%edx, LPBX1+12	 # PROF_edge_counter.4, *LPBX1
  99      0000
 100              		.loc 1 84 0
 101 009b 8D44241C 		leal	28(%esp), %eax	 #, tmp238
 102 009f 89442404 		movl	%eax, 4(%esp)	 # tmp238,
 103 00a3 C7042400 		movl	$0, (%esp)	 #,
 103      000000
 104 00aa E8000000 		call	_chHeapStatus	 #
 104      00
 105 00af A1500000 		movl	LPBX1+16, %eax	 # *LPBX1, PROF_edge_counter.4
 105      00
 106 00b4 8B155400 		movl	LPBX1+20, %edx	 # *LPBX1, PROF_edge_counter.4
 106      0000
 107 00ba 83C001   		addl	$1, %eax	 #, PROF_edge_counter.4
 108 00bd 83D200   		adcl	$0, %edx	 #, PROF_edge_counter.4
 109 00c0 A3500000 		movl	%eax, LPBX1+16	 # PROF_edge_counter.4, *LPBX1
 109      00
 110 00c5 89155400 		movl	%edx, LPBX1+20	 # PROF_edge_counter.4, *LPBX1
 110      0000
 111              		.loc 1 85 0
 112 00cb C7442404 		movl	$16, 4(%esp)	 #,
 112      10000000 
 113 00d3 C7042400 		movl	$0, (%esp)	 #,
 113      000000
 114 00da E8000000 		call	_chHeapAlloc	 #
 114      00
 115 00df 8944242C 		movl	%eax, 44(%esp)	 # tmp239, p1
 116 00e3 A1580000 		movl	LPBX1+24, %eax	 # *LPBX1, PROF_edge_counter.4
 116      00
 117 00e8 8B155C00 		movl	LPBX1+28, %edx	 # *LPBX1, PROF_edge_counter.4
 117      0000
 118 00ee 83C001   		addl	$1, %eax	 #, PROF_edge_counter.4
 119 00f1 83D200   		adcl	$0, %edx	 #, PROF_edge_counter.4
 120 00f4 A3580000 		movl	%eax, LPBX1+24	 # PROF_edge_counter.4, *LPBX1
 120      00
 121 00f9 89155C00 		movl	%edx, LPBX1+28	 # PROF_edge_counter.4, *LPBX1
 121      0000
 122              		.loc 1 86 0
 123 00ff 837C242C 		cmpl	$0, 44(%esp)	 #, p1
 123      00
 124 0104 0F95C0   		setne	%al	 #, tmp240
 125 0107 0FB6C0   		movzbl	%al, %eax	 # tmp240, D.2803
 126 010a 89442404 		movl	%eax, 4(%esp)	 # D.2803,
 127 010e C7042401 		movl	$1, (%esp)	 #,
 127      000000
 128 0115 E8000000 		call	__test_assert	 #
 128      00
 129 011a 84C0     		testb	%al, %al	 # D.2804
 130 011c 7421     		je	L3	 #,
 131              		.loc 1 86 0 is_stmt 0 discriminator 1
 132 011e A1680000 		movl	LPBX1+40, %eax	 # *LPBX1, PROF_edge_counter.4
 132      00
 133 0123 8B156C00 		movl	LPBX1+44, %edx	 # *LPBX1, PROF_edge_counter.4
GAS LISTING C:\cygwin\tmp\ccHd38PY.s 			page 4


 133      0000
 134 0129 83C001   		addl	$1, %eax	 #, PROF_edge_counter.4
 135 012c 83D200   		adcl	$0, %edx	 #, PROF_edge_counter.4
 136 012f A3680000 		movl	%eax, LPBX1+40	 # PROF_edge_counter.4, *LPBX1
 136      00
 137 0134 89156C00 		movl	%edx, LPBX1+44	 # PROF_edge_counter.4, *LPBX1
 137      0000
 138 013a E9A00B00 		jmp	L2	 #
 138      00
 139              	L3:
 140              		.loc 1 86 0
 141 013f A1600000 		movl	LPBX1+32, %eax	 # *LPBX1, PROF_edge_counter.4
 141      00
 142 0144 8B156400 		movl	LPBX1+36, %edx	 # *LPBX1, PROF_edge_counter.4
 142      0000
 143 014a 83C001   		addl	$1, %eax	 #, PROF_edge_counter.4
 144 014d 83D200   		adcl	$0, %edx	 #, PROF_edge_counter.4
 145 0150 A3600000 		movl	%eax, LPBX1+32	 # PROF_edge_counter.4, *LPBX1
 145      00
 146 0155 89156400 		movl	%edx, LPBX1+36	 # PROF_edge_counter.4, *LPBX1
 146      0000
 147              		.loc 1 87 0 is_stmt 1
 148 015b 8B44242C 		movl	44(%esp), %eax	 # p1, tmp241
 149 015f 890424   		movl	%eax, (%esp)	 # tmp241,
 150 0162 E8000000 		call	_chHeapFree	 #
 150      00
 151 0167 A1700000 		movl	LPBX1+48, %eax	 # *LPBX1, PROF_edge_counter.4
 151      00
 152 016c 8B157400 		movl	LPBX1+52, %edx	 # *LPBX1, PROF_edge_counter.4
 152      0000
 153 0172 83C001   		addl	$1, %eax	 #, PROF_edge_counter.4
 154 0175 83D200   		adcl	$0, %edx	 #, PROF_edge_counter.4
 155 0178 A3700000 		movl	%eax, LPBX1+48	 # PROF_edge_counter.4, *LPBX1
 155      00
 156 017d 89157400 		movl	%edx, LPBX1+52	 # PROF_edge_counter.4, *LPBX1
 156      0000
 157              		.loc 1 88 0
 158 0183 C7442404 		movl	$-256, 4(%esp)	 #,
 158      00FFFFFF 
 159 018b C7042400 		movl	$0, (%esp)	 #,
 159      000000
 160 0192 E8000000 		call	_chHeapAlloc	 #
 160      00
 161 0197 8944242C 		movl	%eax, 44(%esp)	 # tmp242, p1
 162 019b A1780000 		movl	LPBX1+56, %eax	 # *LPBX1, PROF_edge_counter.4
 162      00
 163 01a0 8B157C00 		movl	LPBX1+60, %edx	 # *LPBX1, PROF_edge_counter.4
 163      0000
 164 01a6 83C001   		addl	$1, %eax	 #, PROF_edge_counter.4
 165 01a9 83D200   		adcl	$0, %edx	 #, PROF_edge_counter.4
 166 01ac A3780000 		movl	%eax, LPBX1+56	 # PROF_edge_counter.4, *LPBX1
 166      00
 167 01b1 89157C00 		movl	%edx, LPBX1+60	 # PROF_edge_counter.4, *LPBX1
 167      0000
 168              		.loc 1 89 0
 169 01b7 837C242C 		cmpl	$0, 44(%esp)	 #, p1
 169      00
GAS LISTING C:\cygwin\tmp\ccHd38PY.s 			page 5


 170 01bc 0F94C0   		sete	%al	 #, tmp243
 171 01bf 0FB6C0   		movzbl	%al, %eax	 # tmp243, D.2807
 172 01c2 89442404 		movl	%eax, 4(%esp)	 # D.2807,
 173 01c6 C7042402 		movl	$2, (%esp)	 #,
 173      000000
 174 01cd E8000000 		call	__test_assert	 #
 174      00
 175 01d2 84C0     		testb	%al, %al	 # D.2808
 176 01d4 7421     		je	L5	 #,
 177              		.loc 1 89 0 is_stmt 0 discriminator 1
 178 01d6 A1880000 		movl	LPBX1+72, %eax	 # *LPBX1, PROF_edge_counter.4
 178      00
 179 01db 8B158C00 		movl	LPBX1+76, %edx	 # *LPBX1, PROF_edge_counter.4
 179      0000
 180 01e1 83C001   		addl	$1, %eax	 #, PROF_edge_counter.4
 181 01e4 83D200   		adcl	$0, %edx	 #, PROF_edge_counter.4
 182 01e7 A3880000 		movl	%eax, LPBX1+72	 # PROF_edge_counter.4, *LPBX1
 182      00
 183 01ec 89158C00 		movl	%edx, LPBX1+76	 # PROF_edge_counter.4, *LPBX1
 183      0000
 184 01f2 E9E80A00 		jmp	L2	 #
 184      00
 185              	L5:
 186              		.loc 1 89 0
 187 01f7 A1800000 		movl	LPBX1+64, %eax	 # *LPBX1, PROF_edge_counter.4
 187      00
 188 01fc 8B158400 		movl	LPBX1+68, %edx	 # *LPBX1, PROF_edge_counter.4
 188      0000
 189 0202 83C001   		addl	$1, %eax	 #, PROF_edge_counter.4
 190 0205 83D200   		adcl	$0, %edx	 #, PROF_edge_counter.4
 191 0208 A3800000 		movl	%eax, LPBX1+64	 # PROF_edge_counter.4, *LPBX1
 191      00
 192 020d 89158400 		movl	%edx, LPBX1+68	 # PROF_edge_counter.4, *LPBX1
 192      0000
 193              		.loc 1 92 0 is_stmt 1
 194 0213 8D44241C 		leal	28(%esp), %eax	 #, tmp244
 195 0217 89442404 		movl	%eax, 4(%esp)	 # tmp244,
 196 021b C7042400 		movl	$_test_heap, (%esp)	 #,
 196      000000
 197 0222 E8000000 		call	_chHeapStatus	 #
 197      00
 198 0227 A1900000 		movl	LPBX1+80, %eax	 # *LPBX1, PROF_edge_counter.4
 198      00
 199 022c 8B159400 		movl	LPBX1+84, %edx	 # *LPBX1, PROF_edge_counter.4
 199      0000
 200 0232 83C001   		addl	$1, %eax	 #, PROF_edge_counter.4
 201 0235 83D200   		adcl	$0, %edx	 #, PROF_edge_counter.4
 202 0238 A3900000 		movl	%eax, LPBX1+80	 # PROF_edge_counter.4, *LPBX1
 202      00
 203 023d 89159400 		movl	%edx, LPBX1+84	 # PROF_edge_counter.4, *LPBX1
 203      0000
 204              		.loc 1 95 0
 205 0243 C7442404 		movl	$16, 4(%esp)	 #,
 205      10000000 
 206 024b C7042400 		movl	$_test_heap, (%esp)	 #,
 206      000000
 207 0252 E8000000 		call	_chHeapAlloc	 #
GAS LISTING C:\cygwin\tmp\ccHd38PY.s 			page 6


 207      00
 208 0257 8944242C 		movl	%eax, 44(%esp)	 # tmp245, p1
 209 025b A1980000 		movl	LPBX1+88, %eax	 # *LPBX1, PROF_edge_counter.4
 209      00
 210 0260 8B159C00 		movl	LPBX1+92, %edx	 # *LPBX1, PROF_edge_counter.4
 210      0000
 211 0266 83C001   		addl	$1, %eax	 #, PROF_edge_counter.4
 212 0269 83D200   		adcl	$0, %edx	 #, PROF_edge_counter.4
 213 026c A3980000 		movl	%eax, LPBX1+88	 # PROF_edge_counter.4, *LPBX1
 213      00
 214 0271 89159C00 		movl	%edx, LPBX1+92	 # PROF_edge_counter.4, *LPBX1
 214      0000
 215              		.loc 1 96 0
 216 0277 C7442404 		movl	$16, 4(%esp)	 #,
 216      10000000 
 217 027f C7042400 		movl	$_test_heap, (%esp)	 #,
 217      000000
 218 0286 E8000000 		call	_chHeapAlloc	 #
 218      00
 219 028b 89442428 		movl	%eax, 40(%esp)	 # tmp246, p2
 220 028f A1A00000 		movl	LPBX1+96, %eax	 # *LPBX1, PROF_edge_counter.4
 220      00
 221 0294 8B15A400 		movl	LPBX1+100, %edx	 # *LPBX1, PROF_edge_counter.4
 221      0000
 222 029a 83C001   		addl	$1, %eax	 #, PROF_edge_counter.4
 223 029d 83D200   		adcl	$0, %edx	 #, PROF_edge_counter.4
 224 02a0 A3A00000 		movl	%eax, LPBX1+96	 # PROF_edge_counter.4, *LPBX1
 224      00
 225 02a5 8915A400 		movl	%edx, LPBX1+100	 # PROF_edge_counter.4, *LPBX1
 225      0000
 226              		.loc 1 97 0
 227 02ab C7442404 		movl	$16, 4(%esp)	 #,
 227      10000000 
 228 02b3 C7042400 		movl	$_test_heap, (%esp)	 #,
 228      000000
 229 02ba E8000000 		call	_chHeapAlloc	 #
 229      00
 230 02bf 89442424 		movl	%eax, 36(%esp)	 # tmp247, p3
 231 02c3 A1A80000 		movl	LPBX1+104, %eax	 # *LPBX1, PROF_edge_counter.4
 231      00
 232 02c8 8B15AC00 		movl	LPBX1+108, %edx	 # *LPBX1, PROF_edge_counter.4
 232      0000
 233 02ce 83C001   		addl	$1, %eax	 #, PROF_edge_counter.4
 234 02d1 83D200   		adcl	$0, %edx	 #, PROF_edge_counter.4
 235 02d4 A3A80000 		movl	%eax, LPBX1+104	 # PROF_edge_counter.4, *LPBX1
 235      00
 236 02d9 8915AC00 		movl	%edx, LPBX1+108	 # PROF_edge_counter.4, *LPBX1
 236      0000
 237              		.loc 1 98 0
 238 02df 8B44242C 		movl	44(%esp), %eax	 # p1, tmp248
 239 02e3 890424   		movl	%eax, (%esp)	 # tmp248,
 240 02e6 E8000000 		call	_chHeapFree	 #
 240      00
 241 02eb A1B00000 		movl	LPBX1+112, %eax	 # *LPBX1, PROF_edge_counter.4
 241      00
 242 02f0 8B15B400 		movl	LPBX1+116, %edx	 # *LPBX1, PROF_edge_counter.4
 242      0000
GAS LISTING C:\cygwin\tmp\ccHd38PY.s 			page 7


 243 02f6 83C001   		addl	$1, %eax	 #, PROF_edge_counter.4
 244 02f9 83D200   		adcl	$0, %edx	 #, PROF_edge_counter.4
 245 02fc A3B00000 		movl	%eax, LPBX1+112	 # PROF_edge_counter.4, *LPBX1
 245      00
 246 0301 8915B400 		movl	%edx, LPBX1+116	 # PROF_edge_counter.4, *LPBX1
 246      0000
 247              		.loc 1 99 0
 248 0307 8B442428 		movl	40(%esp), %eax	 # p2, tmp249
 249 030b 890424   		movl	%eax, (%esp)	 # tmp249,
 250 030e E8000000 		call	_chHeapFree	 #
 250      00
 251 0313 A1B80000 		movl	LPBX1+120, %eax	 # *LPBX1, PROF_edge_counter.4
 251      00
 252 0318 8B15BC00 		movl	LPBX1+124, %edx	 # *LPBX1, PROF_edge_counter.4
 252      0000
 253 031e 83C001   		addl	$1, %eax	 #, PROF_edge_counter.4
 254 0321 83D200   		adcl	$0, %edx	 #, PROF_edge_counter.4
 255 0324 A3B80000 		movl	%eax, LPBX1+120	 # PROF_edge_counter.4, *LPBX1
 255      00
 256 0329 8915BC00 		movl	%edx, LPBX1+124	 # PROF_edge_counter.4, *LPBX1
 256      0000
 257              		.loc 1 100 0
 258 032f 8B442424 		movl	36(%esp), %eax	 # p3, tmp250
 259 0333 890424   		movl	%eax, (%esp)	 # tmp250,
 260 0336 E8000000 		call	_chHeapFree	 #
 260      00
 261 033b A1C00000 		movl	LPBX1+128, %eax	 # *LPBX1, PROF_edge_counter.4
 261      00
 262 0340 8B15C400 		movl	LPBX1+132, %edx	 # *LPBX1, PROF_edge_counter.4
 262      0000
 263 0346 83C001   		addl	$1, %eax	 #, PROF_edge_counter.4
 264 0349 83D200   		adcl	$0, %edx	 #, PROF_edge_counter.4
 265 034c A3C00000 		movl	%eax, LPBX1+128	 # PROF_edge_counter.4, *LPBX1
 265      00
 266 0351 8915C400 		movl	%edx, LPBX1+132	 # PROF_edge_counter.4, *LPBX1
 266      0000
 267              		.loc 1 101 0
 268 0357 8D442420 		leal	32(%esp), %eax	 #, tmp251
 269 035b 89442404 		movl	%eax, 4(%esp)	 # tmp251,
 270 035f C7042400 		movl	$_test_heap, (%esp)	 #,
 270      000000
 271 0366 E8000000 		call	_chHeapStatus	 #
 271      00
 272 036b 89C1     		movl	%eax, %ecx	 #, D.2811
 273 036d A1C80000 		movl	LPBX1+136, %eax	 # *LPBX1, PROF_edge_counter.4
 273      00
 274 0372 8B15CC00 		movl	LPBX1+140, %edx	 # *LPBX1, PROF_edge_counter.4
 274      0000
 275 0378 83C001   		addl	$1, %eax	 #, PROF_edge_counter.4
 276 037b 83D200   		adcl	$0, %edx	 #, PROF_edge_counter.4
 277 037e A3C80000 		movl	%eax, LPBX1+136	 # PROF_edge_counter.4, *LPBX1
 277      00
 278 0383 8915CC00 		movl	%edx, LPBX1+140	 # PROF_edge_counter.4, *LPBX1
 278      0000
 279 0389 83F901   		cmpl	$1, %ecx	 #, D.2811
 280 038c 0F94C0   		sete	%al	 #, tmp252
 281 038f 0FB6C0   		movzbl	%al, %eax	 # tmp252, D.2812
GAS LISTING C:\cygwin\tmp\ccHd38PY.s 			page 8


 282 0392 89442404 		movl	%eax, 4(%esp)	 # D.2812,
 283 0396 C7042403 		movl	$3, (%esp)	 #,
 283      000000
 284 039d E8000000 		call	__test_assert	 #
 284      00
 285 03a2 84C0     		testb	%al, %al	 # D.2813
 286 03a4 7421     		je	L6	 #,
 287              		.loc 1 101 0 is_stmt 0 discriminator 1
 288 03a6 A1D80000 		movl	LPBX1+152, %eax	 # *LPBX1, PROF_edge_counter.4
 288      00
 289 03ab 8B15DC00 		movl	LPBX1+156, %edx	 # *LPBX1, PROF_edge_counter.4
 289      0000
 290 03b1 83C001   		addl	$1, %eax	 #, PROF_edge_counter.4
 291 03b4 83D200   		adcl	$0, %edx	 #, PROF_edge_counter.4
 292 03b7 A3D80000 		movl	%eax, LPBX1+152	 # PROF_edge_counter.4, *LPBX1
 292      00
 293 03bc 8915DC00 		movl	%edx, LPBX1+156	 # PROF_edge_counter.4, *LPBX1
 293      0000
 294 03c2 E9180900 		jmp	L2	 #
 294      00
 295              	L6:
 296              		.loc 1 101 0
 297 03c7 A1D00000 		movl	LPBX1+144, %eax	 # *LPBX1, PROF_edge_counter.4
 297      00
 298 03cc 8B15D400 		movl	LPBX1+148, %edx	 # *LPBX1, PROF_edge_counter.4
 298      0000
 299 03d2 83C001   		addl	$1, %eax	 #, PROF_edge_counter.4
 300 03d5 83D200   		adcl	$0, %edx	 #, PROF_edge_counter.4
 301 03d8 A3D00000 		movl	%eax, LPBX1+144	 # PROF_edge_counter.4, *LPBX1
 301      00
 302 03dd 8915D400 		movl	%edx, LPBX1+148	 # PROF_edge_counter.4, *LPBX1
 302      0000
 303              		.loc 1 104 0 is_stmt 1
 304 03e3 C7442404 		movl	$16, 4(%esp)	 #,
 304      10000000 
 305 03eb C7042400 		movl	$_test_heap, (%esp)	 #,
 305      000000
 306 03f2 E8000000 		call	_chHeapAlloc	 #
 306      00
 307 03f7 8944242C 		movl	%eax, 44(%esp)	 # tmp253, p1
 308 03fb A1E00000 		movl	LPBX1+160, %eax	 # *LPBX1, PROF_edge_counter.4
 308      00
 309 0400 8B15E400 		movl	LPBX1+164, %edx	 # *LPBX1, PROF_edge_counter.4
 309      0000
 310 0406 83C001   		addl	$1, %eax	 #, PROF_edge_counter.4
 311 0409 83D200   		adcl	$0, %edx	 #, PROF_edge_counter.4
 312 040c A3E00000 		movl	%eax, LPBX1+160	 # PROF_edge_counter.4, *LPBX1
 312      00
 313 0411 8915E400 		movl	%edx, LPBX1+164	 # PROF_edge_counter.4, *LPBX1
 313      0000
 314              		.loc 1 105 0
 315 0417 C7442404 		movl	$16, 4(%esp)	 #,
 315      10000000 
 316 041f C7042400 		movl	$_test_heap, (%esp)	 #,
 316      000000
 317 0426 E8000000 		call	_chHeapAlloc	 #
 317      00
GAS LISTING C:\cygwin\tmp\ccHd38PY.s 			page 9


 318 042b 89442428 		movl	%eax, 40(%esp)	 # tmp254, p2
 319 042f A1E80000 		movl	LPBX1+168, %eax	 # *LPBX1, PROF_edge_counter.4
 319      00
 320 0434 8B15EC00 		movl	LPBX1+172, %edx	 # *LPBX1, PROF_edge_counter.4
 320      0000
 321 043a 83C001   		addl	$1, %eax	 #, PROF_edge_counter.4
 322 043d 83D200   		adcl	$0, %edx	 #, PROF_edge_counter.4
 323 0440 A3E80000 		movl	%eax, LPBX1+168	 # PROF_edge_counter.4, *LPBX1
 323      00
 324 0445 8915EC00 		movl	%edx, LPBX1+172	 # PROF_edge_counter.4, *LPBX1
 324      0000
 325              		.loc 1 106 0
 326 044b C7442404 		movl	$16, 4(%esp)	 #,
 326      10000000 
 327 0453 C7042400 		movl	$_test_heap, (%esp)	 #,
 327      000000
 328 045a E8000000 		call	_chHeapAlloc	 #
 328      00
 329 045f 89442424 		movl	%eax, 36(%esp)	 # tmp255, p3
 330 0463 A1F00000 		movl	LPBX1+176, %eax	 # *LPBX1, PROF_edge_counter.4
 330      00
 331 0468 8B15F400 		movl	LPBX1+180, %edx	 # *LPBX1, PROF_edge_counter.4
 331      0000
 332 046e 83C001   		addl	$1, %eax	 #, PROF_edge_counter.4
 333 0471 83D200   		adcl	$0, %edx	 #, PROF_edge_counter.4
 334 0474 A3F00000 		movl	%eax, LPBX1+176	 # PROF_edge_counter.4, *LPBX1
 334      00
 335 0479 8915F400 		movl	%edx, LPBX1+180	 # PROF_edge_counter.4, *LPBX1
 335      0000
 336              		.loc 1 107 0
 337 047f 8B442424 		movl	36(%esp), %eax	 # p3, tmp256
 338 0483 890424   		movl	%eax, (%esp)	 # tmp256,
 339 0486 E8000000 		call	_chHeapFree	 #
 339      00
 340 048b A1F80000 		movl	LPBX1+184, %eax	 # *LPBX1, PROF_edge_counter.4
 340      00
 341 0490 8B15FC00 		movl	LPBX1+188, %edx	 # *LPBX1, PROF_edge_counter.4
 341      0000
 342 0496 83C001   		addl	$1, %eax	 #, PROF_edge_counter.4
 343 0499 83D200   		adcl	$0, %edx	 #, PROF_edge_counter.4
 344 049c A3F80000 		movl	%eax, LPBX1+184	 # PROF_edge_counter.4, *LPBX1
 344      00
 345 04a1 8915FC00 		movl	%edx, LPBX1+188	 # PROF_edge_counter.4, *LPBX1
 345      0000
 346              		.loc 1 108 0
 347 04a7 8B442428 		movl	40(%esp), %eax	 # p2, tmp257
 348 04ab 890424   		movl	%eax, (%esp)	 # tmp257,
 349 04ae E8000000 		call	_chHeapFree	 #
 349      00
 350 04b3 A1000100 		movl	LPBX1+192, %eax	 # *LPBX1, PROF_edge_counter.4
 350      00
 351 04b8 8B150401 		movl	LPBX1+196, %edx	 # *LPBX1, PROF_edge_counter.4
 351      0000
 352 04be 83C001   		addl	$1, %eax	 #, PROF_edge_counter.4
 353 04c1 83D200   		adcl	$0, %edx	 #, PROF_edge_counter.4
 354 04c4 A3000100 		movl	%eax, LPBX1+192	 # PROF_edge_counter.4, *LPBX1
 354      00
GAS LISTING C:\cygwin\tmp\ccHd38PY.s 			page 10


 355 04c9 89150401 		movl	%edx, LPBX1+196	 # PROF_edge_counter.4, *LPBX1
 355      0000
 356              		.loc 1 109 0
 357 04cf 8B44242C 		movl	44(%esp), %eax	 # p1, tmp258
 358 04d3 890424   		movl	%eax, (%esp)	 # tmp258,
 359 04d6 E8000000 		call	_chHeapFree	 #
 359      00
 360 04db A1080100 		movl	LPBX1+200, %eax	 # *LPBX1, PROF_edge_counter.4
 360      00
 361 04e0 8B150C01 		movl	LPBX1+204, %edx	 # *LPBX1, PROF_edge_counter.4
 361      0000
 362 04e6 83C001   		addl	$1, %eax	 #, PROF_edge_counter.4
 363 04e9 83D200   		adcl	$0, %edx	 #, PROF_edge_counter.4
 364 04ec A3080100 		movl	%eax, LPBX1+200	 # PROF_edge_counter.4, *LPBX1
 364      00
 365 04f1 89150C01 		movl	%edx, LPBX1+204	 # PROF_edge_counter.4, *LPBX1
 365      0000
 366              		.loc 1 110 0
 367 04f7 8D442420 		leal	32(%esp), %eax	 #, tmp259
 368 04fb 89442404 		movl	%eax, 4(%esp)	 # tmp259,
 369 04ff C7042400 		movl	$_test_heap, (%esp)	 #,
 369      000000
 370 0506 E8000000 		call	_chHeapStatus	 #
 370      00
 371 050b 89C1     		movl	%eax, %ecx	 #, D.2816
 372 050d A1100100 		movl	LPBX1+208, %eax	 # *LPBX1, PROF_edge_counter.4
 372      00
 373 0512 8B151401 		movl	LPBX1+212, %edx	 # *LPBX1, PROF_edge_counter.4
 373      0000
 374 0518 83C001   		addl	$1, %eax	 #, PROF_edge_counter.4
 375 051b 83D200   		adcl	$0, %edx	 #, PROF_edge_counter.4
 376 051e A3100100 		movl	%eax, LPBX1+208	 # PROF_edge_counter.4, *LPBX1
 376      00
 377 0523 89151401 		movl	%edx, LPBX1+212	 # PROF_edge_counter.4, *LPBX1
 377      0000
 378 0529 83F901   		cmpl	$1, %ecx	 #, D.2816
 379 052c 0F94C0   		sete	%al	 #, tmp260
 380 052f 0FB6C0   		movzbl	%al, %eax	 # tmp260, D.2817
 381 0532 89442404 		movl	%eax, 4(%esp)	 # D.2817,
 382 0536 C7042404 		movl	$4, (%esp)	 #,
 382      000000
 383 053d E8000000 		call	__test_assert	 #
 383      00
 384 0542 84C0     		testb	%al, %al	 # D.2818
 385 0544 7421     		je	L7	 #,
 386              		.loc 1 110 0 is_stmt 0 discriminator 1
 387 0546 A1200100 		movl	LPBX1+224, %eax	 # *LPBX1, PROF_edge_counter.4
 387      00
 388 054b 8B152401 		movl	LPBX1+228, %edx	 # *LPBX1, PROF_edge_counter.4
 388      0000
 389 0551 83C001   		addl	$1, %eax	 #, PROF_edge_counter.4
 390 0554 83D200   		adcl	$0, %edx	 #, PROF_edge_counter.4
 391 0557 A3200100 		movl	%eax, LPBX1+224	 # PROF_edge_counter.4, *LPBX1
 391      00
 392 055c 89152401 		movl	%edx, LPBX1+228	 # PROF_edge_counter.4, *LPBX1
 392      0000
 393 0562 E9780700 		jmp	L2	 #
GAS LISTING C:\cygwin\tmp\ccHd38PY.s 			page 11


 393      00
 394              	L7:
 395              		.loc 1 110 0
 396 0567 A1180100 		movl	LPBX1+216, %eax	 # *LPBX1, PROF_edge_counter.4
 396      00
 397 056c 8B151C01 		movl	LPBX1+220, %edx	 # *LPBX1, PROF_edge_counter.4
 397      0000
 398 0572 83C001   		addl	$1, %eax	 #, PROF_edge_counter.4
 399 0575 83D200   		adcl	$0, %edx	 #, PROF_edge_counter.4
 400 0578 A3180100 		movl	%eax, LPBX1+216	 # PROF_edge_counter.4, *LPBX1
 400      00
 401 057d 89151C01 		movl	%edx, LPBX1+220	 # PROF_edge_counter.4, *LPBX1
 401      0000
 402              		.loc 1 113 0 is_stmt 1
 403 0583 C7442404 		movl	$17, 4(%esp)	 #,
 403      11000000 
 404 058b C7042400 		movl	$_test_heap, (%esp)	 #,
 404      000000
 405 0592 E8000000 		call	_chHeapAlloc	 #
 405      00
 406 0597 8944242C 		movl	%eax, 44(%esp)	 # tmp261, p1
 407 059b A1280100 		movl	LPBX1+232, %eax	 # *LPBX1, PROF_edge_counter.4
 407      00
 408 05a0 8B152C01 		movl	LPBX1+236, %edx	 # *LPBX1, PROF_edge_counter.4
 408      0000
 409 05a6 83C001   		addl	$1, %eax	 #, PROF_edge_counter.4
 410 05a9 83D200   		adcl	$0, %edx	 #, PROF_edge_counter.4
 411 05ac A3280100 		movl	%eax, LPBX1+232	 # PROF_edge_counter.4, *LPBX1
 411      00
 412 05b1 89152C01 		movl	%edx, LPBX1+236	 # PROF_edge_counter.4, *LPBX1
 412      0000
 413              		.loc 1 114 0
 414 05b7 C7442404 		movl	$16, 4(%esp)	 #,
 414      10000000 
 415 05bf C7042400 		movl	$_test_heap, (%esp)	 #,
 415      000000
 416 05c6 E8000000 		call	_chHeapAlloc	 #
 416      00
 417 05cb 89442428 		movl	%eax, 40(%esp)	 # tmp262, p2
 418 05cf A1300100 		movl	LPBX1+240, %eax	 # *LPBX1, PROF_edge_counter.4
 418      00
 419 05d4 8B153401 		movl	LPBX1+244, %edx	 # *LPBX1, PROF_edge_counter.4
 419      0000
 420 05da 83C001   		addl	$1, %eax	 #, PROF_edge_counter.4
 421 05dd 83D200   		adcl	$0, %edx	 #, PROF_edge_counter.4
 422 05e0 A3300100 		movl	%eax, LPBX1+240	 # PROF_edge_counter.4, *LPBX1
 422      00
 423 05e5 89153401 		movl	%edx, LPBX1+244	 # PROF_edge_counter.4, *LPBX1
 423      0000
 424              		.loc 1 115 0
 425 05eb 8B44242C 		movl	44(%esp), %eax	 # p1, tmp263
 426 05ef 890424   		movl	%eax, (%esp)	 # tmp263,
 427 05f2 E8000000 		call	_chHeapFree	 #
 427      00
 428 05f7 A1380100 		movl	LPBX1+248, %eax	 # *LPBX1, PROF_edge_counter.4
 428      00
 429 05fc 8B153C01 		movl	LPBX1+252, %edx	 # *LPBX1, PROF_edge_counter.4
GAS LISTING C:\cygwin\tmp\ccHd38PY.s 			page 12


 429      0000
 430 0602 83C001   		addl	$1, %eax	 #, PROF_edge_counter.4
 431 0605 83D200   		adcl	$0, %edx	 #, PROF_edge_counter.4
 432 0608 A3380100 		movl	%eax, LPBX1+248	 # PROF_edge_counter.4, *LPBX1
 432      00
 433 060d 89153C01 		movl	%edx, LPBX1+252	 # PROF_edge_counter.4, *LPBX1
 433      0000
 434              		.loc 1 116 0
 435 0613 8D442420 		leal	32(%esp), %eax	 #, tmp264
 436 0617 89442404 		movl	%eax, 4(%esp)	 # tmp264,
 437 061b C7042400 		movl	$_test_heap, (%esp)	 #,
 437      000000
 438 0622 E8000000 		call	_chHeapStatus	 #
 438      00
 439 0627 89C1     		movl	%eax, %ecx	 #, D.2821
 440 0629 A1400100 		movl	LPBX1+256, %eax	 # *LPBX1, PROF_edge_counter.4
 440      00
 441 062e 8B154401 		movl	LPBX1+260, %edx	 # *LPBX1, PROF_edge_counter.4
 441      0000
 442 0634 83C001   		addl	$1, %eax	 #, PROF_edge_counter.4
 443 0637 83D200   		adcl	$0, %edx	 #, PROF_edge_counter.4
 444 063a A3400100 		movl	%eax, LPBX1+256	 # PROF_edge_counter.4, *LPBX1
 444      00
 445 063f 89154401 		movl	%edx, LPBX1+260	 # PROF_edge_counter.4, *LPBX1
 445      0000
 446 0645 83F902   		cmpl	$2, %ecx	 #, D.2821
 447 0648 0F94C0   		sete	%al	 #, tmp265
 448 064b 0FB6C0   		movzbl	%al, %eax	 # tmp265, D.2822
 449 064e 89442404 		movl	%eax, 4(%esp)	 # D.2822,
 450 0652 C7042405 		movl	$5, (%esp)	 #,
 450      000000
 451 0659 E8000000 		call	__test_assert	 #
 451      00
 452 065e 84C0     		testb	%al, %al	 # D.2823
 453 0660 7421     		je	L8	 #,
 454              		.loc 1 116 0 is_stmt 0 discriminator 1
 455 0662 A1500100 		movl	LPBX1+272, %eax	 # *LPBX1, PROF_edge_counter.4
 455      00
 456 0667 8B155401 		movl	LPBX1+276, %edx	 # *LPBX1, PROF_edge_counter.4
 456      0000
 457 066d 83C001   		addl	$1, %eax	 #, PROF_edge_counter.4
 458 0670 83D200   		adcl	$0, %edx	 #, PROF_edge_counter.4
 459 0673 A3500100 		movl	%eax, LPBX1+272	 # PROF_edge_counter.4, *LPBX1
 459      00
 460 0678 89155401 		movl	%edx, LPBX1+276	 # PROF_edge_counter.4, *LPBX1
 460      0000
 461 067e E95C0600 		jmp	L2	 #
 461      00
 462              	L8:
 463              		.loc 1 116 0
 464 0683 A1480100 		movl	LPBX1+264, %eax	 # *LPBX1, PROF_edge_counter.4
 464      00
 465 0688 8B154C01 		movl	LPBX1+268, %edx	 # *LPBX1, PROF_edge_counter.4
 465      0000
 466 068e 83C001   		addl	$1, %eax	 #, PROF_edge_counter.4
 467 0691 83D200   		adcl	$0, %edx	 #, PROF_edge_counter.4
 468 0694 A3480100 		movl	%eax, LPBX1+264	 # PROF_edge_counter.4, *LPBX1
GAS LISTING C:\cygwin\tmp\ccHd38PY.s 			page 13


 468      00
 469 0699 89154C01 		movl	%edx, LPBX1+268	 # PROF_edge_counter.4, *LPBX1
 469      0000
 470              		.loc 1 117 0 is_stmt 1
 471 069f C7442404 		movl	$16, 4(%esp)	 #,
 471      10000000 
 472 06a7 C7042400 		movl	$_test_heap, (%esp)	 #,
 472      000000
 473 06ae E8000000 		call	_chHeapAlloc	 #
 473      00
 474 06b3 8944242C 		movl	%eax, 44(%esp)	 # tmp266, p1
 475 06b7 A1580100 		movl	LPBX1+280, %eax	 # *LPBX1, PROF_edge_counter.4
 475      00
 476 06bc 8B155C01 		movl	LPBX1+284, %edx	 # *LPBX1, PROF_edge_counter.4
 476      0000
 477 06c2 83C001   		addl	$1, %eax	 #, PROF_edge_counter.4
 478 06c5 83D200   		adcl	$0, %edx	 #, PROF_edge_counter.4
 479 06c8 A3580100 		movl	%eax, LPBX1+280	 # PROF_edge_counter.4, *LPBX1
 479      00
 480 06cd 89155C01 		movl	%edx, LPBX1+284	 # PROF_edge_counter.4, *LPBX1
 480      0000
 481              		.loc 1 120 0
 482 06d3 8D442420 		leal	32(%esp), %eax	 #, tmp267
 483 06d7 89442404 		movl	%eax, 4(%esp)	 # tmp267,
 484 06db C7042400 		movl	$_test_heap, (%esp)	 #,
 484      000000
 485 06e2 E8000000 		call	_chHeapStatus	 #
 485      00
 486 06e7 83F801   		cmpl	$1, %eax	 #, D.2830
 487 06ea 7453     		je	L9	 #,
 488              		.loc 1 120 0 is_stmt 0 discriminator 2
 489 06ec A1600100 		movl	LPBX1+288, %eax	 # *LPBX1, PROF_edge_counter.4
 489      00
 490 06f1 8B156401 		movl	LPBX1+292, %edx	 # *LPBX1, PROF_edge_counter.4
 490      0000
 491 06f7 83C001   		addl	$1, %eax	 #, PROF_edge_counter.4
 492 06fa 83D200   		adcl	$0, %edx	 #, PROF_edge_counter.4
 493 06fd A3600100 		movl	%eax, LPBX1+288	 # PROF_edge_counter.4, *LPBX1
 493      00
 494 0702 89156401 		movl	%edx, LPBX1+292	 # PROF_edge_counter.4, *LPBX1
 494      0000
 495 0708 8D442420 		leal	32(%esp), %eax	 #, tmp268
 496 070c 89442404 		movl	%eax, 4(%esp)	 # tmp268,
 497 0710 C7042400 		movl	$_test_heap, (%esp)	 #,
 497      000000
 498 0717 E8000000 		call	_chHeapStatus	 #
 498      00
 499 071c 89C1     		movl	%eax, %ecx	 #, D.2832
 500 071e A1680100 		movl	LPBX1+296, %eax	 # *LPBX1, PROF_edge_counter.4
 500      00
 501 0723 8B156C01 		movl	LPBX1+300, %edx	 # *LPBX1, PROF_edge_counter.4
 501      0000
 502 0729 83C001   		addl	$1, %eax	 #, PROF_edge_counter.4
 503 072c 83D200   		adcl	$0, %edx	 #, PROF_edge_counter.4
 504 072f A3680100 		movl	%eax, LPBX1+296	 # PROF_edge_counter.4, *LPBX1
 504      00
 505 0734 89156C01 		movl	%edx, LPBX1+300	 # PROF_edge_counter.4, *LPBX1
GAS LISTING C:\cygwin\tmp\ccHd38PY.s 			page 14


 505      0000
 506 073a 83F902   		cmpl	$2, %ecx	 #, D.2832
 507 073d 7523     		jne	L10	 #,
 508              	L9:
 509              		.loc 1 120 0 discriminator 1
 510 073f B9010000 		movl	$1, %ecx	 #, iftmp.0
 510      00
 511 0744 A1700100 		movl	LPBX1+304, %eax	 # *LPBX1, PROF_edge_counter.4
 511      00
 512 0749 8B157401 		movl	LPBX1+308, %edx	 # *LPBX1, PROF_edge_counter.4
 512      0000
 513 074f 83C001   		addl	$1, %eax	 #, PROF_edge_counter.4
 514 0752 83D200   		adcl	$0, %edx	 #, PROF_edge_counter.4
 515 0755 A3700100 		movl	%eax, LPBX1+304	 # PROF_edge_counter.4, *LPBX1
 515      00
 516 075a 89157401 		movl	%edx, LPBX1+308	 # PROF_edge_counter.4, *LPBX1
 516      0000
 517 0760 EB21     		jmp	L11	 #
 518              	L10:
 519              		.loc 1 120 0 discriminator 3
 520 0762 B9000000 		movl	$0, %ecx	 #, iftmp.0
 520      00
 521 0767 A1780100 		movl	LPBX1+312, %eax	 # *LPBX1, PROF_edge_counter.4
 521      00
 522 076c 8B157C01 		movl	LPBX1+316, %edx	 # *LPBX1, PROF_edge_counter.4
 522      0000
 523 0772 83C001   		addl	$1, %eax	 #, PROF_edge_counter.4
 524 0775 83D200   		adcl	$0, %edx	 #, PROF_edge_counter.4
 525 0778 A3780100 		movl	%eax, LPBX1+312	 # PROF_edge_counter.4, *LPBX1
 525      00
 526 077d 89157C01 		movl	%edx, LPBX1+316	 # PROF_edge_counter.4, *LPBX1
 526      0000
 527              	L11:
 528              		.loc 1 120 0 discriminator 4
 529 0783 88C8     		movb	%cl, %al	 # iftmp.0, D.2833
 530 0785 0FB6C0   		movzbl	%al, %eax	 # D.2833, D.2834
 531 0788 89442404 		movl	%eax, 4(%esp)	 # D.2834,
 532 078c C7042406 		movl	$6, (%esp)	 #,
 532      000000
 533 0793 E8000000 		call	__test_assert	 #
 533      00
 534 0798 84C0     		testb	%al, %al	 # D.2835
 535 079a 7421     		je	L12	 #,
 536              		.loc 1 120 0 discriminator 5
 537 079c A1880100 		movl	LPBX1+328, %eax	 # *LPBX1, PROF_edge_counter.4
 537      00
 538 07a1 8B158C01 		movl	LPBX1+332, %edx	 # *LPBX1, PROF_edge_counter.4
 538      0000
 539 07a7 83C001   		addl	$1, %eax	 #, PROF_edge_counter.4
 540 07aa 83D200   		adcl	$0, %edx	 #, PROF_edge_counter.4
 541 07ad A3880100 		movl	%eax, LPBX1+328	 # PROF_edge_counter.4, *LPBX1
 541      00
 542 07b2 89158C01 		movl	%edx, LPBX1+332	 # PROF_edge_counter.4, *LPBX1
 542      0000
 543 07b8 E9220500 		jmp	L2	 #
 543      00
 544              	L12:
GAS LISTING C:\cygwin\tmp\ccHd38PY.s 			page 15


 545              		.loc 1 120 0
 546 07bd A1800100 		movl	LPBX1+320, %eax	 # *LPBX1, PROF_edge_counter.4
 546      00
 547 07c2 8B158401 		movl	LPBX1+324, %edx	 # *LPBX1, PROF_edge_counter.4
 547      0000
 548 07c8 83C001   		addl	$1, %eax	 #, PROF_edge_counter.4
 549 07cb 83D200   		adcl	$0, %edx	 #, PROF_edge_counter.4
 550 07ce A3800100 		movl	%eax, LPBX1+320	 # PROF_edge_counter.4, *LPBX1
 550      00
 551 07d3 89158401 		movl	%edx, LPBX1+324	 # PROF_edge_counter.4, *LPBX1
 551      0000
 552              		.loc 1 122 0 is_stmt 1
 553 07d9 8B442428 		movl	40(%esp), %eax	 # p2, tmp269
 554 07dd 890424   		movl	%eax, (%esp)	 # tmp269,
 555 07e0 E8000000 		call	_chHeapFree	 #
 555      00
 556 07e5 A1900100 		movl	LPBX1+336, %eax	 # *LPBX1, PROF_edge_counter.4
 556      00
 557 07ea 8B159401 		movl	LPBX1+340, %edx	 # *LPBX1, PROF_edge_counter.4
 557      0000
 558 07f0 83C001   		addl	$1, %eax	 #, PROF_edge_counter.4
 559 07f3 83D200   		adcl	$0, %edx	 #, PROF_edge_counter.4
 560 07f6 A3900100 		movl	%eax, LPBX1+336	 # PROF_edge_counter.4, *LPBX1
 560      00
 561 07fb 89159401 		movl	%edx, LPBX1+340	 # PROF_edge_counter.4, *LPBX1
 561      0000
 562              		.loc 1 123 0
 563 0801 8B44242C 		movl	44(%esp), %eax	 # p1, tmp270
 564 0805 890424   		movl	%eax, (%esp)	 # tmp270,
 565 0808 E8000000 		call	_chHeapFree	 #
 565      00
 566 080d A1980100 		movl	LPBX1+344, %eax	 # *LPBX1, PROF_edge_counter.4
 566      00
 567 0812 8B159C01 		movl	LPBX1+348, %edx	 # *LPBX1, PROF_edge_counter.4
 567      0000
 568 0818 83C001   		addl	$1, %eax	 #, PROF_edge_counter.4
 569 081b 83D200   		adcl	$0, %edx	 #, PROF_edge_counter.4
 570 081e A3980100 		movl	%eax, LPBX1+344	 # PROF_edge_counter.4, *LPBX1
 570      00
 571 0823 89159C01 		movl	%edx, LPBX1+348	 # PROF_edge_counter.4, *LPBX1
 571      0000
 572              		.loc 1 124 0
 573 0829 8D442420 		leal	32(%esp), %eax	 #, tmp271
 574 082d 89442404 		movl	%eax, 4(%esp)	 # tmp271,
 575 0831 C7042400 		movl	$_test_heap, (%esp)	 #,
 575      000000
 576 0838 E8000000 		call	_chHeapStatus	 #
 576      00
 577 083d 89C1     		movl	%eax, %ecx	 #, D.2838
 578 083f A1A00100 		movl	LPBX1+352, %eax	 # *LPBX1, PROF_edge_counter.4
 578      00
 579 0844 8B15A401 		movl	LPBX1+356, %edx	 # *LPBX1, PROF_edge_counter.4
 579      0000
 580 084a 83C001   		addl	$1, %eax	 #, PROF_edge_counter.4
 581 084d 83D200   		adcl	$0, %edx	 #, PROF_edge_counter.4
 582 0850 A3A00100 		movl	%eax, LPBX1+352	 # PROF_edge_counter.4, *LPBX1
 582      00
GAS LISTING C:\cygwin\tmp\ccHd38PY.s 			page 16


 583 0855 8915A401 		movl	%edx, LPBX1+356	 # PROF_edge_counter.4, *LPBX1
 583      0000
 584 085b 83F901   		cmpl	$1, %ecx	 #, D.2838
 585 085e 0F94C0   		sete	%al	 #, tmp272
 586 0861 0FB6C0   		movzbl	%al, %eax	 # tmp272, D.2839
 587 0864 89442404 		movl	%eax, 4(%esp)	 # D.2839,
 588 0868 C7042407 		movl	$7, (%esp)	 #,
 588      000000
 589 086f E8000000 		call	__test_assert	 #
 589      00
 590 0874 84C0     		testb	%al, %al	 # D.2840
 591 0876 7421     		je	L13	 #,
 592              		.loc 1 124 0 is_stmt 0 discriminator 1
 593 0878 A1B00100 		movl	LPBX1+368, %eax	 # *LPBX1, PROF_edge_counter.4
 593      00
 594 087d 8B15B401 		movl	LPBX1+372, %edx	 # *LPBX1, PROF_edge_counter.4
 594      0000
 595 0883 83C001   		addl	$1, %eax	 #, PROF_edge_counter.4
 596 0886 83D200   		adcl	$0, %edx	 #, PROF_edge_counter.4
 597 0889 A3B00100 		movl	%eax, LPBX1+368	 # PROF_edge_counter.4, *LPBX1
 597      00
 598 088e 8915B401 		movl	%edx, LPBX1+372	 # PROF_edge_counter.4, *LPBX1
 598      0000
 599 0894 E9460400 		jmp	L2	 #
 599      00
 600              	L13:
 601              		.loc 1 124 0
 602 0899 A1A80100 		movl	LPBX1+360, %eax	 # *LPBX1, PROF_edge_counter.4
 602      00
 603 089e 8B15AC01 		movl	LPBX1+364, %edx	 # *LPBX1, PROF_edge_counter.4
 603      0000
 604 08a4 83C001   		addl	$1, %eax	 #, PROF_edge_counter.4
 605 08a7 83D200   		adcl	$0, %edx	 #, PROF_edge_counter.4
 606 08aa A3A80100 		movl	%eax, LPBX1+360	 # PROF_edge_counter.4, *LPBX1
 606      00
 607 08af 8915AC01 		movl	%edx, LPBX1+364	 # PROF_edge_counter.4, *LPBX1
 607      0000
 608              		.loc 1 127 0 is_stmt 1
 609 08b5 C7442404 		movl	$16, 4(%esp)	 #,
 609      10000000 
 610 08bd C7042400 		movl	$_test_heap, (%esp)	 #,
 610      000000
 611 08c4 E8000000 		call	_chHeapAlloc	 #
 611      00
 612 08c9 8944242C 		movl	%eax, 44(%esp)	 # tmp273, p1
 613 08cd A1B80100 		movl	LPBX1+376, %eax	 # *LPBX1, PROF_edge_counter.4
 613      00
 614 08d2 8B15BC01 		movl	LPBX1+380, %edx	 # *LPBX1, PROF_edge_counter.4
 614      0000
 615 08d8 83C001   		addl	$1, %eax	 #, PROF_edge_counter.4
 616 08db 83D200   		adcl	$0, %edx	 #, PROF_edge_counter.4
 617 08de A3B80100 		movl	%eax, LPBX1+376	 # PROF_edge_counter.4, *LPBX1
 617      00
 618 08e3 8915BC01 		movl	%edx, LPBX1+380	 # PROF_edge_counter.4, *LPBX1
 618      0000
 619              		.loc 1 128 0
 620 08e9 C7442404 		movl	$16, 4(%esp)	 #,
GAS LISTING C:\cygwin\tmp\ccHd38PY.s 			page 17


 620      10000000 
 621 08f1 C7042400 		movl	$_test_heap, (%esp)	 #,
 621      000000
 622 08f8 E8000000 		call	_chHeapAlloc	 #
 622      00
 623 08fd 89442428 		movl	%eax, 40(%esp)	 # tmp274, p2
 624 0901 A1C00100 		movl	LPBX1+384, %eax	 # *LPBX1, PROF_edge_counter.4
 624      00
 625 0906 8B15C401 		movl	LPBX1+388, %edx	 # *LPBX1, PROF_edge_counter.4
 625      0000
 626 090c 83C001   		addl	$1, %eax	 #, PROF_edge_counter.4
 627 090f 83D200   		adcl	$0, %edx	 #, PROF_edge_counter.4
 628 0912 A3C00100 		movl	%eax, LPBX1+384	 # PROF_edge_counter.4, *LPBX1
 628      00
 629 0917 8915C401 		movl	%edx, LPBX1+388	 # PROF_edge_counter.4, *LPBX1
 629      0000
 630              		.loc 1 129 0
 631 091d 8B44242C 		movl	44(%esp), %eax	 # p1, tmp275
 632 0921 890424   		movl	%eax, (%esp)	 # tmp275,
 633 0924 E8000000 		call	_chHeapFree	 #
 633      00
 634 0929 A1C80100 		movl	LPBX1+392, %eax	 # *LPBX1, PROF_edge_counter.4
 634      00
 635 092e 8B15CC01 		movl	LPBX1+396, %edx	 # *LPBX1, PROF_edge_counter.4
 635      0000
 636 0934 83C001   		addl	$1, %eax	 #, PROF_edge_counter.4
 637 0937 83D200   		adcl	$0, %edx	 #, PROF_edge_counter.4
 638 093a A3C80100 		movl	%eax, LPBX1+392	 # PROF_edge_counter.4, *LPBX1
 638      00
 639 093f 8915CC01 		movl	%edx, LPBX1+396	 # PROF_edge_counter.4, *LPBX1
 639      0000
 640              		.loc 1 130 0
 641 0945 8D442420 		leal	32(%esp), %eax	 #, tmp276
 642 0949 89442404 		movl	%eax, 4(%esp)	 # tmp276,
 643 094d C7042400 		movl	$_test_heap, (%esp)	 #,
 643      000000
 644 0954 E8000000 		call	_chHeapStatus	 #
 644      00
 645 0959 89C1     		movl	%eax, %ecx	 #, D.2843
 646 095b A1D00100 		movl	LPBX1+400, %eax	 # *LPBX1, PROF_edge_counter.4
 646      00
 647 0960 8B15D401 		movl	LPBX1+404, %edx	 # *LPBX1, PROF_edge_counter.4
 647      0000
 648 0966 83C001   		addl	$1, %eax	 #, PROF_edge_counter.4
 649 0969 83D200   		adcl	$0, %edx	 #, PROF_edge_counter.4
 650 096c A3D00100 		movl	%eax, LPBX1+400	 # PROF_edge_counter.4, *LPBX1
 650      00
 651 0971 8915D401 		movl	%edx, LPBX1+404	 # PROF_edge_counter.4, *LPBX1
 651      0000
 652 0977 83F902   		cmpl	$2, %ecx	 #, D.2843
 653 097a 0F94C0   		sete	%al	 #, tmp277
 654 097d 0FB6C0   		movzbl	%al, %eax	 # tmp277, D.2844
 655 0980 89442404 		movl	%eax, 4(%esp)	 # D.2844,
 656 0984 C7042408 		movl	$8, (%esp)	 #,
 656      000000
 657 098b E8000000 		call	__test_assert	 #
 657      00
GAS LISTING C:\cygwin\tmp\ccHd38PY.s 			page 18


 658 0990 84C0     		testb	%al, %al	 # D.2845
 659 0992 7421     		je	L14	 #,
 660              		.loc 1 130 0 is_stmt 0 discriminator 1
 661 0994 A1E00100 		movl	LPBX1+416, %eax	 # *LPBX1, PROF_edge_counter.4
 661      00
 662 0999 8B15E401 		movl	LPBX1+420, %edx	 # *LPBX1, PROF_edge_counter.4
 662      0000
 663 099f 83C001   		addl	$1, %eax	 #, PROF_edge_counter.4
 664 09a2 83D200   		adcl	$0, %edx	 #, PROF_edge_counter.4
 665 09a5 A3E00100 		movl	%eax, LPBX1+416	 # PROF_edge_counter.4, *LPBX1
 665      00
 666 09aa 8915E401 		movl	%edx, LPBX1+420	 # PROF_edge_counter.4, *LPBX1
 666      0000
 667 09b0 E92A0300 		jmp	L2	 #
 667      00
 668              	L14:
 669              		.loc 1 130 0
 670 09b5 A1D80100 		movl	LPBX1+408, %eax	 # *LPBX1, PROF_edge_counter.4
 670      00
 671 09ba 8B15DC01 		movl	LPBX1+412, %edx	 # *LPBX1, PROF_edge_counter.4
 671      0000
 672 09c0 83C001   		addl	$1, %eax	 #, PROF_edge_counter.4
 673 09c3 83D200   		adcl	$0, %edx	 #, PROF_edge_counter.4
 674 09c6 A3D80100 		movl	%eax, LPBX1+408	 # PROF_edge_counter.4, *LPBX1
 674      00
 675 09cb 8915DC01 		movl	%edx, LPBX1+412	 # PROF_edge_counter.4, *LPBX1
 675      0000
 676              		.loc 1 131 0 is_stmt 1
 677 09d1 C7442404 		movl	$32, 4(%esp)	 #,
 677      20000000 
 678 09d9 C7042400 		movl	$_test_heap, (%esp)	 #,
 678      000000
 679 09e0 E8000000 		call	_chHeapAlloc	 #
 679      00
 680 09e5 8944242C 		movl	%eax, 44(%esp)	 # tmp278, p1
 681 09e9 A1E80100 		movl	LPBX1+424, %eax	 # *LPBX1, PROF_edge_counter.4
 681      00
 682 09ee 8B15EC01 		movl	LPBX1+428, %edx	 # *LPBX1, PROF_edge_counter.4
 682      0000
 683 09f4 83C001   		addl	$1, %eax	 #, PROF_edge_counter.4
 684 09f7 83D200   		adcl	$0, %edx	 #, PROF_edge_counter.4
 685 09fa A3E80100 		movl	%eax, LPBX1+424	 # PROF_edge_counter.4, *LPBX1
 685      00
 686 09ff 8915EC01 		movl	%edx, LPBX1+428	 # PROF_edge_counter.4, *LPBX1
 686      0000
 687              		.loc 1 132 0
 688 0a05 8B44242C 		movl	44(%esp), %eax	 # p1, tmp279
 689 0a09 890424   		movl	%eax, (%esp)	 # tmp279,
 690 0a0c E8000000 		call	_chHeapFree	 #
 690      00
 691 0a11 A1F00100 		movl	LPBX1+432, %eax	 # *LPBX1, PROF_edge_counter.4
 691      00
 692 0a16 8B15F401 		movl	LPBX1+436, %edx	 # *LPBX1, PROF_edge_counter.4
 692      0000
 693 0a1c 83C001   		addl	$1, %eax	 #, PROF_edge_counter.4
 694 0a1f 83D200   		adcl	$0, %edx	 #, PROF_edge_counter.4
 695 0a22 A3F00100 		movl	%eax, LPBX1+432	 # PROF_edge_counter.4, *LPBX1
GAS LISTING C:\cygwin\tmp\ccHd38PY.s 			page 19


 695      00
 696 0a27 8915F401 		movl	%edx, LPBX1+436	 # PROF_edge_counter.4, *LPBX1
 696      0000
 697              		.loc 1 133 0
 698 0a2d 8B442428 		movl	40(%esp), %eax	 # p2, tmp280
 699 0a31 890424   		movl	%eax, (%esp)	 # tmp280,
 700 0a34 E8000000 		call	_chHeapFree	 #
 700      00
 701 0a39 A1F80100 		movl	LPBX1+440, %eax	 # *LPBX1, PROF_edge_counter.4
 701      00
 702 0a3e 8B15FC01 		movl	LPBX1+444, %edx	 # *LPBX1, PROF_edge_counter.4
 702      0000
 703 0a44 83C001   		addl	$1, %eax	 #, PROF_edge_counter.4
 704 0a47 83D200   		adcl	$0, %edx	 #, PROF_edge_counter.4
 705 0a4a A3F80100 		movl	%eax, LPBX1+440	 # PROF_edge_counter.4, *LPBX1
 705      00
 706 0a4f 8915FC01 		movl	%edx, LPBX1+444	 # PROF_edge_counter.4, *LPBX1
 706      0000
 707              		.loc 1 134 0
 708 0a55 8D442420 		leal	32(%esp), %eax	 #, tmp281
 709 0a59 89442404 		movl	%eax, 4(%esp)	 # tmp281,
 710 0a5d C7042400 		movl	$_test_heap, (%esp)	 #,
 710      000000
 711 0a64 E8000000 		call	_chHeapStatus	 #
 711      00
 712 0a69 89C1     		movl	%eax, %ecx	 #, D.2848
 713 0a6b A1000200 		movl	LPBX1+448, %eax	 # *LPBX1, PROF_edge_counter.4
 713      00
 714 0a70 8B150402 		movl	LPBX1+452, %edx	 # *LPBX1, PROF_edge_counter.4
 714      0000
 715 0a76 83C001   		addl	$1, %eax	 #, PROF_edge_counter.4
 716 0a79 83D200   		adcl	$0, %edx	 #, PROF_edge_counter.4
 717 0a7c A3000200 		movl	%eax, LPBX1+448	 # PROF_edge_counter.4, *LPBX1
 717      00
 718 0a81 89150402 		movl	%edx, LPBX1+452	 # PROF_edge_counter.4, *LPBX1
 718      0000
 719 0a87 83F901   		cmpl	$1, %ecx	 #, D.2848
 720 0a8a 0F94C0   		sete	%al	 #, tmp282
 721 0a8d 0FB6C0   		movzbl	%al, %eax	 # tmp282, D.2849
 722 0a90 89442404 		movl	%eax, 4(%esp)	 # D.2849,
 723 0a94 C7042409 		movl	$9, (%esp)	 #,
 723      000000
 724 0a9b E8000000 		call	__test_assert	 #
 724      00
 725 0aa0 84C0     		testb	%al, %al	 # D.2850
 726 0aa2 7421     		je	L15	 #,
 727              		.loc 1 134 0 is_stmt 0 discriminator 1
 728 0aa4 A1100200 		movl	LPBX1+464, %eax	 # *LPBX1, PROF_edge_counter.4
 728      00
 729 0aa9 8B151402 		movl	LPBX1+468, %edx	 # *LPBX1, PROF_edge_counter.4
 729      0000
 730 0aaf 83C001   		addl	$1, %eax	 #, PROF_edge_counter.4
 731 0ab2 83D200   		adcl	$0, %edx	 #, PROF_edge_counter.4
 732 0ab5 A3100200 		movl	%eax, LPBX1+464	 # PROF_edge_counter.4, *LPBX1
 732      00
 733 0aba 89151402 		movl	%edx, LPBX1+468	 # PROF_edge_counter.4, *LPBX1
 733      0000
GAS LISTING C:\cygwin\tmp\ccHd38PY.s 			page 20


 734 0ac0 E91A0200 		jmp	L2	 #
 734      00
 735              	L15:
 736              		.loc 1 134 0
 737 0ac5 A1080200 		movl	LPBX1+456, %eax	 # *LPBX1, PROF_edge_counter.4
 737      00
 738 0aca 8B150C02 		movl	LPBX1+460, %edx	 # *LPBX1, PROF_edge_counter.4
 738      0000
 739 0ad0 83C001   		addl	$1, %eax	 #, PROF_edge_counter.4
 740 0ad3 83D200   		adcl	$0, %edx	 #, PROF_edge_counter.4
 741 0ad6 A3080200 		movl	%eax, LPBX1+456	 # PROF_edge_counter.4, *LPBX1
 741      00
 742 0adb 89150C02 		movl	%edx, LPBX1+460	 # PROF_edge_counter.4, *LPBX1
 742      0000
 743              		.loc 1 137 0 is_stmt 1
 744 0ae1 8D442420 		leal	32(%esp), %eax	 #, tmp283
 745 0ae5 89442404 		movl	%eax, 4(%esp)	 # tmp283,
 746 0ae9 C7042400 		movl	$_test_heap, (%esp)	 #,
 746      000000
 747 0af0 E8000000 		call	_chHeapStatus	 #
 747      00
 748 0af5 A1180200 		movl	LPBX1+472, %eax	 # *LPBX1, PROF_edge_counter.4
 748      00
 749 0afa 8B151C02 		movl	LPBX1+476, %edx	 # *LPBX1, PROF_edge_counter.4
 749      0000
 750 0b00 83C001   		addl	$1, %eax	 #, PROF_edge_counter.4
 751 0b03 83D200   		adcl	$0, %edx	 #, PROF_edge_counter.4
 752 0b06 A3180200 		movl	%eax, LPBX1+472	 # PROF_edge_counter.4, *LPBX1
 752      00
 753 0b0b 89151C02 		movl	%edx, LPBX1+476	 # PROF_edge_counter.4, *LPBX1
 753      0000
 754              		.loc 1 138 0
 755 0b11 8B442420 		movl	32(%esp), %eax	 # n, n.1
 756 0b15 89442404 		movl	%eax, 4(%esp)	 # n.1,
 757 0b19 C7042400 		movl	$_test_heap, (%esp)	 #,
 757      000000
 758 0b20 E8000000 		call	_chHeapAlloc	 #
 758      00
 759 0b25 8944242C 		movl	%eax, 44(%esp)	 # tmp284, p1
 760 0b29 A1200200 		movl	LPBX1+480, %eax	 # *LPBX1, PROF_edge_counter.4
 760      00
 761 0b2e 8B152402 		movl	LPBX1+484, %edx	 # *LPBX1, PROF_edge_counter.4
 761      0000
 762 0b34 83C001   		addl	$1, %eax	 #, PROF_edge_counter.4
 763 0b37 83D200   		adcl	$0, %edx	 #, PROF_edge_counter.4
 764 0b3a A3200200 		movl	%eax, LPBX1+480	 # PROF_edge_counter.4, *LPBX1
 764      00
 765 0b3f 89152402 		movl	%edx, LPBX1+484	 # PROF_edge_counter.4, *LPBX1
 765      0000
 766              		.loc 1 139 0
 767 0b45 8D442420 		leal	32(%esp), %eax	 #, tmp285
 768 0b49 89442404 		movl	%eax, 4(%esp)	 # tmp285,
 769 0b4d C7042400 		movl	$_test_heap, (%esp)	 #,
 769      000000
 770 0b54 E8000000 		call	_chHeapStatus	 #
 770      00
 771 0b59 89C1     		movl	%eax, %ecx	 #, D.2854
GAS LISTING C:\cygwin\tmp\ccHd38PY.s 			page 21


 772 0b5b A1280200 		movl	LPBX1+488, %eax	 # *LPBX1, PROF_edge_counter.4
 772      00
 773 0b60 8B152C02 		movl	LPBX1+492, %edx	 # *LPBX1, PROF_edge_counter.4
 773      0000
 774 0b66 83C001   		addl	$1, %eax	 #, PROF_edge_counter.4
 775 0b69 83D200   		adcl	$0, %edx	 #, PROF_edge_counter.4
 776 0b6c A3280200 		movl	%eax, LPBX1+488	 # PROF_edge_counter.4, *LPBX1
 776      00
 777 0b71 89152C02 		movl	%edx, LPBX1+492	 # PROF_edge_counter.4, *LPBX1
 777      0000
 778 0b77 85C9     		testl	%ecx, %ecx	 # D.2854
 779 0b79 0F94C0   		sete	%al	 #, tmp286
 780 0b7c 0FB6C0   		movzbl	%al, %eax	 # tmp286, D.2855
 781 0b7f 89442404 		movl	%eax, 4(%esp)	 # D.2855,
 782 0b83 C704240A 		movl	$10, (%esp)	 #,
 782      000000
 783 0b8a E8000000 		call	__test_assert	 #
 783      00
 784 0b8f 84C0     		testb	%al, %al	 # D.2856
 785 0b91 7421     		je	L16	 #,
 786              		.loc 1 139 0 is_stmt 0 discriminator 1
 787 0b93 A1380200 		movl	LPBX1+504, %eax	 # *LPBX1, PROF_edge_counter.4
 787      00
 788 0b98 8B153C02 		movl	LPBX1+508, %edx	 # *LPBX1, PROF_edge_counter.4
 788      0000
 789 0b9e 83C001   		addl	$1, %eax	 #, PROF_edge_counter.4
 790 0ba1 83D200   		adcl	$0, %edx	 #, PROF_edge_counter.4
 791 0ba4 A3380200 		movl	%eax, LPBX1+504	 # PROF_edge_counter.4, *LPBX1
 791      00
 792 0ba9 89153C02 		movl	%edx, LPBX1+508	 # PROF_edge_counter.4, *LPBX1
 792      0000
 793 0baf E92B0100 		jmp	L2	 #
 793      00
 794              	L16:
 795              		.loc 1 139 0
 796 0bb4 A1300200 		movl	LPBX1+496, %eax	 # *LPBX1, PROF_edge_counter.4
 796      00
 797 0bb9 8B153402 		movl	LPBX1+500, %edx	 # *LPBX1, PROF_edge_counter.4
 797      0000
 798 0bbf 83C001   		addl	$1, %eax	 #, PROF_edge_counter.4
 799 0bc2 83D200   		adcl	$0, %edx	 #, PROF_edge_counter.4
 800 0bc5 A3300200 		movl	%eax, LPBX1+496	 # PROF_edge_counter.4, *LPBX1
 800      00
 801 0bca 89153402 		movl	%edx, LPBX1+500	 # PROF_edge_counter.4, *LPBX1
 801      0000
 802              		.loc 1 140 0 is_stmt 1
 803 0bd0 8B44242C 		movl	44(%esp), %eax	 # p1, tmp287
 804 0bd4 890424   		movl	%eax, (%esp)	 # tmp287,
 805 0bd7 E8000000 		call	_chHeapFree	 #
 805      00
 806 0bdc A1400200 		movl	LPBX1+512, %eax	 # *LPBX1, PROF_edge_counter.4
 806      00
 807 0be1 8B154402 		movl	LPBX1+516, %edx	 # *LPBX1, PROF_edge_counter.4
 807      0000
 808 0be7 83C001   		addl	$1, %eax	 #, PROF_edge_counter.4
 809 0bea 83D200   		adcl	$0, %edx	 #, PROF_edge_counter.4
 810 0bed A3400200 		movl	%eax, LPBX1+512	 # PROF_edge_counter.4, *LPBX1
GAS LISTING C:\cygwin\tmp\ccHd38PY.s 			page 22


 810      00
 811 0bf2 89154402 		movl	%edx, LPBX1+516	 # PROF_edge_counter.4, *LPBX1
 811      0000
 812              		.loc 1 142 0
 813 0bf8 8D442420 		leal	32(%esp), %eax	 #, tmp288
 814 0bfc 89442404 		movl	%eax, 4(%esp)	 # tmp288,
 815 0c00 C7042400 		movl	$_test_heap, (%esp)	 #,
 815      000000
 816 0c07 E8000000 		call	_chHeapStatus	 #
 816      00
 817 0c0c 89C1     		movl	%eax, %ecx	 #, D.2859
 818 0c0e A1480200 		movl	LPBX1+520, %eax	 # *LPBX1, PROF_edge_counter.4
 818      00
 819 0c13 8B154C02 		movl	LPBX1+524, %edx	 # *LPBX1, PROF_edge_counter.4
 819      0000
 820 0c19 83C001   		addl	$1, %eax	 #, PROF_edge_counter.4
 821 0c1c 83D200   		adcl	$0, %edx	 #, PROF_edge_counter.4
 822 0c1f A3480200 		movl	%eax, LPBX1+520	 # PROF_edge_counter.4, *LPBX1
 822      00
 823 0c24 89154C02 		movl	%edx, LPBX1+524	 # PROF_edge_counter.4, *LPBX1
 823      0000
 824 0c2a 83F901   		cmpl	$1, %ecx	 #, D.2859
 825 0c2d 0F94C0   		sete	%al	 #, tmp289
 826 0c30 0FB6C0   		movzbl	%al, %eax	 # tmp289, D.2860
 827 0c33 89442404 		movl	%eax, 4(%esp)	 # D.2860,
 828 0c37 C704240B 		movl	$11, (%esp)	 #,
 828      000000
 829 0c3e E8000000 		call	__test_assert	 #
 829      00
 830 0c43 84C0     		testb	%al, %al	 # D.2861
 831 0c45 741E     		je	L17	 #,
 832              		.loc 1 142 0 is_stmt 0 discriminator 1
 833 0c47 A1580200 		movl	LPBX1+536, %eax	 # *LPBX1, PROF_edge_counter.4
 833      00
 834 0c4c 8B155C02 		movl	LPBX1+540, %edx	 # *LPBX1, PROF_edge_counter.4
 834      0000
 835 0c52 83C001   		addl	$1, %eax	 #, PROF_edge_counter.4
 836 0c55 83D200   		adcl	$0, %edx	 #, PROF_edge_counter.4
 837 0c58 A3580200 		movl	%eax, LPBX1+536	 # PROF_edge_counter.4, *LPBX1
 837      00
 838 0c5d 89155C02 		movl	%edx, LPBX1+540	 # PROF_edge_counter.4, *LPBX1
 838      0000
 839 0c63 EB7A     		jmp	L2	 #
 840              	L17:
 841              		.loc 1 142 0
 842 0c65 A1500200 		movl	LPBX1+528, %eax	 # *LPBX1, PROF_edge_counter.4
 842      00
 843 0c6a 8B155402 		movl	LPBX1+532, %edx	 # *LPBX1, PROF_edge_counter.4
 843      0000
 844 0c70 83C001   		addl	$1, %eax	 #, PROF_edge_counter.4
 845 0c73 83D200   		adcl	$0, %edx	 #, PROF_edge_counter.4
 846 0c76 A3500200 		movl	%eax, LPBX1+528	 # PROF_edge_counter.4, *LPBX1
 846      00
 847 0c7b 89155402 		movl	%edx, LPBX1+532	 # PROF_edge_counter.4, *LPBX1
 847      0000
 848              		.loc 1 143 0 is_stmt 1
 849 0c81 8B542420 		movl	32(%esp), %edx	 # n, n.2
GAS LISTING C:\cygwin\tmp\ccHd38PY.s 			page 23


 850 0c85 8B44241C 		movl	28(%esp), %eax	 # sz, sz.3
 851 0c89 39C2     		cmpl	%eax, %edx	 # sz.3, n.2
 852 0c8b 0F94C0   		sete	%al	 #, tmp290
 853 0c8e 0FB6C0   		movzbl	%al, %eax	 # tmp290, D.2866
 854 0c91 89442404 		movl	%eax, 4(%esp)	 # D.2866,
 855 0c95 C704240C 		movl	$12, (%esp)	 #,
 855      000000
 856 0c9c E8000000 		call	__test_assert	 #
 856      00
 857 0ca1 88C1     		movb	%al, %cl	 #, D.2867
 858 0ca3 A1600200 		movl	LPBX1+544, %eax	 # *LPBX1, PROF_edge_counter.4
 858      00
 859 0ca8 8B156402 		movl	LPBX1+548, %edx	 # *LPBX1, PROF_edge_counter.4
 859      0000
 860 0cae 83C001   		addl	$1, %eax	 #, PROF_edge_counter.4
 861 0cb1 83D200   		adcl	$0, %edx	 #, PROF_edge_counter.4
 862 0cb4 A3600200 		movl	%eax, LPBX1+544	 # PROF_edge_counter.4, *LPBX1
 862      00
 863 0cb9 89156402 		movl	%edx, LPBX1+548	 # PROF_edge_counter.4, *LPBX1
 863      0000
 864 0cbf 84C9     		testb	%cl, %cl	 # D.2867
 865 0cc1 741C     		je	L2	 #,
 866              		.loc 1 143 0 is_stmt 0 discriminator 1
 867 0cc3 A1680200 		movl	LPBX1+552, %eax	 # *LPBX1, PROF_edge_counter.4
 867      00
 868 0cc8 8B156C02 		movl	LPBX1+556, %edx	 # *LPBX1, PROF_edge_counter.4
 868      0000
 869 0cce 83C001   		addl	$1, %eax	 #, PROF_edge_counter.4
 870 0cd1 83D200   		adcl	$0, %edx	 #, PROF_edge_counter.4
 871 0cd4 A3680200 		movl	%eax, LPBX1+552	 # PROF_edge_counter.4, *LPBX1
 871      00
 872 0cd9 89156C02 		movl	%edx, LPBX1+556	 # PROF_edge_counter.4, *LPBX1
 872      0000
 873              	L2:
 874              		.loc 1 144 0 is_stmt 1
 875 0cdf 83C43C   		addl	$60, %esp	 #,
 876              	LCFI3:
 877              		.cfi_def_cfa_offset 4
 878 0ce2 C3       		ret
 879              		.cfi_endproc
 880              	LFE1:
 881              		.globl	_testheap1
 882              		.section .rdata,"dr"
 883              		.align 4
 884              	LC0:
 885 0000 48656170 		.ascii "Heap, allocation and fragmentation test\0"
 885      2C20616C 
 885      6C6F6361 
 885      74696F6E 
 885      20616E64 
 886              		.align 4
 887              	_testheap1:
 888              	 # name:
 889 0028 00000000 		.long	LC0
 890              	 # setup:
 891 002c 00000000 		.long	_heap1_setup
 892              	 # teardown:
GAS LISTING C:\cygwin\tmp\ccHd38PY.s 			page 24


 893 0030 00000000 		.long	0
 894              	 # execute:
 895 0034 5B000000 		.long	_heap1_execute
 896              		.globl	_patternheap
 897              		.align 4
 898              	_patternheap:
 899 0038 28000000 		.long	_testheap1
 900 003c 00000000 		.long	0
 901              	.lcomm LPBX1,576,32
 902              		.align 4
 903              	LC1:
 904 0040 433A5C64 		.ascii "C:\\develop\\gyro\\ChibiOS\\test\\coverage/../../test/testheap.gcda\0"
 904      6576656C 
 904      6F705C67 
 904      79726F5C 
 904      43686962 
 905 007f 00       		.data
 906              		.align 4
 907              	LC2:
 908              	 # <anonymous>:
 909 0000 02000000 		.long	2
 910              	 # <anonymous>:
 911 0004 2F5B445B 		.long	1531206447
 912              	 # <anonymous>:
 913 0008 46000000 		.long	70
 914              	 # <anonymous>:
 915 000c 01000000 		.long	1
 916              	 # <anonymous>:
 917 0010 C694FDCB 		.long	-872573754
 918              	 # <anonymous>:
 919 0014 02000000 		.long	2
 920 0018 00000000 		.align 32
 920      00000000 
 921              	LPBX0:
 922              	 # <anonymous>:
 923 0020 2A363034 		.long	875574826
 924              	 # <anonymous>:
 925 0024 00000000 		.long	0
 926              	 # <anonymous>:
 927 0028 34377060 		.long	1617966900
 928              	 # <anonymous>:
 929 002c 40000000 		.long	LC1
 930              	 # <anonymous>:
 931 0030 02000000 		.long	2
 932              	 # <anonymous>:
 933 0034 00000000 		.long	LC2
 934              	 # <anonymous>:
 935 0038 01000000 		.long	1
 936              	 # <anonymous>:
 937              	 # <anonymous>:
 938 003c 48000000 		.long	72
 939              	 # <anonymous>:
 940 0040 40000000 		.long	LPBX1
 941              	 # <anonymous>:
 942 0044 00000000 		.long	___gcov_merge_add
 943 0048 00000000 		.space 12
 943      00000000 
GAS LISTING C:\cygwin\tmp\ccHd38PY.s 			page 25


 943      00000000 
 944 0054 00000000 		.text
 944      00000000 
 944      00000000 
 945              		.def	__GLOBAL__sub_I_65535_0_testheap1;	.scl	3;	.type	32;	.endef
 946              	__GLOBAL__sub_I_65535_0_testheap1:
 947              	LFB2:
 948              		.loc 1 163 0
 949              		.cfi_startproc
 950 0ce3 83EC1C   		subl	$28, %esp	 #,
 951              	LCFI4:
 952              		.cfi_def_cfa_offset 32
 953              		.loc 1 163 0
 954 0ce6 C7042420 		movl	$LPBX0, (%esp)	 #,
 954      000000
 955 0ced E8000000 		call	___gcov_init	 #
 955      00
 956 0cf2 83C41C   		addl	$28, %esp	 #,
 957              	LCFI5:
 958              		.cfi_def_cfa_offset 4
 959 0cf5 C3       		ret
 960              		.cfi_endproc
 961              	LFE2:
 962              		.section	.ctors,"w"
 963              		.align 4
 964 0000 E30C0000 		.long	__GLOBAL__sub_I_65535_0_testheap1
 965              		.text
 966              	Letext0:
 967              		.file 2 "c:/mingw/bin/../lib/gcc/mingw32/4.6.2/include/stddef.h"
 968              		.file 3 "c:/mingw/bin/../lib/gcc/mingw32/4.6.2/../../../../include/stdint.h"
 969              		.file 4 "../../os/ports/GCC/SIMIA32/chtypes.h"
 970              		.file 5 "../../os/kernel/include/chlists.h"
 971              		.file 6 "../../os/kernel/include/chthreads.h"
 972              		.file 7 "../../os/ports/GCC/SIMIA32/chcore.h"
 973              		.file 8 "../../os/kernel/include/chmtx.h"
 974              		.file 9 "../../os/kernel/include/chmemcore.h"
 975              		.file 10 "../../os/kernel/include/chheap.h"
 976              		.file 11 "../../test/test.h"
 977 0cf6 9090     		.section	.debug_info,"dr"
 978              	Ldebug_info0:
 979 0000 5C080000 		.long	0x85c
 980 0004 0200     		.word	0x2
 981 0006 00000000 		.secrel32	Ldebug_abbrev0
 982 000a 04       		.byte	0x4
 983 000b 01       		.uleb128 0x1
 984 000c 474E5520 		.ascii "GNU C 4.6.2\0"
 984      4320342E 
 984      362E3200 
 985 0018 01       		.byte	0x1
 986 0019 2E2E2F2E 		.ascii "../../test/testheap.c\0"
 986      2E2F7465 
 986      73742F74 
 986      65737468 
 986      6561702E 
 987 002f 433A5C64 		.ascii "C:\\develop\\gyro\\ChibiOS\\test\\coverage\0"
 987      6576656C 
 987      6F705C67 
GAS LISTING C:\cygwin\tmp\ccHd38PY.s 			page 26


 987      79726F5C 
 987      43686962 
 988 0055 00000000 		.long	Ltext0
 989 0059 F60C0000 		.long	Letext0
 990 005d 00000000 		.secrel32	Ldebug_line0
 991 0061 02       		.uleb128 0x2
 992 0062 04       		.byte	0x4
 993 0063 05       		.byte	0x5
 994 0064 696E7400 		.ascii "int\0"
 995 0068 03       		.uleb128 0x3
 996 0069 73697A65 		.ascii "size_t\0"
 996      5F7400
 997 0070 02       		.byte	0x2
 998 0071 D4       		.byte	0xd4
 999 0072 76000000 		.long	0x76
 1000 0076 02       		.uleb128 0x2
 1001 0077 04       		.byte	0x4
 1002 0078 07       		.byte	0x7
 1003 0079 756E7369 		.ascii "unsigned int\0"
 1003      676E6564 
 1003      20696E74 
 1003      00
 1004 0086 02       		.uleb128 0x2
 1005 0087 02       		.byte	0x2
 1006 0088 07       		.byte	0x7
 1007 0089 73686F72 		.ascii "short unsigned int\0"
 1007      7420756E 
 1007      7369676E 
 1007      65642069 
 1007      6E7400
 1008 009c 02       		.uleb128 0x2
 1009 009d 01       		.byte	0x1
 1010 009e 06       		.byte	0x6
 1011 009f 7369676E 		.ascii "signed char\0"
 1011      65642063 
 1011      68617200 
 1012 00ab 03       		.uleb128 0x3
 1013 00ac 75696E74 		.ascii "uint8_t\0"
 1013      385F7400 
 1014 00b4 03       		.byte	0x3
 1015 00b5 1C       		.byte	0x1c
 1016 00b6 BA000000 		.long	0xba
 1017 00ba 02       		.uleb128 0x2
 1018 00bb 01       		.byte	0x1
 1019 00bc 08       		.byte	0x8
 1020 00bd 756E7369 		.ascii "unsigned char\0"
 1020      676E6564 
 1020      20636861 
 1020      7200
 1021 00cb 02       		.uleb128 0x2
 1022 00cc 02       		.byte	0x2
 1023 00cd 05       		.byte	0x5
 1024 00ce 73686F72 		.ascii "short int\0"
 1024      7420696E 
 1024      7400
 1025 00d8 03       		.uleb128 0x3
 1026 00d9 696E7433 		.ascii "int32_t\0"
GAS LISTING C:\cygwin\tmp\ccHd38PY.s 			page 27


 1026      325F7400 
 1027 00e1 03       		.byte	0x3
 1028 00e2 1F       		.byte	0x1f
 1029 00e3 61000000 		.long	0x61
 1030 00e7 03       		.uleb128 0x3
 1031 00e8 75696E74 		.ascii "uint32_t\0"
 1031      33325F74 
 1031      00
 1032 00f1 03       		.byte	0x3
 1033 00f2 20       		.byte	0x20
 1034 00f3 76000000 		.long	0x76
 1035 00f7 02       		.uleb128 0x2
 1036 00f8 08       		.byte	0x8
 1037 00f9 05       		.byte	0x5
 1038 00fa 6C6F6E67 		.ascii "long long int\0"
 1038      206C6F6E 
 1038      6720696E 
 1038      7400
 1039 0108 02       		.uleb128 0x2
 1040 0109 08       		.byte	0x8
 1041 010a 07       		.byte	0x7
 1042 010b 6C6F6E67 		.ascii "long long unsigned int\0"
 1042      206C6F6E 
 1042      6720756E 
 1042      7369676E 
 1042      65642069 
 1043 0122 02       		.uleb128 0x2
 1044 0123 01       		.byte	0x1
 1045 0124 02       		.byte	0x2
 1046 0125 5F426F6F 		.ascii "_Bool\0"
 1046      6C00
 1047 012b 03       		.uleb128 0x3
 1048 012c 746D6F64 		.ascii "tmode_t\0"
 1048      655F7400 
 1049 0134 04       		.byte	0x4
 1050 0135 1D       		.byte	0x1d
 1051 0136 AB000000 		.long	0xab
 1052 013a 03       		.uleb128 0x3
 1053 013b 74737461 		.ascii "tstate_t\0"
 1053      74655F74 
 1053      00
 1054 0144 04       		.byte	0x4
 1055 0145 1E       		.byte	0x1e
 1056 0146 AB000000 		.long	0xab
 1057 014a 03       		.uleb128 0x3
 1058 014b 74726566 		.ascii "trefs_t\0"
 1058      735F7400 
 1059 0153 04       		.byte	0x4
 1060 0154 1F       		.byte	0x1f
 1061 0155 AB000000 		.long	0xab
 1062 0159 03       		.uleb128 0x3
 1063 015a 74736C69 		.ascii "tslices_t\0"
 1063      6365735F 
 1063      7400
 1064 0164 04       		.byte	0x4
 1065 0165 20       		.byte	0x20
 1066 0166 AB000000 		.long	0xab
GAS LISTING C:\cygwin\tmp\ccHd38PY.s 			page 28


 1067 016a 03       		.uleb128 0x3
 1068 016b 74707269 		.ascii "tprio_t\0"
 1068      6F5F7400 
 1069 0173 04       		.byte	0x4
 1070 0174 21       		.byte	0x21
 1071 0175 E7000000 		.long	0xe7
 1072 0179 03       		.uleb128 0x3
 1073 017a 6D73675F 		.ascii "msg_t\0"
 1073      7400
 1074 0180 04       		.byte	0x4
 1075 0181 22       		.byte	0x22
 1076 0182 D8000000 		.long	0xd8
 1077 0186 03       		.uleb128 0x3
 1078 0187 6576656E 		.ascii "eventmask_t\0"
 1078      746D6173 
 1078      6B5F7400 
 1079 0193 04       		.byte	0x4
 1080 0194 24       		.byte	0x24
 1081 0195 E7000000 		.long	0xe7
 1082 0199 03       		.uleb128 0x3
 1083 019a 73797374 		.ascii "systime_t\0"
 1083      696D655F 
 1083      7400
 1084 01a4 04       		.byte	0x4
 1085 01a5 26       		.byte	0x26
 1086 01a6 E7000000 		.long	0xe7
 1087 01aa 03       		.uleb128 0x3
 1088 01ab 54687265 		.ascii "Thread\0"
 1088      616400
 1089 01b2 05       		.byte	0x5
 1090 01b3 23       		.byte	0x23
 1091 01b4 B8010000 		.long	0x1b8
 1092 01b8 04       		.uleb128 0x4
 1093 01b9 54687265 		.ascii "Thread\0"
 1093      616400
 1094 01c0 48       		.byte	0x48
 1095 01c1 06       		.byte	0x6
 1096 01c2 57       		.byte	0x57
 1097 01c3 2E030000 		.long	0x32e
 1098 01c7 05       		.uleb128 0x5
 1099 01c8 0A000000 		.secrel32	LASF0
 1100 01cc 06       		.byte	0x6
 1101 01cd 58       		.byte	0x58
 1102 01ce 56030000 		.long	0x356
 1103 01d2 02       		.byte	0x2
 1104 01d3 23       		.byte	0x23
 1105 01d4 00       		.uleb128 0
 1106 01d5 06       		.uleb128 0x6
 1107 01d6 705F7072 		.ascii "p_prev\0"
 1107      657600
 1108 01dd 06       		.byte	0x6
 1109 01de 5A       		.byte	0x5a
 1110 01df 56030000 		.long	0x356
 1111 01e3 02       		.byte	0x2
 1112 01e4 23       		.byte	0x23
 1113 01e5 04       		.uleb128 0x4
 1114 01e6 06       		.uleb128 0x6
GAS LISTING C:\cygwin\tmp\ccHd38PY.s 			page 29


 1115 01e7 705F7072 		.ascii "p_prio\0"
 1115      696F00
 1116 01ee 06       		.byte	0x6
 1117 01ef 5C       		.byte	0x5c
 1118 01f0 6A010000 		.long	0x16a
 1119 01f4 02       		.byte	0x2
 1120 01f5 23       		.byte	0x23
 1121 01f6 08       		.uleb128 0x8
 1122 01f7 06       		.uleb128 0x6
 1123 01f8 705F6374 		.ascii "p_ctx\0"
 1123      7800
 1124 01fe 06       		.byte	0x6
 1125 01ff 5D       		.byte	0x5d
 1126 0200 37040000 		.long	0x437
 1127 0204 02       		.byte	0x2
 1128 0205 23       		.byte	0x23
 1129 0206 0C       		.uleb128 0xc
 1130 0207 06       		.uleb128 0x6
 1131 0208 705F6E65 		.ascii "p_newer\0"
 1131      77657200 
 1132 0210 06       		.byte	0x6
 1133 0211 5F       		.byte	0x5f
 1134 0212 56030000 		.long	0x356
 1135 0216 02       		.byte	0x2
 1136 0217 23       		.byte	0x23
 1137 0218 10       		.uleb128 0x10
 1138 0219 06       		.uleb128 0x6
 1139 021a 705F6F6C 		.ascii "p_older\0"
 1139      64657200 
 1140 0222 06       		.byte	0x6
 1141 0223 60       		.byte	0x60
 1142 0224 56030000 		.long	0x356
 1143 0228 02       		.byte	0x2
 1144 0229 23       		.byte	0x23
 1145 022a 14       		.uleb128 0x14
 1146 022b 06       		.uleb128 0x6
 1147 022c 705F6E61 		.ascii "p_name\0"
 1147      6D6500
 1148 0233 06       		.byte	0x6
 1149 0234 67       		.byte	0x67
 1150 0235 03060000 		.long	0x603
 1151 0239 02       		.byte	0x2
 1152 023a 23       		.byte	0x23
 1153 023b 18       		.uleb128 0x18
 1154 023c 06       		.uleb128 0x6
 1155 023d 705F7374 		.ascii "p_state\0"
 1155      61746500 
 1156 0245 06       		.byte	0x6
 1157 0246 72       		.byte	0x72
 1158 0247 3A010000 		.long	0x13a
 1159 024b 02       		.byte	0x2
 1160 024c 23       		.byte	0x23
 1161 024d 1C       		.uleb128 0x1c
 1162 024e 06       		.uleb128 0x6
 1163 024f 705F666C 		.ascii "p_flags\0"
 1163      61677300 
 1164 0257 06       		.byte	0x6
GAS LISTING C:\cygwin\tmp\ccHd38PY.s 			page 30


 1165 0258 76       		.byte	0x76
 1166 0259 2B010000 		.long	0x12b
 1167 025d 02       		.byte	0x2
 1168 025e 23       		.byte	0x23
 1169 025f 1D       		.uleb128 0x1d
 1170 0260 06       		.uleb128 0x6
 1171 0261 705F7265 		.ascii "p_refs\0"
 1171      667300
 1172 0268 06       		.byte	0x6
 1173 0269 7B       		.byte	0x7b
 1174 026a 4A010000 		.long	0x14a
 1175 026e 02       		.byte	0x2
 1176 026f 23       		.byte	0x23
 1177 0270 1E       		.uleb128 0x1e
 1178 0271 06       		.uleb128 0x6
 1179 0272 705F7072 		.ascii "p_preempt\0"
 1179      65656D70 
 1179      7400
 1180 027c 06       		.byte	0x6
 1181 027d 81       		.byte	0x81
 1182 027e 59010000 		.long	0x159
 1183 0282 02       		.byte	0x2
 1184 0283 23       		.byte	0x23
 1185 0284 1F       		.uleb128 0x1f
 1186 0285 06       		.uleb128 0x6
 1187 0286 705F7469 		.ascii "p_time\0"
 1187      6D6500
 1188 028d 06       		.byte	0x6
 1189 028e 88       		.byte	0x88
 1190 028f 61040000 		.long	0x461
 1191 0293 02       		.byte	0x2
 1192 0294 23       		.byte	0x23
 1193 0295 20       		.uleb128 0x20
 1194 0296 06       		.uleb128 0x6
 1195 0297 705F7500 		.ascii "p_u\0"
 1196 029b 06       		.byte	0x6
 1197 029c AD       		.byte	0xad
 1198 029d C0050000 		.long	0x5c0
 1199 02a1 02       		.byte	0x2
 1200 02a2 23       		.byte	0x23
 1201 02a3 24       		.uleb128 0x24
 1202 02a4 06       		.uleb128 0x6
 1203 02a5 705F7761 		.ascii "p_waiting\0"
 1203      6974696E 
 1203      6700
 1204 02af 06       		.byte	0x6
 1205 02b0 B2       		.byte	0xb2
 1206 02b1 87030000 		.long	0x387
 1207 02b5 02       		.byte	0x2
 1208 02b6 23       		.byte	0x23
 1209 02b7 28       		.uleb128 0x28
 1210 02b8 06       		.uleb128 0x6
 1211 02b9 705F6D73 		.ascii "p_msgqueue\0"
 1211      67717565 
 1211      756500
 1212 02c4 06       		.byte	0x6
 1213 02c5 B8       		.byte	0xb8
GAS LISTING C:\cygwin\tmp\ccHd38PY.s 			page 31


 1214 02c6 5C030000 		.long	0x35c
 1215 02ca 02       		.byte	0x2
 1216 02cb 23       		.byte	0x23
 1217 02cc 2C       		.uleb128 0x2c
 1218 02cd 06       		.uleb128 0x6
 1219 02ce 705F6D73 		.ascii "p_msg\0"
 1219      6700
 1220 02d4 06       		.byte	0x6
 1221 02d5 BC       		.byte	0xbc
 1222 02d6 79010000 		.long	0x179
 1223 02da 02       		.byte	0x2
 1224 02db 23       		.byte	0x23
 1225 02dc 34       		.uleb128 0x34
 1226 02dd 06       		.uleb128 0x6
 1227 02de 705F6570 		.ascii "p_epending\0"
 1227      656E6469 
 1227      6E6700
 1228 02e9 06       		.byte	0x6
 1229 02ea C2       		.byte	0xc2
 1230 02eb 86010000 		.long	0x186
 1231 02ef 02       		.byte	0x2
 1232 02f0 23       		.byte	0x23
 1233 02f1 38       		.uleb128 0x38
 1234 02f2 06       		.uleb128 0x6
 1235 02f3 705F6D74 		.ascii "p_mtxlist\0"
 1235      786C6973 
 1235      7400
 1236 02fd 06       		.byte	0x6
 1237 02fe C9       		.byte	0xc9
 1238 02ff 16060000 		.long	0x616
 1239 0303 02       		.byte	0x2
 1240 0304 23       		.byte	0x23
 1241 0305 3C       		.uleb128 0x3c
 1242 0306 06       		.uleb128 0x6
 1243 0307 705F7265 		.ascii "p_realprio\0"
 1243      616C7072 
 1243      696F00
 1244 0312 06       		.byte	0x6
 1245 0313 CD       		.byte	0xcd
 1246 0314 6A010000 		.long	0x16a
 1247 0318 02       		.byte	0x2
 1248 0319 23       		.byte	0x23
 1249 031a 40       		.uleb128 0x40
 1250 031b 06       		.uleb128 0x6
 1251 031c 705F6D70 		.ascii "p_mpool\0"
 1251      6F6F6C00 
 1252 0324 06       		.byte	0x6
 1253 0325 D3       		.byte	0xd3
 1254 0326 DF030000 		.long	0x3df
 1255 032a 02       		.byte	0x2
 1256 032b 23       		.byte	0x23
 1257 032c 44       		.uleb128 0x44
 1258 032d 00       		.byte	0
 1259 032e 07       		.uleb128 0x7
 1260 032f 08       		.byte	0x8
 1261 0330 05       		.byte	0x5
 1262 0331 5A       		.byte	0x5a
GAS LISTING C:\cygwin\tmp\ccHd38PY.s 			page 32


 1263 0332 56030000 		.long	0x356
 1264 0336 05       		.uleb128 0x5
 1265 0337 0A000000 		.secrel32	LASF0
 1266 033b 05       		.byte	0x5
 1267 033c 5B       		.byte	0x5b
 1268 033d 56030000 		.long	0x356
 1269 0341 02       		.byte	0x2
 1270 0342 23       		.byte	0x23
 1271 0343 00       		.uleb128 0
 1272 0344 06       		.uleb128 0x6
 1273 0345 705F7072 		.ascii "p_prev\0"
 1273      657600
 1274 034c 05       		.byte	0x5
 1275 034d 5D       		.byte	0x5d
 1276 034e 56030000 		.long	0x356
 1277 0352 02       		.byte	0x2
 1278 0353 23       		.byte	0x23
 1279 0354 04       		.uleb128 0x4
 1280 0355 00       		.byte	0
 1281 0356 08       		.uleb128 0x8
 1282 0357 04       		.byte	0x4
 1283 0358 AA010000 		.long	0x1aa
 1284 035c 03       		.uleb128 0x3
 1285 035d 54687265 		.ascii "ThreadsQueue\0"
 1285      61647351 
 1285      75657565 
 1285      00
 1286 036a 05       		.byte	0x5
 1287 036b 5F       		.byte	0x5f
 1288 036c 2E030000 		.long	0x32e
 1289 0370 07       		.uleb128 0x7
 1290 0371 04       		.byte	0x4
 1291 0372 05       		.byte	0x5
 1292 0373 64       		.byte	0x64
 1293 0374 87030000 		.long	0x387
 1294 0378 05       		.uleb128 0x5
 1295 0379 0A000000 		.secrel32	LASF0
 1296 037d 05       		.byte	0x5
 1297 037e 66       		.byte	0x66
 1298 037f 56030000 		.long	0x356
 1299 0383 02       		.byte	0x2
 1300 0384 23       		.byte	0x23
 1301 0385 00       		.uleb128 0
 1302 0386 00       		.byte	0
 1303 0387 03       		.uleb128 0x3
 1304 0388 54687265 		.ascii "ThreadsList\0"
 1304      6164734C 
 1304      69737400 
 1305 0394 05       		.byte	0x5
 1306 0395 69       		.byte	0x69
 1307 0396 70030000 		.long	0x370
 1308 039a 07       		.uleb128 0x7
 1309 039b 10       		.byte	0x10
 1310 039c 07       		.byte	0x7
 1311 039d 3D       		.byte	0x3d
 1312 039e AF030000 		.long	0x3af
 1313 03a2 06       		.uleb128 0x6
GAS LISTING C:\cygwin\tmp\ccHd38PY.s 			page 33


 1314 03a3 6100     		.ascii "a\0"
 1315 03a5 07       		.byte	0x7
 1316 03a6 3E       		.byte	0x3e
 1317 03a7 AF030000 		.long	0x3af
 1318 03ab 02       		.byte	0x2
 1319 03ac 23       		.byte	0x23
 1320 03ad 00       		.uleb128 0
 1321 03ae 00       		.byte	0
 1322 03af 09       		.uleb128 0x9
 1323 03b0 AB000000 		.long	0xab
 1324 03b4 BF030000 		.long	0x3bf
 1325 03b8 0A       		.uleb128 0xa
 1326 03b9 76000000 		.long	0x76
 1327 03bd 0F       		.byte	0xf
 1328 03be 00       		.byte	0
 1329 03bf 03       		.uleb128 0x3
 1330 03c0 73746B61 		.ascii "stkalign_t\0"
 1330      6C69676E 
 1330      5F7400
 1331 03cb 07       		.byte	0x7
 1332 03cc 3F       		.byte	0x3f
 1333 03cd 9A030000 		.long	0x39a
 1334 03d1 03       		.uleb128 0x3
 1335 03d2 72656778 		.ascii "regx86\0"
 1335      383600
 1336 03d9 07       		.byte	0x7
 1337 03da 44       		.byte	0x44
 1338 03db DF030000 		.long	0x3df
 1339 03df 0B       		.uleb128 0xb
 1340 03e0 04       		.byte	0x4
 1341 03e1 04       		.uleb128 0x4
 1342 03e2 696E7463 		.ascii "intctx\0"
 1342      747800
 1343 03e9 14       		.byte	0x14
 1344 03ea 07       		.byte	0x7
 1345 03eb 52       		.byte	0x52
 1346 03ec 37040000 		.long	0x437
 1347 03f0 06       		.uleb128 0x6
 1348 03f1 65627800 		.ascii "ebx\0"
 1349 03f5 07       		.byte	0x7
 1350 03f6 53       		.byte	0x53
 1351 03f7 D1030000 		.long	0x3d1
 1352 03fb 02       		.byte	0x2
 1353 03fc 23       		.byte	0x23
 1354 03fd 00       		.uleb128 0
 1355 03fe 06       		.uleb128 0x6
 1356 03ff 65646900 		.ascii "edi\0"
 1357 0403 07       		.byte	0x7
 1358 0404 54       		.byte	0x54
 1359 0405 D1030000 		.long	0x3d1
 1360 0409 02       		.byte	0x2
 1361 040a 23       		.byte	0x23
 1362 040b 04       		.uleb128 0x4
 1363 040c 06       		.uleb128 0x6
 1364 040d 65736900 		.ascii "esi\0"
 1365 0411 07       		.byte	0x7
 1366 0412 55       		.byte	0x55
GAS LISTING C:\cygwin\tmp\ccHd38PY.s 			page 34


 1367 0413 D1030000 		.long	0x3d1
 1368 0417 02       		.byte	0x2
 1369 0418 23       		.byte	0x23
 1370 0419 08       		.uleb128 0x8
 1371 041a 06       		.uleb128 0x6
 1372 041b 65627000 		.ascii "ebp\0"
 1373 041f 07       		.byte	0x7
 1374 0420 56       		.byte	0x56
 1375 0421 D1030000 		.long	0x3d1
 1376 0425 02       		.byte	0x2
 1377 0426 23       		.byte	0x23
 1378 0427 0C       		.uleb128 0xc
 1379 0428 06       		.uleb128 0x6
 1380 0429 65697000 		.ascii "eip\0"
 1381 042d 07       		.byte	0x7
 1382 042e 57       		.byte	0x57
 1383 042f D1030000 		.long	0x3d1
 1384 0433 02       		.byte	0x2
 1385 0434 23       		.byte	0x23
 1386 0435 10       		.uleb128 0x10
 1387 0436 00       		.byte	0
 1388 0437 04       		.uleb128 0x4
 1389 0438 636F6E74 		.ascii "context\0"
 1389      65787400 
 1390 0440 04       		.byte	0x4
 1391 0441 07       		.byte	0x7
 1392 0442 5F       		.byte	0x5f
 1393 0443 56040000 		.long	0x456
 1394 0447 06       		.uleb128 0x6
 1395 0448 65737000 		.ascii "esp\0"
 1396 044c 07       		.byte	0x7
 1397 044d 60       		.byte	0x60
 1398 044e 56040000 		.long	0x456
 1399 0452 02       		.byte	0x2
 1400 0453 23       		.byte	0x23
 1401 0454 00       		.uleb128 0
 1402 0455 00       		.byte	0
 1403 0456 08       		.uleb128 0x8
 1404 0457 04       		.byte	0x4
 1405 0458 5C040000 		.long	0x45c
 1406 045c 0C       		.uleb128 0xc
 1407 045d E1030000 		.long	0x3e1
 1408 0461 0C       		.uleb128 0xc
 1409 0462 99010000 		.long	0x199
 1410 0466 04       		.uleb128 0x4
 1411 0467 4D757465 		.ascii "Mutex\0"
 1411      7800
 1412 046d 10       		.byte	0x10
 1413 046e 08       		.byte	0x8
 1414 046f 25       		.byte	0x25
 1415 0470 AA040000 		.long	0x4aa
 1416 0474 06       		.uleb128 0x6
 1417 0475 6D5F7175 		.ascii "m_queue\0"
 1417      65756500 
 1418 047d 08       		.byte	0x8
 1419 047e 26       		.byte	0x26
 1420 047f 5C030000 		.long	0x35c
GAS LISTING C:\cygwin\tmp\ccHd38PY.s 			page 35


 1421 0483 02       		.byte	0x2
 1422 0484 23       		.byte	0x23
 1423 0485 00       		.uleb128 0
 1424 0486 06       		.uleb128 0x6
 1425 0487 6D5F6F77 		.ascii "m_owner\0"
 1425      6E657200 
 1426 048f 08       		.byte	0x8
 1427 0490 28       		.byte	0x28
 1428 0491 56030000 		.long	0x356
 1429 0495 02       		.byte	0x2
 1430 0496 23       		.byte	0x23
 1431 0497 08       		.uleb128 0x8
 1432 0498 06       		.uleb128 0x6
 1433 0499 6D5F6E65 		.ascii "m_next\0"
 1433      787400
 1434 04a0 08       		.byte	0x8
 1435 04a1 2A       		.byte	0x2a
 1436 04a2 AA040000 		.long	0x4aa
 1437 04a6 02       		.byte	0x2
 1438 04a7 23       		.byte	0x23
 1439 04a8 0C       		.uleb128 0xc
 1440 04a9 00       		.byte	0
 1441 04aa 08       		.uleb128 0x8
 1442 04ab 04       		.byte	0x4
 1443 04ac 66040000 		.long	0x466
 1444 04b0 03       		.uleb128 0x3
 1445 04b1 4D757465 		.ascii "Mutex\0"
 1445      7800
 1446 04b7 08       		.byte	0x8
 1447 04b8 2C       		.byte	0x2c
 1448 04b9 66040000 		.long	0x466
 1449 04bd 03       		.uleb128 0x3
 1450 04be 6D656D67 		.ascii "memgetfunc_t\0"
 1450      65746675 
 1450      6E635F74 
 1450      00
 1451 04cb 09       		.byte	0x9
 1452 04cc 25       		.byte	0x25
 1453 04cd D1040000 		.long	0x4d1
 1454 04d1 08       		.uleb128 0x8
 1455 04d2 04       		.byte	0x4
 1456 04d3 D7040000 		.long	0x4d7
 1457 04d7 0D       		.uleb128 0xd
 1458 04d8 01       		.byte	0x1
 1459 04d9 DF030000 		.long	0x3df
 1460 04dd E7040000 		.long	0x4e7
 1461 04e1 0E       		.uleb128 0xe
 1462 04e2 68000000 		.long	0x68
 1463 04e6 00       		.byte	0
 1464 04e7 03       		.uleb128 0x3
 1465 04e8 4D656D6F 		.ascii "MemoryHeap\0"
 1465      72794865 
 1465      617000
 1466 04f3 0A       		.byte	0xa
 1467 04f4 2D       		.byte	0x2d
 1468 04f5 F9040000 		.long	0x4f9
 1469 04f9 04       		.uleb128 0x4
GAS LISTING C:\cygwin\tmp\ccHd38PY.s 			page 36


 1470 04fa 6D656D6F 		.ascii "memory_heap\0"
 1470      72795F68 
 1470      65617000 
 1471 0506 30       		.byte	0x30
 1472 0507 0A       		.byte	0xa
 1473 0508 40       		.byte	0x40
 1474 0509 44050000 		.long	0x544
 1475 050d 06       		.uleb128 0x6
 1476 050e 685F7072 		.ascii "h_provider\0"
 1476      6F766964 
 1476      657200
 1477 0519 0A       		.byte	0xa
 1478 051a 41       		.byte	0x41
 1479 051b BD040000 		.long	0x4bd
 1480 051f 02       		.byte	0x2
 1481 0520 23       		.byte	0x23
 1482 0521 00       		.uleb128 0
 1483 0522 06       		.uleb128 0x6
 1484 0523 685F6672 		.ascii "h_free\0"
 1484      656500
 1485 052a 0A       		.byte	0xa
 1486 052b 43       		.byte	0x43
 1487 052c 65050000 		.long	0x565
 1488 0530 02       		.byte	0x2
 1489 0531 23       		.byte	0x23
 1490 0532 10       		.uleb128 0x10
 1491 0533 06       		.uleb128 0x6
 1492 0534 685F6D74 		.ascii "h_mtx\0"
 1492      7800
 1493 053a 0A       		.byte	0xa
 1494 053b 45       		.byte	0x45
 1495 053c B0040000 		.long	0x4b0
 1496 0540 02       		.byte	0x2
 1497 0541 23       		.byte	0x23
 1498 0542 20       		.uleb128 0x20
 1499 0543 00       		.byte	0
 1500 0544 0F       		.uleb128 0xf
 1501 0545 04       		.byte	0x4
 1502 0546 0A       		.byte	0xa
 1503 0547 35       		.byte	0x35
 1504 0548 65050000 		.long	0x565
 1505 054c 10       		.uleb128 0x10
 1506 054d 6E657874 		.ascii "next\0"
 1506      00
 1507 0552 0A       		.byte	0xa
 1508 0553 36       		.byte	0x36
 1509 0554 90050000 		.long	0x590
 1510 0558 10       		.uleb128 0x10
 1511 0559 68656170 		.ascii "heap\0"
 1511      00
 1512 055e 0A       		.byte	0xa
 1513 055f 37       		.byte	0x37
 1514 0560 96050000 		.long	0x596
 1515 0564 00       		.byte	0
 1516 0565 11       		.uleb128 0x11
 1517 0566 68656170 		.ascii "heap_header\0"
 1517      5F686561 
GAS LISTING C:\cygwin\tmp\ccHd38PY.s 			page 37


 1517      64657200 
 1518 0572 10       		.byte	0x10
 1519 0573 0A       		.byte	0xa
 1520 0574 32       		.byte	0x32
 1521 0575 90050000 		.long	0x590
 1522 0579 10       		.uleb128 0x10
 1523 057a 616C6967 		.ascii "align\0"
 1523      6E00
 1524 0580 0A       		.byte	0xa
 1525 0581 33       		.byte	0x33
 1526 0582 BF030000 		.long	0x3bf
 1527 0586 10       		.uleb128 0x10
 1528 0587 6800     		.ascii "h\0"
 1529 0589 0A       		.byte	0xa
 1530 058a 3A       		.byte	0x3a
 1531 058b 9C050000 		.long	0x59c
 1532 058f 00       		.byte	0
 1533 0590 08       		.uleb128 0x8
 1534 0591 04       		.byte	0x4
 1535 0592 65050000 		.long	0x565
 1536 0596 08       		.uleb128 0x8
 1537 0597 04       		.byte	0x4
 1538 0598 E7040000 		.long	0x4e7
 1539 059c 07       		.uleb128 0x7
 1540 059d 08       		.byte	0x8
 1541 059e 0A       		.byte	0xa
 1542 059f 34       		.byte	0x34
 1543 05a0 C0050000 		.long	0x5c0
 1544 05a4 06       		.uleb128 0x6
 1545 05a5 7500     		.ascii "u\0"
 1546 05a7 0A       		.byte	0xa
 1547 05a8 38       		.byte	0x38
 1548 05a9 44050000 		.long	0x544
 1549 05ad 02       		.byte	0x2
 1550 05ae 23       		.byte	0x23
 1551 05af 00       		.uleb128 0
 1552 05b0 06       		.uleb128 0x6
 1553 05b1 73697A65 		.ascii "size\0"
 1553      00
 1554 05b6 0A       		.byte	0xa
 1555 05b7 39       		.byte	0x39
 1556 05b8 68000000 		.long	0x68
 1557 05bc 02       		.byte	0x2
 1558 05bd 23       		.byte	0x23
 1559 05be 04       		.uleb128 0x4
 1560 05bf 00       		.byte	0
 1561 05c0 0F       		.uleb128 0xf
 1562 05c1 04       		.byte	0x4
 1563 05c2 06       		.byte	0x6
 1564 05c3 8F       		.byte	0x8f
 1565 05c4 03060000 		.long	0x603
 1566 05c8 10       		.uleb128 0x10
 1567 05c9 7264796D 		.ascii "rdymsg\0"
 1567      736700
 1568 05d0 06       		.byte	0x6
 1569 05d1 96       		.byte	0x96
 1570 05d2 79010000 		.long	0x179
GAS LISTING C:\cygwin\tmp\ccHd38PY.s 			page 38


 1571 05d6 10       		.uleb128 0x10
 1572 05d7 65786974 		.ascii "exitcode\0"
 1572      636F6465 
 1572      00
 1573 05e0 06       		.byte	0x6
 1574 05e1 9D       		.byte	0x9d
 1575 05e2 79010000 		.long	0x179
 1576 05e6 10       		.uleb128 0x10
 1577 05e7 77746F62 		.ascii "wtobjp\0"
 1577      6A7000
 1578 05ee 06       		.byte	0x6
 1579 05ef A4       		.byte	0xa4
 1580 05f0 DF030000 		.long	0x3df
 1581 05f4 10       		.uleb128 0x10
 1582 05f5 65776D61 		.ascii "ewmask\0"
 1582      736B00
 1583 05fc 06       		.byte	0x6
 1584 05fd AB       		.byte	0xab
 1585 05fe 86010000 		.long	0x186
 1586 0602 00       		.byte	0
 1587 0603 08       		.uleb128 0x8
 1588 0604 04       		.byte	0x4
 1589 0605 09060000 		.long	0x609
 1590 0609 12       		.uleb128 0x12
 1591 060a 0E060000 		.long	0x60e
 1592 060e 02       		.uleb128 0x2
 1593 060f 01       		.byte	0x1
 1594 0610 06       		.byte	0x6
 1595 0611 63686172 		.ascii "char\0"
 1595      00
 1596 0616 08       		.uleb128 0x8
 1597 0617 04       		.byte	0x4
 1598 0618 B0040000 		.long	0x4b0
 1599 061c 04       		.uleb128 0x4
 1600 061d 74657374 		.ascii "testcase\0"
 1600      63617365 
 1600      00
 1601 0626 10       		.byte	0x10
 1602 0627 0B       		.byte	0xb
 1603 0628 3F       		.byte	0x3f
 1604 0629 72060000 		.long	0x672
 1605 062d 06       		.uleb128 0x6
 1606 062e 6E616D65 		.ascii "name\0"
 1606      00
 1607 0633 0B       		.byte	0xb
 1608 0634 40       		.byte	0x40
 1609 0635 03060000 		.long	0x603
 1610 0639 02       		.byte	0x2
 1611 063a 23       		.byte	0x23
 1612 063b 00       		.uleb128 0
 1613 063c 06       		.uleb128 0x6
 1614 063d 73657475 		.ascii "setup\0"
 1614      7000
 1615 0643 0B       		.byte	0xb
 1616 0644 41       		.byte	0x41
 1617 0645 74060000 		.long	0x674
 1618 0649 02       		.byte	0x2
GAS LISTING C:\cygwin\tmp\ccHd38PY.s 			page 39


 1619 064a 23       		.byte	0x23
 1620 064b 04       		.uleb128 0x4
 1621 064c 06       		.uleb128 0x6
 1622 064d 74656172 		.ascii "teardown\0"
 1622      646F776E 
 1622      00
 1623 0656 0B       		.byte	0xb
 1624 0657 42       		.byte	0x42
 1625 0658 74060000 		.long	0x674
 1626 065c 02       		.byte	0x2
 1627 065d 23       		.byte	0x23
 1628 065e 08       		.uleb128 0x8
 1629 065f 06       		.uleb128 0x6
 1630 0660 65786563 		.ascii "execute\0"
 1630      75746500 
 1631 0668 0B       		.byte	0xb
 1632 0669 43       		.byte	0x43
 1633 066a 74060000 		.long	0x674
 1634 066e 02       		.byte	0x2
 1635 066f 23       		.byte	0x23
 1636 0670 0C       		.uleb128 0xc
 1637 0671 00       		.byte	0
 1638 0672 13       		.uleb128 0x13
 1639 0673 01       		.byte	0x1
 1640 0674 08       		.uleb128 0x8
 1641 0675 04       		.byte	0x4
 1642 0676 72060000 		.long	0x672
 1643 067a 14       		.uleb128 0x14
 1644 067b 304C0100 		.long	0x14c30
 1645 067f 0B       		.byte	0xb
 1646 0680 48       		.byte	0x48
 1647 0681 CF060000 		.long	0x6cf
 1648 0685 06       		.uleb128 0x6
 1649 0686 543000   		.ascii "T0\0"
 1650 0689 0B       		.byte	0xb
 1651 068a 49       		.byte	0x49
 1652 068b CF060000 		.long	0x6cf
 1653 068f 02       		.byte	0x2
 1654 0690 23       		.byte	0x23
 1655 0691 00       		.uleb128 0
 1656 0692 06       		.uleb128 0x6
 1657 0693 543100   		.ascii "T1\0"
 1658 0696 0B       		.byte	0xb
 1659 0697 4A       		.byte	0x4a
 1660 0698 CF060000 		.long	0x6cf
 1661 069c 04       		.byte	0x4
 1662 069d 23       		.byte	0x23
 1663 069e F08401   		.uleb128 0x4270
 1664 06a1 06       		.uleb128 0x6
 1665 06a2 543200   		.ascii "T2\0"
 1666 06a5 0B       		.byte	0xb
 1667 06a6 4B       		.byte	0x4b
 1668 06a7 CF060000 		.long	0x6cf
 1669 06ab 04       		.byte	0x4
 1670 06ac 23       		.byte	0x23
 1671 06ad E08902   		.uleb128 0x84e0
 1672 06b0 06       		.uleb128 0x6
GAS LISTING C:\cygwin\tmp\ccHd38PY.s 			page 40


 1673 06b1 543300   		.ascii "T3\0"
 1674 06b4 0B       		.byte	0xb
 1675 06b5 4C       		.byte	0x4c
 1676 06b6 CF060000 		.long	0x6cf
 1677 06ba 04       		.byte	0x4
 1678 06bb 23       		.byte	0x23
 1679 06bc D08E03   		.uleb128 0xc750
 1680 06bf 06       		.uleb128 0x6
 1681 06c0 543400   		.ascii "T4\0"
 1682 06c3 0B       		.byte	0xb
 1683 06c4 4D       		.byte	0x4d
 1684 06c5 CF060000 		.long	0x6cf
 1685 06c9 04       		.byte	0x4
 1686 06ca 23       		.byte	0x23
 1687 06cb C09304   		.uleb128 0x109c0
 1688 06ce 00       		.byte	0
 1689 06cf 09       		.uleb128 0x9
 1690 06d0 BF030000 		.long	0x3bf
 1691 06d4 E0060000 		.long	0x6e0
 1692 06d8 15       		.uleb128 0x15
 1693 06d9 76000000 		.long	0x76
 1694 06dd 2604     		.word	0x426
 1695 06df 00       		.byte	0
 1696 06e0 16       		.uleb128 0x16
 1697 06e1 74657374 		.ascii "test_buffers\0"
 1697      5F627566 
 1697      66657273 
 1697      00
 1698 06ee 304C0100 		.long	0x14c30
 1699 06f2 0B       		.byte	0xb
 1700 06f3 47       		.byte	0x47
 1701 06f4 11070000 		.long	0x711
 1702 06f8 10       		.uleb128 0x10
 1703 06f9 776100   		.ascii "wa\0"
 1704 06fc 0B       		.byte	0xb
 1705 06fd 4E       		.byte	0x4e
 1706 06fe 7A060000 		.long	0x67a
 1707 0702 10       		.uleb128 0x10
 1708 0703 62756666 		.ascii "buffer\0"
 1708      657200
 1709 070a 0B       		.byte	0xb
 1710 070b 4F       		.byte	0x4f
 1711 070c 11070000 		.long	0x711
 1712 0710 00       		.byte	0
 1713 0711 09       		.uleb128 0x9
 1714 0712 AB000000 		.long	0xab
 1715 0716 24070000 		.long	0x724
 1716 071a 17       		.uleb128 0x17
 1717 071b 76000000 		.long	0x76
 1718 071f 2F4C0100 		.long	0x14c2f
 1719 0723 00       		.byte	0
 1720 0724 18       		.uleb128 0x18
 1721 0725 68656170 		.ascii "heap1_setup\0"
 1721      315F7365 
 1721      74757000 
 1722 0731 01       		.byte	0x1
 1723 0732 44       		.byte	0x44
GAS LISTING C:\cygwin\tmp\ccHd38PY.s 			page 41


 1724 0733 01       		.byte	0x1
 1725 0734 00000000 		.long	LFB0
 1726 0738 5B000000 		.long	LFE0
 1727 073c 00000000 		.secrel32	LLST0
 1728 0740 19       		.uleb128 0x19
 1729 0741 68656170 		.ascii "heap1_execute\0"
 1729      315F6578 
 1729      65637574 
 1729      6500
 1730 074f 01       		.byte	0x1
 1731 0750 49       		.byte	0x49
 1732 0751 01       		.byte	0x1
 1733 0752 5B000000 		.long	LFB1
 1734 0756 E30C0000 		.long	LFE1
 1735 075a 2C000000 		.secrel32	LLST1
 1736 075e A3070000 		.long	0x7a3
 1737 0762 1A       		.uleb128 0x1a
 1738 0763 703100   		.ascii "p1\0"
 1739 0766 01       		.byte	0x1
 1740 0767 4A       		.byte	0x4a
 1741 0768 DF030000 		.long	0x3df
 1742 076c 02       		.byte	0x2
 1743 076d 91       		.byte	0x91
 1744 076e 6C       		.sleb128 -20
 1745 076f 1A       		.uleb128 0x1a
 1746 0770 703200   		.ascii "p2\0"
 1747 0773 01       		.byte	0x1
 1748 0774 4A       		.byte	0x4a
 1749 0775 DF030000 		.long	0x3df
 1750 0779 02       		.byte	0x2
 1751 077a 91       		.byte	0x91
 1752 077b 68       		.sleb128 -24
 1753 077c 1A       		.uleb128 0x1a
 1754 077d 703300   		.ascii "p3\0"
 1755 0780 01       		.byte	0x1
 1756 0781 4A       		.byte	0x4a
 1757 0782 DF030000 		.long	0x3df
 1758 0786 02       		.byte	0x2
 1759 0787 91       		.byte	0x91
 1760 0788 64       		.sleb128 -28
 1761 0789 1A       		.uleb128 0x1a
 1762 078a 6E00     		.ascii "n\0"
 1763 078c 01       		.byte	0x1
 1764 078d 4B       		.byte	0x4b
 1765 078e 68000000 		.long	0x68
 1766 0792 02       		.byte	0x2
 1767 0793 91       		.byte	0x91
 1768 0794 60       		.sleb128 -32
 1769 0795 1A       		.uleb128 0x1a
 1770 0796 737A00   		.ascii "sz\0"
 1771 0799 01       		.byte	0x1
 1772 079a 4B       		.byte	0x4b
 1773 079b 68000000 		.long	0x68
 1774 079f 02       		.byte	0x2
 1775 07a0 91       		.byte	0x91
 1776 07a1 5C       		.sleb128 -36
 1777 07a2 00       		.byte	0
GAS LISTING C:\cygwin\tmp\ccHd38PY.s 			page 42


 1778 07a3 1B       		.uleb128 0x1b
 1779 07a4 5F474C4F 		.ascii "_GLOBAL__sub_I_65535_0_testheap1\0"
 1779      42414C5F 
 1779      5F737562 
 1779      5F495F36 
 1779      35353335 
 1780 07c5 01       		.byte	0x1
 1781 07c6 01       		.byte	0x1
 1782 07c7 E30C0000 		.long	LFB2
 1783 07cb F60C0000 		.long	LFE2
 1784 07cf 59000000 		.secrel32	LLST2
 1785 07d3 1C       		.uleb128 0x1c
 1786 07d4 74657374 		.ascii "test\0"
 1786      00
 1787 07d9 0B       		.byte	0xb
 1788 07da AA       		.byte	0xaa
 1789 07db E0060000 		.long	0x6e0
 1790 07df 01       		.byte	0x1
 1791 07e0 01       		.byte	0x1
 1792 07e1 1A       		.uleb128 0x1a
 1793 07e2 74657374 		.ascii "test_heap\0"
 1793      5F686561 
 1793      7000
 1794 07ec 01       		.byte	0x1
 1795 07ed 37       		.byte	0x37
 1796 07ee E7040000 		.long	0x4e7
 1797 07f2 05       		.byte	0x5
 1798 07f3 03       		.byte	0x3
 1799 07f4 00000000 		.long	_test_heap
 1800 07f8 1D       		.uleb128 0x1d
 1801 07f9 00000000 		.secrel32	LASF1
 1802 07fd 01       		.byte	0x1
 1803 07fe 92       		.byte	0x92
 1804 07ff 05080000 		.long	0x805
 1805 0803 01       		.byte	0x1
 1806 0804 01       		.byte	0x1
 1807 0805 12       		.uleb128 0x12
 1808 0806 1C060000 		.long	0x61c
 1809 080a 1C       		.uleb128 0x1c
 1810 080b 74657374 		.ascii "test\0"
 1810      00
 1811 0810 0B       		.byte	0xb
 1812 0811 AA       		.byte	0xaa
 1813 0812 E0060000 		.long	0x6e0
 1814 0816 01       		.byte	0x1
 1815 0817 01       		.byte	0x1
 1816 0818 1E       		.uleb128 0x1e
 1817 0819 00000000 		.secrel32	LASF1
 1818 081d 01       		.byte	0x1
 1819 081e 92       		.byte	0x92
 1820 081f 05080000 		.long	0x805
 1821 0823 01       		.byte	0x1
 1822 0824 05       		.byte	0x5
 1823 0825 03       		.byte	0x3
 1824 0826 28000000 		.long	_testheap1
 1825 082a 09       		.uleb128 0x9
 1826 082b 3A080000 		.long	0x83a
GAS LISTING C:\cygwin\tmp\ccHd38PY.s 			page 43


 1827 082f 3A080000 		.long	0x83a
 1828 0833 0A       		.uleb128 0xa
 1829 0834 76000000 		.long	0x76
 1830 0838 01       		.byte	0x1
 1831 0839 00       		.byte	0
 1832 083a 08       		.uleb128 0x8
 1833 083b 04       		.byte	0x4
 1834 083c 05080000 		.long	0x805
 1835 0840 1F       		.uleb128 0x1f
 1836 0841 70617474 		.ascii "patternheap\0"
 1836      65726E68 
 1836      65617000 
 1837 084d 01       		.byte	0x1
 1838 084e 9E       		.byte	0x9e
 1839 084f 5A080000 		.long	0x85a
 1840 0853 01       		.byte	0x1
 1841 0854 05       		.byte	0x5
 1842 0855 03       		.byte	0x3
 1843 0856 38000000 		.long	_patternheap
 1844 085a 12       		.uleb128 0x12
 1845 085b 2A080000 		.long	0x82a
 1846 085f 00       		.byte	0
 1847              		.section	.debug_abbrev,"dr"
 1848              	Ldebug_abbrev0:
 1849 0000 01       		.uleb128 0x1
 1850 0001 11       		.uleb128 0x11
 1851 0002 01       		.byte	0x1
 1852 0003 25       		.uleb128 0x25
 1853 0004 08       		.uleb128 0x8
 1854 0005 13       		.uleb128 0x13
 1855 0006 0B       		.uleb128 0xb
 1856 0007 03       		.uleb128 0x3
 1857 0008 08       		.uleb128 0x8
 1858 0009 1B       		.uleb128 0x1b
 1859 000a 08       		.uleb128 0x8
 1860 000b 11       		.uleb128 0x11
 1861 000c 01       		.uleb128 0x1
 1862 000d 12       		.uleb128 0x12
 1863 000e 01       		.uleb128 0x1
 1864 000f 10       		.uleb128 0x10
 1865 0010 06       		.uleb128 0x6
 1866 0011 00       		.byte	0
 1867 0012 00       		.byte	0
 1868 0013 02       		.uleb128 0x2
 1869 0014 24       		.uleb128 0x24
 1870 0015 00       		.byte	0
 1871 0016 0B       		.uleb128 0xb
 1872 0017 0B       		.uleb128 0xb
 1873 0018 3E       		.uleb128 0x3e
 1874 0019 0B       		.uleb128 0xb
 1875 001a 03       		.uleb128 0x3
 1876 001b 08       		.uleb128 0x8
 1877 001c 00       		.byte	0
 1878 001d 00       		.byte	0
 1879 001e 03       		.uleb128 0x3
 1880 001f 16       		.uleb128 0x16
 1881 0020 00       		.byte	0
GAS LISTING C:\cygwin\tmp\ccHd38PY.s 			page 44


 1882 0021 03       		.uleb128 0x3
 1883 0022 08       		.uleb128 0x8
 1884 0023 3A       		.uleb128 0x3a
 1885 0024 0B       		.uleb128 0xb
 1886 0025 3B       		.uleb128 0x3b
 1887 0026 0B       		.uleb128 0xb
 1888 0027 49       		.uleb128 0x49
 1889 0028 13       		.uleb128 0x13
 1890 0029 00       		.byte	0
 1891 002a 00       		.byte	0
 1892 002b 04       		.uleb128 0x4
 1893 002c 13       		.uleb128 0x13
 1894 002d 01       		.byte	0x1
 1895 002e 03       		.uleb128 0x3
 1896 002f 08       		.uleb128 0x8
 1897 0030 0B       		.uleb128 0xb
 1898 0031 0B       		.uleb128 0xb
 1899 0032 3A       		.uleb128 0x3a
 1900 0033 0B       		.uleb128 0xb
 1901 0034 3B       		.uleb128 0x3b
 1902 0035 0B       		.uleb128 0xb
 1903 0036 01       		.uleb128 0x1
 1904 0037 13       		.uleb128 0x13
 1905 0038 00       		.byte	0
 1906 0039 00       		.byte	0
 1907 003a 05       		.uleb128 0x5
 1908 003b 0D       		.uleb128 0xd
 1909 003c 00       		.byte	0
 1910 003d 03       		.uleb128 0x3
 1911 003e 0E       		.uleb128 0xe
 1912 003f 3A       		.uleb128 0x3a
 1913 0040 0B       		.uleb128 0xb
 1914 0041 3B       		.uleb128 0x3b
 1915 0042 0B       		.uleb128 0xb
 1916 0043 49       		.uleb128 0x49
 1917 0044 13       		.uleb128 0x13
 1918 0045 38       		.uleb128 0x38
 1919 0046 0A       		.uleb128 0xa
 1920 0047 00       		.byte	0
 1921 0048 00       		.byte	0
 1922 0049 06       		.uleb128 0x6
 1923 004a 0D       		.uleb128 0xd
 1924 004b 00       		.byte	0
 1925 004c 03       		.uleb128 0x3
 1926 004d 08       		.uleb128 0x8
 1927 004e 3A       		.uleb128 0x3a
 1928 004f 0B       		.uleb128 0xb
 1929 0050 3B       		.uleb128 0x3b
 1930 0051 0B       		.uleb128 0xb
 1931 0052 49       		.uleb128 0x49
 1932 0053 13       		.uleb128 0x13
 1933 0054 38       		.uleb128 0x38
 1934 0055 0A       		.uleb128 0xa
 1935 0056 00       		.byte	0
 1936 0057 00       		.byte	0
 1937 0058 07       		.uleb128 0x7
 1938 0059 13       		.uleb128 0x13
GAS LISTING C:\cygwin\tmp\ccHd38PY.s 			page 45


 1939 005a 01       		.byte	0x1
 1940 005b 0B       		.uleb128 0xb
 1941 005c 0B       		.uleb128 0xb
 1942 005d 3A       		.uleb128 0x3a
 1943 005e 0B       		.uleb128 0xb
 1944 005f 3B       		.uleb128 0x3b
 1945 0060 0B       		.uleb128 0xb
 1946 0061 01       		.uleb128 0x1
 1947 0062 13       		.uleb128 0x13
 1948 0063 00       		.byte	0
 1949 0064 00       		.byte	0
 1950 0065 08       		.uleb128 0x8
 1951 0066 0F       		.uleb128 0xf
 1952 0067 00       		.byte	0
 1953 0068 0B       		.uleb128 0xb
 1954 0069 0B       		.uleb128 0xb
 1955 006a 49       		.uleb128 0x49
 1956 006b 13       		.uleb128 0x13
 1957 006c 00       		.byte	0
 1958 006d 00       		.byte	0
 1959 006e 09       		.uleb128 0x9
 1960 006f 01       		.uleb128 0x1
 1961 0070 01       		.byte	0x1
 1962 0071 49       		.uleb128 0x49
 1963 0072 13       		.uleb128 0x13
 1964 0073 01       		.uleb128 0x1
 1965 0074 13       		.uleb128 0x13
 1966 0075 00       		.byte	0
 1967 0076 00       		.byte	0
 1968 0077 0A       		.uleb128 0xa
 1969 0078 21       		.uleb128 0x21
 1970 0079 00       		.byte	0
 1971 007a 49       		.uleb128 0x49
 1972 007b 13       		.uleb128 0x13
 1973 007c 2F       		.uleb128 0x2f
 1974 007d 0B       		.uleb128 0xb
 1975 007e 00       		.byte	0
 1976 007f 00       		.byte	0
 1977 0080 0B       		.uleb128 0xb
 1978 0081 0F       		.uleb128 0xf
 1979 0082 00       		.byte	0
 1980 0083 0B       		.uleb128 0xb
 1981 0084 0B       		.uleb128 0xb
 1982 0085 00       		.byte	0
 1983 0086 00       		.byte	0
 1984 0087 0C       		.uleb128 0xc
 1985 0088 35       		.uleb128 0x35
 1986 0089 00       		.byte	0
 1987 008a 49       		.uleb128 0x49
 1988 008b 13       		.uleb128 0x13
 1989 008c 00       		.byte	0
 1990 008d 00       		.byte	0
 1991 008e 0D       		.uleb128 0xd
 1992 008f 15       		.uleb128 0x15
 1993 0090 01       		.byte	0x1
 1994 0091 27       		.uleb128 0x27
 1995 0092 0C       		.uleb128 0xc
GAS LISTING C:\cygwin\tmp\ccHd38PY.s 			page 46


 1996 0093 49       		.uleb128 0x49
 1997 0094 13       		.uleb128 0x13
 1998 0095 01       		.uleb128 0x1
 1999 0096 13       		.uleb128 0x13
 2000 0097 00       		.byte	0
 2001 0098 00       		.byte	0
 2002 0099 0E       		.uleb128 0xe
 2003 009a 05       		.uleb128 0x5
 2004 009b 00       		.byte	0
 2005 009c 49       		.uleb128 0x49
 2006 009d 13       		.uleb128 0x13
 2007 009e 00       		.byte	0
 2008 009f 00       		.byte	0
 2009 00a0 0F       		.uleb128 0xf
 2010 00a1 17       		.uleb128 0x17
 2011 00a2 01       		.byte	0x1
 2012 00a3 0B       		.uleb128 0xb
 2013 00a4 0B       		.uleb128 0xb
 2014 00a5 3A       		.uleb128 0x3a
 2015 00a6 0B       		.uleb128 0xb
 2016 00a7 3B       		.uleb128 0x3b
 2017 00a8 0B       		.uleb128 0xb
 2018 00a9 01       		.uleb128 0x1
 2019 00aa 13       		.uleb128 0x13
 2020 00ab 00       		.byte	0
 2021 00ac 00       		.byte	0
 2022 00ad 10       		.uleb128 0x10
 2023 00ae 0D       		.uleb128 0xd
 2024 00af 00       		.byte	0
 2025 00b0 03       		.uleb128 0x3
 2026 00b1 08       		.uleb128 0x8
 2027 00b2 3A       		.uleb128 0x3a
 2028 00b3 0B       		.uleb128 0xb
 2029 00b4 3B       		.uleb128 0x3b
 2030 00b5 0B       		.uleb128 0xb
 2031 00b6 49       		.uleb128 0x49
 2032 00b7 13       		.uleb128 0x13
 2033 00b8 00       		.byte	0
 2034 00b9 00       		.byte	0
 2035 00ba 11       		.uleb128 0x11
 2036 00bb 17       		.uleb128 0x17
 2037 00bc 01       		.byte	0x1
 2038 00bd 03       		.uleb128 0x3
 2039 00be 08       		.uleb128 0x8
 2040 00bf 0B       		.uleb128 0xb
 2041 00c0 0B       		.uleb128 0xb
 2042 00c1 3A       		.uleb128 0x3a
 2043 00c2 0B       		.uleb128 0xb
 2044 00c3 3B       		.uleb128 0x3b
 2045 00c4 0B       		.uleb128 0xb
 2046 00c5 01       		.uleb128 0x1
 2047 00c6 13       		.uleb128 0x13
 2048 00c7 00       		.byte	0
 2049 00c8 00       		.byte	0
 2050 00c9 12       		.uleb128 0x12
 2051 00ca 26       		.uleb128 0x26
 2052 00cb 00       		.byte	0
GAS LISTING C:\cygwin\tmp\ccHd38PY.s 			page 47


 2053 00cc 49       		.uleb128 0x49
 2054 00cd 13       		.uleb128 0x13
 2055 00ce 00       		.byte	0
 2056 00cf 00       		.byte	0
 2057 00d0 13       		.uleb128 0x13
 2058 00d1 15       		.uleb128 0x15
 2059 00d2 00       		.byte	0
 2060 00d3 27       		.uleb128 0x27
 2061 00d4 0C       		.uleb128 0xc
 2062 00d5 00       		.byte	0
 2063 00d6 00       		.byte	0
 2064 00d7 14       		.uleb128 0x14
 2065 00d8 13       		.uleb128 0x13
 2066 00d9 01       		.byte	0x1
 2067 00da 0B       		.uleb128 0xb
 2068 00db 06       		.uleb128 0x6
 2069 00dc 3A       		.uleb128 0x3a
 2070 00dd 0B       		.uleb128 0xb
 2071 00de 3B       		.uleb128 0x3b
 2072 00df 0B       		.uleb128 0xb
 2073 00e0 01       		.uleb128 0x1
 2074 00e1 13       		.uleb128 0x13
 2075 00e2 00       		.byte	0
 2076 00e3 00       		.byte	0
 2077 00e4 15       		.uleb128 0x15
 2078 00e5 21       		.uleb128 0x21
 2079 00e6 00       		.byte	0
 2080 00e7 49       		.uleb128 0x49
 2081 00e8 13       		.uleb128 0x13
 2082 00e9 2F       		.uleb128 0x2f
 2083 00ea 05       		.uleb128 0x5
 2084 00eb 00       		.byte	0
 2085 00ec 00       		.byte	0
 2086 00ed 16       		.uleb128 0x16
 2087 00ee 17       		.uleb128 0x17
 2088 00ef 01       		.byte	0x1
 2089 00f0 03       		.uleb128 0x3
 2090 00f1 08       		.uleb128 0x8
 2091 00f2 0B       		.uleb128 0xb
 2092 00f3 06       		.uleb128 0x6
 2093 00f4 3A       		.uleb128 0x3a
 2094 00f5 0B       		.uleb128 0xb
 2095 00f6 3B       		.uleb128 0x3b
 2096 00f7 0B       		.uleb128 0xb
 2097 00f8 01       		.uleb128 0x1
 2098 00f9 13       		.uleb128 0x13
 2099 00fa 00       		.byte	0
 2100 00fb 00       		.byte	0
 2101 00fc 17       		.uleb128 0x17
 2102 00fd 21       		.uleb128 0x21
 2103 00fe 00       		.byte	0
 2104 00ff 49       		.uleb128 0x49
 2105 0100 13       		.uleb128 0x13
 2106 0101 2F       		.uleb128 0x2f
 2107 0102 06       		.uleb128 0x6
 2108 0103 00       		.byte	0
 2109 0104 00       		.byte	0
GAS LISTING C:\cygwin\tmp\ccHd38PY.s 			page 48


 2110 0105 18       		.uleb128 0x18
 2111 0106 2E       		.uleb128 0x2e
 2112 0107 00       		.byte	0
 2113 0108 03       		.uleb128 0x3
 2114 0109 08       		.uleb128 0x8
 2115 010a 3A       		.uleb128 0x3a
 2116 010b 0B       		.uleb128 0xb
 2117 010c 3B       		.uleb128 0x3b
 2118 010d 0B       		.uleb128 0xb
 2119 010e 27       		.uleb128 0x27
 2120 010f 0C       		.uleb128 0xc
 2121 0110 11       		.uleb128 0x11
 2122 0111 01       		.uleb128 0x1
 2123 0112 12       		.uleb128 0x12
 2124 0113 01       		.uleb128 0x1
 2125 0114 40       		.uleb128 0x40
 2126 0115 06       		.uleb128 0x6
 2127 0116 00       		.byte	0
 2128 0117 00       		.byte	0
 2129 0118 19       		.uleb128 0x19
 2130 0119 2E       		.uleb128 0x2e
 2131 011a 01       		.byte	0x1
 2132 011b 03       		.uleb128 0x3
 2133 011c 08       		.uleb128 0x8
 2134 011d 3A       		.uleb128 0x3a
 2135 011e 0B       		.uleb128 0xb
 2136 011f 3B       		.uleb128 0x3b
 2137 0120 0B       		.uleb128 0xb
 2138 0121 27       		.uleb128 0x27
 2139 0122 0C       		.uleb128 0xc
 2140 0123 11       		.uleb128 0x11
 2141 0124 01       		.uleb128 0x1
 2142 0125 12       		.uleb128 0x12
 2143 0126 01       		.uleb128 0x1
 2144 0127 40       		.uleb128 0x40
 2145 0128 06       		.uleb128 0x6
 2146 0129 01       		.uleb128 0x1
 2147 012a 13       		.uleb128 0x13
 2148 012b 00       		.byte	0
 2149 012c 00       		.byte	0
 2150 012d 1A       		.uleb128 0x1a
 2151 012e 34       		.uleb128 0x34
 2152 012f 00       		.byte	0
 2153 0130 03       		.uleb128 0x3
 2154 0131 08       		.uleb128 0x8
 2155 0132 3A       		.uleb128 0x3a
 2156 0133 0B       		.uleb128 0xb
 2157 0134 3B       		.uleb128 0x3b
 2158 0135 0B       		.uleb128 0xb
 2159 0136 49       		.uleb128 0x49
 2160 0137 13       		.uleb128 0x13
 2161 0138 02       		.uleb128 0x2
 2162 0139 0A       		.uleb128 0xa
 2163 013a 00       		.byte	0
 2164 013b 00       		.byte	0
 2165 013c 1B       		.uleb128 0x1b
 2166 013d 2E       		.uleb128 0x2e
GAS LISTING C:\cygwin\tmp\ccHd38PY.s 			page 49


 2167 013e 00       		.byte	0
 2168 013f 03       		.uleb128 0x3
 2169 0140 08       		.uleb128 0x8
 2170 0141 27       		.uleb128 0x27
 2171 0142 0C       		.uleb128 0xc
 2172 0143 34       		.uleb128 0x34
 2173 0144 0C       		.uleb128 0xc
 2174 0145 11       		.uleb128 0x11
 2175 0146 01       		.uleb128 0x1
 2176 0147 12       		.uleb128 0x12
 2177 0148 01       		.uleb128 0x1
 2178 0149 40       		.uleb128 0x40
 2179 014a 06       		.uleb128 0x6
 2180 014b 00       		.byte	0
 2181 014c 00       		.byte	0
 2182 014d 1C       		.uleb128 0x1c
 2183 014e 34       		.uleb128 0x34
 2184 014f 00       		.byte	0
 2185 0150 03       		.uleb128 0x3
 2186 0151 08       		.uleb128 0x8
 2187 0152 3A       		.uleb128 0x3a
 2188 0153 0B       		.uleb128 0xb
 2189 0154 3B       		.uleb128 0x3b
 2190 0155 0B       		.uleb128 0xb
 2191 0156 49       		.uleb128 0x49
 2192 0157 13       		.uleb128 0x13
 2193 0158 3F       		.uleb128 0x3f
 2194 0159 0C       		.uleb128 0xc
 2195 015a 3C       		.uleb128 0x3c
 2196 015b 0C       		.uleb128 0xc
 2197 015c 00       		.byte	0
 2198 015d 00       		.byte	0
 2199 015e 1D       		.uleb128 0x1d
 2200 015f 34       		.uleb128 0x34
 2201 0160 00       		.byte	0
 2202 0161 03       		.uleb128 0x3
 2203 0162 0E       		.uleb128 0xe
 2204 0163 3A       		.uleb128 0x3a
 2205 0164 0B       		.uleb128 0xb
 2206 0165 3B       		.uleb128 0x3b
 2207 0166 0B       		.uleb128 0xb
 2208 0167 49       		.uleb128 0x49
 2209 0168 13       		.uleb128 0x13
 2210 0169 3F       		.uleb128 0x3f
 2211 016a 0C       		.uleb128 0xc
 2212 016b 3C       		.uleb128 0x3c
 2213 016c 0C       		.uleb128 0xc
 2214 016d 00       		.byte	0
 2215 016e 00       		.byte	0
 2216 016f 1E       		.uleb128 0x1e
 2217 0170 34       		.uleb128 0x34
 2218 0171 00       		.byte	0
 2219 0172 03       		.uleb128 0x3
 2220 0173 0E       		.uleb128 0xe
 2221 0174 3A       		.uleb128 0x3a
 2222 0175 0B       		.uleb128 0xb
 2223 0176 3B       		.uleb128 0x3b
GAS LISTING C:\cygwin\tmp\ccHd38PY.s 			page 50


 2224 0177 0B       		.uleb128 0xb
 2225 0178 49       		.uleb128 0x49
 2226 0179 13       		.uleb128 0x13
 2227 017a 3F       		.uleb128 0x3f
 2228 017b 0C       		.uleb128 0xc
 2229 017c 02       		.uleb128 0x2
 2230 017d 0A       		.uleb128 0xa
 2231 017e 00       		.byte	0
 2232 017f 00       		.byte	0
 2233 0180 1F       		.uleb128 0x1f
 2234 0181 34       		.uleb128 0x34
 2235 0182 00       		.byte	0
 2236 0183 03       		.uleb128 0x3
 2237 0184 08       		.uleb128 0x8
 2238 0185 3A       		.uleb128 0x3a
 2239 0186 0B       		.uleb128 0xb
 2240 0187 3B       		.uleb128 0x3b
 2241 0188 0B       		.uleb128 0xb
 2242 0189 49       		.uleb128 0x49
 2243 018a 13       		.uleb128 0x13
 2244 018b 3F       		.uleb128 0x3f
 2245 018c 0C       		.uleb128 0xc
 2246 018d 02       		.uleb128 0x2
 2247 018e 0A       		.uleb128 0xa
 2248 018f 00       		.byte	0
 2249 0190 00       		.byte	0
 2250 0191 00       		.byte	0
 2251              		.section	.debug_loc,"dr"
 2252              	Ldebug_loc0:
 2253              	LLST0:
 2254 0000 00000000 		.long	LFB0-Ltext0
 2255 0004 03000000 		.long	LCFI0-Ltext0
 2256 0008 0200     		.word	0x2
 2257 000a 74       		.byte	0x74
 2258 000b 04       		.sleb128 4
 2259 000c 03000000 		.long	LCFI0-Ltext0
 2260 0010 5A000000 		.long	LCFI1-Ltext0
 2261 0014 0200     		.word	0x2
 2262 0016 74       		.byte	0x74
 2263 0017 20       		.sleb128 32
 2264 0018 5A000000 		.long	LCFI1-Ltext0
 2265 001c 5B000000 		.long	LFE0-Ltext0
 2266 0020 0200     		.word	0x2
 2267 0022 74       		.byte	0x74
 2268 0023 04       		.sleb128 4
 2269 0024 00000000 		.long	0
 2270 0028 00000000 		.long	0
 2271              	LLST1:
 2272 002c 5B000000 		.long	LFB1-Ltext0
 2273 0030 5E000000 		.long	LCFI2-Ltext0
 2274 0034 0200     		.word	0x2
 2275 0036 74       		.byte	0x74
 2276 0037 04       		.sleb128 4
 2277 0038 5E000000 		.long	LCFI2-Ltext0
 2278 003c E20C0000 		.long	LCFI3-Ltext0
 2279 0040 0300     		.word	0x3
 2280 0042 74       		.byte	0x74
GAS LISTING C:\cygwin\tmp\ccHd38PY.s 			page 51


 2281 0043 C000     		.sleb128 64
 2282 0045 E20C0000 		.long	LCFI3-Ltext0
 2283 0049 E30C0000 		.long	LFE1-Ltext0
 2284 004d 0200     		.word	0x2
 2285 004f 74       		.byte	0x74
 2286 0050 04       		.sleb128 4
 2287 0051 00000000 		.long	0
 2288 0055 00000000 		.long	0
 2289              	LLST2:
 2290 0059 E30C0000 		.long	LFB2-Ltext0
 2291 005d E60C0000 		.long	LCFI4-Ltext0
 2292 0061 0200     		.word	0x2
 2293 0063 74       		.byte	0x74
 2294 0064 04       		.sleb128 4
 2295 0065 E60C0000 		.long	LCFI4-Ltext0
 2296 0069 F50C0000 		.long	LCFI5-Ltext0
 2297 006d 0200     		.word	0x2
 2298 006f 74       		.byte	0x74
 2299 0070 20       		.sleb128 32
 2300 0071 F50C0000 		.long	LCFI5-Ltext0
 2301 0075 F60C0000 		.long	LFE2-Ltext0
 2302 0079 0200     		.word	0x2
 2303 007b 74       		.byte	0x74
 2304 007c 04       		.sleb128 4
 2305 007d 00000000 		.long	0
 2306 0081 00000000 		.long	0
 2307              		.section	.debug_aranges,"dr"
 2308 0000 1C000000 		.long	0x1c
 2309 0004 0200     		.word	0x2
 2310 0006 00000000 		.secrel32	Ldebug_info0
 2311 000a 04       		.byte	0x4
 2312 000b 00       		.byte	0
 2313 000c 0000     		.word	0
 2314 000e 0000     		.word	0
 2315 0010 00000000 		.long	Ltext0
 2316 0014 F60C0000 		.long	Letext0-Ltext0
 2317 0018 00000000 		.long	0
 2318 001c 00000000 		.long	0
 2319              		.section	.debug_line,"dr"
 2320              	Ldebug_line0:
 2321 0000 7B020000 		.section	.debug_str,"dr"
 2321      02004401 
 2321      00000101 
 2321      FB0E0D00 
 2321      01010101 
 2322              	LASF1:
 2323 0000 74657374 		.ascii "testheap1\0"
 2323      68656170 
 2323      3100
 2324              	LASF0:
 2325 000a 705F6E65 		.ascii "p_next\0"
 2325      787400
 2326              		.def	_chHeapInit;	.scl	2;	.type	32;	.endef
 2327              		.def	_chCoreStatus;	.scl	2;	.type	32;	.endef
 2328              		.def	_chHeapStatus;	.scl	2;	.type	32;	.endef
 2329              		.def	_chHeapAlloc;	.scl	2;	.type	32;	.endef
 2330              		.def	__test_assert;	.scl	2;	.type	32;	.endef
GAS LISTING C:\cygwin\tmp\ccHd38PY.s 			page 52


 2331              		.def	_chHeapFree;	.scl	2;	.type	32;	.endef
 2332              		.def	___gcov_merge_add;	.scl	2;	.type	32;	.endef
 2333              		.def	___gcov_init;	.scl	2;	.type	32;	.endef
GAS LISTING C:\cygwin\tmp\ccHd38PY.s 			page 53


DEFINED SYMBOLS
                            *ABS*:00000000 testheap.c
C:\cygwin\tmp\ccHd38PY.s:42     .bss:00000000 _test_heap
C:\cygwin\tmp\ccHd38PY.s:44     .text:00000000 _heap1_setup
C:\cygwin\tmp\ccHd38PY.s:78     .text:0000005b _heap1_execute
C:\cygwin\tmp\ccHd38PY.s:887    .rdata:00000028 _testheap1
C:\cygwin\tmp\ccHd38PY.s:898    .rdata:00000038 _patternheap
C:\cygwin\tmp\ccHd38PY.s:946    .text:00000ce3 __GLOBAL__sub_I_65535_0_testheap1

UNDEFINED SYMBOLS
_test
_chHeapInit
_chCoreStatus
_chHeapStatus
_chHeapAlloc
__test_assert
_chHeapFree
___gcov_merge_add
___gcov_init
