GAS LISTING C:\cygwin\tmp\ccwpE9RZ.s 			page 1


   1              		.file	"testqueues.c"
   2              	 # GNU C (GCC) version 4.6.2 (mingw32)
   3              	 #	compiled by GNU C version 4.6.2, GMP version 5.0.1, MPFR version 2.4.1, MPC version 0.8.1
   4              	 # GGC heuristics: --param ggc-min-expand=100 --param ggc-min-heapsize=131072
   5              	 # options passed:  -I . -I ../../os/ports/GCC/SIMIA32
   6              	 # -I ../../os/kernel/include -I ../../test -I ../../os/hal/include
   7              	 # -I ../../os/hal/platforms/Win32 -I ../../boards/simulator
   8              	 # -I ../../os/various -iprefix c:\mingw\bin\../lib/gcc/mingw32/4.6.2/
   9              	 # -MD ../../test/testqueues.d -MF .dep/testqueues.o.d -MP
  10              	 # -MQ ../../test/testqueues.o -D SIMULATOR ../../test/testqueues.c
  11              	 # -mtune=i386 -march=i386 -auxbase-strip ../../test/testqueues.o -ggdb -O0
  12              	 # -Wall -Wextra -Wstrict-prototypes -fomit-frame-pointer -fprofile-arcs
  13              	 # -ftest-coverage -fverbose-asm
  14              	 # options enabled:  -fasynchronous-unwind-tables -fauto-inc-dec
  15              	 # -fbranch-count-reg -fcommon -fdelete-null-pointer-checks
  16              	 # -fdwarf2-cfi-asm -fearly-inlining -feliminate-unused-debug-types
  17              	 # -ffunction-cse -fgcse-lm -fident -finline-functions-called-once
  18              	 # -fira-share-save-slots -fira-share-spill-slots -fivopts
  19              	 # -fkeep-inline-dllexport -fkeep-static-consts -fleading-underscore
  20              	 # -fmath-errno -fmerge-debug-strings -fmove-loop-invariants
  21              	 # -fomit-frame-pointer -fpeephole -fprefetch-loop-arrays -fprofile-arcs
  22              	 # -freg-struct-return -fsched-critical-path-heuristic
  23              	 # -fsched-dep-count-heuristic -fsched-group-heuristic -fsched-interblock
  24              	 # -fsched-last-insn-heuristic -fsched-rank-heuristic -fsched-spec
  25              	 # -fsched-spec-insn-heuristic -fsched-stalled-insns-dep
  26              	 # -fset-stack-executable -fshow-column -fsigned-zeros
  27              	 # -fsplit-ivs-in-unroller -fstrict-volatile-bitfields -ftest-coverage
  28              	 # -ftrapping-math -ftree-cselim -ftree-forwprop -ftree-loop-if-convert
  29              	 # -ftree-loop-im -ftree-loop-ivcanon -ftree-loop-optimize
  30              	 # -ftree-parallelize-loops= -ftree-phiprop -ftree-pta -ftree-reassoc
  31              	 # -ftree-scev-cprop -ftree-slp-vectorize -ftree-vect-loop-version
  32              	 # -funit-at-a-time -funwind-tables -fvect-cost-model -fverbose-asm
  33              	 # -fzero-initialized-in-bss -m32 -m80387 -m96bit-long-double
  34              	 # -maccumulate-outgoing-args -malign-double -malign-stringops
  35              	 # -mfancy-math-387 -mfp-ret-in-387 -mieee-fp -mno-red-zone -mno-sse4
  36              	 # -mpush-args -msahf -mstack-arg-probe
  37              	
  38              		.text
  39              	Ltext0:
  40              	 # Compiler executable checksum: c20aed7c018482d7b62efcd5dcab2a9d
  41              	
  42              		.def	_notify;	.scl	3;	.type	32;	.endef
  43              	_notify:
  44              	LFB0:
  45              		.file 1 "../../test/testqueues.c"
  46              		.loc 1 61 0
  47              		.cfi_startproc
  48 0000 83EC04   		subl	$4, %esp	 #,
  49              	LCFI0:
  50              		.cfi_def_cfa_offset 8
  51              		.loc 1 61 0
  52 0003 A1F80400 		movl	LPBX1+1272, %eax	 # *LPBX1, PROF_edge_counter.9
  52      00
  53 0008 8B15FC04 		movl	LPBX1+1276, %edx	 # *LPBX1, PROF_edge_counter.9
  53      0000
  54 000e 83C001   		addl	$1, %eax	 #, PROF_edge_counter.9
  55 0011 83D200   		adcl	$0, %edx	 #, PROF_edge_counter.9
GAS LISTING C:\cygwin\tmp\ccwpE9RZ.s 			page 2


  56 0014 A3F80400 		movl	%eax, LPBX1+1272	 # PROF_edge_counter.9, *LPBX1
  56      00
  57 0019 8915FC04 		movl	%edx, LPBX1+1276	 # PROF_edge_counter.9, *LPBX1
  57      0000
  58              		.loc 1 63 0
  59 001f 83C404   		addl	$4, %esp	 #,
  60              	LCFI1:
  61              		.cfi_def_cfa_offset 4
  62 0022 C3       		ret
  63              		.cfi_endproc
  64              	LFE0:
  65              		.data
  66              		.align 32
  67              	_iq:
  68              	 # q_waiting:
  69              	 # p_next:
  70 0000 00000000 		.long	_iq
  71              	 # p_prev:
  72 0004 00000000 		.long	_iq
  73              	 # q_counter:
  74 0008 00000000 		.long	0
  75              	 # q_buffer:
  76 000c 00000000 		.long	_test
  77              	 # q_top:
  78 0010 04000000 		.long	_test+4
  79              	 # q_wrptr:
  80 0014 00000000 		.long	_test
  81              	 # q_rdptr:
  82 0018 00000000 		.long	_test
  83              	 # q_notify:
  84 001c 00000000 		.long	_notify
  85              	 # q_link:
  86 0020 00000000 		.long	0
  87 0024 00000000 		.align 32
  87      00000000 
  87      00000000 
  87      00000000 
  87      00000000 
  88              	_oq:
  89              	 # q_waiting:
  90              	 # p_next:
  91 0040 40000000 		.long	_oq
  92              	 # p_prev:
  93 0044 40000000 		.long	_oq
  94              	 # q_counter:
  95 0048 04000000 		.long	4
  96              	 # q_buffer:
  97 004c 70420000 		.long	_test+17008
  98              	 # q_top:
  99 0050 74420000 		.long	_test+17012
 100              	 # q_wrptr:
 101 0054 70420000 		.long	_test+17008
 102              	 # q_rdptr:
 103 0058 70420000 		.long	_test+17008
 104              	 # q_notify:
 105 005c 00000000 		.long	_notify
 106              	 # q_link:
GAS LISTING C:\cygwin\tmp\ccwpE9RZ.s 			page 3


 107 0060 00000000 		.long	0
 108              		.text
 109              		.def	_queues1_setup;	.scl	3;	.type	32;	.endef
 110              	_queues1_setup:
 111              	LFB1:
 112              		.loc 1 82 0
 113              		.cfi_startproc
 114 0023 83EC2C   		subl	$44, %esp	 #,
 115              	LCFI2:
 116              		.cfi_def_cfa_offset 48
 117              		.loc 1 82 0
 118 0026 A1E80400 		movl	LPBX1+1256, %eax	 # *LPBX1, PROF_edge_counter.8
 118      00
 119 002b 8B15EC04 		movl	LPBX1+1260, %edx	 # *LPBX1, PROF_edge_counter.8
 119      0000
 120 0031 83C001   		addl	$1, %eax	 #, PROF_edge_counter.8
 121 0034 83D200   		adcl	$0, %edx	 #, PROF_edge_counter.8
 122 0037 A3E80400 		movl	%eax, LPBX1+1256	 # PROF_edge_counter.8, *LPBX1
 122      00
 123 003c 8915EC04 		movl	%edx, LPBX1+1260	 # PROF_edge_counter.8, *LPBX1
 123      0000
 124              		.loc 1 84 0
 125 0042 A1000000 		movl	_wa, %eax	 # wa, D.3036
 125      00
 126 0047 C7442410 		movl	$0, 16(%esp)	 #,
 126      00000000 
 127 004f C744240C 		movl	$_notify, 12(%esp)	 #,
 127      00000000 
 128 0057 C7442408 		movl	$4, 8(%esp)	 #,
 128      04000000 
 129 005f 89442404 		movl	%eax, 4(%esp)	 # D.3036,
 130 0063 C7042400 		movl	$_iq, (%esp)	 #,
 130      000000
 131 006a E8000000 		call	_chIQInit	 #
 131      00
 132 006f A1F00400 		movl	LPBX1+1264, %eax	 # *LPBX1, PROF_edge_counter.8
 132      00
 133 0074 8B15F404 		movl	LPBX1+1268, %edx	 # *LPBX1, PROF_edge_counter.8
 133      0000
 134 007a 83C001   		addl	$1, %eax	 #, PROF_edge_counter.8
 135 007d 83D200   		adcl	$0, %edx	 #, PROF_edge_counter.8
 136 0080 A3F00400 		movl	%eax, LPBX1+1264	 # PROF_edge_counter.8, *LPBX1
 136      00
 137 0085 8915F404 		movl	%edx, LPBX1+1268	 # PROF_edge_counter.8, *LPBX1
 137      0000
 138              		.loc 1 85 0
 139 008b 83C42C   		addl	$44, %esp	 #,
 140              	LCFI3:
 141              		.cfi_def_cfa_offset 4
 142 008e C3       		ret
 143              		.cfi_endproc
 144              	LFE1:
 145              		.def	_thread1;	.scl	3;	.type	32;	.endef
 146              	_thread1:
 147              	LFB2:
 148              		.loc 1 87 0
 149              		.cfi_startproc
GAS LISTING C:\cygwin\tmp\ccwpE9RZ.s 			page 4


 150 008f 83EC1C   		subl	$28, %esp	 #,
 151              	LCFI4:
 152              		.cfi_def_cfa_offset 32
 153              		.loc 1 87 0
 154 0092 A1D80400 		movl	LPBX1+1240, %eax	 # *LPBX1, PROF_edge_counter.7
 154      00
 155 0097 8B15DC04 		movl	LPBX1+1244, %edx	 # *LPBX1, PROF_edge_counter.7
 155      0000
 156 009d 83C001   		addl	$1, %eax	 #, PROF_edge_counter.7
 157 00a0 83D200   		adcl	$0, %edx	 #, PROF_edge_counter.7
 158 00a3 A3D80400 		movl	%eax, LPBX1+1240	 # PROF_edge_counter.7, *LPBX1
 158      00
 159 00a8 8915DC04 		movl	%edx, LPBX1+1244	 # PROF_edge_counter.7, *LPBX1
 159      0000
 160              		.loc 1 90 0
 161 00ae C7442404 		movl	$200, 4(%esp)	 #,
 161      C8000000 
 162 00b6 C7042400 		movl	$_iq, (%esp)	 #,
 162      000000
 163 00bd E8000000 		call	_chIQGetTimeout	 #
 163      00
 164 00c2 A1E00400 		movl	LPBX1+1248, %eax	 # *LPBX1, PROF_edge_counter.7
 164      00
 165 00c7 8B15E404 		movl	LPBX1+1252, %edx	 # *LPBX1, PROF_edge_counter.7
 165      0000
 166 00cd 83C001   		addl	$1, %eax	 #, PROF_edge_counter.7
 167 00d0 83D200   		adcl	$0, %edx	 #, PROF_edge_counter.7
 168 00d3 A3E00400 		movl	%eax, LPBX1+1248	 # PROF_edge_counter.7, *LPBX1
 168      00
 169 00d8 8915E404 		movl	%edx, LPBX1+1252	 # PROF_edge_counter.7, *LPBX1
 169      0000
 170              		.loc 1 91 0
 171 00de B8000000 		movl	$0, %eax	 #, D.3034
 171      00
 172              		.loc 1 92 0
 173 00e3 83C41C   		addl	$28, %esp	 #,
 174              	LCFI5:
 175              		.cfi_def_cfa_offset 4
 176 00e6 C3       		ret
 177              		.cfi_endproc
 178              	LFE2:
 179              		.section .rdata,"dr"
 180              	LC0:
 181 0000 41424344 		.ascii "ABCD\0"
 181      00
 182              		.text
 183              		.def	_queues1_execute;	.scl	3;	.type	32;	.endef
 184              	_queues1_execute:
 185              	LFB3:
 186              		.loc 1 94 0
 187              		.cfi_startproc
 188 00e7 83EC3C   		subl	$60, %esp	 #,
 189              	LCFI6:
 190              		.cfi_def_cfa_offset 64
 191              		.loc 1 94 0
 192 00ea A1600200 		movl	LPBX1+608, %eax	 # *LPBX1, PROF_edge_counter.6
 192      00
GAS LISTING C:\cygwin\tmp\ccwpE9RZ.s 			page 5


 193 00ef 8B156402 		movl	LPBX1+612, %edx	 # *LPBX1, PROF_edge_counter.6
 193      0000
 194 00f5 83C001   		addl	$1, %eax	 #, PROF_edge_counter.6
 195 00f8 83D200   		adcl	$0, %edx	 #, PROF_edge_counter.6
 196 00fb A3600200 		movl	%eax, LPBX1+608	 # PROF_edge_counter.6, *LPBX1
 196      00
 197 0100 89156402 		movl	%edx, LPBX1+612	 # PROF_edge_counter.6, *LPBX1
 197      0000
 198              		.loc 1 99 0
 199              	/APP
 200              	 # 99 "../../test/testqueues.c" 1
 201 0106 90       		nop
 202              	 # 0 "" 2
 203              	/NO_APP
 204 0107 A1680200 		movl	LPBX1+616, %eax	 # *LPBX1, PROF_edge_counter.6
 204      00
 205 010c 8B156C02 		movl	LPBX1+620, %edx	 # *LPBX1, PROF_edge_counter.6
 205      0000
 206 0112 83C001   		addl	$1, %eax	 #, PROF_edge_counter.6
 207 0115 83D200   		adcl	$0, %edx	 #, PROF_edge_counter.6
 208 0118 A3680200 		movl	%eax, LPBX1+616	 # PROF_edge_counter.6, *LPBX1
 208      00
 209 011d 89156C02 		movl	%edx, LPBX1+620	 # PROF_edge_counter.6, *LPBX1
 209      0000
 210 0123 A1080000 		movl	_iq+8, %eax	 # iq.q_counter, D.2945
 210      00
 211 0128 85C0     		testl	%eax, %eax	 # D.2945
 212 012a 0F94C0   		sete	%al	 #, tmp275
 213 012d 0FB6C0   		movzbl	%al, %eax	 # tmp275, D.2946
 214 0130 89442404 		movl	%eax, 4(%esp)	 # D.2946,
 215 0134 C7042401 		movl	$1, (%esp)	 #,
 215      000000
 216 013b E8000000 		call	__test_assert	 #
 216      00
 217 0140 84C0     		testb	%al, %al	 # D.2947
 218 0142 743E     		je	L5	 #,
 219              		.loc 1 99 0 is_stmt 0 discriminator 1
 220 0144 A1700200 		movl	LPBX1+624, %eax	 # *LPBX1, PROF_edge_counter.6
 220      00
 221 0149 8B157402 		movl	LPBX1+628, %edx	 # *LPBX1, PROF_edge_counter.6
 221      0000
 222 014f 83C001   		addl	$1, %eax	 #, PROF_edge_counter.6
 223 0152 83D200   		adcl	$0, %edx	 #, PROF_edge_counter.6
 224 0155 A3700200 		movl	%eax, LPBX1+624	 # PROF_edge_counter.6, *LPBX1
 224      00
 225 015a 89157402 		movl	%edx, LPBX1+628	 # PROF_edge_counter.6, *LPBX1
 225      0000
 226              	/APP
 227              	 # 99 "../../test/testqueues.c" 1
 228 0160 90       		nop
 229              	 # 0 "" 2
 230              	/NO_APP
 231 0161 A1800200 		movl	LPBX1+640, %eax	 # *LPBX1, PROF_edge_counter.6
 231      00
 232 0166 8B158402 		movl	LPBX1+644, %edx	 # *LPBX1, PROF_edge_counter.6
 232      0000
 233 016c 83C001   		addl	$1, %eax	 #, PROF_edge_counter.6
GAS LISTING C:\cygwin\tmp\ccwpE9RZ.s 			page 6


 234 016f 83D200   		adcl	$0, %edx	 #, PROF_edge_counter.6
 235 0172 A3800200 		movl	%eax, LPBX1+640	 # PROF_edge_counter.6, *LPBX1
 235      00
 236 0177 89158402 		movl	%edx, LPBX1+644	 # PROF_edge_counter.6, *LPBX1
 236      0000
 237 017d E9ED0B00 		jmp	L4	 #
 237      00
 238              	L5:
 239              		.loc 1 99 0 discriminator 2
 240 0182 A1780200 		movl	LPBX1+632, %eax	 # *LPBX1, PROF_edge_counter.6
 240      00
 241 0187 8B157C02 		movl	LPBX1+636, %edx	 # *LPBX1, PROF_edge_counter.6
 241      0000
 242 018d 83C001   		addl	$1, %eax	 #, PROF_edge_counter.6
 243 0190 83D200   		adcl	$0, %edx	 #, PROF_edge_counter.6
 244 0193 A3780200 		movl	%eax, LPBX1+632	 # PROF_edge_counter.6, *LPBX1
 244      00
 245 0198 89157C02 		movl	%edx, LPBX1+636	 # PROF_edge_counter.6, *LPBX1
 245      0000
 246              	/APP
 247              	 # 99 "../../test/testqueues.c" 1
 248 019e 90       		nop
 249              	 # 0 "" 2
 250              	/NO_APP
 251 019f A1880200 		movl	LPBX1+648, %eax	 # *LPBX1, PROF_edge_counter.6
 251      00
 252 01a4 8B158C02 		movl	LPBX1+652, %edx	 # *LPBX1, PROF_edge_counter.6
 252      0000
 253 01aa 83C001   		addl	$1, %eax	 #, PROF_edge_counter.6
 254 01ad 83D200   		adcl	$0, %edx	 #, PROF_edge_counter.6
 255 01b0 A3880200 		movl	%eax, LPBX1+648	 # PROF_edge_counter.6, *LPBX1
 255      00
 256 01b5 89158C02 		movl	%edx, LPBX1+652	 # PROF_edge_counter.6, *LPBX1
 256      0000
 257              		.loc 1 102 0 is_stmt 1 discriminator 2
 258              	/APP
 259              	 # 102 "../../test/testqueues.c" 1
 260 01bb 90       		nop
 261              	 # 0 "" 2
 262              		.loc 1 103 0 discriminator 2
 263              	/NO_APP
 264 01bc C744242C 		movl	$0, 44(%esp)	 #, i
 264      00000000 
 265 01c4 EB56     		jmp	L7	 #
 266              	L8:
 267 01c6 A1980200 		movl	LPBX1+664, %eax	 # *LPBX1, PROF_edge_counter.6
 267      00
 268 01cb 8B159C02 		movl	LPBX1+668, %edx	 # *LPBX1, PROF_edge_counter.6
 268      0000
 269 01d1 83C001   		addl	$1, %eax	 #, PROF_edge_counter.6
 270 01d4 83D200   		adcl	$0, %edx	 #, PROF_edge_counter.6
 271 01d7 A3980200 		movl	%eax, LPBX1+664	 # PROF_edge_counter.6, *LPBX1
 271      00
 272 01dc 89159C02 		movl	%edx, LPBX1+668	 # PROF_edge_counter.6, *LPBX1
 272      0000
 273              		.loc 1 104 0 discriminator 2
 274 01e2 8B44242C 		movl	44(%esp), %eax	 # i, tmp276
GAS LISTING C:\cygwin\tmp\ccwpE9RZ.s 			page 7


 275 01e6 83C041   		addl	$65, %eax	 #, D.2951
 276 01e9 0FB6C0   		movzbl	%al, %eax	 # D.2951, D.2952
 277 01ec 89442404 		movl	%eax, 4(%esp)	 # D.2952,
 278 01f0 C7042400 		movl	$_iq, (%esp)	 #,
 278      000000
 279 01f7 E8000000 		call	_chIQPutI	 #
 279      00
 280              		.loc 1 103 0 discriminator 2
 281 01fc FF44242C 		incl	44(%esp)	 # i
 282 0200 A1900200 		movl	LPBX1+656, %eax	 # *LPBX1, PROF_edge_counter.6
 282      00
 283 0205 8B159402 		movl	LPBX1+660, %edx	 # *LPBX1, PROF_edge_counter.6
 283      0000
 284 020b 83C001   		addl	$1, %eax	 #, PROF_edge_counter.6
 285 020e 83D200   		adcl	$0, %edx	 #, PROF_edge_counter.6
 286 0211 A3900200 		movl	%eax, LPBX1+656	 # PROF_edge_counter.6, *LPBX1
 286      00
 287 0216 89159402 		movl	%edx, LPBX1+660	 # PROF_edge_counter.6, *LPBX1
 287      0000
 288              	L7:
 289              		.loc 1 103 0 is_stmt 0 discriminator 1
 290 021c 837C242C 		cmpl	$3, 44(%esp)	 #, i
 290      03
 291 0221 76A3     		jbe	L8	 #,
 292              		.loc 1 103 0
 293 0223 A1A00200 		movl	LPBX1+672, %eax	 # *LPBX1, PROF_edge_counter.6
 293      00
 294 0228 8B15A402 		movl	LPBX1+676, %edx	 # *LPBX1, PROF_edge_counter.6
 294      0000
 295 022e 83C001   		addl	$1, %eax	 #, PROF_edge_counter.6
 296 0231 83D200   		adcl	$0, %edx	 #, PROF_edge_counter.6
 297 0234 A3A00200 		movl	%eax, LPBX1+672	 # PROF_edge_counter.6, *LPBX1
 297      00
 298 0239 8915A402 		movl	%edx, LPBX1+676	 # PROF_edge_counter.6, *LPBX1
 298      0000
 299              		.loc 1 105 0 is_stmt 1
 300              	/APP
 301              	 # 105 "../../test/testqueues.c" 1
 302 023f 90       		nop
 303              	 # 0 "" 2
 304              	/NO_APP
 305 0240 A1A80200 		movl	LPBX1+680, %eax	 # *LPBX1, PROF_edge_counter.6
 305      00
 306 0245 8B15AC02 		movl	LPBX1+684, %edx	 # *LPBX1, PROF_edge_counter.6
 306      0000
 307 024b 83C001   		addl	$1, %eax	 #, PROF_edge_counter.6
 308 024e 83D200   		adcl	$0, %edx	 #, PROF_edge_counter.6
 309 0251 A3A80200 		movl	%eax, LPBX1+680	 # PROF_edge_counter.6, *LPBX1
 309      00
 310 0256 8915AC02 		movl	%edx, LPBX1+684	 # PROF_edge_counter.6, *LPBX1
 310      0000
 311              		.loc 1 106 0
 312              	/APP
 313              	 # 106 "../../test/testqueues.c" 1
 314 025c 90       		nop
 315              	 # 0 "" 2
 316              	/NO_APP
GAS LISTING C:\cygwin\tmp\ccwpE9RZ.s 			page 8


 317 025d 8B151400 		movl	_iq+20, %edx	 # iq.q_wrptr, D.2956
 317      0000
 318 0263 A1180000 		movl	_iq+24, %eax	 # iq.q_rdptr, D.2957
 318      00
 319 0268 39C2     		cmpl	%eax, %edx	 # D.2957, D.2956
 320 026a 7548     		jne	L9	 #,
 321              		.loc 1 106 0 is_stmt 0 discriminator 1
 322 026c A1B00200 		movl	LPBX1+688, %eax	 # *LPBX1, PROF_edge_counter.6
 322      00
 323 0271 8B15B402 		movl	LPBX1+692, %edx	 # *LPBX1, PROF_edge_counter.6
 323      0000
 324 0277 83C001   		addl	$1, %eax	 #, PROF_edge_counter.6
 325 027a 83D200   		adcl	$0, %edx	 #, PROF_edge_counter.6
 326 027d A3B00200 		movl	%eax, LPBX1+688	 # PROF_edge_counter.6, *LPBX1
 326      00
 327 0282 8915B402 		movl	%edx, LPBX1+692	 # PROF_edge_counter.6, *LPBX1
 327      0000
 328 0288 A1080000 		movl	_iq+8, %eax	 # iq.q_counter, D.2959
 328      00
 329 028d 85C0     		testl	%eax, %eax	 # D.2959
 330 028f 7423     		je	L9	 #,
 331              		.loc 1 106 0 discriminator 3
 332 0291 B9010000 		movl	$1, %ecx	 #, iftmp.2
 332      00
 333 0296 A1B80200 		movl	LPBX1+696, %eax	 # *LPBX1, PROF_edge_counter.6
 333      00
 334 029b 8B15BC02 		movl	LPBX1+700, %edx	 # *LPBX1, PROF_edge_counter.6
 334      0000
 335 02a1 83C001   		addl	$1, %eax	 #, PROF_edge_counter.6
 336 02a4 83D200   		adcl	$0, %edx	 #, PROF_edge_counter.6
 337 02a7 A3B80200 		movl	%eax, LPBX1+696	 # PROF_edge_counter.6, *LPBX1
 337      00
 338 02ac 8915BC02 		movl	%edx, LPBX1+700	 # PROF_edge_counter.6, *LPBX1
 338      0000
 339 02b2 EB21     		jmp	L10	 #
 340              	L9:
 341              		.loc 1 106 0 discriminator 2
 342 02b4 B9000000 		movl	$0, %ecx	 #, iftmp.2
 342      00
 343 02b9 A1C00200 		movl	LPBX1+704, %eax	 # *LPBX1, PROF_edge_counter.6
 343      00
 344 02be 8B15C402 		movl	LPBX1+708, %edx	 # *LPBX1, PROF_edge_counter.6
 344      0000
 345 02c4 83C001   		addl	$1, %eax	 #, PROF_edge_counter.6
 346 02c7 83D200   		adcl	$0, %edx	 #, PROF_edge_counter.6
 347 02ca A3C00200 		movl	%eax, LPBX1+704	 # PROF_edge_counter.6, *LPBX1
 347      00
 348 02cf 8915C402 		movl	%edx, LPBX1+708	 # PROF_edge_counter.6, *LPBX1
 348      0000
 349              	L10:
 350              		.loc 1 106 0 discriminator 4
 351 02d5 88C8     		movb	%cl, %al	 # iftmp.2, D.2961
 352 02d7 0FB6C0   		movzbl	%al, %eax	 # D.2961, D.2962
 353 02da 89442404 		movl	%eax, 4(%esp)	 # D.2962,
 354 02de C7042402 		movl	$2, (%esp)	 #,
 354      000000
 355 02e5 E8000000 		call	__test_assert	 #
GAS LISTING C:\cygwin\tmp\ccwpE9RZ.s 			page 9


 355      00
 356 02ea 84C0     		testb	%al, %al	 # D.2963
 357 02ec 743E     		je	L11	 #,
 358              		.loc 1 106 0 discriminator 5
 359 02ee A1C80200 		movl	LPBX1+712, %eax	 # *LPBX1, PROF_edge_counter.6
 359      00
 360 02f3 8B15CC02 		movl	LPBX1+716, %edx	 # *LPBX1, PROF_edge_counter.6
 360      0000
 361 02f9 83C001   		addl	$1, %eax	 #, PROF_edge_counter.6
 362 02fc 83D200   		adcl	$0, %edx	 #, PROF_edge_counter.6
 363 02ff A3C80200 		movl	%eax, LPBX1+712	 # PROF_edge_counter.6, *LPBX1
 363      00
 364 0304 8915CC02 		movl	%edx, LPBX1+716	 # PROF_edge_counter.6, *LPBX1
 364      0000
 365              	/APP
 366              	 # 106 "../../test/testqueues.c" 1
 367 030a 90       		nop
 368              	 # 0 "" 2
 369              	/NO_APP
 370 030b A1D80200 		movl	LPBX1+728, %eax	 # *LPBX1, PROF_edge_counter.6
 370      00
 371 0310 8B15DC02 		movl	LPBX1+732, %edx	 # *LPBX1, PROF_edge_counter.6
 371      0000
 372 0316 83C001   		addl	$1, %eax	 #, PROF_edge_counter.6
 373 0319 83D200   		adcl	$0, %edx	 #, PROF_edge_counter.6
 374 031c A3D80200 		movl	%eax, LPBX1+728	 # PROF_edge_counter.6, *LPBX1
 374      00
 375 0321 8915DC02 		movl	%edx, LPBX1+732	 # PROF_edge_counter.6, *LPBX1
 375      0000
 376 0327 E9430A00 		jmp	L4	 #
 376      00
 377              	L11:
 378              		.loc 1 106 0 discriminator 6
 379 032c A1D00200 		movl	LPBX1+720, %eax	 # *LPBX1, PROF_edge_counter.6
 379      00
 380 0331 8B15D402 		movl	LPBX1+724, %edx	 # *LPBX1, PROF_edge_counter.6
 380      0000
 381 0337 83C001   		addl	$1, %eax	 #, PROF_edge_counter.6
 382 033a 83D200   		adcl	$0, %edx	 #, PROF_edge_counter.6
 383 033d A3D00200 		movl	%eax, LPBX1+720	 # PROF_edge_counter.6, *LPBX1
 383      00
 384 0342 8915D402 		movl	%edx, LPBX1+724	 # PROF_edge_counter.6, *LPBX1
 384      0000
 385              	/APP
 386              	 # 106 "../../test/testqueues.c" 1
 387 0348 90       		nop
 388              	 # 0 "" 2
 389              	/NO_APP
 390 0349 A1E00200 		movl	LPBX1+736, %eax	 # *LPBX1, PROF_edge_counter.6
 390      00
 391 034e 8B15E402 		movl	LPBX1+740, %edx	 # *LPBX1, PROF_edge_counter.6
 391      0000
 392 0354 83C001   		addl	$1, %eax	 #, PROF_edge_counter.6
 393 0357 83D200   		adcl	$0, %edx	 #, PROF_edge_counter.6
 394 035a A3E00200 		movl	%eax, LPBX1+736	 # PROF_edge_counter.6, *LPBX1
 394      00
 395 035f 8915E402 		movl	%edx, LPBX1+740	 # PROF_edge_counter.6, *LPBX1
GAS LISTING C:\cygwin\tmp\ccwpE9RZ.s 			page 10


 395      0000
 396              		.loc 1 107 0 is_stmt 1 discriminator 6
 397              	/APP
 398              	 # 107 "../../test/testqueues.c" 1
 399 0365 90       		nop
 400              	 # 0 "" 2
 401              	/NO_APP
 402 0366 A1E80200 		movl	LPBX1+744, %eax	 # *LPBX1, PROF_edge_counter.6
 402      00
 403 036b 8B15EC02 		movl	LPBX1+748, %edx	 # *LPBX1, PROF_edge_counter.6
 403      0000
 404 0371 83C001   		addl	$1, %eax	 #, PROF_edge_counter.6
 405 0374 83D200   		adcl	$0, %edx	 #, PROF_edge_counter.6
 406 0377 A3E80200 		movl	%eax, LPBX1+744	 # PROF_edge_counter.6, *LPBX1
 406      00
 407 037c 8915EC02 		movl	%edx, LPBX1+748	 # PROF_edge_counter.6, *LPBX1
 407      0000
 408 0382 C7442404 		movl	$0, 4(%esp)	 #,
 408      00000000 
 409 038a C7042400 		movl	$_iq, (%esp)	 #,
 409      000000
 410 0391 E8000000 		call	_chIQPutI	 #
 410      00
 411 0396 89C1     		movl	%eax, %ecx	 #, D.2966
 412 0398 A1F00200 		movl	LPBX1+752, %eax	 # *LPBX1, PROF_edge_counter.6
 412      00
 413 039d 8B15F402 		movl	LPBX1+756, %edx	 # *LPBX1, PROF_edge_counter.6
 413      0000
 414 03a3 83C001   		addl	$1, %eax	 #, PROF_edge_counter.6
 415 03a6 83D200   		adcl	$0, %edx	 #, PROF_edge_counter.6
 416 03a9 A3F00200 		movl	%eax, LPBX1+752	 # PROF_edge_counter.6, *LPBX1
 416      00
 417 03ae 8915F402 		movl	%edx, LPBX1+756	 # PROF_edge_counter.6, *LPBX1
 417      0000
 418 03b4 83F9FC   		cmpl	$-4, %ecx	 #, D.2966
 419 03b7 0F94C0   		sete	%al	 #, tmp277
 420 03ba 0FB6C0   		movzbl	%al, %eax	 # tmp277, D.2967
 421 03bd 89442404 		movl	%eax, 4(%esp)	 # D.2967,
 422 03c1 C7042403 		movl	$3, (%esp)	 #,
 422      000000
 423 03c8 E8000000 		call	__test_assert	 #
 423      00
 424 03cd 84C0     		testb	%al, %al	 # D.2968
 425 03cf 743E     		je	L12	 #,
 426              		.loc 1 107 0 is_stmt 0 discriminator 1
 427 03d1 A1F80200 		movl	LPBX1+760, %eax	 # *LPBX1, PROF_edge_counter.6
 427      00
 428 03d6 8B15FC02 		movl	LPBX1+764, %edx	 # *LPBX1, PROF_edge_counter.6
 428      0000
 429 03dc 83C001   		addl	$1, %eax	 #, PROF_edge_counter.6
 430 03df 83D200   		adcl	$0, %edx	 #, PROF_edge_counter.6
 431 03e2 A3F80200 		movl	%eax, LPBX1+760	 # PROF_edge_counter.6, *LPBX1
 431      00
 432 03e7 8915FC02 		movl	%edx, LPBX1+764	 # PROF_edge_counter.6, *LPBX1
 432      0000
 433              	/APP
 434              	 # 107 "../../test/testqueues.c" 1
GAS LISTING C:\cygwin\tmp\ccwpE9RZ.s 			page 11


 435 03ed 90       		nop
 436              	 # 0 "" 2
 437              	/NO_APP
 438 03ee A1080300 		movl	LPBX1+776, %eax	 # *LPBX1, PROF_edge_counter.6
 438      00
 439 03f3 8B150C03 		movl	LPBX1+780, %edx	 # *LPBX1, PROF_edge_counter.6
 439      0000
 440 03f9 83C001   		addl	$1, %eax	 #, PROF_edge_counter.6
 441 03fc 83D200   		adcl	$0, %edx	 #, PROF_edge_counter.6
 442 03ff A3080300 		movl	%eax, LPBX1+776	 # PROF_edge_counter.6, *LPBX1
 442      00
 443 0404 89150C03 		movl	%edx, LPBX1+780	 # PROF_edge_counter.6, *LPBX1
 443      0000
 444 040a E9600900 		jmp	L4	 #
 444      00
 445              	L12:
 446              		.loc 1 107 0 discriminator 2
 447 040f A1000300 		movl	LPBX1+768, %eax	 # *LPBX1, PROF_edge_counter.6
 447      00
 448 0414 8B150403 		movl	LPBX1+772, %edx	 # *LPBX1, PROF_edge_counter.6
 448      0000
 449 041a 83C001   		addl	$1, %eax	 #, PROF_edge_counter.6
 450 041d 83D200   		adcl	$0, %edx	 #, PROF_edge_counter.6
 451 0420 A3000300 		movl	%eax, LPBX1+768	 # PROF_edge_counter.6, *LPBX1
 451      00
 452 0425 89150403 		movl	%edx, LPBX1+772	 # PROF_edge_counter.6, *LPBX1
 452      0000
 453              	/APP
 454              	 # 107 "../../test/testqueues.c" 1
 455 042b 90       		nop
 456              	 # 0 "" 2
 457              		.loc 1 110 0 is_stmt 1 discriminator 2
 458              	/NO_APP
 459 042c C744242C 		movl	$0, 44(%esp)	 #, i
 459      00000000 
 460 0434 EB7B     		jmp	L13	 #
 461              	L14:
 462 0436 A1200300 		movl	LPBX1+800, %eax	 # *LPBX1, PROF_edge_counter.6
 462      00
 463 043b 8B152403 		movl	LPBX1+804, %edx	 # *LPBX1, PROF_edge_counter.6
 463      0000
 464 0441 83C001   		addl	$1, %eax	 #, PROF_edge_counter.6
 465 0444 83D200   		adcl	$0, %edx	 #, PROF_edge_counter.6
 466 0447 A3200300 		movl	%eax, LPBX1+800	 # PROF_edge_counter.6, *LPBX1
 466      00
 467 044c 89152403 		movl	%edx, LPBX1+804	 # PROF_edge_counter.6, *LPBX1
 467      0000
 468              		.loc 1 111 0 discriminator 2
 469 0452 C7442404 		movl	$-1, 4(%esp)	 #,
 469      FFFFFFFF 
 470 045a C7042400 		movl	$_iq, (%esp)	 #,
 470      000000
 471 0461 E8000000 		call	_chIQGetTimeout	 #
 471      00
 472 0466 89C1     		movl	%eax, %ecx	 #, D.2971
 473 0468 A1100300 		movl	LPBX1+784, %eax	 # *LPBX1, PROF_edge_counter.6
 473      00
GAS LISTING C:\cygwin\tmp\ccwpE9RZ.s 			page 12


 474 046d 8B151403 		movl	LPBX1+788, %edx	 # *LPBX1, PROF_edge_counter.6
 474      0000
 475 0473 83C001   		addl	$1, %eax	 #, PROF_edge_counter.6
 476 0476 83D200   		adcl	$0, %edx	 #, PROF_edge_counter.6
 477 0479 A3100300 		movl	%eax, LPBX1+784	 # PROF_edge_counter.6, *LPBX1
 477      00
 478 047e 89151403 		movl	%edx, LPBX1+788	 # PROF_edge_counter.6, *LPBX1
 478      0000
 479 0484 88C8     		movb	%cl, %al	 # D.2971, D.2972
 480 0486 0FBEC0   		movsbl	%al, %eax	 # D.2972, D.2973
 481 0489 890424   		movl	%eax, (%esp)	 # D.2973,
 482 048c E8000000 		call	_test_emit_token	 #
 482      00
 483              		.loc 1 110 0 discriminator 2
 484 0491 FF44242C 		incl	44(%esp)	 # i
 485 0495 A1180300 		movl	LPBX1+792, %eax	 # *LPBX1, PROF_edge_counter.6
 485      00
 486 049a 8B151C03 		movl	LPBX1+796, %edx	 # *LPBX1, PROF_edge_counter.6
 486      0000
 487 04a0 83C001   		addl	$1, %eax	 #, PROF_edge_counter.6
 488 04a3 83D200   		adcl	$0, %edx	 #, PROF_edge_counter.6
 489 04a6 A3180300 		movl	%eax, LPBX1+792	 # PROF_edge_counter.6, *LPBX1
 489      00
 490 04ab 89151C03 		movl	%edx, LPBX1+796	 # PROF_edge_counter.6, *LPBX1
 490      0000
 491              	L13:
 492              		.loc 1 110 0 is_stmt 0 discriminator 1
 493 04b1 837C242C 		cmpl	$3, 44(%esp)	 #, i
 493      03
 494 04b6 0F867AFF 		jbe	L14	 #,
 494      FFFF
 495              		.loc 1 110 0
 496 04bc A1280300 		movl	LPBX1+808, %eax	 # *LPBX1, PROF_edge_counter.6
 496      00
 497 04c1 8B152C03 		movl	LPBX1+812, %edx	 # *LPBX1, PROF_edge_counter.6
 497      0000
 498 04c7 83C001   		addl	$1, %eax	 #, PROF_edge_counter.6
 499 04ca 83D200   		adcl	$0, %edx	 #, PROF_edge_counter.6
 500 04cd A3280300 		movl	%eax, LPBX1+808	 # PROF_edge_counter.6, *LPBX1
 500      00
 501 04d2 89152C03 		movl	%edx, LPBX1+812	 # PROF_edge_counter.6, *LPBX1
 501      0000
 502              		.loc 1 112 0 is_stmt 1
 503              	/APP
 504              	 # 112 "../../test/testqueues.c" 1
 505 04d8 90       		nop
 506              	 # 0 "" 2
 507              	/NO_APP
 508 04d9 A1300300 		movl	LPBX1+816, %eax	 # *LPBX1, PROF_edge_counter.6
 508      00
 509 04de 8B153403 		movl	LPBX1+820, %edx	 # *LPBX1, PROF_edge_counter.6
 509      0000
 510 04e4 83C001   		addl	$1, %eax	 #, PROF_edge_counter.6
 511 04e7 83D200   		adcl	$0, %edx	 #, PROF_edge_counter.6
 512 04ea A3300300 		movl	%eax, LPBX1+816	 # PROF_edge_counter.6, *LPBX1
 512      00
 513 04ef 89153403 		movl	%edx, LPBX1+820	 # PROF_edge_counter.6, *LPBX1
GAS LISTING C:\cygwin\tmp\ccwpE9RZ.s 			page 13


 513      0000
 514 04f5 A1080000 		movl	_iq+8, %eax	 # iq.q_counter, D.2974
 514      00
 515 04fa 85C0     		testl	%eax, %eax	 # D.2974
 516 04fc 0F94C0   		sete	%al	 #, tmp278
 517 04ff 0FB6C0   		movzbl	%al, %eax	 # tmp278, D.2975
 518 0502 89442404 		movl	%eax, 4(%esp)	 # D.2975,
 519 0506 C7042404 		movl	$4, (%esp)	 #,
 519      000000
 520 050d E8000000 		call	__test_assert	 #
 520      00
 521 0512 84C0     		testb	%al, %al	 # D.2976
 522 0514 743E     		je	L15	 #,
 523              		.loc 1 112 0 is_stmt 0 discriminator 1
 524 0516 A1380300 		movl	LPBX1+824, %eax	 # *LPBX1, PROF_edge_counter.6
 524      00
 525 051b 8B153C03 		movl	LPBX1+828, %edx	 # *LPBX1, PROF_edge_counter.6
 525      0000
 526 0521 83C001   		addl	$1, %eax	 #, PROF_edge_counter.6
 527 0524 83D200   		adcl	$0, %edx	 #, PROF_edge_counter.6
 528 0527 A3380300 		movl	%eax, LPBX1+824	 # PROF_edge_counter.6, *LPBX1
 528      00
 529 052c 89153C03 		movl	%edx, LPBX1+828	 # PROF_edge_counter.6, *LPBX1
 529      0000
 530              	/APP
 531              	 # 112 "../../test/testqueues.c" 1
 532 0532 90       		nop
 533              	 # 0 "" 2
 534              	/NO_APP
 535 0533 A1480300 		movl	LPBX1+840, %eax	 # *LPBX1, PROF_edge_counter.6
 535      00
 536 0538 8B154C03 		movl	LPBX1+844, %edx	 # *LPBX1, PROF_edge_counter.6
 536      0000
 537 053e 83C001   		addl	$1, %eax	 #, PROF_edge_counter.6
 538 0541 83D200   		adcl	$0, %edx	 #, PROF_edge_counter.6
 539 0544 A3480300 		movl	%eax, LPBX1+840	 # PROF_edge_counter.6, *LPBX1
 539      00
 540 0549 89154C03 		movl	%edx, LPBX1+844	 # PROF_edge_counter.6, *LPBX1
 540      0000
 541 054f E91B0800 		jmp	L4	 #
 541      00
 542              	L15:
 543              		.loc 1 112 0 discriminator 2
 544 0554 A1400300 		movl	LPBX1+832, %eax	 # *LPBX1, PROF_edge_counter.6
 544      00
 545 0559 8B154403 		movl	LPBX1+836, %edx	 # *LPBX1, PROF_edge_counter.6
 545      0000
 546 055f 83C001   		addl	$1, %eax	 #, PROF_edge_counter.6
 547 0562 83D200   		adcl	$0, %edx	 #, PROF_edge_counter.6
 548 0565 A3400300 		movl	%eax, LPBX1+832	 # PROF_edge_counter.6, *LPBX1
 548      00
 549 056a 89154403 		movl	%edx, LPBX1+836	 # PROF_edge_counter.6, *LPBX1
 549      0000
 550              	/APP
 551              	 # 112 "../../test/testqueues.c" 1
 552 0570 90       		nop
 553              	 # 0 "" 2
GAS LISTING C:\cygwin\tmp\ccwpE9RZ.s 			page 14


 554              	/NO_APP
 555 0571 A1500300 		movl	LPBX1+848, %eax	 # *LPBX1, PROF_edge_counter.6
 555      00
 556 0576 8B155403 		movl	LPBX1+852, %edx	 # *LPBX1, PROF_edge_counter.6
 556      0000
 557 057c 83C001   		addl	$1, %eax	 #, PROF_edge_counter.6
 558 057f 83D200   		adcl	$0, %edx	 #, PROF_edge_counter.6
 559 0582 A3500300 		movl	%eax, LPBX1+848	 # PROF_edge_counter.6, *LPBX1
 559      00
 560 0587 89155403 		movl	%edx, LPBX1+852	 # PROF_edge_counter.6, *LPBX1
 560      0000
 561              		.loc 1 113 0 is_stmt 1 discriminator 2
 562 058d C7442404 		movl	$LC0, 4(%esp)	 #,
 562      00000000 
 563 0595 C7042405 		movl	$5, (%esp)	 #,
 563      000000
 564 059c E8000000 		call	__test_assert_sequence	 #
 564      00
 565 05a1 84C0     		testb	%al, %al	 # D.2979
 566 05a3 7421     		je	L16	 #,
 567              		.loc 1 113 0 is_stmt 0 discriminator 1
 568 05a5 A1600300 		movl	LPBX1+864, %eax	 # *LPBX1, PROF_edge_counter.6
 568      00
 569 05aa 8B156403 		movl	LPBX1+868, %edx	 # *LPBX1, PROF_edge_counter.6
 569      0000
 570 05b0 83C001   		addl	$1, %eax	 #, PROF_edge_counter.6
 571 05b3 83D200   		adcl	$0, %edx	 #, PROF_edge_counter.6
 572 05b6 A3600300 		movl	%eax, LPBX1+864	 # PROF_edge_counter.6, *LPBX1
 572      00
 573 05bb 89156403 		movl	%edx, LPBX1+868	 # PROF_edge_counter.6, *LPBX1
 573      0000
 574 05c1 E9A90700 		jmp	L4	 #
 574      00
 575              	L16:
 576              		.loc 1 113 0
 577 05c6 A1580300 		movl	LPBX1+856, %eax	 # *LPBX1, PROF_edge_counter.6
 577      00
 578 05cb 8B155C03 		movl	LPBX1+860, %edx	 # *LPBX1, PROF_edge_counter.6
 578      0000
 579 05d1 83C001   		addl	$1, %eax	 #, PROF_edge_counter.6
 580 05d4 83D200   		adcl	$0, %edx	 #, PROF_edge_counter.6
 581 05d7 A3580300 		movl	%eax, LPBX1+856	 # PROF_edge_counter.6, *LPBX1
 581      00
 582 05dc 89155C03 		movl	%edx, LPBX1+860	 # PROF_edge_counter.6, *LPBX1
 582      0000
 583              		.loc 1 116 0 is_stmt 1
 584              	/APP
 585              	 # 116 "../../test/testqueues.c" 1
 586 05e2 90       		nop
 587              	 # 0 "" 2
 588              		.loc 1 117 0
 589              	/NO_APP
 590 05e3 C744242C 		movl	$0, 44(%esp)	 #, i
 590      00000000 
 591 05eb EB56     		jmp	L17	 #
 592              	L18:
 593              		.loc 1 117 0 is_stmt 0 discriminator 2
GAS LISTING C:\cygwin\tmp\ccwpE9RZ.s 			page 15


 594 05ed A1700300 		movl	LPBX1+880, %eax	 # *LPBX1, PROF_edge_counter.6
 594      00
 595 05f2 8B157403 		movl	LPBX1+884, %edx	 # *LPBX1, PROF_edge_counter.6
 595      0000
 596 05f8 83C001   		addl	$1, %eax	 #, PROF_edge_counter.6
 597 05fb 83D200   		adcl	$0, %edx	 #, PROF_edge_counter.6
 598 05fe A3700300 		movl	%eax, LPBX1+880	 # PROF_edge_counter.6, *LPBX1
 598      00
 599 0603 89157403 		movl	%edx, LPBX1+884	 # PROF_edge_counter.6, *LPBX1
 599      0000
 600              		.loc 1 118 0 is_stmt 1 discriminator 2
 601 0609 8B44242C 		movl	44(%esp), %eax	 # i, tmp279
 602 060d 83C041   		addl	$65, %eax	 #, D.2983
 603 0610 0FB6C0   		movzbl	%al, %eax	 # D.2983, D.2984
 604 0613 89442404 		movl	%eax, 4(%esp)	 # D.2984,
 605 0617 C7042400 		movl	$_iq, (%esp)	 #,
 605      000000
 606 061e E8000000 		call	_chIQPutI	 #
 606      00
 607              		.loc 1 117 0 discriminator 2
 608 0623 FF44242C 		incl	44(%esp)	 # i
 609 0627 A1680300 		movl	LPBX1+872, %eax	 # *LPBX1, PROF_edge_counter.6
 609      00
 610 062c 8B156C03 		movl	LPBX1+876, %edx	 # *LPBX1, PROF_edge_counter.6
 610      0000
 611 0632 83C001   		addl	$1, %eax	 #, PROF_edge_counter.6
 612 0635 83D200   		adcl	$0, %edx	 #, PROF_edge_counter.6
 613 0638 A3680300 		movl	%eax, LPBX1+872	 # PROF_edge_counter.6, *LPBX1
 613      00
 614 063d 89156C03 		movl	%edx, LPBX1+876	 # PROF_edge_counter.6, *LPBX1
 614      0000
 615              	L17:
 616              		.loc 1 117 0 is_stmt 0 discriminator 1
 617 0643 837C242C 		cmpl	$3, 44(%esp)	 #, i
 617      03
 618 0648 76A3     		jbe	L18	 #,
 619              		.loc 1 117 0
 620 064a A1780300 		movl	LPBX1+888, %eax	 # *LPBX1, PROF_edge_counter.6
 620      00
 621 064f 8B157C03 		movl	LPBX1+892, %edx	 # *LPBX1, PROF_edge_counter.6
 621      0000
 622 0655 83C001   		addl	$1, %eax	 #, PROF_edge_counter.6
 623 0658 83D200   		adcl	$0, %edx	 #, PROF_edge_counter.6
 624 065b A3780300 		movl	%eax, LPBX1+888	 # PROF_edge_counter.6, *LPBX1
 624      00
 625 0660 89157C03 		movl	%edx, LPBX1+892	 # PROF_edge_counter.6, *LPBX1
 625      0000
 626              		.loc 1 119 0 is_stmt 1
 627              	/APP
 628              	 # 119 "../../test/testqueues.c" 1
 629 0666 90       		nop
 630              	 # 0 "" 2
 631              	/NO_APP
 632 0667 A1800300 		movl	LPBX1+896, %eax	 # *LPBX1, PROF_edge_counter.6
 632      00
 633 066c 8B158403 		movl	LPBX1+900, %edx	 # *LPBX1, PROF_edge_counter.6
 633      0000
GAS LISTING C:\cygwin\tmp\ccwpE9RZ.s 			page 16


 634 0672 83C001   		addl	$1, %eax	 #, PROF_edge_counter.6
 635 0675 83D200   		adcl	$0, %edx	 #, PROF_edge_counter.6
 636 0678 A3800300 		movl	%eax, LPBX1+896	 # PROF_edge_counter.6, *LPBX1
 636      00
 637 067d 89158403 		movl	%edx, LPBX1+900	 # PROF_edge_counter.6, *LPBX1
 637      0000
 638              		.loc 1 122 0
 639 0683 A1040000 		movl	_wa+4, %eax	 # wa, D.2985
 639      00
 640 0688 C744240C 		movl	$0, 12(%esp)	 #,
 640      00000000 
 641 0690 C7442408 		movl	$8, 8(%esp)	 #,
 641      08000000 
 642 0698 89442404 		movl	%eax, 4(%esp)	 # D.2985,
 643 069c C7042400 		movl	$_iq, (%esp)	 #,
 643      000000
 644 06a3 E8000000 		call	_chIQReadTimeout	 #
 644      00
 645 06a8 89442428 		movl	%eax, 40(%esp)	 # tmp280, n
 646 06ac A1880300 		movl	LPBX1+904, %eax	 # *LPBX1, PROF_edge_counter.6
 646      00
 647 06b1 8B158C03 		movl	LPBX1+908, %edx	 # *LPBX1, PROF_edge_counter.6
 647      0000
 648 06b7 83C001   		addl	$1, %eax	 #, PROF_edge_counter.6
 649 06ba 83D200   		adcl	$0, %edx	 #, PROF_edge_counter.6
 650 06bd A3880300 		movl	%eax, LPBX1+904	 # PROF_edge_counter.6, *LPBX1
 650      00
 651 06c2 89158C03 		movl	%edx, LPBX1+908	 # PROF_edge_counter.6, *LPBX1
 651      0000
 652              		.loc 1 123 0
 653 06c8 837C2428 		cmpl	$4, 40(%esp)	 #, n
 653      04
 654 06cd 0F94C0   		sete	%al	 #, tmp281
 655 06d0 0FB6C0   		movzbl	%al, %eax	 # tmp281, D.2986
 656 06d3 89442404 		movl	%eax, 4(%esp)	 # D.2986,
 657 06d7 C7042406 		movl	$6, (%esp)	 #,
 657      000000
 658 06de E8000000 		call	__test_assert	 #
 658      00
 659 06e3 84C0     		testb	%al, %al	 # D.2987
 660 06e5 7421     		je	L19	 #,
 661              		.loc 1 123 0 is_stmt 0 discriminator 1
 662 06e7 A1980300 		movl	LPBX1+920, %eax	 # *LPBX1, PROF_edge_counter.6
 662      00
 663 06ec 8B159C03 		movl	LPBX1+924, %edx	 # *LPBX1, PROF_edge_counter.6
 663      0000
 664 06f2 83C001   		addl	$1, %eax	 #, PROF_edge_counter.6
 665 06f5 83D200   		adcl	$0, %edx	 #, PROF_edge_counter.6
 666 06f8 A3980300 		movl	%eax, LPBX1+920	 # PROF_edge_counter.6, *LPBX1
 666      00
 667 06fd 89159C03 		movl	%edx, LPBX1+924	 # PROF_edge_counter.6, *LPBX1
 667      0000
 668 0703 E9670600 		jmp	L4	 #
 668      00
 669              	L19:
 670              		.loc 1 123 0
 671 0708 A1900300 		movl	LPBX1+912, %eax	 # *LPBX1, PROF_edge_counter.6
GAS LISTING C:\cygwin\tmp\ccwpE9RZ.s 			page 17


 671      00
 672 070d 8B159403 		movl	LPBX1+916, %edx	 # *LPBX1, PROF_edge_counter.6
 672      0000
 673 0713 83C001   		addl	$1, %eax	 #, PROF_edge_counter.6
 674 0716 83D200   		adcl	$0, %edx	 #, PROF_edge_counter.6
 675 0719 A3900300 		movl	%eax, LPBX1+912	 # PROF_edge_counter.6, *LPBX1
 675      00
 676 071e 89159403 		movl	%edx, LPBX1+916	 # PROF_edge_counter.6, *LPBX1
 676      0000
 677              		.loc 1 124 0 is_stmt 1
 678              	/APP
 679              	 # 124 "../../test/testqueues.c" 1
 680 0724 90       		nop
 681              	 # 0 "" 2
 682              	/NO_APP
 683 0725 A1A00300 		movl	LPBX1+928, %eax	 # *LPBX1, PROF_edge_counter.6
 683      00
 684 072a 8B15A403 		movl	LPBX1+932, %edx	 # *LPBX1, PROF_edge_counter.6
 684      0000
 685 0730 83C001   		addl	$1, %eax	 #, PROF_edge_counter.6
 686 0733 83D200   		adcl	$0, %edx	 #, PROF_edge_counter.6
 687 0736 A3A00300 		movl	%eax, LPBX1+928	 # PROF_edge_counter.6, *LPBX1
 687      00
 688 073b 8915A403 		movl	%edx, LPBX1+932	 # PROF_edge_counter.6, *LPBX1
 688      0000
 689 0741 A1080000 		movl	_iq+8, %eax	 # iq.q_counter, D.2990
 689      00
 690 0746 85C0     		testl	%eax, %eax	 # D.2990
 691 0748 0F94C0   		sete	%al	 #, tmp282
 692 074b 0FB6C0   		movzbl	%al, %eax	 # tmp282, D.2991
 693 074e 89442404 		movl	%eax, 4(%esp)	 # D.2991,
 694 0752 C7042407 		movl	$7, (%esp)	 #,
 694      000000
 695 0759 E8000000 		call	__test_assert	 #
 695      00
 696 075e 84C0     		testb	%al, %al	 # D.2992
 697 0760 743E     		je	L20	 #,
 698              		.loc 1 124 0 is_stmt 0 discriminator 1
 699 0762 A1A80300 		movl	LPBX1+936, %eax	 # *LPBX1, PROF_edge_counter.6
 699      00
 700 0767 8B15AC03 		movl	LPBX1+940, %edx	 # *LPBX1, PROF_edge_counter.6
 700      0000
 701 076d 83C001   		addl	$1, %eax	 #, PROF_edge_counter.6
 702 0770 83D200   		adcl	$0, %edx	 #, PROF_edge_counter.6
 703 0773 A3A80300 		movl	%eax, LPBX1+936	 # PROF_edge_counter.6, *LPBX1
 703      00
 704 0778 8915AC03 		movl	%edx, LPBX1+940	 # PROF_edge_counter.6, *LPBX1
 704      0000
 705              	/APP
 706              	 # 124 "../../test/testqueues.c" 1
 707 077e 90       		nop
 708              	 # 0 "" 2
 709              	/NO_APP
 710 077f A1B80300 		movl	LPBX1+952, %eax	 # *LPBX1, PROF_edge_counter.6
 710      00
 711 0784 8B15BC03 		movl	LPBX1+956, %edx	 # *LPBX1, PROF_edge_counter.6
 711      0000
GAS LISTING C:\cygwin\tmp\ccwpE9RZ.s 			page 18


 712 078a 83C001   		addl	$1, %eax	 #, PROF_edge_counter.6
 713 078d 83D200   		adcl	$0, %edx	 #, PROF_edge_counter.6
 714 0790 A3B80300 		movl	%eax, LPBX1+952	 # PROF_edge_counter.6, *LPBX1
 714      00
 715 0795 8915BC03 		movl	%edx, LPBX1+956	 # PROF_edge_counter.6, *LPBX1
 715      0000
 716 079b E9CF0500 		jmp	L4	 #
 716      00
 717              	L20:
 718              		.loc 1 124 0 discriminator 2
 719 07a0 A1B00300 		movl	LPBX1+944, %eax	 # *LPBX1, PROF_edge_counter.6
 719      00
 720 07a5 8B15B403 		movl	LPBX1+948, %edx	 # *LPBX1, PROF_edge_counter.6
 720      0000
 721 07ab 83C001   		addl	$1, %eax	 #, PROF_edge_counter.6
 722 07ae 83D200   		adcl	$0, %edx	 #, PROF_edge_counter.6
 723 07b1 A3B00300 		movl	%eax, LPBX1+944	 # PROF_edge_counter.6, *LPBX1
 723      00
 724 07b6 8915B403 		movl	%edx, LPBX1+948	 # PROF_edge_counter.6, *LPBX1
 724      0000
 725              	/APP
 726              	 # 124 "../../test/testqueues.c" 1
 727 07bc 90       		nop
 728              	 # 0 "" 2
 729              	/NO_APP
 730 07bd A1C00300 		movl	LPBX1+960, %eax	 # *LPBX1, PROF_edge_counter.6
 730      00
 731 07c2 8B15C403 		movl	LPBX1+964, %edx	 # *LPBX1, PROF_edge_counter.6
 731      0000
 732 07c8 83C001   		addl	$1, %eax	 #, PROF_edge_counter.6
 733 07cb 83D200   		adcl	$0, %edx	 #, PROF_edge_counter.6
 734 07ce A3C00300 		movl	%eax, LPBX1+960	 # PROF_edge_counter.6, *LPBX1
 734      00
 735 07d3 8915C403 		movl	%edx, LPBX1+964	 # PROF_edge_counter.6, *LPBX1
 735      0000
 736              		.loc 1 127 0 is_stmt 1 discriminator 2
 737              	/APP
 738              	 # 127 "../../test/testqueues.c" 1
 739 07d9 90       		nop
 740              	 # 0 "" 2
 741              		.loc 1 128 0 discriminator 2
 742              	/NO_APP
 743 07da C744242C 		movl	$0, 44(%esp)	 #, i
 743      00000000 
 744 07e2 EB56     		jmp	L21	 #
 745              	L22:
 746 07e4 A1D00300 		movl	LPBX1+976, %eax	 # *LPBX1, PROF_edge_counter.6
 746      00
 747 07e9 8B15D403 		movl	LPBX1+980, %edx	 # *LPBX1, PROF_edge_counter.6
 747      0000
 748 07ef 83C001   		addl	$1, %eax	 #, PROF_edge_counter.6
 749 07f2 83D200   		adcl	$0, %edx	 #, PROF_edge_counter.6
 750 07f5 A3D00300 		movl	%eax, LPBX1+976	 # PROF_edge_counter.6, *LPBX1
 750      00
 751 07fa 8915D403 		movl	%edx, LPBX1+980	 # PROF_edge_counter.6, *LPBX1
 751      0000
 752              		.loc 1 129 0 discriminator 2
GAS LISTING C:\cygwin\tmp\ccwpE9RZ.s 			page 19


 753 0800 8B44242C 		movl	44(%esp), %eax	 # i, tmp283
 754 0804 83C041   		addl	$65, %eax	 #, D.2996
 755 0807 0FB6C0   		movzbl	%al, %eax	 # D.2996, D.2997
 756 080a 89442404 		movl	%eax, 4(%esp)	 # D.2997,
 757 080e C7042400 		movl	$_iq, (%esp)	 #,
 757      000000
 758 0815 E8000000 		call	_chIQPutI	 #
 758      00
 759              		.loc 1 128 0 discriminator 2
 760 081a FF44242C 		incl	44(%esp)	 # i
 761 081e A1C80300 		movl	LPBX1+968, %eax	 # *LPBX1, PROF_edge_counter.6
 761      00
 762 0823 8B15CC03 		movl	LPBX1+972, %edx	 # *LPBX1, PROF_edge_counter.6
 762      0000
 763 0829 83C001   		addl	$1, %eax	 #, PROF_edge_counter.6
 764 082c 83D200   		adcl	$0, %edx	 #, PROF_edge_counter.6
 765 082f A3C80300 		movl	%eax, LPBX1+968	 # PROF_edge_counter.6, *LPBX1
 765      00
 766 0834 8915CC03 		movl	%edx, LPBX1+972	 # PROF_edge_counter.6, *LPBX1
 766      0000
 767              	L21:
 768              		.loc 1 128 0 is_stmt 0 discriminator 1
 769 083a 837C242C 		cmpl	$3, 44(%esp)	 #, i
 769      03
 770 083f 76A3     		jbe	L22	 #,
 771              		.loc 1 128 0
 772 0841 A1D80300 		movl	LPBX1+984, %eax	 # *LPBX1, PROF_edge_counter.6
 772      00
 773 0846 8B15DC03 		movl	LPBX1+988, %edx	 # *LPBX1, PROF_edge_counter.6
 773      0000
 774 084c 83C001   		addl	$1, %eax	 #, PROF_edge_counter.6
 775 084f 83D200   		adcl	$0, %edx	 #, PROF_edge_counter.6
 776 0852 A3D80300 		movl	%eax, LPBX1+984	 # PROF_edge_counter.6, *LPBX1
 776      00
 777 0857 8915DC03 		movl	%edx, LPBX1+988	 # PROF_edge_counter.6, *LPBX1
 777      0000
 778              		.loc 1 130 0 is_stmt 1
 779              	/APP
 780              	 # 130 "../../test/testqueues.c" 1
 781 085d 90       		nop
 782              	 # 0 "" 2
 783              	/NO_APP
 784 085e A1E00300 		movl	LPBX1+992, %eax	 # *LPBX1, PROF_edge_counter.6
 784      00
 785 0863 8B15E403 		movl	LPBX1+996, %edx	 # *LPBX1, PROF_edge_counter.6
 785      0000
 786 0869 83C001   		addl	$1, %eax	 #, PROF_edge_counter.6
 787 086c 83D200   		adcl	$0, %edx	 #, PROF_edge_counter.6
 788 086f A3E00300 		movl	%eax, LPBX1+992	 # PROF_edge_counter.6, *LPBX1
 788      00
 789 0874 8915E403 		movl	%edx, LPBX1+996	 # PROF_edge_counter.6, *LPBX1
 789      0000
 790              		.loc 1 133 0
 791 087a A1040000 		movl	_wa+4, %eax	 # wa, D.2998
 791      00
 792 087f C744240C 		movl	$0, 12(%esp)	 #,
 792      00000000 
GAS LISTING C:\cygwin\tmp\ccwpE9RZ.s 			page 20


 793 0887 C7442408 		movl	$2, 8(%esp)	 #,
 793      02000000 
 794 088f 89442404 		movl	%eax, 4(%esp)	 # D.2998,
 795 0893 C7042400 		movl	$_iq, (%esp)	 #,
 795      000000
 796 089a E8000000 		call	_chIQReadTimeout	 #
 796      00
 797 089f 89442428 		movl	%eax, 40(%esp)	 # tmp284, n
 798 08a3 A1E80300 		movl	LPBX1+1000, %eax	 # *LPBX1, PROF_edge_counter.6
 798      00
 799 08a8 8B15EC03 		movl	LPBX1+1004, %edx	 # *LPBX1, PROF_edge_counter.6
 799      0000
 800 08ae 83C001   		addl	$1, %eax	 #, PROF_edge_counter.6
 801 08b1 83D200   		adcl	$0, %edx	 #, PROF_edge_counter.6
 802 08b4 A3E80300 		movl	%eax, LPBX1+1000	 # PROF_edge_counter.6, *LPBX1
 802      00
 803 08b9 8915EC03 		movl	%edx, LPBX1+1004	 # PROF_edge_counter.6, *LPBX1
 803      0000
 804              		.loc 1 134 0
 805 08bf 837C2428 		cmpl	$2, 40(%esp)	 #, n
 805      02
 806 08c4 0F94C0   		sete	%al	 #, tmp285
 807 08c7 0FB6C0   		movzbl	%al, %eax	 # tmp285, D.2999
 808 08ca 89442404 		movl	%eax, 4(%esp)	 # D.2999,
 809 08ce C7042408 		movl	$8, (%esp)	 #,
 809      000000
 810 08d5 E8000000 		call	__test_assert	 #
 810      00
 811 08da 84C0     		testb	%al, %al	 # D.3000
 812 08dc 7421     		je	L23	 #,
 813              		.loc 1 134 0 is_stmt 0 discriminator 1
 814 08de A1F80300 		movl	LPBX1+1016, %eax	 # *LPBX1, PROF_edge_counter.6
 814      00
 815 08e3 8B15FC03 		movl	LPBX1+1020, %edx	 # *LPBX1, PROF_edge_counter.6
 815      0000
 816 08e9 83C001   		addl	$1, %eax	 #, PROF_edge_counter.6
 817 08ec 83D200   		adcl	$0, %edx	 #, PROF_edge_counter.6
 818 08ef A3F80300 		movl	%eax, LPBX1+1016	 # PROF_edge_counter.6, *LPBX1
 818      00
 819 08f4 8915FC03 		movl	%edx, LPBX1+1020	 # PROF_edge_counter.6, *LPBX1
 819      0000
 820 08fa E9700400 		jmp	L4	 #
 820      00
 821              	L23:
 822              		.loc 1 134 0
 823 08ff A1F00300 		movl	LPBX1+1008, %eax	 # *LPBX1, PROF_edge_counter.6
 823      00
 824 0904 8B15F403 		movl	LPBX1+1012, %edx	 # *LPBX1, PROF_edge_counter.6
 824      0000
 825 090a 83C001   		addl	$1, %eax	 #, PROF_edge_counter.6
 826 090d 83D200   		adcl	$0, %edx	 #, PROF_edge_counter.6
 827 0910 A3F00300 		movl	%eax, LPBX1+1008	 # PROF_edge_counter.6, *LPBX1
 827      00
 828 0915 8915F403 		movl	%edx, LPBX1+1012	 # PROF_edge_counter.6, *LPBX1
 828      0000
 829              		.loc 1 135 0 is_stmt 1
 830 091b A1040000 		movl	_wa+4, %eax	 # wa, D.3003
GAS LISTING C:\cygwin\tmp\ccwpE9RZ.s 			page 21


 830      00
 831 0920 C744240C 		movl	$0, 12(%esp)	 #,
 831      00000000 
 832 0928 C7442408 		movl	$2, 8(%esp)	 #,
 832      02000000 
 833 0930 89442404 		movl	%eax, 4(%esp)	 # D.3003,
 834 0934 C7042400 		movl	$_iq, (%esp)	 #,
 834      000000
 835 093b E8000000 		call	_chIQReadTimeout	 #
 835      00
 836 0940 89442428 		movl	%eax, 40(%esp)	 # tmp286, n
 837 0944 A1000400 		movl	LPBX1+1024, %eax	 # *LPBX1, PROF_edge_counter.6
 837      00
 838 0949 8B150404 		movl	LPBX1+1028, %edx	 # *LPBX1, PROF_edge_counter.6
 838      0000
 839 094f 83C001   		addl	$1, %eax	 #, PROF_edge_counter.6
 840 0952 83D200   		adcl	$0, %edx	 #, PROF_edge_counter.6
 841 0955 A3000400 		movl	%eax, LPBX1+1024	 # PROF_edge_counter.6, *LPBX1
 841      00
 842 095a 89150404 		movl	%edx, LPBX1+1028	 # PROF_edge_counter.6, *LPBX1
 842      0000
 843              		.loc 1 136 0
 844 0960 837C2428 		cmpl	$2, 40(%esp)	 #, n
 844      02
 845 0965 0F94C0   		sete	%al	 #, tmp287
 846 0968 0FB6C0   		movzbl	%al, %eax	 # tmp287, D.3004
 847 096b 89442404 		movl	%eax, 4(%esp)	 # D.3004,
 848 096f C7042409 		movl	$9, (%esp)	 #,
 848      000000
 849 0976 E8000000 		call	__test_assert	 #
 849      00
 850 097b 84C0     		testb	%al, %al	 # D.3005
 851 097d 7421     		je	L24	 #,
 852              		.loc 1 136 0 is_stmt 0 discriminator 1
 853 097f A1100400 		movl	LPBX1+1040, %eax	 # *LPBX1, PROF_edge_counter.6
 853      00
 854 0984 8B151404 		movl	LPBX1+1044, %edx	 # *LPBX1, PROF_edge_counter.6
 854      0000
 855 098a 83C001   		addl	$1, %eax	 #, PROF_edge_counter.6
 856 098d 83D200   		adcl	$0, %edx	 #, PROF_edge_counter.6
 857 0990 A3100400 		movl	%eax, LPBX1+1040	 # PROF_edge_counter.6, *LPBX1
 857      00
 858 0995 89151404 		movl	%edx, LPBX1+1044	 # PROF_edge_counter.6, *LPBX1
 858      0000
 859 099b E9CF0300 		jmp	L4	 #
 859      00
 860              	L24:
 861              		.loc 1 136 0
 862 09a0 A1080400 		movl	LPBX1+1032, %eax	 # *LPBX1, PROF_edge_counter.6
 862      00
 863 09a5 8B150C04 		movl	LPBX1+1036, %edx	 # *LPBX1, PROF_edge_counter.6
 863      0000
 864 09ab 83C001   		addl	$1, %eax	 #, PROF_edge_counter.6
 865 09ae 83D200   		adcl	$0, %edx	 #, PROF_edge_counter.6
 866 09b1 A3080400 		movl	%eax, LPBX1+1032	 # PROF_edge_counter.6, *LPBX1
 866      00
 867 09b6 89150C04 		movl	%edx, LPBX1+1036	 # PROF_edge_counter.6, *LPBX1
GAS LISTING C:\cygwin\tmp\ccwpE9RZ.s 			page 22


 867      0000
 868              		.loc 1 137 0 is_stmt 1
 869              	/APP
 870              	 # 137 "../../test/testqueues.c" 1
 871 09bc 90       		nop
 872              	 # 0 "" 2
 873              	/NO_APP
 874 09bd A1180400 		movl	LPBX1+1048, %eax	 # *LPBX1, PROF_edge_counter.6
 874      00
 875 09c2 8B151C04 		movl	LPBX1+1052, %edx	 # *LPBX1, PROF_edge_counter.6
 875      0000
 876 09c8 83C001   		addl	$1, %eax	 #, PROF_edge_counter.6
 877 09cb 83D200   		adcl	$0, %edx	 #, PROF_edge_counter.6
 878 09ce A3180400 		movl	%eax, LPBX1+1048	 # PROF_edge_counter.6, *LPBX1
 878      00
 879 09d3 89151C04 		movl	%edx, LPBX1+1052	 # PROF_edge_counter.6, *LPBX1
 879      0000
 880 09d9 A1080000 		movl	_iq+8, %eax	 # iq.q_counter, D.3008
 880      00
 881 09de 85C0     		testl	%eax, %eax	 # D.3008
 882 09e0 0F94C0   		sete	%al	 #, tmp288
 883 09e3 0FB6C0   		movzbl	%al, %eax	 # tmp288, D.3009
 884 09e6 89442404 		movl	%eax, 4(%esp)	 # D.3009,
 885 09ea C704240A 		movl	$10, (%esp)	 #,
 885      000000
 886 09f1 E8000000 		call	__test_assert	 #
 886      00
 887 09f6 84C0     		testb	%al, %al	 # D.3010
 888 09f8 743E     		je	L25	 #,
 889              		.loc 1 137 0 is_stmt 0 discriminator 1
 890 09fa A1200400 		movl	LPBX1+1056, %eax	 # *LPBX1, PROF_edge_counter.6
 890      00
 891 09ff 8B152404 		movl	LPBX1+1060, %edx	 # *LPBX1, PROF_edge_counter.6
 891      0000
 892 0a05 83C001   		addl	$1, %eax	 #, PROF_edge_counter.6
 893 0a08 83D200   		adcl	$0, %edx	 #, PROF_edge_counter.6
 894 0a0b A3200400 		movl	%eax, LPBX1+1056	 # PROF_edge_counter.6, *LPBX1
 894      00
 895 0a10 89152404 		movl	%edx, LPBX1+1060	 # PROF_edge_counter.6, *LPBX1
 895      0000
 896              	/APP
 897              	 # 137 "../../test/testqueues.c" 1
 898 0a16 90       		nop
 899              	 # 0 "" 2
 900              	/NO_APP
 901 0a17 A1300400 		movl	LPBX1+1072, %eax	 # *LPBX1, PROF_edge_counter.6
 901      00
 902 0a1c 8B153404 		movl	LPBX1+1076, %edx	 # *LPBX1, PROF_edge_counter.6
 902      0000
 903 0a22 83C001   		addl	$1, %eax	 #, PROF_edge_counter.6
 904 0a25 83D200   		adcl	$0, %edx	 #, PROF_edge_counter.6
 905 0a28 A3300400 		movl	%eax, LPBX1+1072	 # PROF_edge_counter.6, *LPBX1
 905      00
 906 0a2d 89153404 		movl	%edx, LPBX1+1076	 # PROF_edge_counter.6, *LPBX1
 906      0000
 907 0a33 E9370300 		jmp	L4	 #
 907      00
GAS LISTING C:\cygwin\tmp\ccwpE9RZ.s 			page 23


 908              	L25:
 909              		.loc 1 137 0 discriminator 2
 910 0a38 A1280400 		movl	LPBX1+1064, %eax	 # *LPBX1, PROF_edge_counter.6
 910      00
 911 0a3d 8B152C04 		movl	LPBX1+1068, %edx	 # *LPBX1, PROF_edge_counter.6
 911      0000
 912 0a43 83C001   		addl	$1, %eax	 #, PROF_edge_counter.6
 913 0a46 83D200   		adcl	$0, %edx	 #, PROF_edge_counter.6
 914 0a49 A3280400 		movl	%eax, LPBX1+1064	 # PROF_edge_counter.6, *LPBX1
 914      00
 915 0a4e 89152C04 		movl	%edx, LPBX1+1068	 # PROF_edge_counter.6, *LPBX1
 915      0000
 916              	/APP
 917              	 # 137 "../../test/testqueues.c" 1
 918 0a54 90       		nop
 919              	 # 0 "" 2
 920              	/NO_APP
 921 0a55 A1380400 		movl	LPBX1+1080, %eax	 # *LPBX1, PROF_edge_counter.6
 921      00
 922 0a5a 8B153C04 		movl	LPBX1+1084, %edx	 # *LPBX1, PROF_edge_counter.6
 922      0000
 923 0a60 83C001   		addl	$1, %eax	 #, PROF_edge_counter.6
 924 0a63 83D200   		adcl	$0, %edx	 #, PROF_edge_counter.6
 925 0a66 A3380400 		movl	%eax, LPBX1+1080	 # PROF_edge_counter.6, *LPBX1
 925      00
 926 0a6b 89153C04 		movl	%edx, LPBX1+1084	 # PROF_edge_counter.6, *LPBX1
 926      0000
 927              		.loc 1 140 0 is_stmt 1 discriminator 2
 928              	/APP
 929              	 # 140 "../../test/testqueues.c" 1
 930 0a71 90       		nop
 931              	 # 0 "" 2
 932              	/NO_APP
 933 0a72 A1400400 		movl	LPBX1+1088, %eax	 # *LPBX1, PROF_edge_counter.6
 933      00
 934 0a77 8B154404 		movl	LPBX1+1092, %edx	 # *LPBX1, PROF_edge_counter.6
 934      0000
 935 0a7d 83C001   		addl	$1, %eax	 #, PROF_edge_counter.6
 936 0a80 83D200   		adcl	$0, %edx	 #, PROF_edge_counter.6
 937 0a83 A3400400 		movl	%eax, LPBX1+1088	 # PROF_edge_counter.6, *LPBX1
 937      00
 938 0a88 89154404 		movl	%edx, LPBX1+1092	 # PROF_edge_counter.6, *LPBX1
 938      0000
 939              		.loc 1 141 0 discriminator 2
 940 0a8e C7442404 		movl	$0, 4(%esp)	 #,
 940      00000000 
 941 0a96 C7042400 		movl	$_iq, (%esp)	 #,
 941      000000
 942 0a9d E8000000 		call	_chIQPutI	 #
 942      00
 943 0aa2 A1480400 		movl	LPBX1+1096, %eax	 # *LPBX1, PROF_edge_counter.6
 943      00
 944 0aa7 8B154C04 		movl	LPBX1+1100, %edx	 # *LPBX1, PROF_edge_counter.6
 944      0000
 945 0aad 83C001   		addl	$1, %eax	 #, PROF_edge_counter.6
 946 0ab0 83D200   		adcl	$0, %edx	 #, PROF_edge_counter.6
 947 0ab3 A3480400 		movl	%eax, LPBX1+1096	 # PROF_edge_counter.6, *LPBX1
GAS LISTING C:\cygwin\tmp\ccwpE9RZ.s 			page 24


 947      00
 948 0ab8 89154C04 		movl	%edx, LPBX1+1100	 # PROF_edge_counter.6, *LPBX1
 948      0000
 949              		.loc 1 142 0 discriminator 2
 950 0abe C7042400 		movl	$_iq, (%esp)	 #,
 950      000000
 951 0ac5 E8000000 		call	_chIQResetI	 #
 951      00
 952 0aca A1500400 		movl	LPBX1+1104, %eax	 # *LPBX1, PROF_edge_counter.6
 952      00
 953 0acf 8B155404 		movl	LPBX1+1108, %edx	 # *LPBX1, PROF_edge_counter.6
 953      0000
 954 0ad5 83C001   		addl	$1, %eax	 #, PROF_edge_counter.6
 955 0ad8 83D200   		adcl	$0, %edx	 #, PROF_edge_counter.6
 956 0adb A3500400 		movl	%eax, LPBX1+1104	 # PROF_edge_counter.6, *LPBX1
 956      00
 957 0ae0 89155404 		movl	%edx, LPBX1+1108	 # PROF_edge_counter.6, *LPBX1
 957      0000
 958              		.loc 1 143 0 discriminator 2
 959              	/APP
 960              	 # 143 "../../test/testqueues.c" 1
 961 0ae6 90       		nop
 962              	 # 0 "" 2
 963              	/NO_APP
 964 0ae7 A1580400 		movl	LPBX1+1112, %eax	 # *LPBX1, PROF_edge_counter.6
 964      00
 965 0aec 8B155C04 		movl	LPBX1+1116, %edx	 # *LPBX1, PROF_edge_counter.6
 965      0000
 966 0af2 83C001   		addl	$1, %eax	 #, PROF_edge_counter.6
 967 0af5 83D200   		adcl	$0, %edx	 #, PROF_edge_counter.6
 968 0af8 A3580400 		movl	%eax, LPBX1+1112	 # PROF_edge_counter.6, *LPBX1
 968      00
 969 0afd 89155C04 		movl	%edx, LPBX1+1116	 # PROF_edge_counter.6, *LPBX1
 969      0000
 970              		.loc 1 144 0 discriminator 2
 971              	/APP
 972              	 # 144 "../../test/testqueues.c" 1
 973 0b03 90       		nop
 974              	 # 0 "" 2
 975              	/NO_APP
 976 0b04 A1600400 		movl	LPBX1+1120, %eax	 # *LPBX1, PROF_edge_counter.6
 976      00
 977 0b09 8B156404 		movl	LPBX1+1124, %edx	 # *LPBX1, PROF_edge_counter.6
 977      0000
 978 0b0f 83C001   		addl	$1, %eax	 #, PROF_edge_counter.6
 979 0b12 83D200   		adcl	$0, %edx	 #, PROF_edge_counter.6
 980 0b15 A3600400 		movl	%eax, LPBX1+1120	 # PROF_edge_counter.6, *LPBX1
 980      00
 981 0b1a 89156404 		movl	%edx, LPBX1+1124	 # PROF_edge_counter.6, *LPBX1
 981      0000
 982 0b20 A1080000 		movl	_iq+8, %eax	 # iq.q_counter, D.3013
 982      00
 983 0b25 85C0     		testl	%eax, %eax	 # D.3013
 984 0b27 0F94C0   		sete	%al	 #, tmp289
 985 0b2a 0FB6C0   		movzbl	%al, %eax	 # tmp289, D.3014
 986 0b2d 89442404 		movl	%eax, 4(%esp)	 # D.3014,
 987 0b31 C704240B 		movl	$11, (%esp)	 #,
GAS LISTING C:\cygwin\tmp\ccwpE9RZ.s 			page 25


 987      000000
 988 0b38 E8000000 		call	__test_assert	 #
 988      00
 989 0b3d 84C0     		testb	%al, %al	 # D.3015
 990 0b3f 743E     		je	L26	 #,
 991              		.loc 1 144 0 is_stmt 0 discriminator 1
 992 0b41 A1680400 		movl	LPBX1+1128, %eax	 # *LPBX1, PROF_edge_counter.6
 992      00
 993 0b46 8B156C04 		movl	LPBX1+1132, %edx	 # *LPBX1, PROF_edge_counter.6
 993      0000
 994 0b4c 83C001   		addl	$1, %eax	 #, PROF_edge_counter.6
 995 0b4f 83D200   		adcl	$0, %edx	 #, PROF_edge_counter.6
 996 0b52 A3680400 		movl	%eax, LPBX1+1128	 # PROF_edge_counter.6, *LPBX1
 996      00
 997 0b57 89156C04 		movl	%edx, LPBX1+1132	 # PROF_edge_counter.6, *LPBX1
 997      0000
 998              	/APP
 999              	 # 144 "../../test/testqueues.c" 1
 1000 0b5d 90       		nop
 1001              	 # 0 "" 2
 1002              	/NO_APP
 1003 0b5e A1780400 		movl	LPBX1+1144, %eax	 # *LPBX1, PROF_edge_counter.6
 1003      00
 1004 0b63 8B157C04 		movl	LPBX1+1148, %edx	 # *LPBX1, PROF_edge_counter.6
 1004      0000
 1005 0b69 83C001   		addl	$1, %eax	 #, PROF_edge_counter.6
 1006 0b6c 83D200   		adcl	$0, %edx	 #, PROF_edge_counter.6
 1007 0b6f A3780400 		movl	%eax, LPBX1+1144	 # PROF_edge_counter.6, *LPBX1
 1007      00
 1008 0b74 89157C04 		movl	%edx, LPBX1+1148	 # PROF_edge_counter.6, *LPBX1
 1008      0000
 1009 0b7a E9F00100 		jmp	L4	 #
 1009      00
 1010              	L26:
 1011              		.loc 1 144 0 discriminator 2
 1012 0b7f A1700400 		movl	LPBX1+1136, %eax	 # *LPBX1, PROF_edge_counter.6
 1012      00
 1013 0b84 8B157404 		movl	LPBX1+1140, %edx	 # *LPBX1, PROF_edge_counter.6
 1013      0000
 1014 0b8a 83C001   		addl	$1, %eax	 #, PROF_edge_counter.6
 1015 0b8d 83D200   		adcl	$0, %edx	 #, PROF_edge_counter.6
 1016 0b90 A3700400 		movl	%eax, LPBX1+1136	 # PROF_edge_counter.6, *LPBX1
 1016      00
 1017 0b95 89157404 		movl	%edx, LPBX1+1140	 # PROF_edge_counter.6, *LPBX1
 1017      0000
 1018              	/APP
 1019              	 # 144 "../../test/testqueues.c" 1
 1020 0b9b 90       		nop
 1021              	 # 0 "" 2
 1022              	/NO_APP
 1023 0b9c A1800400 		movl	LPBX1+1152, %eax	 # *LPBX1, PROF_edge_counter.6
 1023      00
 1024 0ba1 8B158404 		movl	LPBX1+1156, %edx	 # *LPBX1, PROF_edge_counter.6
 1024      0000
 1025 0ba7 83C001   		addl	$1, %eax	 #, PROF_edge_counter.6
 1026 0baa 83D200   		adcl	$0, %edx	 #, PROF_edge_counter.6
 1027 0bad A3800400 		movl	%eax, LPBX1+1152	 # PROF_edge_counter.6, *LPBX1
GAS LISTING C:\cygwin\tmp\ccwpE9RZ.s 			page 26


 1027      00
 1028 0bb2 89158404 		movl	%edx, LPBX1+1156	 # PROF_edge_counter.6, *LPBX1
 1028      0000
 1029              		.loc 1 145 0 is_stmt 1 discriminator 2
 1030 0bb8 A1180000 		movl	_rlist+24, %eax	 # rlist.r_current, D.3018
 1030      00
 1031 0bbd 8B4008   		movl	8(%eax), %eax	 # D.3018_65->p_prio, D.3019
 1032 0bc0 8D5001   		leal	1(%eax), %edx	 #, D.3020
 1033 0bc3 A1000000 		movl	_wa, %eax	 # wa, D.3021
 1033      00
 1034 0bc8 C7442410 		movl	$0, 16(%esp)	 #,
 1034      00000000 
 1035 0bd0 C744240C 		movl	$_thread1, 12(%esp)	 #,
 1035      8F000000 
 1036 0bd8 89542408 		movl	%edx, 8(%esp)	 # D.3020,
 1037 0bdc C7442404 		movl	$17008, 4(%esp)	 #,
 1037      70420000 
 1038 0be4 890424   		movl	%eax, (%esp)	 # D.3021,
 1039 0be7 E8000000 		call	_chThdCreateStatic	 #
 1039      00
 1040 0bec 89C1     		movl	%eax, %ecx	 #, D.3022
 1041 0bee A1880400 		movl	LPBX1+1160, %eax	 # *LPBX1, PROF_edge_counter.6
 1041      00
 1042 0bf3 8B158C04 		movl	LPBX1+1164, %edx	 # *LPBX1, PROF_edge_counter.6
 1042      0000
 1043 0bf9 83C001   		addl	$1, %eax	 #, PROF_edge_counter.6
 1044 0bfc 83D200   		adcl	$0, %edx	 #, PROF_edge_counter.6
 1045 0bff A3880400 		movl	%eax, LPBX1+1160	 # PROF_edge_counter.6, *LPBX1
 1045      00
 1046 0c04 89158C04 		movl	%edx, LPBX1+1164	 # PROF_edge_counter.6, *LPBX1
 1046      0000
 1047 0c0a 890D0000 		movl	%ecx, _threads	 # D.3022, threads
 1047      0000
 1048              		.loc 1 146 0 discriminator 2
 1049              	/APP
 1050              	 # 146 "../../test/testqueues.c" 1
 1051 0c10 90       		nop
 1052              	 # 0 "" 2
 1053              	/NO_APP
 1054 0c11 A1900400 		movl	LPBX1+1168, %eax	 # *LPBX1, PROF_edge_counter.6
 1054      00
 1055 0c16 8B159404 		movl	LPBX1+1172, %edx	 # *LPBX1, PROF_edge_counter.6
 1055      0000
 1056 0c1c 83C001   		addl	$1, %eax	 #, PROF_edge_counter.6
 1057 0c1f 83D200   		adcl	$0, %edx	 #, PROF_edge_counter.6
 1058 0c22 A3900400 		movl	%eax, LPBX1+1168	 # PROF_edge_counter.6, *LPBX1
 1058      00
 1059 0c27 89159404 		movl	%edx, LPBX1+1172	 # PROF_edge_counter.6, *LPBX1
 1059      0000
 1060 0c2d A1080000 		movl	_iq+8, %eax	 # iq.q_counter, D.3023
 1060      00
 1061 0c32 85C0     		testl	%eax, %eax	 # D.3023
 1062 0c34 0F94C0   		sete	%al	 #, tmp290
 1063 0c37 0FB6C0   		movzbl	%al, %eax	 # tmp290, D.3024
 1064 0c3a 89442404 		movl	%eax, 4(%esp)	 # D.3024,
 1065 0c3e C704240C 		movl	$12, (%esp)	 #,
 1065      000000
GAS LISTING C:\cygwin\tmp\ccwpE9RZ.s 			page 27


 1066 0c45 E8000000 		call	__test_assert	 #
 1066      00
 1067 0c4a 84C0     		testb	%al, %al	 # D.3025
 1068 0c4c 743E     		je	L27	 #,
 1069              		.loc 1 146 0 is_stmt 0 discriminator 1
 1070 0c4e A1980400 		movl	LPBX1+1176, %eax	 # *LPBX1, PROF_edge_counter.6
 1070      00
 1071 0c53 8B159C04 		movl	LPBX1+1180, %edx	 # *LPBX1, PROF_edge_counter.6
 1071      0000
 1072 0c59 83C001   		addl	$1, %eax	 #, PROF_edge_counter.6
 1073 0c5c 83D200   		adcl	$0, %edx	 #, PROF_edge_counter.6
 1074 0c5f A3980400 		movl	%eax, LPBX1+1176	 # PROF_edge_counter.6, *LPBX1
 1074      00
 1075 0c64 89159C04 		movl	%edx, LPBX1+1180	 # PROF_edge_counter.6, *LPBX1
 1075      0000
 1076              	/APP
 1077              	 # 146 "../../test/testqueues.c" 1
 1078 0c6a 90       		nop
 1079              	 # 0 "" 2
 1080              	/NO_APP
 1081 0c6b A1A80400 		movl	LPBX1+1192, %eax	 # *LPBX1, PROF_edge_counter.6
 1081      00
 1082 0c70 8B15AC04 		movl	LPBX1+1196, %edx	 # *LPBX1, PROF_edge_counter.6
 1082      0000
 1083 0c76 83C001   		addl	$1, %eax	 #, PROF_edge_counter.6
 1084 0c79 83D200   		adcl	$0, %edx	 #, PROF_edge_counter.6
 1085 0c7c A3A80400 		movl	%eax, LPBX1+1192	 # PROF_edge_counter.6, *LPBX1
 1085      00
 1086 0c81 8915AC04 		movl	%edx, LPBX1+1196	 # PROF_edge_counter.6, *LPBX1
 1086      0000
 1087 0c87 E9E30000 		jmp	L4	 #
 1087      00
 1088              	L27:
 1089              		.loc 1 146 0 discriminator 2
 1090 0c8c A1A00400 		movl	LPBX1+1184, %eax	 # *LPBX1, PROF_edge_counter.6
 1090      00
 1091 0c91 8B15A404 		movl	LPBX1+1188, %edx	 # *LPBX1, PROF_edge_counter.6
 1091      0000
 1092 0c97 83C001   		addl	$1, %eax	 #, PROF_edge_counter.6
 1093 0c9a 83D200   		adcl	$0, %edx	 #, PROF_edge_counter.6
 1094 0c9d A3A00400 		movl	%eax, LPBX1+1184	 # PROF_edge_counter.6, *LPBX1
 1094      00
 1095 0ca2 8915A404 		movl	%edx, LPBX1+1188	 # PROF_edge_counter.6, *LPBX1
 1095      0000
 1096              	/APP
 1097              	 # 146 "../../test/testqueues.c" 1
 1098 0ca8 90       		nop
 1099              	 # 0 "" 2
 1100              	/NO_APP
 1101 0ca9 A1B00400 		movl	LPBX1+1200, %eax	 # *LPBX1, PROF_edge_counter.6
 1101      00
 1102 0cae 8B15B404 		movl	LPBX1+1204, %edx	 # *LPBX1, PROF_edge_counter.6
 1102      0000
 1103 0cb4 83C001   		addl	$1, %eax	 #, PROF_edge_counter.6
 1104 0cb7 83D200   		adcl	$0, %edx	 #, PROF_edge_counter.6
 1105 0cba A3B00400 		movl	%eax, LPBX1+1200	 # PROF_edge_counter.6, *LPBX1
 1105      00
GAS LISTING C:\cygwin\tmp\ccwpE9RZ.s 			page 28


 1106 0cbf 8915B404 		movl	%edx, LPBX1+1204	 # PROF_edge_counter.6, *LPBX1
 1106      0000
 1107              		.loc 1 147 0 is_stmt 1 discriminator 2
 1108 0cc5 E8000000 		call	_test_wait_threads	 #
 1108      00
 1109 0cca A1B80400 		movl	LPBX1+1208, %eax	 # *LPBX1, PROF_edge_counter.6
 1109      00
 1110 0ccf 8B15BC04 		movl	LPBX1+1212, %edx	 # *LPBX1, PROF_edge_counter.6
 1110      0000
 1111 0cd5 83C001   		addl	$1, %eax	 #, PROF_edge_counter.6
 1112 0cd8 83D200   		adcl	$0, %edx	 #, PROF_edge_counter.6
 1113 0cdb A3B80400 		movl	%eax, LPBX1+1208	 # PROF_edge_counter.6, *LPBX1
 1113      00
 1114 0ce0 8915BC04 		movl	%edx, LPBX1+1212	 # PROF_edge_counter.6, *LPBX1
 1114      0000
 1115              		.loc 1 150 0 discriminator 2
 1116 0ce6 C7442404 		movl	$10, 4(%esp)	 #,
 1116      0A000000 
 1117 0cee C7042400 		movl	$_iq, (%esp)	 #,
 1117      000000
 1118 0cf5 E8000000 		call	_chIQGetTimeout	 #
 1118      00
 1119 0cfa 89C1     		movl	%eax, %ecx	 #, D.3028
 1120 0cfc A1C00400 		movl	LPBX1+1216, %eax	 # *LPBX1, PROF_edge_counter.6
 1120      00
 1121 0d01 8B15C404 		movl	LPBX1+1220, %edx	 # *LPBX1, PROF_edge_counter.6
 1121      0000
 1122 0d07 83C001   		addl	$1, %eax	 #, PROF_edge_counter.6
 1123 0d0a 83D200   		adcl	$0, %edx	 #, PROF_edge_counter.6
 1124 0d0d A3C00400 		movl	%eax, LPBX1+1216	 # PROF_edge_counter.6, *LPBX1
 1124      00
 1125 0d12 8915C404 		movl	%edx, LPBX1+1220	 # PROF_edge_counter.6, *LPBX1
 1125      0000
 1126 0d18 83F9FF   		cmpl	$-1, %ecx	 #, D.3028
 1127 0d1b 0F94C0   		sete	%al	 #, tmp291
 1128 0d1e 0FB6C0   		movzbl	%al, %eax	 # tmp291, D.3029
 1129 0d21 89442404 		movl	%eax, 4(%esp)	 # D.3029,
 1130 0d25 C704240D 		movl	$13, (%esp)	 #,
 1130      000000
 1131 0d2c E8000000 		call	__test_assert	 #
 1131      00
 1132 0d31 88C1     		movb	%al, %cl	 #, D.3030
 1133 0d33 A1C80400 		movl	LPBX1+1224, %eax	 # *LPBX1, PROF_edge_counter.6
 1133      00
 1134 0d38 8B15CC04 		movl	LPBX1+1228, %edx	 # *LPBX1, PROF_edge_counter.6
 1134      0000
 1135 0d3e 83C001   		addl	$1, %eax	 #, PROF_edge_counter.6
 1136 0d41 83D200   		adcl	$0, %edx	 #, PROF_edge_counter.6
 1137 0d44 A3C80400 		movl	%eax, LPBX1+1224	 # PROF_edge_counter.6, *LPBX1
 1137      00
 1138 0d49 8915CC04 		movl	%edx, LPBX1+1228	 # PROF_edge_counter.6, *LPBX1
 1138      0000
 1139 0d4f 84C9     		testb	%cl, %cl	 # D.3030
 1140 0d51 741C     		je	L4	 #,
 1141              		.loc 1 150 0 is_stmt 0 discriminator 1
 1142 0d53 A1D00400 		movl	LPBX1+1232, %eax	 # *LPBX1, PROF_edge_counter.6
 1142      00
GAS LISTING C:\cygwin\tmp\ccwpE9RZ.s 			page 29


 1143 0d58 8B15D404 		movl	LPBX1+1236, %edx	 # *LPBX1, PROF_edge_counter.6
 1143      0000
 1144 0d5e 83C001   		addl	$1, %eax	 #, PROF_edge_counter.6
 1145 0d61 83D200   		adcl	$0, %edx	 #, PROF_edge_counter.6
 1146 0d64 A3D00400 		movl	%eax, LPBX1+1232	 # PROF_edge_counter.6, *LPBX1
 1146      00
 1147 0d69 8915D404 		movl	%edx, LPBX1+1236	 # PROF_edge_counter.6, *LPBX1
 1147      0000
 1148              	L4:
 1149              		.loc 1 151 0 is_stmt 1
 1150 0d6f 83C43C   		addl	$60, %esp	 #,
 1151              	LCFI7:
 1152              		.cfi_def_cfa_offset 4
 1153 0d72 C3       		ret
 1154              		.cfi_endproc
 1155              	LFE3:
 1156              		.globl	_testqueues1
 1157              		.section .rdata,"dr"
 1158              	LC1:
 1159 0005 51756575 		.ascii "Queues, input queues\0"
 1159      65732C20 
 1159      696E7075 
 1159      74207175 
 1159      65756573 
 1160 001a 0000     		.align 4
 1161              	_testqueues1:
 1162              	 # name:
 1163 001c 05000000 		.long	LC1
 1164              	 # setup:
 1165 0020 23000000 		.long	_queues1_setup
 1166              	 # teardown:
 1167 0024 00000000 		.long	0
 1168              	 # execute:
 1169 0028 E7000000 		.long	_queues1_execute
 1170              		.text
 1171              		.def	_queues2_setup;	.scl	3;	.type	32;	.endef
 1172              	_queues2_setup:
 1173              	LFB4:
 1174              		.loc 1 169 0
 1175              		.cfi_startproc
 1176 0d73 83EC2C   		subl	$44, %esp	 #,
 1177              	LCFI8:
 1178              		.cfi_def_cfa_offset 48
 1179              		.loc 1 169 0
 1180 0d76 A1500200 		movl	LPBX1+592, %eax	 # *LPBX1, PROF_edge_counter.5
 1180      00
 1181 0d7b 8B155402 		movl	LPBX1+596, %edx	 # *LPBX1, PROF_edge_counter.5
 1181      0000
 1182 0d81 83C001   		addl	$1, %eax	 #, PROF_edge_counter.5
 1183 0d84 83D200   		adcl	$0, %edx	 #, PROF_edge_counter.5
 1184 0d87 A3500200 		movl	%eax, LPBX1+592	 # PROF_edge_counter.5, *LPBX1
 1184      00
 1185 0d8c 89155402 		movl	%edx, LPBX1+596	 # PROF_edge_counter.5, *LPBX1
 1185      0000
 1186              		.loc 1 171 0
 1187 0d92 A1000000 		movl	_wa, %eax	 # wa, D.2944
 1187      00
GAS LISTING C:\cygwin\tmp\ccwpE9RZ.s 			page 30


 1188 0d97 C7442410 		movl	$0, 16(%esp)	 #,
 1188      00000000 
 1189 0d9f C744240C 		movl	$_notify, 12(%esp)	 #,
 1189      00000000 
 1190 0da7 C7442408 		movl	$4, 8(%esp)	 #,
 1190      04000000 
 1191 0daf 89442404 		movl	%eax, 4(%esp)	 # D.2944,
 1192 0db3 C7042440 		movl	$_oq, (%esp)	 #,
 1192      000000
 1193 0dba E8000000 		call	_chOQInit	 #
 1193      00
 1194 0dbf A1580200 		movl	LPBX1+600, %eax	 # *LPBX1, PROF_edge_counter.5
 1194      00
 1195 0dc4 8B155C02 		movl	LPBX1+604, %edx	 # *LPBX1, PROF_edge_counter.5
 1195      0000
 1196 0dca 83C001   		addl	$1, %eax	 #, PROF_edge_counter.5
 1197 0dcd 83D200   		adcl	$0, %edx	 #, PROF_edge_counter.5
 1198 0dd0 A3580200 		movl	%eax, LPBX1+600	 # PROF_edge_counter.5, *LPBX1
 1198      00
 1199 0dd5 89155C02 		movl	%edx, LPBX1+604	 # PROF_edge_counter.5, *LPBX1
 1199      0000
 1200              		.loc 1 172 0
 1201 0ddb 83C42C   		addl	$44, %esp	 #,
 1202              	LCFI9:
 1203              		.cfi_def_cfa_offset 4
 1204 0dde C3       		ret
 1205              		.cfi_endproc
 1206              	LFE4:
 1207              		.def	_thread2;	.scl	3;	.type	32;	.endef
 1208              	_thread2:
 1209              	LFB5:
 1210              		.loc 1 174 0
 1211              		.cfi_startproc
 1212 0ddf 83EC1C   		subl	$28, %esp	 #,
 1213              	LCFI10:
 1214              		.cfi_def_cfa_offset 32
 1215              		.loc 1 174 0
 1216 0de2 A1400200 		movl	LPBX1+576, %eax	 # *LPBX1, PROF_edge_counter.4
 1216      00
 1217 0de7 8B154402 		movl	LPBX1+580, %edx	 # *LPBX1, PROF_edge_counter.4
 1217      0000
 1218 0ded 83C001   		addl	$1, %eax	 #, PROF_edge_counter.4
 1219 0df0 83D200   		adcl	$0, %edx	 #, PROF_edge_counter.4
 1220 0df3 A3400200 		movl	%eax, LPBX1+576	 # PROF_edge_counter.4, *LPBX1
 1220      00
 1221 0df8 89154402 		movl	%edx, LPBX1+580	 # PROF_edge_counter.4, *LPBX1
 1221      0000
 1222              		.loc 1 177 0
 1223 0dfe C7442408 		movl	$200, 8(%esp)	 #,
 1223      C8000000 
 1224 0e06 C7442404 		movl	$0, 4(%esp)	 #,
 1224      00000000 
 1225 0e0e C7042440 		movl	$_oq, (%esp)	 #,
 1225      000000
 1226 0e15 E8000000 		call	_chOQPutTimeout	 #
 1226      00
 1227 0e1a A1480200 		movl	LPBX1+584, %eax	 # *LPBX1, PROF_edge_counter.4
GAS LISTING C:\cygwin\tmp\ccwpE9RZ.s 			page 31


 1227      00
 1228 0e1f 8B154C02 		movl	LPBX1+588, %edx	 # *LPBX1, PROF_edge_counter.4
 1228      0000
 1229 0e25 83C001   		addl	$1, %eax	 #, PROF_edge_counter.4
 1230 0e28 83D200   		adcl	$0, %edx	 #, PROF_edge_counter.4
 1231 0e2b A3480200 		movl	%eax, LPBX1+584	 # PROF_edge_counter.4, *LPBX1
 1231      00
 1232 0e30 89154C02 		movl	%edx, LPBX1+588	 # PROF_edge_counter.4, *LPBX1
 1232      0000
 1233              		.loc 1 178 0
 1234 0e36 B8000000 		movl	$0, %eax	 #, D.2942
 1234      00
 1235              		.loc 1 179 0
 1236 0e3b 83C41C   		addl	$28, %esp	 #,
 1237              	LCFI11:
 1238              		.cfi_def_cfa_offset 4
 1239 0e3e C3       		ret
 1240              		.cfi_endproc
 1241              	LFE5:
 1242              		.def	_queues2_execute;	.scl	3;	.type	32;	.endef
 1243              	_queues2_execute:
 1244              	LFB6:
 1245              		.loc 1 181 0
 1246              		.cfi_startproc
 1247 0e3f 83EC3C   		subl	$60, %esp	 #,
 1248              	LCFI12:
 1249              		.cfi_def_cfa_offset 64
 1250              		.loc 1 181 0
 1251 0e42 A1000000 		movl	LPBX1, %eax	 # *LPBX1, PROF_edge_counter.3
 1251      00
 1252 0e47 8B150400 		movl	LPBX1+4, %edx	 # *LPBX1, PROF_edge_counter.3
 1252      0000
 1253 0e4d 83C001   		addl	$1, %eax	 #, PROF_edge_counter.3
 1254 0e50 83D200   		adcl	$0, %edx	 #, PROF_edge_counter.3
 1255 0e53 A3000000 		movl	%eax, LPBX1	 # PROF_edge_counter.3, *LPBX1
 1255      00
 1256 0e58 89150400 		movl	%edx, LPBX1+4	 # PROF_edge_counter.3, *LPBX1
 1256      0000
 1257              		.loc 1 186 0
 1258              	/APP
 1259              	 # 186 "../../test/testqueues.c" 1
 1260 0e5e 90       		nop
 1261              	 # 0 "" 2
 1262              	/NO_APP
 1263 0e5f 8B155400 		movl	_oq+20, %edx	 # oq.q_wrptr, D.2842
 1263      0000
 1264 0e65 A1580000 		movl	_oq+24, %eax	 # oq.q_rdptr, D.2843
 1264      00
 1265 0e6a 39C2     		cmpl	%eax, %edx	 # D.2843, D.2842
 1266 0e6c 7548     		jne	L31	 #,
 1267              		.loc 1 186 0 is_stmt 0 discriminator 1
 1268 0e6e A1080000 		movl	LPBX1+8, %eax	 # *LPBX1, PROF_edge_counter.3
 1268      00
 1269 0e73 8B150C00 		movl	LPBX1+12, %edx	 # *LPBX1, PROF_edge_counter.3
 1269      0000
 1270 0e79 83C001   		addl	$1, %eax	 #, PROF_edge_counter.3
 1271 0e7c 83D200   		adcl	$0, %edx	 #, PROF_edge_counter.3
GAS LISTING C:\cygwin\tmp\ccwpE9RZ.s 			page 32


 1272 0e7f A3080000 		movl	%eax, LPBX1+8	 # PROF_edge_counter.3, *LPBX1
 1272      00
 1273 0e84 89150C00 		movl	%edx, LPBX1+12	 # PROF_edge_counter.3, *LPBX1
 1273      0000
 1274 0e8a A1480000 		movl	_oq+8, %eax	 # oq.q_counter, D.2845
 1274      00
 1275 0e8f 85C0     		testl	%eax, %eax	 # D.2845
 1276 0e91 7423     		je	L31	 #,
 1277              		.loc 1 186 0 discriminator 3
 1278 0e93 B9010000 		movl	$1, %ecx	 #, iftmp.0
 1278      00
 1279 0e98 A1100000 		movl	LPBX1+16, %eax	 # *LPBX1, PROF_edge_counter.3
 1279      00
 1280 0e9d 8B151400 		movl	LPBX1+20, %edx	 # *LPBX1, PROF_edge_counter.3
 1280      0000
 1281 0ea3 83C001   		addl	$1, %eax	 #, PROF_edge_counter.3
 1282 0ea6 83D200   		adcl	$0, %edx	 #, PROF_edge_counter.3
 1283 0ea9 A3100000 		movl	%eax, LPBX1+16	 # PROF_edge_counter.3, *LPBX1
 1283      00
 1284 0eae 89151400 		movl	%edx, LPBX1+20	 # PROF_edge_counter.3, *LPBX1
 1284      0000
 1285 0eb4 EB21     		jmp	L32	 #
 1286              	L31:
 1287              		.loc 1 186 0 discriminator 2
 1288 0eb6 B9000000 		movl	$0, %ecx	 #, iftmp.0
 1288      00
 1289 0ebb A1180000 		movl	LPBX1+24, %eax	 # *LPBX1, PROF_edge_counter.3
 1289      00
 1290 0ec0 8B151C00 		movl	LPBX1+28, %edx	 # *LPBX1, PROF_edge_counter.3
 1290      0000
 1291 0ec6 83C001   		addl	$1, %eax	 #, PROF_edge_counter.3
 1292 0ec9 83D200   		adcl	$0, %edx	 #, PROF_edge_counter.3
 1293 0ecc A3180000 		movl	%eax, LPBX1+24	 # PROF_edge_counter.3, *LPBX1
 1293      00
 1294 0ed1 89151C00 		movl	%edx, LPBX1+28	 # PROF_edge_counter.3, *LPBX1
 1294      0000
 1295              	L32:
 1296              		.loc 1 186 0 discriminator 4
 1297 0ed7 88C8     		movb	%cl, %al	 # iftmp.0, D.2847
 1298 0ed9 0FB6C0   		movzbl	%al, %eax	 # D.2847, D.2848
 1299 0edc 89442404 		movl	%eax, 4(%esp)	 # D.2848,
 1300 0ee0 C7042401 		movl	$1, (%esp)	 #,
 1300      000000
 1301 0ee7 E8000000 		call	__test_assert	 #
 1301      00
 1302 0eec 84C0     		testb	%al, %al	 # D.2849
 1303 0eee 743E     		je	L33	 #,
 1304              		.loc 1 186 0 discriminator 5
 1305 0ef0 A1200000 		movl	LPBX1+32, %eax	 # *LPBX1, PROF_edge_counter.3
 1305      00
 1306 0ef5 8B152400 		movl	LPBX1+36, %edx	 # *LPBX1, PROF_edge_counter.3
 1306      0000
 1307 0efb 83C001   		addl	$1, %eax	 #, PROF_edge_counter.3
 1308 0efe 83D200   		adcl	$0, %edx	 #, PROF_edge_counter.3
 1309 0f01 A3200000 		movl	%eax, LPBX1+32	 # PROF_edge_counter.3, *LPBX1
 1309      00
 1310 0f06 89152400 		movl	%edx, LPBX1+36	 # PROF_edge_counter.3, *LPBX1
GAS LISTING C:\cygwin\tmp\ccwpE9RZ.s 			page 33


 1310      0000
 1311              	/APP
 1312              	 # 186 "../../test/testqueues.c" 1
 1313 0f0c 90       		nop
 1314              	 # 0 "" 2
 1315              	/NO_APP
 1316 0f0d A1300000 		movl	LPBX1+48, %eax	 # *LPBX1, PROF_edge_counter.3
 1316      00
 1317 0f12 8B153400 		movl	LPBX1+52, %edx	 # *LPBX1, PROF_edge_counter.3
 1317      0000
 1318 0f18 83C001   		addl	$1, %eax	 #, PROF_edge_counter.3
 1319 0f1b 83D200   		adcl	$0, %edx	 #, PROF_edge_counter.3
 1320 0f1e A3300000 		movl	%eax, LPBX1+48	 # PROF_edge_counter.3, *LPBX1
 1320      00
 1321 0f23 89153400 		movl	%edx, LPBX1+52	 # PROF_edge_counter.3, *LPBX1
 1321      0000
 1322 0f29 E9B10A00 		jmp	L30	 #
 1322      00
 1323              	L33:
 1324              		.loc 1 186 0 discriminator 6
 1325 0f2e A1280000 		movl	LPBX1+40, %eax	 # *LPBX1, PROF_edge_counter.3
 1325      00
 1326 0f33 8B152C00 		movl	LPBX1+44, %edx	 # *LPBX1, PROF_edge_counter.3
 1326      0000
 1327 0f39 83C001   		addl	$1, %eax	 #, PROF_edge_counter.3
 1328 0f3c 83D200   		adcl	$0, %edx	 #, PROF_edge_counter.3
 1329 0f3f A3280000 		movl	%eax, LPBX1+40	 # PROF_edge_counter.3, *LPBX1
 1329      00
 1330 0f44 89152C00 		movl	%edx, LPBX1+44	 # PROF_edge_counter.3, *LPBX1
 1330      0000
 1331              	/APP
 1332              	 # 186 "../../test/testqueues.c" 1
 1333 0f4a 90       		nop
 1334              	 # 0 "" 2
 1335              		.loc 1 189 0 is_stmt 1 discriminator 6
 1336              	/NO_APP
 1337 0f4b C744242C 		movl	$0, 44(%esp)	 #, i
 1337      00000000 
 1338 0f53 EB5E     		jmp	L35	 #
 1339              	L36:
 1340              		.loc 1 189 0 is_stmt 0 discriminator 2
 1341 0f55 A1400000 		movl	LPBX1+64, %eax	 # *LPBX1, PROF_edge_counter.3
 1341      00
 1342 0f5a 8B154400 		movl	LPBX1+68, %edx	 # *LPBX1, PROF_edge_counter.3
 1342      0000
 1343 0f60 83C001   		addl	$1, %eax	 #, PROF_edge_counter.3
 1344 0f63 83D200   		adcl	$0, %edx	 #, PROF_edge_counter.3
 1345 0f66 A3400000 		movl	%eax, LPBX1+64	 # PROF_edge_counter.3, *LPBX1
 1345      00
 1346 0f6b 89154400 		movl	%edx, LPBX1+68	 # PROF_edge_counter.3, *LPBX1
 1346      0000
 1347              		.loc 1 190 0 is_stmt 1 discriminator 2
 1348 0f71 8B44242C 		movl	44(%esp), %eax	 # i, tmp271
 1349 0f75 83C041   		addl	$65, %eax	 #, D.2853
 1350 0f78 0FB6C0   		movzbl	%al, %eax	 # D.2853, D.2854
 1351 0f7b C7442408 		movl	$-1, 8(%esp)	 #,
 1351      FFFFFFFF 
GAS LISTING C:\cygwin\tmp\ccwpE9RZ.s 			page 34


 1352 0f83 89442404 		movl	%eax, 4(%esp)	 # D.2854,
 1353 0f87 C7042440 		movl	$_oq, (%esp)	 #,
 1353      000000
 1354 0f8e E8000000 		call	_chOQPutTimeout	 #
 1354      00
 1355              		.loc 1 189 0 discriminator 2
 1356 0f93 FF44242C 		incl	44(%esp)	 # i
 1357 0f97 A1380000 		movl	LPBX1+56, %eax	 # *LPBX1, PROF_edge_counter.3
 1357      00
 1358 0f9c 8B153C00 		movl	LPBX1+60, %edx	 # *LPBX1, PROF_edge_counter.3
 1358      0000
 1359 0fa2 83C001   		addl	$1, %eax	 #, PROF_edge_counter.3
 1360 0fa5 83D200   		adcl	$0, %edx	 #, PROF_edge_counter.3
 1361 0fa8 A3380000 		movl	%eax, LPBX1+56	 # PROF_edge_counter.3, *LPBX1
 1361      00
 1362 0fad 89153C00 		movl	%edx, LPBX1+60	 # PROF_edge_counter.3, *LPBX1
 1362      0000
 1363              	L35:
 1364              		.loc 1 189 0 is_stmt 0 discriminator 1
 1365 0fb3 837C242C 		cmpl	$3, 44(%esp)	 #, i
 1365      03
 1366 0fb8 769B     		jbe	L36	 #,
 1367              		.loc 1 189 0
 1368 0fba A1480000 		movl	LPBX1+72, %eax	 # *LPBX1, PROF_edge_counter.3
 1368      00
 1369 0fbf 8B154C00 		movl	LPBX1+76, %edx	 # *LPBX1, PROF_edge_counter.3
 1369      0000
 1370 0fc5 83C001   		addl	$1, %eax	 #, PROF_edge_counter.3
 1371 0fc8 83D200   		adcl	$0, %edx	 #, PROF_edge_counter.3
 1372 0fcb A3480000 		movl	%eax, LPBX1+72	 # PROF_edge_counter.3, *LPBX1
 1372      00
 1373 0fd0 89154C00 		movl	%edx, LPBX1+76	 # PROF_edge_counter.3, *LPBX1
 1373      0000
 1374              		.loc 1 191 0 is_stmt 1
 1375              	/APP
 1376              	 # 191 "../../test/testqueues.c" 1
 1377 0fd6 90       		nop
 1378              	 # 0 "" 2
 1379              	/NO_APP
 1380 0fd7 A1500000 		movl	LPBX1+80, %eax	 # *LPBX1, PROF_edge_counter.3
 1380      00
 1381 0fdc 8B155400 		movl	LPBX1+84, %edx	 # *LPBX1, PROF_edge_counter.3
 1381      0000
 1382 0fe2 83C001   		addl	$1, %eax	 #, PROF_edge_counter.3
 1383 0fe5 83D200   		adcl	$0, %edx	 #, PROF_edge_counter.3
 1384 0fe8 A3500000 		movl	%eax, LPBX1+80	 # PROF_edge_counter.3, *LPBX1
 1384      00
 1385 0fed 89155400 		movl	%edx, LPBX1+84	 # PROF_edge_counter.3, *LPBX1
 1385      0000
 1386 0ff3 A1480000 		movl	_oq+8, %eax	 # oq.q_counter, D.2855
 1386      00
 1387 0ff8 85C0     		testl	%eax, %eax	 # D.2855
 1388 0ffa 0F94C0   		sete	%al	 #, tmp272
 1389 0ffd 0FB6C0   		movzbl	%al, %eax	 # tmp272, D.2856
 1390 1000 89442404 		movl	%eax, 4(%esp)	 # D.2856,
 1391 1004 C7042402 		movl	$2, (%esp)	 #,
 1391      000000
GAS LISTING C:\cygwin\tmp\ccwpE9RZ.s 			page 35


 1392 100b E8000000 		call	__test_assert	 #
 1392      00
 1393 1010 84C0     		testb	%al, %al	 # D.2857
 1394 1012 743E     		je	L37	 #,
 1395              		.loc 1 191 0 is_stmt 0 discriminator 1
 1396 1014 A1580000 		movl	LPBX1+88, %eax	 # *LPBX1, PROF_edge_counter.3
 1396      00
 1397 1019 8B155C00 		movl	LPBX1+92, %edx	 # *LPBX1, PROF_edge_counter.3
 1397      0000
 1398 101f 83C001   		addl	$1, %eax	 #, PROF_edge_counter.3
 1399 1022 83D200   		adcl	$0, %edx	 #, PROF_edge_counter.3
 1400 1025 A3580000 		movl	%eax, LPBX1+88	 # PROF_edge_counter.3, *LPBX1
 1400      00
 1401 102a 89155C00 		movl	%edx, LPBX1+92	 # PROF_edge_counter.3, *LPBX1
 1401      0000
 1402              	/APP
 1403              	 # 191 "../../test/testqueues.c" 1
 1404 1030 90       		nop
 1405              	 # 0 "" 2
 1406              	/NO_APP
 1407 1031 A1680000 		movl	LPBX1+104, %eax	 # *LPBX1, PROF_edge_counter.3
 1407      00
 1408 1036 8B156C00 		movl	LPBX1+108, %edx	 # *LPBX1, PROF_edge_counter.3
 1408      0000
 1409 103c 83C001   		addl	$1, %eax	 #, PROF_edge_counter.3
 1410 103f 83D200   		adcl	$0, %edx	 #, PROF_edge_counter.3
 1411 1042 A3680000 		movl	%eax, LPBX1+104	 # PROF_edge_counter.3, *LPBX1
 1411      00
 1412 1047 89156C00 		movl	%edx, LPBX1+108	 # PROF_edge_counter.3, *LPBX1
 1412      0000
 1413 104d E98D0900 		jmp	L30	 #
 1413      00
 1414              	L37:
 1415              		.loc 1 191 0 discriminator 2
 1416 1052 A1600000 		movl	LPBX1+96, %eax	 # *LPBX1, PROF_edge_counter.3
 1416      00
 1417 1057 8B156400 		movl	LPBX1+100, %edx	 # *LPBX1, PROF_edge_counter.3
 1417      0000
 1418 105d 83C001   		addl	$1, %eax	 #, PROF_edge_counter.3
 1419 1060 83D200   		adcl	$0, %edx	 #, PROF_edge_counter.3
 1420 1063 A3600000 		movl	%eax, LPBX1+96	 # PROF_edge_counter.3, *LPBX1
 1420      00
 1421 1068 89156400 		movl	%edx, LPBX1+100	 # PROF_edge_counter.3, *LPBX1
 1421      0000
 1422              	/APP
 1423              	 # 191 "../../test/testqueues.c" 1
 1424 106e 90       		nop
 1425              	 # 0 "" 2
 1426              		.loc 1 194 0 is_stmt 1 discriminator 2
 1427              	/NO_APP
 1428 106f C744242C 		movl	$0, 44(%esp)	 #, i
 1428      00000000 
 1429 1077 E9B10000 		jmp	L38	 #
 1429      00
 1430              	L39:
 1431 107c A1900000 		movl	LPBX1+144, %eax	 # *LPBX1, PROF_edge_counter.3
 1431      00
GAS LISTING C:\cygwin\tmp\ccwpE9RZ.s 			page 36


 1432 1081 8B159400 		movl	LPBX1+148, %edx	 # *LPBX1, PROF_edge_counter.3
 1432      0000
 1433 1087 83C001   		addl	$1, %eax	 #, PROF_edge_counter.3
 1434 108a 83D200   		adcl	$0, %edx	 #, PROF_edge_counter.3
 1435 108d A3900000 		movl	%eax, LPBX1+144	 # PROF_edge_counter.3, *LPBX1
 1435      00
 1436 1092 89159400 		movl	%edx, LPBX1+148	 # PROF_edge_counter.3, *LPBX1
 1436      0000
 1437              	LBB2:
 1438              		.loc 1 197 0 discriminator 2
 1439              	/APP
 1440              	 # 197 "../../test/testqueues.c" 1
 1441 1098 90       		nop
 1442              	 # 0 "" 2
 1443              	/NO_APP
 1444 1099 A1700000 		movl	LPBX1+112, %eax	 # *LPBX1, PROF_edge_counter.3
 1444      00
 1445 109e 8B157400 		movl	LPBX1+116, %edx	 # *LPBX1, PROF_edge_counter.3
 1445      0000
 1446 10a4 83C001   		addl	$1, %eax	 #, PROF_edge_counter.3
 1447 10a7 83D200   		adcl	$0, %edx	 #, PROF_edge_counter.3
 1448 10aa A3700000 		movl	%eax, LPBX1+112	 # PROF_edge_counter.3, *LPBX1
 1448      00
 1449 10af 89157400 		movl	%edx, LPBX1+116	 # PROF_edge_counter.3, *LPBX1
 1449      0000
 1450              		.loc 1 198 0 discriminator 2
 1451 10b5 C7042440 		movl	$_oq, (%esp)	 #,
 1451      000000
 1452 10bc E8000000 		call	_chOQGetI	 #
 1452      00
 1453 10c1 89C1     		movl	%eax, %ecx	 #, D.2860
 1454 10c3 A1780000 		movl	LPBX1+120, %eax	 # *LPBX1, PROF_edge_counter.3
 1454      00
 1455 10c8 8B157C00 		movl	LPBX1+124, %edx	 # *LPBX1, PROF_edge_counter.3
 1455      0000
 1456 10ce 83C001   		addl	$1, %eax	 #, PROF_edge_counter.3
 1457 10d1 83D200   		adcl	$0, %edx	 #, PROF_edge_counter.3
 1458 10d4 A3780000 		movl	%eax, LPBX1+120	 # PROF_edge_counter.3, *LPBX1
 1458      00
 1459 10d9 89157C00 		movl	%edx, LPBX1+124	 # PROF_edge_counter.3, *LPBX1
 1459      0000
 1460 10df 884C242B 		movb	%cl, 43(%esp)	 # D.2860, c
 1461              		.loc 1 199 0 discriminator 2
 1462              	/APP
 1463              	 # 199 "../../test/testqueues.c" 1
 1464 10e3 90       		nop
 1465              	 # 0 "" 2
 1466              	/NO_APP
 1467 10e4 A1800000 		movl	LPBX1+128, %eax	 # *LPBX1, PROF_edge_counter.3
 1467      00
 1468 10e9 8B158400 		movl	LPBX1+132, %edx	 # *LPBX1, PROF_edge_counter.3
 1468      0000
 1469 10ef 83C001   		addl	$1, %eax	 #, PROF_edge_counter.3
 1470 10f2 83D200   		adcl	$0, %edx	 #, PROF_edge_counter.3
 1471 10f5 A3800000 		movl	%eax, LPBX1+128	 # PROF_edge_counter.3, *LPBX1
 1471      00
 1472 10fa 89158400 		movl	%edx, LPBX1+132	 # PROF_edge_counter.3, *LPBX1
GAS LISTING C:\cygwin\tmp\ccwpE9RZ.s 			page 37


 1472      0000
 1473              		.loc 1 200 0 discriminator 2
 1474 1100 0FBE4424 		movsbl	43(%esp), %eax	 # c, D.2861
 1474      2B
 1475 1105 890424   		movl	%eax, (%esp)	 # D.2861,
 1476 1108 E8000000 		call	_test_emit_token	 #
 1476      00
 1477              	LBE2:
 1478              		.loc 1 194 0 discriminator 2
 1479 110d FF44242C 		incl	44(%esp)	 # i
 1480 1111 A1880000 		movl	LPBX1+136, %eax	 # *LPBX1, PROF_edge_counter.3
 1480      00
 1481 1116 8B158C00 		movl	LPBX1+140, %edx	 # *LPBX1, PROF_edge_counter.3
 1481      0000
 1482 111c 83C001   		addl	$1, %eax	 #, PROF_edge_counter.3
 1483 111f 83D200   		adcl	$0, %edx	 #, PROF_edge_counter.3
 1484 1122 A3880000 		movl	%eax, LPBX1+136	 # PROF_edge_counter.3, *LPBX1
 1484      00
 1485 1127 89158C00 		movl	%edx, LPBX1+140	 # PROF_edge_counter.3, *LPBX1
 1485      0000
 1486              	L38:
 1487              		.loc 1 194 0 is_stmt 0 discriminator 1
 1488 112d 837C242C 		cmpl	$3, 44(%esp)	 #, i
 1488      03
 1489 1132 0F8644FF 		jbe	L39	 #,
 1489      FFFF
 1490              		.loc 1 194 0
 1491 1138 A1980000 		movl	LPBX1+152, %eax	 # *LPBX1, PROF_edge_counter.3
 1491      00
 1492 113d 8B159C00 		movl	LPBX1+156, %edx	 # *LPBX1, PROF_edge_counter.3
 1492      0000
 1493 1143 83C001   		addl	$1, %eax	 #, PROF_edge_counter.3
 1494 1146 83D200   		adcl	$0, %edx	 #, PROF_edge_counter.3
 1495 1149 A3980000 		movl	%eax, LPBX1+152	 # PROF_edge_counter.3, *LPBX1
 1495      00
 1496 114e 89159C00 		movl	%edx, LPBX1+156	 # PROF_edge_counter.3, *LPBX1
 1496      0000
 1497              		.loc 1 202 0 is_stmt 1
 1498              	/APP
 1499              	 # 202 "../../test/testqueues.c" 1
 1500 1154 90       		nop
 1501              	 # 0 "" 2
 1502              	/NO_APP
 1503 1155 8B155400 		movl	_oq+20, %edx	 # oq.q_wrptr, D.2865
 1503      0000
 1504 115b A1580000 		movl	_oq+24, %eax	 # oq.q_rdptr, D.2866
 1504      00
 1505 1160 39C2     		cmpl	%eax, %edx	 # D.2866, D.2865
 1506 1162 7548     		jne	L40	 #,
 1507              		.loc 1 202 0 is_stmt 0 discriminator 1
 1508 1164 A1A00000 		movl	LPBX1+160, %eax	 # *LPBX1, PROF_edge_counter.3
 1508      00
 1509 1169 8B15A400 		movl	LPBX1+164, %edx	 # *LPBX1, PROF_edge_counter.3
 1509      0000
 1510 116f 83C001   		addl	$1, %eax	 #, PROF_edge_counter.3
 1511 1172 83D200   		adcl	$0, %edx	 #, PROF_edge_counter.3
 1512 1175 A3A00000 		movl	%eax, LPBX1+160	 # PROF_edge_counter.3, *LPBX1
GAS LISTING C:\cygwin\tmp\ccwpE9RZ.s 			page 38


 1512      00
 1513 117a 8915A400 		movl	%edx, LPBX1+164	 # PROF_edge_counter.3, *LPBX1
 1513      0000
 1514 1180 A1480000 		movl	_oq+8, %eax	 # oq.q_counter, D.2868
 1514      00
 1515 1185 85C0     		testl	%eax, %eax	 # D.2868
 1516 1187 7423     		je	L40	 #,
 1517              		.loc 1 202 0 discriminator 3
 1518 1189 B9010000 		movl	$1, %ecx	 #, iftmp.1
 1518      00
 1519 118e A1A80000 		movl	LPBX1+168, %eax	 # *LPBX1, PROF_edge_counter.3
 1519      00
 1520 1193 8B15AC00 		movl	LPBX1+172, %edx	 # *LPBX1, PROF_edge_counter.3
 1520      0000
 1521 1199 83C001   		addl	$1, %eax	 #, PROF_edge_counter.3
 1522 119c 83D200   		adcl	$0, %edx	 #, PROF_edge_counter.3
 1523 119f A3A80000 		movl	%eax, LPBX1+168	 # PROF_edge_counter.3, *LPBX1
 1523      00
 1524 11a4 8915AC00 		movl	%edx, LPBX1+172	 # PROF_edge_counter.3, *LPBX1
 1524      0000
 1525 11aa EB21     		jmp	L41	 #
 1526              	L40:
 1527              		.loc 1 202 0 discriminator 2
 1528 11ac B9000000 		movl	$0, %ecx	 #, iftmp.1
 1528      00
 1529 11b1 A1B00000 		movl	LPBX1+176, %eax	 # *LPBX1, PROF_edge_counter.3
 1529      00
 1530 11b6 8B15B400 		movl	LPBX1+180, %edx	 # *LPBX1, PROF_edge_counter.3
 1530      0000
 1531 11bc 83C001   		addl	$1, %eax	 #, PROF_edge_counter.3
 1532 11bf 83D200   		adcl	$0, %edx	 #, PROF_edge_counter.3
 1533 11c2 A3B00000 		movl	%eax, LPBX1+176	 # PROF_edge_counter.3, *LPBX1
 1533      00
 1534 11c7 8915B400 		movl	%edx, LPBX1+180	 # PROF_edge_counter.3, *LPBX1
 1534      0000
 1535              	L41:
 1536              		.loc 1 202 0 discriminator 4
 1537 11cd 88C8     		movb	%cl, %al	 # iftmp.1, D.2870
 1538 11cf 0FB6C0   		movzbl	%al, %eax	 # D.2870, D.2871
 1539 11d2 89442404 		movl	%eax, 4(%esp)	 # D.2871,
 1540 11d6 C7042403 		movl	$3, (%esp)	 #,
 1540      000000
 1541 11dd E8000000 		call	__test_assert	 #
 1541      00
 1542 11e2 84C0     		testb	%al, %al	 # D.2872
 1543 11e4 743E     		je	L42	 #,
 1544              		.loc 1 202 0 discriminator 5
 1545 11e6 A1B80000 		movl	LPBX1+184, %eax	 # *LPBX1, PROF_edge_counter.3
 1545      00
 1546 11eb 8B15BC00 		movl	LPBX1+188, %edx	 # *LPBX1, PROF_edge_counter.3
 1546      0000
 1547 11f1 83C001   		addl	$1, %eax	 #, PROF_edge_counter.3
 1548 11f4 83D200   		adcl	$0, %edx	 #, PROF_edge_counter.3
 1549 11f7 A3B80000 		movl	%eax, LPBX1+184	 # PROF_edge_counter.3, *LPBX1
 1549      00
 1550 11fc 8915BC00 		movl	%edx, LPBX1+188	 # PROF_edge_counter.3, *LPBX1
 1550      0000
GAS LISTING C:\cygwin\tmp\ccwpE9RZ.s 			page 39


 1551              	/APP
 1552              	 # 202 "../../test/testqueues.c" 1
 1553 1202 90       		nop
 1554              	 # 0 "" 2
 1555              	/NO_APP
 1556 1203 A1C80000 		movl	LPBX1+200, %eax	 # *LPBX1, PROF_edge_counter.3
 1556      00
 1557 1208 8B15CC00 		movl	LPBX1+204, %edx	 # *LPBX1, PROF_edge_counter.3
 1557      0000
 1558 120e 83C001   		addl	$1, %eax	 #, PROF_edge_counter.3
 1559 1211 83D200   		adcl	$0, %edx	 #, PROF_edge_counter.3
 1560 1214 A3C80000 		movl	%eax, LPBX1+200	 # PROF_edge_counter.3, *LPBX1
 1560      00
 1561 1219 8915CC00 		movl	%edx, LPBX1+204	 # PROF_edge_counter.3, *LPBX1
 1561      0000
 1562 121f E9BB0700 		jmp	L30	 #
 1562      00
 1563              	L42:
 1564              		.loc 1 202 0 discriminator 6
 1565 1224 A1C00000 		movl	LPBX1+192, %eax	 # *LPBX1, PROF_edge_counter.3
 1565      00
 1566 1229 8B15C400 		movl	LPBX1+196, %edx	 # *LPBX1, PROF_edge_counter.3
 1566      0000
 1567 122f 83C001   		addl	$1, %eax	 #, PROF_edge_counter.3
 1568 1232 83D200   		adcl	$0, %edx	 #, PROF_edge_counter.3
 1569 1235 A3C00000 		movl	%eax, LPBX1+192	 # PROF_edge_counter.3, *LPBX1
 1569      00
 1570 123a 8915C400 		movl	%edx, LPBX1+196	 # PROF_edge_counter.3, *LPBX1
 1570      0000
 1571              	/APP
 1572              	 # 202 "../../test/testqueues.c" 1
 1573 1240 90       		nop
 1574              	 # 0 "" 2
 1575              	/NO_APP
 1576 1241 A1D00000 		movl	LPBX1+208, %eax	 # *LPBX1, PROF_edge_counter.3
 1576      00
 1577 1246 8B15D400 		movl	LPBX1+212, %edx	 # *LPBX1, PROF_edge_counter.3
 1577      0000
 1578 124c 83C001   		addl	$1, %eax	 #, PROF_edge_counter.3
 1579 124f 83D200   		adcl	$0, %edx	 #, PROF_edge_counter.3
 1580 1252 A3D00000 		movl	%eax, LPBX1+208	 # PROF_edge_counter.3, *LPBX1
 1580      00
 1581 1257 8915D400 		movl	%edx, LPBX1+212	 # PROF_edge_counter.3, *LPBX1
 1581      0000
 1582              		.loc 1 203 0 is_stmt 1 discriminator 6
 1583 125d C7442404 		movl	$LC0, 4(%esp)	 #,
 1583      00000000 
 1584 1265 C7042404 		movl	$4, (%esp)	 #,
 1584      000000
 1585 126c E8000000 		call	__test_assert_sequence	 #
 1585      00
 1586 1271 84C0     		testb	%al, %al	 # D.2875
 1587 1273 7421     		je	L43	 #,
 1588              		.loc 1 203 0 is_stmt 0 discriminator 1
 1589 1275 A1E00000 		movl	LPBX1+224, %eax	 # *LPBX1, PROF_edge_counter.3
 1589      00
 1590 127a 8B15E400 		movl	LPBX1+228, %edx	 # *LPBX1, PROF_edge_counter.3
GAS LISTING C:\cygwin\tmp\ccwpE9RZ.s 			page 40


 1590      0000
 1591 1280 83C001   		addl	$1, %eax	 #, PROF_edge_counter.3
 1592 1283 83D200   		adcl	$0, %edx	 #, PROF_edge_counter.3
 1593 1286 A3E00000 		movl	%eax, LPBX1+224	 # PROF_edge_counter.3, *LPBX1
 1593      00
 1594 128b 8915E400 		movl	%edx, LPBX1+228	 # PROF_edge_counter.3, *LPBX1
 1594      0000
 1595 1291 E9490700 		jmp	L30	 #
 1595      00
 1596              	L43:
 1597              		.loc 1 203 0
 1598 1296 A1D80000 		movl	LPBX1+216, %eax	 # *LPBX1, PROF_edge_counter.3
 1598      00
 1599 129b 8B15DC00 		movl	LPBX1+220, %edx	 # *LPBX1, PROF_edge_counter.3
 1599      0000
 1600 12a1 83C001   		addl	$1, %eax	 #, PROF_edge_counter.3
 1601 12a4 83D200   		adcl	$0, %edx	 #, PROF_edge_counter.3
 1602 12a7 A3D80000 		movl	%eax, LPBX1+216	 # PROF_edge_counter.3, *LPBX1
 1602      00
 1603 12ac 8915DC00 		movl	%edx, LPBX1+220	 # PROF_edge_counter.3, *LPBX1
 1603      0000
 1604              		.loc 1 204 0 is_stmt 1
 1605              	/APP
 1606              	 # 204 "../../test/testqueues.c" 1
 1607 12b2 90       		nop
 1608              	 # 0 "" 2
 1609              	/NO_APP
 1610 12b3 A1E80000 		movl	LPBX1+232, %eax	 # *LPBX1, PROF_edge_counter.3
 1610      00
 1611 12b8 8B15EC00 		movl	LPBX1+236, %edx	 # *LPBX1, PROF_edge_counter.3
 1611      0000
 1612 12be 83C001   		addl	$1, %eax	 #, PROF_edge_counter.3
 1613 12c1 83D200   		adcl	$0, %edx	 #, PROF_edge_counter.3
 1614 12c4 A3E80000 		movl	%eax, LPBX1+232	 # PROF_edge_counter.3, *LPBX1
 1614      00
 1615 12c9 8915EC00 		movl	%edx, LPBX1+236	 # PROF_edge_counter.3, *LPBX1
 1615      0000
 1616 12cf C7042440 		movl	$_oq, (%esp)	 #,
 1616      000000
 1617 12d6 E8000000 		call	_chOQGetI	 #
 1617      00
 1618 12db 89C1     		movl	%eax, %ecx	 #, D.2878
 1619 12dd A1F00000 		movl	LPBX1+240, %eax	 # *LPBX1, PROF_edge_counter.3
 1619      00
 1620 12e2 8B15F400 		movl	LPBX1+244, %edx	 # *LPBX1, PROF_edge_counter.3
 1620      0000
 1621 12e8 83C001   		addl	$1, %eax	 #, PROF_edge_counter.3
 1622 12eb 83D200   		adcl	$0, %edx	 #, PROF_edge_counter.3
 1623 12ee A3F00000 		movl	%eax, LPBX1+240	 # PROF_edge_counter.3, *LPBX1
 1623      00
 1624 12f3 8915F400 		movl	%edx, LPBX1+244	 # PROF_edge_counter.3, *LPBX1
 1624      0000
 1625 12f9 83F9FD   		cmpl	$-3, %ecx	 #, D.2878
 1626 12fc 0F94C0   		sete	%al	 #, tmp273
 1627 12ff 0FB6C0   		movzbl	%al, %eax	 # tmp273, D.2879
 1628 1302 89442404 		movl	%eax, 4(%esp)	 # D.2879,
 1629 1306 C7042405 		movl	$5, (%esp)	 #,
GAS LISTING C:\cygwin\tmp\ccwpE9RZ.s 			page 41


 1629      000000
 1630 130d E8000000 		call	__test_assert	 #
 1630      00
 1631 1312 84C0     		testb	%al, %al	 # D.2880
 1632 1314 743E     		je	L44	 #,
 1633              		.loc 1 204 0 is_stmt 0 discriminator 1
 1634 1316 A1F80000 		movl	LPBX1+248, %eax	 # *LPBX1, PROF_edge_counter.3
 1634      00
 1635 131b 8B15FC00 		movl	LPBX1+252, %edx	 # *LPBX1, PROF_edge_counter.3
 1635      0000
 1636 1321 83C001   		addl	$1, %eax	 #, PROF_edge_counter.3
 1637 1324 83D200   		adcl	$0, %edx	 #, PROF_edge_counter.3
 1638 1327 A3F80000 		movl	%eax, LPBX1+248	 # PROF_edge_counter.3, *LPBX1
 1638      00
 1639 132c 8915FC00 		movl	%edx, LPBX1+252	 # PROF_edge_counter.3, *LPBX1
 1639      0000
 1640              	/APP
 1641              	 # 204 "../../test/testqueues.c" 1
 1642 1332 90       		nop
 1643              	 # 0 "" 2
 1644              	/NO_APP
 1645 1333 A1080100 		movl	LPBX1+264, %eax	 # *LPBX1, PROF_edge_counter.3
 1645      00
 1646 1338 8B150C01 		movl	LPBX1+268, %edx	 # *LPBX1, PROF_edge_counter.3
 1646      0000
 1647 133e 83C001   		addl	$1, %eax	 #, PROF_edge_counter.3
 1648 1341 83D200   		adcl	$0, %edx	 #, PROF_edge_counter.3
 1649 1344 A3080100 		movl	%eax, LPBX1+264	 # PROF_edge_counter.3, *LPBX1
 1649      00
 1650 1349 89150C01 		movl	%edx, LPBX1+268	 # PROF_edge_counter.3, *LPBX1
 1650      0000
 1651 134f E98B0600 		jmp	L30	 #
 1651      00
 1652              	L44:
 1653              		.loc 1 204 0 discriminator 2
 1654 1354 A1000100 		movl	LPBX1+256, %eax	 # *LPBX1, PROF_edge_counter.3
 1654      00
 1655 1359 8B150401 		movl	LPBX1+260, %edx	 # *LPBX1, PROF_edge_counter.3
 1655      0000
 1656 135f 83C001   		addl	$1, %eax	 #, PROF_edge_counter.3
 1657 1362 83D200   		adcl	$0, %edx	 #, PROF_edge_counter.3
 1658 1365 A3000100 		movl	%eax, LPBX1+256	 # PROF_edge_counter.3, *LPBX1
 1658      00
 1659 136a 89150401 		movl	%edx, LPBX1+260	 # PROF_edge_counter.3, *LPBX1
 1659      0000
 1660              	/APP
 1661              	 # 204 "../../test/testqueues.c" 1
 1662 1370 90       		nop
 1663              	 # 0 "" 2
 1664              	/NO_APP
 1665 1371 A1100100 		movl	LPBX1+272, %eax	 # *LPBX1, PROF_edge_counter.3
 1665      00
 1666 1376 8B151401 		movl	LPBX1+276, %edx	 # *LPBX1, PROF_edge_counter.3
 1666      0000
 1667 137c 83C001   		addl	$1, %eax	 #, PROF_edge_counter.3
 1668 137f 83D200   		adcl	$0, %edx	 #, PROF_edge_counter.3
 1669 1382 A3100100 		movl	%eax, LPBX1+272	 # PROF_edge_counter.3, *LPBX1
GAS LISTING C:\cygwin\tmp\ccwpE9RZ.s 			page 42


 1669      00
 1670 1387 89151401 		movl	%edx, LPBX1+276	 # PROF_edge_counter.3, *LPBX1
 1670      0000
 1671              		.loc 1 207 0 is_stmt 1 discriminator 2
 1672 138d A1040000 		movl	_wa+4, %eax	 # wa, D.2883
 1672      00
 1673 1392 C744240C 		movl	$0, 12(%esp)	 #,
 1673      00000000 
 1674 139a C7442408 		movl	$8, 8(%esp)	 #,
 1674      08000000 
 1675 13a2 89442404 		movl	%eax, 4(%esp)	 # D.2883,
 1676 13a6 C7042440 		movl	$_oq, (%esp)	 #,
 1676      000000
 1677 13ad E8000000 		call	_chOQWriteTimeout	 #
 1677      00
 1678 13b2 89442424 		movl	%eax, 36(%esp)	 # tmp274, n
 1679 13b6 A1180100 		movl	LPBX1+280, %eax	 # *LPBX1, PROF_edge_counter.3
 1679      00
 1680 13bb 8B151C01 		movl	LPBX1+284, %edx	 # *LPBX1, PROF_edge_counter.3
 1680      0000
 1681 13c1 83C001   		addl	$1, %eax	 #, PROF_edge_counter.3
 1682 13c4 83D200   		adcl	$0, %edx	 #, PROF_edge_counter.3
 1683 13c7 A3180100 		movl	%eax, LPBX1+280	 # PROF_edge_counter.3, *LPBX1
 1683      00
 1684 13cc 89151C01 		movl	%edx, LPBX1+284	 # PROF_edge_counter.3, *LPBX1
 1684      0000
 1685              		.loc 1 208 0 discriminator 2
 1686 13d2 837C2424 		cmpl	$4, 36(%esp)	 #, n
 1686      04
 1687 13d7 0F94C0   		sete	%al	 #, tmp275
 1688 13da 0FB6C0   		movzbl	%al, %eax	 # tmp275, D.2884
 1689 13dd 89442404 		movl	%eax, 4(%esp)	 # D.2884,
 1690 13e1 C7042406 		movl	$6, (%esp)	 #,
 1690      000000
 1691 13e8 E8000000 		call	__test_assert	 #
 1691      00
 1692 13ed 84C0     		testb	%al, %al	 # D.2885
 1693 13ef 7421     		je	L45	 #,
 1694              		.loc 1 208 0 is_stmt 0 discriminator 1
 1695 13f1 A1280100 		movl	LPBX1+296, %eax	 # *LPBX1, PROF_edge_counter.3
 1695      00
 1696 13f6 8B152C01 		movl	LPBX1+300, %edx	 # *LPBX1, PROF_edge_counter.3
 1696      0000
 1697 13fc 83C001   		addl	$1, %eax	 #, PROF_edge_counter.3
 1698 13ff 83D200   		adcl	$0, %edx	 #, PROF_edge_counter.3
 1699 1402 A3280100 		movl	%eax, LPBX1+296	 # PROF_edge_counter.3, *LPBX1
 1699      00
 1700 1407 89152C01 		movl	%edx, LPBX1+300	 # PROF_edge_counter.3, *LPBX1
 1700      0000
 1701 140d E9CD0500 		jmp	L30	 #
 1701      00
 1702              	L45:
 1703              		.loc 1 208 0
 1704 1412 A1200100 		movl	LPBX1+288, %eax	 # *LPBX1, PROF_edge_counter.3
 1704      00
 1705 1417 8B152401 		movl	LPBX1+292, %edx	 # *LPBX1, PROF_edge_counter.3
 1705      0000
GAS LISTING C:\cygwin\tmp\ccwpE9RZ.s 			page 43


 1706 141d 83C001   		addl	$1, %eax	 #, PROF_edge_counter.3
 1707 1420 83D200   		adcl	$0, %edx	 #, PROF_edge_counter.3
 1708 1423 A3200100 		movl	%eax, LPBX1+288	 # PROF_edge_counter.3, *LPBX1
 1708      00
 1709 1428 89152401 		movl	%edx, LPBX1+292	 # PROF_edge_counter.3, *LPBX1
 1709      0000
 1710              		.loc 1 209 0 is_stmt 1
 1711              	/APP
 1712              	 # 209 "../../test/testqueues.c" 1
 1713 142e 90       		nop
 1714              	 # 0 "" 2
 1715              	/NO_APP
 1716 142f A1300100 		movl	LPBX1+304, %eax	 # *LPBX1, PROF_edge_counter.3
 1716      00
 1717 1434 8B153401 		movl	LPBX1+308, %edx	 # *LPBX1, PROF_edge_counter.3
 1717      0000
 1718 143a 83C001   		addl	$1, %eax	 #, PROF_edge_counter.3
 1719 143d 83D200   		adcl	$0, %edx	 #, PROF_edge_counter.3
 1720 1440 A3300100 		movl	%eax, LPBX1+304	 # PROF_edge_counter.3, *LPBX1
 1720      00
 1721 1445 89153401 		movl	%edx, LPBX1+308	 # PROF_edge_counter.3, *LPBX1
 1721      0000
 1722 144b A1480000 		movl	_oq+8, %eax	 # oq.q_counter, D.2888
 1722      00
 1723 1450 85C0     		testl	%eax, %eax	 # D.2888
 1724 1452 0F94C0   		sete	%al	 #, tmp276
 1725 1455 0FB6C0   		movzbl	%al, %eax	 # tmp276, D.2889
 1726 1458 89442404 		movl	%eax, 4(%esp)	 # D.2889,
 1727 145c C7042407 		movl	$7, (%esp)	 #,
 1727      000000
 1728 1463 E8000000 		call	__test_assert	 #
 1728      00
 1729 1468 84C0     		testb	%al, %al	 # D.2890
 1730 146a 743E     		je	L46	 #,
 1731              		.loc 1 209 0 is_stmt 0 discriminator 1
 1732 146c A1380100 		movl	LPBX1+312, %eax	 # *LPBX1, PROF_edge_counter.3
 1732      00
 1733 1471 8B153C01 		movl	LPBX1+316, %edx	 # *LPBX1, PROF_edge_counter.3
 1733      0000
 1734 1477 83C001   		addl	$1, %eax	 #, PROF_edge_counter.3
 1735 147a 83D200   		adcl	$0, %edx	 #, PROF_edge_counter.3
 1736 147d A3380100 		movl	%eax, LPBX1+312	 # PROF_edge_counter.3, *LPBX1
 1736      00
 1737 1482 89153C01 		movl	%edx, LPBX1+316	 # PROF_edge_counter.3, *LPBX1
 1737      0000
 1738              	/APP
 1739              	 # 209 "../../test/testqueues.c" 1
 1740 1488 90       		nop
 1741              	 # 0 "" 2
 1742              	/NO_APP
 1743 1489 A1480100 		movl	LPBX1+328, %eax	 # *LPBX1, PROF_edge_counter.3
 1743      00
 1744 148e 8B154C01 		movl	LPBX1+332, %edx	 # *LPBX1, PROF_edge_counter.3
 1744      0000
 1745 1494 83C001   		addl	$1, %eax	 #, PROF_edge_counter.3
 1746 1497 83D200   		adcl	$0, %edx	 #, PROF_edge_counter.3
 1747 149a A3480100 		movl	%eax, LPBX1+328	 # PROF_edge_counter.3, *LPBX1
GAS LISTING C:\cygwin\tmp\ccwpE9RZ.s 			page 44


 1747      00
 1748 149f 89154C01 		movl	%edx, LPBX1+332	 # PROF_edge_counter.3, *LPBX1
 1748      0000
 1749 14a5 E9350500 		jmp	L30	 #
 1749      00
 1750              	L46:
 1751              		.loc 1 209 0 discriminator 2
 1752 14aa A1400100 		movl	LPBX1+320, %eax	 # *LPBX1, PROF_edge_counter.3
 1752      00
 1753 14af 8B154401 		movl	LPBX1+324, %edx	 # *LPBX1, PROF_edge_counter.3
 1753      0000
 1754 14b5 83C001   		addl	$1, %eax	 #, PROF_edge_counter.3
 1755 14b8 83D200   		adcl	$0, %edx	 #, PROF_edge_counter.3
 1756 14bb A3400100 		movl	%eax, LPBX1+320	 # PROF_edge_counter.3, *LPBX1
 1756      00
 1757 14c0 89154401 		movl	%edx, LPBX1+324	 # PROF_edge_counter.3, *LPBX1
 1757      0000
 1758              	/APP
 1759              	 # 209 "../../test/testqueues.c" 1
 1760 14c6 90       		nop
 1761              	 # 0 "" 2
 1762              	/NO_APP
 1763 14c7 A1500100 		movl	LPBX1+336, %eax	 # *LPBX1, PROF_edge_counter.3
 1763      00
 1764 14cc 8B155401 		movl	LPBX1+340, %edx	 # *LPBX1, PROF_edge_counter.3
 1764      0000
 1765 14d2 83C001   		addl	$1, %eax	 #, PROF_edge_counter.3
 1766 14d5 83D200   		adcl	$0, %edx	 #, PROF_edge_counter.3
 1767 14d8 A3500100 		movl	%eax, LPBX1+336	 # PROF_edge_counter.3, *LPBX1
 1767      00
 1768 14dd 89155401 		movl	%edx, LPBX1+340	 # PROF_edge_counter.3, *LPBX1
 1768      0000
 1769              		.loc 1 210 0 is_stmt 1 discriminator 2
 1770 14e3 A1180000 		movl	_rlist+24, %eax	 # rlist.r_current, D.2893
 1770      00
 1771 14e8 8B4008   		movl	8(%eax), %eax	 # D.2893_45->p_prio, D.2894
 1772 14eb 8D5001   		leal	1(%eax), %edx	 #, D.2895
 1773 14ee A1000000 		movl	_wa, %eax	 # wa, D.2896
 1773      00
 1774 14f3 C7442410 		movl	$0, 16(%esp)	 #,
 1774      00000000 
 1775 14fb C744240C 		movl	$_thread2, 12(%esp)	 #,
 1775      DF0D0000 
 1776 1503 89542408 		movl	%edx, 8(%esp)	 # D.2895,
 1777 1507 C7442404 		movl	$17008, 4(%esp)	 #,
 1777      70420000 
 1778 150f 890424   		movl	%eax, (%esp)	 # D.2896,
 1779 1512 E8000000 		call	_chThdCreateStatic	 #
 1779      00
 1780 1517 89C1     		movl	%eax, %ecx	 #, D.2897
 1781 1519 A1580100 		movl	LPBX1+344, %eax	 # *LPBX1, PROF_edge_counter.3
 1781      00
 1782 151e 8B155C01 		movl	LPBX1+348, %edx	 # *LPBX1, PROF_edge_counter.3
 1782      0000
 1783 1524 83C001   		addl	$1, %eax	 #, PROF_edge_counter.3
 1784 1527 83D200   		adcl	$0, %edx	 #, PROF_edge_counter.3
 1785 152a A3580100 		movl	%eax, LPBX1+344	 # PROF_edge_counter.3, *LPBX1
GAS LISTING C:\cygwin\tmp\ccwpE9RZ.s 			page 45


 1785      00
 1786 152f 89155C01 		movl	%edx, LPBX1+348	 # PROF_edge_counter.3, *LPBX1
 1786      0000
 1787 1535 890D0000 		movl	%ecx, _threads	 # D.2897, threads
 1787      0000
 1788              		.loc 1 211 0 discriminator 2
 1789              	/APP
 1790              	 # 211 "../../test/testqueues.c" 1
 1791 153b 90       		nop
 1792              	 # 0 "" 2
 1793              	/NO_APP
 1794 153c A1600100 		movl	LPBX1+352, %eax	 # *LPBX1, PROF_edge_counter.3
 1794      00
 1795 1541 8B156401 		movl	LPBX1+356, %edx	 # *LPBX1, PROF_edge_counter.3
 1795      0000
 1796 1547 83C001   		addl	$1, %eax	 #, PROF_edge_counter.3
 1797 154a 83D200   		adcl	$0, %edx	 #, PROF_edge_counter.3
 1798 154d A3600100 		movl	%eax, LPBX1+352	 # PROF_edge_counter.3, *LPBX1
 1798      00
 1799 1552 89156401 		movl	%edx, LPBX1+356	 # PROF_edge_counter.3, *LPBX1
 1799      0000
 1800 1558 A1500000 		movl	_oq+16, %eax	 # oq.q_top, D.2898
 1800      00
 1801 155d 89C2     		movl	%eax, %edx	 # D.2898, D.2899
 1802 155f A14C0000 		movl	_oq+12, %eax	 # oq.q_buffer, D.2900
 1802      00
 1803 1564 89D1     		movl	%edx, %ecx	 # D.2899,
 1804 1566 29C1     		subl	%eax, %ecx	 # D.2901,
 1805 1568 89C8     		movl	%ecx, %eax	 #, D.2902
 1806 156a 89C2     		movl	%eax, %edx	 # D.2902, D.2903
 1807 156c A1480000 		movl	_oq+8, %eax	 # oq.q_counter, D.2904
 1807      00
 1808 1571 89D1     		movl	%edx, %ecx	 # D.2903,
 1809 1573 29C1     		subl	%eax, %ecx	 # D.2904,
 1810 1575 89C8     		movl	%ecx, %eax	 #, D.2905
 1811 1577 83F804   		cmpl	$4, %eax	 #, D.2905
 1812 157a 0F94C0   		sete	%al	 #, tmp277
 1813 157d 0FB6C0   		movzbl	%al, %eax	 # tmp277, D.2906
 1814 1580 89442404 		movl	%eax, 4(%esp)	 # D.2906,
 1815 1584 C7042408 		movl	$8, (%esp)	 #,
 1815      000000
 1816 158b E8000000 		call	__test_assert	 #
 1816      00
 1817 1590 84C0     		testb	%al, %al	 # D.2907
 1818 1592 743E     		je	L47	 #,
 1819              		.loc 1 211 0 is_stmt 0 discriminator 1
 1820 1594 A1680100 		movl	LPBX1+360, %eax	 # *LPBX1, PROF_edge_counter.3
 1820      00
 1821 1599 8B156C01 		movl	LPBX1+364, %edx	 # *LPBX1, PROF_edge_counter.3
 1821      0000
 1822 159f 83C001   		addl	$1, %eax	 #, PROF_edge_counter.3
 1823 15a2 83D200   		adcl	$0, %edx	 #, PROF_edge_counter.3
 1824 15a5 A3680100 		movl	%eax, LPBX1+360	 # PROF_edge_counter.3, *LPBX1
 1824      00
 1825 15aa 89156C01 		movl	%edx, LPBX1+364	 # PROF_edge_counter.3, *LPBX1
 1825      0000
 1826              	/APP
GAS LISTING C:\cygwin\tmp\ccwpE9RZ.s 			page 46


 1827              	 # 211 "../../test/testqueues.c" 1
 1828 15b0 90       		nop
 1829              	 # 0 "" 2
 1830              	/NO_APP
 1831 15b1 A1780100 		movl	LPBX1+376, %eax	 # *LPBX1, PROF_edge_counter.3
 1831      00
 1832 15b6 8B157C01 		movl	LPBX1+380, %edx	 # *LPBX1, PROF_edge_counter.3
 1832      0000
 1833 15bc 83C001   		addl	$1, %eax	 #, PROF_edge_counter.3
 1834 15bf 83D200   		adcl	$0, %edx	 #, PROF_edge_counter.3
 1835 15c2 A3780100 		movl	%eax, LPBX1+376	 # PROF_edge_counter.3, *LPBX1
 1835      00
 1836 15c7 89157C01 		movl	%edx, LPBX1+380	 # PROF_edge_counter.3, *LPBX1
 1836      0000
 1837 15cd E90D0400 		jmp	L30	 #
 1837      00
 1838              	L47:
 1839              		.loc 1 211 0 discriminator 2
 1840 15d2 A1700100 		movl	LPBX1+368, %eax	 # *LPBX1, PROF_edge_counter.3
 1840      00
 1841 15d7 8B157401 		movl	LPBX1+372, %edx	 # *LPBX1, PROF_edge_counter.3
 1841      0000
 1842 15dd 83C001   		addl	$1, %eax	 #, PROF_edge_counter.3
 1843 15e0 83D200   		adcl	$0, %edx	 #, PROF_edge_counter.3
 1844 15e3 A3700100 		movl	%eax, LPBX1+368	 # PROF_edge_counter.3, *LPBX1
 1844      00
 1845 15e8 89157401 		movl	%edx, LPBX1+372	 # PROF_edge_counter.3, *LPBX1
 1845      0000
 1846              	/APP
 1847              	 # 211 "../../test/testqueues.c" 1
 1848 15ee 90       		nop
 1849              	 # 0 "" 2
 1850              	/NO_APP
 1851 15ef A1800100 		movl	LPBX1+384, %eax	 # *LPBX1, PROF_edge_counter.3
 1851      00
 1852 15f4 8B158401 		movl	LPBX1+388, %edx	 # *LPBX1, PROF_edge_counter.3
 1852      0000
 1853 15fa 83C001   		addl	$1, %eax	 #, PROF_edge_counter.3
 1854 15fd 83D200   		adcl	$0, %edx	 #, PROF_edge_counter.3
 1855 1600 A3800100 		movl	%eax, LPBX1+384	 # PROF_edge_counter.3, *LPBX1
 1855      00
 1856 1605 89158401 		movl	%edx, LPBX1+388	 # PROF_edge_counter.3, *LPBX1
 1856      0000
 1857              		.loc 1 212 0 is_stmt 1 discriminator 2
 1858 160b E8000000 		call	_test_wait_threads	 #
 1858      00
 1859 1610 A1880100 		movl	LPBX1+392, %eax	 # *LPBX1, PROF_edge_counter.3
 1859      00
 1860 1615 8B158C01 		movl	LPBX1+396, %edx	 # *LPBX1, PROF_edge_counter.3
 1860      0000
 1861 161b 83C001   		addl	$1, %eax	 #, PROF_edge_counter.3
 1862 161e 83D200   		adcl	$0, %edx	 #, PROF_edge_counter.3
 1863 1621 A3880100 		movl	%eax, LPBX1+392	 # PROF_edge_counter.3, *LPBX1
 1863      00
 1864 1626 89158C01 		movl	%edx, LPBX1+396	 # PROF_edge_counter.3, *LPBX1
 1864      0000
 1865              		.loc 1 215 0 discriminator 2
GAS LISTING C:\cygwin\tmp\ccwpE9RZ.s 			page 47


 1866              	/APP
 1867              	 # 215 "../../test/testqueues.c" 1
 1868 162c 90       		nop
 1869              	 # 0 "" 2
 1870              	/NO_APP
 1871 162d A1900100 		movl	LPBX1+400, %eax	 # *LPBX1, PROF_edge_counter.3
 1871      00
 1872 1632 8B159401 		movl	LPBX1+404, %edx	 # *LPBX1, PROF_edge_counter.3
 1872      0000
 1873 1638 83C001   		addl	$1, %eax	 #, PROF_edge_counter.3
 1874 163b 83D200   		adcl	$0, %edx	 #, PROF_edge_counter.3
 1875 163e A3900100 		movl	%eax, LPBX1+400	 # PROF_edge_counter.3, *LPBX1
 1875      00
 1876 1643 89159401 		movl	%edx, LPBX1+404	 # PROF_edge_counter.3, *LPBX1
 1876      0000
 1877              		.loc 1 216 0 discriminator 2
 1878 1649 C7042440 		movl	$_oq, (%esp)	 #,
 1878      000000
 1879 1650 E8000000 		call	_chOQResetI	 #
 1879      00
 1880 1655 A1980100 		movl	LPBX1+408, %eax	 # *LPBX1, PROF_edge_counter.3
 1880      00
 1881 165a 8B159C01 		movl	LPBX1+412, %edx	 # *LPBX1, PROF_edge_counter.3
 1881      0000
 1882 1660 83C001   		addl	$1, %eax	 #, PROF_edge_counter.3
 1883 1663 83D200   		adcl	$0, %edx	 #, PROF_edge_counter.3
 1884 1666 A3980100 		movl	%eax, LPBX1+408	 # PROF_edge_counter.3, *LPBX1
 1884      00
 1885 166b 89159C01 		movl	%edx, LPBX1+412	 # PROF_edge_counter.3, *LPBX1
 1885      0000
 1886              		.loc 1 217 0 discriminator 2
 1887              	/APP
 1888              	 # 217 "../../test/testqueues.c" 1
 1889 1671 90       		nop
 1890              	 # 0 "" 2
 1891              	/NO_APP
 1892 1672 A1A00100 		movl	LPBX1+416, %eax	 # *LPBX1, PROF_edge_counter.3
 1892      00
 1893 1677 8B15A401 		movl	LPBX1+420, %edx	 # *LPBX1, PROF_edge_counter.3
 1893      0000
 1894 167d 83C001   		addl	$1, %eax	 #, PROF_edge_counter.3
 1895 1680 83D200   		adcl	$0, %edx	 #, PROF_edge_counter.3
 1896 1683 A3A00100 		movl	%eax, LPBX1+416	 # PROF_edge_counter.3, *LPBX1
 1896      00
 1897 1688 8915A401 		movl	%edx, LPBX1+420	 # PROF_edge_counter.3, *LPBX1
 1897      0000
 1898              		.loc 1 218 0 discriminator 2
 1899              	/APP
 1900              	 # 218 "../../test/testqueues.c" 1
 1901 168e 90       		nop
 1902              	 # 0 "" 2
 1903              	/NO_APP
 1904 168f A1A80100 		movl	LPBX1+424, %eax	 # *LPBX1, PROF_edge_counter.3
 1904      00
 1905 1694 8B15AC01 		movl	LPBX1+428, %edx	 # *LPBX1, PROF_edge_counter.3
 1905      0000
 1906 169a 83C001   		addl	$1, %eax	 #, PROF_edge_counter.3
GAS LISTING C:\cygwin\tmp\ccwpE9RZ.s 			page 48


 1907 169d 83D200   		adcl	$0, %edx	 #, PROF_edge_counter.3
 1908 16a0 A3A80100 		movl	%eax, LPBX1+424	 # PROF_edge_counter.3, *LPBX1
 1908      00
 1909 16a5 8915AC01 		movl	%edx, LPBX1+428	 # PROF_edge_counter.3, *LPBX1
 1909      0000
 1910 16ab A1500000 		movl	_oq+16, %eax	 # oq.q_top, D.2910
 1910      00
 1911 16b0 89C2     		movl	%eax, %edx	 # D.2910, D.2911
 1912 16b2 A14C0000 		movl	_oq+12, %eax	 # oq.q_buffer, D.2912
 1912      00
 1913 16b7 89D1     		movl	%edx, %ecx	 # D.2911,
 1914 16b9 29C1     		subl	%eax, %ecx	 # D.2913,
 1915 16bb 89C8     		movl	%ecx, %eax	 #, D.2914
 1916 16bd 89C2     		movl	%eax, %edx	 # D.2914, D.2915
 1917 16bf A1480000 		movl	_oq+8, %eax	 # oq.q_counter, D.2916
 1917      00
 1918 16c4 39C2     		cmpl	%eax, %edx	 # D.2916, D.2915
 1919 16c6 0F94C0   		sete	%al	 #, tmp278
 1920 16c9 0FB6C0   		movzbl	%al, %eax	 # tmp278, D.2917
 1921 16cc 89442404 		movl	%eax, 4(%esp)	 # D.2917,
 1922 16d0 C7042409 		movl	$9, (%esp)	 #,
 1922      000000
 1923 16d7 E8000000 		call	__test_assert	 #
 1923      00
 1924 16dc 84C0     		testb	%al, %al	 # D.2918
 1925 16de 743E     		je	L48	 #,
 1926              		.loc 1 218 0 is_stmt 0 discriminator 1
 1927 16e0 A1B00100 		movl	LPBX1+432, %eax	 # *LPBX1, PROF_edge_counter.3
 1927      00
 1928 16e5 8B15B401 		movl	LPBX1+436, %edx	 # *LPBX1, PROF_edge_counter.3
 1928      0000
 1929 16eb 83C001   		addl	$1, %eax	 #, PROF_edge_counter.3
 1930 16ee 83D200   		adcl	$0, %edx	 #, PROF_edge_counter.3
 1931 16f1 A3B00100 		movl	%eax, LPBX1+432	 # PROF_edge_counter.3, *LPBX1
 1931      00
 1932 16f6 8915B401 		movl	%edx, LPBX1+436	 # PROF_edge_counter.3, *LPBX1
 1932      0000
 1933              	/APP
 1934              	 # 218 "../../test/testqueues.c" 1
 1935 16fc 90       		nop
 1936              	 # 0 "" 2
 1937              	/NO_APP
 1938 16fd A1C00100 		movl	LPBX1+448, %eax	 # *LPBX1, PROF_edge_counter.3
 1938      00
 1939 1702 8B15C401 		movl	LPBX1+452, %edx	 # *LPBX1, PROF_edge_counter.3
 1939      0000
 1940 1708 83C001   		addl	$1, %eax	 #, PROF_edge_counter.3
 1941 170b 83D200   		adcl	$0, %edx	 #, PROF_edge_counter.3
 1942 170e A3C00100 		movl	%eax, LPBX1+448	 # PROF_edge_counter.3, *LPBX1
 1942      00
 1943 1713 8915C401 		movl	%edx, LPBX1+452	 # PROF_edge_counter.3, *LPBX1
 1943      0000
 1944 1719 E9C10200 		jmp	L30	 #
 1944      00
 1945              	L48:
 1946              		.loc 1 218 0 discriminator 2
 1947 171e A1B80100 		movl	LPBX1+440, %eax	 # *LPBX1, PROF_edge_counter.3
GAS LISTING C:\cygwin\tmp\ccwpE9RZ.s 			page 49


 1947      00
 1948 1723 8B15BC01 		movl	LPBX1+444, %edx	 # *LPBX1, PROF_edge_counter.3
 1948      0000
 1949 1729 83C001   		addl	$1, %eax	 #, PROF_edge_counter.3
 1950 172c 83D200   		adcl	$0, %edx	 #, PROF_edge_counter.3
 1951 172f A3B80100 		movl	%eax, LPBX1+440	 # PROF_edge_counter.3, *LPBX1
 1951      00
 1952 1734 8915BC01 		movl	%edx, LPBX1+444	 # PROF_edge_counter.3, *LPBX1
 1952      0000
 1953              	/APP
 1954              	 # 218 "../../test/testqueues.c" 1
 1955 173a 90       		nop
 1956              	 # 0 "" 2
 1957              	/NO_APP
 1958 173b A1C80100 		movl	LPBX1+456, %eax	 # *LPBX1, PROF_edge_counter.3
 1958      00
 1959 1740 8B15CC01 		movl	LPBX1+460, %edx	 # *LPBX1, PROF_edge_counter.3
 1959      0000
 1960 1746 83C001   		addl	$1, %eax	 #, PROF_edge_counter.3
 1961 1749 83D200   		adcl	$0, %edx	 #, PROF_edge_counter.3
 1962 174c A3C80100 		movl	%eax, LPBX1+456	 # PROF_edge_counter.3, *LPBX1
 1962      00
 1963 1751 8915CC01 		movl	%edx, LPBX1+460	 # PROF_edge_counter.3, *LPBX1
 1963      0000
 1964              		.loc 1 221 0 is_stmt 1 discriminator 2
 1965 1757 A1040000 		movl	_wa+4, %eax	 # wa, D.2921
 1965      00
 1966 175c C744240C 		movl	$0, 12(%esp)	 #,
 1966      00000000 
 1967 1764 C7442408 		movl	$2, 8(%esp)	 #,
 1967      02000000 
 1968 176c 89442404 		movl	%eax, 4(%esp)	 # D.2921,
 1969 1770 C7042440 		movl	$_oq, (%esp)	 #,
 1969      000000
 1970 1777 E8000000 		call	_chOQWriteTimeout	 #
 1970      00
 1971 177c 89442424 		movl	%eax, 36(%esp)	 # tmp279, n
 1972 1780 A1D00100 		movl	LPBX1+464, %eax	 # *LPBX1, PROF_edge_counter.3
 1972      00
 1973 1785 8B15D401 		movl	LPBX1+468, %edx	 # *LPBX1, PROF_edge_counter.3
 1973      0000
 1974 178b 83C001   		addl	$1, %eax	 #, PROF_edge_counter.3
 1975 178e 83D200   		adcl	$0, %edx	 #, PROF_edge_counter.3
 1976 1791 A3D00100 		movl	%eax, LPBX1+464	 # PROF_edge_counter.3, *LPBX1
 1976      00
 1977 1796 8915D401 		movl	%edx, LPBX1+468	 # PROF_edge_counter.3, *LPBX1
 1977      0000
 1978              		.loc 1 222 0 discriminator 2
 1979 179c 837C2424 		cmpl	$2, 36(%esp)	 #, n
 1979      02
 1980 17a1 0F94C0   		sete	%al	 #, tmp280
 1981 17a4 0FB6C0   		movzbl	%al, %eax	 # tmp280, D.2922
 1982 17a7 89442404 		movl	%eax, 4(%esp)	 # D.2922,
 1983 17ab C704240A 		movl	$10, (%esp)	 #,
 1983      000000
 1984 17b2 E8000000 		call	__test_assert	 #
 1984      00
GAS LISTING C:\cygwin\tmp\ccwpE9RZ.s 			page 50


 1985 17b7 84C0     		testb	%al, %al	 # D.2923
 1986 17b9 7421     		je	L49	 #,
 1987              		.loc 1 222 0 is_stmt 0 discriminator 1
 1988 17bb A1E00100 		movl	LPBX1+480, %eax	 # *LPBX1, PROF_edge_counter.3
 1988      00
 1989 17c0 8B15E401 		movl	LPBX1+484, %edx	 # *LPBX1, PROF_edge_counter.3
 1989      0000
 1990 17c6 83C001   		addl	$1, %eax	 #, PROF_edge_counter.3
 1991 17c9 83D200   		adcl	$0, %edx	 #, PROF_edge_counter.3
 1992 17cc A3E00100 		movl	%eax, LPBX1+480	 # PROF_edge_counter.3, *LPBX1
 1992      00
 1993 17d1 8915E401 		movl	%edx, LPBX1+484	 # PROF_edge_counter.3, *LPBX1
 1993      0000
 1994 17d7 E9030200 		jmp	L30	 #
 1994      00
 1995              	L49:
 1996              		.loc 1 222 0
 1997 17dc A1D80100 		movl	LPBX1+472, %eax	 # *LPBX1, PROF_edge_counter.3
 1997      00
 1998 17e1 8B15DC01 		movl	LPBX1+476, %edx	 # *LPBX1, PROF_edge_counter.3
 1998      0000
 1999 17e7 83C001   		addl	$1, %eax	 #, PROF_edge_counter.3
 2000 17ea 83D200   		adcl	$0, %edx	 #, PROF_edge_counter.3
 2001 17ed A3D80100 		movl	%eax, LPBX1+472	 # PROF_edge_counter.3, *LPBX1
 2001      00
 2002 17f2 8915DC01 		movl	%edx, LPBX1+476	 # PROF_edge_counter.3, *LPBX1
 2002      0000
 2003              		.loc 1 223 0 is_stmt 1
 2004 17f8 A1040000 		movl	_wa+4, %eax	 # wa, D.2926
 2004      00
 2005 17fd C744240C 		movl	$0, 12(%esp)	 #,
 2005      00000000 
 2006 1805 C7442408 		movl	$2, 8(%esp)	 #,
 2006      02000000 
 2007 180d 89442404 		movl	%eax, 4(%esp)	 # D.2926,
 2008 1811 C7042440 		movl	$_oq, (%esp)	 #,
 2008      000000
 2009 1818 E8000000 		call	_chOQWriteTimeout	 #
 2009      00
 2010 181d 89442424 		movl	%eax, 36(%esp)	 # tmp281, n
 2011 1821 A1E80100 		movl	LPBX1+488, %eax	 # *LPBX1, PROF_edge_counter.3
 2011      00
 2012 1826 8B15EC01 		movl	LPBX1+492, %edx	 # *LPBX1, PROF_edge_counter.3
 2012      0000
 2013 182c 83C001   		addl	$1, %eax	 #, PROF_edge_counter.3
 2014 182f 83D200   		adcl	$0, %edx	 #, PROF_edge_counter.3
 2015 1832 A3E80100 		movl	%eax, LPBX1+488	 # PROF_edge_counter.3, *LPBX1
 2015      00
 2016 1837 8915EC01 		movl	%edx, LPBX1+492	 # PROF_edge_counter.3, *LPBX1
 2016      0000
 2017              		.loc 1 224 0
 2018 183d 837C2424 		cmpl	$2, 36(%esp)	 #, n
 2018      02
 2019 1842 0F94C0   		sete	%al	 #, tmp282
 2020 1845 0FB6C0   		movzbl	%al, %eax	 # tmp282, D.2927
 2021 1848 89442404 		movl	%eax, 4(%esp)	 # D.2927,
 2022 184c C704240B 		movl	$11, (%esp)	 #,
GAS LISTING C:\cygwin\tmp\ccwpE9RZ.s 			page 51


 2022      000000
 2023 1853 E8000000 		call	__test_assert	 #
 2023      00
 2024 1858 84C0     		testb	%al, %al	 # D.2928
 2025 185a 7421     		je	L50	 #,
 2026              		.loc 1 224 0 is_stmt 0 discriminator 1
 2027 185c A1F80100 		movl	LPBX1+504, %eax	 # *LPBX1, PROF_edge_counter.3
 2027      00
 2028 1861 8B15FC01 		movl	LPBX1+508, %edx	 # *LPBX1, PROF_edge_counter.3
 2028      0000
 2029 1867 83C001   		addl	$1, %eax	 #, PROF_edge_counter.3
 2030 186a 83D200   		adcl	$0, %edx	 #, PROF_edge_counter.3
 2031 186d A3F80100 		movl	%eax, LPBX1+504	 # PROF_edge_counter.3, *LPBX1
 2031      00
 2032 1872 8915FC01 		movl	%edx, LPBX1+508	 # PROF_edge_counter.3, *LPBX1
 2032      0000
 2033 1878 E9620100 		jmp	L30	 #
 2033      00
 2034              	L50:
 2035              		.loc 1 224 0
 2036 187d A1F00100 		movl	LPBX1+496, %eax	 # *LPBX1, PROF_edge_counter.3
 2036      00
 2037 1882 8B15F401 		movl	LPBX1+500, %edx	 # *LPBX1, PROF_edge_counter.3
 2037      0000
 2038 1888 83C001   		addl	$1, %eax	 #, PROF_edge_counter.3
 2039 188b 83D200   		adcl	$0, %edx	 #, PROF_edge_counter.3
 2040 188e A3F00100 		movl	%eax, LPBX1+496	 # PROF_edge_counter.3, *LPBX1
 2040      00
 2041 1893 8915F401 		movl	%edx, LPBX1+500	 # PROF_edge_counter.3, *LPBX1
 2041      0000
 2042              		.loc 1 225 0 is_stmt 1
 2043              	/APP
 2044              	 # 225 "../../test/testqueues.c" 1
 2045 1899 90       		nop
 2046              	 # 0 "" 2
 2047              	/NO_APP
 2048 189a A1000200 		movl	LPBX1+512, %eax	 # *LPBX1, PROF_edge_counter.3
 2048      00
 2049 189f 8B150402 		movl	LPBX1+516, %edx	 # *LPBX1, PROF_edge_counter.3
 2049      0000
 2050 18a5 83C001   		addl	$1, %eax	 #, PROF_edge_counter.3
 2051 18a8 83D200   		adcl	$0, %edx	 #, PROF_edge_counter.3
 2052 18ab A3000200 		movl	%eax, LPBX1+512	 # PROF_edge_counter.3, *LPBX1
 2052      00
 2053 18b0 89150402 		movl	%edx, LPBX1+516	 # PROF_edge_counter.3, *LPBX1
 2053      0000
 2054 18b6 A1480000 		movl	_oq+8, %eax	 # oq.q_counter, D.2931
 2054      00
 2055 18bb 85C0     		testl	%eax, %eax	 # D.2931
 2056 18bd 0F94C0   		sete	%al	 #, tmp283
 2057 18c0 0FB6C0   		movzbl	%al, %eax	 # tmp283, D.2932
 2058 18c3 89442404 		movl	%eax, 4(%esp)	 # D.2932,
 2059 18c7 C704240C 		movl	$12, (%esp)	 #,
 2059      000000
 2060 18ce E8000000 		call	__test_assert	 #
 2060      00
 2061 18d3 84C0     		testb	%al, %al	 # D.2933
GAS LISTING C:\cygwin\tmp\ccwpE9RZ.s 			page 52


 2062 18d5 743E     		je	L51	 #,
 2063              		.loc 1 225 0 is_stmt 0 discriminator 1
 2064 18d7 A1080200 		movl	LPBX1+520, %eax	 # *LPBX1, PROF_edge_counter.3
 2064      00
 2065 18dc 8B150C02 		movl	LPBX1+524, %edx	 # *LPBX1, PROF_edge_counter.3
 2065      0000
 2066 18e2 83C001   		addl	$1, %eax	 #, PROF_edge_counter.3
 2067 18e5 83D200   		adcl	$0, %edx	 #, PROF_edge_counter.3
 2068 18e8 A3080200 		movl	%eax, LPBX1+520	 # PROF_edge_counter.3, *LPBX1
 2068      00
 2069 18ed 89150C02 		movl	%edx, LPBX1+524	 # PROF_edge_counter.3, *LPBX1
 2069      0000
 2070              	/APP
 2071              	 # 225 "../../test/testqueues.c" 1
 2072 18f3 90       		nop
 2073              	 # 0 "" 2
 2074              	/NO_APP
 2075 18f4 A1180200 		movl	LPBX1+536, %eax	 # *LPBX1, PROF_edge_counter.3
 2075      00
 2076 18f9 8B151C02 		movl	LPBX1+540, %edx	 # *LPBX1, PROF_edge_counter.3
 2076      0000
 2077 18ff 83C001   		addl	$1, %eax	 #, PROF_edge_counter.3
 2078 1902 83D200   		adcl	$0, %edx	 #, PROF_edge_counter.3
 2079 1905 A3180200 		movl	%eax, LPBX1+536	 # PROF_edge_counter.3, *LPBX1
 2079      00
 2080 190a 89151C02 		movl	%edx, LPBX1+540	 # PROF_edge_counter.3, *LPBX1
 2080      0000
 2081 1910 E9CA0000 		jmp	L30	 #
 2081      00
 2082              	L51:
 2083              		.loc 1 225 0 discriminator 2
 2084 1915 A1100200 		movl	LPBX1+528, %eax	 # *LPBX1, PROF_edge_counter.3
 2084      00
 2085 191a 8B151402 		movl	LPBX1+532, %edx	 # *LPBX1, PROF_edge_counter.3
 2085      0000
 2086 1920 83C001   		addl	$1, %eax	 #, PROF_edge_counter.3
 2087 1923 83D200   		adcl	$0, %edx	 #, PROF_edge_counter.3
 2088 1926 A3100200 		movl	%eax, LPBX1+528	 # PROF_edge_counter.3, *LPBX1
 2088      00
 2089 192b 89151402 		movl	%edx, LPBX1+532	 # PROF_edge_counter.3, *LPBX1
 2089      0000
 2090              	/APP
 2091              	 # 225 "../../test/testqueues.c" 1
 2092 1931 90       		nop
 2093              	 # 0 "" 2
 2094              	/NO_APP
 2095 1932 A1200200 		movl	LPBX1+544, %eax	 # *LPBX1, PROF_edge_counter.3
 2095      00
 2096 1937 8B152402 		movl	LPBX1+548, %edx	 # *LPBX1, PROF_edge_counter.3
 2096      0000
 2097 193d 83C001   		addl	$1, %eax	 #, PROF_edge_counter.3
 2098 1940 83D200   		adcl	$0, %edx	 #, PROF_edge_counter.3
 2099 1943 A3200200 		movl	%eax, LPBX1+544	 # PROF_edge_counter.3, *LPBX1
 2099      00
 2100 1948 89152402 		movl	%edx, LPBX1+548	 # PROF_edge_counter.3, *LPBX1
 2100      0000
 2101              		.loc 1 228 0 is_stmt 1 discriminator 2
GAS LISTING C:\cygwin\tmp\ccwpE9RZ.s 			page 53


 2102 194e C7442408 		movl	$10, 8(%esp)	 #,
 2102      0A000000 
 2103 1956 C7442404 		movl	$0, 4(%esp)	 #,
 2103      00000000 
 2104 195e C7042440 		movl	$_oq, (%esp)	 #,
 2104      000000
 2105 1965 E8000000 		call	_chOQPutTimeout	 #
 2105      00
 2106 196a 89C1     		movl	%eax, %ecx	 #, D.2936
 2107 196c A1280200 		movl	LPBX1+552, %eax	 # *LPBX1, PROF_edge_counter.3
 2107      00
 2108 1971 8B152C02 		movl	LPBX1+556, %edx	 # *LPBX1, PROF_edge_counter.3
 2108      0000
 2109 1977 83C001   		addl	$1, %eax	 #, PROF_edge_counter.3
 2110 197a 83D200   		adcl	$0, %edx	 #, PROF_edge_counter.3
 2111 197d A3280200 		movl	%eax, LPBX1+552	 # PROF_edge_counter.3, *LPBX1
 2111      00
 2112 1982 89152C02 		movl	%edx, LPBX1+556	 # PROF_edge_counter.3, *LPBX1
 2112      0000
 2113 1988 83F9FF   		cmpl	$-1, %ecx	 #, D.2936
 2114 198b 0F94C0   		sete	%al	 #, tmp284
 2115 198e 0FB6C0   		movzbl	%al, %eax	 # tmp284, D.2937
 2116 1991 89442404 		movl	%eax, 4(%esp)	 # D.2937,
 2117 1995 C704240D 		movl	$13, (%esp)	 #,
 2117      000000
 2118 199c E8000000 		call	__test_assert	 #
 2118      00
 2119 19a1 88C1     		movb	%al, %cl	 #, D.2938
 2120 19a3 A1300200 		movl	LPBX1+560, %eax	 # *LPBX1, PROF_edge_counter.3
 2120      00
 2121 19a8 8B153402 		movl	LPBX1+564, %edx	 # *LPBX1, PROF_edge_counter.3
 2121      0000
 2122 19ae 83C001   		addl	$1, %eax	 #, PROF_edge_counter.3
 2123 19b1 83D200   		adcl	$0, %edx	 #, PROF_edge_counter.3
 2124 19b4 A3300200 		movl	%eax, LPBX1+560	 # PROF_edge_counter.3, *LPBX1
 2124      00
 2125 19b9 89153402 		movl	%edx, LPBX1+564	 # PROF_edge_counter.3, *LPBX1
 2125      0000
 2126 19bf 84C9     		testb	%cl, %cl	 # D.2938
 2127 19c1 741C     		je	L30	 #,
 2128              		.loc 1 228 0 is_stmt 0 discriminator 1
 2129 19c3 A1380200 		movl	LPBX1+568, %eax	 # *LPBX1, PROF_edge_counter.3
 2129      00
 2130 19c8 8B153C02 		movl	LPBX1+572, %edx	 # *LPBX1, PROF_edge_counter.3
 2130      0000
 2131 19ce 83C001   		addl	$1, %eax	 #, PROF_edge_counter.3
 2132 19d1 83D200   		adcl	$0, %edx	 #, PROF_edge_counter.3
 2133 19d4 A3380200 		movl	%eax, LPBX1+568	 # PROF_edge_counter.3, *LPBX1
 2133      00
 2134 19d9 89153C02 		movl	%edx, LPBX1+572	 # PROF_edge_counter.3, *LPBX1
 2134      0000
 2135              	L30:
 2136              		.loc 1 229 0 is_stmt 1
 2137 19df 83C43C   		addl	$60, %esp	 #,
 2138              	LCFI13:
 2139              		.cfi_def_cfa_offset 4
 2140 19e2 C3       		ret
GAS LISTING C:\cygwin\tmp\ccwpE9RZ.s 			page 54


 2141              		.cfi_endproc
 2142              	LFE6:
 2143              		.globl	_testqueues2
 2144              		.section .rdata,"dr"
 2145              	LC2:
 2146 002c 51756575 		.ascii "Queues, output queues\0"
 2146      65732C20 
 2146      6F757470 
 2146      75742071 
 2146      75657565 
 2147 0042 0000     		.align 4
 2148              	_testqueues2:
 2149              	 # name:
 2150 0044 2C000000 		.long	LC2
 2151              	 # setup:
 2152 0048 730D0000 		.long	_queues2_setup
 2153              	 # teardown:
 2154 004c 00000000 		.long	0
 2155              	 # execute:
 2156 0050 3F0E0000 		.long	_queues2_execute
 2157              		.globl	_patternqueues
 2158              		.align 4
 2159              	_patternqueues:
 2160 0054 1C000000 		.long	_testqueues1
 2161 0058 44000000 		.long	_testqueues2
 2162 005c 00000000 		.long	0
 2163              	.lcomm LPBX1,1280,32
 2164              		.align 4
 2165              	LC3:
 2166 0060 433A5C64 		.ascii "C:\\develop\\gyro\\ChibiOS\\test\\coverage/../../test/testqueues.gcda\0"
 2166      6576656C 
 2166      6F705C67 
 2166      79726F5C 
 2166      43686962 
 2167 00a1 000000   		.data
 2168 0064 00000000 		.align 32
 2168      00000000 
 2168      00000000 
 2168      00000000 
 2168      00000000 
 2169              	LC4:
 2170              	 # <anonymous>:
 2171 0080 07000000 		.long	7
 2172              	 # <anonymous>:
 2173 0084 8512FFE5 		.long	-436268411
 2174              	 # <anonymous>:
 2175 0088 48000000 		.long	72
 2176              	 # <anonymous>:
 2177 008c 06000000 		.long	6
 2178              	 # <anonymous>:
 2179 0090 3AD70BB2 		.long	-1307846854
 2180              	 # <anonymous>:
 2181 0094 02000000 		.long	2
 2182              	 # <anonymous>:
 2183 0098 05000000 		.long	5
 2184              	 # <anonymous>:
 2185 009c E5D4B0AF 		.long	-1347365659
GAS LISTING C:\cygwin\tmp\ccwpE9RZ.s 			page 55


 2186              	 # <anonymous>:
 2187 00a0 02000000 		.long	2
 2188              	 # <anonymous>:
 2189 00a4 04000000 		.long	4
 2190              	 # <anonymous>:
 2191 00a8 DE9E9ADD 		.long	-577069346
 2192              	 # <anonymous>:
 2193 00ac 4F000000 		.long	79
 2194              	 # <anonymous>:
 2195 00b0 03000000 		.long	3
 2196              	 # <anonymous>:
 2197 00b4 0580DCED 		.long	-304316411
 2198              	 # <anonymous>:
 2199 00b8 02000000 		.long	2
 2200              	 # <anonymous>:
 2201 00bc 02000000 		.long	2
 2202              	 # <anonymous>:
 2203 00c0 B545BF83 		.long	-2084616779
 2204              	 # <anonymous>:
 2205 00c4 02000000 		.long	2
 2206              	 # <anonymous>:
 2207 00c8 01000000 		.long	1
 2208              	 # <anonymous>:
 2209 00cc 6E4BFAD9 		.long	-637908114
 2210              	 # <anonymous>:
 2211 00d0 01000000 		.long	1
 2212 00d4 00000000 		.align 32
 2212      00000000 
 2212      00000000 
 2213              	LPBX0:
 2214              	 # <anonymous>:
 2215 00e0 2A363034 		.long	875574826
 2216              	 # <anonymous>:
 2217 00e4 00000000 		.long	0
 2218              	 # <anonymous>:
 2219 00e8 4D3B7060 		.long	1617967949
 2220              	 # <anonymous>:
 2221 00ec 60000000 		.long	LC3
 2222              	 # <anonymous>:
 2223 00f0 07000000 		.long	7
 2224              	 # <anonymous>:
 2225 00f4 80000000 		.long	LC4
 2226              	 # <anonymous>:
 2227 00f8 01000000 		.long	1
 2228              	 # <anonymous>:
 2229              	 # <anonymous>:
 2230 00fc A0000000 		.long	160
 2231              	 # <anonymous>:
 2232 0100 00000000 		.long	LPBX1
 2233              	 # <anonymous>:
 2234 0104 00000000 		.long	___gcov_merge_add
 2235 0108 00000000 		.space 12
 2235      00000000 
 2235      00000000 
 2236 0114 00000000 		.text
 2236      00000000 
 2236      00000000 
GAS LISTING C:\cygwin\tmp\ccwpE9RZ.s 			page 56


 2237              		.def	__GLOBAL__sub_I_65535_0_testqueues1;	.scl	3;	.type	32;	.endef
 2238              	__GLOBAL__sub_I_65535_0_testqueues1:
 2239              	LFB7:
 2240              		.loc 1 248 0
 2241              		.cfi_startproc
 2242 19e3 83EC1C   		subl	$28, %esp	 #,
 2243              	LCFI14:
 2244              		.cfi_def_cfa_offset 32
 2245              		.loc 1 248 0
 2246 19e6 C70424E0 		movl	$LPBX0, (%esp)	 #,
 2246      000000
 2247 19ed E8000000 		call	___gcov_init	 #
 2247      00
 2248 19f2 83C41C   		addl	$28, %esp	 #,
 2249              	LCFI15:
 2250              		.cfi_def_cfa_offset 4
 2251 19f5 C3       		ret
 2252              		.cfi_endproc
 2253              	LFE7:
 2254              		.section	.ctors,"w"
 2255              		.align 4
 2256 0000 E3190000 		.long	__GLOBAL__sub_I_65535_0_testqueues1
 2257              		.text
 2258              	Letext0:
 2259              		.file 2 "c:/mingw/bin/../lib/gcc/mingw32/4.6.2/include/stddef.h"
 2260              		.file 3 "c:/mingw/bin/../lib/gcc/mingw32/4.6.2/../../../../include/stdint.h"
 2261              		.file 4 "../../os/ports/GCC/SIMIA32/chtypes.h"
 2262              		.file 5 "../../os/kernel/include/chlists.h"
 2263              		.file 6 "../../os/kernel/include/chthreads.h"
 2264              		.file 7 "../../os/ports/GCC/SIMIA32/chcore.h"
 2265              		.file 8 "../../os/kernel/include/chschd.h"
 2266              		.file 9 "../../os/kernel/include/chmtx.h"
 2267              		.file 10 "../../os/kernel/include/chqueues.h"
 2268              		.file 11 "../../test/test.h"