GAS LISTING C:\cygwin\tmp\ccBlkykz.s 			page 1


   1              		.file	"testsem.c"
   2              	 # GNU C (GCC) version 4.6.2 (mingw32)
   3              	 #	compiled by GNU C version 4.6.2, GMP version 5.0.1, MPFR version 2.4.1, MPC version 0.8.1
   4              	 # GGC heuristics: --param ggc-min-expand=100 --param ggc-min-heapsize=131072
   5              	 # options passed:  -I . -I ../../os/ports/GCC/SIMIA32
   6              	 # -I ../../os/kernel/include -I ../../test -I ../../os/hal/include
   7              	 # -I ../../os/hal/platforms/Win32 -I ../../boards/simulator
   8              	 # -I ../../os/various -iprefix c:\mingw\bin\../lib/gcc/mingw32/4.6.2/
   9              	 # -MD ../../test/testsem.d -MF .dep/testsem.o.d -MP
  10              	 # -MQ ../../test/testsem.o -D SIMULATOR ../../test/testsem.c -mtune=i386
  11              	 # -march=i386 -auxbase-strip ../../test/testsem.o -ggdb -O0 -Wall -Wextra
  12              	 # -Wstrict-prototypes -fomit-frame-pointer -fprofile-arcs -ftest-coverage
  13              	 # -fverbose-asm
  14              	 # options enabled:  -fasynchronous-unwind-tables -fauto-inc-dec
  15              	 # -fbranch-count-reg -fcommon -fdelete-null-pointer-checks
  16              	 # -fdwarf2-cfi-asm -fearly-inlining -feliminate-unused-debug-types
  17              	 # -ffunction-cse -fgcse-lm -fident -finline-functions-called-once
  18              	 # -fira-share-save-slots -fira-share-spill-slots -fivopts
  19              	 # -fkeep-inline-dllexport -fkeep-static-consts -fleading-underscore
  20              	 # -fmath-errno -fmerge-debug-strings -fmove-loop-invariants
  21              	 # -fomit-frame-pointer -fpeephole -fprefetch-loop-arrays -fprofile-arcs
  22              	 # -freg-struct-return -fsched-critical-path-heuristic
  23              	 # -fsched-dep-count-heuristic -fsched-group-heuristic -fsched-interblock
  24              	 # -fsched-last-insn-heuristic -fsched-rank-heuristic -fsched-spec
  25              	 # -fsched-spec-insn-heuristic -fsched-stalled-insns-dep
  26              	 # -fset-stack-executable -fshow-column -fsigned-zeros
  27              	 # -fsplit-ivs-in-unroller -fstrict-volatile-bitfields -ftest-coverage
  28              	 # -ftrapping-math -ftree-cselim -ftree-forwprop -ftree-loop-if-convert
  29              	 # -ftree-loop-im -ftree-loop-ivcanon -ftree-loop-optimize
  30              	 # -ftree-parallelize-loops= -ftree-phiprop -ftree-pta -ftree-reassoc
  31              	 # -ftree-scev-cprop -ftree-slp-vectorize -ftree-vect-loop-version
  32              	 # -funit-at-a-time -funwind-tables -fvect-cost-model -fverbose-asm
  33              	 # -fzero-initialized-in-bss -m32 -m80387 -m96bit-long-double
  34              	 # -maccumulate-outgoing-args -malign-double -malign-stringops
  35              	 # -mfancy-math-387 -mfp-ret-in-387 -mieee-fp -mno-red-zone -mno-sse4
  36              	 # -mpush-args -msahf -mstack-arg-probe
  37              	
  38              		.text
  39              	Ltext0:
  40              	 # Compiler executable checksum: c20aed7c018482d7b62efcd5dcab2a9d
  41              	
  42              		.data
  43              		.align 4
  44              	_sem1:
  45              	 # s_queue:
  46              	 # p_next:
  47 0000 00000000 		.long	_sem1
  48              	 # p_prev:
  49 0004 00000000 		.long	_sem1
  50              	 # s_cnt:
  51 0008 00000000 		.long	0
  52              		.text
  53              		.def	_sem1_setup;	.scl	3;	.type	32;	.endef
  54              	_sem1_setup:
  55              	LFB0:
  56              		.file 1 "../../test/testsem.c"
  57              		.loc 1 76 0
GAS LISTING C:\cygwin\tmp\ccBlkykz.s 			page 2


  58              		.cfi_startproc
  59 0000 83EC1C   		subl	$28, %esp	 #,
  60              	LCFI0:
  61              		.cfi_def_cfa_offset 32
  62              		.loc 1 76 0
  63 0003 A1880300 		movl	LPBX1+904, %eax	 # *LPBX1, PROF_edge_counter.10
  63      00
  64 0008 8B158C03 		movl	LPBX1+908, %edx	 # *LPBX1, PROF_edge_counter.10
  64      0000
  65 000e 83C001   		addl	$1, %eax	 #, PROF_edge_counter.10
  66 0011 83D200   		adcl	$0, %edx	 #, PROF_edge_counter.10
  67 0014 A3880300 		movl	%eax, LPBX1+904	 # PROF_edge_counter.10, *LPBX1
  67      00
  68 0019 89158C03 		movl	%edx, LPBX1+908	 # PROF_edge_counter.10, *LPBX1
  68      0000
  69              		.loc 1 78 0
  70 001f C7442404 		movl	$0, 4(%esp)	 #,
  70      00000000 
  71 0027 C7042400 		movl	$_sem1, (%esp)	 #,
  71      000000
  72 002e E8000000 		call	_chSemInit	 #
  72      00
  73 0033 A1900300 		movl	LPBX1+912, %eax	 # *LPBX1, PROF_edge_counter.10
  73      00
  74 0038 8B159403 		movl	LPBX1+916, %edx	 # *LPBX1, PROF_edge_counter.10
  74      0000
  75 003e 83C001   		addl	$1, %eax	 #, PROF_edge_counter.10
  76 0041 83D200   		adcl	$0, %edx	 #, PROF_edge_counter.10
  77 0044 A3900300 		movl	%eax, LPBX1+912	 # PROF_edge_counter.10, *LPBX1
  77      00
  78 0049 89159403 		movl	%edx, LPBX1+916	 # PROF_edge_counter.10, *LPBX1
  78      0000
  79              		.loc 1 79 0
  80 004f 83C41C   		addl	$28, %esp	 #,
  81              	LCFI1:
  82              		.cfi_def_cfa_offset 4
  83 0052 C3       		ret
  84              		.cfi_endproc
  85              	LFE0:
  86              		.def	_thread1;	.scl	3;	.type	32;	.endef
  87              	_thread1:
  88              	LFB1:
  89              		.loc 1 81 0
  90              		.cfi_startproc
  91 0053 83EC1C   		subl	$28, %esp	 #,
  92              	LCFI2:
  93              		.cfi_def_cfa_offset 32
  94              		.loc 1 81 0
  95 0056 A1700300 		movl	LPBX1+880, %eax	 # *LPBX1, PROF_edge_counter.9
  95      00
  96 005b 8B157403 		movl	LPBX1+884, %edx	 # *LPBX1, PROF_edge_counter.9
  96      0000
  97 0061 83C001   		addl	$1, %eax	 #, PROF_edge_counter.9
  98 0064 83D200   		adcl	$0, %edx	 #, PROF_edge_counter.9
  99 0067 A3700300 		movl	%eax, LPBX1+880	 # PROF_edge_counter.9, *LPBX1
  99      00
 100 006c 89157403 		movl	%edx, LPBX1+884	 # PROF_edge_counter.9, *LPBX1
GAS LISTING C:\cygwin\tmp\ccBlkykz.s 			page 3


 100      0000
 101              		.loc 1 83 0
 102 0072 C7042400 		movl	$_sem1, (%esp)	 #,
 102      000000
 103 0079 E8000000 		call	_chSemWait	 #
 103      00
 104 007e A1780300 		movl	LPBX1+888, %eax	 # *LPBX1, PROF_edge_counter.9
 104      00
 105 0083 8B157C03 		movl	LPBX1+892, %edx	 # *LPBX1, PROF_edge_counter.9
 105      0000
 106 0089 83C001   		addl	$1, %eax	 #, PROF_edge_counter.9
 107 008c 83D200   		adcl	$0, %edx	 #, PROF_edge_counter.9
 108 008f A3780300 		movl	%eax, LPBX1+888	 # PROF_edge_counter.9, *LPBX1
 108      00
 109 0094 89157C03 		movl	%edx, LPBX1+892	 # PROF_edge_counter.9, *LPBX1
 109      0000
 110              		.loc 1 84 0
 111 009a 8B442420 		movl	32(%esp), %eax	 # p, tmp69
 112 009e 8A00     		movb	(%eax), %al	 # MEM[(char *)p_1(D)], D.3015
 113 00a0 0FBEC0   		movsbl	%al, %eax	 # D.3015, D.3016
 114 00a3 890424   		movl	%eax, (%esp)	 # D.3016,
 115 00a6 E8000000 		call	_test_emit_token	 #
 115      00
 116 00ab A1800300 		movl	LPBX1+896, %eax	 # *LPBX1, PROF_edge_counter.9
 116      00
 117 00b0 8B158403 		movl	LPBX1+900, %edx	 # *LPBX1, PROF_edge_counter.9
 117      0000
 118 00b6 83C001   		addl	$1, %eax	 #, PROF_edge_counter.9
 119 00b9 83D200   		adcl	$0, %edx	 #, PROF_edge_counter.9
 120 00bc A3800300 		movl	%eax, LPBX1+896	 # PROF_edge_counter.9, *LPBX1
 120      00
 121 00c1 89158403 		movl	%edx, LPBX1+900	 # PROF_edge_counter.9, *LPBX1
 121      0000
 122              		.loc 1 85 0
 123 00c7 B8000000 		movl	$0, %eax	 #, D.3017
 123      00
 124              		.loc 1 86 0
 125 00cc 83C41C   		addl	$28, %esp	 #,
 126              	LCFI3:
 127              		.cfi_def_cfa_offset 4
 128 00cf C3       		ret
 129              		.cfi_endproc
 130              	LFE1:
 131              		.section .rdata,"dr"
 132              	LC0:
 133 0000 4100     		.ascii "A\0"
 134              	LC1:
 135 0002 4200     		.ascii "B\0"
 136              	LC2:
 137 0004 4300     		.ascii "C\0"
 138              	LC3:
 139 0006 4400     		.ascii "D\0"
 140              	LC4:
 141 0008 4500     		.ascii "E\0"
 142              	LC5:
 143 000a 41424344 		.ascii "ABCDE\0"
 143      4500
GAS LISTING C:\cygwin\tmp\ccBlkykz.s 			page 4


 144              		.text
 145              		.def	_sem1_execute;	.scl	3;	.type	32;	.endef
 146              	_sem1_execute:
 147              	LFB2:
 148              		.loc 1 88 0
 149              		.cfi_startproc
 150 00d0 83EC2C   		subl	$44, %esp	 #,
 151              	LCFI4:
 152              		.cfi_def_cfa_offset 48
 153              		.loc 1 88 0
 154 00d3 A1C80200 		movl	LPBX1+712, %eax	 # *LPBX1, PROF_edge_counter.8
 154      00
 155 00d8 8B15CC02 		movl	LPBX1+716, %edx	 # *LPBX1, PROF_edge_counter.8
 155      0000
 156 00de 83C001   		addl	$1, %eax	 #, PROF_edge_counter.8
 157 00e1 83D200   		adcl	$0, %edx	 #, PROF_edge_counter.8
 158 00e4 A3C80200 		movl	%eax, LPBX1+712	 # PROF_edge_counter.8, *LPBX1
 158      00
 159 00e9 8915CC02 		movl	%edx, LPBX1+716	 # PROF_edge_counter.8, *LPBX1
 159      0000
 160              		.loc 1 90 0
 161 00ef A1180000 		movl	_rlist+24, %eax	 # rlist.r_current, D.2976
 161      00
 162 00f4 8B4008   		movl	8(%eax), %eax	 # D.2976_1->p_prio, D.2977
 163 00f7 8D5005   		leal	5(%eax), %edx	 #, D.2978
 164 00fa A1000000 		movl	_wa, %eax	 # wa, D.2979
 164      00
 165 00ff C7442410 		movl	$LC0, 16(%esp)	 #,
 165      00000000 
 166 0107 C744240C 		movl	$_thread1, 12(%esp)	 #,
 166      53000000 
 167 010f 89542408 		movl	%edx, 8(%esp)	 # D.2978,
 168 0113 C7442404 		movl	$17008, 4(%esp)	 #,
 168      70420000 
 169 011b 890424   		movl	%eax, (%esp)	 # D.2979,
 170 011e E8000000 		call	_chThdCreateStatic	 #
 170      00
 171 0123 89C1     		movl	%eax, %ecx	 #, D.2980
 172 0125 A1D00200 		movl	LPBX1+720, %eax	 # *LPBX1, PROF_edge_counter.8
 172      00
 173 012a 8B15D402 		movl	LPBX1+724, %edx	 # *LPBX1, PROF_edge_counter.8
 173      0000
 174 0130 83C001   		addl	$1, %eax	 #, PROF_edge_counter.8
 175 0133 83D200   		adcl	$0, %edx	 #, PROF_edge_counter.8
 176 0136 A3D00200 		movl	%eax, LPBX1+720	 # PROF_edge_counter.8, *LPBX1
 176      00
 177 013b 8915D402 		movl	%edx, LPBX1+724	 # PROF_edge_counter.8, *LPBX1
 177      0000
 178 0141 890D0000 		movl	%ecx, _threads	 # D.2980, threads
 178      0000
 179              		.loc 1 91 0
 180 0147 A1180000 		movl	_rlist+24, %eax	 # rlist.r_current, D.2981
 180      00
 181 014c 8B4008   		movl	8(%eax), %eax	 # D.2981_6->p_prio, D.2982
 182 014f 8D5001   		leal	1(%eax), %edx	 #, D.2983
 183 0152 A1040000 		movl	_wa+4, %eax	 # wa, D.2984
 183      00
GAS LISTING C:\cygwin\tmp\ccBlkykz.s 			page 5


 184 0157 C7442410 		movl	$LC1, 16(%esp)	 #,
 184      02000000 
 185 015f C744240C 		movl	$_thread1, 12(%esp)	 #,
 185      53000000 
 186 0167 89542408 		movl	%edx, 8(%esp)	 # D.2983,
 187 016b C7442404 		movl	$17008, 4(%esp)	 #,
 187      70420000 
 188 0173 890424   		movl	%eax, (%esp)	 # D.2984,
 189 0176 E8000000 		call	_chThdCreateStatic	 #
 189      00
 190 017b 89C1     		movl	%eax, %ecx	 #, D.2985
 191 017d A1D80200 		movl	LPBX1+728, %eax	 # *LPBX1, PROF_edge_counter.8
 191      00
 192 0182 8B15DC02 		movl	LPBX1+732, %edx	 # *LPBX1, PROF_edge_counter.8
 192      0000
 193 0188 83C001   		addl	$1, %eax	 #, PROF_edge_counter.8
 194 018b 83D200   		adcl	$0, %edx	 #, PROF_edge_counter.8
 195 018e A3D80200 		movl	%eax, LPBX1+728	 # PROF_edge_counter.8, *LPBX1
 195      00
 196 0193 8915DC02 		movl	%edx, LPBX1+732	 # PROF_edge_counter.8, *LPBX1
 196      0000
 197 0199 890D0400 		movl	%ecx, _threads+4	 # D.2985, threads
 197      0000
 198              		.loc 1 92 0
 199 019f A1180000 		movl	_rlist+24, %eax	 # rlist.r_current, D.2986
 199      00
 200 01a4 8B4008   		movl	8(%eax), %eax	 # D.2986_11->p_prio, D.2987
 201 01a7 8D5003   		leal	3(%eax), %edx	 #, D.2988
 202 01aa A1080000 		movl	_wa+8, %eax	 # wa, D.2989
 202      00
 203 01af C7442410 		movl	$LC2, 16(%esp)	 #,
 203      04000000 
 204 01b7 C744240C 		movl	$_thread1, 12(%esp)	 #,
 204      53000000 
 205 01bf 89542408 		movl	%edx, 8(%esp)	 # D.2988,
 206 01c3 C7442404 		movl	$17008, 4(%esp)	 #,
 206      70420000 
 207 01cb 890424   		movl	%eax, (%esp)	 # D.2989,
 208 01ce E8000000 		call	_chThdCreateStatic	 #
 208      00
 209 01d3 89C1     		movl	%eax, %ecx	 #, D.2990
 210 01d5 A1E00200 		movl	LPBX1+736, %eax	 # *LPBX1, PROF_edge_counter.8
 210      00
 211 01da 8B15E402 		movl	LPBX1+740, %edx	 # *LPBX1, PROF_edge_counter.8
 211      0000
 212 01e0 83C001   		addl	$1, %eax	 #, PROF_edge_counter.8
 213 01e3 83D200   		adcl	$0, %edx	 #, PROF_edge_counter.8
 214 01e6 A3E00200 		movl	%eax, LPBX1+736	 # PROF_edge_counter.8, *LPBX1
 214      00
 215 01eb 8915E402 		movl	%edx, LPBX1+740	 # PROF_edge_counter.8, *LPBX1
 215      0000
 216 01f1 890D0800 		movl	%ecx, _threads+8	 # D.2990, threads
 216      0000
 217              		.loc 1 93 0
 218 01f7 A1180000 		movl	_rlist+24, %eax	 # rlist.r_current, D.2991
 218      00
 219 01fc 8B4008   		movl	8(%eax), %eax	 # D.2991_16->p_prio, D.2992
GAS LISTING C:\cygwin\tmp\ccBlkykz.s 			page 6


 220 01ff 8D5004   		leal	4(%eax), %edx	 #, D.2993
 221 0202 A10C0000 		movl	_wa+12, %eax	 # wa, D.2994
 221      00
 222 0207 C7442410 		movl	$LC3, 16(%esp)	 #,
 222      06000000 
 223 020f C744240C 		movl	$_thread1, 12(%esp)	 #,
 223      53000000 
 224 0217 89542408 		movl	%edx, 8(%esp)	 # D.2993,
 225 021b C7442404 		movl	$17008, 4(%esp)	 #,
 225      70420000 
 226 0223 890424   		movl	%eax, (%esp)	 # D.2994,
 227 0226 E8000000 		call	_chThdCreateStatic	 #
 227      00
 228 022b 89C1     		movl	%eax, %ecx	 #, D.2995
 229 022d A1E80200 		movl	LPBX1+744, %eax	 # *LPBX1, PROF_edge_counter.8
 229      00
 230 0232 8B15EC02 		movl	LPBX1+748, %edx	 # *LPBX1, PROF_edge_counter.8
 230      0000
 231 0238 83C001   		addl	$1, %eax	 #, PROF_edge_counter.8
 232 023b 83D200   		adcl	$0, %edx	 #, PROF_edge_counter.8
 233 023e A3E80200 		movl	%eax, LPBX1+744	 # PROF_edge_counter.8, *LPBX1
 233      00
 234 0243 8915EC02 		movl	%edx, LPBX1+748	 # PROF_edge_counter.8, *LPBX1
 234      0000
 235 0249 890D0C00 		movl	%ecx, _threads+12	 # D.2995, threads
 235      0000
 236              		.loc 1 94 0
 237 024f A1180000 		movl	_rlist+24, %eax	 # rlist.r_current, D.2996
 237      00
 238 0254 8B4008   		movl	8(%eax), %eax	 # D.2996_21->p_prio, D.2997
 239 0257 8D5002   		leal	2(%eax), %edx	 #, D.2998
 240 025a A1100000 		movl	_wa+16, %eax	 # wa, D.2999
 240      00
 241 025f C7442410 		movl	$LC4, 16(%esp)	 #,
 241      08000000 
 242 0267 C744240C 		movl	$_thread1, 12(%esp)	 #,
 242      53000000 
 243 026f 89542408 		movl	%edx, 8(%esp)	 # D.2998,
 244 0273 C7442404 		movl	$17008, 4(%esp)	 #,
 244      70420000 
 245 027b 890424   		movl	%eax, (%esp)	 # D.2999,
 246 027e E8000000 		call	_chThdCreateStatic	 #
 246      00
 247 0283 89C1     		movl	%eax, %ecx	 #, D.3000
 248 0285 A1F00200 		movl	LPBX1+752, %eax	 # *LPBX1, PROF_edge_counter.8
 248      00
 249 028a 8B15F402 		movl	LPBX1+756, %edx	 # *LPBX1, PROF_edge_counter.8
 249      0000
 250 0290 83C001   		addl	$1, %eax	 #, PROF_edge_counter.8
 251 0293 83D200   		adcl	$0, %edx	 #, PROF_edge_counter.8
 252 0296 A3F00200 		movl	%eax, LPBX1+752	 # PROF_edge_counter.8, *LPBX1
 252      00
 253 029b 8915F402 		movl	%edx, LPBX1+756	 # PROF_edge_counter.8, *LPBX1
 253      0000
 254 02a1 890D1000 		movl	%ecx, _threads+16	 # D.3000, threads
 254      0000
 255              		.loc 1 95 0
GAS LISTING C:\cygwin\tmp\ccBlkykz.s 			page 7


 256 02a7 C7042400 		movl	$_sem1, (%esp)	 #,
 256      000000
 257 02ae E8000000 		call	_chSemSignal	 #
 257      00
 258 02b3 A1F80200 		movl	LPBX1+760, %eax	 # *LPBX1, PROF_edge_counter.8
 258      00
 259 02b8 8B15FC02 		movl	LPBX1+764, %edx	 # *LPBX1, PROF_edge_counter.8
 259      0000
 260 02be 83C001   		addl	$1, %eax	 #, PROF_edge_counter.8
 261 02c1 83D200   		adcl	$0, %edx	 #, PROF_edge_counter.8
 262 02c4 A3F80200 		movl	%eax, LPBX1+760	 # PROF_edge_counter.8, *LPBX1
 262      00
 263 02c9 8915FC02 		movl	%edx, LPBX1+764	 # PROF_edge_counter.8, *LPBX1
 263      0000
 264              		.loc 1 96 0
 265 02cf C7042400 		movl	$_sem1, (%esp)	 #,
 265      000000
 266 02d6 E8000000 		call	_chSemSignal	 #
 266      00
 267 02db A1000300 		movl	LPBX1+768, %eax	 # *LPBX1, PROF_edge_counter.8
 267      00
 268 02e0 8B150403 		movl	LPBX1+772, %edx	 # *LPBX1, PROF_edge_counter.8
 268      0000
 269 02e6 83C001   		addl	$1, %eax	 #, PROF_edge_counter.8
 270 02e9 83D200   		adcl	$0, %edx	 #, PROF_edge_counter.8
 271 02ec A3000300 		movl	%eax, LPBX1+768	 # PROF_edge_counter.8, *LPBX1
 271      00
 272 02f1 89150403 		movl	%edx, LPBX1+772	 # PROF_edge_counter.8, *LPBX1
 272      0000
 273              		.loc 1 97 0
 274 02f7 C7042400 		movl	$_sem1, (%esp)	 #,
 274      000000
 275 02fe E8000000 		call	_chSemSignal	 #
 275      00
 276 0303 A1080300 		movl	LPBX1+776, %eax	 # *LPBX1, PROF_edge_counter.8
 276      00
 277 0308 8B150C03 		movl	LPBX1+780, %edx	 # *LPBX1, PROF_edge_counter.8
 277      0000
 278 030e 83C001   		addl	$1, %eax	 #, PROF_edge_counter.8
 279 0311 83D200   		adcl	$0, %edx	 #, PROF_edge_counter.8
 280 0314 A3080300 		movl	%eax, LPBX1+776	 # PROF_edge_counter.8, *LPBX1
 280      00
 281 0319 89150C03 		movl	%edx, LPBX1+780	 # PROF_edge_counter.8, *LPBX1
 281      0000
 282              		.loc 1 98 0
 283 031f C7042400 		movl	$_sem1, (%esp)	 #,
 283      000000
 284 0326 E8000000 		call	_chSemSignal	 #
 284      00
 285 032b A1100300 		movl	LPBX1+784, %eax	 # *LPBX1, PROF_edge_counter.8
 285      00
 286 0330 8B151403 		movl	LPBX1+788, %edx	 # *LPBX1, PROF_edge_counter.8
 286      0000
 287 0336 83C001   		addl	$1, %eax	 #, PROF_edge_counter.8
 288 0339 83D200   		adcl	$0, %edx	 #, PROF_edge_counter.8
 289 033c A3100300 		movl	%eax, LPBX1+784	 # PROF_edge_counter.8, *LPBX1
 289      00
GAS LISTING C:\cygwin\tmp\ccBlkykz.s 			page 8


 290 0341 89151403 		movl	%edx, LPBX1+788	 # PROF_edge_counter.8, *LPBX1
 290      0000
 291              		.loc 1 99 0
 292 0347 C7042400 		movl	$_sem1, (%esp)	 #,
 292      000000
 293 034e E8000000 		call	_chSemSignal	 #
 293      00
 294 0353 A1180300 		movl	LPBX1+792, %eax	 # *LPBX1, PROF_edge_counter.8
 294      00
 295 0358 8B151C03 		movl	LPBX1+796, %edx	 # *LPBX1, PROF_edge_counter.8
 295      0000
 296 035e 83C001   		addl	$1, %eax	 #, PROF_edge_counter.8
 297 0361 83D200   		adcl	$0, %edx	 #, PROF_edge_counter.8
 298 0364 A3180300 		movl	%eax, LPBX1+792	 # PROF_edge_counter.8, *LPBX1
 298      00
 299 0369 89151C03 		movl	%edx, LPBX1+796	 # PROF_edge_counter.8, *LPBX1
 299      0000
 300              		.loc 1 100 0
 301 036f E8000000 		call	_test_wait_threads	 #
 301      00
 302 0374 A1200300 		movl	LPBX1+800, %eax	 # *LPBX1, PROF_edge_counter.8
 302      00
 303 0379 8B152403 		movl	LPBX1+804, %edx	 # *LPBX1, PROF_edge_counter.8
 303      0000
 304 037f 83C001   		addl	$1, %eax	 #, PROF_edge_counter.8
 305 0382 83D200   		adcl	$0, %edx	 #, PROF_edge_counter.8
 306 0385 A3200300 		movl	%eax, LPBX1+800	 # PROF_edge_counter.8, *LPBX1
 306      00
 307 038a 89152403 		movl	%edx, LPBX1+804	 # PROF_edge_counter.8, *LPBX1
 307      0000
 308              		.loc 1 104 0
 309 0390 C7442404 		movl	$LC5, 4(%esp)	 #,
 309      0A000000 
 310 0398 C7042401 		movl	$1, (%esp)	 #,
 310      000000
 311 039f E8000000 		call	__test_assert_sequence	 #
 311      00
 312 03a4 84C0     		testb	%al, %al	 # D.3001
 313 03a6 7421     		je	L4	 #,
 314              		.loc 1 104 0 is_stmt 0 discriminator 1
 315 03a8 A1300300 		movl	LPBX1+816, %eax	 # *LPBX1, PROF_edge_counter.8
 315      00
 316 03ad 8B153403 		movl	LPBX1+820, %edx	 # *LPBX1, PROF_edge_counter.8
 316      0000
 317 03b3 83C001   		addl	$1, %eax	 #, PROF_edge_counter.8
 318 03b6 83D200   		adcl	$0, %edx	 #, PROF_edge_counter.8
 319 03b9 A3300300 		movl	%eax, LPBX1+816	 # PROF_edge_counter.8, *LPBX1
 319      00
 320 03be 89153403 		movl	%edx, LPBX1+820	 # PROF_edge_counter.8, *LPBX1
 320      0000
 321 03c4 E95B0100 		jmp	L3	 #
 321      00
 322              	L4:
 323              		.loc 1 104 0
 324 03c9 A1280300 		movl	LPBX1+808, %eax	 # *LPBX1, PROF_edge_counter.8
 324      00
 325 03ce 8B152C03 		movl	LPBX1+812, %edx	 # *LPBX1, PROF_edge_counter.8
GAS LISTING C:\cygwin\tmp\ccBlkykz.s 			page 9


 325      0000
 326 03d4 83C001   		addl	$1, %eax	 #, PROF_edge_counter.8
 327 03d7 83D200   		adcl	$0, %edx	 #, PROF_edge_counter.8
 328 03da A3280300 		movl	%eax, LPBX1+808	 # PROF_edge_counter.8, *LPBX1
 328      00
 329 03df 89152C03 		movl	%edx, LPBX1+812	 # PROF_edge_counter.8, *LPBX1
 329      0000
 330              		.loc 1 106 0 is_stmt 1
 331 03e5 A1180000 		movl	_rlist+24, %eax	 # rlist.r_current, D.3004
 331      00
 332 03ea 8B4008   		movl	8(%eax), %eax	 # D.3004_27->p_prio, D.3005
 333 03ed 8D5005   		leal	5(%eax), %edx	 #, D.3006
 334 03f0 A1000000 		movl	_wa, %eax	 # wa, D.3007
 334      00
 335 03f5 C7442410 		movl	$LC0, 16(%esp)	 #,
 335      00000000 
 336 03fd C744240C 		movl	$_thread1, 12(%esp)	 #,
 336      53000000 
 337 0405 89542408 		movl	%edx, 8(%esp)	 # D.3006,
 338 0409 C7442404 		movl	$17008, 4(%esp)	 #,
 338      70420000 
 339 0411 890424   		movl	%eax, (%esp)	 # D.3007,
 340 0414 E8000000 		call	_chThdCreateStatic	 #
 340      00
 341 0419 89C1     		movl	%eax, %ecx	 #, D.3008
 342 041b A1380300 		movl	LPBX1+824, %eax	 # *LPBX1, PROF_edge_counter.8
 342      00
 343 0420 8B153C03 		movl	LPBX1+828, %edx	 # *LPBX1, PROF_edge_counter.8
 343      0000
 344 0426 83C001   		addl	$1, %eax	 #, PROF_edge_counter.8
 345 0429 83D200   		adcl	$0, %edx	 #, PROF_edge_counter.8
 346 042c A3380300 		movl	%eax, LPBX1+824	 # PROF_edge_counter.8, *LPBX1
 346      00
 347 0431 89153C03 		movl	%edx, LPBX1+828	 # PROF_edge_counter.8, *LPBX1
 347      0000
 348 0437 890D0000 		movl	%ecx, _threads	 # D.3008, threads
 348      0000
 349              		.loc 1 107 0
 350              	/APP
 351              	 # 107 "../../test/testsem.c" 1
 352 043d 90       		nop
 353              	 # 0 "" 2
 354              	/NO_APP
 355 043e A1400300 		movl	LPBX1+832, %eax	 # *LPBX1, PROF_edge_counter.8
 355      00
 356 0443 8B154403 		movl	LPBX1+836, %edx	 # *LPBX1, PROF_edge_counter.8
 356      0000
 357 0449 83C001   		addl	$1, %eax	 #, PROF_edge_counter.8
 358 044c 83D200   		adcl	$0, %edx	 #, PROF_edge_counter.8
 359 044f A3400300 		movl	%eax, LPBX1+832	 # PROF_edge_counter.8, *LPBX1
 359      00
 360 0454 89154403 		movl	%edx, LPBX1+836	 # PROF_edge_counter.8, *LPBX1
 360      0000
 361              		.loc 1 108 0
 362 045a C7442404 		movl	$2, 4(%esp)	 #,
 362      02000000 
 363 0462 C7042400 		movl	$_sem1, (%esp)	 #,
GAS LISTING C:\cygwin\tmp\ccBlkykz.s 			page 10


 363      000000
 364 0469 E8000000 		call	_chSemAddCounterI	 #
 364      00
 365 046e A1480300 		movl	LPBX1+840, %eax	 # *LPBX1, PROF_edge_counter.8
 365      00
 366 0473 8B154C03 		movl	LPBX1+844, %edx	 # *LPBX1, PROF_edge_counter.8
 366      0000
 367 0479 83C001   		addl	$1, %eax	 #, PROF_edge_counter.8
 368 047c 83D200   		adcl	$0, %edx	 #, PROF_edge_counter.8
 369 047f A3480300 		movl	%eax, LPBX1+840	 # PROF_edge_counter.8, *LPBX1
 369      00
 370 0484 89154C03 		movl	%edx, LPBX1+844	 # PROF_edge_counter.8, *LPBX1
 370      0000
 371              		.loc 1 109 0
 372              	/APP
 373              	 # 109 "../../test/testsem.c" 1
 374 048a 90       		nop
 375              	 # 0 "" 2
 376              	/NO_APP
 377 048b A1500300 		movl	LPBX1+848, %eax	 # *LPBX1, PROF_edge_counter.8
 377      00
 378 0490 8B155403 		movl	LPBX1+852, %edx	 # *LPBX1, PROF_edge_counter.8
 378      0000
 379 0496 83C001   		addl	$1, %eax	 #, PROF_edge_counter.8
 380 0499 83D200   		adcl	$0, %edx	 #, PROF_edge_counter.8
 381 049c A3500300 		movl	%eax, LPBX1+848	 # PROF_edge_counter.8, *LPBX1
 381      00
 382 04a1 89155403 		movl	%edx, LPBX1+852	 # PROF_edge_counter.8, *LPBX1
 382      0000
 383              		.loc 1 110 0
 384 04a7 E8000000 		call	_test_wait_threads	 #
 384      00
 385 04ac A1580300 		movl	LPBX1+856, %eax	 # *LPBX1, PROF_edge_counter.8
 385      00
 386 04b1 8B155C03 		movl	LPBX1+860, %edx	 # *LPBX1, PROF_edge_counter.8
 386      0000
 387 04b7 83C001   		addl	$1, %eax	 #, PROF_edge_counter.8
 388 04ba 83D200   		adcl	$0, %edx	 #, PROF_edge_counter.8
 389 04bd A3580300 		movl	%eax, LPBX1+856	 # PROF_edge_counter.8, *LPBX1
 389      00
 390 04c2 89155C03 		movl	%edx, LPBX1+860	 # PROF_edge_counter.8, *LPBX1
 390      0000
 391              		.loc 1 111 0
 392 04c8 A1080000 		movl	_sem1+8, %eax	 # sem1.s_cnt, D.3009
 392      00
 393 04cd 83F801   		cmpl	$1, %eax	 #, D.3009
 394 04d0 0F94C0   		sete	%al	 #, tmp135
 395 04d3 0FB6C0   		movzbl	%al, %eax	 # tmp135, D.3010
 396 04d6 89442404 		movl	%eax, 4(%esp)	 # D.3010,
 397 04da C7042402 		movl	$2, (%esp)	 #,
 397      000000
 398 04e1 E8000000 		call	__test_assert	 #
 398      00
 399 04e6 88C1     		movb	%al, %cl	 #, D.3011
 400 04e8 A1600300 		movl	LPBX1+864, %eax	 # *LPBX1, PROF_edge_counter.8
 400      00
 401 04ed 8B156403 		movl	LPBX1+868, %edx	 # *LPBX1, PROF_edge_counter.8
GAS LISTING C:\cygwin\tmp\ccBlkykz.s 			page 11


 401      0000
 402 04f3 83C001   		addl	$1, %eax	 #, PROF_edge_counter.8
 403 04f6 83D200   		adcl	$0, %edx	 #, PROF_edge_counter.8
 404 04f9 A3600300 		movl	%eax, LPBX1+864	 # PROF_edge_counter.8, *LPBX1
 404      00
 405 04fe 89156403 		movl	%edx, LPBX1+868	 # PROF_edge_counter.8, *LPBX1
 405      0000
 406 0504 84C9     		testb	%cl, %cl	 # D.3011
 407 0506 741C     		je	L3	 #,
 408              		.loc 1 111 0 is_stmt 0 discriminator 1
 409 0508 A1680300 		movl	LPBX1+872, %eax	 # *LPBX1, PROF_edge_counter.8
 409      00
 410 050d 8B156C03 		movl	LPBX1+876, %edx	 # *LPBX1, PROF_edge_counter.8
 410      0000
 411 0513 83C001   		addl	$1, %eax	 #, PROF_edge_counter.8
 412 0516 83D200   		adcl	$0, %edx	 #, PROF_edge_counter.8
 413 0519 A3680300 		movl	%eax, LPBX1+872	 # PROF_edge_counter.8, *LPBX1
 413      00
 414 051e 89156C03 		movl	%edx, LPBX1+876	 # PROF_edge_counter.8, *LPBX1
 414      0000
 415              	L3:
 416              		.loc 1 112 0 is_stmt 1
 417 0524 83C42C   		addl	$44, %esp	 #,
 418              	LCFI5:
 419              		.cfi_def_cfa_offset 4
 420 0527 C3       		ret
 421              		.cfi_endproc
 422              	LFE2:
 423              		.globl	_testsem1
 424              		.section .rdata,"dr"
 425              	LC6:
 426 0010 53656D61 		.ascii "Semaphores, enqueuing\0"
 426      70686F72 
 426      65732C20 
 426      656E7175 
 426      6575696E 
 427 0026 0000     		.align 4
 428              	_testsem1:
 429              	 # name:
 430 0028 10000000 		.long	LC6
 431              	 # setup:
 432 002c 00000000 		.long	_sem1_setup
 433              	 # teardown:
 434 0030 00000000 		.long	0
 435              	 # execute:
 436 0034 D0000000 		.long	_sem1_execute
 437              		.text
 438              		.def	_sem2_setup;	.scl	3;	.type	32;	.endef
 439              	_sem2_setup:
 440              	LFB3:
 441              		.loc 1 132 0
 442              		.cfi_startproc
 443 0528 83EC1C   		subl	$28, %esp	 #,
 444              	LCFI6:
 445              		.cfi_def_cfa_offset 32
 446              		.loc 1 132 0
 447 052b A1B80200 		movl	LPBX1+696, %eax	 # *LPBX1, PROF_edge_counter.7
GAS LISTING C:\cygwin\tmp\ccBlkykz.s 			page 12


 447      00
 448 0530 8B15BC02 		movl	LPBX1+700, %edx	 # *LPBX1, PROF_edge_counter.7
 448      0000
 449 0536 83C001   		addl	$1, %eax	 #, PROF_edge_counter.7
 450 0539 83D200   		adcl	$0, %edx	 #, PROF_edge_counter.7
 451 053c A3B80200 		movl	%eax, LPBX1+696	 # PROF_edge_counter.7, *LPBX1
 451      00
 452 0541 8915BC02 		movl	%edx, LPBX1+700	 # PROF_edge_counter.7, *LPBX1
 452      0000
 453              		.loc 1 134 0
 454 0547 C7442404 		movl	$0, 4(%esp)	 #,
 454      00000000 
 455 054f C7042400 		movl	$_sem1, (%esp)	 #,
 455      000000
 456 0556 E8000000 		call	_chSemInit	 #
 456      00
 457 055b A1C00200 		movl	LPBX1+704, %eax	 # *LPBX1, PROF_edge_counter.7
 457      00
 458 0560 8B15C402 		movl	LPBX1+708, %edx	 # *LPBX1, PROF_edge_counter.7
 458      0000
 459 0566 83C001   		addl	$1, %eax	 #, PROF_edge_counter.7
 460 0569 83D200   		adcl	$0, %edx	 #, PROF_edge_counter.7
 461 056c A3C00200 		movl	%eax, LPBX1+704	 # PROF_edge_counter.7, *LPBX1
 461      00
 462 0571 8915C402 		movl	%edx, LPBX1+708	 # PROF_edge_counter.7, *LPBX1
 462      0000
 463              		.loc 1 135 0
 464 0577 83C41C   		addl	$28, %esp	 #,
 465              	LCFI7:
 466              		.cfi_def_cfa_offset 4
 467 057a C3       		ret
 468              		.cfi_endproc
 469              	LFE3:
 470              		.def	_thread2;	.scl	3;	.type	32;	.endef
 471              	_thread2:
 472              	LFB4:
 473              		.loc 1 137 0
 474              		.cfi_startproc
 475 057b 83EC1C   		subl	$28, %esp	 #,
 476              	LCFI8:
 477              		.cfi_def_cfa_offset 32
 478              		.loc 1 137 0
 479 057e A1880200 		movl	LPBX1+648, %eax	 # *LPBX1, PROF_edge_counter.6
 479      00
 480 0583 8B158C02 		movl	LPBX1+652, %edx	 # *LPBX1, PROF_edge_counter.6
 480      0000
 481 0589 83C001   		addl	$1, %eax	 #, PROF_edge_counter.6
 482 058c 83D200   		adcl	$0, %edx	 #, PROF_edge_counter.6
 483 058f A3880200 		movl	%eax, LPBX1+648	 # PROF_edge_counter.6, *LPBX1
 483      00
 484 0594 89158C02 		movl	%edx, LPBX1+652	 # PROF_edge_counter.6, *LPBX1
 484      0000
 485              		.loc 1 140 0
 486 059a C7042432 		movl	$50, (%esp)	 #,
 486      000000
 487 05a1 E8000000 		call	_chThdSleep	 #
 487      00
GAS LISTING C:\cygwin\tmp\ccBlkykz.s 			page 13


 488 05a6 A1900200 		movl	LPBX1+656, %eax	 # *LPBX1, PROF_edge_counter.6
 488      00
 489 05ab 8B159402 		movl	LPBX1+660, %edx	 # *LPBX1, PROF_edge_counter.6
 489      0000
 490 05b1 83C001   		addl	$1, %eax	 #, PROF_edge_counter.6
 491 05b4 83D200   		adcl	$0, %edx	 #, PROF_edge_counter.6
 492 05b7 A3900200 		movl	%eax, LPBX1+656	 # PROF_edge_counter.6, *LPBX1
 492      00
 493 05bc 89159402 		movl	%edx, LPBX1+660	 # PROF_edge_counter.6, *LPBX1
 493      0000
 494              		.loc 1 141 0
 495              	/APP
 496              	 # 141 "../../test/testsem.c" 1
 497 05c2 90       		nop
 498              	 # 0 "" 2
 499              	/NO_APP
 500 05c3 A1980200 		movl	LPBX1+664, %eax	 # *LPBX1, PROF_edge_counter.6
 500      00
 501 05c8 8B159C02 		movl	LPBX1+668, %edx	 # *LPBX1, PROF_edge_counter.6
 501      0000
 502 05ce 83C001   		addl	$1, %eax	 #, PROF_edge_counter.6
 503 05d1 83D200   		adcl	$0, %edx	 #, PROF_edge_counter.6
 504 05d4 A3980200 		movl	%eax, LPBX1+664	 # PROF_edge_counter.6, *LPBX1
 504      00
 505 05d9 89159C02 		movl	%edx, LPBX1+668	 # PROF_edge_counter.6, *LPBX1
 505      0000
 506              		.loc 1 142 0
 507 05df C7042400 		movl	$_sem1, (%esp)	 #,
 507      000000
 508 05e6 E8000000 		call	_chSemSignalI	 #
 508      00
 509 05eb A1A00200 		movl	LPBX1+672, %eax	 # *LPBX1, PROF_edge_counter.6
 509      00
 510 05f0 8B15A402 		movl	LPBX1+676, %edx	 # *LPBX1, PROF_edge_counter.6
 510      0000
 511 05f6 83C001   		addl	$1, %eax	 #, PROF_edge_counter.6
 512 05f9 83D200   		adcl	$0, %edx	 #, PROF_edge_counter.6
 513 05fc A3A00200 		movl	%eax, LPBX1+672	 # PROF_edge_counter.6, *LPBX1
 513      00
 514 0601 8915A402 		movl	%edx, LPBX1+676	 # PROF_edge_counter.6, *LPBX1
 514      0000
 515              		.loc 1 143 0
 516 0607 E8000000 		call	_chSchRescheduleS	 #
 516      00
 517 060c A1A80200 		movl	LPBX1+680, %eax	 # *LPBX1, PROF_edge_counter.6
 517      00
 518 0611 8B15AC02 		movl	LPBX1+684, %edx	 # *LPBX1, PROF_edge_counter.6
 518      0000
 519 0617 83C001   		addl	$1, %eax	 #, PROF_edge_counter.6
 520 061a 83D200   		adcl	$0, %edx	 #, PROF_edge_counter.6
 521 061d A3A80200 		movl	%eax, LPBX1+680	 # PROF_edge_counter.6, *LPBX1
 521      00
 522 0622 8915AC02 		movl	%edx, LPBX1+684	 # PROF_edge_counter.6, *LPBX1
 522      0000
 523              		.loc 1 144 0
 524              	/APP
 525              	 # 144 "../../test/testsem.c" 1
GAS LISTING C:\cygwin\tmp\ccBlkykz.s 			page 14


 526 0628 90       		nop
 527              	 # 0 "" 2
 528              	/NO_APP
 529 0629 A1B00200 		movl	LPBX1+688, %eax	 # *LPBX1, PROF_edge_counter.6
 529      00
 530 062e 8B15B402 		movl	LPBX1+692, %edx	 # *LPBX1, PROF_edge_counter.6
 530      0000
 531 0634 83C001   		addl	$1, %eax	 #, PROF_edge_counter.6
 532 0637 83D200   		adcl	$0, %edx	 #, PROF_edge_counter.6
 533 063a A3B00200 		movl	%eax, LPBX1+688	 # PROF_edge_counter.6, *LPBX1
 533      00
 534 063f 8915B402 		movl	%edx, LPBX1+692	 # PROF_edge_counter.6, *LPBX1
 534      0000
 535              		.loc 1 145 0
 536 0645 B8000000 		movl	$0, %eax	 #, D.2974
 536      00
 537              		.loc 1 146 0
 538 064a 83C41C   		addl	$28, %esp	 #,
 539              	LCFI9:
 540              		.cfi_def_cfa_offset 4
 541 064d C3       		ret
 542              		.cfi_endproc
 543              	LFE4:
 544              		.def	_sem2_execute;	.scl	3;	.type	32;	.endef
 545              	_sem2_execute:
 546              	LFB5:
 547              		.loc 1 148 0
 548              		.cfi_startproc
 549 064e 83EC3C   		subl	$60, %esp	 #,
 550              	LCFI10:
 551              		.cfi_def_cfa_offset 64
 552              		.loc 1 148 0
 553 0651 A1900100 		movl	LPBX1+400, %eax	 # *LPBX1, PROF_edge_counter.5
 553      00
 554 0656 8B159401 		movl	LPBX1+404, %edx	 # *LPBX1, PROF_edge_counter.5
 554      0000
 555 065c 83C001   		addl	$1, %eax	 #, PROF_edge_counter.5
 556 065f 83D200   		adcl	$0, %edx	 #, PROF_edge_counter.5
 557 0662 A3900100 		movl	%eax, LPBX1+400	 # PROF_edge_counter.5, *LPBX1
 557      00
 558 0667 89159401 		movl	%edx, LPBX1+404	 # PROF_edge_counter.5, *LPBX1
 558      0000
 559              		.loc 1 156 0
 560 066d C7442404 		movl	$0, 4(%esp)	 #,
 560      00000000 
 561 0675 C7042400 		movl	$_sem1, (%esp)	 #,
 561      000000
 562 067c E8000000 		call	_chSemWaitTimeout	 #
 562      00
 563 0681 89442428 		movl	%eax, 40(%esp)	 # tmp158, msg
 564 0685 A1980100 		movl	LPBX1+408, %eax	 # *LPBX1, PROF_edge_counter.5
 564      00
 565 068a 8B159C01 		movl	LPBX1+412, %edx	 # *LPBX1, PROF_edge_counter.5
 565      0000
 566 0690 83C001   		addl	$1, %eax	 #, PROF_edge_counter.5
 567 0693 83D200   		adcl	$0, %edx	 #, PROF_edge_counter.5
 568 0696 A3980100 		movl	%eax, LPBX1+408	 # PROF_edge_counter.5, *LPBX1
GAS LISTING C:\cygwin\tmp\ccBlkykz.s 			page 15


 568      00
 569 069b 89159C01 		movl	%edx, LPBX1+412	 # PROF_edge_counter.5, *LPBX1
 569      0000
 570              		.loc 1 157 0
 571 06a1 837C2428 		cmpl	$-1, 40(%esp)	 #, msg
 571      FF
 572 06a6 0F94C0   		sete	%al	 #, tmp159
 573 06a9 0FB6C0   		movzbl	%al, %eax	 # tmp159, D.2914
 574 06ac 89442404 		movl	%eax, 4(%esp)	 # D.2914,
 575 06b0 C7042401 		movl	$1, (%esp)	 #,
 575      000000
 576 06b7 E8000000 		call	__test_assert	 #
 576      00
 577 06bc 84C0     		testb	%al, %al	 # D.2915
 578 06be 7421     		je	L9	 #,
 579              		.loc 1 157 0 is_stmt 0 discriminator 1
 580 06c0 A1A80100 		movl	LPBX1+424, %eax	 # *LPBX1, PROF_edge_counter.5
 580      00
 581 06c5 8B15AC01 		movl	LPBX1+428, %edx	 # *LPBX1, PROF_edge_counter.5
 581      0000
 582 06cb 83C001   		addl	$1, %eax	 #, PROF_edge_counter.5
 583 06ce 83D200   		adcl	$0, %edx	 #, PROF_edge_counter.5
 584 06d1 A3A80100 		movl	%eax, LPBX1+424	 # PROF_edge_counter.5, *LPBX1
 584      00
 585 06d6 8915AC01 		movl	%edx, LPBX1+428	 # PROF_edge_counter.5, *LPBX1
 585      0000
 586 06dc E9360500 		jmp	L8	 #
 586      00
 587              	L9:
 588              		.loc 1 157 0
 589 06e1 A1A00100 		movl	LPBX1+416, %eax	 # *LPBX1, PROF_edge_counter.5
 589      00
 590 06e6 8B15A401 		movl	LPBX1+420, %edx	 # *LPBX1, PROF_edge_counter.5
 590      0000
 591 06ec 83C001   		addl	$1, %eax	 #, PROF_edge_counter.5
 592 06ef 83D200   		adcl	$0, %edx	 #, PROF_edge_counter.5
 593 06f2 A3A00100 		movl	%eax, LPBX1+416	 # PROF_edge_counter.5, *LPBX1
 593      00
 594 06f7 8915A401 		movl	%edx, LPBX1+420	 # PROF_edge_counter.5, *LPBX1
 594      0000
 595              		.loc 1 158 0 is_stmt 1
 596 06fd A1000000 		movl	_sem1, %eax	 # sem1.s_queue.p_next, D.2918
 596      00
 597 0702 3D000000 		cmpl	$_sem1, %eax	 #, D.2918
 597      00
 598 0707 0F94C0   		sete	%al	 #, tmp160
 599 070a 0FB6C0   		movzbl	%al, %eax	 # tmp160, D.2919
 600 070d 89442404 		movl	%eax, 4(%esp)	 # D.2919,
 601 0711 C7042402 		movl	$2, (%esp)	 #,
 601      000000
 602 0718 E8000000 		call	__test_assert	 #
 602      00
 603 071d 84C0     		testb	%al, %al	 # D.2920
 604 071f 7421     		je	L11	 #,
 605              		.loc 1 158 0 is_stmt 0 discriminator 1
 606 0721 A1B80100 		movl	LPBX1+440, %eax	 # *LPBX1, PROF_edge_counter.5
 606      00
GAS LISTING C:\cygwin\tmp\ccBlkykz.s 			page 16


 607 0726 8B15BC01 		movl	LPBX1+444, %edx	 # *LPBX1, PROF_edge_counter.5
 607      0000
 608 072c 83C001   		addl	$1, %eax	 #, PROF_edge_counter.5
 609 072f 83D200   		adcl	$0, %edx	 #, PROF_edge_counter.5
 610 0732 A3B80100 		movl	%eax, LPBX1+440	 # PROF_edge_counter.5, *LPBX1
 610      00
 611 0737 8915BC01 		movl	%edx, LPBX1+444	 # PROF_edge_counter.5, *LPBX1
 611      0000
 612 073d E9D50400 		jmp	L8	 #
 612      00
 613              	L11:
 614              		.loc 1 158 0
 615 0742 A1B00100 		movl	LPBX1+432, %eax	 # *LPBX1, PROF_edge_counter.5
 615      00
 616 0747 8B15B401 		movl	LPBX1+436, %edx	 # *LPBX1, PROF_edge_counter.5
 616      0000
 617 074d 83C001   		addl	$1, %eax	 #, PROF_edge_counter.5
 618 0750 83D200   		adcl	$0, %edx	 #, PROF_edge_counter.5
 619 0753 A3B00100 		movl	%eax, LPBX1+432	 # PROF_edge_counter.5, *LPBX1
 619      00
 620 0758 8915B401 		movl	%edx, LPBX1+436	 # PROF_edge_counter.5, *LPBX1
 620      0000
 621              		.loc 1 159 0 is_stmt 1
 622 075e A1080000 		movl	_sem1+8, %eax	 # sem1.s_cnt, D.2923
 622      00
 623 0763 85C0     		testl	%eax, %eax	 # D.2923
 624 0765 0F94C0   		sete	%al	 #, tmp161
 625 0768 0FB6C0   		movzbl	%al, %eax	 # tmp161, D.2924
 626 076b 89442404 		movl	%eax, 4(%esp)	 # D.2924,
 627 076f C7042403 		movl	$3, (%esp)	 #,
 627      000000
 628 0776 E8000000 		call	__test_assert	 #
 628      00
 629 077b 84C0     		testb	%al, %al	 # D.2925
 630 077d 7421     		je	L12	 #,
 631              		.loc 1 159 0 is_stmt 0 discriminator 1
 632 077f A1C80100 		movl	LPBX1+456, %eax	 # *LPBX1, PROF_edge_counter.5
 632      00
 633 0784 8B15CC01 		movl	LPBX1+460, %edx	 # *LPBX1, PROF_edge_counter.5
 633      0000
 634 078a 83C001   		addl	$1, %eax	 #, PROF_edge_counter.5
 635 078d 83D200   		adcl	$0, %edx	 #, PROF_edge_counter.5
 636 0790 A3C80100 		movl	%eax, LPBX1+456	 # PROF_edge_counter.5, *LPBX1
 636      00
 637 0795 8915CC01 		movl	%edx, LPBX1+460	 # PROF_edge_counter.5, *LPBX1
 637      0000
 638 079b E9770400 		jmp	L8	 #
 638      00
 639              	L12:
 640              		.loc 1 159 0
 641 07a0 A1C00100 		movl	LPBX1+448, %eax	 # *LPBX1, PROF_edge_counter.5
 641      00
 642 07a5 8B15C401 		movl	LPBX1+452, %edx	 # *LPBX1, PROF_edge_counter.5
 642      0000
 643 07ab 83C001   		addl	$1, %eax	 #, PROF_edge_counter.5
 644 07ae 83D200   		adcl	$0, %edx	 #, PROF_edge_counter.5
 645 07b1 A3C00100 		movl	%eax, LPBX1+448	 # PROF_edge_counter.5, *LPBX1
GAS LISTING C:\cygwin\tmp\ccBlkykz.s 			page 17


 645      00
 646 07b6 8915C401 		movl	%edx, LPBX1+452	 # PROF_edge_counter.5, *LPBX1
 646      0000
 647              		.loc 1 164 0 is_stmt 1
 648 07bc A1180000 		movl	_rlist+24, %eax	 # rlist.r_current, D.2928
 648      00
 649 07c1 8B4008   		movl	8(%eax), %eax	 # D.2928_11->p_prio, D.2929
 650 07c4 8D50FF   		leal	-1(%eax), %edx	 #, D.2930
 651 07c7 A1000000 		movl	_wa, %eax	 # wa, D.2931
 651      00
 652 07cc C7442410 		movl	$0, 16(%esp)	 #,
 652      00000000 
 653 07d4 C744240C 		movl	$_thread2, 12(%esp)	 #,
 653      7B050000 
 654 07dc 89542408 		movl	%edx, 8(%esp)	 # D.2930,
 655 07e0 C7442404 		movl	$17008, 4(%esp)	 #,
 655      70420000 
 656 07e8 890424   		movl	%eax, (%esp)	 # D.2931,
 657 07eb E8000000 		call	_chThdCreateStatic	 #
 657      00
 658 07f0 89C1     		movl	%eax, %ecx	 #, D.2932
 659 07f2 A1D00100 		movl	LPBX1+464, %eax	 # *LPBX1, PROF_edge_counter.5
 659      00
 660 07f7 8B15D401 		movl	LPBX1+468, %edx	 # *LPBX1, PROF_edge_counter.5
 660      0000
 661 07fd 83C001   		addl	$1, %eax	 #, PROF_edge_counter.5
 662 0800 83D200   		adcl	$0, %edx	 #, PROF_edge_counter.5
 663 0803 A3D00100 		movl	%eax, LPBX1+464	 # PROF_edge_counter.5, *LPBX1
 663      00
 664 0808 8915D401 		movl	%edx, LPBX1+468	 # PROF_edge_counter.5, *LPBX1
 664      0000
 665 080e 890D0000 		movl	%ecx, _threads	 # D.2932, threads
 665      0000
 666              		.loc 1 166 0
 667 0814 C7442404 		movl	$500, 4(%esp)	 #,
 667      F4010000 
 668 081c C7042400 		movl	$_sem1, (%esp)	 #,
 668      000000
 669 0823 E8000000 		call	_chSemWaitTimeout	 #
 669      00
 670 0828 89442428 		movl	%eax, 40(%esp)	 # tmp162, msg
 671 082c A1D80100 		movl	LPBX1+472, %eax	 # *LPBX1, PROF_edge_counter.5
 671      00
 672 0831 8B15DC01 		movl	LPBX1+476, %edx	 # *LPBX1, PROF_edge_counter.5
 672      0000
 673 0837 83C001   		addl	$1, %eax	 #, PROF_edge_counter.5
 674 083a 83D200   		adcl	$0, %edx	 #, PROF_edge_counter.5
 675 083d A3D80100 		movl	%eax, LPBX1+472	 # PROF_edge_counter.5, *LPBX1
 675      00
 676 0842 8915DC01 		movl	%edx, LPBX1+476	 # PROF_edge_counter.5, *LPBX1
 676      0000
 677              		.loc 1 167 0
 678 0848 E8000000 		call	_test_wait_threads	 #
 678      00
 679 084d A1E00100 		movl	LPBX1+480, %eax	 # *LPBX1, PROF_edge_counter.5
 679      00
 680 0852 8B15E401 		movl	LPBX1+484, %edx	 # *LPBX1, PROF_edge_counter.5
GAS LISTING C:\cygwin\tmp\ccBlkykz.s 			page 18


 680      0000
 681 0858 83C001   		addl	$1, %eax	 #, PROF_edge_counter.5
 682 085b 83D200   		adcl	$0, %edx	 #, PROF_edge_counter.5
 683 085e A3E00100 		movl	%eax, LPBX1+480	 # PROF_edge_counter.5, *LPBX1
 683      00
 684 0863 8915E401 		movl	%edx, LPBX1+484	 # PROF_edge_counter.5, *LPBX1
 684      0000
 685              		.loc 1 168 0
 686 0869 837C2428 		cmpl	$0, 40(%esp)	 #, msg
 686      00
 687 086e 0F94C0   		sete	%al	 #, tmp163
 688 0871 0FB6C0   		movzbl	%al, %eax	 # tmp163, D.2933
 689 0874 89442404 		movl	%eax, 4(%esp)	 # D.2933,
 690 0878 C7042404 		movl	$4, (%esp)	 #,
 690      000000
 691 087f E8000000 		call	__test_assert	 #
 691      00
 692 0884 84C0     		testb	%al, %al	 # D.2934
 693 0886 7421     		je	L13	 #,
 694              		.loc 1 168 0 is_stmt 0 discriminator 1
 695 0888 A1F00100 		movl	LPBX1+496, %eax	 # *LPBX1, PROF_edge_counter.5
 695      00
 696 088d 8B15F401 		movl	LPBX1+500, %edx	 # *LPBX1, PROF_edge_counter.5
 696      0000
 697 0893 83C001   		addl	$1, %eax	 #, PROF_edge_counter.5
 698 0896 83D200   		adcl	$0, %edx	 #, PROF_edge_counter.5
 699 0899 A3F00100 		movl	%eax, LPBX1+496	 # PROF_edge_counter.5, *LPBX1
 699      00
 700 089e 8915F401 		movl	%edx, LPBX1+500	 # PROF_edge_counter.5, *LPBX1
 700      0000
 701 08a4 E96E0300 		jmp	L8	 #
 701      00
 702              	L13:
 703              		.loc 1 168 0
 704 08a9 A1E80100 		movl	LPBX1+488, %eax	 # *LPBX1, PROF_edge_counter.5
 704      00
 705 08ae 8B15EC01 		movl	LPBX1+492, %edx	 # *LPBX1, PROF_edge_counter.5
 705      0000
 706 08b4 83C001   		addl	$1, %eax	 #, PROF_edge_counter.5
 707 08b7 83D200   		adcl	$0, %edx	 #, PROF_edge_counter.5
 708 08ba A3E80100 		movl	%eax, LPBX1+488	 # PROF_edge_counter.5, *LPBX1
 708      00
 709 08bf 8915EC01 		movl	%edx, LPBX1+492	 # PROF_edge_counter.5, *LPBX1
 709      0000
 710              		.loc 1 169 0 is_stmt 1
 711 08c5 A1000000 		movl	_sem1, %eax	 # sem1.s_queue.p_next, D.2937
 711      00
 712 08ca 3D000000 		cmpl	$_sem1, %eax	 #, D.2937
 712      00
 713 08cf 0F94C0   		sete	%al	 #, tmp164
 714 08d2 0FB6C0   		movzbl	%al, %eax	 # tmp164, D.2938
 715 08d5 89442404 		movl	%eax, 4(%esp)	 # D.2938,
 716 08d9 C7042405 		movl	$5, (%esp)	 #,
 716      000000
 717 08e0 E8000000 		call	__test_assert	 #
 717      00
 718 08e5 84C0     		testb	%al, %al	 # D.2939
GAS LISTING C:\cygwin\tmp\ccBlkykz.s 			page 19


 719 08e7 7421     		je	L14	 #,
 720              		.loc 1 169 0 is_stmt 0 discriminator 1
 721 08e9 A1000200 		movl	LPBX1+512, %eax	 # *LPBX1, PROF_edge_counter.5
 721      00
 722 08ee 8B150402 		movl	LPBX1+516, %edx	 # *LPBX1, PROF_edge_counter.5
 722      0000
 723 08f4 83C001   		addl	$1, %eax	 #, PROF_edge_counter.5
 724 08f7 83D200   		adcl	$0, %edx	 #, PROF_edge_counter.5
 725 08fa A3000200 		movl	%eax, LPBX1+512	 # PROF_edge_counter.5, *LPBX1
 725      00
 726 08ff 89150402 		movl	%edx, LPBX1+516	 # PROF_edge_counter.5, *LPBX1
 726      0000
 727 0905 E90D0300 		jmp	L8	 #
 727      00
 728              	L14:
 729              		.loc 1 169 0
 730 090a A1F80100 		movl	LPBX1+504, %eax	 # *LPBX1, PROF_edge_counter.5
 730      00
 731 090f 8B15FC01 		movl	LPBX1+508, %edx	 # *LPBX1, PROF_edge_counter.5
 731      0000
 732 0915 83C001   		addl	$1, %eax	 #, PROF_edge_counter.5
 733 0918 83D200   		adcl	$0, %edx	 #, PROF_edge_counter.5
 734 091b A3F80100 		movl	%eax, LPBX1+504	 # PROF_edge_counter.5, *LPBX1
 734      00
 735 0920 8915FC01 		movl	%edx, LPBX1+508	 # PROF_edge_counter.5, *LPBX1
 735      0000
 736              		.loc 1 170 0 is_stmt 1
 737 0926 A1080000 		movl	_sem1+8, %eax	 # sem1.s_cnt, D.2942
 737      00
 738 092b 85C0     		testl	%eax, %eax	 # D.2942
 739 092d 0F94C0   		sete	%al	 #, tmp165
 740 0930 0FB6C0   		movzbl	%al, %eax	 # tmp165, D.2943
 741 0933 89442404 		movl	%eax, 4(%esp)	 # D.2943,
 742 0937 C7042406 		movl	$6, (%esp)	 #,
 742      000000
 743 093e E8000000 		call	__test_assert	 #
 743      00
 744 0943 84C0     		testb	%al, %al	 # D.2944
 745 0945 7421     		je	L15	 #,
 746              		.loc 1 170 0 is_stmt 0 discriminator 1
 747 0947 A1100200 		movl	LPBX1+528, %eax	 # *LPBX1, PROF_edge_counter.5
 747      00
 748 094c 8B151402 		movl	LPBX1+532, %edx	 # *LPBX1, PROF_edge_counter.5
 748      0000
 749 0952 83C001   		addl	$1, %eax	 #, PROF_edge_counter.5
 750 0955 83D200   		adcl	$0, %edx	 #, PROF_edge_counter.5
 751 0958 A3100200 		movl	%eax, LPBX1+528	 # PROF_edge_counter.5, *LPBX1
 751      00
 752 095d 89151402 		movl	%edx, LPBX1+532	 # PROF_edge_counter.5, *LPBX1
 752      0000
 753 0963 E9AF0200 		jmp	L8	 #
 753      00
 754              	L15:
 755              		.loc 1 170 0
 756 0968 A1080200 		movl	LPBX1+520, %eax	 # *LPBX1, PROF_edge_counter.5
 756      00
 757 096d 8B150C02 		movl	LPBX1+524, %edx	 # *LPBX1, PROF_edge_counter.5
GAS LISTING C:\cygwin\tmp\ccBlkykz.s 			page 20


 757      0000
 758 0973 83C001   		addl	$1, %eax	 #, PROF_edge_counter.5
 759 0976 83D200   		adcl	$0, %edx	 #, PROF_edge_counter.5
 760 0979 A3080200 		movl	%eax, LPBX1+520	 # PROF_edge_counter.5, *LPBX1
 760      00
 761 097e 89150C02 		movl	%edx, LPBX1+524	 # PROF_edge_counter.5, *LPBX1
 761      0000
 762              		.loc 1 175 0 is_stmt 1
 763 0984 E8000000 		call	_test_wait_tick	 #
 763      00
 764              		.loc 1 176 0
 765 0989 A10C0000 		movl	_vtlist+12, %eax	 # vtlist.vt_systime, D.2947
 765      00
 766 098e 05C40900 		addl	$2500, %eax	 #, tmp166
 766      00
 767 0993 89442424 		movl	%eax, 36(%esp)	 # tmp166, target_time
 768              		.loc 1 177 0
 769 0997 C744242C 		movl	$0, 44(%esp)	 #, i
 769      00000000 
 770 099f E99D0100 		jmp	L16	 #
 770      00
 771              	L20:
 772 09a4 A1580200 		movl	LPBX1+600, %eax	 # *LPBX1, PROF_edge_counter.5
 772      00
 773 09a9 8B155C02 		movl	LPBX1+604, %edx	 # *LPBX1, PROF_edge_counter.5
 773      0000
 774 09af 83C001   		addl	$1, %eax	 #, PROF_edge_counter.5
 775 09b2 83D200   		adcl	$0, %edx	 #, PROF_edge_counter.5
 776 09b5 A3580200 		movl	%eax, LPBX1+600	 # PROF_edge_counter.5, *LPBX1
 776      00
 777 09ba 89155C02 		movl	%edx, LPBX1+604	 # PROF_edge_counter.5, *LPBX1
 777      0000
 778              		.loc 1 178 0
 779 09c0 8B44242C 		movl	44(%esp), %eax	 # i, tmp167
 780 09c4 83C041   		addl	$65, %eax	 #, D.2949
 781 09c7 0FBEC0   		movsbl	%al, %eax	 # D.2950, D.2951
 782 09ca 890424   		movl	%eax, (%esp)	 # D.2951,
 783 09cd E8000000 		call	_test_emit_token	 #
 783      00
 784 09d2 A1180200 		movl	LPBX1+536, %eax	 # *LPBX1, PROF_edge_counter.5
 784      00
 785 09d7 8B151C02 		movl	LPBX1+540, %edx	 # *LPBX1, PROF_edge_counter.5
 785      0000
 786 09dd 83C001   		addl	$1, %eax	 #, PROF_edge_counter.5
 787 09e0 83D200   		adcl	$0, %edx	 #, PROF_edge_counter.5
 788 09e3 A3180200 		movl	%eax, LPBX1+536	 # PROF_edge_counter.5, *LPBX1
 788      00
 789 09e8 89151C02 		movl	%edx, LPBX1+540	 # PROF_edge_counter.5, *LPBX1
 789      0000
 790              		.loc 1 179 0
 791 09ee C7442404 		movl	$500, 4(%esp)	 #,
 791      F4010000 
 792 09f6 C7042400 		movl	$_sem1, (%esp)	 #,
 792      000000
 793 09fd E8000000 		call	_chSemWaitTimeout	 #
 793      00
 794 0a02 89442428 		movl	%eax, 40(%esp)	 # tmp168, msg
GAS LISTING C:\cygwin\tmp\ccBlkykz.s 			page 21


 795 0a06 A1200200 		movl	LPBX1+544, %eax	 # *LPBX1, PROF_edge_counter.5
 795      00
 796 0a0b 8B152402 		movl	LPBX1+548, %edx	 # *LPBX1, PROF_edge_counter.5
 796      0000
 797 0a11 83C001   		addl	$1, %eax	 #, PROF_edge_counter.5
 798 0a14 83D200   		adcl	$0, %edx	 #, PROF_edge_counter.5
 799 0a17 A3200200 		movl	%eax, LPBX1+544	 # PROF_edge_counter.5, *LPBX1
 799      00
 800 0a1c 89152402 		movl	%edx, LPBX1+548	 # PROF_edge_counter.5, *LPBX1
 800      0000
 801              		.loc 1 180 0
 802 0a22 837C2428 		cmpl	$-1, 40(%esp)	 #, msg
 802      FF
 803 0a27 0F94C0   		sete	%al	 #, tmp169
 804 0a2a 0FB6C0   		movzbl	%al, %eax	 # tmp169, D.2952
 805 0a2d 89442404 		movl	%eax, 4(%esp)	 # D.2952,
 806 0a31 C7042407 		movl	$7, (%esp)	 #,
 806      000000
 807 0a38 E8000000 		call	__test_assert	 #
 807      00
 808 0a3d 84C0     		testb	%al, %al	 # D.2953
 809 0a3f 7421     		je	L17	 #,
 810              		.loc 1 180 0 is_stmt 0 discriminator 1
 811 0a41 A1300200 		movl	LPBX1+560, %eax	 # *LPBX1, PROF_edge_counter.5
 811      00
 812 0a46 8B153402 		movl	LPBX1+564, %edx	 # *LPBX1, PROF_edge_counter.5
 812      0000
 813 0a4c 83C001   		addl	$1, %eax	 #, PROF_edge_counter.5
 814 0a4f 83D200   		adcl	$0, %edx	 #, PROF_edge_counter.5
 815 0a52 A3300200 		movl	%eax, LPBX1+560	 # PROF_edge_counter.5, *LPBX1
 815      00
 816 0a57 89153402 		movl	%edx, LPBX1+564	 # PROF_edge_counter.5, *LPBX1
 816      0000
 817 0a5d E9B50100 		jmp	L8	 #
 817      00
 818              	L17:
 819              		.loc 1 180 0
 820 0a62 A1280200 		movl	LPBX1+552, %eax	 # *LPBX1, PROF_edge_counter.5
 820      00
 821 0a67 8B152C02 		movl	LPBX1+556, %edx	 # *LPBX1, PROF_edge_counter.5
 821      0000
 822 0a6d 83C001   		addl	$1, %eax	 #, PROF_edge_counter.5
 823 0a70 83D200   		adcl	$0, %edx	 #, PROF_edge_counter.5
 824 0a73 A3280200 		movl	%eax, LPBX1+552	 # PROF_edge_counter.5, *LPBX1
 824      00
 825 0a78 89152C02 		movl	%edx, LPBX1+556	 # PROF_edge_counter.5, *LPBX1
 825      0000
 826              		.loc 1 181 0 is_stmt 1
 827 0a7e A1000000 		movl	_sem1, %eax	 # sem1.s_queue.p_next, D.2956
 827      00
 828 0a83 3D000000 		cmpl	$_sem1, %eax	 #, D.2956
 828      00
 829 0a88 0F94C0   		sete	%al	 #, tmp170
 830 0a8b 0FB6C0   		movzbl	%al, %eax	 # tmp170, D.2957
 831 0a8e 89442404 		movl	%eax, 4(%esp)	 # D.2957,
 832 0a92 C7042408 		movl	$8, (%esp)	 #,
 832      000000
GAS LISTING C:\cygwin\tmp\ccBlkykz.s 			page 22


 833 0a99 E8000000 		call	__test_assert	 #
 833      00
 834 0a9e 84C0     		testb	%al, %al	 # D.2958
 835 0aa0 7421     		je	L18	 #,
 836              		.loc 1 181 0 is_stmt 0 discriminator 1
 837 0aa2 A1400200 		movl	LPBX1+576, %eax	 # *LPBX1, PROF_edge_counter.5
 837      00
 838 0aa7 8B154402 		movl	LPBX1+580, %edx	 # *LPBX1, PROF_edge_counter.5
 838      0000
 839 0aad 83C001   		addl	$1, %eax	 #, PROF_edge_counter.5
 840 0ab0 83D200   		adcl	$0, %edx	 #, PROF_edge_counter.5
 841 0ab3 A3400200 		movl	%eax, LPBX1+576	 # PROF_edge_counter.5, *LPBX1
 841      00
 842 0ab8 89154402 		movl	%edx, LPBX1+580	 # PROF_edge_counter.5, *LPBX1
 842      0000
 843 0abe E9540100 		jmp	L8	 #
 843      00
 844              	L18:
 845              		.loc 1 181 0
 846 0ac3 A1380200 		movl	LPBX1+568, %eax	 # *LPBX1, PROF_edge_counter.5
 846      00
 847 0ac8 8B153C02 		movl	LPBX1+572, %edx	 # *LPBX1, PROF_edge_counter.5
 847      0000
 848 0ace 83C001   		addl	$1, %eax	 #, PROF_edge_counter.5
 849 0ad1 83D200   		adcl	$0, %edx	 #, PROF_edge_counter.5
 850 0ad4 A3380200 		movl	%eax, LPBX1+568	 # PROF_edge_counter.5, *LPBX1
 850      00
 851 0ad9 89153C02 		movl	%edx, LPBX1+572	 # PROF_edge_counter.5, *LPBX1
 851      0000
 852              		.loc 1 182 0 is_stmt 1
 853 0adf A1080000 		movl	_sem1+8, %eax	 # sem1.s_cnt, D.2961
 853      00
 854 0ae4 85C0     		testl	%eax, %eax	 # D.2961
 855 0ae6 0F94C0   		sete	%al	 #, tmp171
 856 0ae9 0FB6C0   		movzbl	%al, %eax	 # tmp171, D.2962
 857 0aec 89442404 		movl	%eax, 4(%esp)	 # D.2962,
 858 0af0 C7042409 		movl	$9, (%esp)	 #,
 858      000000
 859 0af7 E8000000 		call	__test_assert	 #
 859      00
 860 0afc 84C0     		testb	%al, %al	 # D.2963
 861 0afe 7421     		je	L19	 #,
 862              		.loc 1 182 0 is_stmt 0 discriminator 1
 863 0b00 A1480200 		movl	LPBX1+584, %eax	 # *LPBX1, PROF_edge_counter.5
 863      00
 864 0b05 8B154C02 		movl	LPBX1+588, %edx	 # *LPBX1, PROF_edge_counter.5
 864      0000
 865 0b0b 83C001   		addl	$1, %eax	 #, PROF_edge_counter.5
 866 0b0e 83D200   		adcl	$0, %edx	 #, PROF_edge_counter.5
 867 0b11 A3480200 		movl	%eax, LPBX1+584	 # PROF_edge_counter.5, *LPBX1
 867      00
 868 0b16 89154C02 		movl	%edx, LPBX1+588	 # PROF_edge_counter.5, *LPBX1
 868      0000
 869 0b1c E9F60000 		jmp	L8	 #
 869      00
 870              	L19:
 871              		.loc 1 177 0 is_stmt 1
GAS LISTING C:\cygwin\tmp\ccBlkykz.s 			page 23


 872 0b21 FF44242C 		incl	44(%esp)	 # i
 873 0b25 A1500200 		movl	LPBX1+592, %eax	 # *LPBX1, PROF_edge_counter.5
 873      00
 874 0b2a 8B155402 		movl	LPBX1+596, %edx	 # *LPBX1, PROF_edge_counter.5
 874      0000
 875 0b30 83C001   		addl	$1, %eax	 #, PROF_edge_counter.5
 876 0b33 83D200   		adcl	$0, %edx	 #, PROF_edge_counter.5
 877 0b36 A3500200 		movl	%eax, LPBX1+592	 # PROF_edge_counter.5, *LPBX1
 877      00
 878 0b3b 89155402 		movl	%edx, LPBX1+596	 # PROF_edge_counter.5, *LPBX1
 878      0000
 879              	L16:
 880              		.loc 1 177 0 is_stmt 0 discriminator 1
 881 0b41 837C242C 		cmpl	$4, 44(%esp)	 #, i
 881      04
 882 0b46 0F8E58FE 		jle	L20	 #,
 882      FFFF
 883              		.loc 1 177 0
 884 0b4c A1600200 		movl	LPBX1+608, %eax	 # *LPBX1, PROF_edge_counter.5
 884      00
 885 0b51 8B156402 		movl	LPBX1+612, %edx	 # *LPBX1, PROF_edge_counter.5
 885      0000
 886 0b57 83C001   		addl	$1, %eax	 #, PROF_edge_counter.5
 887 0b5a 83D200   		adcl	$0, %edx	 #, PROF_edge_counter.5
 888 0b5d A3600200 		movl	%eax, LPBX1+608	 # PROF_edge_counter.5, *LPBX1
 888      00
 889 0b62 89156402 		movl	%edx, LPBX1+612	 # PROF_edge_counter.5, *LPBX1
 889      0000
 890              		.loc 1 184 0 is_stmt 1
 891 0b68 C7442404 		movl	$LC5, 4(%esp)	 #,
 891      0A000000 
 892 0b70 C704240A 		movl	$10, (%esp)	 #,
 892      000000
 893 0b77 E8000000 		call	__test_assert_sequence	 #
 893      00
 894 0b7c 84C0     		testb	%al, %al	 # D.2966
 895 0b7e 741E     		je	L21	 #,
 896              		.loc 1 184 0 is_stmt 0 discriminator 1
 897 0b80 A1700200 		movl	LPBX1+624, %eax	 # *LPBX1, PROF_edge_counter.5
 897      00
 898 0b85 8B157402 		movl	LPBX1+628, %edx	 # *LPBX1, PROF_edge_counter.5
 898      0000
 899 0b8b 83C001   		addl	$1, %eax	 #, PROF_edge_counter.5
 900 0b8e 83D200   		adcl	$0, %edx	 #, PROF_edge_counter.5
 901 0b91 A3700200 		movl	%eax, LPBX1+624	 # PROF_edge_counter.5, *LPBX1
 901      00
 902 0b96 89157402 		movl	%edx, LPBX1+628	 # PROF_edge_counter.5, *LPBX1
 902      0000
 903 0b9c EB79     		jmp	L8	 #
 904              	L21:
 905              		.loc 1 184 0
 906 0b9e A1680200 		movl	LPBX1+616, %eax	 # *LPBX1, PROF_edge_counter.5
 906      00
 907 0ba3 8B156C02 		movl	LPBX1+620, %edx	 # *LPBX1, PROF_edge_counter.5
 907      0000
 908 0ba9 83C001   		addl	$1, %eax	 #, PROF_edge_counter.5
 909 0bac 83D200   		adcl	$0, %edx	 #, PROF_edge_counter.5
GAS LISTING C:\cygwin\tmp\ccBlkykz.s 			page 24


 910 0baf A3680200 		movl	%eax, LPBX1+616	 # PROF_edge_counter.5, *LPBX1
 910      00
 911 0bb4 89156C02 		movl	%edx, LPBX1+620	 # PROF_edge_counter.5, *LPBX1
 911      0000
 912              		.loc 1 185 0 is_stmt 1
 913 0bba 8B442424 		movl	36(%esp), %eax	 # target_time, tmp172
 914 0bbe 83C005   		addl	$5, %eax	 #, D.2969
 915 0bc1 89442408 		movl	%eax, 8(%esp)	 # D.2969,
 916 0bc5 8B442424 		movl	36(%esp), %eax	 # target_time, tmp173
 917 0bc9 89442404 		movl	%eax, 4(%esp)	 # tmp173,
 918 0bcd C704240B 		movl	$11, (%esp)	 #,
 918      000000
 919 0bd4 E8000000 		call	__test_assert_time_window	 #
 919      00
 920 0bd9 88C1     		movb	%al, %cl	 #, D.2970
 921 0bdb A1780200 		movl	LPBX1+632, %eax	 # *LPBX1, PROF_edge_counter.5
 921      00
 922 0be0 8B157C02 		movl	LPBX1+636, %edx	 # *LPBX1, PROF_edge_counter.5
 922      0000
 923 0be6 83C001   		addl	$1, %eax	 #, PROF_edge_counter.5
 924 0be9 83D200   		adcl	$0, %edx	 #, PROF_edge_counter.5
 925 0bec A3780200 		movl	%eax, LPBX1+632	 # PROF_edge_counter.5, *LPBX1
 925      00
 926 0bf1 89157C02 		movl	%edx, LPBX1+636	 # PROF_edge_counter.5, *LPBX1
 926      0000
 927 0bf7 84C9     		testb	%cl, %cl	 # D.2970
 928 0bf9 741C     		je	L8	 #,
 929              		.loc 1 185 0 is_stmt 0 discriminator 1
 930 0bfb A1800200 		movl	LPBX1+640, %eax	 # *LPBX1, PROF_edge_counter.5
 930      00
 931 0c00 8B158402 		movl	LPBX1+644, %edx	 # *LPBX1, PROF_edge_counter.5
 931      0000
 932 0c06 83C001   		addl	$1, %eax	 #, PROF_edge_counter.5
 933 0c09 83D200   		adcl	$0, %edx	 #, PROF_edge_counter.5
 934 0c0c A3800200 		movl	%eax, LPBX1+640	 # PROF_edge_counter.5, *LPBX1
 934      00
 935 0c11 89158402 		movl	%edx, LPBX1+644	 # PROF_edge_counter.5, *LPBX1
 935      0000
 936              	L8:
 937              		.loc 1 186 0 is_stmt 1
 938 0c17 83C43C   		addl	$60, %esp	 #,
 939              	LCFI11:
 940              		.cfi_def_cfa_offset 4
 941 0c1a C3       		ret
 942              		.cfi_endproc
 943              	LFE5:
 944              		.globl	_testsem2
 945              		.section .rdata,"dr"
 946              	LC7:
 947 0038 53656D61 		.ascii "Semaphores, timeout\0"
 947      70686F72 
 947      65732C20 
 947      74696D65 
 947      6F757400 
 948              		.align 4
 949              	_testsem2:
 950              	 # name:
GAS LISTING C:\cygwin\tmp\ccBlkykz.s 			page 25


 951 004c 38000000 		.long	LC7
 952              	 # setup:
 953 0050 28050000 		.long	_sem2_setup
 954              	 # teardown:
 955 0054 00000000 		.long	0
 956              	 # execute:
 957 0058 4E060000 		.long	_sem2_execute
 958              		.text
 959              		.def	_sem3_setup;	.scl	3;	.type	32;	.endef
 960              	_sem3_setup:
 961              	LFB6:
 962              		.loc 1 208 0
 963              		.cfi_startproc
 964 0c1b 83EC1C   		subl	$28, %esp	 #,
 965              	LCFI12:
 966              		.cfi_def_cfa_offset 32
 967              		.loc 1 208 0
 968 0c1e A1800100 		movl	LPBX1+384, %eax	 # *LPBX1, PROF_edge_counter.4
 968      00
 969 0c23 8B158401 		movl	LPBX1+388, %edx	 # *LPBX1, PROF_edge_counter.4
 969      0000
 970 0c29 83C001   		addl	$1, %eax	 #, PROF_edge_counter.4
 971 0c2c 83D200   		adcl	$0, %edx	 #, PROF_edge_counter.4
 972 0c2f A3800100 		movl	%eax, LPBX1+384	 # PROF_edge_counter.4, *LPBX1
 972      00
 973 0c34 89158401 		movl	%edx, LPBX1+388	 # PROF_edge_counter.4, *LPBX1
 973      0000
 974              		.loc 1 210 0
 975 0c3a C7442404 		movl	$0, 4(%esp)	 #,
 975      00000000 
 976 0c42 C7042400 		movl	$_sem1, (%esp)	 #,
 976      000000
 977 0c49 E8000000 		call	_chSemInit	 #
 977      00
 978 0c4e A1880100 		movl	LPBX1+392, %eax	 # *LPBX1, PROF_edge_counter.4
 978      00
 979 0c53 8B158C01 		movl	LPBX1+396, %edx	 # *LPBX1, PROF_edge_counter.4
 979      0000
 980 0c59 83C001   		addl	$1, %eax	 #, PROF_edge_counter.4
 981 0c5c 83D200   		adcl	$0, %edx	 #, PROF_edge_counter.4
 982 0c5f A3880100 		movl	%eax, LPBX1+392	 # PROF_edge_counter.4, *LPBX1
 982      00
 983 0c64 89158C01 		movl	%edx, LPBX1+396	 # PROF_edge_counter.4, *LPBX1
 983      0000
 984              		.loc 1 211 0
 985 0c6a 83C41C   		addl	$28, %esp	 #,
 986              	LCFI13:
 987              		.cfi_def_cfa_offset 4
 988 0c6d C3       		ret
 989              		.cfi_endproc
 990              	LFE6:
 991              		.def	_thread3;	.scl	3;	.type	32;	.endef
 992              	_thread3:
 993              	LFB7:
 994              		.loc 1 213 0
 995              		.cfi_startproc
 996 0c6e 83EC1C   		subl	$28, %esp	 #,
GAS LISTING C:\cygwin\tmp\ccBlkykz.s 			page 26


 997              	LCFI14:
 998              		.cfi_def_cfa_offset 32
 999              		.loc 1 213 0
 1000 0c71 A1680100 		movl	LPBX1+360, %eax	 # *LPBX1, PROF_edge_counter.3
 1000      00
 1001 0c76 8B156C01 		movl	LPBX1+364, %edx	 # *LPBX1, PROF_edge_counter.3
 1001      0000
 1002 0c7c 83C001   		addl	$1, %eax	 #, PROF_edge_counter.3
 1003 0c7f 83D200   		adcl	$0, %edx	 #, PROF_edge_counter.3
 1004 0c82 A3680100 		movl	%eax, LPBX1+360	 # PROF_edge_counter.3, *LPBX1
 1004      00
 1005 0c87 89156C01 		movl	%edx, LPBX1+364	 # PROF_edge_counter.3, *LPBX1
 1005      0000
 1006              		.loc 1 216 0
 1007 0c8d C7042400 		movl	$_sem1, (%esp)	 #,
 1007      000000
 1008 0c94 E8000000 		call	_chSemWait	 #
 1008      00
 1009 0c99 A1700100 		movl	LPBX1+368, %eax	 # *LPBX1, PROF_edge_counter.3
 1009      00
 1010 0c9e 8B157401 		movl	LPBX1+372, %edx	 # *LPBX1, PROF_edge_counter.3
 1010      0000
 1011 0ca4 83C001   		addl	$1, %eax	 #, PROF_edge_counter.3
 1012 0ca7 83D200   		adcl	$0, %edx	 #, PROF_edge_counter.3
 1013 0caa A3700100 		movl	%eax, LPBX1+368	 # PROF_edge_counter.3, *LPBX1
 1013      00
 1014 0caf 89157401 		movl	%edx, LPBX1+372	 # PROF_edge_counter.3, *LPBX1
 1014      0000
 1015              		.loc 1 217 0
 1016 0cb5 C7042400 		movl	$_sem1, (%esp)	 #,
 1016      000000
 1017 0cbc E8000000 		call	_chSemSignal	 #
 1017      00
 1018 0cc1 A1780100 		movl	LPBX1+376, %eax	 # *LPBX1, PROF_edge_counter.3
 1018      00
 1019 0cc6 8B157C01 		movl	LPBX1+380, %edx	 # *LPBX1, PROF_edge_counter.3
 1019      0000
 1020 0ccc 83C001   		addl	$1, %eax	 #, PROF_edge_counter.3
 1021 0ccf 83D200   		adcl	$0, %edx	 #, PROF_edge_counter.3
 1022 0cd2 A3780100 		movl	%eax, LPBX1+376	 # PROF_edge_counter.3, *LPBX1
 1022      00
 1023 0cd7 89157C01 		movl	%edx, LPBX1+380	 # PROF_edge_counter.3, *LPBX1
 1023      0000
 1024              		.loc 1 218 0
 1025 0cdd B8000000 		movl	$0, %eax	 #, D.2912
 1025      00
 1026              		.loc 1 219 0
 1027 0ce2 83C41C   		addl	$28, %esp	 #,
 1028              	LCFI15:
 1029              		.cfi_def_cfa_offset 4
 1030 0ce5 C3       		ret
 1031              		.cfi_endproc
 1032              	LFE7:
 1033              		.def	_sem3_execute;	.scl	3;	.type	32;	.endef
 1034              	_sem3_execute:
 1035              	LFB8:
 1036              		.loc 1 221 0
GAS LISTING C:\cygwin\tmp\ccBlkykz.s 			page 27


 1037              		.cfi_startproc
 1038 0ce6 83EC2C   		subl	$44, %esp	 #,
 1039              	LCFI16:
 1040              		.cfi_def_cfa_offset 48
 1041              		.loc 1 221 0
 1042 0ce9 A1080100 		movl	LPBX1+264, %eax	 # *LPBX1, PROF_edge_counter.2
 1042      00
 1043 0cee 8B150C01 		movl	LPBX1+268, %edx	 # *LPBX1, PROF_edge_counter.2
 1043      0000
 1044 0cf4 83C001   		addl	$1, %eax	 #, PROF_edge_counter.2
 1045 0cf7 83D200   		adcl	$0, %edx	 #, PROF_edge_counter.2
 1046 0cfa A3080100 		movl	%eax, LPBX1+264	 # PROF_edge_counter.2, *LPBX1
 1046      00
 1047 0cff 89150C01 		movl	%edx, LPBX1+268	 # PROF_edge_counter.2, *LPBX1
 1047      0000
 1048              		.loc 1 223 0
 1049 0d05 A1180000 		movl	_rlist+24, %eax	 # rlist.r_current, D.2886
 1049      00
 1050 0d0a 8B4008   		movl	8(%eax), %eax	 # D.2886_1->p_prio, D.2887
 1051 0d0d 8D5001   		leal	1(%eax), %edx	 #, D.2888
 1052 0d10 A1000000 		movl	_wa, %eax	 # wa, D.2889
 1052      00
 1053 0d15 C7442410 		movl	$0, 16(%esp)	 #,
 1053      00000000 
 1054 0d1d C744240C 		movl	$_thread3, 12(%esp)	 #,
 1054      6E0C0000 
 1055 0d25 89542408 		movl	%edx, 8(%esp)	 # D.2888,
 1056 0d29 C7442404 		movl	$17008, 4(%esp)	 #,
 1056      70420000 
 1057 0d31 890424   		movl	%eax, (%esp)	 # D.2889,
 1058 0d34 E8000000 		call	_chThdCreateStatic	 #
 1058      00
 1059 0d39 89C1     		movl	%eax, %ecx	 #, D.2890
 1060 0d3b A1100100 		movl	LPBX1+272, %eax	 # *LPBX1, PROF_edge_counter.2
 1060      00
 1061 0d40 8B151401 		movl	LPBX1+276, %edx	 # *LPBX1, PROF_edge_counter.2
 1061      0000
 1062 0d46 83C001   		addl	$1, %eax	 #, PROF_edge_counter.2
 1063 0d49 83D200   		adcl	$0, %edx	 #, PROF_edge_counter.2
 1064 0d4c A3100100 		movl	%eax, LPBX1+272	 # PROF_edge_counter.2, *LPBX1
 1064      00
 1065 0d51 89151401 		movl	%edx, LPBX1+276	 # PROF_edge_counter.2, *LPBX1
 1065      0000
 1066 0d57 890D0000 		movl	%ecx, _threads	 # D.2890, threads
 1066      0000
 1067              		.loc 1 224 0
 1068 0d5d C7442404 		movl	$_sem1, 4(%esp)	 #,
 1068      00000000 
 1069 0d65 C7042400 		movl	$_sem1, (%esp)	 #,
 1069      000000
 1070 0d6c E8000000 		call	_chSemSignalWait	 #
 1070      00
 1071 0d71 A1180100 		movl	LPBX1+280, %eax	 # *LPBX1, PROF_edge_counter.2
 1071      00
 1072 0d76 8B151C01 		movl	LPBX1+284, %edx	 # *LPBX1, PROF_edge_counter.2
 1072      0000
 1073 0d7c 83C001   		addl	$1, %eax	 #, PROF_edge_counter.2
GAS LISTING C:\cygwin\tmp\ccBlkykz.s 			page 28


 1074 0d7f 83D200   		adcl	$0, %edx	 #, PROF_edge_counter.2
 1075 0d82 A3180100 		movl	%eax, LPBX1+280	 # PROF_edge_counter.2, *LPBX1
 1075      00
 1076 0d87 89151C01 		movl	%edx, LPBX1+284	 # PROF_edge_counter.2, *LPBX1
 1076      0000
 1077              		.loc 1 225 0
 1078 0d8d A1000000 		movl	_sem1, %eax	 # sem1.s_queue.p_next, D.2891
 1078      00
 1079 0d92 3D000000 		cmpl	$_sem1, %eax	 #, D.2891
 1079      00
 1080 0d97 0F94C0   		sete	%al	 #, tmp100
 1081 0d9a 0FB6C0   		movzbl	%al, %eax	 # tmp100, D.2892
 1082 0d9d 89442404 		movl	%eax, 4(%esp)	 # D.2892,
 1083 0da1 C7042401 		movl	$1, (%esp)	 #,
 1083      000000
 1084 0da8 E8000000 		call	__test_assert	 #
 1084      00
 1085 0dad 84C0     		testb	%al, %al	 # D.2893
 1086 0daf 7421     		je	L25	 #,
 1087              		.loc 1 225 0 is_stmt 0 discriminator 1
 1088 0db1 A1280100 		movl	LPBX1+296, %eax	 # *LPBX1, PROF_edge_counter.2
 1088      00
 1089 0db6 8B152C01 		movl	LPBX1+300, %edx	 # *LPBX1, PROF_edge_counter.2
 1089      0000
 1090 0dbc 83C001   		addl	$1, %eax	 #, PROF_edge_counter.2
 1091 0dbf 83D200   		adcl	$0, %edx	 #, PROF_edge_counter.2
 1092 0dc2 A3280100 		movl	%eax, LPBX1+296	 # PROF_edge_counter.2, *LPBX1
 1092      00
 1093 0dc7 89152C01 		movl	%edx, LPBX1+300	 # PROF_edge_counter.2, *LPBX1
 1093      0000
 1094 0dcd E9630100 		jmp	L24	 #
 1094      00
 1095              	L25:
 1096              		.loc 1 225 0
 1097 0dd2 A1200100 		movl	LPBX1+288, %eax	 # *LPBX1, PROF_edge_counter.2
 1097      00
 1098 0dd7 8B152401 		movl	LPBX1+292, %edx	 # *LPBX1, PROF_edge_counter.2
 1098      0000
 1099 0ddd 83C001   		addl	$1, %eax	 #, PROF_edge_counter.2
 1100 0de0 83D200   		adcl	$0, %edx	 #, PROF_edge_counter.2
 1101 0de3 A3200100 		movl	%eax, LPBX1+288	 # PROF_edge_counter.2, *LPBX1
 1101      00
 1102 0de8 89152401 		movl	%edx, LPBX1+292	 # PROF_edge_counter.2, *LPBX1
 1102      0000
 1103              		.loc 1 226 0 is_stmt 1
 1104 0dee A1080000 		movl	_sem1+8, %eax	 # sem1.s_cnt, D.2896
 1104      00
 1105 0df3 85C0     		testl	%eax, %eax	 # D.2896
 1106 0df5 0F94C0   		sete	%al	 #, tmp101
 1107 0df8 0FB6C0   		movzbl	%al, %eax	 # tmp101, D.2897
 1108 0dfb 89442404 		movl	%eax, 4(%esp)	 # D.2897,
 1109 0dff C7042402 		movl	$2, (%esp)	 #,
 1109      000000
 1110 0e06 E8000000 		call	__test_assert	 #
 1110      00
 1111 0e0b 84C0     		testb	%al, %al	 # D.2898
 1112 0e0d 7421     		je	L27	 #,
GAS LISTING C:\cygwin\tmp\ccBlkykz.s 			page 29


 1113              		.loc 1 226 0 is_stmt 0 discriminator 1
 1114 0e0f A1380100 		movl	LPBX1+312, %eax	 # *LPBX1, PROF_edge_counter.2
 1114      00
 1115 0e14 8B153C01 		movl	LPBX1+316, %edx	 # *LPBX1, PROF_edge_counter.2
 1115      0000
 1116 0e1a 83C001   		addl	$1, %eax	 #, PROF_edge_counter.2
 1117 0e1d 83D200   		adcl	$0, %edx	 #, PROF_edge_counter.2
 1118 0e20 A3380100 		movl	%eax, LPBX1+312	 # PROF_edge_counter.2, *LPBX1
 1118      00
 1119 0e25 89153C01 		movl	%edx, LPBX1+316	 # PROF_edge_counter.2, *LPBX1
 1119      0000
 1120 0e2b E9050100 		jmp	L24	 #
 1120      00
 1121              	L27:
 1122              		.loc 1 226 0
 1123 0e30 A1300100 		movl	LPBX1+304, %eax	 # *LPBX1, PROF_edge_counter.2
 1123      00
 1124 0e35 8B153401 		movl	LPBX1+308, %edx	 # *LPBX1, PROF_edge_counter.2
 1124      0000
 1125 0e3b 83C001   		addl	$1, %eax	 #, PROF_edge_counter.2
 1126 0e3e 83D200   		adcl	$0, %edx	 #, PROF_edge_counter.2
 1127 0e41 A3300100 		movl	%eax, LPBX1+304	 # PROF_edge_counter.2, *LPBX1
 1127      00
 1128 0e46 89153401 		movl	%edx, LPBX1+308	 # PROF_edge_counter.2, *LPBX1
 1128      0000
 1129              		.loc 1 228 0 is_stmt 1
 1130 0e4c C7442404 		movl	$_sem1, 4(%esp)	 #,
 1130      00000000 
 1131 0e54 C7042400 		movl	$_sem1, (%esp)	 #,
 1131      000000
 1132 0e5b E8000000 		call	_chSemSignalWait	 #
 1132      00
 1133 0e60 A1400100 		movl	LPBX1+320, %eax	 # *LPBX1, PROF_edge_counter.2
 1133      00
 1134 0e65 8B154401 		movl	LPBX1+324, %edx	 # *LPBX1, PROF_edge_counter.2
 1134      0000
 1135 0e6b 83C001   		addl	$1, %eax	 #, PROF_edge_counter.2
 1136 0e6e 83D200   		adcl	$0, %edx	 #, PROF_edge_counter.2
 1137 0e71 A3400100 		movl	%eax, LPBX1+320	 # PROF_edge_counter.2, *LPBX1
 1137      00
 1138 0e76 89154401 		movl	%edx, LPBX1+324	 # PROF_edge_counter.2, *LPBX1
 1138      0000
 1139              		.loc 1 229 0
 1140 0e7c A1000000 		movl	_sem1, %eax	 # sem1.s_queue.p_next, D.2901
 1140      00
 1141 0e81 3D000000 		cmpl	$_sem1, %eax	 #, D.2901
 1141      00
 1142 0e86 0F94C0   		sete	%al	 #, tmp102
 1143 0e89 0FB6C0   		movzbl	%al, %eax	 # tmp102, D.2902
 1144 0e8c 89442404 		movl	%eax, 4(%esp)	 # D.2902,
 1145 0e90 C7042403 		movl	$3, (%esp)	 #,
 1145      000000
 1146 0e97 E8000000 		call	__test_assert	 #
 1146      00
 1147 0e9c 84C0     		testb	%al, %al	 # D.2903
 1148 0e9e 741E     		je	L28	 #,
 1149              		.loc 1 229 0 is_stmt 0 discriminator 1
GAS LISTING C:\cygwin\tmp\ccBlkykz.s 			page 30


 1150 0ea0 A1500100 		movl	LPBX1+336, %eax	 # *LPBX1, PROF_edge_counter.2
 1150      00
 1151 0ea5 8B155401 		movl	LPBX1+340, %edx	 # *LPBX1, PROF_edge_counter.2
 1151      0000
 1152 0eab 83C001   		addl	$1, %eax	 #, PROF_edge_counter.2
 1153 0eae 83D200   		adcl	$0, %edx	 #, PROF_edge_counter.2
 1154 0eb1 A3500100 		movl	%eax, LPBX1+336	 # PROF_edge_counter.2, *LPBX1
 1154      00
 1155 0eb6 89155401 		movl	%edx, LPBX1+340	 # PROF_edge_counter.2, *LPBX1
 1155      0000
 1156 0ebc EB77     		jmp	L24	 #
 1157              	L28:
 1158              		.loc 1 229 0
 1159 0ebe A1480100 		movl	LPBX1+328, %eax	 # *LPBX1, PROF_edge_counter.2
 1159      00
 1160 0ec3 8B154C01 		movl	LPBX1+332, %edx	 # *LPBX1, PROF_edge_counter.2
 1160      0000
 1161 0ec9 83C001   		addl	$1, %eax	 #, PROF_edge_counter.2
 1162 0ecc 83D200   		adcl	$0, %edx	 #, PROF_edge_counter.2
 1163 0ecf A3480100 		movl	%eax, LPBX1+328	 # PROF_edge_counter.2, *LPBX1
 1163      00
 1164 0ed4 89154C01 		movl	%edx, LPBX1+332	 # PROF_edge_counter.2, *LPBX1
 1164      0000
 1165              		.loc 1 230 0 is_stmt 1
 1166 0eda A1080000 		movl	_sem1+8, %eax	 # sem1.s_cnt, D.2906
 1166      00
 1167 0edf 85C0     		testl	%eax, %eax	 # D.2906
 1168 0ee1 0F94C0   		sete	%al	 #, tmp103
 1169 0ee4 0FB6C0   		movzbl	%al, %eax	 # tmp103, D.2907
 1170 0ee7 89442404 		movl	%eax, 4(%esp)	 # D.2907,
 1171 0eeb C7042404 		movl	$4, (%esp)	 #,
 1171      000000
 1172 0ef2 E8000000 		call	__test_assert	 #
 1172      00
 1173 0ef7 88C1     		movb	%al, %cl	 #, D.2908
 1174 0ef9 A1580100 		movl	LPBX1+344, %eax	 # *LPBX1, PROF_edge_counter.2
 1174      00
 1175 0efe 8B155C01 		movl	LPBX1+348, %edx	 # *LPBX1, PROF_edge_counter.2
 1175      0000
 1176 0f04 83C001   		addl	$1, %eax	 #, PROF_edge_counter.2
 1177 0f07 83D200   		adcl	$0, %edx	 #, PROF_edge_counter.2
 1178 0f0a A3580100 		movl	%eax, LPBX1+344	 # PROF_edge_counter.2, *LPBX1
 1178      00
 1179 0f0f 89155C01 		movl	%edx, LPBX1+348	 # PROF_edge_counter.2, *LPBX1
 1179      0000
 1180 0f15 84C9     		testb	%cl, %cl	 # D.2908
 1181 0f17 741C     		je	L24	 #,
 1182              		.loc 1 230 0 is_stmt 0 discriminator 1
 1183 0f19 A1600100 		movl	LPBX1+352, %eax	 # *LPBX1, PROF_edge_counter.2
 1183      00
 1184 0f1e 8B156401 		movl	LPBX1+356, %edx	 # *LPBX1, PROF_edge_counter.2
 1184      0000
 1185 0f24 83C001   		addl	$1, %eax	 #, PROF_edge_counter.2
 1186 0f27 83D200   		adcl	$0, %edx	 #, PROF_edge_counter.2
 1187 0f2a A3600100 		movl	%eax, LPBX1+352	 # PROF_edge_counter.2, *LPBX1
 1187      00
 1188 0f2f 89156401 		movl	%edx, LPBX1+356	 # PROF_edge_counter.2, *LPBX1
GAS LISTING C:\cygwin\tmp\ccBlkykz.s 			page 31


 1188      0000
 1189              	L24:
 1190              		.loc 1 231 0 is_stmt 1
 1191 0f35 83C42C   		addl	$44, %esp	 #,
 1192              	LCFI17:
 1193              		.cfi_def_cfa_offset 4
 1194 0f38 C3       		ret
 1195              		.cfi_endproc
 1196              	LFE8:
 1197              		.globl	_testsem3
 1198              		.section .rdata,"dr"
 1199              		.align 4
 1200              	LC8:
 1201 005c 53656D61 		.ascii "Semaphores, atomic signal-wait\0"
 1201      70686F72 
 1201      65732C20 
 1201      61746F6D 
 1201      69632073 
 1202 007b 00       		.align 4
 1203              	_testsem3:
 1204              	 # name:
 1205 007c 5C000000 		.long	LC8
 1206              	 # setup:
 1207 0080 1B0C0000 		.long	_sem3_setup
 1208              	 # teardown:
 1209 0084 00000000 		.long	0
 1210              	 # execute:
 1211 0088 E60C0000 		.long	_sem3_execute
 1212              		.text
 1213              		.def	_thread4;	.scl	3;	.type	32;	.endef
 1214              	_thread4:
 1215              	LFB9:
 1216              		.loc 1 249 0
 1217              		.cfi_startproc
 1218 0f39 83EC1C   		subl	$28, %esp	 #,
 1219              	LCFI18:
 1220              		.cfi_def_cfa_offset 32
 1221              		.loc 1 249 0
 1222 0f3c A1D80000 		movl	LPBX1+216, %eax	 # *LPBX1, PROF_edge_counter.1
 1222      00
 1223 0f41 8B15DC00 		movl	LPBX1+220, %edx	 # *LPBX1, PROF_edge_counter.1
 1223      0000
 1224 0f47 83C001   		addl	$1, %eax	 #, PROF_edge_counter.1
 1225 0f4a 83D200   		adcl	$0, %edx	 #, PROF_edge_counter.1
 1226 0f4d A3D80000 		movl	%eax, LPBX1+216	 # PROF_edge_counter.1, *LPBX1
 1226      00
 1227 0f52 8915DC00 		movl	%edx, LPBX1+220	 # PROF_edge_counter.1, *LPBX1
 1227      0000
 1228              		.loc 1 251 0
 1229              	/APP
 1230              	 # 251 "../../test/testsem.c" 1
 1231 0f58 90       		nop
 1232              	 # 0 "" 2
 1233              	/NO_APP
 1234 0f59 A1E00000 		movl	LPBX1+224, %eax	 # *LPBX1, PROF_edge_counter.1
 1234      00
 1235 0f5e 8B15E400 		movl	LPBX1+228, %edx	 # *LPBX1, PROF_edge_counter.1
GAS LISTING C:\cygwin\tmp\ccBlkykz.s 			page 32


 1235      0000
 1236 0f64 83C001   		addl	$1, %eax	 #, PROF_edge_counter.1
 1237 0f67 83D200   		adcl	$0, %edx	 #, PROF_edge_counter.1
 1238 0f6a A3E00000 		movl	%eax, LPBX1+224	 # PROF_edge_counter.1, *LPBX1
 1238      00
 1239 0f6f 8915E400 		movl	%edx, LPBX1+228	 # PROF_edge_counter.1, *LPBX1
 1239      0000
 1240 0f75 8B442420 		movl	32(%esp), %eax	 # p, tmp75
 1241 0f79 8B4008   		movl	8(%eax), %eax	 # MEM[(struct BinarySemaphore *)p_1(D)].bs_sem.s_cnt, D.2880
 1242 0f7c 85C0     		testl	%eax, %eax	 # D.2880
 1243 0f7e 7F44     		jg	L30	 #,
 1244              		.loc 1 251 0 is_stmt 0 discriminator 1
 1245 0f80 A1E80000 		movl	LPBX1+232, %eax	 # *LPBX1, PROF_edge_counter.1
 1245      00
 1246 0f85 8B15EC00 		movl	LPBX1+236, %edx	 # *LPBX1, PROF_edge_counter.1
 1246      0000
 1247 0f8b 83C001   		addl	$1, %eax	 #, PROF_edge_counter.1
 1248 0f8e 83D200   		adcl	$0, %edx	 #, PROF_edge_counter.1
 1249 0f91 A3E80000 		movl	%eax, LPBX1+232	 # PROF_edge_counter.1, *LPBX1
 1249      00
 1250 0f96 8915EC00 		movl	%edx, LPBX1+236	 # PROF_edge_counter.1, *LPBX1
 1250      0000
 1251 0f9c 8B442420 		movl	32(%esp), %eax	 # p, D.2883
 1252 0fa0 890424   		movl	%eax, (%esp)	 # D.2883,
 1253 0fa3 E8000000 		call	_chSemSignalI	 #
 1253      00
 1254 0fa8 A1F00000 		movl	LPBX1+240, %eax	 # *LPBX1, PROF_edge_counter.1
 1254      00
 1255 0fad 8B15F400 		movl	LPBX1+244, %edx	 # *LPBX1, PROF_edge_counter.1
 1255      0000
 1256 0fb3 83C001   		addl	$1, %eax	 #, PROF_edge_counter.1
 1257 0fb6 83D200   		adcl	$0, %edx	 #, PROF_edge_counter.1
 1258 0fb9 A3F00000 		movl	%eax, LPBX1+240	 # PROF_edge_counter.1, *LPBX1
 1258      00
 1259 0fbe 8915F400 		movl	%edx, LPBX1+244	 # PROF_edge_counter.1, *LPBX1
 1259      0000
 1260              	L30:
 1261              		.loc 1 251 0 discriminator 2
 1262 0fc4 E8000000 		call	_chSchRescheduleS	 #
 1262      00
 1263 0fc9 A1F80000 		movl	LPBX1+248, %eax	 # *LPBX1, PROF_edge_counter.1
 1263      00
 1264 0fce 8B15FC00 		movl	LPBX1+252, %edx	 # *LPBX1, PROF_edge_counter.1
 1264      0000
 1265 0fd4 83C001   		addl	$1, %eax	 #, PROF_edge_counter.1
 1266 0fd7 83D200   		adcl	$0, %edx	 #, PROF_edge_counter.1
 1267 0fda A3F80000 		movl	%eax, LPBX1+248	 # PROF_edge_counter.1, *LPBX1
 1267      00
 1268 0fdf 8915FC00 		movl	%edx, LPBX1+252	 # PROF_edge_counter.1, *LPBX1
 1268      0000
 1269              	/APP
 1270              	 # 251 "../../test/testsem.c" 1
 1271 0fe5 90       		nop
 1272              	 # 0 "" 2
 1273              	/NO_APP
 1274 0fe6 A1000100 		movl	LPBX1+256, %eax	 # *LPBX1, PROF_edge_counter.1
 1274      00
GAS LISTING C:\cygwin\tmp\ccBlkykz.s 			page 33


 1275 0feb 8B150401 		movl	LPBX1+260, %edx	 # *LPBX1, PROF_edge_counter.1
 1275      0000
 1276 0ff1 83C001   		addl	$1, %eax	 #, PROF_edge_counter.1
 1277 0ff4 83D200   		adcl	$0, %edx	 #, PROF_edge_counter.1
 1278 0ff7 A3000100 		movl	%eax, LPBX1+256	 # PROF_edge_counter.1, *LPBX1
 1278      00
 1279 0ffc 89150401 		movl	%edx, LPBX1+260	 # PROF_edge_counter.1, *LPBX1
 1279      0000
 1280              		.loc 1 252 0 is_stmt 1 discriminator 2
 1281 1002 B8000000 		movl	$0, %eax	 #, D.2884
 1281      00
 1282              		.loc 1 253 0 discriminator 2
 1283 1007 83C41C   		addl	$28, %esp	 #,
 1284              	LCFI19:
 1285              		.cfi_def_cfa_offset 4
 1286 100a C3       		ret
 1287              		.cfi_endproc
 1288              	LFE9:
 1289              		.def	_sem4_execute;	.scl	3;	.type	32;	.endef
 1290              	_sem4_execute:
 1291              	LFB10:
 1292              		.loc 1 255 0
 1293              		.cfi_startproc
 1294 100b 83EC3C   		subl	$60, %esp	 #,
 1295              	LCFI20:
 1296              		.cfi_def_cfa_offset 64
 1297              		.loc 1 255 0
 1298 100e A1000000 		movl	LPBX1, %eax	 # *LPBX1, PROF_edge_counter.0
 1298      00
 1299 1013 8B150400 		movl	LPBX1+4, %edx	 # *LPBX1, PROF_edge_counter.0
 1299      0000
 1300 1019 83C001   		addl	$1, %eax	 #, PROF_edge_counter.0
 1301 101c 83D200   		adcl	$0, %edx	 #, PROF_edge_counter.0
 1302 101f A3000000 		movl	%eax, LPBX1	 # PROF_edge_counter.0, *LPBX1
 1302      00
 1303 1024 89150400 		movl	%edx, LPBX1+4	 # PROF_edge_counter.0, *LPBX1
 1303      0000
 1304              		.loc 1 259 0
 1305 102a C7442404 		movl	$0, 4(%esp)	 #,
 1305      00000000 
 1306 1032 8D442424 		leal	36(%esp), %eax	 #, tmp138
 1307 1036 890424   		movl	%eax, (%esp)	 # tmp138,
 1308 1039 E8000000 		call	_chSemInit	 #
 1308      00
 1309 103e A1080000 		movl	LPBX1+8, %eax	 # *LPBX1, PROF_edge_counter.0
 1309      00
 1310 1043 8B150C00 		movl	LPBX1+12, %edx	 # *LPBX1, PROF_edge_counter.0
 1310      0000
 1311 1049 83C001   		addl	$1, %eax	 #, PROF_edge_counter.0
 1312 104c 83D200   		adcl	$0, %edx	 #, PROF_edge_counter.0
 1313 104f A3080000 		movl	%eax, LPBX1+8	 # PROF_edge_counter.0, *LPBX1
 1313      00
 1314 1054 89150C00 		movl	%edx, LPBX1+12	 # PROF_edge_counter.0, *LPBX1
 1314      0000
 1315              		.loc 1 260 0
 1316 105a C7442404 		movl	$0, 4(%esp)	 #,
 1316      00000000 
GAS LISTING C:\cygwin\tmp\ccBlkykz.s 			page 34


 1317 1062 8D442424 		leal	36(%esp), %eax	 #, tmp139
 1318 1066 890424   		movl	%eax, (%esp)	 # tmp139,
 1319 1069 E8000000 		call	_chSemReset	 #
 1319      00
 1320 106e A1100000 		movl	LPBX1+16, %eax	 # *LPBX1, PROF_edge_counter.0
 1320      00
 1321 1073 8B151400 		movl	LPBX1+20, %edx	 # *LPBX1, PROF_edge_counter.0
 1321      0000
 1322 1079 83C001   		addl	$1, %eax	 #, PROF_edge_counter.0
 1323 107c 83D200   		adcl	$0, %edx	 #, PROF_edge_counter.0
 1324 107f A3100000 		movl	%eax, LPBX1+16	 # PROF_edge_counter.0, *LPBX1
 1324      00
 1325 1084 89151400 		movl	%edx, LPBX1+20	 # PROF_edge_counter.0, *LPBX1
 1325      0000
 1326              		.loc 1 261 0
 1327 108a 8B44242C 		movl	44(%esp), %eax	 # bsem.bs_sem.s_cnt, D.2838
 1328 108e 85C0     		testl	%eax, %eax	 # D.2838
 1329 1090 0F9EC0   		setle	%al	 #, tmp140
 1330 1093 0FB6C0   		movzbl	%al, %eax	 # tmp140, D.2839
 1331 1096 89442404 		movl	%eax, 4(%esp)	 # D.2839,
 1332 109a C7042401 		movl	$1, (%esp)	 #,
 1332      000000
 1333 10a1 E8000000 		call	__test_assert	 #
 1333      00
 1334 10a6 84C0     		testb	%al, %al	 # D.2840
 1335 10a8 7421     		je	L32	 #,
 1336              		.loc 1 261 0 is_stmt 0 discriminator 1
 1337 10aa A1200000 		movl	LPBX1+32, %eax	 # *LPBX1, PROF_edge_counter.0
 1337      00
 1338 10af 8B152400 		movl	LPBX1+36, %edx	 # *LPBX1, PROF_edge_counter.0
 1338      0000
 1339 10b5 83C001   		addl	$1, %eax	 #, PROF_edge_counter.0
 1340 10b8 83D200   		adcl	$0, %edx	 #, PROF_edge_counter.0
 1341 10bb A3200000 		movl	%eax, LPBX1+32	 # PROF_edge_counter.0, *LPBX1
 1341      00
 1342 10c0 89152400 		movl	%edx, LPBX1+36	 # PROF_edge_counter.0, *LPBX1
 1342      0000
 1343 10c6 E9B70300 		jmp	L31	 #
 1343      00
 1344              	L32:
 1345              		.loc 1 261 0
 1346 10cb A1180000 		movl	LPBX1+24, %eax	 # *LPBX1, PROF_edge_counter.0
 1346      00
 1347 10d0 8B151C00 		movl	LPBX1+28, %edx	 # *LPBX1, PROF_edge_counter.0
 1347      0000
 1348 10d6 83C001   		addl	$1, %eax	 #, PROF_edge_counter.0
 1349 10d9 83D200   		adcl	$0, %edx	 #, PROF_edge_counter.0
 1350 10dc A3180000 		movl	%eax, LPBX1+24	 # PROF_edge_counter.0, *LPBX1
 1350      00
 1351 10e1 89151C00 		movl	%edx, LPBX1+28	 # PROF_edge_counter.0, *LPBX1
 1351      0000
 1352              		.loc 1 265 0 is_stmt 1
 1353 10e7 A1180000 		movl	_rlist+24, %eax	 # rlist.r_current, D.2843
 1353      00
 1354 10ec 8B4008   		movl	8(%eax), %eax	 # D.2843_4->p_prio, D.2844
 1355              		.loc 1 264 0
 1356 10ef 8D48FF   		leal	-1(%eax), %ecx	 #, D.2845
GAS LISTING C:\cygwin\tmp\ccBlkykz.s 			page 35


 1357 10f2 A1000000 		movl	_wa, %eax	 # wa, D.2846
 1357      00
 1358 10f7 8D542424 		leal	36(%esp), %edx	 #, tmp141
 1359 10fb 89542410 		movl	%edx, 16(%esp)	 # tmp141,
 1360 10ff C744240C 		movl	$_thread4, 12(%esp)	 #,
 1360      390F0000 
 1361 1107 894C2408 		movl	%ecx, 8(%esp)	 # D.2845,
 1362 110b C7442404 		movl	$17008, 4(%esp)	 #,
 1362      70420000 
 1363 1113 890424   		movl	%eax, (%esp)	 # D.2846,
 1364 1116 E8000000 		call	_chThdCreateStatic	 #
 1364      00
 1365 111b 89C1     		movl	%eax, %ecx	 #, D.2847
 1366 111d A1280000 		movl	LPBX1+40, %eax	 # *LPBX1, PROF_edge_counter.0
 1366      00
 1367 1122 8B152C00 		movl	LPBX1+44, %edx	 # *LPBX1, PROF_edge_counter.0
 1367      0000
 1368 1128 83C001   		addl	$1, %eax	 #, PROF_edge_counter.0
 1369 112b 83D200   		adcl	$0, %edx	 #, PROF_edge_counter.0
 1370 112e A3280000 		movl	%eax, LPBX1+40	 # PROF_edge_counter.0, *LPBX1
 1370      00
 1371 1133 89152C00 		movl	%edx, LPBX1+44	 # PROF_edge_counter.0, *LPBX1
 1371      0000
 1372 1139 890D0000 		movl	%ecx, _threads	 # D.2847, threads
 1372      0000
 1373              		.loc 1 268 0
 1374 113f 8D442424 		leal	36(%esp), %eax	 #, tmp142
 1375 1143 890424   		movl	%eax, (%esp)	 # tmp142,
 1376 1146 E8000000 		call	_chSemWait	 #
 1376      00
 1377 114b A1300000 		movl	LPBX1+48, %eax	 # *LPBX1, PROF_edge_counter.0
 1377      00
 1378 1150 8B153400 		movl	LPBX1+52, %edx	 # *LPBX1, PROF_edge_counter.0
 1378      0000
 1379 1156 83C001   		addl	$1, %eax	 #, PROF_edge_counter.0
 1380 1159 83D200   		adcl	$0, %edx	 #, PROF_edge_counter.0
 1381 115c A3300000 		movl	%eax, LPBX1+48	 # PROF_edge_counter.0, *LPBX1
 1381      00
 1382 1161 89153400 		movl	%edx, LPBX1+52	 # PROF_edge_counter.0, *LPBX1
 1382      0000
 1383              		.loc 1 271 0
 1384 1167 8B44242C 		movl	44(%esp), %eax	 # bsem.bs_sem.s_cnt, D.2848
 1385 116b 85C0     		testl	%eax, %eax	 # D.2848
 1386 116d 0F9EC0   		setle	%al	 #, tmp143
 1387 1170 0FB6C0   		movzbl	%al, %eax	 # tmp143, D.2849
 1388 1173 89442404 		movl	%eax, 4(%esp)	 # D.2849,
 1389 1177 C7042402 		movl	$2, (%esp)	 #,
 1389      000000
 1390 117e E8000000 		call	__test_assert	 #
 1390      00
 1391 1183 84C0     		testb	%al, %al	 # D.2850
 1392 1185 7421     		je	L34	 #,
 1393              		.loc 1 271 0 is_stmt 0 discriminator 1
 1394 1187 A1400000 		movl	LPBX1+64, %eax	 # *LPBX1, PROF_edge_counter.0
 1394      00
 1395 118c 8B154400 		movl	LPBX1+68, %edx	 # *LPBX1, PROF_edge_counter.0
 1395      0000
GAS LISTING C:\cygwin\tmp\ccBlkykz.s 			page 36


 1396 1192 83C001   		addl	$1, %eax	 #, PROF_edge_counter.0
 1397 1195 83D200   		adcl	$0, %edx	 #, PROF_edge_counter.0
 1398 1198 A3400000 		movl	%eax, LPBX1+64	 # PROF_edge_counter.0, *LPBX1
 1398      00
 1399 119d 89154400 		movl	%edx, LPBX1+68	 # PROF_edge_counter.0, *LPBX1
 1399      0000
 1400 11a3 E9DA0200 		jmp	L31	 #
 1400      00
 1401              	L34:
 1402              		.loc 1 271 0
 1403 11a8 A1380000 		movl	LPBX1+56, %eax	 # *LPBX1, PROF_edge_counter.0
 1403      00
 1404 11ad 8B153C00 		movl	LPBX1+60, %edx	 # *LPBX1, PROF_edge_counter.0
 1404      0000
 1405 11b3 83C001   		addl	$1, %eax	 #, PROF_edge_counter.0
 1406 11b6 83D200   		adcl	$0, %edx	 #, PROF_edge_counter.0
 1407 11b9 A3380000 		movl	%eax, LPBX1+56	 # PROF_edge_counter.0, *LPBX1
 1407      00
 1408 11be 89153C00 		movl	%edx, LPBX1+60	 # PROF_edge_counter.0, *LPBX1
 1408      0000
 1409              		.loc 1 275 0 is_stmt 1
 1410              	/APP
 1411              	 # 275 "../../test/testsem.c" 1
 1412 11c4 90       		nop
 1413              	 # 0 "" 2
 1414              	/NO_APP
 1415 11c5 A1480000 		movl	LPBX1+72, %eax	 # *LPBX1, PROF_edge_counter.0
 1415      00
 1416 11ca 8B154C00 		movl	LPBX1+76, %edx	 # *LPBX1, PROF_edge_counter.0
 1416      0000
 1417 11d0 83C001   		addl	$1, %eax	 #, PROF_edge_counter.0
 1418 11d3 83D200   		adcl	$0, %edx	 #, PROF_edge_counter.0
 1419 11d6 A3480000 		movl	%eax, LPBX1+72	 # PROF_edge_counter.0, *LPBX1
 1419      00
 1420 11db 89154C00 		movl	%edx, LPBX1+76	 # PROF_edge_counter.0, *LPBX1
 1420      0000
 1421 11e1 8B44242C 		movl	44(%esp), %eax	 # bsem.bs_sem.s_cnt, D.2853
 1422 11e5 85C0     		testl	%eax, %eax	 # D.2853
 1423 11e7 7F44     		jg	L35	 #,
 1424              		.loc 1 275 0 is_stmt 0 discriminator 1
 1425 11e9 A1500000 		movl	LPBX1+80, %eax	 # *LPBX1, PROF_edge_counter.0
 1425      00
 1426 11ee 8B155400 		movl	LPBX1+84, %edx	 # *LPBX1, PROF_edge_counter.0
 1426      0000
 1427 11f4 83C001   		addl	$1, %eax	 #, PROF_edge_counter.0
 1428 11f7 83D200   		adcl	$0, %edx	 #, PROF_edge_counter.0
 1429 11fa A3500000 		movl	%eax, LPBX1+80	 # PROF_edge_counter.0, *LPBX1
 1429      00
 1430 11ff 89155400 		movl	%edx, LPBX1+84	 # PROF_edge_counter.0, *LPBX1
 1430      0000
 1431 1205 8D442424 		leal	36(%esp), %eax	 #, tmp144
 1432 1209 890424   		movl	%eax, (%esp)	 # tmp144,
 1433 120c E8000000 		call	_chSemSignalI	 #
 1433      00
 1434 1211 A1580000 		movl	LPBX1+88, %eax	 # *LPBX1, PROF_edge_counter.0
 1434      00
 1435 1216 8B155C00 		movl	LPBX1+92, %edx	 # *LPBX1, PROF_edge_counter.0
GAS LISTING C:\cygwin\tmp\ccBlkykz.s 			page 37


 1435      0000
 1436 121c 83C001   		addl	$1, %eax	 #, PROF_edge_counter.0
 1437 121f 83D200   		adcl	$0, %edx	 #, PROF_edge_counter.0
 1438 1222 A3580000 		movl	%eax, LPBX1+88	 # PROF_edge_counter.0, *LPBX1
 1438      00
 1439 1227 89155C00 		movl	%edx, LPBX1+92	 # PROF_edge_counter.0, *LPBX1
 1439      0000
 1440              	L35:
 1441              		.loc 1 275 0 discriminator 2
 1442 122d E8000000 		call	_chSchRescheduleS	 #
 1442      00
 1443 1232 A1600000 		movl	LPBX1+96, %eax	 # *LPBX1, PROF_edge_counter.0
 1443      00
 1444 1237 8B156400 		movl	LPBX1+100, %edx	 # *LPBX1, PROF_edge_counter.0
 1444      0000
 1445 123d 83C001   		addl	$1, %eax	 #, PROF_edge_counter.0
 1446 1240 83D200   		adcl	$0, %edx	 #, PROF_edge_counter.0
 1447 1243 A3600000 		movl	%eax, LPBX1+96	 # PROF_edge_counter.0, *LPBX1
 1447      00
 1448 1248 89156400 		movl	%edx, LPBX1+100	 # PROF_edge_counter.0, *LPBX1
 1448      0000
 1449              	/APP
 1450              	 # 275 "../../test/testsem.c" 1
 1451 124e 90       		nop
 1452              	 # 0 "" 2
 1453              	/NO_APP
 1454 124f A1680000 		movl	LPBX1+104, %eax	 # *LPBX1, PROF_edge_counter.0
 1454      00
 1455 1254 8B156C00 		movl	LPBX1+108, %edx	 # *LPBX1, PROF_edge_counter.0
 1455      0000
 1456 125a 83C001   		addl	$1, %eax	 #, PROF_edge_counter.0
 1457 125d 83D200   		adcl	$0, %edx	 #, PROF_edge_counter.0
 1458 1260 A3680000 		movl	%eax, LPBX1+104	 # PROF_edge_counter.0, *LPBX1
 1458      00
 1459 1265 89156C00 		movl	%edx, LPBX1+108	 # PROF_edge_counter.0, *LPBX1
 1459      0000
 1460              		.loc 1 276 0 is_stmt 1 discriminator 2
 1461 126b 8B44242C 		movl	44(%esp), %eax	 # bsem.bs_sem.s_cnt, D.2856
 1462 126f 85C0     		testl	%eax, %eax	 # D.2856
 1463 1271 0F9FC0   		setg	%al	 #, tmp145
 1464 1274 0FB6C0   		movzbl	%al, %eax	 # tmp145, D.2857
 1465 1277 89442404 		movl	%eax, 4(%esp)	 # D.2857,
 1466 127b C7042403 		movl	$3, (%esp)	 #,
 1466      000000
 1467 1282 E8000000 		call	__test_assert	 #
 1467      00
 1468 1287 84C0     		testb	%al, %al	 # D.2858
 1469 1289 7421     		je	L36	 #,
 1470              		.loc 1 276 0 is_stmt 0 discriminator 1
 1471 128b A1780000 		movl	LPBX1+120, %eax	 # *LPBX1, PROF_edge_counter.0
 1471      00
 1472 1290 8B157C00 		movl	LPBX1+124, %edx	 # *LPBX1, PROF_edge_counter.0
 1472      0000
 1473 1296 83C001   		addl	$1, %eax	 #, PROF_edge_counter.0
 1474 1299 83D200   		adcl	$0, %edx	 #, PROF_edge_counter.0
 1475 129c A3780000 		movl	%eax, LPBX1+120	 # PROF_edge_counter.0, *LPBX1
 1475      00
GAS LISTING C:\cygwin\tmp\ccBlkykz.s 			page 38


 1476 12a1 89157C00 		movl	%edx, LPBX1+124	 # PROF_edge_counter.0, *LPBX1
 1476      0000
 1477 12a7 E9D60100 		jmp	L31	 #
 1477      00
 1478              	L36:
 1479              		.loc 1 276 0
 1480 12ac A1700000 		movl	LPBX1+112, %eax	 # *LPBX1, PROF_edge_counter.0
 1480      00
 1481 12b1 8B157400 		movl	LPBX1+116, %edx	 # *LPBX1, PROF_edge_counter.0
 1481      0000
 1482 12b7 83C001   		addl	$1, %eax	 #, PROF_edge_counter.0
 1483 12ba 83D200   		adcl	$0, %edx	 #, PROF_edge_counter.0
 1484 12bd A3700000 		movl	%eax, LPBX1+112	 # PROF_edge_counter.0, *LPBX1
 1484      00
 1485 12c2 89157400 		movl	%edx, LPBX1+116	 # PROF_edge_counter.0, *LPBX1
 1485      0000
 1486              		.loc 1 277 0 is_stmt 1
 1487 12c8 8B44242C 		movl	44(%esp), %eax	 # bsem.bs_sem.s_cnt, D.2861
 1488 12cc 83F801   		cmpl	$1, %eax	 #, D.2861
 1489 12cf 0F94C0   		sete	%al	 #, tmp146
 1490 12d2 0FB6C0   		movzbl	%al, %eax	 # tmp146, D.2862
 1491 12d5 89442404 		movl	%eax, 4(%esp)	 # D.2862,
 1492 12d9 C7042404 		movl	$4, (%esp)	 #,
 1492      000000
 1493 12e0 E8000000 		call	__test_assert	 #
 1493      00
 1494 12e5 84C0     		testb	%al, %al	 # D.2863
 1495 12e7 7421     		je	L37	 #,
 1496              		.loc 1 277 0 is_stmt 0 discriminator 1
 1497 12e9 A1880000 		movl	LPBX1+136, %eax	 # *LPBX1, PROF_edge_counter.0
 1497      00
 1498 12ee 8B158C00 		movl	LPBX1+140, %edx	 # *LPBX1, PROF_edge_counter.0
 1498      0000
 1499 12f4 83C001   		addl	$1, %eax	 #, PROF_edge_counter.0
 1500 12f7 83D200   		adcl	$0, %edx	 #, PROF_edge_counter.0
 1501 12fa A3880000 		movl	%eax, LPBX1+136	 # PROF_edge_counter.0, *LPBX1
 1501      00
 1502 12ff 89158C00 		movl	%edx, LPBX1+140	 # PROF_edge_counter.0, *LPBX1
 1502      0000
 1503 1305 E9780100 		jmp	L31	 #
 1503      00
 1504              	L37:
 1505              		.loc 1 277 0
 1506 130a A1800000 		movl	LPBX1+128, %eax	 # *LPBX1, PROF_edge_counter.0
 1506      00
 1507 130f 8B158400 		movl	LPBX1+132, %edx	 # *LPBX1, PROF_edge_counter.0
 1507      0000
 1508 1315 83C001   		addl	$1, %eax	 #, PROF_edge_counter.0
 1509 1318 83D200   		adcl	$0, %edx	 #, PROF_edge_counter.0
 1510 131b A3800000 		movl	%eax, LPBX1+128	 # PROF_edge_counter.0, *LPBX1
 1510      00
 1511 1320 89158400 		movl	%edx, LPBX1+132	 # PROF_edge_counter.0, *LPBX1
 1511      0000
 1512              		.loc 1 280 0 is_stmt 1
 1513              	/APP
 1514              	 # 280 "../../test/testsem.c" 1
 1515 1326 90       		nop
GAS LISTING C:\cygwin\tmp\ccBlkykz.s 			page 39


 1516              	 # 0 "" 2
 1517              	/NO_APP
 1518 1327 A1900000 		movl	LPBX1+144, %eax	 # *LPBX1, PROF_edge_counter.0
 1518      00
 1519 132c 8B159400 		movl	LPBX1+148, %edx	 # *LPBX1, PROF_edge_counter.0
 1519      0000
 1520 1332 83C001   		addl	$1, %eax	 #, PROF_edge_counter.0
 1521 1335 83D200   		adcl	$0, %edx	 #, PROF_edge_counter.0
 1522 1338 A3900000 		movl	%eax, LPBX1+144	 # PROF_edge_counter.0, *LPBX1
 1522      00
 1523 133d 89159400 		movl	%edx, LPBX1+148	 # PROF_edge_counter.0, *LPBX1
 1523      0000
 1524 1343 8B44242C 		movl	44(%esp), %eax	 # bsem.bs_sem.s_cnt, D.2866
 1525 1347 85C0     		testl	%eax, %eax	 # D.2866
 1526 1349 7F44     		jg	L38	 #,
 1527              		.loc 1 280 0 is_stmt 0 discriminator 1
 1528 134b A1980000 		movl	LPBX1+152, %eax	 # *LPBX1, PROF_edge_counter.0
 1528      00
 1529 1350 8B159C00 		movl	LPBX1+156, %edx	 # *LPBX1, PROF_edge_counter.0
 1529      0000
 1530 1356 83C001   		addl	$1, %eax	 #, PROF_edge_counter.0
 1531 1359 83D200   		adcl	$0, %edx	 #, PROF_edge_counter.0
 1532 135c A3980000 		movl	%eax, LPBX1+152	 # PROF_edge_counter.0, *LPBX1
 1532      00
 1533 1361 89159C00 		movl	%edx, LPBX1+156	 # PROF_edge_counter.0, *LPBX1
 1533      0000
 1534 1367 8D442424 		leal	36(%esp), %eax	 #, tmp147
 1535 136b 890424   		movl	%eax, (%esp)	 # tmp147,
 1536 136e E8000000 		call	_chSemSignalI	 #
 1536      00
 1537 1373 A1A00000 		movl	LPBX1+160, %eax	 # *LPBX1, PROF_edge_counter.0
 1537      00
 1538 1378 8B15A400 		movl	LPBX1+164, %edx	 # *LPBX1, PROF_edge_counter.0
 1538      0000
 1539 137e 83C001   		addl	$1, %eax	 #, PROF_edge_counter.0
 1540 1381 83D200   		adcl	$0, %edx	 #, PROF_edge_counter.0
 1541 1384 A3A00000 		movl	%eax, LPBX1+160	 # PROF_edge_counter.0, *LPBX1
 1541      00
 1542 1389 8915A400 		movl	%edx, LPBX1+164	 # PROF_edge_counter.0, *LPBX1
 1542      0000
 1543              	L38:
 1544              		.loc 1 280 0 discriminator 2
 1545 138f E8000000 		call	_chSchRescheduleS	 #
 1545      00
 1546 1394 A1A80000 		movl	LPBX1+168, %eax	 # *LPBX1, PROF_edge_counter.0
 1546      00
 1547 1399 8B15AC00 		movl	LPBX1+172, %edx	 # *LPBX1, PROF_edge_counter.0
 1547      0000
 1548 139f 83C001   		addl	$1, %eax	 #, PROF_edge_counter.0
 1549 13a2 83D200   		adcl	$0, %edx	 #, PROF_edge_counter.0
 1550 13a5 A3A80000 		movl	%eax, LPBX1+168	 # PROF_edge_counter.0, *LPBX1
 1550      00
 1551 13aa 8915AC00 		movl	%edx, LPBX1+172	 # PROF_edge_counter.0, *LPBX1
 1551      0000
 1552              	/APP
 1553              	 # 280 "../../test/testsem.c" 1
 1554 13b0 90       		nop
GAS LISTING C:\cygwin\tmp\ccBlkykz.s 			page 40


 1555              	 # 0 "" 2
 1556              	/NO_APP
 1557 13b1 A1B00000 		movl	LPBX1+176, %eax	 # *LPBX1, PROF_edge_counter.0
 1557      00
 1558 13b6 8B15B400 		movl	LPBX1+180, %edx	 # *LPBX1, PROF_edge_counter.0
 1558      0000
 1559 13bc 83C001   		addl	$1, %eax	 #, PROF_edge_counter.0
 1560 13bf 83D200   		adcl	$0, %edx	 #, PROF_edge_counter.0
 1561 13c2 A3B00000 		movl	%eax, LPBX1+176	 # PROF_edge_counter.0, *LPBX1
 1561      00
 1562 13c7 8915B400 		movl	%edx, LPBX1+180	 # PROF_edge_counter.0, *LPBX1
 1562      0000
 1563              		.loc 1 281 0 is_stmt 1 discriminator 2
 1564 13cd 8B44242C 		movl	44(%esp), %eax	 # bsem.bs_sem.s_cnt, D.2869
 1565 13d1 85C0     		testl	%eax, %eax	 # D.2869
 1566 13d3 0F9FC0   		setg	%al	 #, tmp148
 1567 13d6 0FB6C0   		movzbl	%al, %eax	 # tmp148, D.2870
 1568 13d9 89442404 		movl	%eax, 4(%esp)	 # D.2870,
 1569 13dd C7042403 		movl	$3, (%esp)	 #,
 1569      000000
 1570 13e4 E8000000 		call	__test_assert	 #
 1570      00
 1571 13e9 84C0     		testb	%al, %al	 # D.2871
 1572 13eb 741E     		je	L39	 #,
 1573              		.loc 1 281 0 is_stmt 0 discriminator 1
 1574 13ed A1C00000 		movl	LPBX1+192, %eax	 # *LPBX1, PROF_edge_counter.0
 1574      00
 1575 13f2 8B15C400 		movl	LPBX1+196, %edx	 # *LPBX1, PROF_edge_counter.0
 1575      0000
 1576 13f8 83C001   		addl	$1, %eax	 #, PROF_edge_counter.0
 1577 13fb 83D200   		adcl	$0, %edx	 #, PROF_edge_counter.0
 1578 13fe A3C00000 		movl	%eax, LPBX1+192	 # PROF_edge_counter.0, *LPBX1
 1578      00
 1579 1403 8915C400 		movl	%edx, LPBX1+196	 # PROF_edge_counter.0, *LPBX1
 1579      0000
 1580 1409 EB77     		jmp	L31	 #
 1581              	L39:
 1582              		.loc 1 281 0
 1583 140b A1B80000 		movl	LPBX1+184, %eax	 # *LPBX1, PROF_edge_counter.0
 1583      00
 1584 1410 8B15BC00 		movl	LPBX1+188, %edx	 # *LPBX1, PROF_edge_counter.0
 1584      0000
 1585 1416 83C001   		addl	$1, %eax	 #, PROF_edge_counter.0
 1586 1419 83D200   		adcl	$0, %edx	 #, PROF_edge_counter.0
 1587 141c A3B80000 		movl	%eax, LPBX1+184	 # PROF_edge_counter.0, *LPBX1
 1587      00
 1588 1421 8915BC00 		movl	%edx, LPBX1+188	 # PROF_edge_counter.0, *LPBX1
 1588      0000
 1589              		.loc 1 282 0 is_stmt 1
 1590 1427 8B44242C 		movl	44(%esp), %eax	 # bsem.bs_sem.s_cnt, D.2874
 1591 142b 83F801   		cmpl	$1, %eax	 #, D.2874
 1592 142e 0F94C0   		sete	%al	 #, tmp149
 1593 1431 0FB6C0   		movzbl	%al, %eax	 # tmp149, D.2875
 1594 1434 89442404 		movl	%eax, 4(%esp)	 # D.2875,
 1595 1438 C7042405 		movl	$5, (%esp)	 #,
 1595      000000
 1596 143f E8000000 		call	__test_assert	 #
GAS LISTING C:\cygwin\tmp\ccBlkykz.s 			page 41


 1596      00
 1597 1444 88C1     		movb	%al, %cl	 #, D.2876
 1598 1446 A1C80000 		movl	LPBX1+200, %eax	 # *LPBX1, PROF_edge_counter.0
 1598      00
 1599 144b 8B15CC00 		movl	LPBX1+204, %edx	 # *LPBX1, PROF_edge_counter.0
 1599      0000
 1600 1451 83C001   		addl	$1, %eax	 #, PROF_edge_counter.0
 1601 1454 83D200   		adcl	$0, %edx	 #, PROF_edge_counter.0
 1602 1457 A3C80000 		movl	%eax, LPBX1+200	 # PROF_edge_counter.0, *LPBX1
 1602      00
 1603 145c 8915CC00 		movl	%edx, LPBX1+204	 # PROF_edge_counter.0, *LPBX1
 1603      0000
 1604 1462 84C9     		testb	%cl, %cl	 # D.2876
 1605 1464 741C     		je	L31	 #,
 1606              		.loc 1 282 0 is_stmt 0 discriminator 1
 1607 1466 A1D00000 		movl	LPBX1+208, %eax	 # *LPBX1, PROF_edge_counter.0
 1607      00
 1608 146b 8B15D400 		movl	LPBX1+212, %edx	 # *LPBX1, PROF_edge_counter.0
 1608      0000
 1609 1471 83C001   		addl	$1, %eax	 #, PROF_edge_counter.0
 1610 1474 83D200   		adcl	$0, %edx	 #, PROF_edge_counter.0
 1611 1477 A3D00000 		movl	%eax, LPBX1+208	 # PROF_edge_counter.0, *LPBX1
 1611      00
 1612 147c 8915D400 		movl	%edx, LPBX1+212	 # PROF_edge_counter.0, *LPBX1
 1612      0000
 1613              	L31:
 1614              		.loc 1 283 0 is_stmt 1
 1615 1482 83C43C   		addl	$60, %esp	 #,
 1616              	LCFI21:
 1617              		.cfi_def_cfa_offset 4
 1618 1485 C3       		ret
 1619              		.cfi_endproc
 1620              	LFE10:
 1621              		.globl	_testsem4
 1622              		.section .rdata,"dr"
 1623              		.align 4
 1624              	LC9:
 1625 008c 42696E61 		.ascii "Binary Semaphores, functionality\0"
 1625      72792053 
 1625      656D6170 
 1625      686F7265 
 1625      732C2066 
 1626 00ad 000000   		.align 4
 1627              	_testsem4:
 1628              	 # name:
 1629 00b0 8C000000 		.long	LC9
 1630              	 # setup:
 1631 00b4 00000000 		.long	0
 1632              	 # teardown:
 1633 00b8 00000000 		.long	0
 1634              	 # execute:
 1635 00bc 0B100000 		.long	_sem4_execute
 1636              		.globl	_patternsem
 1637              		.align 4
 1638              	_patternsem:
 1639 00c0 28000000 		.long	_testsem1
 1640 00c4 4C000000 		.long	_testsem2
GAS LISTING C:\cygwin\tmp\ccBlkykz.s 			page 42


 1641 00c8 7C000000 		.long	_testsem3
 1642 00cc B0000000 		.long	_testsem4
 1643 00d0 00000000 		.long	0
 1644              	.lcomm LPBX1,920,32
 1645              		.align 4
 1646              	LC10:
 1647 00d4 433A5C64 		.ascii "C:\\develop\\gyro\\ChibiOS\\test\\coverage/../../test/testsem.gcda\0"
 1647      6576656C 
 1647      6F705C67 
 1647      79726F5C 
 1647      43686962 
 1648 0112 0000     		.data
 1649 000c 00000000 		.align 32
 1649      00000000 
 1649      00000000 
 1649      00000000 
 1649      00000000 
 1650              	LC11:
 1651              	 # <anonymous>:
 1652 0020 0B000000 		.long	11
 1653              	 # <anonymous>:
 1654 0024 8B32A329 		.long	698561163
 1655              	 # <anonymous>:
 1656 0028 1B000000 		.long	27
 1657              	 # <anonymous>:
 1658 002c 0A000000 		.long	10
 1659              	 # <anonymous>:
 1660 0030 F72780FA 		.long	-92264457
 1661              	 # <anonymous>:
 1662 0034 06000000 		.long	6
 1663              	 # <anonymous>:
 1664 0038 09000000 		.long	9
 1665              	 # <anonymous>:
 1666 003c 4B94CAC6 		.long	-959802293
 1667              	 # <anonymous>:
 1668 0040 0C000000 		.long	12
 1669              	 # <anonymous>:
 1670 0044 08000000 		.long	8
 1671              	 # <anonymous>:
 1672 0048 7D91F125 		.long	636588413
 1673              	 # <anonymous>:
 1674 004c 03000000 		.long	3
 1675              	 # <anonymous>:
 1676 0050 07000000 		.long	7
 1677              	 # <anonymous>:
 1678 0054 E0F9E8BC 		.long	-1125582368
 1679              	 # <anonymous>:
 1680 0058 02000000 		.long	2
 1681              	 # <anonymous>:
 1682 005c 06000000 		.long	6
 1683              	 # <anonymous>:
 1684 0060 9BB5EE2A 		.long	720287131
 1685              	 # <anonymous>:
 1686 0064 1F000000 		.long	31
 1687              	 # <anonymous>:
 1688 0068 05000000 		.long	5
 1689              	 # <anonymous>:
GAS LISTING C:\cygwin\tmp\ccBlkykz.s 			page 43


 1690 006c 077759AF 		.long	-1353091321
 1691              	 # <anonymous>:
 1692 0070 06000000 		.long	6
 1693              	 # <anonymous>:
 1694 0074 04000000 		.long	4
 1695              	 # <anonymous>:
 1696 0078 57E99F62 		.long	1654647127
 1697              	 # <anonymous>:
 1698 007c 02000000 		.long	2
 1699              	 # <anonymous>:
 1700 0080 03000000 		.long	3
 1701              	 # <anonymous>:
 1702 0084 DA138BEF 		.long	-276098086
 1703              	 # <anonymous>:
 1704 0088 15000000 		.long	21
 1705              	 # <anonymous>:
 1706 008c 02000000 		.long	2
 1707              	 # <anonymous>:
 1708 0090 641C6BE1 		.long	-513074076
 1709              	 # <anonymous>:
 1710 0094 03000000 		.long	3
 1711              	 # <anonymous>:
 1712 0098 01000000 		.long	1
 1713              	 # <anonymous>:
 1714 009c CD8F1A18 		.long	404393933
 1715              	 # <anonymous>:
 1716 00a0 02000000 		.long	2
 1717 00a4 00000000 		.align 32
 1717      00000000 
 1717      00000000 
 1717      00000000 
 1717      00000000 
 1718              	LPBX0:
 1719              	 # <anonymous>:
 1720 00c0 2A363034 		.long	875574826
 1721              	 # <anonymous>:
 1722 00c4 00000000 		.long	0
 1723              	 # <anonymous>:
 1724 00c8 FB2D7060 		.long	1617964539
 1725              	 # <anonymous>:
 1726 00cc D4000000 		.long	LC10
 1727              	 # <anonymous>:
 1728 00d0 0B000000 		.long	11
 1729              	 # <anonymous>:
 1730 00d4 20000000 		.long	LC11
 1731              	 # <anonymous>:
 1732 00d8 01000000 		.long	1
 1733              	 # <anonymous>:
 1734              	 # <anonymous>:
 1735 00dc 73000000 		.long	115
 1736              	 # <anonymous>:
 1737 00e0 00000000 		.long	LPBX1
 1738              	 # <anonymous>:
 1739 00e4 00000000 		.long	___gcov_merge_add
 1740 00e8 00000000 		.space 12
 1740      00000000 
 1740      00000000 
GAS LISTING C:\cygwin\tmp\ccBlkykz.s 			page 44


 1741 00f4 00000000 		.text
 1741      00000000 
 1741      00000000 
 1742              		.def	__GLOBAL__sub_I_65535_0_testsem1;	.scl	3;	.type	32;	.endef
 1743              	__GLOBAL__sub_I_65535_0_testsem1:
 1744              	LFB11:
 1745              		.loc 1 306 0
 1746              		.cfi_startproc
 1747 1486 83EC1C   		subl	$28, %esp	 #,
 1748              	LCFI22:
 1749              		.cfi_def_cfa_offset 32
 1750              		.loc 1 306 0
 1751 1489 C70424C0 		movl	$LPBX0, (%esp)	 #,
 1751      000000
 1752 1490 E8000000 		call	___gcov_init	 #
 1752      00
 1753 1495 83C41C   		addl	$28, %esp	 #,
 1754              	LCFI23:
 1755              		.cfi_def_cfa_offset 4
 1756 1498 C3       		ret
 1757              		.cfi_endproc
 1758              	LFE11:
 1759              		.section	.ctors,"w"
 1760              		.align 4
 1761 0000 86140000 		.long	__GLOBAL__sub_I_65535_0_testsem1
 1762              		.text
 1763              	Letext0:
 1764              		.file 2 "c:/mingw/bin/../lib/gcc/mingw32/4.6.2/../../../../include/stdint.h"
 1765              		.file 3 "../../os/ports/GCC/SIMIA32/chtypes.h"
 1766              		.file 4 "../../os/kernel/include/chlists.h"
 1767              		.file 5 "../../os/kernel/include/chthreads.h"
 1768              		.file 6 "../../os/ports/GCC/SIMIA32/chcore.h"
 1769              		.file 7 "../../os/kernel/include/chvt.h"
 1770              		.file 8 "../../os/kernel/include/chschd.h"
 1771              		.file 9 "../../os/kernel/include/chsem.h"
 1772              		.file 10 "../../os/kernel/include/chbsem.h"
 1773              		.file 11 "../../os/kernel/include/chmtx.h"
 1774              		.file 12 "../../test/test.h"