ARM GAS  C:\cygwin\tmp\ccoPYz1h.s 			page 1


   1              		.syntax unified
   2              		.cpu cortex-m4
   3              		.fpu softvfp
   4              		.eabi_attribute 20, 1
   5              		.eabi_attribute 21, 1
   6              		.eabi_attribute 23, 3
   7              		.eabi_attribute 24, 1
   8              		.eabi_attribute 25, 1
   9              		.eabi_attribute 26, 1
  10              		.eabi_attribute 30, 2
  11              		.eabi_attribute 34, 1
  12              		.eabi_attribute 18, 4
  13              		.thumb
  14              		.file	"chqueues.c"
  15              		.text
  16              	.Ltext0:
  17              		.cfi_sections	.debug_frame
  18              		.section	.text.qwait,"ax",%progbits
  19              		.align	2
  20              		.p2align 4,,15
  21              		.thumb
  22              		.thumb_func
  23              		.type	qwait, %function
  24              	qwait:
  25              	.LFB7:
  26              		.file 1 "../../../os/kernel/src/chqueues.c"
  27              		.loc 1 63 0
  28              		.cfi_startproc
  29              		@ args = 0, pretend = 0, frame = 0
  30              		@ frame_needed = 0, uses_anonymous_args = 0
  31              		@ link register save eliminated.
  32              	.LVL0:
  33 0000 10B4     		push	{r4}
  34              	.LCFI0:
  35              		.cfi_def_cfa_offset 4
  36              		.cfi_offset 4, -4
  37              		.loc 1 63 0
  38 0002 0246     		mov	r2, r0
  39              		.loc 1 65 0
  40 0004 59B1     		cbz	r1, .L2
  41              		.loc 1 67 0
  42 0006 084B     		ldr	r3, .L4
  43 0008 9B69     		ldr	r3, [r3, #24]
  44 000a 9862     		str	r0, [r3, #40]
  45              	.LVL1:
  46              	.LBB12:
  47              	.LBB13:
  48              		.file 2 "../../../os/kernel/include/chinline.h"
  49              		.loc 2 48 0
  50 000c 4468     		ldr	r4, [r0, #4]
  51              	.LBE13:
  52              	.LBE12:
  53              		.loc 1 69 0
  54 000e 0D20     		movs	r0, #13
  55              	.LVL2:
  56              	.LBB15:
  57              	.LBB14:
ARM GAS  C:\cygwin\tmp\ccoPYz1h.s 			page 2


  58              		.loc 2 48 0
  59 0010 83E81400 		stmia	r3, {r2, r4}
  60              		.loc 2 49 0
  61 0014 5360     		str	r3, [r2, #4]
  62 0016 2360     		str	r3, [r4, #0]
  63              	.LBE14:
  64              	.LBE15:
  65              		.loc 1 70 0
  66 0018 10BC     		pop	{r4}
  67              		.loc 1 69 0
  68 001a FFF7FEBF 		b	chSchGoSleepTimeoutS
  69              	.LVL3:
  70              	.L2:
  71              		.loc 1 70 0
  72 001e 4FF0FF30 		mov	r0, #-1
  73              	.LVL4:
  74 0022 10BC     		pop	{r4}
  75 0024 7047     		bx	lr
  76              	.L5:
  77 0026 00BF     		.align	2
  78              	.L4:
  79 0028 00000000 		.word	rlist
  80              		.cfi_endproc
  81              	.LFE7:
  82              		.size	qwait, .-qwait
  83 002c AFF30080 		.section	.text.chIQInit,"ax",%progbits
  84              		.align	2
  85              		.p2align 4,,15
  86              		.global	chIQInit
  87              		.thumb
  88              		.thumb_func
  89              		.type	chIQInit, %function
  90              	chIQInit:
  91              	.LFB8:
  92              		.loc 1 89 0
  93              		.cfi_startproc
  94              		@ args = 4, pretend = 0, frame = 0
  95              		@ frame_needed = 0, uses_anonymous_args = 0
  96              		@ link register save eliminated.
  97              	.LVL5:
  98 0000 10B4     		push	{r4}
  99              	.LCFI1:
 100              		.cfi_def_cfa_offset 4
 101              		.cfi_offset 4, -4
 102              		.loc 1 95 0
 103 0002 C361     		str	r3, [r0, #28]
 104              		.loc 1 96 0
 105 0004 019B     		ldr	r3, [sp, #4]
 106              	.LVL6:
 107              		.loc 1 91 0
 108 0006 4060     		str	r0, [r0, #4]
 109              		.loc 1 94 0
 110 0008 8A18     		adds	r2, r1, r2
 111              	.LVL7:
 112              		.loc 1 92 0
 113 000a 0024     		movs	r4, #0
 114              		.loc 1 91 0
ARM GAS  C:\cygwin\tmp\ccoPYz1h.s 			page 3


 115 000c 0060     		str	r0, [r0, #0]
 116              		.loc 1 92 0
 117 000e 8460     		str	r4, [r0, #8]
 118              		.loc 1 93 0
 119 0010 4161     		str	r1, [r0, #20]
 120 0012 8161     		str	r1, [r0, #24]
 121 0014 C160     		str	r1, [r0, #12]
 122              		.loc 1 94 0
 123 0016 0261     		str	r2, [r0, #16]
 124              		.loc 1 96 0
 125 0018 0362     		str	r3, [r0, #32]
 126              		.loc 1 97 0
 127 001a 10BC     		pop	{r4}
 128 001c 7047     		bx	lr
 129              		.cfi_endproc
 130              	.LFE8:
 131              		.size	chIQInit, .-chIQInit
 132 001e 00BF     		.section	.text.chIQResetI,"ax",%progbits
 133              		.align	2
 134              		.p2align 4,,15
 135              		.global	chIQResetI
 136              		.thumb
 137              		.thumb_func
 138              		.type	chIQResetI, %function
 139              	chIQResetI:
 140              	.LFB9:
 141              		.loc 1 110 0
 142              		.cfi_startproc
 143              		@ args = 0, pretend = 0, frame = 0
 144              		@ frame_needed = 0, uses_anonymous_args = 0
 145              	.LVL8:
 146 0000 38B5     		push	{r3, r4, r5, lr}
 147              	.LCFI2:
 148              		.cfi_def_cfa_offset 16
 149              		.cfi_offset 3, -16
 150              		.cfi_offset 4, -12
 151              		.cfi_offset 5, -8
 152              		.cfi_offset 14, -4
 153              		.loc 1 110 0
 154 0002 0446     		mov	r4, r0
 155              		.loc 1 112 0
 156 0004 FFF7FEFF 		bl	chDbgCheckClassI
 157              	.LVL9:
 158              		.loc 1 114 0
 159 0008 E368     		ldr	r3, [r4, #12]
 160              		.loc 1 116 0
 161 000a 2068     		ldr	r0, [r4, #0]
 162              		.loc 1 114 0
 163 000c 6361     		str	r3, [r4, #20]
 164 000e A361     		str	r3, [r4, #24]
 165              		.loc 1 115 0
 166 0010 0023     		movs	r3, #0
 167              		.loc 1 116 0
 168 0012 A042     		cmp	r0, r4
 169              		.loc 1 115 0
 170 0014 A360     		str	r3, [r4, #8]
 171              		.loc 1 116 0
ARM GAS  C:\cygwin\tmp\ccoPYz1h.s 			page 4


 172 0016 0AD0     		beq	.L7
 173              		.loc 1 117 0
 174 0018 6FF00105 		mvn	r5, #1
 175              	.L11:
 176              	.LVL10:
 177              	.LBB16:
 178              	.LBB17:
 179              		.loc 2 55 0
 180 001c 0368     		ldr	r3, [r0, #0]
 181 001e 2360     		str	r3, [r4, #0]
 182 0020 5C60     		str	r4, [r3, #4]
 183              	.LBE17:
 184              	.LBE16:
 185              		.loc 1 117 0
 186 0022 FFF7FEFF 		bl	chSchReadyI
 187              	.LVL11:
 188 0026 8562     		str	r5, [r0, #40]
 189              		.loc 1 116 0
 190 0028 2068     		ldr	r0, [r4, #0]
 191 002a A042     		cmp	r0, r4
 192 002c F6D1     		bne	.L11
 193              	.LVL12:
 194              	.L7:
 195 002e 38BD     		pop	{r3, r4, r5, pc}
 196              		.cfi_endproc
 197              	.LFE9:
 198              		.size	chIQResetI, .-chIQResetI
 199              		.section	.text.chIQPutI,"ax",%progbits
 200              		.align	2
 201              		.p2align 4,,15
 202              		.global	chIQPutI
 203              		.thumb
 204              		.thumb_func
 205              		.type	chIQPutI, %function
 206              	chIQPutI:
 207              	.LFB10:
 208              		.loc 1 133 0
 209              		.cfi_startproc
 210              		@ args = 0, pretend = 0, frame = 0
 211              		@ frame_needed = 0, uses_anonymous_args = 0
 212              	.LVL13:
 213 0000 38B5     		push	{r3, r4, r5, lr}
 214              	.LCFI3:
 215              		.cfi_def_cfa_offset 16
 216              		.cfi_offset 3, -16
 217              		.cfi_offset 4, -12
 218              		.cfi_offset 5, -8
 219              		.cfi_offset 14, -4
 220              		.loc 1 133 0
 221 0002 0446     		mov	r4, r0
 222 0004 0D46     		mov	r5, r1
 223              		.loc 1 135 0
 224 0006 FFF7FEFF 		bl	chDbgCheckClassI
 225              	.LVL14:
 226              		.loc 1 137 0
 227 000a A269     		ldr	r2, [r4, #24]
 228 000c 6369     		ldr	r3, [r4, #20]
ARM GAS  C:\cygwin\tmp\ccoPYz1h.s 			page 5


 229 000e 9342     		cmp	r3, r2
 230 0010 A268     		ldr	r2, [r4, #8]
 231 0012 1AD0     		beq	.L22
 232              	.L16:
 233              		.loc 1 140 0
 234 0014 0132     		adds	r2, r2, #1
 235 0016 A260     		str	r2, [r4, #8]
 236              		.loc 1 141 0
 237 0018 03F8015B 		strb	r5, [r3], #1
 238              		.loc 1 142 0
 239 001c 2269     		ldr	r2, [r4, #16]
 240              		.loc 1 141 0
 241 001e 6361     		str	r3, [r4, #20]
 242              		.loc 1 142 0
 243 0020 9342     		cmp	r3, r2
 244 0022 0BD2     		bcs	.L17
 245              		.loc 1 145 0
 246 0024 2068     		ldr	r0, [r4, #0]
 247 0026 A042     		cmp	r0, r4
 248 0028 0DD0     		beq	.L20
 249              	.L23:
 250              	.LVL15:
 251              	.LBB18:
 252              	.LBB19:
 253              		.loc 2 55 0
 254 002a 0368     		ldr	r3, [r0, #0]
 255 002c 2360     		str	r3, [r4, #0]
 256 002e 5C60     		str	r4, [r3, #4]
 257              	.LBE19:
 258              	.LBE18:
 259              		.loc 1 146 0
 260 0030 FFF7FEFF 		bl	chSchReadyI
 261              	.LVL16:
 262 0034 0023     		movs	r3, #0
 263 0036 8362     		str	r3, [r0, #40]
 264              		.loc 1 148 0
 265 0038 1846     		mov	r0, r3
 266 003a 38BD     		pop	{r3, r4, r5, pc}
 267              	.LVL17:
 268              	.L17:
 269              		.loc 1 145 0
 270 003c 2068     		ldr	r0, [r4, #0]
 271              		.loc 1 143 0
 272 003e E368     		ldr	r3, [r4, #12]
 273              		.loc 1 145 0
 274 0040 A042     		cmp	r0, r4
 275              		.loc 1 143 0
 276 0042 6361     		str	r3, [r4, #20]
 277              		.loc 1 145 0
 278 0044 F1D1     		bne	.L23
 279              	.L20:
 280              		.loc 1 148 0
 281 0046 0020     		movs	r0, #0
 282 0048 38BD     		pop	{r3, r4, r5, pc}
 283              	.L22:
 284              		.loc 1 137 0 discriminator 1
 285 004a 002A     		cmp	r2, #0
ARM GAS  C:\cygwin\tmp\ccoPYz1h.s 			page 6


 286 004c E2D0     		beq	.L16
 287              		.loc 1 138 0
 288 004e 6FF00300 		mvn	r0, #3
 289 0052 38BD     		pop	{r3, r4, r5, pc}
 290              		.cfi_endproc
 291              	.LFE10:
 292              		.size	chIQPutI, .-chIQPutI
 293 0054 AFF30080 		.section	.text.chIQGetTimeout,"ax",%progbits
 293      AFF30080 
 293      AFF30080 
 294              		.align	2
 295              		.p2align 4,,15
 296              		.global	chIQGetTimeout
 297              		.thumb
 298              		.thumb_func
 299              		.type	chIQGetTimeout, %function
 300              	chIQGetTimeout:
 301              	.LFB11:
 302              		.loc 1 171 0
 303              		.cfi_startproc
 304              		@ args = 0, pretend = 0, frame = 0
 305              		@ frame_needed = 0, uses_anonymous_args = 0
 306              	.LVL18:
 307 0000 F8B5     		push	{r3, r4, r5, r6, r7, lr}
 308              	.LCFI4:
 309              		.cfi_def_cfa_offset 24
 310              		.cfi_offset 3, -24
 311              		.cfi_offset 4, -20
 312              		.cfi_offset 5, -16
 313              		.cfi_offset 6, -12
 314              		.cfi_offset 7, -8
 315              		.cfi_offset 14, -4
 316              		.loc 1 171 0
 317 0002 0446     		mov	r4, r0
 318 0004 0E46     		mov	r6, r1
 319              	.LBB20:
 320              		.loc 1 174 0
 321 0006 2023     		movs	r3, #32
 322              	.LVL19:
 323              	@ 174 "../../../os/kernel/src/chqueues.c" 1
 324 0008 83F31188 		msr     BASEPRI, r3
 325              	@ 0 "" 2
 326              	.LVL20:
 327              		.thumb
 328              	.LBE20:
 329 000c FFF7FEFF 		bl	dbg_check_lock
 330              	.LVL21:
 331              		.loc 1 175 0
 332 0010 E369     		ldr	r3, [r4, #28]
 333 0012 0BB1     		cbz	r3, .L32
 334              		.loc 1 176 0
 335 0014 2046     		mov	r0, r4
 336 0016 9847     		blx	r3
 337              	.LVL22:
 338              	.L32:
 339              		.loc 1 178 0 discriminator 1
 340 0018 A568     		ldr	r5, [r4, #8]
ARM GAS  C:\cygwin\tmp\ccoPYz1h.s 			page 7


 341              	.LBB21:
 342              		.loc 1 180 0 discriminator 1
 343 001a 2046     		mov	r0, r4
 344 001c 3146     		mov	r1, r6
 345              	.LBE21:
 346              		.loc 1 178 0 discriminator 1
 347 001e 55B9     		cbnz	r5, .L35
 348              	.LVL23:
 349              	.LBB23:
 350              		.loc 1 180 0
 351 0020 FFF7FEFF 		bl	qwait
 352              	.LVL24:
 353 0024 071E     		subs	r7, r0, #0
 354 0026 F7DA     		bge	.L32
 355              		.loc 1 181 0
 356 0028 FFF7FEFF 		bl	dbg_check_unlock
 357              	.LVL25:
 358              	.LBB22:
 359 002c 2B46     		mov	r3, r5
 360              	.LVL26:
 361              	@ 181 "../../../os/kernel/src/chqueues.c" 1
 362 002e 83F31188 		msr     BASEPRI, r3
 363              	@ 0 "" 2
 364              	.LVL27:
 365              		.thumb
 366              	.LBE22:
 367              	.LBE23:
 368              		.loc 1 193 0
 369 0032 3846     		mov	r0, r7
 370 0034 F8BD     		pop	{r3, r4, r5, r6, r7, pc}
 371              	.LVL28:
 372              	.L35:
 373              		.loc 1 187 0
 374 0036 A369     		ldr	r3, [r4, #24]
 375              		.loc 1 188 0
 376 0038 2269     		ldr	r2, [r4, #16]
 377              		.loc 1 186 0
 378 003a 013D     		subs	r5, r5, #1
 379 003c A560     		str	r5, [r4, #8]
 380              		.loc 1 187 0
 381 003e 13F8017B 		ldrb	r7, [r3], #1	@ zero_extendqisi2
 382              	.LVL29:
 383              		.loc 1 188 0
 384 0042 9342     		cmp	r3, r2
 385              		.loc 1 187 0
 386 0044 A361     		str	r3, [r4, #24]
 387              		.loc 1 189 0
 388 0046 24BF     		itt	cs
 389 0048 E368     		ldrcs	r3, [r4, #12]
 390 004a A361     		strcs	r3, [r4, #24]
 391              		.loc 1 191 0
 392 004c FFF7FEFF 		bl	dbg_check_unlock
 393              	.LVL30:
 394              	.LBB24:
 395 0050 0023     		movs	r3, #0
 396              	.LVL31:
 397              	@ 191 "../../../os/kernel/src/chqueues.c" 1
ARM GAS  C:\cygwin\tmp\ccoPYz1h.s 			page 8


 398 0052 83F31188 		msr     BASEPRI, r3
 399              	@ 0 "" 2
 400              	.LVL32:
 401              		.thumb
 402              	.LBE24:
 403              		.loc 1 193 0
 404 0056 3846     		mov	r0, r7
 405 0058 F8BD     		pop	{r3, r4, r5, r6, r7, pc}
 406              		.cfi_endproc
 407              	.LFE11:
 408              		.size	chIQGetTimeout, .-chIQGetTimeout
 409 005a 00BFAFF3 		.section	.text.chIQReadTimeout,"ax",%progbits
 409      0080
 410              		.align	2
 411              		.p2align 4,,15
 412              		.global	chIQReadTimeout
 413              		.thumb
 414              		.thumb_func
 415              		.type	chIQReadTimeout, %function
 416              	chIQReadTimeout:
 417              	.LFB12:
 418              		.loc 1 220 0
 419              		.cfi_startproc
 420              		@ args = 0, pretend = 0, frame = 0
 421              		@ frame_needed = 0, uses_anonymous_args = 0
 422              	.LVL33:
 423 0000 2DE9F047 		push	{r4, r5, r6, r7, r8, r9, sl, lr}
 424              	.LCFI5:
 425              		.cfi_def_cfa_offset 32
 426              		.cfi_offset 4, -32
 427              		.cfi_offset 5, -28
 428              		.cfi_offset 6, -24
 429              		.cfi_offset 7, -20
 430              		.cfi_offset 8, -16
 431              		.cfi_offset 9, -12
 432              		.cfi_offset 10, -8
 433              		.cfi_offset 14, -4
 434              		.loc 1 220 0
 435 0004 0446     		mov	r4, r0
 436              		.loc 1 224 0
 437 0006 1546     		mov	r5, r2
 438              		.loc 1 220 0
 439 0008 8846     		mov	r8, r1
 440 000a 1E46     		mov	r6, r3
 441              		.loc 1 221 0
 442 000c C769     		ldr	r7, [r0, #28]
 443              	.LVL34:
 444              		.loc 1 224 0
 445 000e 002A     		cmp	r2, #0
 446 0010 3AD0     		beq	.L52
 447              	.LVL35:
 448              	.L37:
 449              	.LBB25:
 450              		.loc 1 226 0
 451 0012 2023     		movs	r3, #32
 452              	.LVL36:
 453              	@ 226 "../../../os/kernel/src/chqueues.c" 1
ARM GAS  C:\cygwin\tmp\ccoPYz1h.s 			page 9


 454 0014 83F31188 		msr     BASEPRI, r3
 455              	@ 0 "" 2
 456              	.LVL37:
 457              		.thumb
 458              	.LBE25:
 459 0018 FFF7FEFF 		bl	dbg_check_lock
 460              	.LVL38:
 461              		.loc 1 219 0
 462 001c 08F1010A 		add	sl, r8, #1
 463              		.loc 1 222 0
 464 0020 4FF00009 		mov	r9, #0
 465              		.loc 1 219 0
 466 0024 A844     		add	r8, r8, r5
 467              	.LVL39:
 468              	.L43:
 469              		.loc 1 228 0
 470 0026 0FB1     		cbz	r7, .L48
 471              		.loc 1 229 0
 472 0028 2046     		mov	r0, r4
 473 002a B847     		blx	r7
 474              	.LVL40:
 475              	.L48:
 476              		.loc 1 231 0 discriminator 1
 477 002c A568     		ldr	r5, [r4, #8]
 478              		.loc 1 232 0 discriminator 1
 479 002e 2046     		mov	r0, r4
 480 0030 3146     		mov	r1, r6
 481              		.loc 1 231 0 discriminator 1
 482 0032 5DB9     		cbnz	r5, .L53
 483              	.LVL41:
 484              		.loc 1 232 0
 485 0034 FFF7FEFF 		bl	qwait
 486              	.LVL42:
 487 0038 0028     		cmp	r0, #0
 488 003a F7D0     		beq	.L48
 489              		.loc 1 233 0
 490 003c FFF7FEFF 		bl	dbg_check_unlock
 491              	.LVL43:
 492              	.LBB26:
 493 0040 2B46     		mov	r3, r5
 494              	.LVL44:
 495              	@ 233 "../../../os/kernel/src/chqueues.c" 1
 496 0042 83F31188 		msr     BASEPRI, r3
 497              	@ 0 "" 2
 498              	.LVL45:
 499              		.thumb
 500              	.L40:
 501              	.LBE26:
 502              		.loc 1 250 0
 503 0046 4846     		mov	r0, r9
 504 0048 BDE8F087 		pop	{r4, r5, r6, r7, r8, r9, sl, pc}
 505              	.LVL46:
 506              	.L53:
 507              		.loc 1 239 0
 508 004c A369     		ldr	r3, [r4, #24]
 509              		.loc 1 238 0
 510 004e 013D     		subs	r5, r5, #1
ARM GAS  C:\cygwin\tmp\ccoPYz1h.s 			page 10


 511 0050 A560     		str	r5, [r4, #8]
 512              		.loc 1 239 0
 513 0052 13F8012B 		ldrb	r2, [r3], #1	@ zero_extendqisi2
 514 0056 0AF8012C 		strb	r2, [sl, #-1]
 515              		.loc 1 240 0
 516 005a 2269     		ldr	r2, [r4, #16]
 517              		.loc 1 239 0
 518 005c A361     		str	r3, [r4, #24]
 519              		.loc 1 240 0
 520 005e 9342     		cmp	r3, r2
 521              		.loc 1 241 0
 522 0060 24BF     		itt	cs
 523 0062 E368     		ldrcs	r3, [r4, #12]
 524 0064 A361     		strcs	r3, [r4, #24]
 525              		.loc 1 243 0
 526 0066 FFF7FEFF 		bl	dbg_check_unlock
 527              	.LVL47:
 528              	.LBB27:
 529 006a 0023     		movs	r3, #0
 530              	@ 243 "../../../os/kernel/src/chqueues.c" 1
 531 006c 83F31188 		msr     BASEPRI, r3
 532              	@ 0 "" 2
 533              	.LVL48:
 534              		.thumb
 535              	.LBE27:
 536              		.loc 1 245 0
 537 0070 C245     		cmp	sl, r8
 538              		.loc 1 244 0
 539 0072 09F10109 		add	r9, r9, #1
 540              	.LVL49:
 541              		.loc 1 245 0
 542 0076 E6D0     		beq	.L40
 543              	.LBB28:
 544              		.loc 1 248 0
 545 0078 2023     		movs	r3, #32
 546              	.LVL50:
 547              	@ 248 "../../../os/kernel/src/chqueues.c" 1
 548 007a 83F31188 		msr     BASEPRI, r3
 549              	@ 0 "" 2
 550              	.LVL51:
 551              		.thumb
 552              	.LBE28:
 553 007e FFF7FEFF 		bl	dbg_check_lock
 554              	.LVL52:
 555 0082 0AF1010A 		add	sl, sl, #1
 556              		.loc 1 249 0
 557 0086 CEE7     		b	.L43
 558              	.LVL53:
 559              	.L52:
 560              		.loc 1 224 0 discriminator 1
 561 0088 0148     		ldr	r0, .L54
 562              	.LVL54:
 563 008a FFF7FEFF 		bl	chDbgPanic
 564              	.LVL55:
 565 008e C0E7     		b	.L37
 566              	.L55:
 567              		.align	2
ARM GAS  C:\cygwin\tmp\ccoPYz1h.s 			page 11


 568              	.L54:
 569 0090 00000000 		.word	.LC0
 570              		.cfi_endproc
 571              	.LFE12:
 572              		.size	chIQReadTimeout, .-chIQReadTimeout
 573 0094 AFF30080 		.section	.text.chOQInit,"ax",%progbits
 573      AFF30080 
 573      AFF30080 
 574              		.align	2
 575              		.p2align 4,,15
 576              		.global	chOQInit
 577              		.thumb
 578              		.thumb_func
 579              		.type	chOQInit, %function
 580              	chOQInit:
 581              	.LFB13:
 582              		.loc 1 269 0
 583              		.cfi_startproc
 584              		@ args = 4, pretend = 0, frame = 0
 585              		@ frame_needed = 0, uses_anonymous_args = 0
 586              		@ link register save eliminated.
 587              	.LVL56:
 588 0000 10B4     		push	{r4}
 589              	.LCFI6:
 590              		.cfi_def_cfa_offset 4
 591              		.cfi_offset 4, -4
 592              		.loc 1 275 0
 593 0002 C361     		str	r3, [r0, #28]
 594              		.loc 1 276 0
 595 0004 019B     		ldr	r3, [sp, #4]
 596              	.LVL57:
 597              		.loc 1 271 0
 598 0006 4060     		str	r0, [r0, #4]
 599              		.loc 1 274 0
 600 0008 8C18     		adds	r4, r1, r2
 601              		.loc 1 271 0
 602 000a 0060     		str	r0, [r0, #0]
 603              		.loc 1 272 0
 604 000c 8260     		str	r2, [r0, #8]
 605              		.loc 1 273 0
 606 000e 4161     		str	r1, [r0, #20]
 607 0010 8161     		str	r1, [r0, #24]
 608 0012 C160     		str	r1, [r0, #12]
 609              		.loc 1 274 0
 610 0014 0461     		str	r4, [r0, #16]
 611              		.loc 1 276 0
 612 0016 0362     		str	r3, [r0, #32]
 613              		.loc 1 277 0
 614 0018 10BC     		pop	{r4}
 615 001a 7047     		bx	lr
 616              		.cfi_endproc
 617              	.LFE13:
 618              		.size	chOQInit, .-chOQInit
 619 001c AFF30080 		.section	.text.chOQResetI,"ax",%progbits
 620              		.align	2
 621              		.p2align 4,,15
 622              		.global	chOQResetI
ARM GAS  C:\cygwin\tmp\ccoPYz1h.s 			page 12


 623              		.thumb
 624              		.thumb_func
 625              		.type	chOQResetI, %function
 626              	chOQResetI:
 627              	.LFB14:
 628              		.loc 1 290 0
 629              		.cfi_startproc
 630              		@ args = 0, pretend = 0, frame = 0
 631              		@ frame_needed = 0, uses_anonymous_args = 0
 632              	.LVL58:
 633 0000 38B5     		push	{r3, r4, r5, lr}
 634              	.LCFI7:
 635              		.cfi_def_cfa_offset 16
 636              		.cfi_offset 3, -16
 637              		.cfi_offset 4, -12
 638              		.cfi_offset 5, -8
 639              		.cfi_offset 14, -4
 640              		.loc 1 290 0
 641 0002 0446     		mov	r4, r0
 642              		.loc 1 292 0
 643 0004 FFF7FEFF 		bl	chDbgCheckClassI
 644              	.LVL59:
 645              		.loc 1 294 0
 646 0008 E368     		ldr	r3, [r4, #12]
 647              		.loc 1 295 0
 648 000a 2269     		ldr	r2, [r4, #16]
 649              		.loc 1 296 0
 650 000c 2068     		ldr	r0, [r4, #0]
 651              		.loc 1 294 0
 652 000e 6361     		str	r3, [r4, #20]
 653              		.loc 1 295 0
 654 0010 D21A     		subs	r2, r2, r3
 655              		.loc 1 296 0
 656 0012 A042     		cmp	r0, r4
 657              		.loc 1 294 0
 658 0014 A361     		str	r3, [r4, #24]
 659              		.loc 1 295 0
 660 0016 A260     		str	r2, [r4, #8]
 661              		.loc 1 296 0
 662 0018 0AD0     		beq	.L57
 663              		.loc 1 297 0
 664 001a 6FF00105 		mvn	r5, #1
 665              	.L61:
 666              	.LVL60:
 667              	.LBB29:
 668              	.LBB30:
 669              		.loc 2 55 0
 670 001e 0368     		ldr	r3, [r0, #0]
 671 0020 2360     		str	r3, [r4, #0]
 672 0022 5C60     		str	r4, [r3, #4]
 673              	.LBE30:
 674              	.LBE29:
 675              		.loc 1 297 0
 676 0024 FFF7FEFF 		bl	chSchReadyI
 677              	.LVL61:
 678 0028 8562     		str	r5, [r0, #40]
 679              		.loc 1 296 0
ARM GAS  C:\cygwin\tmp\ccoPYz1h.s 			page 13


 680 002a 2068     		ldr	r0, [r4, #0]
 681 002c A042     		cmp	r0, r4
 682 002e F6D1     		bne	.L61
 683              	.LVL62:
 684              	.L57:
 685 0030 38BD     		pop	{r3, r4, r5, pc}
 686              		.cfi_endproc
 687              	.LFE14:
 688              		.size	chOQResetI, .-chOQResetI
 689 0032 00BFAFF3 		.section	.text.chOQPutTimeout,"ax",%progbits
 689      0080AFF3 
 689      0080AFF3 
 689      0080
 690              		.align	2
 691              		.p2align 4,,15
 692              		.global	chOQPutTimeout
 693              		.thumb
 694              		.thumb_func
 695              		.type	chOQPutTimeout, %function
 696              	chOQPutTimeout:
 697              	.LFB15:
 698              		.loc 1 322 0
 699              		.cfi_startproc
 700              		@ args = 0, pretend = 0, frame = 0
 701              		@ frame_needed = 0, uses_anonymous_args = 0
 702              	.LVL63:
 703 0000 2DE9F041 		push	{r4, r5, r6, r7, r8, lr}
 704              	.LCFI8:
 705              		.cfi_def_cfa_offset 24
 706              		.cfi_offset 4, -24
 707              		.cfi_offset 5, -20
 708              		.cfi_offset 6, -16
 709              		.cfi_offset 7, -12
 710              		.cfi_offset 8, -8
 711              		.cfi_offset 14, -4
 712              	.LBB31:
 713              		.loc 1 324 0
 714 0004 2023     		movs	r3, #32
 715              	.LVL64:
 716              	.LBE31:
 717              		.loc 1 322 0
 718 0006 0446     		mov	r4, r0
 719 0008 8846     		mov	r8, r1
 720 000a 1646     		mov	r6, r2
 721              	.LBB32:
 722              		.loc 1 324 0
 723              	@ 324 "../../../os/kernel/src/chqueues.c" 1
 724 000c 83F31188 		msr     BASEPRI, r3
 725              	@ 0 "" 2
 726              	.LVL65:
 727              		.thumb
 728              	.LBE32:
 729 0010 FFF7FEFF 		bl	dbg_check_lock
 730              	.LVL66:
 731              	.L64:
 732              		.loc 1 325 0 discriminator 1
 733 0014 A568     		ldr	r5, [r4, #8]
ARM GAS  C:\cygwin\tmp\ccoPYz1h.s 			page 14


 734              	.LBB33:
 735              		.loc 1 328 0 discriminator 1
 736 0016 2046     		mov	r0, r4
 737 0018 3146     		mov	r1, r6
 738              	.LBE33:
 739              		.loc 1 325 0 discriminator 1
 740 001a 5DB9     		cbnz	r5, .L73
 741              	.LVL67:
 742              	.LBB35:
 743              		.loc 1 328 0
 744 001c FFF7FEFF 		bl	qwait
 745              	.LVL68:
 746 0020 071E     		subs	r7, r0, #0
 747 0022 F7DA     		bge	.L64
 748              		.loc 1 329 0
 749 0024 FFF7FEFF 		bl	dbg_check_unlock
 750              	.LVL69:
 751              	.LBB34:
 752 0028 2B46     		mov	r3, r5
 753              	.LVL70:
 754              	@ 329 "../../../os/kernel/src/chqueues.c" 1
 755 002a 83F31188 		msr     BASEPRI, r3
 756              	@ 0 "" 2
 757              	.LVL71:
 758              		.thumb
 759              	.LBE34:
 760              	.LBE35:
 761              		.loc 1 344 0
 762 002e 3846     		mov	r0, r7
 763 0030 BDE8F081 		pop	{r4, r5, r6, r7, r8, pc}
 764              	.LVL72:
 765              	.L73:
 766              		.loc 1 335 0
 767 0034 6369     		ldr	r3, [r4, #20]
 768              		.loc 1 334 0
 769 0036 013D     		subs	r5, r5, #1
 770 0038 A560     		str	r5, [r4, #8]
 771              		.loc 1 335 0
 772 003a 03F8018B 		strb	r8, [r3], #1
 773              		.loc 1 336 0
 774 003e 2269     		ldr	r2, [r4, #16]
 775              		.loc 1 335 0
 776 0040 6361     		str	r3, [r4, #20]
 777              		.loc 1 336 0
 778 0042 9342     		cmp	r3, r2
 779              		.loc 1 337 0
 780 0044 24BF     		itt	cs
 781 0046 E368     		ldrcs	r3, [r4, #12]
 782 0048 6361     		strcs	r3, [r4, #20]
 783              		.loc 1 339 0
 784 004a E369     		ldr	r3, [r4, #28]
 785 004c 0BB1     		cbz	r3, .L68
 786              		.loc 1 340 0
 787 004e 2046     		mov	r0, r4
 788              	.LVL73:
 789 0050 9847     		blx	r3
 790              	.LVL74:
ARM GAS  C:\cygwin\tmp\ccoPYz1h.s 			page 15


 791              	.L68:
 792              		.loc 1 342 0
 793 0052 FFF7FEFF 		bl	dbg_check_unlock
 794              	.LVL75:
 795              	.LBB36:
 796 0056 0023     		movs	r3, #0
 797              	.LVL76:
 798              	@ 342 "../../../os/kernel/src/chqueues.c" 1
 799 0058 83F31188 		msr     BASEPRI, r3
 800              	@ 0 "" 2
 801              	.LVL77:
 802              		.thumb
 803              	.LBE36:
 804              		.loc 1 343 0
 805 005c 1F46     		mov	r7, r3
 806              		.loc 1 344 0
 807 005e 3846     		mov	r0, r7
 808 0060 BDE8F081 		pop	{r4, r5, r6, r7, r8, pc}
 809              		.cfi_endproc
 810              	.LFE15:
 811              		.size	chOQPutTimeout, .-chOQPutTimeout
 812 0064 AFF30080 		.section	.text.chOQGetI,"ax",%progbits
 812      AFF30080 
 812      AFF30080 
 813              		.align	2
 814              		.p2align 4,,15
 815              		.global	chOQGetI
 816              		.thumb
 817              		.thumb_func
 818              		.type	chOQGetI, %function
 819              	chOQGetI:
 820              	.LFB16:
 821              		.loc 1 356 0
 822              		.cfi_startproc
 823              		@ args = 0, pretend = 0, frame = 0
 824              		@ frame_needed = 0, uses_anonymous_args = 0
 825              	.LVL78:
 826 0000 38B5     		push	{r3, r4, r5, lr}
 827              	.LCFI9:
 828              		.cfi_def_cfa_offset 16
 829              		.cfi_offset 3, -16
 830              		.cfi_offset 4, -12
 831              		.cfi_offset 5, -8
 832              		.cfi_offset 14, -4
 833              		.loc 1 356 0
 834 0002 0446     		mov	r4, r0
 835              		.loc 1 359 0
 836 0004 FFF7FEFF 		bl	chDbgCheckClassI
 837              	.LVL79:
 838              		.loc 1 361 0
 839 0008 6269     		ldr	r2, [r4, #20]
 840 000a A369     		ldr	r3, [r4, #24]
 841 000c 9A42     		cmp	r2, r3
 842 000e A268     		ldr	r2, [r4, #8]
 843 0010 16D0     		beq	.L83
 844              	.L77:
 845              		.loc 1 364 0
ARM GAS  C:\cygwin\tmp\ccoPYz1h.s 			page 16


 846 0012 0132     		adds	r2, r2, #1
 847 0014 A260     		str	r2, [r4, #8]
 848              		.loc 1 365 0
 849 0016 13F8015B 		ldrb	r5, [r3], #1	@ zero_extendqisi2
 850              	.LVL80:
 851              		.loc 1 366 0
 852 001a 2269     		ldr	r2, [r4, #16]
 853              		.loc 1 365 0
 854 001c A361     		str	r3, [r4, #24]
 855              		.loc 1 366 0
 856 001e 9342     		cmp	r3, r2
 857 0020 0BD2     		bcs	.L79
 858              	.L80:
 859              		.loc 1 369 0
 860 0022 2068     		ldr	r0, [r4, #0]
 861 0024 A042     		cmp	r0, r4
 862 0026 06D0     		beq	.L78
 863              	.LVL81:
 864              	.LBB37:
 865              	.LBB38:
 866              		.loc 2 55 0
 867 0028 0368     		ldr	r3, [r0, #0]
 868 002a 2360     		str	r3, [r4, #0]
 869 002c 5C60     		str	r4, [r3, #4]
 870              	.LBE38:
 871              	.LBE37:
 872              		.loc 1 370 0
 873 002e FFF7FEFF 		bl	chSchReadyI
 874              	.LVL82:
 875 0032 0023     		movs	r3, #0
 876 0034 8362     		str	r3, [r0, #40]
 877              	.LVL83:
 878              	.L78:
 879              		.loc 1 372 0
 880 0036 2846     		mov	r0, r5
 881 0038 38BD     		pop	{r3, r4, r5, pc}
 882              	.LVL84:
 883              	.L79:
 884              		.loc 1 367 0
 885 003a E368     		ldr	r3, [r4, #12]
 886 003c A361     		str	r3, [r4, #24]
 887 003e F0E7     		b	.L80
 888              	.LVL85:
 889              	.L83:
 890              		.loc 1 361 0 discriminator 1
 891 0040 002A     		cmp	r2, #0
 892 0042 E6D0     		beq	.L77
 893              		.loc 1 362 0
 894 0044 6FF00200 		mvn	r0, #2
 895 0048 38BD     		pop	{r3, r4, r5, pc}
 896              		.cfi_endproc
 897              	.LFE16:
 898              		.size	chOQGetI, .-chOQGetI
 899 004a 00BFAFF3 		.section	.text.chOQWriteTimeout,"ax",%progbits
 899      0080
 900              		.align	2
 901              		.p2align 4,,15
ARM GAS  C:\cygwin\tmp\ccoPYz1h.s 			page 17


 902              		.global	chOQWriteTimeout
 903              		.thumb
 904              		.thumb_func
 905              		.type	chOQWriteTimeout, %function
 906              	chOQWriteTimeout:
 907              	.LFB17:
 908              		.loc 1 400 0
 909              		.cfi_startproc
 910              		@ args = 0, pretend = 0, frame = 0
 911              		@ frame_needed = 0, uses_anonymous_args = 0
 912              	.LVL86:
 913 0000 2DE9F047 		push	{r4, r5, r6, r7, r8, r9, sl, lr}
 914              	.LCFI10:
 915              		.cfi_def_cfa_offset 32
 916              		.cfi_offset 4, -32
 917              		.cfi_offset 5, -28
 918              		.cfi_offset 6, -24
 919              		.cfi_offset 7, -20
 920              		.cfi_offset 8, -16
 921              		.cfi_offset 9, -12
 922              		.cfi_offset 10, -8
 923              		.cfi_offset 14, -4
 924              		.loc 1 400 0
 925 0004 0446     		mov	r4, r0
 926              		.loc 1 404 0
 927 0006 1646     		mov	r6, r2
 928              		.loc 1 400 0
 929 0008 8846     		mov	r8, r1
 930 000a 9A46     		mov	sl, r3
 931              		.loc 1 401 0
 932 000c D0F81C90 		ldr	r9, [r0, #28]
 933              	.LVL87:
 934              		.loc 1 404 0
 935 0010 002A     		cmp	r2, #0
 936 0012 39D0     		beq	.L104
 937              	.LVL88:
 938              	.L85:
 939              	.LBB39:
 940              		.loc 1 406 0
 941 0014 2023     		movs	r3, #32
 942              	.LVL89:
 943              	@ 406 "../../../os/kernel/src/chqueues.c" 1
 944 0016 83F31188 		msr     BASEPRI, r3
 945              	@ 0 "" 2
 946              	.LVL90:
 947              		.thumb
 948              	.LBE39:
 949 001a FFF7FEFF 		bl	dbg_check_lock
 950              	.LVL91:
 951              		.loc 1 402 0
 952 001e 0027     		movs	r7, #0
 953              	.LVL92:
 954              	.L103:
 955              		.loc 1 408 0 discriminator 1
 956 0020 A568     		ldr	r5, [r4, #8]
 957              		.loc 1 420 0 discriminator 1
 958 0022 2046     		mov	r0, r4
ARM GAS  C:\cygwin\tmp\ccoPYz1h.s 			page 18


 959              		.loc 1 414 0 discriminator 1
 960 0024 6B1E     		subs	r3, r5, #1
 961              		.loc 1 408 0 discriminator 1
 962 0026 0DB3     		cbz	r5, .L89
 963              	.LVL93:
 964              	.L105:
 965              		.loc 1 414 0
 966 0028 A360     		str	r3, [r4, #8]
 967              		.loc 1 415 0
 968 002a 18F8013B 		ldrb	r3, [r8], #1	@ zero_extendqisi2
 969              	.LVL94:
 970 002e 6569     		ldr	r5, [r4, #20]
 971 0030 05F8013B 		strb	r3, [r5], #1
 972              		.loc 1 416 0
 973 0034 2369     		ldr	r3, [r4, #16]
 974              		.loc 1 415 0
 975 0036 6561     		str	r5, [r4, #20]
 976              	.LVL95:
 977              		.loc 1 416 0
 978 0038 9D42     		cmp	r5, r3
 979              		.loc 1 417 0
 980 003a 24BF     		itt	cs
 981 003c E368     		ldrcs	r3, [r4, #12]
 982 003e 6361     		strcs	r3, [r4, #20]
 983              		.loc 1 419 0
 984 0040 B9F1000F 		cmp	r9, #0
 985 0044 00D0     		beq	.L91
 986              		.loc 1 420 0
 987 0046 C847     		blx	r9
 988              	.LVL96:
 989              	.L91:
 990              		.loc 1 422 0
 991 0048 FFF7FEFF 		bl	dbg_check_unlock
 992              	.LVL97:
 993              	.LBB40:
 994 004c 0023     		movs	r3, #0
 995              	.LVL98:
 996              	@ 422 "../../../os/kernel/src/chqueues.c" 1
 997 004e 83F31188 		msr     BASEPRI, r3
 998              	@ 0 "" 2
 999              	.LVL99:
 1000              		.thumb
 1001              	.LBE40:
 1002              		.loc 1 423 0
 1003 0052 0137     		adds	r7, r7, #1
 1004              	.LVL100:
 1005              		.loc 1 424 0
 1006 0054 013E     		subs	r6, r6, #1
 1007              	.LVL101:
 1008 0056 14D0     		beq	.L88
 1009              	.LBB41:
 1010              		.loc 1 426 0
 1011 0058 2023     		movs	r3, #32
 1012              	.LVL102:
 1013              	@ 426 "../../../os/kernel/src/chqueues.c" 1
 1014 005a 83F31188 		msr     BASEPRI, r3
 1015              	@ 0 "" 2
ARM GAS  C:\cygwin\tmp\ccoPYz1h.s 			page 19


 1016              	.LVL103:
 1017              		.thumb
 1018              	.LBE41:
 1019 005e FFF7FEFF 		bl	dbg_check_lock
 1020              	.LVL104:
 1021              		.loc 1 408 0
 1022 0062 A568     		ldr	r5, [r4, #8]
 1023              		.loc 1 420 0
 1024 0064 2046     		mov	r0, r4
 1025              		.loc 1 414 0
 1026 0066 6B1E     		subs	r3, r5, #1
 1027              		.loc 1 408 0
 1028 0068 002D     		cmp	r5, #0
 1029 006a DDD1     		bne	.L105
 1030              	.LVL105:
 1031              	.L89:
 1032              		.loc 1 409 0
 1033 006c 2046     		mov	r0, r4
 1034              	.LVL106:
 1035 006e 5146     		mov	r1, sl
 1036 0070 FFF7FEFF 		bl	qwait
 1037              	.LVL107:
 1038 0074 0028     		cmp	r0, #0
 1039 0076 D3D0     		beq	.L103
 1040              		.loc 1 410 0
 1041 0078 FFF7FEFF 		bl	dbg_check_unlock
 1042              	.LVL108:
 1043              	.LBB42:
 1044 007c 2B46     		mov	r3, r5
 1045              	.LVL109:
 1046              	@ 410 "../../../os/kernel/src/chqueues.c" 1
 1047 007e 83F31188 		msr     BASEPRI, r3
 1048              	@ 0 "" 2
 1049              	.LVL110:
 1050              		.thumb
 1051              	.L88:
 1052              	.LBE42:
 1053              		.loc 1 428 0
 1054 0082 3846     		mov	r0, r7
 1055 0084 BDE8F087 		pop	{r4, r5, r6, r7, r8, r9, sl, pc}
 1056              	.LVL111:
 1057              	.L104:
 1058              		.loc 1 404 0 discriminator 1
 1059 0088 0148     		ldr	r0, .L106
 1060              	.LVL112:
 1061 008a FFF7FEFF 		bl	chDbgPanic
 1062              	.LVL113:
 1063 008e C1E7     		b	.L85
 1064              	.L107:
 1065              		.align	2
 1066              	.L106:
 1067 0090 14000000 		.word	.LC1
 1068              		.cfi_endproc
 1069              	.LFE17:
 1070              		.size	chOQWriteTimeout, .-chOQWriteTimeout
 1071 0094 AFF30080 		.section	.rodata.str1.4,"aMS",%progbits,1
 1071      AFF30080 
ARM GAS  C:\cygwin\tmp\ccoPYz1h.s 			page 20


 1071      AFF30080 
 1072              		.align	2
 1073              	.LC0:
 1074 0000 22636849 		.ascii	"\"chIQReadTimeout\"()\000"
 1074      51526561 
 1074      6454696D 
 1074      656F7574 
 1074      22282900 
 1075              	.LC1:
 1076 0014 2263684F 		.ascii	"\"chOQWriteTimeout\"()\000"
 1076      51577269 
 1076      74655469 
 1076      6D656F75 
 1076      74222829 
 1077 0029 000000   		.text
 1078              	.Letext0:
 1079              		.file 3 "c:\\develop\\gimst\\chibistudio\\tools\\yagarto-tools\\yagarto-20121222\\bin\\../lib/gcc/
 1080              		.file 4 "c:/develop/gimst/chibistudio/tools/yagarto-tools/yagarto-20121222/lib/gcc/../../arm-none-
 1081              		.file 5 "../../../os/ports/GCC/ARMCMx/chtypes.h"
 1082              		.file 6 "../../../os/kernel/include/chlists.h"
 1083              		.file 7 "../../../os/kernel/include/chthreads.h"
 1084              		.file 8 "../../../os/ports/GCC/ARMCMx/chcore_v7m.h"
 1085              		.file 9 "../../../os/kernel/include/chschd.h"
 1086              		.file 10 "../../../os/kernel/include/chmtx.h"
 1087              		.file 11 "../../../os/kernel/include/chqueues.h"
 1088              		.file 12 "../../../os/kernel/include/chdebug.h"