ARM GAS  C:\Users\TAISIK~1\AppData\Local\Temp\cc9lh4mf.s 			page 1


   1              		.syntax unified
   2              		.cpu cortex-m4
   3              		.fpu softvfp
   4              		.eabi_attribute 20, 1
   5              		.eabi_attribute 21, 1
   6              		.eabi_attribute 23, 3
   7              		.eabi_attribute 24, 1
   8              		.eabi_attribute 25, 1
   9              		.eabi_attribute 26, 1
  10              		.eabi_attribute 30, 2
  11              		.eabi_attribute 34, 1
  12              		.eabi_attribute 18, 4
  13              		.thumb
  14              		.file	"chdynamic.c"
  15              		.text
  16              	.Ltext0:
  17              		.cfi_sections	.debug_frame
  18              		.section	.text.chThdAddRef,"ax",%progbits
  19              		.align	2
  20              		.p2align 4,,15
  21              		.global	chThdAddRef
  22              		.thumb
  23              		.thumb_func
  24              		.type	chThdAddRef, %function
  25              	chThdAddRef:
  26              	.LFB7:
  27              		.file 1 "../../os/kernel/src/chdynamic.c"
  28              		.loc 1 45 0
  29              		.cfi_startproc
  30              		@ args = 0, pretend = 0, frame = 0
  31              		@ frame_needed = 0, uses_anonymous_args = 0
  32              		@ link register save eliminated.
  33              	.LVL0:
  34              	.LBB2:
  35              		.loc 1 47 0
  36 0000 2023     		movs	r3, #32
  37              	.LVL1:
  38              	@ 47 "../../os/kernel/src/chdynamic.c" 1
  39 0002 83F31188 		msr     BASEPRI, r3
  40              	@ 0 "" 2
  41              	.LVL2:
  42              		.thumb
  43              	.LBE2:
  44              		.loc 1 49 0
  45 0006 817F     		ldrb	r1, [r0, #30]	@ zero_extendqisi2
  46 0008 4B1C     		adds	r3, r1, #1
  47              	.LVL3:
  48 000a 8377     		strb	r3, [r0, #30]
  49              	.LBB3:
  50              		.loc 1 50 0
  51 000c 0023     		movs	r3, #0
  52              	.LVL4:
  53              	@ 50 "../../os/kernel/src/chdynamic.c" 1
  54 000e 83F31188 		msr     BASEPRI, r3
  55              	@ 0 "" 2
  56              	.LVL5:
  57              		.thumb
ARM GAS  C:\Users\TAISIK~1\AppData\Local\Temp\cc9lh4mf.s 			page 2


  58              	.LBE3:
  59              		.loc 1 52 0
  60 0012 7047     		bx	lr
  61              		.cfi_endproc
  62              	.LFE7:
  63              		.size	chThdAddRef, .-chThdAddRef
  64 0014 AFF30080 		.section	.text.chThdRelease,"ax",%progbits
  64      AFF30080 
  64      AFF30080 
  65              		.align	2
  66              		.p2align 4,,15
  67              		.global	chThdRelease
  68              		.thumb
  69              		.thumb_func
  70              		.type	chThdRelease, %function
  71              	chThdRelease:
  72              	.LFB8:
  73              		.loc 1 67 0
  74              		.cfi_startproc
  75              		@ args = 0, pretend = 0, frame = 0
  76              		@ frame_needed = 0, uses_anonymous_args = 0
  77              		@ link register save eliminated.
  78              	.LVL6:
  79              		.loc 1 67 0
  80 0000 0146     		mov	r1, r0
  81              	.LBB4:
  82              		.loc 1 70 0
  83 0002 2023     		movs	r3, #32
  84              	.LVL7:
  85              	@ 70 "../../os/kernel/src/chdynamic.c" 1
  86 0004 83F31188 		msr     BASEPRI, r3
  87              	@ 0 "" 2
  88              	.LVL8:
  89              		.thumb
  90              	.LBE4:
  91              		.loc 1 72 0
  92 0008 837F     		ldrb	r3, [r0, #30]	@ zero_extendqisi2
  93              	.LVL9:
  94 000a 581E     		subs	r0, r3, #1
  95              	.LVL10:
  96 000c C2B2     		uxtb	r2, r0
  97 000e 8A77     		strb	r2, [r1, #30]
  98              	.LVL11:
  99              	.LBB5:
 100              		.loc 1 73 0
 101 0010 0023     		movs	r3, #0
 102              	.LVL12:
 103              	@ 73 "../../os/kernel/src/chdynamic.c" 1
 104 0012 83F31188 		msr     BASEPRI, r3
 105              	@ 0 "" 2
 106              	.LVL13:
 107              		.thumb
 108              	.LBE5:
 109              		.loc 1 78 0
 110 0016 12B9     		cbnz	r2, .L2
 111              		.loc 1 78 0 is_stmt 0 discriminator 1
 112 0018 0A7F     		ldrb	r2, [r1, #28]	@ zero_extendqisi2
ARM GAS  C:\Users\TAISIK~1\AppData\Local\Temp\cc9lh4mf.s 			page 3


 113              	.LVL14:
 114 001a 0E2A     		cmp	r2, #14
 115 001c 00D0     		beq	.L7
 116              	.L2:
 117 001e 7047     		bx	lr
 118              	.L7:
 119              		.loc 1 79 0 is_stmt 1
 120 0020 487F     		ldrb	r0, [r1, #29]	@ zero_extendqisi2
 121 0022 00F00303 		and	r3, r0, #3
 122              	.LVL15:
 123 0026 012B     		cmp	r3, #1
 124 0028 09D0     		beq	.L4
 125 002a 022B     		cmp	r3, #2
 126 002c F7D1     		bne	.L2
 127              		.loc 1 91 0
 128 002e 4B69     		ldr	r3, [r1, #20]
 129 0030 0A69     		ldr	r2, [r1, #16]
 130              		.loc 1 93 0
 131 0032 486C     		ldr	r0, [r1, #68]
 132              		.loc 1 91 0
 133 0034 1A61     		str	r2, [r3, #16]
 134 0036 0A69     		ldr	r2, [r1, #16]
 135 0038 5361     		str	r3, [r2, #20]
 136              		.loc 1 98 0
 137              		.loc 1 93 0
 138 003a FFF7FEBF 		b	chPoolFree
 139              	.LVL16:
 140              	.L4:
 141              		.loc 1 83 0
 142 003e 4B69     		ldr	r3, [r1, #20]
 143 0040 0869     		ldr	r0, [r1, #16]
 144 0042 1861     		str	r0, [r3, #16]
 145 0044 0A69     		ldr	r2, [r1, #16]
 146              		.loc 1 85 0
 147 0046 0846     		mov	r0, r1
 148              		.loc 1 83 0
 149 0048 5361     		str	r3, [r2, #20]
 150              		.loc 1 98 0
 151              		.loc 1 85 0
 152 004a FFF7FEBF 		b	chHeapFree
 153              	.LVL17:
 154              		.cfi_endproc
 155              	.LFE8:
 156              		.size	chThdRelease, .-chThdRelease
 157 004e 00BF     		.section	.text.chThdCreateFromHeap,"ax",%progbits
 158              		.align	2
 159              		.p2align 4,,15
 160              		.global	chThdCreateFromHeap
 161              		.thumb
 162              		.thumb_func
 163              		.type	chThdCreateFromHeap, %function
 164              	chThdCreateFromHeap:
 165              	.LFB9:
 166              		.loc 1 124 0
 167              		.cfi_startproc
 168              		@ args = 4, pretend = 0, frame = 0
 169              		@ frame_needed = 0, uses_anonymous_args = 0
ARM GAS  C:\Users\TAISIK~1\AppData\Local\Temp\cc9lh4mf.s 			page 4


 170              	.LVL18:
 171 0000 70B5     		push	{r4, r5, r6, lr}
 172              	.LCFI0:
 173              		.cfi_def_cfa_offset 16
 174              		.cfi_offset 14, -4
 175              		.cfi_offset 6, -8
 176              		.cfi_offset 5, -12
 177              		.cfi_offset 4, -16
 178 0002 82B0     		sub	sp, sp, #8
 179              	.LCFI1:
 180              		.cfi_def_cfa_offset 24
 181              		.loc 1 124 0
 182 0004 0C46     		mov	r4, r1
 183 0006 1546     		mov	r5, r2
 184 0008 1E46     		mov	r6, r3
 185              		.loc 1 128 0
 186 000a FFF7FEFF 		bl	chHeapAlloc
 187              	.LVL19:
 188              		.loc 1 129 0
 189 000e A8B1     		cbz	r0, .L10
 190              	.LBB6:
 191              		.loc 1 141 0
 192 0010 2023     		movs	r3, #32
 193              	.LVL20:
 194              	@ 141 "../../os/kernel/src/chdynamic.c" 1
 195 0012 83F31188 		msr     BASEPRI, r3
 196              	@ 0 "" 2
 197              	.LVL21:
 198              		.thumb
 199              	.LBE6:
 200              		.loc 1 142 0
 201 0016 2146     		mov	r1, r4
 202 0018 069C     		ldr	r4, [sp, #24]
 203              	.LVL22:
 204 001a 3346     		mov	r3, r6
 205              	.LVL23:
 206 001c 2A46     		mov	r2, r5
 207 001e 0094     		str	r4, [sp, #0]
 208 0020 FFF7FEFF 		bl	chThdCreateI
 209              	.LVL24:
 210              		.loc 1 143 0
 211 0024 0123     		movs	r3, #1
 212 0026 4377     		strb	r3, [r0, #29]
 213              		.loc 1 144 0
 214 0028 0021     		movs	r1, #0
 215              		.loc 1 142 0
 216 002a 0446     		mov	r4, r0
 217              	.LVL25:
 218              		.loc 1 144 0
 219 002c FFF7FEFF 		bl	chSchWakeupS
 220              	.LVL26:
 221              	.LBB7:
 222              		.loc 1 145 0
 223 0030 0023     		movs	r3, #0
 224              	.LVL27:
 225              	@ 145 "../../os/kernel/src/chdynamic.c" 1
 226 0032 83F31188 		msr     BASEPRI, r3
ARM GAS  C:\Users\TAISIK~1\AppData\Local\Temp\cc9lh4mf.s 			page 5


 227              	@ 0 "" 2
 228              	.LVL28:
 229              		.thumb
 230              	.L9:
 231              	.LBE7:
 232              		.loc 1 147 0
 233 0036 2046     		mov	r0, r4
 234 0038 02B0     		add	sp, sp, #8
 235 003a 70BD     		pop	{r4, r5, r6, pc}
 236              	.LVL29:
 237              	.L10:
 238              		.loc 1 130 0
 239 003c 0446     		mov	r4, r0
 240              	.LVL30:
 241 003e FAE7     		b	.L9
 242              		.cfi_endproc
 243              	.LFE9:
 244              		.size	chThdCreateFromHeap, .-chThdCreateFromHeap
 245              		.section	.text.chThdCreateFromMemoryPool,"ax",%progbits
 246              		.align	2
 247              		.p2align 4,,15
 248              		.global	chThdCreateFromMemoryPool
 249              		.thumb
 250              		.thumb_func
 251              		.type	chThdCreateFromMemoryPool, %function
 252              	chThdCreateFromMemoryPool:
 253              	.LFB10:
 254              		.loc 1 173 0
 255              		.cfi_startproc
 256              		@ args = 0, pretend = 0, frame = 0
 257              		@ frame_needed = 0, uses_anonymous_args = 0
 258              	.LVL31:
 259 0000 F0B5     		push	{r4, r5, r6, r7, lr}
 260              	.LCFI2:
 261              		.cfi_def_cfa_offset 20
 262              		.cfi_offset 14, -4
 263              		.cfi_offset 7, -8
 264              		.cfi_offset 6, -12
 265              		.cfi_offset 5, -16
 266              		.cfi_offset 4, -20
 267 0002 83B0     		sub	sp, sp, #12
 268              	.LCFI3:
 269              		.cfi_def_cfa_offset 32
 270              		.loc 1 173 0
 271 0004 0446     		mov	r4, r0
 272 0006 0D46     		mov	r5, r1
 273 0008 1646     		mov	r6, r2
 274 000a 1F46     		mov	r7, r3
 275              		.loc 1 179 0
 276 000c FFF7FEFF 		bl	chPoolAlloc
 277              	.LVL32:
 278              		.loc 1 180 0
 279 0010 A8B1     		cbz	r0, .L13
 280              	.LBB8:
 281              		.loc 1 192 0
 282 0012 2023     		movs	r3, #32
 283              	.LVL33:
ARM GAS  C:\Users\TAISIK~1\AppData\Local\Temp\cc9lh4mf.s 			page 6


 284              	@ 192 "../../os/kernel/src/chdynamic.c" 1
 285 0014 83F31188 		msr     BASEPRI, r3
 286              	@ 0 "" 2
 287              	.LVL34:
 288              		.thumb
 289              	.LBE8:
 290              		.loc 1 193 0
 291 0018 6168     		ldr	r1, [r4, #4]
 292 001a 0097     		str	r7, [sp, #0]
 293 001c 2A46     		mov	r2, r5
 294 001e 3346     		mov	r3, r6
 295              	.LVL35:
 296 0020 FFF7FEFF 		bl	chThdCreateI
 297              	.LVL36:
 298              		.loc 1 194 0
 299 0024 0223     		movs	r3, #2
 300 0026 4377     		strb	r3, [r0, #29]
 301              		.loc 1 195 0
 302 0028 4464     		str	r4, [r0, #68]
 303              		.loc 1 196 0
 304 002a 0021     		movs	r1, #0
 305              		.loc 1 193 0
 306 002c 0546     		mov	r5, r0
 307              	.LVL37:
 308              		.loc 1 196 0
 309 002e FFF7FEFF 		bl	chSchWakeupS
 310              	.LVL38:
 311              	.LBB9:
 312              		.loc 1 197 0
 313 0032 0023     		movs	r3, #0
 314              	.LVL39:
 315              	@ 197 "../../os/kernel/src/chdynamic.c" 1
 316 0034 83F31188 		msr     BASEPRI, r3
 317              	@ 0 "" 2
 318              	.LVL40:
 319              		.thumb
 320              	.L12:
 321              	.LBE9:
 322              		.loc 1 199 0
 323 0038 2846     		mov	r0, r5
 324 003a 03B0     		add	sp, sp, #12
 325 003c F0BD     		pop	{r4, r5, r6, r7, pc}
 326              	.LVL41:
 327              	.L13:
 328              		.loc 1 181 0
 329 003e 0546     		mov	r5, r0
 330              	.LVL42:
 331 0040 FAE7     		b	.L12
 332              		.cfi_endproc
 333              	.LFE10:
 334              		.size	chThdCreateFromMemoryPool, .-chThdCreateFromMemoryPool
 335 0042 00BFAFF3 		.text
 335      0080AFF3 
 335      0080AFF3 
 335      0080
 336              	.Letext0:
 337              		.file 2 "c:\\chibistudio\\tools\\gnu tools arm embedded\\4.6 2012q4\\bin\\../lib/gcc/arm-none-eabi
ARM GAS  C:\Users\TAISIK~1\AppData\Local\Temp\cc9lh4mf.s 			page 7


 338              		.file 3 "c:\\chibistudio\\tools\\gnu tools arm embedded\\4.6 2012q4\\bin\\../lib/gcc/arm-none-eabi
 339              		.file 4 "../../os/ports/GCC/ARMCMx/chtypes.h"
 340              		.file 5 "../../os/kernel/include/chlists.h"
 341              		.file 6 "../../os/kernel/include/chthreads.h"
 342              		.file 7 "../../os/ports/GCC/ARMCMx/chcore_v7m.h"
 343              		.file 8 "../../os/kernel/include/chmtx.h"
 344              		.file 9 "../../os/kernel/include/chmemcore.h"
 345              		.file 10 "../../os/kernel/include/chheap.h"
 346              		.file 11 "../../os/kernel/include/chmempools.h"