ARM GAS  C:\Users\TAISIK~1\AppData\Local\Temp\ccjKyvwk.s 			page 1


   1              		.syntax unified
   2              		.cpu cortex-m4
   3              		.fpu softvfp
   4              		.eabi_attribute 20, 1
   5              		.eabi_attribute 21, 1
   6              		.eabi_attribute 23, 3
   7              		.eabi_attribute 24, 1
   8              		.eabi_attribute 25, 1
   9              		.eabi_attribute 26, 1
  10              		.eabi_attribute 30, 2
  11              		.eabi_attribute 34, 1
  12              		.eabi_attribute 18, 4
  13              		.thumb
  14              		.file	"chevents.c"
  15              		.text
  16              	.Ltext0:
  17              		.cfi_sections	.debug_frame
  18              		.section	.text.chEvtRegisterMask,"ax",%progbits
  19              		.align	2
  20              		.p2align 4,,15
  21              		.global	chEvtRegisterMask
  22              		.thumb
  23              		.thumb_func
  24              		.type	chEvtRegisterMask, %function
  25              	chEvtRegisterMask:
  26              	.LFB7:
  27              		.file 1 "../../os/kernel/src/chevents.c"
  28              		.loc 1 78 0
  29              		.cfi_startproc
  30              		@ args = 0, pretend = 0, frame = 0
  31              		@ frame_needed = 0, uses_anonymous_args = 0
  32              		@ link register save eliminated.
  33              	.LVL0:
  34 0000 30B4     		push	{r4, r5}
  35              	.LCFI0:
  36              		.cfi_def_cfa_offset 8
  37              		.cfi_offset 5, -4
  38              		.cfi_offset 4, -8
  39              	.LBB2:
  40              		.loc 1 82 0
  41 0002 2023     		movs	r3, #32
  42              	.LVL1:
  43              	@ 82 "../../os/kernel/src/chevents.c" 1
  44 0004 83F31188 		msr     BASEPRI, r3
  45              	@ 0 "" 2
  46              	.LVL2:
  47              		.thumb
  48              	.LBE2:
  49              		.loc 1 85 0
  50 0008 40F20003 		movw	r3, #:lower16:rlist
  51              	.LVL3:
  52 000c C0F20003 		movt	r3, #:upper16:rlist
  53              		.loc 1 83 0
  54 0010 0468     		ldr	r4, [r0, #0]
  55              		.loc 1 85 0
  56 0012 9D69     		ldr	r5, [r3, #24]
  57              		.loc 1 83 0
ARM GAS  C:\Users\TAISIK~1\AppData\Local\Temp\ccjKyvwk.s 			page 2


  58 0014 0C60     		str	r4, [r1, #0]
  59              		.loc 1 87 0
  60 0016 0024     		movs	r4, #0
  61              		.loc 1 84 0
  62 0018 0160     		str	r1, [r0, #0]
  63              	.LBB3:
  64              		.loc 1 88 0
  65 001a 2346     		mov	r3, r4
  66              	.LVL4:
  67              	.LBE3:
  68              		.loc 1 85 0
  69 001c 4D60     		str	r5, [r1, #4]
  70              		.loc 1 86 0
  71 001e 8A60     		str	r2, [r1, #8]
  72              		.loc 1 87 0
  73 0020 CC60     		str	r4, [r1, #12]
  74              	.LBB4:
  75              		.loc 1 88 0
  76              	@ 88 "../../os/kernel/src/chevents.c" 1
  77 0022 83F31188 		msr     BASEPRI, r3
  78              	@ 0 "" 2
  79              	.LVL5:
  80              		.thumb
  81              	.LBE4:
  82              		.loc 1 89 0
  83 0026 30BC     		pop	{r4, r5}
  84 0028 7047     		bx	lr
  85              		.cfi_endproc
  86              	.LFE7:
  87              		.size	chEvtRegisterMask, .-chEvtRegisterMask
  88 002a 00BFAFF3 		.section	.text.chEvtUnregister,"ax",%progbits
  88      0080
  89              		.align	2
  90              		.p2align 4,,15
  91              		.global	chEvtUnregister
  92              		.thumb
  93              		.thumb_func
  94              		.type	chEvtUnregister, %function
  95              	chEvtUnregister:
  96              	.LFB8:
  97              		.loc 1 104 0
  98              		.cfi_startproc
  99              		@ args = 0, pretend = 0, frame = 0
 100              		@ frame_needed = 0, uses_anonymous_args = 0
 101              		@ link register save eliminated.
 102              	.LVL6:
 103              	.LBB5:
 104              		.loc 1 110 0
 105 0000 2023     		movs	r3, #32
 106              	.LVL7:
 107              	@ 110 "../../os/kernel/src/chevents.c" 1
 108 0002 83F31188 		msr     BASEPRI, r3
 109              	@ 0 "" 2
 110              	.LVL8:
 111              		.thumb
 112              	.LBE5:
 113              		.loc 1 109 0
ARM GAS  C:\Users\TAISIK~1\AppData\Local\Temp\ccjKyvwk.s 			page 3


 114 0006 0246     		mov	r2, r0
 115              		.loc 1 111 0
 116 0008 02E0     		b	.L3
 117              	.LVL9:
 118              	.L5:
 119              		.loc 1 112 0
 120 000a 9942     		cmp	r1, r3
 121 000c 07D0     		beq	.L8
 122 000e 1A46     		mov	r2, r3
 123              	.LVL10:
 124              	.L3:
 125              		.loc 1 111 0 discriminator 1
 126 0010 1368     		ldr	r3, [r2, #0]
 127              	.LVL11:
 128 0012 8342     		cmp	r3, r0
 129 0014 F9D1     		bne	.L5
 130              	.LBB6:
 131              		.loc 1 118 0
 132 0016 0023     		movs	r3, #0
 133              	.LVL12:
 134              	@ 118 "../../os/kernel/src/chevents.c" 1
 135 0018 83F31188 		msr     BASEPRI, r3
 136              	@ 0 "" 2
 137              	.LVL13:
 138              		.thumb
 139              	.LBE6:
 140              		.loc 1 119 0
 141 001c 7047     		bx	lr
 142              	.LVL14:
 143              	.L8:
 144              		.loc 1 113 0
 145 001e 0B68     		ldr	r3, [r1, #0]
 146 0020 1360     		str	r3, [r2, #0]
 147              	.LBB7:
 148              		.loc 1 118 0
 149 0022 0023     		movs	r3, #0
 150              	@ 118 "../../os/kernel/src/chevents.c" 1
 151 0024 83F31188 		msr     BASEPRI, r3
 152              	@ 0 "" 2
 153              	.LVL15:
 154              		.thumb
 155              	.LBE7:
 156              		.loc 1 119 0
 157 0028 7047     		bx	lr
 158              		.cfi_endproc
 159              	.LFE8:
 160              		.size	chEvtUnregister, .-chEvtUnregister
 161 002a 00BFAFF3 		.section	.text.chEvtGetAndClearEvents,"ax",%progbits
 161      0080
 162              		.align	2
 163              		.p2align 4,,15
 164              		.global	chEvtGetAndClearEvents
 165              		.thumb
 166              		.thumb_func
 167              		.type	chEvtGetAndClearEvents, %function
 168              	chEvtGetAndClearEvents:
 169              	.LFB9:
ARM GAS  C:\Users\TAISIK~1\AppData\Local\Temp\ccjKyvwk.s 			page 4


 170              		.loc 1 129 0
 171              		.cfi_startproc
 172              		@ args = 0, pretend = 0, frame = 0
 173              		@ frame_needed = 0, uses_anonymous_args = 0
 174              		@ link register save eliminated.
 175              	.LVL16:
 176 0000 10B4     		push	{r4}
 177              	.LCFI1:
 178              		.cfi_def_cfa_offset 4
 179              		.cfi_offset 4, -4
 180              	.LBB8:
 181              		.loc 1 132 0
 182 0002 2023     		movs	r3, #32
 183              	.LVL17:
 184              	@ 132 "../../os/kernel/src/chevents.c" 1
 185 0004 83F31188 		msr     BASEPRI, r3
 186              	@ 0 "" 2
 187              	.LVL18:
 188              		.thumb
 189              	.LBE8:
 190              		.loc 1 134 0
 191 0008 40F20004 		movw	r4, #:lower16:rlist
 192 000c C0F20004 		movt	r4, #:upper16:rlist
 193              	.LBB9:
 194              		.loc 1 137 0
 195 0010 0023     		movs	r3, #0
 196              	.LVL19:
 197              	.LBE9:
 198              		.loc 1 134 0
 199 0012 A169     		ldr	r1, [r4, #24]
 200 0014 8A6B     		ldr	r2, [r1, #56]
 201              	.LVL20:
 202              		.loc 1 135 0
 203 0016 22EA0004 		bic	r4, r2, r0
 204              	.LVL21:
 205 001a 8C63     		str	r4, [r1, #56]
 206              	.LBB10:
 207              		.loc 1 137 0
 208              	@ 137 "../../os/kernel/src/chevents.c" 1
 209 001c 83F31188 		msr     BASEPRI, r3
 210              	@ 0 "" 2
 211              	.LVL22:
 212              		.thumb
 213              	.LBE10:
 214              		.loc 1 134 0
 215 0020 1040     		ands	r0, r0, r2
 216              	.LVL23:
 217              		.loc 1 139 0
 218 0022 10BC     		pop	{r4}
 219 0024 7047     		bx	lr
 220              		.cfi_endproc
 221              	.LFE9:
 222              		.size	chEvtGetAndClearEvents, .-chEvtGetAndClearEvents
 223 0026 00BFAFF3 		.section	.text.chEvtAddEvents,"ax",%progbits
 223      0080AFF3 
 223      0080
 224              		.align	2
ARM GAS  C:\Users\TAISIK~1\AppData\Local\Temp\ccjKyvwk.s 			page 5


 225              		.p2align 4,,15
 226              		.global	chEvtAddEvents
 227              		.thumb
 228              		.thumb_func
 229              		.type	chEvtAddEvents, %function
 230              	chEvtAddEvents:
 231              	.LFB10:
 232              		.loc 1 150 0
 233              		.cfi_startproc
 234              		@ args = 0, pretend = 0, frame = 0
 235              		@ frame_needed = 0, uses_anonymous_args = 0
 236              		@ link register save eliminated.
 237              	.LVL24:
 238              	.LBB11:
 239              		.loc 1 152 0
 240 0000 2023     		movs	r3, #32
 241              	.LVL25:
 242              	@ 152 "../../os/kernel/src/chevents.c" 1
 243 0002 83F31188 		msr     BASEPRI, r3
 244              	@ 0 "" 2
 245              	.LVL26:
 246              		.thumb
 247              	.LBE11:
 248              		.loc 1 154 0
 249 0006 40F2000C 		movw	ip, #:lower16:rlist
 250 000a C0F2000C 		movt	ip, #:upper16:rlist
 251              	.LBB12:
 252              		.loc 1 156 0
 253 000e 0023     		movs	r3, #0
 254              	.LVL27:
 255              	.LBE12:
 256              		.loc 1 154 0
 257 0010 DCF81820 		ldr	r2, [ip, #24]
 258 0014 916B     		ldr	r1, [r2, #56]
 259 0016 0843     		orrs	r0, r0, r1
 260              	.LVL28:
 261 0018 9063     		str	r0, [r2, #56]
 262              	.LVL29:
 263              	.LBB13:
 264              		.loc 1 156 0
 265              	@ 156 "../../os/kernel/src/chevents.c" 1
 266 001a 83F31188 		msr     BASEPRI, r3
 267              	@ 0 "" 2
 268              	.LVL30:
 269              		.thumb
 270              	.LBE13:
 271              		.loc 1 158 0
 272 001e 7047     		bx	lr
 273              		.cfi_endproc
 274              	.LFE10:
 275              		.size	chEvtAddEvents, .-chEvtAddEvents
 276              		.section	.text.chEvtGetAndClearFlags,"ax",%progbits
 277              		.align	2
 278              		.p2align 4,,15
 279              		.global	chEvtGetAndClearFlags
 280              		.thumb
 281              		.thumb_func
ARM GAS  C:\Users\TAISIK~1\AppData\Local\Temp\ccjKyvwk.s 			page 6


 282              		.type	chEvtGetAndClearFlags, %function
 283              	chEvtGetAndClearFlags:
 284              	.LFB12:
 285              		.loc 1 202 0
 286              		.cfi_startproc
 287              		@ args = 0, pretend = 0, frame = 0
 288              		@ frame_needed = 0, uses_anonymous_args = 0
 289              		@ link register save eliminated.
 290              	.LVL31:
 291              		.loc 1 202 0
 292 0000 0246     		mov	r2, r0
 293              	.LBB14:
 294              		.loc 1 205 0
 295 0002 2023     		movs	r3, #32
 296              	.LVL32:
 297              	@ 205 "../../os/kernel/src/chevents.c" 1
 298 0004 83F31188 		msr     BASEPRI, r3
 299              	@ 0 "" 2
 300              	.LVL33:
 301              		.thumb
 302              	.LBE14:
 303              		.loc 1 208 0
 304 0008 0023     		movs	r3, #0
 305              	.LVL34:
 306              		.loc 1 207 0
 307 000a C068     		ldr	r0, [r0, #12]
 308              	.LVL35:
 309              		.loc 1 208 0
 310 000c D360     		str	r3, [r2, #12]
 311              	.LBB15:
 312              		.loc 1 210 0
 313              	@ 210 "../../os/kernel/src/chevents.c" 1
 314 000e 83F31188 		msr     BASEPRI, r3
 315              	@ 0 "" 2
 316              	.LVL36:
 317              		.thumb
 318              	.LBE15:
 319              		.loc 1 212 0
 320 0012 7047     		bx	lr
 321              		.cfi_endproc
 322              	.LFE12:
 323              		.size	chEvtGetAndClearFlags, .-chEvtGetAndClearFlags
 324 0014 AFF30080 		.section	.text.chEvtSignalI,"ax",%progbits
 324      AFF30080 
 324      AFF30080 
 325              		.align	2
 326              		.p2align 4,,15
 327              		.global	chEvtSignalI
 328              		.thumb
 329              		.thumb_func
 330              		.type	chEvtSignalI, %function
 331              	chEvtSignalI:
 332              	.LFB14:
 333              		.loc 1 244 0
 334              		.cfi_startproc
 335              		@ args = 0, pretend = 0, frame = 0
 336              		@ frame_needed = 0, uses_anonymous_args = 0
ARM GAS  C:\Users\TAISIK~1\AppData\Local\Temp\ccjKyvwk.s 			page 7


 337              	.LVL37:
 338 0000 08B5     		push	{r3, lr}
 339              	.LCFI2:
 340              		.cfi_def_cfa_offset 8
 341              		.cfi_offset 14, -4
 342              		.cfi_offset 3, -8
 343              		.loc 1 249 0
 344 0002 826B     		ldr	r2, [r0, #56]
 345              		.loc 1 251 0
 346 0004 037F     		ldrb	r3, [r0, #28]	@ zero_extendqisi2
 347              		.loc 1 249 0
 348 0006 1143     		orrs	r1, r1, r2
 349              	.LVL38:
 350              		.loc 1 251 0
 351 0008 082B     		cmp	r3, #8
 352              		.loc 1 249 0
 353 000a 8163     		str	r1, [r0, #56]
 354              		.loc 1 251 0
 355 000c 0BD0     		beq	.L16
 356              		.loc 1 252 0
 357 000e 092B     		cmp	r3, #9
 358 0010 00D0     		beq	.L17
 359              	.L12:
 360 0012 08BD     		pop	{r3, pc}
 361              	.L17:
 362              		.loc 1 254 0
 363 0014 426A     		ldr	r2, [r0, #36]
 364 0016 1140     		ands	r1, r1, r2
 365              		.loc 1 253 0
 366 0018 8A42     		cmp	r2, r1
 367 001a FAD1     		bne	.L12
 368              	.L14:
 369              	.LVL39:
 370              	.LBB18:
 371              	.LBB19:
 372              		.loc 1 255 0
 373 001c FFF7FEFF 		bl	chSchReadyI
 374              	.LVL40:
 375 0020 0023     		movs	r3, #0
 376 0022 4362     		str	r3, [r0, #36]
 377 0024 08BD     		pop	{r3, pc}
 378              	.LVL41:
 379              	.L16:
 380              	.LBE19:
 381              	.LBE18:
 382              		.loc 1 252 0 discriminator 1
 383 0026 436A     		ldr	r3, [r0, #36]
 384              		.loc 1 251 0 discriminator 1
 385 0028 1942     		tst	r1, r3
 386 002a F7D1     		bne	.L14
 387 002c 08BD     		pop	{r3, pc}
 388              		.cfi_endproc
 389              	.LFE14:
 390              		.size	chEvtSignalI, .-chEvtSignalI
 391 002e 00BF     		.section	.text.chEvtSignal,"ax",%progbits
 392              		.align	2
 393              		.p2align 4,,15
ARM GAS  C:\Users\TAISIK~1\AppData\Local\Temp\ccjKyvwk.s 			page 8


 394              		.global	chEvtSignal
 395              		.thumb
 396              		.thumb_func
 397              		.type	chEvtSignal, %function
 398              	chEvtSignal:
 399              	.LFB13:
 400              		.loc 1 222 0
 401              		.cfi_startproc
 402              		@ args = 0, pretend = 0, frame = 0
 403              		@ frame_needed = 0, uses_anonymous_args = 0
 404              	.LVL42:
 405 0000 08B5     		push	{r3, lr}
 406              	.LCFI3:
 407              		.cfi_def_cfa_offset 8
 408              		.cfi_offset 14, -4
 409              		.cfi_offset 3, -8
 410              	.LBB20:
 411              		.loc 1 226 0
 412 0002 2023     		movs	r3, #32
 413              	.LVL43:
 414              	@ 226 "../../os/kernel/src/chevents.c" 1
 415 0004 83F31188 		msr     BASEPRI, r3
 416              	@ 0 "" 2
 417              	.LVL44:
 418              		.thumb
 419              	.LBE20:
 420              		.loc 1 227 0
 421 0008 FFF7FEFF 		bl	chEvtSignalI
 422              	.LVL45:
 423              		.loc 1 228 0
 424 000c FFF7FEFF 		bl	chSchRescheduleS
 425              	.LBB21:
 426              		.loc 1 229 0
 427 0010 0023     		movs	r3, #0
 428              	.LVL46:
 429              	@ 229 "../../os/kernel/src/chevents.c" 1
 430 0012 83F31188 		msr     BASEPRI, r3
 431              	@ 0 "" 2
 432              	.LVL47:
 433              		.thumb
 434              	.LBE21:
 435              		.loc 1 230 0
 436 0016 08BD     		pop	{r3, pc}
 437              		.cfi_endproc
 438              	.LFE13:
 439              		.size	chEvtSignal, .-chEvtSignal
 440 0018 AFF30080 		.section	.text.chEvtBroadcastFlagsI,"ax",%progbits
 440      AFF30080 
 441              		.align	2
 442              		.p2align 4,,15
 443              		.global	chEvtBroadcastFlagsI
 444              		.thumb
 445              		.thumb_func
 446              		.type	chEvtBroadcastFlagsI, %function
 447              	chEvtBroadcastFlagsI:
 448              	.LFB11:
 449              		.loc 1 177 0
ARM GAS  C:\Users\TAISIK~1\AppData\Local\Temp\ccjKyvwk.s 			page 9


 450              		.cfi_startproc
 451              		@ args = 0, pretend = 0, frame = 0
 452              		@ frame_needed = 0, uses_anonymous_args = 0
 453              	.LVL48:
 454 0000 70B5     		push	{r4, r5, r6, lr}
 455              	.LCFI4:
 456              		.cfi_def_cfa_offset 16
 457              		.cfi_offset 14, -4
 458              		.cfi_offset 6, -8
 459              		.cfi_offset 5, -12
 460              		.cfi_offset 4, -16
 461              		.loc 1 183 0
 462 0002 0468     		ldr	r4, [r0, #0]
 463              	.LVL49:
 464              		.loc 1 184 0
 465 0004 A042     		cmp	r0, r4
 466              		.loc 1 177 0
 467 0006 0546     		mov	r5, r0
 468 0008 0E46     		mov	r6, r1
 469              		.loc 1 184 0
 470 000a 08D0     		beq	.L19
 471              	.LVL50:
 472              	.L22:
 473              		.loc 1 186 0
 474 000c 201D     		adds	r0, r4, #4
 475 000e 0BC8     		ldmia	r0, {r0, r1, r3}
 476              		.loc 1 185 0
 477 0010 3343     		orrs	r3, r3, r6
 478 0012 E360     		str	r3, [r4, #12]
 479              		.loc 1 186 0
 480 0014 FFF7FEFF 		bl	chEvtSignalI
 481              		.loc 1 187 0
 482 0018 2468     		ldr	r4, [r4, #0]
 483              	.LVL51:
 484              		.loc 1 184 0
 485 001a A542     		cmp	r5, r4
 486 001c F6D1     		bne	.L22
 487              	.L19:
 488 001e 70BD     		pop	{r4, r5, r6, pc}
 489              		.cfi_endproc
 490              	.LFE11:
 491              		.size	chEvtBroadcastFlagsI, .-chEvtBroadcastFlagsI
 492              		.section	.text.chEvtBroadcastFlags,"ax",%progbits
 493              		.align	2
 494              		.p2align 4,,15
 495              		.global	chEvtBroadcastFlags
 496              		.thumb
 497              		.thumb_func
 498              		.type	chEvtBroadcastFlags, %function
 499              	chEvtBroadcastFlags:
 500              	.LFB15:
 501              		.loc 1 271 0
 502              		.cfi_startproc
 503              		@ args = 0, pretend = 0, frame = 0
 504              		@ frame_needed = 0, uses_anonymous_args = 0
 505              	.LVL52:
 506 0000 08B5     		push	{r3, lr}
ARM GAS  C:\Users\TAISIK~1\AppData\Local\Temp\ccjKyvwk.s 			page 10


 507              	.LCFI5:
 508              		.cfi_def_cfa_offset 8
 509              		.cfi_offset 14, -4
 510              		.cfi_offset 3, -8
 511              	.LBB22:
 512              		.loc 1 273 0
 513 0002 2023     		movs	r3, #32
 514              	.LVL53:
 515              	@ 273 "../../os/kernel/src/chevents.c" 1
 516 0004 83F31188 		msr     BASEPRI, r3
 517              	@ 0 "" 2
 518              	.LVL54:
 519              		.thumb
 520              	.LBE22:
 521              		.loc 1 274 0
 522 0008 FFF7FEFF 		bl	chEvtBroadcastFlagsI
 523              	.LVL55:
 524              		.loc 1 275 0
 525 000c FFF7FEFF 		bl	chSchRescheduleS
 526              	.LBB23:
 527              		.loc 1 276 0
 528 0010 0023     		movs	r3, #0
 529              	.LVL56:
 530              	@ 276 "../../os/kernel/src/chevents.c" 1
 531 0012 83F31188 		msr     BASEPRI, r3
 532              	@ 0 "" 2
 533              	.LVL57:
 534              		.thumb
 535              	.LBE23:
 536              		.loc 1 277 0
 537 0016 08BD     		pop	{r3, pc}
 538              		.cfi_endproc
 539              	.LFE15:
 540              		.size	chEvtBroadcastFlags, .-chEvtBroadcastFlags
 541 0018 AFF30080 		.section	.text.chEvtGetAndClearFlagsI,"ax",%progbits
 541      AFF30080 
 542              		.align	2
 543              		.p2align 4,,15
 544              		.global	chEvtGetAndClearFlagsI
 545              		.thumb
 546              		.thumb_func
 547              		.type	chEvtGetAndClearFlagsI, %function
 548              	chEvtGetAndClearFlagsI:
 549              	.LFB16:
 550              		.loc 1 290 0
 551              		.cfi_startproc
 552              		@ args = 0, pretend = 0, frame = 0
 553              		@ frame_needed = 0, uses_anonymous_args = 0
 554              		@ link register save eliminated.
 555              	.LVL58:
 556              		.loc 1 290 0
 557 0000 0346     		mov	r3, r0
 558              		.loc 1 294 0
 559 0002 0022     		movs	r2, #0
 560              		.loc 1 293 0
 561 0004 C068     		ldr	r0, [r0, #12]
 562              	.LVL59:
ARM GAS  C:\Users\TAISIK~1\AppData\Local\Temp\ccjKyvwk.s 			page 11


 563              		.loc 1 294 0
 564 0006 DA60     		str	r2, [r3, #12]
 565              		.loc 1 297 0
 566 0008 7047     		bx	lr
 567              		.cfi_endproc
 568              	.LFE16:
 569              		.size	chEvtGetAndClearFlagsI, .-chEvtGetAndClearFlagsI
 570 000a 00BFAFF3 		.section	.text.chEvtDispatch,"ax",%progbits
 570      0080
 571              		.align	2
 572              		.p2align 4,,15
 573              		.global	chEvtDispatch
 574              		.thumb
 575              		.thumb_func
 576              		.type	chEvtDispatch, %function
 577              	chEvtDispatch:
 578              	.LFB17:
 579              		.loc 1 308 0
 580              		.cfi_startproc
 581              		@ args = 0, pretend = 0, frame = 0
 582              		@ frame_needed = 0, uses_anonymous_args = 0
 583              	.LVL60:
 584 0000 F8B5     		push	{r3, r4, r5, r6, r7, lr}
 585              	.LCFI6:
 586              		.cfi_def_cfa_offset 24
 587              		.cfi_offset 14, -4
 588              		.cfi_offset 7, -8
 589              		.cfi_offset 6, -12
 590              		.cfi_offset 5, -16
 591              		.cfi_offset 4, -20
 592              		.cfi_offset 3, -24
 593              		.loc 1 308 0
 594 0002 0D46     		mov	r5, r1
 595 0004 0746     		mov	r7, r0
 596              		.loc 1 314 0
 597 0006 41B1     		cbz	r1, .L26
 598 0008 0024     		movs	r4, #0
 599              		.loc 1 315 0
 600 000a 0126     		movs	r6, #1
 601              	.LVL61:
 602              	.L29:
 603 000c 06FA04F3 		lsl	r3, r6, r4
 604 0010 2B42     		tst	r3, r5
 605 0012 03D1     		bne	.L31
 606              		.loc 1 322 0
 607 0014 0134     		adds	r4, r4, #1
 608              	.LVL62:
 609              		.loc 1 314 0
 610 0016 002D     		cmp	r5, #0
 611 0018 F8D1     		bne	.L29
 612              	.LVL63:
 613              	.L26:
 614 001a F8BD     		pop	{r3, r4, r5, r6, r7, pc}
 615              	.L31:
 616              		.loc 1 320 0
 617 001c 2046     		mov	r0, r4
 618              		.loc 1 319 0
ARM GAS  C:\Users\TAISIK~1\AppData\Local\Temp\ccjKyvwk.s 			page 12


 619 001e 25EA0305 		bic	r5, r5, r3
 620              	.LVL64:
 621              		.loc 1 320 0
 622 0022 57F82430 		ldr	r3, [r7, r4, lsl #2]
 623 0026 9847     		blx	r3
 624              		.loc 1 322 0
 625 0028 0134     		adds	r4, r4, #1
 626              	.LVL65:
 627              		.loc 1 314 0
 628 002a 002D     		cmp	r5, #0
 629 002c EED1     		bne	.L29
 630 002e F4E7     		b	.L26
 631              		.cfi_endproc
 632              	.LFE17:
 633              		.size	chEvtDispatch, .-chEvtDispatch
 634              		.section	.text.chEvtWaitOne,"ax",%progbits
 635              		.align	2
 636              		.p2align 4,,15
 637              		.global	chEvtWaitOne
 638              		.thumb
 639              		.thumb_func
 640              		.type	chEvtWaitOne, %function
 641              	chEvtWaitOne:
 642              	.LFB18:
 643              		.loc 1 343 0
 644              		.cfi_startproc
 645              		@ args = 0, pretend = 0, frame = 0
 646              		@ frame_needed = 0, uses_anonymous_args = 0
 647              	.LVL66:
 648 0000 38B5     		push	{r3, r4, r5, lr}
 649              	.LCFI7:
 650              		.cfi_def_cfa_offset 16
 651              		.cfi_offset 14, -4
 652              		.cfi_offset 5, -8
 653              		.cfi_offset 4, -12
 654              		.cfi_offset 3, -16
 655              		.loc 1 344 0
 656 0002 0D4B     		ldr	r3, .L34
 657              		.loc 1 343 0
 658 0004 0546     		mov	r5, r0
 659              		.loc 1 344 0
 660 0006 9C69     		ldr	r4, [r3, #24]
 661              	.LVL67:
 662              	.LBB24:
 663              		.loc 1 347 0
 664 0008 2023     		movs	r3, #32
 665              	.LVL68:
 666              	@ 347 "../../os/kernel/src/chevents.c" 1
 667 000a 83F31188 		msr     BASEPRI, r3
 668              	@ 0 "" 2
 669              	.LVL69:
 670              		.thumb
 671              	.LBE24:
 672              		.loc 1 349 0
 673 000e A36B     		ldr	r3, [r4, #56]
 674              	.LVL70:
 675 0010 10EA0302 		ands	r2, r0, r3
ARM GAS  C:\Users\TAISIK~1\AppData\Local\Temp\ccjKyvwk.s 			page 13


 676 0014 06D1     		bne	.L33
 677              		.loc 1 350 0
 678 0016 6062     		str	r0, [r4, #36]
 679              		.loc 1 351 0
 680 0018 0820     		movs	r0, #8
 681              	.LVL71:
 682 001a FFF7FEFF 		bl	chSchGoSleepS
 683              	.LVL72:
 684              		.loc 1 352 0
 685 001e A36B     		ldr	r3, [r4, #56]
 686 0020 05EA0302 		and	r2, r5, r3
 687              	.LVL73:
 688              	.L33:
 689              		.loc 1 354 0
 690 0024 5042     		negs	r0, r2
 691 0026 1040     		ands	r0, r0, r2
 692              	.LVL74:
 693              		.loc 1 355 0
 694 0028 23EA0001 		bic	r1, r3, r0
 695 002c A163     		str	r1, [r4, #56]
 696              	.LBB25:
 697              		.loc 1 357 0
 698 002e 0023     		movs	r3, #0
 699              	.LVL75:
 700              	@ 357 "../../os/kernel/src/chevents.c" 1
 701 0030 83F31188 		msr     BASEPRI, r3
 702              	@ 0 "" 2
 703              	.LVL76:
 704              		.thumb
 705              	.LBE25:
 706              		.loc 1 359 0
 707 0034 38BD     		pop	{r3, r4, r5, pc}
 708              	.L35:
 709 0036 00BF     		.align	2
 710              	.L34:
 711 0038 00000000 		.word	rlist
 712              		.cfi_endproc
 713              	.LFE18:
 714              		.size	chEvtWaitOne, .-chEvtWaitOne
 715 003c AFF30080 		.section	.text.chEvtWaitAny,"ax",%progbits
 716              		.align	2
 717              		.p2align 4,,15
 718              		.global	chEvtWaitAny
 719              		.thumb
 720              		.thumb_func
 721              		.type	chEvtWaitAny, %function
 722              	chEvtWaitAny:
 723              	.LFB19:
 724              		.loc 1 372 0
 725              		.cfi_startproc
 726              		@ args = 0, pretend = 0, frame = 0
 727              		@ frame_needed = 0, uses_anonymous_args = 0
 728              	.LVL77:
 729 0000 38B5     		push	{r3, r4, r5, lr}
 730              	.LCFI8:
 731              		.cfi_def_cfa_offset 16
 732              		.cfi_offset 14, -4
ARM GAS  C:\Users\TAISIK~1\AppData\Local\Temp\ccjKyvwk.s 			page 14


 733              		.cfi_offset 5, -8
 734              		.cfi_offset 4, -12
 735              		.cfi_offset 3, -16
 736              		.loc 1 373 0
 737 0002 0B4B     		ldr	r3, .L38
 738              		.loc 1 372 0
 739 0004 0546     		mov	r5, r0
 740              		.loc 1 373 0
 741 0006 9C69     		ldr	r4, [r3, #24]
 742              	.LVL78:
 743              	.LBB26:
 744              		.loc 1 376 0
 745 0008 2023     		movs	r3, #32
 746              	.LVL79:
 747              	@ 376 "../../os/kernel/src/chevents.c" 1
 748 000a 83F31188 		msr     BASEPRI, r3
 749              	@ 0 "" 2
 750              	.LVL80:
 751              		.thumb
 752              	.LBE26:
 753              		.loc 1 378 0
 754 000e A36B     		ldr	r3, [r4, #56]
 755              	.LVL81:
 756 0010 1840     		ands	r0, r0, r3
 757              	.LVL82:
 758 0012 06D1     		bne	.L37
 759              		.loc 1 380 0
 760 0014 0820     		movs	r0, #8
 761              		.loc 1 379 0
 762 0016 6562     		str	r5, [r4, #36]
 763              		.loc 1 380 0
 764 0018 FFF7FEFF 		bl	chSchGoSleepS
 765              	.LVL83:
 766              		.loc 1 381 0
 767 001c A36B     		ldr	r3, [r4, #56]
 768 001e 05EA0300 		and	r0, r5, r3
 769              	.LVL84:
 770              	.L37:
 771              		.loc 1 383 0
 772 0022 23EA0001 		bic	r1, r3, r0
 773 0026 A163     		str	r1, [r4, #56]
 774              	.LBB27:
 775              		.loc 1 385 0
 776 0028 0023     		movs	r3, #0
 777              	.LVL85:
 778              	@ 385 "../../os/kernel/src/chevents.c" 1
 779 002a 83F31188 		msr     BASEPRI, r3
 780              	@ 0 "" 2
 781              	.LVL86:
 782              		.thumb
 783              	.LBE27:
 784              		.loc 1 387 0
 785 002e 38BD     		pop	{r3, r4, r5, pc}
 786              	.L39:
 787              		.align	2
 788              	.L38:
 789 0030 00000000 		.word	rlist
ARM GAS  C:\Users\TAISIK~1\AppData\Local\Temp\ccjKyvwk.s 			page 15


 790              		.cfi_endproc
 791              	.LFE19:
 792              		.size	chEvtWaitAny, .-chEvtWaitAny
 793 0034 AFF30080 		.section	.text.chEvtWaitAll,"ax",%progbits
 793      AFF30080 
 793      AFF30080 
 794              		.align	2
 795              		.p2align 4,,15
 796              		.global	chEvtWaitAll
 797              		.thumb
 798              		.thumb_func
 799              		.type	chEvtWaitAll, %function
 800              	chEvtWaitAll:
 801              	.LFB20:
 802              		.loc 1 400 0
 803              		.cfi_startproc
 804              		@ args = 0, pretend = 0, frame = 0
 805              		@ frame_needed = 0, uses_anonymous_args = 0
 806              	.LVL87:
 807 0000 38B5     		push	{r3, r4, r5, lr}
 808              	.LCFI9:
 809              		.cfi_def_cfa_offset 16
 810              		.cfi_offset 14, -4
 811              		.cfi_offset 5, -8
 812              		.cfi_offset 4, -12
 813              		.cfi_offset 3, -16
 814              		.loc 1 401 0
 815 0002 0C4B     		ldr	r3, .L42
 816              		.loc 1 400 0
 817 0004 0446     		mov	r4, r0
 818              		.loc 1 401 0
 819 0006 9D69     		ldr	r5, [r3, #24]
 820              	.LVL88:
 821              	.LBB28:
 822              		.loc 1 403 0
 823 0008 2023     		movs	r3, #32
 824              	.LVL89:
 825              	@ 403 "../../os/kernel/src/chevents.c" 1
 826 000a 83F31188 		msr     BASEPRI, r3
 827              	@ 0 "" 2
 828              	.LVL90:
 829              		.thumb
 830              	.LBE28:
 831              		.loc 1 405 0
 832 000e AB6B     		ldr	r3, [r5, #56]
 833              	.LVL91:
 834 0010 00EA0302 		and	r2, r0, r3
 835 0014 8242     		cmp	r2, r0
 836 0016 04D0     		beq	.L41
 837              		.loc 1 406 0
 838 0018 6862     		str	r0, [r5, #36]
 839              		.loc 1 407 0
 840 001a 0920     		movs	r0, #9
 841              	.LVL92:
 842 001c FFF7FEFF 		bl	chSchGoSleepS
 843              	.LVL93:
 844 0020 AB6B     		ldr	r3, [r5, #56]
ARM GAS  C:\Users\TAISIK~1\AppData\Local\Temp\ccjKyvwk.s 			page 16


 845              	.L41:
 846              		.loc 1 409 0
 847 0022 23EA0400 		bic	r0, r3, r4
 848 0026 A863     		str	r0, [r5, #56]
 849              	.LBB29:
 850              		.loc 1 411 0
 851 0028 0023     		movs	r3, #0
 852              	.LVL94:
 853              	@ 411 "../../os/kernel/src/chevents.c" 1
 854 002a 83F31188 		msr     BASEPRI, r3
 855              	@ 0 "" 2
 856              	.LVL95:
 857              		.thumb
 858              	.LBE29:
 859              		.loc 1 413 0
 860 002e 2046     		mov	r0, r4
 861 0030 38BD     		pop	{r3, r4, r5, pc}
 862              	.L43:
 863 0032 00BF     		.align	2
 864              	.L42:
 865 0034 00000000 		.word	rlist
 866              		.cfi_endproc
 867              	.LFE20:
 868              		.size	chEvtWaitAll, .-chEvtWaitAll
 869 0038 AFF30080 		.section	.text.chEvtWaitOneTimeout,"ax",%progbits
 869      AFF30080 
 870              		.align	2
 871              		.p2align 4,,15
 872              		.global	chEvtWaitOneTimeout
 873              		.thumb
 874              		.thumb_func
 875              		.type	chEvtWaitOneTimeout, %function
 876              	chEvtWaitOneTimeout:
 877              	.LFB21:
 878              		.loc 1 439 0
 879              		.cfi_startproc
 880              		@ args = 0, pretend = 0, frame = 0
 881              		@ frame_needed = 0, uses_anonymous_args = 0
 882              	.LVL96:
 883              		.loc 1 440 0
 884 0000 114B     		ldr	r3, .L50
 885              		.loc 1 439 0
 886 0002 70B5     		push	{r4, r5, r6, lr}
 887              	.LCFI10:
 888              		.cfi_def_cfa_offset 16
 889              		.cfi_offset 14, -4
 890              		.cfi_offset 6, -8
 891              		.cfi_offset 5, -12
 892              		.cfi_offset 4, -16
 893              		.loc 1 440 0
 894 0004 9E69     		ldr	r6, [r3, #24]
 895              	.LVL97:
 896              		.loc 1 439 0
 897 0006 0546     		mov	r5, r0
 898              	.LBB30:
 899              		.loc 1 443 0
 900 0008 2023     		movs	r3, #32
ARM GAS  C:\Users\TAISIK~1\AppData\Local\Temp\ccjKyvwk.s 			page 17


 901              	.LVL98:
 902              	@ 443 "../../os/kernel/src/chevents.c" 1
 903 000a 83F31188 		msr     BASEPRI, r3
 904              	@ 0 "" 2
 905              	.LVL99:
 906              		.thumb
 907              	.LBE30:
 908              		.loc 1 445 0
 909 000e B36B     		ldr	r3, [r6, #56]
 910              	.LVL100:
 911 0010 10EA0304 		ands	r4, r0, r3
 912 0014 0ED1     		bne	.L45
 913              	.LVL101:
 914              		.loc 1 446 0
 915 0016 21B9     		cbnz	r1, .L46
 916              	.LVL102:
 917              	.L49:
 918              	.LBB31:
 919              		.loc 1 452 0
 920 0018 2346     		mov	r3, r4
 921              	.LVL103:
 922              	@ 452 "../../os/kernel/src/chevents.c" 1
 923 001a 83F31188 		msr     BASEPRI, r3
 924              	@ 0 "" 2
 925              	.LVL104:
 926              		.thumb
 927              	.LBE31:
 928              		.loc 1 462 0
 929 001e 2046     		mov	r0, r4
 930 0020 70BD     		pop	{r4, r5, r6, pc}
 931              	.LVL105:
 932              	.L46:
 933              		.loc 1 450 0
 934 0022 7062     		str	r0, [r6, #36]
 935              		.loc 1 451 0
 936 0024 0820     		movs	r0, #8
 937 0026 FFF7FEFF 		bl	chSchGoSleepTimeoutS
 938              	.LVL106:
 939 002a 0028     		cmp	r0, #0
 940 002c F4DB     		blt	.L49
 941              		.loc 1 455 0
 942 002e B36B     		ldr	r3, [r6, #56]
 943 0030 05EA0304 		and	r4, r5, r3
 944              	.LVL107:
 945              	.L45:
 946              		.loc 1 457 0
 947 0034 6242     		negs	r2, r4
 948 0036 1440     		ands	r4, r4, r2
 949              	.LVL108:
 950              		.loc 1 458 0
 951 0038 23EA0400 		bic	r0, r3, r4
 952 003c B063     		str	r0, [r6, #56]
 953              	.LBB32:
 954              		.loc 1 460 0
 955 003e 0023     		movs	r3, #0
 956              	.LVL109:
 957              	@ 460 "../../os/kernel/src/chevents.c" 1
ARM GAS  C:\Users\TAISIK~1\AppData\Local\Temp\ccjKyvwk.s 			page 18


 958 0040 83F31188 		msr     BASEPRI, r3
 959              	@ 0 "" 2
 960              	.LVL110:
 961              		.thumb
 962              	.LBE32:
 963              		.loc 1 462 0
 964 0044 2046     		mov	r0, r4
 965 0046 70BD     		pop	{r4, r5, r6, pc}
 966              	.L51:
 967              		.align	2
 968              	.L50:
 969 0048 00000000 		.word	rlist
 970              		.cfi_endproc
 971              	.LFE21:
 972              		.size	chEvtWaitOneTimeout, .-chEvtWaitOneTimeout
 973 004c AFF30080 		.section	.text.chEvtWaitAnyTimeout,"ax",%progbits
 974              		.align	2
 975              		.p2align 4,,15
 976              		.global	chEvtWaitAnyTimeout
 977              		.thumb
 978              		.thumb_func
 979              		.type	chEvtWaitAnyTimeout, %function
 980              	chEvtWaitAnyTimeout:
 981              	.LFB22:
 982              		.loc 1 482 0
 983              		.cfi_startproc
 984              		@ args = 0, pretend = 0, frame = 0
 985              		@ frame_needed = 0, uses_anonymous_args = 0
 986              	.LVL111:
 987              		.loc 1 483 0
 988 0000 104B     		ldr	r3, .L58
 989              		.loc 1 482 0
 990 0002 70B5     		push	{r4, r5, r6, lr}
 991              	.LCFI11:
 992              		.cfi_def_cfa_offset 16
 993              		.cfi_offset 14, -4
 994              		.cfi_offset 6, -8
 995              		.cfi_offset 5, -12
 996              		.cfi_offset 4, -16
 997              		.loc 1 483 0
 998 0004 9E69     		ldr	r6, [r3, #24]
 999              	.LVL112:
 1000              		.loc 1 482 0
 1001 0006 0446     		mov	r4, r0
 1002              	.LBB33:
 1003              		.loc 1 486 0
 1004 0008 2023     		movs	r3, #32
 1005              	.LVL113:
 1006              	@ 486 "../../os/kernel/src/chevents.c" 1
 1007 000a 83F31188 		msr     BASEPRI, r3
 1008              	@ 0 "" 2
 1009              	.LVL114:
 1010              		.thumb
 1011              	.LBE33:
 1012              		.loc 1 488 0
 1013 000e B36B     		ldr	r3, [r6, #56]
 1014              	.LVL115:
ARM GAS  C:\Users\TAISIK~1\AppData\Local\Temp\ccjKyvwk.s 			page 19


 1015 0010 10EA0305 		ands	r5, r0, r3
 1016 0014 0ED1     		bne	.L53
 1017              	.LVL116:
 1018              		.loc 1 489 0
 1019 0016 21B9     		cbnz	r1, .L54
 1020              	.LVL117:
 1021              	.L57:
 1022              	.LBB34:
 1023              		.loc 1 495 0
 1024 0018 2B46     		mov	r3, r5
 1025              	.LVL118:
 1026              	@ 495 "../../os/kernel/src/chevents.c" 1
 1027 001a 83F31188 		msr     BASEPRI, r3
 1028              	@ 0 "" 2
 1029              	.LVL119:
 1030              		.thumb
 1031              	.LBE34:
 1032              		.loc 1 504 0
 1033 001e 2846     		mov	r0, r5
 1034 0020 70BD     		pop	{r4, r5, r6, pc}
 1035              	.LVL120:
 1036              	.L54:
 1037              		.loc 1 493 0
 1038 0022 7062     		str	r0, [r6, #36]
 1039              		.loc 1 494 0
 1040 0024 0820     		movs	r0, #8
 1041 0026 FFF7FEFF 		bl	chSchGoSleepTimeoutS
 1042              	.LVL121:
 1043 002a 0028     		cmp	r0, #0
 1044 002c F4DB     		blt	.L57
 1045              		.loc 1 498 0
 1046 002e B36B     		ldr	r3, [r6, #56]
 1047 0030 04EA0305 		and	r5, r4, r3
 1048              	.LVL122:
 1049              	.L53:
 1050              		.loc 1 500 0
 1051 0034 23EA0500 		bic	r0, r3, r5
 1052 0038 B063     		str	r0, [r6, #56]
 1053              	.LBB35:
 1054              		.loc 1 502 0
 1055 003a 0023     		movs	r3, #0
 1056              	.LVL123:
 1057              	@ 502 "../../os/kernel/src/chevents.c" 1
 1058 003c 83F31188 		msr     BASEPRI, r3
 1059              	@ 0 "" 2
 1060              	.LVL124:
 1061              		.thumb
 1062              	.LBE35:
 1063              		.loc 1 504 0
 1064 0040 2846     		mov	r0, r5
 1065 0042 70BD     		pop	{r4, r5, r6, pc}
 1066              	.L59:
 1067              		.align	2
 1068              	.L58:
 1069 0044 00000000 		.word	rlist
 1070              		.cfi_endproc
 1071              	.LFE22:
ARM GAS  C:\Users\TAISIK~1\AppData\Local\Temp\ccjKyvwk.s 			page 20


 1072              		.size	chEvtWaitAnyTimeout, .-chEvtWaitAnyTimeout
 1073 0048 AFF30080 		.section	.text.chEvtWaitAllTimeout,"ax",%progbits
 1073      AFF30080 
 1074              		.align	2
 1075              		.p2align 4,,15
 1076              		.global	chEvtWaitAllTimeout
 1077              		.thumb
 1078              		.thumb_func
 1079              		.type	chEvtWaitAllTimeout, %function
 1080              	chEvtWaitAllTimeout:
 1081              	.LFB23:
 1082              		.loc 1 523 0
 1083              		.cfi_startproc
 1084              		@ args = 0, pretend = 0, frame = 0
 1085              		@ frame_needed = 0, uses_anonymous_args = 0
 1086              	.LVL125:
 1087 0000 38B5     		push	{r3, r4, r5, lr}
 1088              	.LCFI12:
 1089              		.cfi_def_cfa_offset 16
 1090              		.cfi_offset 14, -4
 1091              		.cfi_offset 5, -8
 1092              		.cfi_offset 4, -12
 1093              		.cfi_offset 3, -16
 1094              		.loc 1 524 0
 1095 0002 134B     		ldr	r3, .L65
 1096              		.loc 1 523 0
 1097 0004 0446     		mov	r4, r0
 1098              		.loc 1 524 0
 1099 0006 9D69     		ldr	r5, [r3, #24]
 1100              	.LVL126:
 1101              	.LBB36:
 1102              		.loc 1 526 0
 1103 0008 2023     		movs	r3, #32
 1104              	.LVL127:
 1105              	@ 526 "../../os/kernel/src/chevents.c" 1
 1106 000a 83F31188 		msr     BASEPRI, r3
 1107              	@ 0 "" 2
 1108              	.LVL128:
 1109              		.thumb
 1110              	.LBE36:
 1111              		.loc 1 528 0
 1112 000e AB6B     		ldr	r3, [r5, #56]
 1113              	.LVL129:
 1114 0010 00EA0302 		and	r2, r0, r3
 1115 0014 8242     		cmp	r2, r0
 1116 0016 0DD0     		beq	.L61
 1117              		.loc 1 529 0
 1118 0018 29B9     		cbnz	r1, .L62
 1119              	.LBB37:
 1120              		.loc 1 530 0
 1121 001a 0B46     		mov	r3, r1
 1122              	.LVL130:
 1123              	@ 530 "../../os/kernel/src/chevents.c" 1
 1124 001c 83F31188 		msr     BASEPRI, r3
 1125              	@ 0 "" 2
 1126              	.LVL131:
 1127              		.thumb
ARM GAS  C:\Users\TAISIK~1\AppData\Local\Temp\ccjKyvwk.s 			page 21


 1128              	.LBE37:
 1129              		.loc 1 531 0
 1130 0020 0C46     		mov	r4, r1
 1131              		.loc 1 543 0
 1132 0022 2046     		mov	r0, r4
 1133              	.LVL132:
 1134 0024 38BD     		pop	{r3, r4, r5, pc}
 1135              	.LVL133:
 1136              	.L62:
 1137              		.loc 1 533 0
 1138 0026 6862     		str	r0, [r5, #36]
 1139              		.loc 1 534 0
 1140 0028 0920     		movs	r0, #9
 1141              	.LVL134:
 1142 002a FFF7FEFF 		bl	chSchGoSleepTimeoutS
 1143              	.LVL135:
 1144 002e 0028     		cmp	r0, #0
 1145 0030 08DB     		blt	.L64
 1146 0032 AB6B     		ldr	r3, [r5, #56]
 1147              	.L61:
 1148              		.loc 1 539 0
 1149 0034 23EA0400 		bic	r0, r3, r4
 1150 0038 A863     		str	r0, [r5, #56]
 1151              	.LBB38:
 1152              		.loc 1 541 0
 1153 003a 0023     		movs	r3, #0
 1154              	.LVL136:
 1155              	@ 541 "../../os/kernel/src/chevents.c" 1
 1156 003c 83F31188 		msr     BASEPRI, r3
 1157              	@ 0 "" 2
 1158              	.LVL137:
 1159              		.thumb
 1160              	.L63:
 1161              	.LBE38:
 1162              		.loc 1 543 0
 1163 0040 2046     		mov	r0, r4
 1164 0042 38BD     		pop	{r3, r4, r5, pc}
 1165              	.LVL138:
 1166              	.L64:
 1167              	.LBB39:
 1168              		.loc 1 535 0
 1169 0044 0023     		movs	r3, #0
 1170              	@ 535 "../../os/kernel/src/chevents.c" 1
 1171 0046 83F31188 		msr     BASEPRI, r3
 1172              	@ 0 "" 2
 1173              	.LVL139:
 1174              		.thumb
 1175              	.LBE39:
 1176              		.loc 1 536 0
 1177 004a 1C46     		mov	r4, r3
 1178              	.LVL140:
 1179 004c F8E7     		b	.L63
 1180              	.L66:
 1181 004e 00BF     		.align	2
 1182              	.L65:
 1183 0050 00000000 		.word	rlist
 1184              		.cfi_endproc
ARM GAS  C:\Users\TAISIK~1\AppData\Local\Temp\ccjKyvwk.s 			page 22


 1185              	.LFE23:
 1186              		.size	chEvtWaitAllTimeout, .-chEvtWaitAllTimeout
 1187 0054 AFF30080 		.text
 1187      AFF30080 
 1187      AFF30080 
 1188              	.Letext0:
 1189              		.file 2 "c:\\chibistudio\\tools\\gnu tools arm embedded\\4.6 2012q4\\bin\\../lib/gcc/arm-none-eabi
 1190              		.file 3 "../../os/ports/GCC/ARMCMx/chtypes.h"
 1191              		.file 4 "../../os/kernel/include/chlists.h"
 1192              		.file 5 "../../os/kernel/include/chthreads.h"
 1193              		.file 6 "../../os/ports/GCC/ARMCMx/chcore_v7m.h"
 1194              		.file 7 "../../os/kernel/include/chschd.h"
 1195              		.file 8 "../../os/kernel/include/chmtx.h"
 1196              		.file 9 "../../os/kernel/include/chevents.h"