ARM GAS  C:\Users\TAISIK~1\AppData\Local\Temp\cco6oTHz.s 			page 1


   1              		.syntax unified
   2              		.cpu cortex-m4
   3              		.fpu softvfp
   4              		.eabi_attribute 20, 1
   5              		.eabi_attribute 21, 1
   6              		.eabi_attribute 23, 3
   7              		.eabi_attribute 24, 1
   8              		.eabi_attribute 25, 1
   9              		.eabi_attribute 26, 1
  10              		.eabi_attribute 30, 2
  11              		.eabi_attribute 34, 1
  12              		.eabi_attribute 18, 4
  13              		.thumb
  14              		.file	"chmemcore.c"
  15              		.text
  16              	.Ltext0:
  17              		.cfi_sections	.debug_frame
  18              		.section	.text._core_init,"ax",%progbits
  19              		.align	2
  20              		.p2align 4,,15
  21              		.global	_core_init
  22              		.thumb
  23              		.thumb_func
  24              		.type	_core_init, %function
  25              	_core_init:
  26              	.LFB7:
  27              		.file 1 "../../os/kernel/src/chmemcore.c"
  28              		.loc 1 59 0
  29              		.cfi_startproc
  30              		@ args = 0, pretend = 0, frame = 0
  31              		@ frame_needed = 0, uses_anonymous_args = 0
  32              		@ link register save eliminated.
  33              		.loc 1 63 0
  34 0000 0949     		ldr	r1, .L2
  35 0002 40F20002 		movw	r2, #:lower16:.LANCHOR0
  36              		.loc 1 64 0
  37 0006 40F20003 		movw	r3, #:lower16:.LANCHOR1
  38 000a 40F2000C 		movw	ip, #:lower16:__heap_end__
  39              		.loc 1 63 0
  40 000e C0F20002 		movt	r2, #:upper16:.LANCHOR0
  41              		.loc 1 64 0
  42 0012 C0F20003 		movt	r3, #:upper16:.LANCHOR1
  43 0016 C0F2000C 		movt	ip, #:upper16:__heap_end__
  44              		.loc 1 63 0
  45 001a 21F00700 		bic	r0, r1, #7
  46              		.loc 1 64 0
  47 001e 2CF00701 		bic	r1, ip, #7
  48              		.loc 1 63 0
  49 0022 1060     		str	r0, [r2, #0]
  50              		.loc 1 64 0
  51 0024 1960     		str	r1, [r3, #0]
  52              		.loc 1 70 0
  53 0026 7047     		bx	lr
  54              	.L3:
  55              		.align	2
  56              	.L2:
  57 0028 07000000 		.word	__heap_base__+7
ARM GAS  C:\Users\TAISIK~1\AppData\Local\Temp\cco6oTHz.s 			page 2


  58              		.cfi_endproc
  59              	.LFE7:
  60              		.size	_core_init, .-_core_init
  61 002c AFF30080 		.section	.text.chCoreAlloc,"ax",%progbits
  62              		.align	2
  63              		.p2align 4,,15
  64              		.global	chCoreAlloc
  65              		.thumb
  66              		.thumb_func
  67              		.type	chCoreAlloc, %function
  68              	chCoreAlloc:
  69              	.LFB8:
  70              		.loc 1 84 0
  71              		.cfi_startproc
  72              		@ args = 0, pretend = 0, frame = 0
  73              		@ frame_needed = 0, uses_anonymous_args = 0
  74              		@ link register save eliminated.
  75              	.LVL0:
  76              	.LBB6:
  77              		.loc 1 87 0
  78 0000 2023     		movs	r3, #32
  79              	.LVL1:
  80              	@ 87 "../../os/kernel/src/chmemcore.c" 1
  81 0002 83F31188 		msr     BASEPRI, r3
  82              	@ 0 "" 2
  83              	.LVL2:
  84              		.thumb
  85              	.LBE6:
  86              	.LBB7:
  87              	.LBB8:
  88              		.loc 1 111 0
  89 0006 094B     		ldr	r3, .L7
  90              	.LVL3:
  91 0008 0949     		ldr	r1, .L7+4
  92 000a 1A68     		ldr	r2, [r3, #0]
  93 000c 0968     		ldr	r1, [r1, #0]
  94              		.loc 1 110 0
  95 000e 0730     		adds	r0, r0, #7
  96              	.LVL4:
  97 0010 20F00700 		bic	r0, r0, #7
  98              	.LVL5:
  99              		.loc 1 111 0
 100 0014 891A     		subs	r1, r1, r2
 101 0016 8842     		cmp	r0, r1
 102              	.LVL6:
 103              		.loc 1 114 0
 104 0018 9ABF     		itte	ls
 105 001a 1018     		addls	r0, r2, r0
 106              	.LVL7:
 107 001c 1860     		strls	r0, [r3, #0]
 108              		.loc 1 112 0
 109 001e 0022     		movhi	r2, #0
 110              	.LBE8:
 111              	.LBE7:
 112              	.LBB9:
 113              		.loc 1 89 0
 114 0020 0023     		movs	r3, #0
ARM GAS  C:\Users\TAISIK~1\AppData\Local\Temp\cco6oTHz.s 			page 3


 115              	.LVL8:
 116              	@ 89 "../../os/kernel/src/chmemcore.c" 1
 117 0022 83F31188 		msr     BASEPRI, r3
 118              	@ 0 "" 2
 119              	.LVL9:
 120              		.thumb
 121              	.LBE9:
 122              		.loc 1 91 0
 123 0026 1046     		mov	r0, r2
 124 0028 7047     		bx	lr
 125              	.L8:
 126 002a 00BF     		.align	2
 127              	.L7:
 128 002c 00000000 		.word	.LANCHOR0
 129 0030 00000000 		.word	.LANCHOR1
 130              		.cfi_endproc
 131              	.LFE8:
 132              		.size	chCoreAlloc, .-chCoreAlloc
 133 0034 AFF30080 		.section	.text.chCoreAllocI,"ax",%progbits
 133      AFF30080 
 133      AFF30080 
 134              		.align	2
 135              		.p2align 4,,15
 136              		.global	chCoreAllocI
 137              		.thumb
 138              		.thumb_func
 139              		.type	chCoreAllocI, %function
 140              	chCoreAllocI:
 141              	.LFB9:
 142              		.loc 1 105 0
 143              		.cfi_startproc
 144              		@ args = 0, pretend = 0, frame = 0
 145              		@ frame_needed = 0, uses_anonymous_args = 0
 146              		@ link register save eliminated.
 147              	.LVL10:
 148              		.loc 1 111 0
 149 0000 074A     		ldr	r2, .L12
 150 0002 0849     		ldr	r1, .L12+4
 151 0004 1368     		ldr	r3, [r2, #0]
 152 0006 0968     		ldr	r1, [r1, #0]
 153              		.loc 1 110 0
 154 0008 0730     		adds	r0, r0, #7
 155              	.LVL11:
 156 000a 20F00700 		bic	r0, r0, #7
 157              	.LVL12:
 158              		.loc 1 111 0
 159 000e C91A     		subs	r1, r1, r3
 160 0010 8842     		cmp	r0, r1
 161              	.LVL13:
 162              		.loc 1 114 0
 163 0012 9ABF     		itte	ls
 164 0014 1818     		addls	r0, r3, r0
 165              	.LVL14:
 166 0016 1060     		strls	r0, [r2, #0]
 167              		.loc 1 112 0
 168 0018 0023     		movhi	r3, #0
 169              		.loc 1 116 0
ARM GAS  C:\Users\TAISIK~1\AppData\Local\Temp\cco6oTHz.s 			page 4


 170 001a 1846     		mov	r0, r3
 171 001c 7047     		bx	lr
 172              	.L13:
 173 001e 00BF     		.align	2
 174              	.L12:
 175 0020 00000000 		.word	.LANCHOR0
 176 0024 00000000 		.word	.LANCHOR1
 177              		.cfi_endproc
 178              	.LFE9:
 179              		.size	chCoreAllocI, .-chCoreAllocI
 180 0028 AFF30080 		.section	.text.chCoreStatus,"ax",%progbits
 180      AFF30080 
 181              		.align	2
 182              		.p2align 4,,15
 183              		.global	chCoreStatus
 184              		.thumb
 185              		.thumb_func
 186              		.type	chCoreStatus, %function
 187              	chCoreStatus:
 188              	.LFB10:
 189              		.loc 1 125 0
 190              		.cfi_startproc
 191              		@ args = 0, pretend = 0, frame = 0
 192              		@ frame_needed = 0, uses_anonymous_args = 0
 193              		@ link register save eliminated.
 194              		.loc 1 127 0
 195 0000 40F20002 		movw	r2, #:lower16:.LANCHOR1
 196 0004 40F20001 		movw	r1, #:lower16:.LANCHOR0
 197 0008 C0F20002 		movt	r2, #:upper16:.LANCHOR1
 198 000c C0F20001 		movt	r1, #:upper16:.LANCHOR0
 199 0010 1068     		ldr	r0, [r2, #0]
 200 0012 0B68     		ldr	r3, [r1, #0]
 201 0014 C01A     		subs	r0, r0, r3
 202              		.loc 1 128 0
 203 0016 7047     		bx	lr
 204              		.cfi_endproc
 205              	.LFE10:
 206              		.size	chCoreStatus, .-chCoreStatus
 207 0018 AFF30080 		.section	.bss.endmem,"aw",%nobits
 207      AFF30080 
 208              		.align	2
 209              		.set	.LANCHOR1,. + 0
 210              		.type	endmem, %object
 211              		.size	endmem, 4
 212              	endmem:
 213 0000 00000000 		.space	4
 214              		.section	.bss.nextmem,"aw",%nobits
 215              		.align	2
 216              		.set	.LANCHOR0,. + 0
 217              		.type	nextmem, %object
 218              		.size	nextmem, 4
 219              	nextmem:
 220 0000 00000000 		.space	4
 221              		.text
 222              	.Letext0:
 223              		.file 2 "c:\\chibistudio\\tools\\gnu tools arm embedded\\4.6 2012q4\\bin\\../lib/gcc/arm-none-eabi
 224              		.file 3 "c:\\chibistudio\\tools\\gnu tools arm embedded\\4.6 2012q4\\bin\\../lib/gcc/arm-none-eabi
ARM GAS  C:\Users\TAISIK~1\AppData\Local\Temp\cco6oTHz.s 			page 5

