ARM GAS  C:\Users\TAISIK~1\AppData\Local\Temp\ccYjAY5y.s 			page 1


   1              		.syntax unified
   2              		.cpu cortex-m4
   3              		.fpu softvfp
   4              		.eabi_attribute 20, 1
   5              		.eabi_attribute 21, 1
   6              		.eabi_attribute 23, 3
   7              		.eabi_attribute 24, 1
   8              		.eabi_attribute 25, 1
   9              		.eabi_attribute 26, 1
  10              		.eabi_attribute 30, 2
  11              		.eabi_attribute 34, 1
  12              		.eabi_attribute 18, 4
  13              		.thumb
  14              		.file	"chsem.c"
  15              		.text
  16              	.Ltext0:
  17              		.cfi_sections	.debug_frame
  18              		.section	.text.chSemInit,"ax",%progbits
  19              		.align	2
  20              		.p2align 4,,15
  21              		.global	chSemInit
  22              		.thumb
  23              		.thumb_func
  24              		.type	chSemInit, %function
  25              	chSemInit:
  26              	.LFB7:
  27              		.file 1 "../../os/kernel/src/chsem.c"
  28              		.loc 1 79 0
  29              		.cfi_startproc
  30              		@ args = 0, pretend = 0, frame = 0
  31              		@ frame_needed = 0, uses_anonymous_args = 0
  32              		@ link register save eliminated.
  33              	.LVL0:
  34              		.loc 1 83 0
  35 0000 4060     		str	r0, [r0, #4]
  36 0002 0060     		str	r0, [r0, #0]
  37              		.loc 1 84 0
  38 0004 8160     		str	r1, [r0, #8]
  39              		.loc 1 85 0
  40 0006 7047     		bx	lr
  41              		.cfi_endproc
  42              	.LFE7:
  43              		.size	chSemInit, .-chSemInit
  44 0008 AFF30080 		.section	.text.chSemResetI,"ax",%progbits
  44      AFF30080 
  45              		.align	2
  46              		.p2align 4,,15
  47              		.global	chSemResetI
  48              		.thumb
  49              		.thumb_func
  50              		.type	chSemResetI, %function
  51              	chSemResetI:
  52              	.LFB9:
  53              		.loc 1 129 0
  54              		.cfi_startproc
  55              		@ args = 0, pretend = 0, frame = 0
  56              		@ frame_needed = 0, uses_anonymous_args = 0
ARM GAS  C:\Users\TAISIK~1\AppData\Local\Temp\ccYjAY5y.s 			page 2


  57              	.LVL1:
  58 0000 F8B5     		push	{r3, r4, r5, r6, r7, lr}
  59              	.LCFI0:
  60              		.cfi_def_cfa_offset 24
  61              		.cfi_offset 14, -4
  62              		.cfi_offset 7, -8
  63              		.cfi_offset 6, -12
  64              		.cfi_offset 5, -16
  65              		.cfi_offset 4, -20
  66              		.cfi_offset 3, -24
  67              		.loc 1 139 0
  68 0002 8568     		ldr	r5, [r0, #8]
  69              	.LVL2:
  70              		.loc 1 140 0
  71 0004 8160     		str	r1, [r0, #8]
  72              		.loc 1 141 0
  73 0006 0135     		adds	r5, r5, #1
  74              	.LVL3:
  75 0008 002D     		cmp	r5, #0
  76              		.loc 1 129 0
  77 000a 0446     		mov	r4, r0
  78              		.loc 1 141 0
  79 000c 29DC     		bgt	.L2
  80              	.LBB24:
  81              	.LBB25:
  82              		.file 2 "../../os/kernel/include/chinline.h"
  83              		.loc 2 60 0
  84 000e 4068     		ldr	r0, [r0, #4]
  85              	.LVL4:
  86              		.loc 2 62 0
  87 0010 4368     		ldr	r3, [r0, #4]
  88 0012 6360     		str	r3, [r4, #4]
  89 0014 1C60     		str	r4, [r3, #0]
  90              	.LBE25:
  91              	.LBE24:
  92              		.loc 1 142 0
  93 0016 FFF7FEFF 		bl	chSchReadyI
  94              	.LVL5:
  95 001a 6FF00107 		mvn	r7, #1
  96 001e 05F00103 		and	r3, r5, #1
  97              	.LVL6:
  98 0022 4762     		str	r7, [r0, #36]
  99              		.loc 1 141 0
 100 0024 6E1C     		adds	r6, r5, #1
 101 0026 EDB1     		cbz	r5, .L13
 102 0028 4BB1     		cbz	r3, .L5
 103              	.LBB29:
 104              	.LBB26:
 105              		.loc 2 60 0
 106 002a 6068     		ldr	r0, [r4, #4]
 107              	.LVL7:
 108              		.loc 2 62 0
 109 002c 4368     		ldr	r3, [r0, #4]
 110 002e 6360     		str	r3, [r4, #4]
 111 0030 1C60     		str	r4, [r3, #0]
 112              	.LBE26:
 113              	.LBE29:
ARM GAS  C:\Users\TAISIK~1\AppData\Local\Temp\ccYjAY5y.s 			page 3


 114              		.loc 1 142 0
 115 0032 FFF7FEFF 		bl	chSchReadyI
 116              		.loc 1 141 0
 117 0036 0136     		adds	r6, r6, #1
 118 0038 012E     		cmp	r6, #1
 119              		.loc 1 142 0
 120 003a 4762     		str	r7, [r0, #36]
 121              	.LVL8:
 122              		.loc 1 141 0
 123 003c 13D0     		beq	.L14
 124              	.L5:
 125              	.LBB30:
 126              	.LBB27:
 127              		.loc 2 60 0
 128 003e 6068     		ldr	r0, [r4, #4]
 129              		.loc 2 62 0
 130 0040 4268     		ldr	r2, [r0, #4]
 131 0042 6260     		str	r2, [r4, #4]
 132 0044 1460     		str	r4, [r2, #0]
 133              	.LBE27:
 134              	.LBE30:
 135              		.loc 1 142 0
 136 0046 FFF7FEFF 		bl	chSchReadyI
 137 004a 4762     		str	r7, [r0, #36]
 138              	.LBB31:
 139              	.LBB28:
 140              		.loc 2 60 0
 141 004c 6068     		ldr	r0, [r4, #4]
 142              		.loc 2 62 0
 143 004e 4168     		ldr	r1, [r0, #4]
 144 0050 6160     		str	r1, [r4, #4]
 145 0052 0C60     		str	r4, [r1, #0]
 146              	.LBE28:
 147              	.LBE31:
 148              		.loc 1 142 0
 149 0054 FFF7FEFF 		bl	chSchReadyI
 150              		.loc 1 141 0
 151 0058 751C     		adds	r5, r6, #1
 152              		.loc 1 142 0
 153 005a 4762     		str	r7, [r0, #36]
 154              		.loc 1 141 0
 155 005c 0236     		adds	r6, r6, #2
 156 005e 002D     		cmp	r5, #0
 157 0060 EDD1     		bne	.L5
 158              	.LVL9:
 159              	.L2:
 160 0062 F8BD     		pop	{r3, r4, r5, r6, r7, pc}
 161              	.LVL10:
 162              	.L13:
 163 0064 F8BD     		pop	{r3, r4, r5, r6, r7, pc}
 164              	.LVL11:
 165              	.L14:
 166 0066 F8BD     		pop	{r3, r4, r5, r6, r7, pc}
 167              		.cfi_endproc
 168              	.LFE9:
 169              		.size	chSemResetI, .-chSemResetI
 170 0068 AFF30080 		.section	.text.chSemReset,"ax",%progbits
ARM GAS  C:\Users\TAISIK~1\AppData\Local\Temp\ccYjAY5y.s 			page 4


 170      AFF30080 
 171              		.align	2
 172              		.p2align 4,,15
 173              		.global	chSemReset
 174              		.thumb
 175              		.thumb_func
 176              		.type	chSemReset, %function
 177              	chSemReset:
 178              	.LFB8:
 179              		.loc 1 102 0
 180              		.cfi_startproc
 181              		@ args = 0, pretend = 0, frame = 0
 182              		@ frame_needed = 0, uses_anonymous_args = 0
 183              	.LVL12:
 184 0000 08B5     		push	{r3, lr}
 185              	.LCFI1:
 186              		.cfi_def_cfa_offset 8
 187              		.cfi_offset 14, -4
 188              		.cfi_offset 3, -8
 189              	.LBB32:
 190              		.loc 1 104 0
 191 0002 2023     		movs	r3, #32
 192              	.LVL13:
 193              	@ 104 "../../os/kernel/src/chsem.c" 1
 194 0004 83F31188 		msr     BASEPRI, r3
 195              	@ 0 "" 2
 196              	.LVL14:
 197              		.thumb
 198              	.LBE32:
 199              		.loc 1 105 0
 200 0008 FFF7FEFF 		bl	chSemResetI
 201              	.LVL15:
 202              		.loc 1 106 0
 203 000c FFF7FEFF 		bl	chSchRescheduleS
 204              	.LBB33:
 205              		.loc 1 107 0
 206 0010 0023     		movs	r3, #0
 207              	.LVL16:
 208              	@ 107 "../../os/kernel/src/chsem.c" 1
 209 0012 83F31188 		msr     BASEPRI, r3
 210              	@ 0 "" 2
 211              	.LVL17:
 212              		.thumb
 213              	.LBE33:
 214              		.loc 1 108 0
 215 0016 08BD     		pop	{r3, pc}
 216              		.cfi_endproc
 217              	.LFE8:
 218              		.size	chSemReset, .-chSemReset
 219 0018 AFF30080 		.section	.text.chSemWaitS,"ax",%progbits
 219      AFF30080 
 220              		.align	2
 221              		.p2align 4,,15
 222              		.global	chSemWaitS
 223              		.thumb
 224              		.thumb_func
 225              		.type	chSemWaitS, %function
ARM GAS  C:\Users\TAISIK~1\AppData\Local\Temp\ccYjAY5y.s 			page 5


 226              	chSemWaitS:
 227              	.LFB11:
 228              		.loc 1 178 0
 229              		.cfi_startproc
 230              		@ args = 0, pretend = 0, frame = 0
 231              		@ frame_needed = 0, uses_anonymous_args = 0
 232              	.LVL18:
 233 0000 0346     		mov	r3, r0
 234              		.loc 1 187 0
 235 0002 8068     		ldr	r0, [r0, #8]
 236              	.LVL19:
 237 0004 421E     		subs	r2, r0, #1
 238 0006 002A     		cmp	r2, #0
 239              		.loc 1 178 0
 240 0008 10B5     		push	{r4, lr}
 241              	.LCFI2:
 242              		.cfi_def_cfa_offset 8
 243              		.cfi_offset 14, -4
 244              		.cfi_offset 4, -8
 245              		.loc 1 187 0
 246 000a 9A60     		str	r2, [r3, #8]
 247 000c 01DB     		blt	.L19
 248              		.loc 1 193 0
 249 000e 0020     		movs	r0, #0
 250              		.loc 1 194 0
 251 0010 10BD     		pop	{r4, pc}
 252              	.L19:
 253              		.loc 1 188 0
 254 0012 074C     		ldr	r4, .L20
 255 0014 A269     		ldr	r2, [r4, #24]
 256 0016 5362     		str	r3, [r2, #36]
 257              	.LVL20:
 258              	.LBB34:
 259              	.LBB35:
 260              		.loc 2 48 0
 261 0018 5968     		ldr	r1, [r3, #4]
 262              		.loc 2 47 0
 263 001a 1360     		str	r3, [r2, #0]
 264              		.loc 2 48 0
 265 001c 5160     		str	r1, [r2, #4]
 266              	.LBE35:
 267              	.LBE34:
 268              		.loc 1 190 0
 269 001e 0320     		movs	r0, #3
 270              	.LBB37:
 271              	.LBB36:
 272              		.loc 2 49 0
 273 0020 5A60     		str	r2, [r3, #4]
 274 0022 0A60     		str	r2, [r1, #0]
 275              	.LBE36:
 276              	.LBE37:
 277              		.loc 1 190 0
 278 0024 FFF7FEFF 		bl	chSchGoSleepS
 279              	.LVL21:
 280              		.loc 1 191 0
 281 0028 A369     		ldr	r3, [r4, #24]
 282 002a 586A     		ldr	r0, [r3, #36]
ARM GAS  C:\Users\TAISIK~1\AppData\Local\Temp\ccYjAY5y.s 			page 6


 283 002c 10BD     		pop	{r4, pc}
 284              	.L21:
 285 002e 00BF     		.align	2
 286              	.L20:
 287 0030 00000000 		.word	rlist
 288              		.cfi_endproc
 289              	.LFE11:
 290              		.size	chSemWaitS, .-chSemWaitS
 291 0034 AFF30080 		.section	.text.chSemWait,"ax",%progbits
 291      AFF30080 
 291      AFF30080 
 292              		.align	2
 293              		.p2align 4,,15
 294              		.global	chSemWait
 295              		.thumb
 296              		.thumb_func
 297              		.type	chSemWait, %function
 298              	chSemWait:
 299              	.LFB10:
 300              		.loc 1 157 0
 301              		.cfi_startproc
 302              		@ args = 0, pretend = 0, frame = 0
 303              		@ frame_needed = 0, uses_anonymous_args = 0
 304              	.LVL22:
 305 0000 08B5     		push	{r3, lr}
 306              	.LCFI3:
 307              		.cfi_def_cfa_offset 8
 308              		.cfi_offset 14, -4
 309              		.cfi_offset 3, -8
 310              	.LBB38:
 311              		.loc 1 160 0
 312 0002 2023     		movs	r3, #32
 313              	.LVL23:
 314              	@ 160 "../../os/kernel/src/chsem.c" 1
 315 0004 83F31188 		msr     BASEPRI, r3
 316              	@ 0 "" 2
 317              	.LVL24:
 318              		.thumb
 319              	.LBE38:
 320              		.loc 1 161 0
 321 0008 FFF7FEFF 		bl	chSemWaitS
 322              	.LVL25:
 323              	.LBB39:
 324              		.loc 1 162 0
 325 000c 0023     		movs	r3, #0
 326              	.LVL26:
 327              	@ 162 "../../os/kernel/src/chsem.c" 1
 328 000e 83F31188 		msr     BASEPRI, r3
 329              	@ 0 "" 2
 330              	.LVL27:
 331              		.thumb
 332              	.LBE39:
 333              		.loc 1 164 0
 334 0012 08BD     		pop	{r3, pc}
 335              		.cfi_endproc
 336              	.LFE10:
 337              		.size	chSemWait, .-chSemWait
ARM GAS  C:\Users\TAISIK~1\AppData\Local\Temp\ccYjAY5y.s 			page 7


 338 0014 AFF30080 		.section	.text.chSemWaitTimeoutS,"ax",%progbits
 338      AFF30080 
 338      AFF30080 
 339              		.align	2
 340              		.p2align 4,,15
 341              		.global	chSemWaitTimeoutS
 342              		.thumb
 343              		.thumb_func
 344              		.type	chSemWaitTimeoutS, %function
 345              	chSemWaitTimeoutS:
 346              	.LFB13:
 347              		.loc 1 243 0
 348              		.cfi_startproc
 349              		@ args = 0, pretend = 0, frame = 0
 350              		@ frame_needed = 0, uses_anonymous_args = 0
 351              		@ link register save eliminated.
 352              	.LVL28:
 353              		.loc 1 252 0
 354 0000 8268     		ldr	r2, [r0, #8]
 355 0002 531E     		subs	r3, r2, #1
 356 0004 002B     		cmp	r3, #0
 357 0006 8360     		str	r3, [r0, #8]
 358 0008 01DB     		blt	.L27
 359              		.loc 1 261 0
 360 000a 0020     		movs	r0, #0
 361              	.LVL29:
 362              		.loc 1 262 0
 363 000c 7047     		bx	lr
 364              	.LVL30:
 365              	.L27:
 366              		.loc 1 253 0
 367 000e 51B1     		cbz	r1, .L28
 368              		.loc 1 257 0
 369 0010 074A     		ldr	r2, .L29
 370 0012 9369     		ldr	r3, [r2, #24]
 371 0014 5862     		str	r0, [r3, #36]
 372              	.LVL31:
 373              	.LBB40:
 374              	.LBB41:
 375              		.loc 2 48 0
 376 0016 4268     		ldr	r2, [r0, #4]
 377              	.LVL32:
 378 0018 83E80500 		stmia	r3, {r0, r2}
 379              		.loc 2 49 0
 380 001c 4360     		str	r3, [r0, #4]
 381              	.LBE41:
 382              	.LBE40:
 383              		.loc 1 259 0
 384 001e 0320     		movs	r0, #3
 385              	.LVL33:
 386              	.LBB43:
 387              	.LBB42:
 388              		.loc 2 49 0
 389 0020 1360     		str	r3, [r2, #0]
 390              	.LBE42:
 391              	.LBE43:
 392              		.loc 1 262 0
ARM GAS  C:\Users\TAISIK~1\AppData\Local\Temp\ccYjAY5y.s 			page 8


 393              		.loc 1 259 0
 394 0022 FFF7FEBF 		b	chSchGoSleepTimeoutS
 395              	.LVL34:
 396              	.L28:
 397              		.loc 1 254 0
 398 0026 8260     		str	r2, [r0, #8]
 399              		.loc 1 255 0
 400 0028 4FF0FF30 		mov	r0, #-1
 401              	.LVL35:
 402 002c 7047     		bx	lr
 403              	.L30:
 404 002e 00BF     		.align	2
 405              	.L29:
 406 0030 00000000 		.word	rlist
 407              		.cfi_endproc
 408              	.LFE13:
 409              		.size	chSemWaitTimeoutS, .-chSemWaitTimeoutS
 410 0034 AFF30080 		.section	.text.chSemWaitTimeout,"ax",%progbits
 410      AFF30080 
 410      AFF30080 
 411              		.align	2
 412              		.p2align 4,,15
 413              		.global	chSemWaitTimeout
 414              		.thumb
 415              		.thumb_func
 416              		.type	chSemWaitTimeout, %function
 417              	chSemWaitTimeout:
 418              	.LFB12:
 419              		.loc 1 215 0
 420              		.cfi_startproc
 421              		@ args = 0, pretend = 0, frame = 0
 422              		@ frame_needed = 0, uses_anonymous_args = 0
 423              	.LVL36:
 424 0000 08B5     		push	{r3, lr}
 425              	.LCFI4:
 426              		.cfi_def_cfa_offset 8
 427              		.cfi_offset 14, -4
 428              		.cfi_offset 3, -8
 429              	.LBB44:
 430              		.loc 1 218 0
 431 0002 2023     		movs	r3, #32
 432              	.LVL37:
 433              	@ 218 "../../os/kernel/src/chsem.c" 1
 434 0004 83F31188 		msr     BASEPRI, r3
 435              	@ 0 "" 2
 436              	.LVL38:
 437              		.thumb
 438              	.LBE44:
 439              		.loc 1 219 0
 440 0008 FFF7FEFF 		bl	chSemWaitTimeoutS
 441              	.LVL39:
 442              	.LBB45:
 443              		.loc 1 220 0
 444 000c 0023     		movs	r3, #0
 445              	.LVL40:
 446              	@ 220 "../../os/kernel/src/chsem.c" 1
 447 000e 83F31188 		msr     BASEPRI, r3
ARM GAS  C:\Users\TAISIK~1\AppData\Local\Temp\ccYjAY5y.s 			page 9


 448              	@ 0 "" 2
 449              	.LVL41:
 450              		.thumb
 451              	.LBE45:
 452              		.loc 1 222 0
 453 0012 08BD     		pop	{r3, pc}
 454              		.cfi_endproc
 455              	.LFE12:
 456              		.size	chSemWaitTimeout, .-chSemWaitTimeout
 457 0014 AFF30080 		.section	.text.chSemSignal,"ax",%progbits
 457      AFF30080 
 457      AFF30080 
 458              		.align	2
 459              		.p2align 4,,15
 460              		.global	chSemSignal
 461              		.thumb
 462              		.thumb_func
 463              		.type	chSemSignal, %function
 464              	chSemSignal:
 465              	.LFB14:
 466              		.loc 1 271 0
 467              		.cfi_startproc
 468              		@ args = 0, pretend = 0, frame = 0
 469              		@ frame_needed = 0, uses_anonymous_args = 0
 470              	.LVL42:
 471 0000 08B5     		push	{r3, lr}
 472              	.LCFI5:
 473              		.cfi_def_cfa_offset 8
 474              		.cfi_offset 14, -4
 475              		.cfi_offset 3, -8
 476              	.LBB46:
 477              		.loc 1 279 0
 478 0002 2023     		movs	r3, #32
 479              	.LVL43:
 480              	@ 279 "../../os/kernel/src/chsem.c" 1
 481 0004 83F31188 		msr     BASEPRI, r3
 482              	@ 0 "" 2
 483              	.LVL44:
 484              		.thumb
 485              	.LBE46:
 486              		.loc 1 280 0
 487 0008 8168     		ldr	r1, [r0, #8]
 488 000a 4B1C     		adds	r3, r1, #1
 489              	.LVL45:
 490 000c 002B     		cmp	r3, #0
 491 000e 8360     		str	r3, [r0, #8]
 492 0010 03DD     		ble	.L34
 493              	.LBB47:
 494              		.loc 1 282 0
 495 0012 0023     		movs	r3, #0
 496              	.LVL46:
 497              	@ 282 "../../os/kernel/src/chsem.c" 1
 498 0014 83F31188 		msr     BASEPRI, r3
 499              	@ 0 "" 2
 500              	.LVL47:
 501              		.thumb
 502              	.LBE47:
ARM GAS  C:\Users\TAISIK~1\AppData\Local\Temp\ccYjAY5y.s 			page 10


 503              		.loc 1 283 0
 504 0018 08BD     		pop	{r3, pc}
 505              	.LVL48:
 506              	.L34:
 507              	.LBB48:
 508              	.LBB49:
 509              		.loc 2 53 0
 510 001a 0368     		ldr	r3, [r0, #0]
 511              	.LVL49:
 512              		.loc 2 55 0
 513 001c 1A68     		ldr	r2, [r3, #0]
 514              	.LBE49:
 515              	.LBE48:
 516              		.loc 1 281 0
 517 001e 0021     		movs	r1, #0
 518              	.LBB51:
 519              	.LBB50:
 520              		.loc 2 55 0
 521 0020 0260     		str	r2, [r0, #0]
 522 0022 5060     		str	r0, [r2, #4]
 523              	.LBE50:
 524              	.LBE51:
 525              		.loc 1 281 0
 526 0024 1846     		mov	r0, r3
 527              	.LVL50:
 528 0026 FFF7FEFF 		bl	chSchWakeupS
 529              	.LVL51:
 530              	.LBB52:
 531              		.loc 1 282 0
 532 002a 0023     		movs	r3, #0
 533              	@ 282 "../../os/kernel/src/chsem.c" 1
 534 002c 83F31188 		msr     BASEPRI, r3
 535              	@ 0 "" 2
 536              	.LVL52:
 537              		.thumb
 538              	.LBE52:
 539              		.loc 1 283 0
 540 0030 08BD     		pop	{r3, pc}
 541              		.cfi_endproc
 542              	.LFE14:
 543              		.size	chSemSignal, .-chSemSignal
 544 0032 00BFAFF3 		.section	.text.chSemSignalI,"ax",%progbits
 544      0080AFF3 
 544      0080AFF3 
 544      0080
 545              		.align	2
 546              		.p2align 4,,15
 547              		.global	chSemSignalI
 548              		.thumb
 549              		.thumb_func
 550              		.type	chSemSignalI, %function
 551              	chSemSignalI:
 552              	.LFB15:
 553              		.loc 1 296 0
 554              		.cfi_startproc
 555              		@ args = 0, pretend = 0, frame = 0
 556              		@ frame_needed = 0, uses_anonymous_args = 0
ARM GAS  C:\Users\TAISIK~1\AppData\Local\Temp\ccYjAY5y.s 			page 11


 557              		@ link register save eliminated.
 558              	.LVL53:
 559              		.loc 1 305 0
 560 0000 8168     		ldr	r1, [r0, #8]
 561 0002 4B1C     		adds	r3, r1, #1
 562 0004 002B     		cmp	r3, #0
 563 0006 8360     		str	r3, [r0, #8]
 564 0008 00DD     		ble	.L37
 565 000a 7047     		bx	lr
 566              	.L37:
 567              	.LVL54:
 568              	.LBB53:
 569              	.LBB54:
 570              	.LBB55:
 571              		.loc 2 53 0
 572 000c 0368     		ldr	r3, [r0, #0]
 573              	.LVL55:
 574              		.loc 2 55 0
 575 000e 1968     		ldr	r1, [r3, #0]
 576              	.LBE55:
 577              	.LBE54:
 578              		.loc 1 309 0
 579 0010 0022     		movs	r2, #0
 580              	.LBB57:
 581              	.LBB56:
 582              		.loc 2 55 0
 583 0012 0160     		str	r1, [r0, #0]
 584 0014 4860     		str	r0, [r1, #4]
 585              	.LBE56:
 586              	.LBE57:
 587              		.loc 1 310 0
 588 0016 1846     		mov	r0, r3
 589              	.LVL56:
 590              		.loc 1 309 0
 591 0018 5A62     		str	r2, [r3, #36]
 592              	.LBE53:
 593              		.loc 1 312 0
 594              	.LBB58:
 595              		.loc 1 310 0
 596 001a FFF7FEBF 		b	chSchReadyI
 597              	.LVL57:
 598              	.LVL58:
 599              	.LBE58:
 600              		.cfi_endproc
 601              	.LFE15:
 602              		.size	chSemSignalI, .-chSemSignalI
 603 001e 00BF     		.section	.text.chSemAddCounterI,"ax",%progbits
 604              		.align	2
 605              		.p2align 4,,15
 606              		.global	chSemAddCounterI
 607              		.thumb
 608              		.thumb_func
 609              		.type	chSemAddCounterI, %function
 610              	chSemAddCounterI:
 611              	.LFB16:
 612              		.loc 1 327 0
 613              		.cfi_startproc
ARM GAS  C:\Users\TAISIK~1\AppData\Local\Temp\ccYjAY5y.s 			page 12


 614              		@ args = 0, pretend = 0, frame = 8
 615              		@ frame_needed = 0, uses_anonymous_args = 0
 616              	.LVL59:
 617 0000 F0B5     		push	{r4, r5, r6, r7, lr}
 618              	.LCFI6:
 619              		.cfi_def_cfa_offset 20
 620              		.cfi_offset 14, -4
 621              		.cfi_offset 7, -8
 622              		.cfi_offset 6, -12
 623              		.cfi_offset 5, -16
 624              		.cfi_offset 4, -20
 625              		.loc 1 336 0
 626 0002 0029     		cmp	r1, #0
 627              		.loc 1 327 0
 628 0004 83B0     		sub	sp, sp, #12
 629              	.LCFI7:
 630              		.cfi_def_cfa_offset 32
 631              		.loc 1 327 0
 632 0006 0446     		mov	r4, r0
 633              		.loc 1 336 0
 634 0008 2EDD     		ble	.L38
 635              		.loc 1 337 0
 636 000a 8068     		ldr	r0, [r0, #8]
 637              	.LVL60:
 638              		.loc 1 338 0
 639 000c 0026     		movs	r6, #0
 640              		.loc 1 337 0
 641 000e 431C     		adds	r3, r0, #1
 642 0010 4F1E     		subs	r7, r1, #1
 643 0012 B342     		cmp	r3, r6
 644 0014 A360     		str	r3, [r4, #8]
 645 0016 07F00107 		and	r7, r7, #1
 646 001a 27DD     		ble	.L56
 647              	.LVL61:
 648              	.L44:
 649              		.loc 1 336 0
 650 001c 4D1E     		subs	r5, r1, #1
 651 001e 23D0     		beq	.L38
 652 0020 37B1     		cbz	r7, .L42
 653              	.LVL62:
 654              	.L55:
 655              		.loc 1 337 0
 656 0022 A168     		ldr	r1, [r4, #8]
 657 0024 481C     		adds	r0, r1, #1
 658 0026 0028     		cmp	r0, #0
 659 0028 A060     		str	r0, [r4, #8]
 660 002a 14DD     		ble	.L57
 661              	.L49:
 662              		.loc 1 336 0
 663 002c 013D     		subs	r5, r5, #1
 664 002e 1BD0     		beq	.L38
 665              	.L42:
 666              		.loc 1 337 0
 667 0030 A268     		ldr	r2, [r4, #8]
 668 0032 511C     		adds	r1, r2, #1
 669 0034 0029     		cmp	r1, #0
 670 0036 A160     		str	r1, [r4, #8]
ARM GAS  C:\Users\TAISIK~1\AppData\Local\Temp\ccYjAY5y.s 			page 13


 671              		.loc 1 339 0
 672 0038 05F1FF35 		add	r5, r5, #-1
 673              		.loc 1 337 0
 674 003c F1DC     		bgt	.L55
 675              	.LVL63:
 676              	.LBB59:
 677              	.LBB60:
 678              		.loc 2 53 0
 679 003e 2068     		ldr	r0, [r4, #0]
 680              	.LVL64:
 681              		.loc 2 55 0
 682 0040 0368     		ldr	r3, [r0, #0]
 683 0042 2360     		str	r3, [r4, #0]
 684 0044 5C60     		str	r4, [r3, #4]
 685              	.LBE60:
 686              	.LBE59:
 687              		.loc 1 338 0
 688 0046 FFF7FEFF 		bl	chSchReadyI
 689              	.LVL65:
 690 004a 4662     		str	r6, [r0, #36]
 691              		.loc 1 337 0
 692 004c A168     		ldr	r1, [r4, #8]
 693 004e 481C     		adds	r0, r1, #1
 694 0050 0028     		cmp	r0, #0
 695 0052 A060     		str	r0, [r4, #8]
 696 0054 EADC     		bgt	.L49
 697              	.LVL66:
 698              	.L57:
 699              	.LBB63:
 700              	.LBB61:
 701              		.loc 2 53 0
 702 0056 2068     		ldr	r0, [r4, #0]
 703              		.loc 2 55 0
 704 0058 0268     		ldr	r2, [r0, #0]
 705 005a 2260     		str	r2, [r4, #0]
 706 005c 5460     		str	r4, [r2, #4]
 707              	.LBE61:
 708              	.LBE63:
 709              		.loc 1 338 0
 710 005e FFF7FEFF 		bl	chSchReadyI
 711              		.loc 1 336 0
 712 0062 013D     		subs	r5, r5, #1
 713              		.loc 1 338 0
 714 0064 4662     		str	r6, [r0, #36]
 715              		.loc 1 336 0
 716 0066 E3D1     		bne	.L42
 717              	.LVL67:
 718              	.L38:
 719              		.loc 1 341 0
 720 0068 03B0     		add	sp, sp, #12
 721 006a F0BD     		pop	{r4, r5, r6, r7, pc}
 722              	.LVL68:
 723              	.L56:
 724              	.LBB64:
 725              	.LBB62:
 726              		.loc 2 53 0
 727 006c 2068     		ldr	r0, [r4, #0]
ARM GAS  C:\Users\TAISIK~1\AppData\Local\Temp\ccYjAY5y.s 			page 14


 728              		.loc 2 55 0
 729 006e 0568     		ldr	r5, [r0, #0]
 730 0070 2560     		str	r5, [r4, #0]
 731 0072 6C60     		str	r4, [r5, #4]
 732              	.LBE62:
 733              	.LBE64:
 734              		.loc 1 338 0
 735 0074 0191     		str	r1, [sp, #4]
 736 0076 FFF7FEFF 		bl	chSchReadyI
 737              	.LVL69:
 738 007a 4662     		str	r6, [r0, #36]
 739 007c 0199     		ldr	r1, [sp, #4]
 740 007e CDE7     		b	.L44
 741              		.cfi_endproc
 742              	.LFE16:
 743              		.size	chSemAddCounterI, .-chSemAddCounterI
 744              		.section	.text.chSemSignalWait,"ax",%progbits
 745              		.align	2
 746              		.p2align 4,,15
 747              		.global	chSemSignalWait
 748              		.thumb
 749              		.thumb_func
 750              		.type	chSemSignalWait, %function
 751              	chSemSignalWait:
 752              	.LFB17:
 753              		.loc 1 359 0
 754              		.cfi_startproc
 755              		@ args = 0, pretend = 0, frame = 8
 756              		@ frame_needed = 0, uses_anonymous_args = 0
 757              	.LVL70:
 758 0000 10B5     		push	{r4, lr}
 759              	.LCFI8:
 760              		.cfi_def_cfa_offset 8
 761              		.cfi_offset 14, -4
 762              		.cfi_offset 4, -8
 763 0002 0246     		mov	r2, r0
 764 0004 82B0     		sub	sp, sp, #8
 765              	.LCFI9:
 766              		.cfi_def_cfa_offset 16
 767              	.LBB65:
 768              		.loc 1 372 0
 769 0006 2023     		movs	r3, #32
 770              	.LVL71:
 771              	@ 372 "../../os/kernel/src/chsem.c" 1
 772 0008 83F31188 		msr     BASEPRI, r3
 773              	@ 0 "" 2
 774              	.LVL72:
 775              		.thumb
 776              	.LBE65:
 777              		.loc 1 373 0
 778 000c 8068     		ldr	r0, [r0, #8]
 779              	.LVL73:
 780 000e 431C     		adds	r3, r0, #1
 781              	.LVL74:
 782 0010 002B     		cmp	r3, #0
 783 0012 9360     		str	r3, [r2, #8]
 784 0014 19DD     		ble	.L62
ARM GAS  C:\Users\TAISIK~1\AppData\Local\Temp\ccYjAY5y.s 			page 15


 785              	.LVL75:
 786              	.L59:
 787              		.loc 1 375 0
 788 0016 8868     		ldr	r0, [r1, #8]
 789 0018 421E     		subs	r2, r0, #1
 790 001a 002A     		cmp	r2, #0
 791 001c 8A60     		str	r2, [r1, #8]
 792 001e 07DB     		blt	.L63
 793              		.loc 1 383 0
 794 0020 FFF7FEFF 		bl	chSchRescheduleS
 795              	.LVL76:
 796              		.loc 1 384 0
 797 0024 0020     		movs	r0, #0
 798              	.LVL77:
 799              	.L61:
 800              	.LBB66:
 801              		.loc 1 386 0
 802 0026 0023     		movs	r3, #0
 803              	.LVL78:
 804              	@ 386 "../../os/kernel/src/chsem.c" 1
 805 0028 83F31188 		msr     BASEPRI, r3
 806              	@ 0 "" 2
 807              	.LVL79:
 808              		.thumb
 809              	.LBE66:
 810              		.loc 1 388 0
 811 002c 02B0     		add	sp, sp, #8
 812 002e 10BD     		pop	{r4, pc}
 813              	.LVL80:
 814              	.L63:
 815              	.LBB67:
 816              		.loc 1 376 0
 817 0030 0B4C     		ldr	r4, .L64
 818              	.LBB68:
 819              	.LBB69:
 820              		.loc 2 48 0
 821 0032 4B68     		ldr	r3, [r1, #4]
 822              	.LBE69:
 823              	.LBE68:
 824              		.loc 1 376 0
 825 0034 A469     		ldr	r4, [r4, #24]
 826              	.LVL81:
 827              		.loc 1 379 0
 828 0036 0320     		movs	r0, #3
 829              	.LBB71:
 830              	.LBB70:
 831              		.loc 2 48 0
 832 0038 84E80A00 		stmia	r4, {r1, r3}
 833              		.loc 2 49 0
 834 003c 4C60     		str	r4, [r1, #4]
 835 003e 1C60     		str	r4, [r3, #0]
 836              	.LBE70:
 837              	.LBE71:
 838              		.loc 1 378 0
 839 0040 6162     		str	r1, [r4, #36]
 840              		.loc 1 379 0
 841 0042 FFF7FEFF 		bl	chSchGoSleepS
ARM GAS  C:\Users\TAISIK~1\AppData\Local\Temp\ccYjAY5y.s 			page 16


 842              	.LVL82:
 843              		.loc 1 380 0
 844 0046 606A     		ldr	r0, [r4, #36]
 845              	.LVL83:
 846 0048 EDE7     		b	.L61
 847              	.LVL84:
 848              	.L62:
 849              	.LBE67:
 850              	.LBB72:
 851              	.LBB73:
 852              		.loc 2 53 0
 853 004a 1068     		ldr	r0, [r2, #0]
 854              	.LVL85:
 855              		.loc 2 55 0
 856 004c 0368     		ldr	r3, [r0, #0]
 857 004e 1360     		str	r3, [r2, #0]
 858 0050 5A60     		str	r2, [r3, #4]
 859              	.LBE73:
 860              	.LBE72:
 861              		.loc 1 374 0
 862 0052 0191     		str	r1, [sp, #4]
 863 0054 FFF7FEFF 		bl	chSchReadyI
 864              	.LVL86:
 865 0058 0021     		movs	r1, #0
 866 005a 4162     		str	r1, [r0, #36]
 867 005c 0199     		ldr	r1, [sp, #4]
 868 005e DAE7     		b	.L59
 869              	.L65:
 870              		.align	2
 871              	.L64:
 872 0060 00000000 		.word	rlist
 873              		.cfi_endproc
 874              	.LFE17:
 875              		.size	chSemSignalWait, .-chSemSignalWait
 876 0064 AFF30080 		.text
 876      AFF30080 
 876      AFF30080 
 877              	.Letext0:
 878              		.file 3 "c:\\chibistudio\\tools\\gnu tools arm embedded\\4.6 2012q4\\bin\\../lib/gcc/arm-none-eabi
 879              		.file 4 "../../os/ports/GCC/ARMCMx/chtypes.h"
 880              		.file 5 "../../os/kernel/include/chlists.h"
 881              		.file 6 "../../os/kernel/include/chthreads.h"
 882              		.file 7 "../../os/ports/GCC/ARMCMx/chcore_v7m.h"
 883              		.file 8 "../../os/kernel/include/chschd.h"
 884              		.file 9 "../../os/kernel/include/chsem.h"
 885              		.file 10 "../../os/kernel/include/chmtx.h"