ARM GAS  C:\Users\TAISIK~1\AppData\Local\Temp\cc0RLnSa.s 			page 1


   1              		.syntax unified
   2              		.cpu cortex-m4
   3              		.fpu softvfp
   4              		.eabi_attribute 20, 1
   5              		.eabi_attribute 21, 1
   6              		.eabi_attribute 23, 3
   7              		.eabi_attribute 24, 1
   8              		.eabi_attribute 25, 1
   9              		.eabi_attribute 26, 1
  10              		.eabi_attribute 30, 2
  11              		.eabi_attribute 34, 1
  12              		.eabi_attribute 18, 4
  13              		.thumb
  14              		.file	"chsys.c"
  15              		.text
  16              	.Ltext0:
  17              		.cfi_sections	.debug_frame
  18              		.section	.text._idle_thread,"ax",%progbits
  19              		.align	2
  20              		.p2align 4,,15
  21              		.global	_idle_thread
  22              		.thumb
  23              		.thumb_func
  24              		.type	_idle_thread, %function
  25              	_idle_thread:
  26              	.LFB7:
  27              		.file 1 "../../os/kernel/src/chsys.c"
  28              		.loc 1 54 0
  29              		.cfi_startproc
  30              		@ args = 0, pretend = 0, frame = 0
  31              		@ frame_needed = 0, uses_anonymous_args = 0
  32              		@ link register save eliminated.
  33              	.LVL0:
  34              		.loc 1 57 0
  35 0000 0248     		ldr	r0, .L4
  36              	.LVL1:
  37 0002 034A     		ldr	r2, .L4+4
  38 0004 8369     		ldr	r3, [r0, #24]
  39 0006 9A61     		str	r2, [r3, #24]
  40              	.L2:
  41 0008 FEE7     		b	.L2
  42              	.L5:
  43 000a 00BF     		.align	2
  44              	.L4:
  45 000c 00000000 		.word	rlist
  46 0010 00000000 		.word	.LC0
  47              		.cfi_endproc
  48              	.LFE7:
  49              		.size	_idle_thread, .-_idle_thread
  50 0014 AFF30080 		.section	.text.chSysInit,"ax",%progbits
  50      AFF30080 
  50      AFF30080 
  51              		.align	2
  52              		.p2align 4,,15
  53              		.global	chSysInit
  54              		.thumb
  55              		.thumb_func
ARM GAS  C:\Users\TAISIK~1\AppData\Local\Temp\cc0RLnSa.s 			page 2


  56              		.type	chSysInit, %function
  57              	chSysInit:
  58              	.LFB8:
  59              		.loc 1 77 0
  60              		.cfi_startproc
  61              		@ args = 0, pretend = 0, frame = 0
  62              		@ frame_needed = 0, uses_anonymous_args = 0
  63 0000 10B5     		push	{r4, lr}
  64              	.LCFI0:
  65              		.cfi_def_cfa_offset 8
  66              		.cfi_offset 14, -4
  67              		.cfi_offset 4, -8
  68 0002 82B0     		sub	sp, sp, #8
  69              	.LCFI1:
  70              		.cfi_def_cfa_offset 16
  71              		.loc 1 83 0
  72 0004 FFF7FEFF 		bl	_port_init
  73              		.loc 1 84 0
  74 0008 FFF7FEFF 		bl	_scheduler_init
  75              		.loc 1 85 0
  76 000c FFF7FEFF 		bl	_vt_init
  77              		.loc 1 87 0
  78 0010 FFF7FEFF 		bl	_core_init
  79              		.loc 1 90 0
  80 0014 FFF7FEFF 		bl	_heap_init
  81              		.loc 1 97 0
  82 0018 40F20000 		movw	r0, #:lower16:.LANCHOR0
  83 001c 4021     		movs	r1, #64
  84 001e C0F20000 		movt	r0, #:upper16:.LANCHOR0
  85 0022 FFF7FEFF 		bl	_thread_init
  86 0026 40F20004 		movw	r4, #:lower16:rlist
  87 002a C0F20004 		movt	r4, #:upper16:rlist
  88              		.loc 1 98 0
  89 002e 0122     		movs	r2, #1
  90              		.loc 1 97 0
  91 0030 A061     		str	r0, [r4, #24]
  92              		.loc 1 98 0
  93 0032 0277     		strb	r2, [r0, #28]
  94              	.LBB2:
  95              		.loc 1 104 0
  96 0034 0023     		movs	r3, #0
  97              	.LVL2:
  98              	@ 104 "../../os/kernel/src/chsys.c" 1
  99 0036 83F31188 		msr     BASEPRI, r3                    
 100 003a 62B6     		cpsie   i
 101              	@ 0 "" 2
 102              	.LVL3:
 103              		.thumb
 104              	.LBE2:
 105              		.loc 1 108 0
 106 003c A169     		ldr	r1, [r4, #24]
 107 003e 40F20004 		movw	r4, #:lower16:ch_debug
 108 0042 C0F20004 		movt	r4, #:upper16:ch_debug
 109 0046 8C61     		str	r4, [r1, #24]
 110              		.loc 1 114 0
 111 0048 40F20000 		movw	r0, #:lower16:.LANCHOR1
 112 004c 0021     		movs	r1, #0
ARM GAS  C:\Users\TAISIK~1\AppData\Local\Temp\cc0RLnSa.s 			page 3


 113 004e 40F20003 		movw	r3, #:lower16:_idle_thread
 114              	.LVL4:
 115 0052 0091     		str	r1, [sp, #0]
 116 0054 C0F20003 		movt	r3, #:upper16:_idle_thread
 117 0058 C021     		movs	r1, #192
 118 005a C0F20000 		movt	r0, #:upper16:.LANCHOR1
 119 005e FFF7FEFF 		bl	chThdCreateStatic
 120              		.loc 1 117 0
 121 0062 02B0     		add	sp, sp, #8
 122 0064 10BD     		pop	{r4, pc}
 123              		.cfi_endproc
 124              	.LFE8:
 125              		.size	chSysInit, .-chSysInit
 126 0066 00BFAFF3 		.section	.text.chSysTimerHandlerI,"ax",%progbits
 126      0080AFF3 
 126      0080
 127              		.align	2
 128              		.p2align 4,,15
 129              		.global	chSysTimerHandlerI
 130              		.thumb
 131              		.thumb_func
 132              		.type	chSysTimerHandlerI, %function
 133              	chSysTimerHandlerI:
 134              	.LFB9:
 135              		.loc 1 130 0
 136              		.cfi_startproc
 137              		@ args = 0, pretend = 0, frame = 0
 138              		@ frame_needed = 0, uses_anonymous_args = 0
 139 0000 38B5     		push	{r3, r4, r5, lr}
 140              	.LCFI2:
 141              		.cfi_def_cfa_offset 16
 142              		.cfi_offset 14, -4
 143              		.cfi_offset 5, -8
 144              		.cfi_offset 4, -12
 145              		.cfi_offset 3, -16
 146              		.loc 1 136 0
 147 0002 134B     		ldr	r3, .L13
 148 0004 9B69     		ldr	r3, [r3, #24]
 149 0006 DA7F     		ldrb	r2, [r3, #31]	@ zero_extendqisi2
 150 0008 0AB1     		cbz	r2, .L8
 151              		.loc 1 138 0
 152 000a 013A     		subs	r2, r2, #1
 153 000c DA77     		strb	r2, [r3, #31]
 154              	.L8:
 155              		.loc 1 141 0
 156 000e 1A6A     		ldr	r2, [r3, #32]
 157              		.loc 1 143 0
 158 0010 104C     		ldr	r4, .L13+4
 159              		.loc 1 141 0
 160 0012 511C     		adds	r1, r2, #1
 161 0014 1962     		str	r1, [r3, #32]
 162              		.loc 1 143 0
 163 0016 E368     		ldr	r3, [r4, #12]
 164 0018 2168     		ldr	r1, [r4, #0]
 165 001a 581C     		adds	r0, r3, #1
 166 001c A142     		cmp	r1, r4
 167 001e E060     		str	r0, [r4, #12]
ARM GAS  C:\Users\TAISIK~1\AppData\Local\Temp\cc0RLnSa.s 			page 4


 168 0020 14D0     		beq	.L7
 169              	.LBB3:
 170              		.loc 1 143 0 is_stmt 0 discriminator 1
 171 0022 8D68     		ldr	r5, [r1, #8]
 172 0024 013D     		subs	r5, r5, #1
 173 0026 8D60     		str	r5, [r1, #8]
 174              	.LVL5:
 175 0028 85B9     		cbnz	r5, .L7
 176              	.LVL6:
 177              	.L11:
 178              	.LBB4:
 179              		.loc 1 143 0 discriminator 3
 180 002a 0B68     		ldr	r3, [r1, #0]
 181              	.LVL7:
 182 002c CA68     		ldr	r2, [r1, #12]
 183              	.LVL8:
 184 002e 5C60     		str	r4, [r3, #4]
 185 0030 2360     		str	r3, [r4, #0]
 186 0032 CD60     		str	r5, [r1, #12]
 187              	.LBB5:
 188 0034 0023     		movs	r3, #0
 189              	.LVL9:
 190              	@ 143 "../../os/kernel/src/chsys.c" 1
 191 0036 83F31188 		msr     BASEPRI, r3
 192              	@ 0 "" 2
 193              	.LVL10:
 194              		.thumb
 195              	.LBE5:
 196 003a 0869     		ldr	r0, [r1, #16]
 197 003c 9047     		blx	r2
 198              	.LVL11:
 199              	.LBB6:
 200 003e 2023     		movs	r3, #32
 201              	@ 143 "../../os/kernel/src/chsys.c" 1
 202 0040 83F31188 		msr     BASEPRI, r3
 203              	@ 0 "" 2
 204              	.LVL12:
 205              		.thumb
 206              	.LBE6:
 207              	.LBE4:
 208 0044 2168     		ldr	r1, [r4, #0]
 209              	.LVL13:
 210 0046 8868     		ldr	r0, [r1, #8]
 211 0048 0028     		cmp	r0, #0
 212 004a EED0     		beq	.L11
 213              	.LVL14:
 214              	.L7:
 215 004c 38BD     		pop	{r3, r4, r5, pc}
 216              	.L14:
 217 004e 00BF     		.align	2
 218              	.L13:
 219 0050 00000000 		.word	rlist
 220 0054 00000000 		.word	vtlist
 221              	.LBE3:
 222              		.cfi_endproc
 223              	.LFE9:
 224              		.size	chSysTimerHandlerI, .-chSysTimerHandlerI
ARM GAS  C:\Users\TAISIK~1\AppData\Local\Temp\cc0RLnSa.s 			page 5


 225              		.global	_idle_thread_wa
 226 0058 AFF30080 		.section	.bss.mainthread.4648,"aw",%nobits
 226      AFF30080 
 227              		.align	2
 228              		.set	.LANCHOR0,. + 0
 229              		.type	mainthread.4648, %object
 230              		.size	mainthread.4648, 72
 231              	mainthread.4648:
 232 0000 00000000 		.space	72
 232      00000000 
 232      00000000 
 232      00000000 
 232      00000000 
 233              		.section	.rodata.str1.4,"aMS",%progbits,1
 234              		.align	2
 235              	.LC0:
 236 0000 69646C65 		.ascii	"idle\000"
 236      00
 237 0005 000000   		.section	.bss._idle_thread_wa,"aw",%nobits
 238              		.align	3
 239              		.set	.LANCHOR1,. + 0
 240              		.type	_idle_thread_wa, %object
 241              		.size	_idle_thread_wa, 192
 242              	_idle_thread_wa:
 243 0000 00000000 		.space	192
 243      00000000 
 243      00000000 
 243      00000000 
 243      00000000 
 244              		.text
 245              	.Letext0:
 246              		.file 2 "c:\\chibistudio\\tools\\gnu tools arm embedded\\4.6 2012q4\\bin\\../lib/gcc/arm-none-eabi
 247              		.file 3 "../../os/ports/GCC/ARMCMx/chtypes.h"
 248              		.file 4 "../../os/kernel/include/chlists.h"
 249              		.file 5 "../../os/kernel/include/chthreads.h"
 250              		.file 6 "../../os/ports/GCC/ARMCMx/chcore_v7m.h"
 251              		.file 7 "../../os/kernel/include/chvt.h"
 252              		.file 8 "../../os/kernel/include/chschd.h"
 253              		.file 9 "../../os/kernel/include/chmtx.h"
 254              		.file 10 "../../os/kernel/include/chregistry.h"
 255              		.file 11 "../../os/kernel/include/ch.h"