ARM GAS  C:\Users\TAISIK~1\AppData\Local\Temp\ccRuNuWs.s 			page 1


   1              		.syntax unified
   2              		.cpu cortex-m4
   3              		.fpu softvfp
   4              		.eabi_attribute 20, 1
   5              		.eabi_attribute 21, 1
   6              		.eabi_attribute 23, 3
   7              		.eabi_attribute 24, 1
   8              		.eabi_attribute 25, 1
   9              		.eabi_attribute 26, 1
  10              		.eabi_attribute 30, 2
  11              		.eabi_attribute 34, 1
  12              		.eabi_attribute 18, 4
  13              		.thumb
  14              		.file	"chvt.c"
  15              		.text
  16              	.Ltext0:
  17              		.cfi_sections	.debug_frame
  18              		.section	.text._vt_init,"ax",%progbits
  19              		.align	2
  20              		.p2align 4,,15
  21              		.global	_vt_init
  22              		.thumb
  23              		.thumb_func
  24              		.type	_vt_init, %function
  25              	_vt_init:
  26              	.LFB7:
  27              		.file 1 "../../os/kernel/src/chvt.c"
  28              		.loc 1 43 0
  29              		.cfi_startproc
  30              		@ args = 0, pretend = 0, frame = 0
  31              		@ frame_needed = 0, uses_anonymous_args = 0
  32              		@ link register save eliminated.
  33              		.loc 1 45 0
  34 0000 40F20003 		movw	r3, #:lower16:.LANCHOR0
  35 0004 C0F20003 		movt	r3, #:upper16:.LANCHOR0
  36              		.loc 1 46 0
  37 0008 4FF0FF30 		mov	r0, #-1
  38              		.loc 1 47 0
  39 000c 0022     		movs	r2, #0
  40              		.loc 1 45 0
  41 000e 5B60     		str	r3, [r3, #4]
  42 0010 1B60     		str	r3, [r3, #0]
  43              		.loc 1 46 0
  44 0012 9860     		str	r0, [r3, #8]
  45              		.loc 1 47 0
  46 0014 DA60     		str	r2, [r3, #12]
  47              		.loc 1 48 0
  48 0016 7047     		bx	lr
  49              		.cfi_endproc
  50              	.LFE7:
  51              		.size	_vt_init, .-_vt_init
  52 0018 AFF30080 		.section	.text.chVTSetI,"ax",%progbits
  52      AFF30080 
  53              		.align	2
  54              		.p2align 4,,15
  55              		.global	chVTSetI
  56              		.thumb
ARM GAS  C:\Users\TAISIK~1\AppData\Local\Temp\ccRuNuWs.s 			page 2


  57              		.thumb_func
  58              		.type	chVTSetI, %function
  59              	chVTSetI:
  60              	.LFB8:
  61              		.loc 1 69 0
  62              		.cfi_startproc
  63              		@ args = 0, pretend = 0, frame = 0
  64              		@ frame_needed = 0, uses_anonymous_args = 0
  65              		@ link register save eliminated.
  66              	.LVL0:
  67 0000 70B4     		push	{r4, r5, r6}
  68              	.LCFI0:
  69              		.cfi_def_cfa_offset 12
  70              		.cfi_offset 6, -4
  71              		.cfi_offset 5, -8
  72              		.cfi_offset 4, -12
  73              		.loc 1 78 0
  74 0002 0C4D     		ldr	r5, .L9
  75              		.loc 1 76 0
  76 0004 0361     		str	r3, [r0, #16]
  77              		.loc 1 78 0
  78 0006 2C68     		ldr	r4, [r5, #0]
  79              	.LVL1:
  80              		.loc 1 77 0
  81 0008 C260     		str	r2, [r0, #12]
  82              		.loc 1 79 0
  83 000a A668     		ldr	r6, [r4, #8]
  84 000c B142     		cmp	r1, r6
  85 000e 04D9     		bls	.L3
  86              	.LVL2:
  87              	.L6:
  88              		.loc 1 81 0
  89 0010 2468     		ldr	r4, [r4, #0]
  90              	.LVL3:
  91              		.loc 1 80 0
  92 0012 891B     		subs	r1, r1, r6
  93              	.LVL4:
  94              		.loc 1 79 0
  95 0014 A668     		ldr	r6, [r4, #8]
  96 0016 8E42     		cmp	r6, r1
  97 0018 FAD3     		bcc	.L6
  98              	.L3:
  99              		.loc 1 84 0
 100 001a 6368     		ldr	r3, [r4, #4]
 101              	.LVL5:
 102 001c 0460     		str	r4, [r0, #0]
 103              		.loc 1 87 0
 104 001e AC42     		cmp	r4, r5
 105              		.loc 1 84 0
 106 0020 4360     		str	r3, [r0, #4]
 107              		.loc 1 85 0
 108 0022 1860     		str	r0, [r3, #0]
 109 0024 6060     		str	r0, [r4, #4]
 110              		.loc 1 86 0
 111 0026 8160     		str	r1, [r0, #8]
 112              		.loc 1 87 0
 113 0028 02D0     		beq	.L2
ARM GAS  C:\Users\TAISIK~1\AppData\Local\Temp\ccRuNuWs.s 			page 3


 114              		.loc 1 88 0
 115 002a A068     		ldr	r0, [r4, #8]
 116              	.LVL6:
 117 002c 411A     		subs	r1, r0, r1
 118              	.LVL7:
 119 002e A160     		str	r1, [r4, #8]
 120              	.L2:
 121              		.loc 1 89 0
 122 0030 70BC     		pop	{r4, r5, r6}
 123 0032 7047     		bx	lr
 124              	.L10:
 125              		.align	2
 126              	.L9:
 127 0034 00000000 		.word	.LANCHOR0
 128              		.cfi_endproc
 129              	.LFE8:
 130              		.size	chVTSetI, .-chVTSetI
 131 0038 AFF30080 		.section	.text.chVTResetI,"ax",%progbits
 131      AFF30080 
 132              		.align	2
 133              		.p2align 4,,15
 134              		.global	chVTResetI
 135              		.thumb
 136              		.thumb_func
 137              		.type	chVTResetI, %function
 138              	chVTResetI:
 139              	.LFB9:
 140              		.loc 1 99 0
 141              		.cfi_startproc
 142              		@ args = 0, pretend = 0, frame = 0
 143              		@ frame_needed = 0, uses_anonymous_args = 0
 144              		@ link register save eliminated.
 145              	.LVL8:
 146              		.loc 1 107 0
 147 0000 0368     		ldr	r3, [r0, #0]
 148 0002 074A     		ldr	r2, .L13
 149 0004 9342     		cmp	r3, r2
 150 0006 03D0     		beq	.L12
 151              		.loc 1 108 0
 152 0008 9968     		ldr	r1, [r3, #8]
 153 000a 8268     		ldr	r2, [r0, #8]
 154 000c 8918     		adds	r1, r1, r2
 155 000e 9960     		str	r1, [r3, #8]
 156              	.L12:
 157              		.loc 1 109 0
 158 0010 4268     		ldr	r2, [r0, #4]
 159 0012 1360     		str	r3, [r2, #0]
 160              		.loc 1 110 0
 161 0014 0168     		ldr	r1, [r0, #0]
 162              		.loc 1 111 0
 163 0016 0023     		movs	r3, #0
 164              		.loc 1 110 0
 165 0018 4A60     		str	r2, [r1, #4]
 166              		.loc 1 111 0
 167 001a C360     		str	r3, [r0, #12]
 168              		.loc 1 112 0
 169 001c 7047     		bx	lr
ARM GAS  C:\Users\TAISIK~1\AppData\Local\Temp\ccRuNuWs.s 			page 4


 170              	.L14:
 171 001e 00BF     		.align	2
 172              	.L13:
 173 0020 00000000 		.word	.LANCHOR0
 174              		.cfi_endproc
 175              	.LFE9:
 176              		.size	chVTResetI, .-chVTResetI
 177 0024 AFF30080 		.section	.text.chTimeIsWithin,"ax",%progbits
 177      AFF30080 
 177      AFF30080 
 178              		.align	2
 179              		.p2align 4,,15
 180              		.global	chTimeIsWithin
 181              		.thumb
 182              		.thumb_func
 183              		.type	chTimeIsWithin, %function
 184              	chTimeIsWithin:
 185              	.LFB10:
 186              		.loc 1 127 0
 187              		.cfi_startproc
 188              		@ args = 0, pretend = 0, frame = 0
 189              		@ frame_needed = 0, uses_anonymous_args = 0
 190              		@ link register save eliminated.
 191              	.LVL9:
 192              		.loc 1 129 0
 193 0000 084B     		ldr	r3, .L23
 194              		.loc 1 130 0
 195 0002 8142     		cmp	r1, r0
 196              		.loc 1 129 0
 197 0004 DB68     		ldr	r3, [r3, #12]
 198              	.LVL10:
 199              		.loc 1 130 0
 200 0006 06D9     		bls	.L16
 201              		.loc 1 130 0 is_stmt 0 discriminator 1
 202 0008 8342     		cmp	r3, r0
 203 000a 08D3     		bcc	.L20
 204              	.L22:
 205              		.loc 1 130 0
 206 000c 8B42     		cmp	r3, r1
 207 000e 2CBF     		ite	cs
 208 0010 0020     		movcs	r0, #0
 209              	.LVL11:
 210 0012 0120     		movcc	r0, #1
 211 0014 7047     		bx	lr
 212              	.LVL12:
 213              	.L16:
 214              		.loc 1 130 0 discriminator 2
 215 0016 8342     		cmp	r3, r0
 216 0018 F8D3     		bcc	.L22
 217              		.loc 1 130 0
 218 001a 0120     		movs	r0, #1
 219              	.LVL13:
 220              		.loc 1 132 0 is_stmt 1
 221 001c 7047     		bx	lr
 222              	.LVL14:
 223              	.L20:
 224              		.loc 1 130 0
ARM GAS  C:\Users\TAISIK~1\AppData\Local\Temp\ccRuNuWs.s 			page 5


 225 001e 0020     		movs	r0, #0
 226              	.LVL15:
 227 0020 7047     		bx	lr
 228              	.L24:
 229 0022 00BF     		.align	2
 230              	.L23:
 231 0024 00000000 		.word	.LANCHOR0
 232              		.cfi_endproc
 233              	.LFE10:
 234              		.size	chTimeIsWithin, .-chTimeIsWithin
 235              		.global	vtlist
 236 0028 AFF30080 		.section	.bss.vtlist,"aw",%nobits
 236      AFF30080 
 237              		.align	2
 238              		.set	.LANCHOR0,. + 0
 239              		.type	vtlist, %object
 240              		.size	vtlist, 16
 241              	vtlist:
 242 0000 00000000 		.space	16
 242      00000000 
 242      00000000 
 242      00000000 
 243              		.text
 244              	.Letext0:
 245              		.file 2 "c:\\chibistudio\\tools\\gnu tools arm embedded\\4.6 2012q4\\bin\\../lib/gcc/arm-none-eabi
 246              		.file 3 "../../os/ports/GCC/ARMCMx/chtypes.h"
 247              		.file 4 "../../os/kernel/include/chvt.h"
 248              		.section	.debug_info,"",%progbits
 249              	.Ldebug_info0:
 250 0000 6F020000 		.4byte	0x26f
 251 0004 0200     		.2byte	0x2
 252 0006 00000000 		.4byte	.Ldebug_abbrev0
 253 000a 04       		.byte	0x4
 254 000b 01       		.uleb128 0x1
 255 000c 19000000 		.4byte	.LASF29
 256 0010 01       		.byte	0x1
 257 0011 36010000 		.4byte	.LASF30
 258 0015 BB000000 		.4byte	.LASF31
 259 0019 00000000 		.4byte	0
 260 001d 00000000 		.4byte	0
 261 0021 00000000 		.4byte	.Ldebug_ranges0+0
 262 0025 00000000 		.4byte	.Ldebug_line0
 263 0029 02       		.uleb128 0x2
 264 002a 04       		.byte	0x4
 265 002b 05       		.byte	0x5
 266 002c 696E7400 		.ascii	"int\000"
 267 0030 03       		.uleb128 0x3
 268 0031 04       		.byte	0x4
 269 0032 07       		.byte	0x7
 270 0033 F3000000 		.4byte	.LASF0
 271 0037 03       		.uleb128 0x3
 272 0038 01       		.byte	0x1
 273 0039 06       		.byte	0x6
 274 003a AD010000 		.4byte	.LASF1
 275 003e 03       		.uleb128 0x3
 276 003f 01       		.byte	0x1
 277 0040 08       		.byte	0x8
ARM GAS  C:\Users\TAISIK~1\AppData\Local\Temp\ccRuNuWs.s 			page 6


 278 0041 A4000000 		.4byte	.LASF2
 279 0045 03       		.uleb128 0x3
 280 0046 02       		.byte	0x2
 281 0047 05       		.byte	0x5
 282 0048 7A010000 		.4byte	.LASF3
 283 004c 03       		.uleb128 0x3
 284 004d 02       		.byte	0x2
 285 004e 07       		.byte	0x7
 286 004f 84000000 		.4byte	.LASF4
 287 0053 03       		.uleb128 0x3
 288 0054 04       		.byte	0x4
 289 0055 05       		.byte	0x5
 290 0056 A4010000 		.4byte	.LASF5
 291 005a 04       		.uleb128 0x4
 292 005b 9B010000 		.4byte	.LASF9
 293 005f 02       		.byte	0x2
 294 0060 50       		.byte	0x50
 295 0061 65000000 		.4byte	0x65
 296 0065 03       		.uleb128 0x3
 297 0066 04       		.byte	0x4
 298 0067 07       		.byte	0x7
 299 0068 72000000 		.4byte	.LASF6
 300 006c 03       		.uleb128 0x3
 301 006d 08       		.byte	0x8
 302 006e 05       		.byte	0x5
 303 006f 51010000 		.4byte	.LASF7
 304 0073 03       		.uleb128 0x3
 305 0074 08       		.byte	0x8
 306 0075 07       		.byte	0x7
 307 0076 00010000 		.4byte	.LASF8
 308 007a 04       		.uleb128 0x4
 309 007b 62000000 		.4byte	.LASF10
 310 007f 03       		.byte	0x3
 311 0080 24       		.byte	0x24
 312 0081 85000000 		.4byte	0x85
 313 0085 03       		.uleb128 0x3
 314 0086 01       		.byte	0x1
 315 0087 02       		.byte	0x2
 316 0088 D3010000 		.4byte	.LASF11
 317 008c 04       		.uleb128 0x4
 318 008d 09000000 		.4byte	.LASF12
 319 0091 03       		.byte	0x3
 320 0092 2E       		.byte	0x2e
 321 0093 5A000000 		.4byte	0x5a
 322 0097 05       		.uleb128 0x5
 323 0098 04       		.byte	0x4
 324 0099 04       		.uleb128 0x4
 325 009a 69000000 		.4byte	.LASF13
 326 009e 04       		.byte	0x4
 327 009f 4E       		.byte	0x4e
 328 00a0 A4000000 		.4byte	0xa4
 329 00a4 06       		.uleb128 0x6
 330 00a5 04       		.byte	0x4
 331 00a6 AA000000 		.4byte	0xaa
 332 00aa 07       		.uleb128 0x7
 333 00ab 01       		.byte	0x1
 334 00ac B6000000 		.4byte	0xb6
ARM GAS  C:\Users\TAISIK~1\AppData\Local\Temp\ccRuNuWs.s 			page 7


 335 00b0 08       		.uleb128 0x8
 336 00b1 97000000 		.4byte	0x97
 337 00b5 00       		.byte	0
 338 00b6 04       		.uleb128 0x4
 339 00b7 97000000 		.4byte	.LASF14
 340 00bb 04       		.byte	0x4
 341 00bc 53       		.byte	0x53
 342 00bd C1000000 		.4byte	0xc1
 343 00c1 09       		.uleb128 0x9
 344 00c2 97000000 		.4byte	.LASF14
 345 00c6 14       		.byte	0x14
 346 00c7 04       		.byte	0x4
 347 00c8 5A       		.byte	0x5a
 348 00c9 14010000 		.4byte	0x114
 349 00cd 0A       		.uleb128 0xa
 350 00ce C0010000 		.4byte	.LASF15
 351 00d2 04       		.byte	0x4
 352 00d3 5B       		.byte	0x5b
 353 00d4 14010000 		.4byte	0x114
 354 00d8 02       		.byte	0x2
 355 00d9 23       		.byte	0x23
 356 00da 00       		.uleb128 0
 357 00db 0A       		.uleb128 0xa
 358 00dc 93010000 		.4byte	.LASF16
 359 00e0 04       		.byte	0x4
 360 00e1 5D       		.byte	0x5d
 361 00e2 14010000 		.4byte	0x114
 362 00e6 02       		.byte	0x2
 363 00e7 23       		.byte	0x23
 364 00e8 04       		.uleb128 0x4
 365 00e9 0A       		.uleb128 0xa
 366 00ea 23010000 		.4byte	.LASF17
 367 00ee 04       		.byte	0x4
 368 00ef 5F       		.byte	0x5f
 369 00f0 8C000000 		.4byte	0x8c
 370 00f4 02       		.byte	0x2
 371 00f5 23       		.byte	0x23
 372 00f6 08       		.uleb128 0x8
 373 00f7 0A       		.uleb128 0xa
 374 00f8 5F010000 		.4byte	.LASF18
 375 00fc 04       		.byte	0x4
 376 00fd 60       		.byte	0x60
 377 00fe 99000000 		.4byte	0x99
 378 0102 02       		.byte	0x2
 379 0103 23       		.byte	0x23
 380 0104 0C       		.uleb128 0xc
 381 0105 0A       		.uleb128 0xa
 382 0106 73010000 		.4byte	.LASF19
 383 010a 04       		.byte	0x4
 384 010b 62       		.byte	0x62
 385 010c 97000000 		.4byte	0x97
 386 0110 02       		.byte	0x2
 387 0111 23       		.byte	0x23
 388 0112 10       		.uleb128 0x10
 389 0113 00       		.byte	0
 390 0114 06       		.uleb128 0x6
 391 0115 04       		.byte	0x4
ARM GAS  C:\Users\TAISIK~1\AppData\Local\Temp\ccRuNuWs.s 			page 8


 392 0116 B6000000 		.4byte	0xb6
 393 011a 0B       		.uleb128 0xb
 394 011b 10       		.byte	0x10
 395 011c 04       		.byte	0x4
 396 011d 6C       		.byte	0x6c
 397 011e 5B010000 		.4byte	0x15b
 398 0122 0A       		.uleb128 0xa
 399 0123 C0010000 		.4byte	.LASF15
 400 0127 04       		.byte	0x4
 401 0128 6D       		.byte	0x6d
 402 0129 14010000 		.4byte	0x114
 403 012d 02       		.byte	0x2
 404 012e 23       		.byte	0x23
 405 012f 00       		.uleb128 0
 406 0130 0A       		.uleb128 0xa
 407 0131 93010000 		.4byte	.LASF16
 408 0135 04       		.byte	0x4
 409 0136 6F       		.byte	0x6f
 410 0137 14010000 		.4byte	0x114
 411 013b 02       		.byte	0x2
 412 013c 23       		.byte	0x23
 413 013d 04       		.uleb128 0x4
 414 013e 0A       		.uleb128 0xa
 415 013f 23010000 		.4byte	.LASF17
 416 0143 04       		.byte	0x4
 417 0144 71       		.byte	0x71
 418 0145 8C000000 		.4byte	0x8c
 419 0149 02       		.byte	0x2
 420 014a 23       		.byte	0x23
 421 014b 08       		.uleb128 0x8
 422 014c 0A       		.uleb128 0xa
 423 014d 2B010000 		.4byte	.LASF20
 424 0151 04       		.byte	0x4
 425 0152 72       		.byte	0x72
 426 0153 5B010000 		.4byte	0x15b
 427 0157 02       		.byte	0x2
 428 0158 23       		.byte	0x23
 429 0159 0C       		.uleb128 0xc
 430 015a 00       		.byte	0
 431 015b 0C       		.uleb128 0xc
 432 015c 8C000000 		.4byte	0x8c
 433 0160 04       		.uleb128 0x4
 434 0161 B9010000 		.4byte	.LASF21
 435 0165 04       		.byte	0x4
 436 0166 73       		.byte	0x73
 437 0167 1A010000 		.4byte	0x11a
 438 016b 03       		.uleb128 0x3
 439 016c 01       		.byte	0x1
 440 016d 08       		.byte	0x8
 441 016e 6E010000 		.4byte	.LASF22
 442 0172 0D       		.uleb128 0xd
 443 0173 01       		.byte	0x1
 444 0174 B2000000 		.4byte	.LASF32
 445 0178 01       		.byte	0x1
 446 0179 2B       		.byte	0x2b
 447 017a 01       		.byte	0x1
 448 017b 00000000 		.4byte	.LFB7
ARM GAS  C:\Users\TAISIK~1\AppData\Local\Temp\ccRuNuWs.s 			page 9


 449 017f 18000000 		.4byte	.LFE7
 450 0183 02       		.byte	0x2
 451 0184 7D       		.byte	0x7d
 452 0185 00       		.sleb128 0
 453 0186 0E       		.uleb128 0xe
 454 0187 01       		.byte	0x1
 455 0188 00000000 		.4byte	.LASF25
 456 018c 01       		.byte	0x1
 457 018d 45       		.byte	0x45
 458 018e 01       		.byte	0x1
 459 018f 00000000 		.4byte	.LFB8
 460 0193 38000000 		.4byte	.LFE8
 461 0197 00000000 		.4byte	.LLST0
 462 019b E7010000 		.4byte	0x1e7
 463 019f 0F       		.uleb128 0xf
 464 01a0 76747000 		.ascii	"vtp\000"
 465 01a4 01       		.byte	0x1
 466 01a5 45       		.byte	0x45
 467 01a6 14010000 		.4byte	0x114
 468 01aa 20000000 		.4byte	.LLST1
 469 01ae 10       		.uleb128 0x10
 470 01af 1E010000 		.4byte	.LASF23
 471 01b3 01       		.byte	0x1
 472 01b4 45       		.byte	0x45
 473 01b5 8C000000 		.4byte	0x8c
 474 01b9 3F000000 		.4byte	.LLST2
 475 01bd 11       		.uleb128 0x11
 476 01be 67010000 		.4byte	.LASF24
 477 01c2 01       		.byte	0x1
 478 01c3 45       		.byte	0x45
 479 01c4 99000000 		.4byte	0x99
 480 01c8 01       		.byte	0x1
 481 01c9 52       		.byte	0x52
 482 01ca 0F       		.uleb128 0xf
 483 01cb 70617200 		.ascii	"par\000"
 484 01cf 01       		.byte	0x1
 485 01d0 45       		.byte	0x45
 486 01d1 97000000 		.4byte	0x97
 487 01d5 61000000 		.4byte	.LLST3
 488 01d9 12       		.uleb128 0x12
 489 01da 7000     		.ascii	"p\000"
 490 01dc 01       		.byte	0x1
 491 01dd 46       		.byte	0x46
 492 01de 14010000 		.4byte	0x114
 493 01e2 8F000000 		.4byte	.LLST4
 494 01e6 00       		.byte	0
 495 01e7 13       		.uleb128 0x13
 496 01e8 01       		.byte	0x1
 497 01e9 C8010000 		.4byte	.LASF26
 498 01ed 01       		.byte	0x1
 499 01ee 63       		.byte	0x63
 500 01ef 01       		.byte	0x1
 501 01f0 00000000 		.4byte	.LFB9
 502 01f4 24000000 		.4byte	.LFE9
 503 01f8 02       		.byte	0x2
 504 01f9 7D       		.byte	0x7d
 505 01fa 00       		.sleb128 0
ARM GAS  C:\Users\TAISIK~1\AppData\Local\Temp\ccRuNuWs.s 			page 10


 506 01fb 0D020000 		.4byte	0x20d
 507 01ff 14       		.uleb128 0x14
 508 0200 76747000 		.ascii	"vtp\000"
 509 0204 01       		.byte	0x1
 510 0205 63       		.byte	0x63
 511 0206 14010000 		.4byte	0x114
 512 020a 01       		.byte	0x1
 513 020b 50       		.byte	0x50
 514 020c 00       		.byte	0
 515 020d 15       		.uleb128 0x15
 516 020e 01       		.byte	0x1
 517 020f 84010000 		.4byte	.LASF33
 518 0213 01       		.byte	0x1
 519 0214 7F       		.byte	0x7f
 520 0215 01       		.byte	0x1
 521 0216 7A000000 		.4byte	0x7a
 522 021a 00000000 		.4byte	.LFB10
 523 021e 28000000 		.4byte	.LFE10
 524 0222 02       		.byte	0x2
 525 0223 7D       		.byte	0x7d
 526 0224 00       		.sleb128 0
 527 0225 53020000 		.4byte	0x253
 528 0229 10       		.uleb128 0x10
 529 022a 13000000 		.4byte	.LASF27
 530 022e 01       		.byte	0x1
 531 022f 7F       		.byte	0x7f
 532 0230 8C000000 		.4byte	0x8c
 533 0234 BC000000 		.4byte	.LLST5
 534 0238 14       		.uleb128 0x14
 535 0239 656E6400 		.ascii	"end\000"
 536 023d 01       		.byte	0x1
 537 023e 7F       		.byte	0x7f
 538 023f 8C000000 		.4byte	0x8c
 539 0243 01       		.byte	0x1
 540 0244 51       		.byte	0x51
 541 0245 16       		.uleb128 0x16
 542 0246 1E010000 		.4byte	.LASF23
 543 024a 01       		.byte	0x1
 544 024b 81       		.byte	0x81
 545 024c 8C000000 		.4byte	0x8c
 546 0250 01       		.byte	0x1
 547 0251 53       		.byte	0x53
 548 0252 00       		.byte	0
 549 0253 17       		.uleb128 0x17
 550 0254 17010000 		.4byte	.LASF28
 551 0258 04       		.byte	0x4
 552 0259 D1       		.byte	0xd1
 553 025a 60010000 		.4byte	0x160
 554 025e 01       		.byte	0x1
 555 025f 01       		.byte	0x1
 556 0260 18       		.uleb128 0x18
 557 0261 17010000 		.4byte	.LASF28
 558 0265 01       		.byte	0x1
 559 0266 23       		.byte	0x23
 560 0267 60010000 		.4byte	0x160
 561 026b 01       		.byte	0x1
 562 026c 05       		.byte	0x5
ARM GAS  C:\Users\TAISIK~1\AppData\Local\Temp\ccRuNuWs.s 			page 11


 563 026d 03       		.byte	0x3
 564 026e 00000000 		.4byte	vtlist
 565 0272 00       		.byte	0
 566              		.section	.debug_abbrev,"",%progbits
 567              	.Ldebug_abbrev0:
 568 0000 01       		.uleb128 0x1
 569 0001 11       		.uleb128 0x11
 570 0002 01       		.byte	0x1
 571 0003 25       		.uleb128 0x25
 572 0004 0E       		.uleb128 0xe
 573 0005 13       		.uleb128 0x13
 574 0006 0B       		.uleb128 0xb
 575 0007 03       		.uleb128 0x3
 576 0008 0E       		.uleb128 0xe
 577 0009 1B       		.uleb128 0x1b
 578 000a 0E       		.uleb128 0xe
 579 000b 11       		.uleb128 0x11
 580 000c 01       		.uleb128 0x1
 581 000d 52       		.uleb128 0x52
 582 000e 01       		.uleb128 0x1
 583 000f 55       		.uleb128 0x55
 584 0010 06       		.uleb128 0x6
 585 0011 10       		.uleb128 0x10
 586 0012 06       		.uleb128 0x6
 587 0013 00       		.byte	0
 588 0014 00       		.byte	0
 589 0015 02       		.uleb128 0x2
 590 0016 24       		.uleb128 0x24
 591 0017 00       		.byte	0
 592 0018 0B       		.uleb128 0xb
 593 0019 0B       		.uleb128 0xb
 594 001a 3E       		.uleb128 0x3e
 595 001b 0B       		.uleb128 0xb
 596 001c 03       		.uleb128 0x3
 597 001d 08       		.uleb128 0x8
 598 001e 00       		.byte	0
 599 001f 00       		.byte	0
 600 0020 03       		.uleb128 0x3
 601 0021 24       		.uleb128 0x24
 602 0022 00       		.byte	0
 603 0023 0B       		.uleb128 0xb
 604 0024 0B       		.uleb128 0xb
 605 0025 3E       		.uleb128 0x3e
 606 0026 0B       		.uleb128 0xb
 607 0027 03       		.uleb128 0x3
 608 0028 0E       		.uleb128 0xe
 609 0029 00       		.byte	0
 610 002a 00       		.byte	0
 611 002b 04       		.uleb128 0x4
 612 002c 16       		.uleb128 0x16
 613 002d 00       		.byte	0
 614 002e 03       		.uleb128 0x3
 615 002f 0E       		.uleb128 0xe
 616 0030 3A       		.uleb128 0x3a
 617 0031 0B       		.uleb128 0xb
 618 0032 3B       		.uleb128 0x3b
 619 0033 0B       		.uleb128 0xb
ARM GAS  C:\Users\TAISIK~1\AppData\Local\Temp\ccRuNuWs.s 			page 12


 620 0034 49       		.uleb128 0x49
 621 0035 13       		.uleb128 0x13
 622 0036 00       		.byte	0
 623 0037 00       		.byte	0
 624 0038 05       		.uleb128 0x5
 625 0039 0F       		.uleb128 0xf
 626 003a 00       		.byte	0
 627 003b 0B       		.uleb128 0xb
 628 003c 0B       		.uleb128 0xb
 629 003d 00       		.byte	0
 630 003e 00       		.byte	0
 631 003f 06       		.uleb128 0x6
 632 0040 0F       		.uleb128 0xf
 633 0041 00       		.byte	0
 634 0042 0B       		.uleb128 0xb
 635 0043 0B       		.uleb128 0xb
 636 0044 49       		.uleb128 0x49
 637 0045 13       		.uleb128 0x13
 638 0046 00       		.byte	0
 639 0047 00       		.byte	0
 640 0048 07       		.uleb128 0x7
 641 0049 15       		.uleb128 0x15
 642 004a 01       		.byte	0x1
 643 004b 27       		.uleb128 0x27
 644 004c 0C       		.uleb128 0xc
 645 004d 01       		.uleb128 0x1
 646 004e 13       		.uleb128 0x13
 647 004f 00       		.byte	0
 648 0050 00       		.byte	0
 649 0051 08       		.uleb128 0x8
 650 0052 05       		.uleb128 0x5
 651 0053 00       		.byte	0
 652 0054 49       		.uleb128 0x49
 653 0055 13       		.uleb128 0x13
 654 0056 00       		.byte	0
 655 0057 00       		.byte	0
 656 0058 09       		.uleb128 0x9
 657 0059 13       		.uleb128 0x13
 658 005a 01       		.byte	0x1
 659 005b 03       		.uleb128 0x3
 660 005c 0E       		.uleb128 0xe
 661 005d 0B       		.uleb128 0xb
 662 005e 0B       		.uleb128 0xb
 663 005f 3A       		.uleb128 0x3a
 664 0060 0B       		.uleb128 0xb
 665 0061 3B       		.uleb128 0x3b
 666 0062 0B       		.uleb128 0xb
 667 0063 01       		.uleb128 0x1
 668 0064 13       		.uleb128 0x13
 669 0065 00       		.byte	0
 670 0066 00       		.byte	0
 671 0067 0A       		.uleb128 0xa
 672 0068 0D       		.uleb128 0xd
 673 0069 00       		.byte	0
 674 006a 03       		.uleb128 0x3
 675 006b 0E       		.uleb128 0xe
 676 006c 3A       		.uleb128 0x3a
ARM GAS  C:\Users\TAISIK~1\AppData\Local\Temp\ccRuNuWs.s 			page 13


 677 006d 0B       		.uleb128 0xb
 678 006e 3B       		.uleb128 0x3b
 679 006f 0B       		.uleb128 0xb
 680 0070 49       		.uleb128 0x49
 681 0071 13       		.uleb128 0x13
 682 0072 38       		.uleb128 0x38
 683 0073 0A       		.uleb128 0xa
 684 0074 00       		.byte	0
 685 0075 00       		.byte	0
 686 0076 0B       		.uleb128 0xb
 687 0077 13       		.uleb128 0x13
 688 0078 01       		.byte	0x1
 689 0079 0B       		.uleb128 0xb
 690 007a 0B       		.uleb128 0xb
 691 007b 3A       		.uleb128 0x3a
 692 007c 0B       		.uleb128 0xb
 693 007d 3B       		.uleb128 0x3b
 694 007e 0B       		.uleb128 0xb
 695 007f 01       		.uleb128 0x1
 696 0080 13       		.uleb128 0x13
 697 0081 00       		.byte	0
 698 0082 00       		.byte	0
 699 0083 0C       		.uleb128 0xc
 700 0084 35       		.uleb128 0x35
 701 0085 00       		.byte	0
 702 0086 49       		.uleb128 0x49
 703 0087 13       		.uleb128 0x13
 704 0088 00       		.byte	0
 705 0089 00       		.byte	0
 706 008a 0D       		.uleb128 0xd
 707 008b 2E       		.uleb128 0x2e
 708 008c 00       		.byte	0
 709 008d 3F       		.uleb128 0x3f
 710 008e 0C       		.uleb128 0xc
 711 008f 03       		.uleb128 0x3
 712 0090 0E       		.uleb128 0xe
 713 0091 3A       		.uleb128 0x3a
 714 0092 0B       		.uleb128 0xb
 715 0093 3B       		.uleb128 0x3b
 716 0094 0B       		.uleb128 0xb
 717 0095 27       		.uleb128 0x27
 718 0096 0C       		.uleb128 0xc
 719 0097 11       		.uleb128 0x11
 720 0098 01       		.uleb128 0x1
 721 0099 12       		.uleb128 0x12
 722 009a 01       		.uleb128 0x1
 723 009b 40       		.uleb128 0x40
 724 009c 0A       		.uleb128 0xa
 725 009d 00       		.byte	0
 726 009e 00       		.byte	0
 727 009f 0E       		.uleb128 0xe
 728 00a0 2E       		.uleb128 0x2e
 729 00a1 01       		.byte	0x1
 730 00a2 3F       		.uleb128 0x3f
 731 00a3 0C       		.uleb128 0xc
 732 00a4 03       		.uleb128 0x3
 733 00a5 0E       		.uleb128 0xe
ARM GAS  C:\Users\TAISIK~1\AppData\Local\Temp\ccRuNuWs.s 			page 14


 734 00a6 3A       		.uleb128 0x3a
 735 00a7 0B       		.uleb128 0xb
 736 00a8 3B       		.uleb128 0x3b
 737 00a9 0B       		.uleb128 0xb
 738 00aa 27       		.uleb128 0x27
 739 00ab 0C       		.uleb128 0xc
 740 00ac 11       		.uleb128 0x11
 741 00ad 01       		.uleb128 0x1
 742 00ae 12       		.uleb128 0x12
 743 00af 01       		.uleb128 0x1
 744 00b0 40       		.uleb128 0x40
 745 00b1 06       		.uleb128 0x6
 746 00b2 01       		.uleb128 0x1
 747 00b3 13       		.uleb128 0x13
 748 00b4 00       		.byte	0
 749 00b5 00       		.byte	0
 750 00b6 0F       		.uleb128 0xf
 751 00b7 05       		.uleb128 0x5
 752 00b8 00       		.byte	0
 753 00b9 03       		.uleb128 0x3
 754 00ba 08       		.uleb128 0x8
 755 00bb 3A       		.uleb128 0x3a
 756 00bc 0B       		.uleb128 0xb
 757 00bd 3B       		.uleb128 0x3b
 758 00be 0B       		.uleb128 0xb
 759 00bf 49       		.uleb128 0x49
 760 00c0 13       		.uleb128 0x13
 761 00c1 02       		.uleb128 0x2
 762 00c2 06       		.uleb128 0x6
 763 00c3 00       		.byte	0
 764 00c4 00       		.byte	0
 765 00c5 10       		.uleb128 0x10
 766 00c6 05       		.uleb128 0x5
 767 00c7 00       		.byte	0
 768 00c8 03       		.uleb128 0x3
 769 00c9 0E       		.uleb128 0xe
 770 00ca 3A       		.uleb128 0x3a
 771 00cb 0B       		.uleb128 0xb
 772 00cc 3B       		.uleb128 0x3b
 773 00cd 0B       		.uleb128 0xb
 774 00ce 49       		.uleb128 0x49
 775 00cf 13       		.uleb128 0x13
 776 00d0 02       		.uleb128 0x2
 777 00d1 06       		.uleb128 0x6
 778 00d2 00       		.byte	0
 779 00d3 00       		.byte	0
 780 00d4 11       		.uleb128 0x11
 781 00d5 05       		.uleb128 0x5
 782 00d6 00       		.byte	0
 783 00d7 03       		.uleb128 0x3
 784 00d8 0E       		.uleb128 0xe
 785 00d9 3A       		.uleb128 0x3a
 786 00da 0B       		.uleb128 0xb
 787 00db 3B       		.uleb128 0x3b
 788 00dc 0B       		.uleb128 0xb
 789 00dd 49       		.uleb128 0x49
 790 00de 13       		.uleb128 0x13
ARM GAS  C:\Users\TAISIK~1\AppData\Local\Temp\ccRuNuWs.s 			page 15


 791 00df 02       		.uleb128 0x2
 792 00e0 0A       		.uleb128 0xa
 793 00e1 00       		.byte	0
 794 00e2 00       		.byte	0
 795 00e3 12       		.uleb128 0x12
 796 00e4 34       		.uleb128 0x34
 797 00e5 00       		.byte	0
 798 00e6 03       		.uleb128 0x3
 799 00e7 08       		.uleb128 0x8
 800 00e8 3A       		.uleb128 0x3a
 801 00e9 0B       		.uleb128 0xb
 802 00ea 3B       		.uleb128 0x3b
 803 00eb 0B       		.uleb128 0xb
 804 00ec 49       		.uleb128 0x49
 805 00ed 13       		.uleb128 0x13
 806 00ee 02       		.uleb128 0x2
 807 00ef 06       		.uleb128 0x6
 808 00f0 00       		.byte	0
 809 00f1 00       		.byte	0
 810 00f2 13       		.uleb128 0x13
 811 00f3 2E       		.uleb128 0x2e
 812 00f4 01       		.byte	0x1
 813 00f5 3F       		.uleb128 0x3f
 814 00f6 0C       		.uleb128 0xc
 815 00f7 03       		.uleb128 0x3
 816 00f8 0E       		.uleb128 0xe
 817 00f9 3A       		.uleb128 0x3a
 818 00fa 0B       		.uleb128 0xb
 819 00fb 3B       		.uleb128 0x3b
 820 00fc 0B       		.uleb128 0xb
 821 00fd 27       		.uleb128 0x27
 822 00fe 0C       		.uleb128 0xc
 823 00ff 11       		.uleb128 0x11
 824 0100 01       		.uleb128 0x1
 825 0101 12       		.uleb128 0x12
 826 0102 01       		.uleb128 0x1
 827 0103 40       		.uleb128 0x40
 828 0104 0A       		.uleb128 0xa
 829 0105 01       		.uleb128 0x1
 830 0106 13       		.uleb128 0x13
 831 0107 00       		.byte	0
 832 0108 00       		.byte	0
 833 0109 14       		.uleb128 0x14
 834 010a 05       		.uleb128 0x5
 835 010b 00       		.byte	0
 836 010c 03       		.uleb128 0x3
 837 010d 08       		.uleb128 0x8
 838 010e 3A       		.uleb128 0x3a
 839 010f 0B       		.uleb128 0xb
 840 0110 3B       		.uleb128 0x3b
 841 0111 0B       		.uleb128 0xb
 842 0112 49       		.uleb128 0x49
 843 0113 13       		.uleb128 0x13
 844 0114 02       		.uleb128 0x2
 845 0115 0A       		.uleb128 0xa
 846 0116 00       		.byte	0
 847 0117 00       		.byte	0
ARM GAS  C:\Users\TAISIK~1\AppData\Local\Temp\ccRuNuWs.s 			page 16


 848 0118 15       		.uleb128 0x15
 849 0119 2E       		.uleb128 0x2e
 850 011a 01       		.byte	0x1
 851 011b 3F       		.uleb128 0x3f
 852 011c 0C       		.uleb128 0xc
 853 011d 03       		.uleb128 0x3
 854 011e 0E       		.uleb128 0xe
 855 011f 3A       		.uleb128 0x3a
 856 0120 0B       		.uleb128 0xb
 857 0121 3B       		.uleb128 0x3b
 858 0122 0B       		.uleb128 0xb
 859 0123 27       		.uleb128 0x27
 860 0124 0C       		.uleb128 0xc
 861 0125 49       		.uleb128 0x49
 862 0126 13       		.uleb128 0x13
 863 0127 11       		.uleb128 0x11
 864 0128 01       		.uleb128 0x1
 865 0129 12       		.uleb128 0x12
 866 012a 01       		.uleb128 0x1
 867 012b 40       		.uleb128 0x40
 868 012c 0A       		.uleb128 0xa
 869 012d 01       		.uleb128 0x1
 870 012e 13       		.uleb128 0x13
 871 012f 00       		.byte	0
 872 0130 00       		.byte	0
 873 0131 16       		.uleb128 0x16
 874 0132 34       		.uleb128 0x34
 875 0133 00       		.byte	0
 876 0134 03       		.uleb128 0x3
 877 0135 0E       		.uleb128 0xe
 878 0136 3A       		.uleb128 0x3a
 879 0137 0B       		.uleb128 0xb
 880 0138 3B       		.uleb128 0x3b
 881 0139 0B       		.uleb128 0xb
 882 013a 49       		.uleb128 0x49
 883 013b 13       		.uleb128 0x13
 884 013c 02       		.uleb128 0x2
 885 013d 0A       		.uleb128 0xa
 886 013e 00       		.byte	0
 887 013f 00       		.byte	0
 888 0140 17       		.uleb128 0x17
 889 0141 34       		.uleb128 0x34
 890 0142 00       		.byte	0
 891 0143 03       		.uleb128 0x3
 892 0144 0E       		.uleb128 0xe
 893 0145 3A       		.uleb128 0x3a
 894 0146 0B       		.uleb128 0xb
 895 0147 3B       		.uleb128 0x3b
 896 0148 0B       		.uleb128 0xb
 897 0149 49       		.uleb128 0x49
 898 014a 13       		.uleb128 0x13
 899 014b 3F       		.uleb128 0x3f
 900 014c 0C       		.uleb128 0xc
 901 014d 3C       		.uleb128 0x3c
 902 014e 0C       		.uleb128 0xc
 903 014f 00       		.byte	0
 904 0150 00       		.byte	0
ARM GAS  C:\Users\TAISIK~1\AppData\Local\Temp\ccRuNuWs.s 			page 17


 905 0151 18       		.uleb128 0x18
 906 0152 34       		.uleb128 0x34
 907 0153 00       		.byte	0
 908 0154 03       		.uleb128 0x3
 909 0155 0E       		.uleb128 0xe
 910 0156 3A       		.uleb128 0x3a
 911 0157 0B       		.uleb128 0xb
 912 0158 3B       		.uleb128 0x3b
 913 0159 0B       		.uleb128 0xb
 914 015a 49       		.uleb128 0x49
 915 015b 13       		.uleb128 0x13
 916 015c 3F       		.uleb128 0x3f
 917 015d 0C       		.uleb128 0xc
 918 015e 02       		.uleb128 0x2
 919 015f 0A       		.uleb128 0xa
 920 0160 00       		.byte	0
 921 0161 00       		.byte	0
 922 0162 00       		.byte	0
 923              		.section	.debug_loc,"",%progbits
 924              	.Ldebug_loc0:
 925              	.LLST0:
 926 0000 00000000 		.4byte	.LFB8
 927 0004 02000000 		.4byte	.LCFI0
 928 0008 0200     		.2byte	0x2
 929 000a 7D       		.byte	0x7d
 930 000b 00       		.sleb128 0
 931 000c 02000000 		.4byte	.LCFI0
 932 0010 38000000 		.4byte	.LFE8
 933 0014 0200     		.2byte	0x2
 934 0016 7D       		.byte	0x7d
 935 0017 0C       		.sleb128 12
 936 0018 00000000 		.4byte	0
 937 001c 00000000 		.4byte	0
 938              	.LLST1:
 939 0020 00000000 		.4byte	.LVL0
 940 0024 2C000000 		.4byte	.LVL6
 941 0028 0100     		.2byte	0x1
 942 002a 50       		.byte	0x50
 943 002b 2C000000 		.4byte	.LVL6
 944 002f 38000000 		.4byte	.LFE8
 945 0033 0200     		.2byte	0x2
 946 0035 74       		.byte	0x74
 947 0036 04       		.sleb128 4
 948 0037 00000000 		.4byte	0
 949 003b 00000000 		.4byte	0
 950              	.LLST2:
 951 003f 00000000 		.4byte	.LVL0
 952 0043 2E000000 		.4byte	.LVL7
 953 0047 0100     		.2byte	0x1
 954 0049 51       		.byte	0x51
 955 004a 2E000000 		.4byte	.LVL7
 956 004e 38000000 		.4byte	.LFE8
 957 0052 0500     		.2byte	0x5
 958 0054 74       		.byte	0x74
 959 0055 04       		.sleb128 4
 960 0056 06       		.byte	0x6
 961 0057 23       		.byte	0x23
ARM GAS  C:\Users\TAISIK~1\AppData\Local\Temp\ccRuNuWs.s 			page 18


 962 0058 08       		.uleb128 0x8
 963 0059 00000000 		.4byte	0
 964 005d 00000000 		.4byte	0
 965              	.LLST3:
 966 0061 00000000 		.4byte	.LVL0
 967 0065 1C000000 		.4byte	.LVL5
 968 0069 0100     		.2byte	0x1
 969 006b 53       		.byte	0x53
 970 006c 1C000000 		.4byte	.LVL5
 971 0070 2C000000 		.4byte	.LVL6
 972 0074 0200     		.2byte	0x2
 973 0076 70       		.byte	0x70
 974 0077 10       		.sleb128 16
 975 0078 2C000000 		.4byte	.LVL6
 976 007c 38000000 		.4byte	.LFE8
 977 0080 0500     		.2byte	0x5
 978 0082 74       		.byte	0x74
 979 0083 04       		.sleb128 4
 980 0084 06       		.byte	0x6
 981 0085 23       		.byte	0x23
 982 0086 10       		.uleb128 0x10
 983 0087 00000000 		.4byte	0
 984 008b 00000000 		.4byte	0
 985              	.LLST4:
 986 008f 08000000 		.4byte	.LVL1
 987 0093 10000000 		.4byte	.LVL2
 988 0097 0500     		.2byte	0x5
 989 0099 03       		.byte	0x3
 990 009a 00000000 		.4byte	vtlist
 991 009e 10000000 		.4byte	.LVL2
 992 00a2 12000000 		.4byte	.LVL3
 993 00a6 0100     		.2byte	0x1
 994 00a8 54       		.byte	0x54
 995 00a9 14000000 		.4byte	.LVL4
 996 00ad 38000000 		.4byte	.LFE8
 997 00b1 0100     		.2byte	0x1
 998 00b3 54       		.byte	0x54
 999 00b4 00000000 		.4byte	0
 1000 00b8 00000000 		.4byte	0
 1001              	.LLST5:
 1002 00bc 00000000 		.4byte	.LVL9
 1003 00c0 12000000 		.4byte	.LVL11
 1004 00c4 0100     		.2byte	0x1
 1005 00c6 50       		.byte	0x50
 1006 00c7 16000000 		.4byte	.LVL12
 1007 00cb 1C000000 		.4byte	.LVL13
 1008 00cf 0100     		.2byte	0x1
 1009 00d1 50       		.byte	0x50
 1010 00d2 1E000000 		.4byte	.LVL14
 1011 00d6 20000000 		.4byte	.LVL15
 1012 00da 0100     		.2byte	0x1
 1013 00dc 50       		.byte	0x50
 1014 00dd 00000000 		.4byte	0
 1015 00e1 00000000 		.4byte	0
 1016              		.section	.debug_aranges,"",%progbits
 1017 0000 34000000 		.4byte	0x34
 1018 0004 0200     		.2byte	0x2
ARM GAS  C:\Users\TAISIK~1\AppData\Local\Temp\ccRuNuWs.s 			page 19


 1019 0006 00000000 		.4byte	.Ldebug_info0
 1020 000a 04       		.byte	0x4
 1021 000b 00       		.byte	0
 1022 000c 0000     		.2byte	0
 1023 000e 0000     		.2byte	0
 1024 0010 00000000 		.4byte	.LFB7
 1025 0014 18000000 		.4byte	.LFE7-.LFB7
 1026 0018 00000000 		.4byte	.LFB8
 1027 001c 38000000 		.4byte	.LFE8-.LFB8
 1028 0020 00000000 		.4byte	.LFB9
 1029 0024 24000000 		.4byte	.LFE9-.LFB9
 1030 0028 00000000 		.4byte	.LFB10
 1031 002c 28000000 		.4byte	.LFE10-.LFB10
 1032 0030 00000000 		.4byte	0
 1033 0034 00000000 		.4byte	0
 1034              		.section	.debug_ranges,"",%progbits
 1035              	.Ldebug_ranges0:
 1036 0000 00000000 		.4byte	.LFB7
 1037 0004 18000000 		.4byte	.LFE7
 1038 0008 00000000 		.4byte	.LFB8
 1039 000c 38000000 		.4byte	.LFE8
 1040 0010 00000000 		.4byte	.LFB9
 1041 0014 24000000 		.4byte	.LFE9
 1042 0018 00000000 		.4byte	.LFB10
 1043 001c 28000000 		.4byte	.LFE10
 1044 0020 00000000 		.4byte	0
 1045 0024 00000000 		.4byte	0
 1046              		.section	.debug_line,"",%progbits
 1047              	.Ldebug_line0:
 1048 0000 7C010000 		.section	.debug_str,"MS",%progbits,1
 1048      02000201 
 1048      00000201 
 1048      FB0E0D00 
 1048      01010101 
 1049              	.LASF25:
 1050 0000 63685654 		.ascii	"chVTSetI\000"
 1050      53657449 
 1050      00
 1051              	.LASF12:
 1052 0009 73797374 		.ascii	"systime_t\000"
 1052      696D655F 
 1052      7400
 1053              	.LASF27:
 1054 0013 73746172 		.ascii	"start\000"
 1054      7400
 1055              	.LASF29:
 1056 0019 474E5520 		.ascii	"GNU C 4.6.2 20121016 (release) [ARM/embedded-4_6-br"
 1056      4320342E 
 1056      362E3220 
 1056      32303132 
 1056      31303136 
 1057 004c 616E6368 		.ascii	"anch revision 192487]\000"
 1057      20726576 
 1057      6973696F 
 1057      6E203139 
 1057      32343837 
 1058              	.LASF10:
ARM GAS  C:\Users\TAISIK~1\AppData\Local\Temp\ccRuNuWs.s 			page 20


 1059 0062 626F6F6C 		.ascii	"bool_t\000"
 1059      5F7400
 1060              	.LASF13:
 1061 0069 76746675 		.ascii	"vtfunc_t\000"
 1061      6E635F74 
 1061      00
 1062              	.LASF6:
 1063 0072 6C6F6E67 		.ascii	"long unsigned int\000"
 1063      20756E73 
 1063      69676E65 
 1063      6420696E 
 1063      7400
 1064              	.LASF4:
 1065 0084 73686F72 		.ascii	"short unsigned int\000"
 1065      7420756E 
 1065      7369676E 
 1065      65642069 
 1065      6E7400
 1066              	.LASF14:
 1067 0097 56697274 		.ascii	"VirtualTimer\000"
 1067      75616C54 
 1067      696D6572 
 1067      00
 1068              	.LASF2:
 1069 00a4 756E7369 		.ascii	"unsigned char\000"
 1069      676E6564 
 1069      20636861 
 1069      7200
 1070              	.LASF32:
 1071 00b2 5F76745F 		.ascii	"_vt_init\000"
 1071      696E6974 
 1071      00
 1072              	.LASF31:
 1073 00bb 433A5C43 		.ascii	"C:\\ChibiStudio\\chibios\\demos\\ARMCM4-STM32F303-D"
 1073      68696269 
 1073      53747564 
 1073      696F5C63 
 1073      68696269 
 1074 00ea 4953434F 		.ascii	"ISCOVERY\000"
 1074      56455259 
 1074      00
 1075              	.LASF0:
 1076 00f3 756E7369 		.ascii	"unsigned int\000"
 1076      676E6564 
 1076      20696E74 
 1076      00
 1077              	.LASF8:
 1078 0100 6C6F6E67 		.ascii	"long long unsigned int\000"
 1078      206C6F6E 
 1078      6720756E 
 1078      7369676E 
 1078      65642069 
 1079              	.LASF28:
 1080 0117 76746C69 		.ascii	"vtlist\000"
 1080      737400
 1081              	.LASF23:
 1082 011e 74696D65 		.ascii	"time\000"
ARM GAS  C:\Users\TAISIK~1\AppData\Local\Temp\ccRuNuWs.s 			page 21


 1082      00
 1083              	.LASF17:
 1084 0123 76745F74 		.ascii	"vt_time\000"
 1084      696D6500 
 1085              	.LASF20:
 1086 012b 76745F73 		.ascii	"vt_systime\000"
 1086      79737469 
 1086      6D6500
 1087              	.LASF30:
 1088 0136 2E2E2F2E 		.ascii	"../../os/kernel/src/chvt.c\000"
 1088      2E2F6F73 
 1088      2F6B6572 
 1088      6E656C2F 
 1088      7372632F 
 1089              	.LASF7:
 1090 0151 6C6F6E67 		.ascii	"long long int\000"
 1090      206C6F6E 
 1090      6720696E 
 1090      7400
 1091              	.LASF18:
 1092 015f 76745F66 		.ascii	"vt_func\000"
 1092      756E6300 
 1093              	.LASF24:
 1094 0167 76746675 		.ascii	"vtfunc\000"
 1094      6E6300
 1095              	.LASF22:
 1096 016e 63686172 		.ascii	"char\000"
 1096      00
 1097              	.LASF19:
 1098 0173 76745F70 		.ascii	"vt_par\000"
 1098      617200
 1099              	.LASF3:
 1100 017a 73686F72 		.ascii	"short int\000"
 1100      7420696E 
 1100      7400
 1101              	.LASF33:
 1102 0184 63685469 		.ascii	"chTimeIsWithin\000"
 1102      6D654973 
 1102      57697468 
 1102      696E00
 1103              	.LASF16:
 1104 0193 76745F70 		.ascii	"vt_prev\000"
 1104      72657600 
 1105              	.LASF9:
 1106 019b 75696E74 		.ascii	"uint32_t\000"
 1106      33325F74 
 1106      00
 1107              	.LASF5:
 1108 01a4 6C6F6E67 		.ascii	"long int\000"
 1108      20696E74 
 1108      00
 1109              	.LASF1:
 1110 01ad 7369676E 		.ascii	"signed char\000"
 1110      65642063 
 1110      68617200 
 1111              	.LASF21:
 1112 01b9 56544C69 		.ascii	"VTList\000"
ARM GAS  C:\Users\TAISIK~1\AppData\Local\Temp\ccRuNuWs.s 			page 22


 1112      737400
 1113              	.LASF15:
 1114 01c0 76745F6E 		.ascii	"vt_next\000"
 1114      65787400 
 1115              	.LASF26:
 1116 01c8 63685654 		.ascii	"chVTResetI\000"
 1116      52657365 
 1116      744900
 1117              	.LASF11:
 1118 01d3 5F426F6F 		.ascii	"_Bool\000"
 1118      6C00
 1119              		.ident	"GCC: (GNU Tools for ARM Embedded Processors) 4.6.2 20121016 (release) [ARM/embedded-4_6-br
ARM GAS  C:\Users\TAISIK~1\AppData\Local\Temp\ccRuNuWs.s 			page 23


DEFINED SYMBOLS
                            *ABS*:00000000 chvt.c
C:\Users\TAISIK~1\AppData\Local\Temp\ccRuNuWs.s:19     .text._vt_init:00000000 $t
C:\Users\TAISIK~1\AppData\Local\Temp\ccRuNuWs.s:25     .text._vt_init:00000000 _vt_init
C:\Users\TAISIK~1\AppData\Local\Temp\ccRuNuWs.s:238    .bss.vtlist:00000000 .LANCHOR0
C:\Users\TAISIK~1\AppData\Local\Temp\ccRuNuWs.s:53     .text.chVTSetI:00000000 $t
C:\Users\TAISIK~1\AppData\Local\Temp\ccRuNuWs.s:59     .text.chVTSetI:00000000 chVTSetI
C:\Users\TAISIK~1\AppData\Local\Temp\ccRuNuWs.s:127    .text.chVTSetI:00000034 $d
C:\Users\TAISIK~1\AppData\Local\Temp\ccRuNuWs.s:132    .text.chVTResetI:00000000 $t
C:\Users\TAISIK~1\AppData\Local\Temp\ccRuNuWs.s:138    .text.chVTResetI:00000000 chVTResetI
C:\Users\TAISIK~1\AppData\Local\Temp\ccRuNuWs.s:173    .text.chVTResetI:00000020 $d
C:\Users\TAISIK~1\AppData\Local\Temp\ccRuNuWs.s:178    .text.chTimeIsWithin:00000000 $t
C:\Users\TAISIK~1\AppData\Local\Temp\ccRuNuWs.s:184    .text.chTimeIsWithin:00000000 chTimeIsWithin
C:\Users\TAISIK~1\AppData\Local\Temp\ccRuNuWs.s:231    .text.chTimeIsWithin:00000024 $d
C:\Users\TAISIK~1\AppData\Local\Temp\ccRuNuWs.s:241    .bss.vtlist:00000000 vtlist
C:\Users\TAISIK~1\AppData\Local\Temp\ccRuNuWs.s:237    .bss.vtlist:00000000 $d
                     .debug_frame:00000010 $d
C:\Users\TAISIK~1\AppData\Local\Temp\ccRuNuWs.s:131    .text.chVTSetI:00000038 $t
C:\Users\TAISIK~1\AppData\Local\Temp\ccRuNuWs.s:177    .text.chVTResetI:00000024 $t
C:\Users\TAISIK~1\AppData\Local\Temp\ccRuNuWs.s:236    .text.chTimeIsWithin:00000028 $t

NO UNDEFINED SYMBOLS
