ARM GAS  C:\Users\TAISIK~1\AppData\Local\Temp\ccRuNuWs.s 			page 1


   1              		.syntax unified
   2              		.cpu cortex-m4
   3              		.fpu softvfp
   4              		.eabi_attribute 20, 1
   5              		.eabi_attribute 21, 1
   6              		.eabi_attribute 23, 3
   7              		.eabi_attribute 24, 1
   8              		.eabi_attribute 25, 1
   9              		.eabi_attribute 26, 1
  10              		.eabi_attribute 30, 2
  11              		.eabi_attribute 34, 1
  12              		.eabi_attribute 18, 4
  13              		.thumb
  14              		.file	"chvt.c"
  15              		.text
  16              	.Ltext0:
  17              		.cfi_sections	.debug_frame
  18              		.section	.text._vt_init,"ax",%progbits
  19              		.align	2
  20              		.p2align 4,,15
  21              		.global	_vt_init
  22              		.thumb
  23              		.thumb_func
  24              		.type	_vt_init, %function
  25              	_vt_init:
  26              	.LFB7:
  27              		.file 1 "../../os/kernel/src/chvt.c"
  28              		.loc 1 43 0
  29              		.cfi_startproc
  30              		@ args = 0, pretend = 0, frame = 0
  31              		@ frame_needed = 0, uses_anonymous_args = 0
  32              		@ link register save eliminated.
  33              		.loc 1 45 0
  34 0000 40F20003 		movw	r3, #:lower16:.LANCHOR0
  35 0004 C0F20003 		movt	r3, #:upper16:.LANCHOR0
  36              		.loc 1 46 0
  37 0008 4FF0FF30 		mov	r0, #-1
  38              		.loc 1 47 0
  39 000c 0022     		movs	r2, #0
  40              		.loc 1 45 0
  41 000e 5B60     		str	r3, [r3, #4]
  42 0010 1B60     		str	r3, [r3, #0]
  43              		.loc 1 46 0
  44 0012 9860     		str	r0, [r3, #8]
  45              		.loc 1 47 0
  46 0014 DA60     		str	r2, [r3, #12]
  47              		.loc 1 48 0
  48 0016 7047     		bx	lr
  49              		.cfi_endproc
  50              	.LFE7:
  51              		.size	_vt_init, .-_vt_init
  52 0018 AFF30080 		.section	.text.chVTSetI,"ax",%progbits
  52      AFF30080 
  53              		.align	2
  54              		.p2align 4,,15
  55              		.global	chVTSetI
  56              		.thumb
ARM GAS  C:\Users\TAISIK~1\AppData\Local\Temp\ccRuNuWs.s 			page 2


  57              		.thumb_func
  58              		.type	chVTSetI, %function
  59              	chVTSetI:
  60              	.LFB8:
  61              		.loc 1 69 0
  62              		.cfi_startproc
  63              		@ args = 0, pretend = 0, frame = 0
  64              		@ frame_needed = 0, uses_anonymous_args = 0
  65              		@ link register save eliminated.
  66              	.LVL0:
  67 0000 70B4     		push	{r4, r5, r6}
  68              	.LCFI0:
  69              		.cfi_def_cfa_offset 12
  70              		.cfi_offset 6, -4
  71              		.cfi_offset 5, -8
  72              		.cfi_offset 4, -12
  73              		.loc 1 78 0
  74 0002 0C4D     		ldr	r5, .L9
  75              		.loc 1 76 0
  76 0004 0361     		str	r3, [r0, #16]
  77              		.loc 1 78 0
  78 0006 2C68     		ldr	r4, [r5, #0]
  79              	.LVL1:
  80              		.loc 1 77 0
  81 0008 C260     		str	r2, [r0, #12]
  82              		.loc 1 79 0
  83 000a A668     		ldr	r6, [r4, #8]
  84 000c B142     		cmp	r1, r6
  85 000e 04D9     		bls	.L3
  86              	.LVL2:
  87              	.L6:
  88              		.loc 1 81 0
  89 0010 2468     		ldr	r4, [r4, #0]
  90              	.LVL3:
  91              		.loc 1 80 0
  92 0012 891B     		subs	r1, r1, r6
  93              	.LVL4:
  94              		.loc 1 79 0
  95 0014 A668     		ldr	r6, [r4, #8]
  96 0016 8E42     		cmp	r6, r1
  97 0018 FAD3     		bcc	.L6
  98              	.L3:
  99              		.loc 1 84 0
 100 001a 6368     		ldr	r3, [r4, #4]
 101              	.LVL5:
 102 001c 0460     		str	r4, [r0, #0]
 103              		.loc 1 87 0
 104 001e AC42     		cmp	r4, r5
 105              		.loc 1 84 0
 106 0020 4360     		str	r3, [r0, #4]
 107              		.loc 1 85 0
 108 0022 1860     		str	r0, [r3, #0]
 109 0024 6060     		str	r0, [r4, #4]
 110              		.loc 1 86 0
 111 0026 8160     		str	r1, [r0, #8]
 112              		.loc 1 87 0
 113 0028 02D0     		beq	.L2
ARM GAS  C:\Users\TAISIK~1\AppData\Local\Temp\ccRuNuWs.s 			page 3


 114              		.loc 1 88 0
 115 002a A068     		ldr	r0, [r4, #8]
 116              	.LVL6:
 117 002c 411A     		subs	r1, r0, r1
 118              	.LVL7:
 119 002e A160     		str	r1, [r4, #8]
 120              	.L2:
 121              		.loc 1 89 0
 122 0030 70BC     		pop	{r4, r5, r6}
 123 0032 7047     		bx	lr
 124              	.L10:
 125              		.align	2
 126              	.L9:
 127 0034 00000000 		.word	.LANCHOR0
 128              		.cfi_endproc
 129              	.LFE8:
 130              		.size	chVTSetI, .-chVTSetI
 131 0038 AFF30080 		.section	.text.chVTResetI,"ax",%progbits
 131      AFF30080 
 132              		.align	2
 133              		.p2align 4,,15
 134              		.global	chVTResetI
 135              		.thumb
 136              		.thumb_func
 137              		.type	chVTResetI, %function
 138              	chVTResetI:
 139              	.LFB9:
 140              		.loc 1 99 0
 141              		.cfi_startproc
 142              		@ args = 0, pretend = 0, frame = 0
 143              		@ frame_needed = 0, uses_anonymous_args = 0
 144              		@ link register save eliminated.
 145              	.LVL8:
 146              		.loc 1 107 0
 147 0000 0368     		ldr	r3, [r0, #0]
 148 0002 074A     		ldr	r2, .L13
 149 0004 9342     		cmp	r3, r2
 150 0006 03D0     		beq	.L12
 151              		.loc 1 108 0
 152 0008 9968     		ldr	r1, [r3, #8]
 153 000a 8268     		ldr	r2, [r0, #8]
 154 000c 8918     		adds	r1, r1, r2
 155 000e 9960     		str	r1, [r3, #8]
 156              	.L12:
 157              		.loc 1 109 0
 158 0010 4268     		ldr	r2, [r0, #4]
 159 0012 1360     		str	r3, [r2, #0]
 160              		.loc 1 110 0
 161 0014 0168     		ldr	r1, [r0, #0]
 162              		.loc 1 111 0
 163 0016 0023     		movs	r3, #0
 164              		.loc 1 110 0
 165 0018 4A60     		str	r2, [r1, #4]
 166              		.loc 1 111 0
 167 001a C360     		str	r3, [r0, #12]
 168              		.loc 1 112 0
 169 001c 7047     		bx	lr
ARM GAS  C:\Users\TAISIK~1\AppData\Local\Temp\ccRuNuWs.s 			page 4


 170              	.L14:
 171 001e 00BF     		.align	2
 172              	.L13:
 173 0020 00000000 		.word	.LANCHOR0
 174              		.cfi_endproc
 175              	.LFE9:
 176              		.size	chVTResetI, .-chVTResetI
 177 0024 AFF30080 		.section	.text.chTimeIsWithin,"ax",%progbits
 177      AFF30080 
 177      AFF30080 
 178              		.align	2
 179              		.p2align 4,,15
 180              		.global	chTimeIsWithin
 181              		.thumb
 182              		.thumb_func
 183              		.type	chTimeIsWithin, %function
 184              	chTimeIsWithin:
 185              	.LFB10:
 186              		.loc 1 127 0
 187              		.cfi_startproc
 188              		@ args = 0, pretend = 0, frame = 0
 189              		@ frame_needed = 0, uses_anonymous_args = 0
 190              		@ link register save eliminated.
 191              	.LVL9:
 192              		.loc 1 129 0
 193 0000 084B     		ldr	r3, .L23
 194              		.loc 1 130 0
 195 0002 8142     		cmp	r1, r0
 196              		.loc 1 129 0
 197 0004 DB68     		ldr	r3, [r3, #12]
 198              	.LVL10:
 199              		.loc 1 130 0
 200 0006 06D9     		bls	.L16
 201              		.loc 1 130 0 is_stmt 0 discriminator 1
 202 0008 8342     		cmp	r3, r0
 203 000a 08D3     		bcc	.L20
 204              	.L22:
 205              		.loc 1 130 0
 206 000c 8B42     		cmp	r3, r1
 207 000e 2CBF     		ite	cs
 208 0010 0020     		movcs	r0, #0
 209              	.LVL11:
 210 0012 0120     		movcc	r0, #1
 211 0014 7047     		bx	lr
 212              	.LVL12:
 213              	.L16:
 214              		.loc 1 130 0 discriminator 2
 215 0016 8342     		cmp	r3, r0
 216 0018 F8D3     		bcc	.L22
 217              		.loc 1 130 0
 218 001a 0120     		movs	r0, #1
 219              	.LVL13:
 220              		.loc 1 132 0 is_stmt 1
 221 001c 7047     		bx	lr
 222              	.LVL14:
 223              	.L20:
 224              		.loc 1 130 0
ARM GAS  C:\Users\TAISIK~1\AppData\Local\Temp\ccRuNuWs.s 			page 5


 225 001e 0020     		movs	r0, #0
 226              	.LVL15:
 227 0020 7047     		bx	lr
 228              	.L24:
 229 0022 00BF     		.align	2
 230              	.L23:
 231 0024 00000000 		.word	.LANCHOR0
 232              		.cfi_endproc
 233              	.LFE10:
 234              		.size	chTimeIsWithin, .-chTimeIsWithin
 235              		.global	vtlist
 236 0028 AFF30080 		.section	.bss.vtlist,"aw",%nobits
 236      AFF30080 
 237              		.align	2
 238              		.set	.LANCHOR0,. + 0
 239              		.type	vtlist, %object
 240              		.size	vtlist, 16
 241              	vtlist:
 242 0000 00000000 		.space	16
 242      00000000 
 242      00000000 
 242      00000000 
 243              		.text
 244              	.Letext0:
 245              		.file 2 "c:\\chibistudio\\tools\\gnu tools arm embedded\\4.6 2012q4\\bin\\../lib/gcc/arm-none-eabi
 246              		.file 3 "../../os/ports/GCC/ARMCMx/chtypes.h"
 247              		.file 4 "../../os/kernel/include/chvt.h"