ARM GAS  C:\Users\TAISIK~1\AppData\Local\Temp\ccL5sOmJ.s 			page 1


   1              		.syntax unified
   2              		.cpu cortex-m4
   3              		.fpu softvfp
   4              		.eabi_attribute 20, 1
   5              		.eabi_attribute 21, 1
   6              		.eabi_attribute 23, 3
   7              		.eabi_attribute 24, 1
   8              		.eabi_attribute 25, 1
   9              		.eabi_attribute 26, 1
  10              		.eabi_attribute 30, 2
  11              		.eabi_attribute 34, 1
  12              		.eabi_attribute 18, 4
  13              		.thumb
  14              		.file	"hal_lld.c"
  15              		.text
  16              	.Ltext0:
  17              		.cfi_sections	.debug_frame
  18              		.section	.text.hal_lld_init,"ax",%progbits
  19              		.align	2
  20              		.p2align 4,,15
  21              		.global	hal_lld_init
  22              		.thumb
  23              		.thumb_func
  24              		.type	hal_lld_init, %function
  25              	hal_lld_init:
  26              	.LFB119:
  27              		.file 1 "../../os/hal/platforms/STM32F30x/hal_lld.c"
  28              		.loc 1 104 0
  29              		.cfi_startproc
  30              		@ args = 0, pretend = 0, frame = 0
  31              		@ frame_needed = 0, uses_anonymous_args = 0
  32              		@ link register save eliminated.
  33 0000 70B4     		push	{r4, r5, r6}
  34              	.LCFI0:
  35              		.cfi_def_cfa_offset 12
  36              		.cfi_offset 6, -4
  37              		.cfi_offset 5, -8
  38              		.cfi_offset 4, -12
  39              		.loc 1 107 0
  40 0002 4FF48053 		mov	r3, #4096
  41 0006 C4F20203 		movt	r3, 16386
  42              		.loc 1 111 0
  43 000a 4EF2100C 		movw	ip, #57360
  44              		.loc 1 107 0
  45 000e 0021     		movs	r1, #0
  46              		.loc 1 111 0
  47 0010 CEF2000C 		movt	ip, 57344
  48              		.loc 1 107 0
  49 0014 4FF0FF35 		mov	r5, #-1
  50              		.loc 1 111 0
  51 0018 41F63F14 		movw	r4, #6463
  52              		.loc 1 118 0
  53 001c 4EF6F050 		movw	r0, #60912
  54              		.loc 1 107 0
  55 0020 1E69     		ldr	r6, [r3, #16]
  56 0022 1D61     		str	r5, [r3, #16]
  57              		.loc 1 118 0
ARM GAS  C:\Users\TAISIK~1\AppData\Local\Temp\ccL5sOmJ.s 			page 2


  58 0024 CEF20000 		movt	r0, 57344
  59              		.loc 1 107 0
  60 0028 1961     		str	r1, [r3, #16]
  61              		.loc 1 113 0
  62 002a 0722     		movs	r2, #7
  63              		.loc 1 111 0
  64 002c C0F20104 		movt	r4, 1
  65              		.loc 1 108 0
  66 0030 DE68     		ldr	r6, [r3, #12]
  67 0032 DD60     		str	r5, [r3, #12]
  68 0034 D960     		str	r1, [r3, #12]
  69              		.loc 1 111 0
  70 0036 CCF80440 		str	r4, [ip, #4]
  71              		.loc 1 112 0
  72 003a CCF80810 		str	r1, [ip, #8]
  73              		.loc 1 113 0
  74 003e CCF80020 		str	r2, [ip, #0]
  75              		.loc 1 118 0
  76 0042 C468     		ldr	r4, [r0, #12]
  77              		.loc 1 119 0
  78 0044 4FF4805C 		mov	ip, #4096
  79 0048 CEF2000C 		movt	ip, 57344
  80              		.loc 1 118 0
  81 004c 44F08074 		orr	r4, r4, #16777216
  82 0050 C460     		str	r4, [r0, #12]
  83              		.loc 1 119 0
  84 0052 DCF80020 		ldr	r2, [ip, #0]
  85 0056 42F00100 		orr	r0, r2, #1
  86 005a CCF80000 		str	r0, [ip, #0]
  87              		.loc 1 122 0
  88 005e DA69     		ldr	r2, [r3, #28]
  89              	.LBB4:
  90              	.LBB5:
  91              		.loc 1 56 0
  92 0060 4FF4E04C 		mov	ip, #28672
  93              	.LBE5:
  94              	.LBE4:
  95              		.loc 1 122 0
  96 0064 42F08050 		orr	r0, r2, #268435456
  97              	.LBB8:
  98              	.LBB6:
  99              		.loc 1 56 0
 100 0068 C4F2000C 		movt	ip, 16384
 101              	.LBE6:
 102              	.LBE8:
 103              		.loc 1 122 0
 104 006c D861     		str	r0, [r3, #28]
 105              	.LBB9:
 106              	.LBB7:
 107              		.loc 1 56 0
 108 006e DCF80020 		ldr	r2, [ip, #0]
 109 0072 42F48070 		orr	r0, r2, #256
 110 0076 CCF80000 		str	r0, [ip, #0]
 111              		.loc 1 59 0
 112 007a 186A     		ldr	r0, [r3, #32]
 113 007c 00F44072 		and	r2, r0, #768
 114 0080 B2F5007F 		cmp	r2, #512
ARM GAS  C:\Users\TAISIK~1\AppData\Local\Temp\ccL5sOmJ.s 			page 3


 115 0084 03D0     		beq	.L2
 116              		.loc 1 61 0
 117 0086 4FF48030 		mov	r0, #65536
 118 008a 1862     		str	r0, [r3, #32]
 119              		.loc 1 62 0
 120 008c 1962     		str	r1, [r3, #32]
 121              	.L2:
 122              		.loc 1 81 0
 123 008e 4FF48053 		mov	r3, #4096
 124 0092 C4F20203 		movt	r3, 16386
 125 0096 196A     		ldr	r1, [r3, #32]
 126 0098 0A04     		lsls	r2, r1, #16
 127 009a 07D4     		bmi	.L3
 128              		.loc 1 83 0
 129 009c 1A6A     		ldr	r2, [r3, #32]
 130 009e 42F40071 		orr	r1, r2, #512
 131 00a2 1962     		str	r1, [r3, #32]
 132              		.loc 1 86 0
 133 00a4 186A     		ldr	r0, [r3, #32]
 134 00a6 40F40042 		orr	r2, r0, #32768
 135 00aa 1A62     		str	r2, [r3, #32]
 136              	.L3:
 137              	.LBE7:
 138              	.LBE9:
 139              		.loc 1 138 0
 140 00ac 4FF4805C 		mov	ip, #4096
 141 00b0 C4F2020C 		movt	ip, 16386
 142              		.loc 1 141 0
 143 00b4 0023     		movs	r3, #0
 144              		.loc 1 138 0
 145 00b6 DCF81820 		ldr	r2, [ip, #24]
 146              		.loc 1 141 0
 147 00ba C4F20103 		movt	r3, 16385
 148              		.loc 1 138 0
 149 00be 42F00100 		orr	r0, r2, #1
 150 00c2 CCF81800 		str	r0, [ip, #24]
 151              		.loc 1 141 0
 152 00c6 1968     		ldr	r1, [r3, #0]
 153 00c8 41F02000 		orr	r0, r1, #32
 154 00cc 1860     		str	r0, [r3, #0]
 155              		.loc 1 142 0
 156 00ce 70BC     		pop	{r4, r5, r6}
 157 00d0 7047     		bx	lr
 158              		.cfi_endproc
 159              	.LFE119:
 160              		.size	hal_lld_init, .-hal_lld_init
 161 00d2 00BFAFF3 		.section	.text.stm32_clock_init,"ax",%progbits
 161      0080AFF3 
 161      0080AFF3 
 161      0080
 162              		.align	2
 163              		.p2align 4,,15
 164              		.global	stm32_clock_init
 165              		.thumb
 166              		.thumb_func
 167              		.type	stm32_clock_init, %function
 168              	stm32_clock_init:
ARM GAS  C:\Users\TAISIK~1\AppData\Local\Temp\ccL5sOmJ.s 			page 4


 169              	.LFB120:
 170              		.loc 1 151 0
 171              		.cfi_startproc
 172              		@ args = 0, pretend = 0, frame = 0
 173              		@ frame_needed = 0, uses_anonymous_args = 0
 174              		@ link register save eliminated.
 175              		.loc 1 156 0
 176 0000 4FF48053 		mov	r3, #4096
 177 0004 C4F20203 		movt	r3, 16386
 178              		.loc 1 157 0
 179 0008 1946     		mov	r1, r3
 180              		.loc 1 156 0
 181 000a 1868     		ldr	r0, [r3, #0]
 182 000c 40F00102 		orr	r2, r0, #1
 183 0010 1A60     		str	r2, [r3, #0]
 184              	.L6:
 185              		.loc 1 157 0 discriminator 1
 186 0012 0A68     		ldr	r2, [r1, #0]
 187 0014 4FF48053 		mov	r3, #4096
 188 0018 9007     		lsls	r0, r2, #30
 189 001a C4F20203 		movt	r3, 16386
 190 001e F8D5     		bpl	.L6
 191              		.loc 1 159 0
 192 0020 1A68     		ldr	r2, [r3, #0]
 193              		.loc 1 160 0
 194 0022 0020     		movs	r0, #0
 195              		.loc 1 159 0
 196 0024 02F0F901 		and	r1, r2, #249
 197 0028 1960     		str	r1, [r3, #0]
 198              		.loc 1 161 0
 199 002a 1946     		mov	r1, r3
 200              		.loc 1 160 0
 201 002c 5860     		str	r0, [r3, #4]
 202              	.L7:
 203              		.loc 1 161 0 discriminator 1
 204 002e 4868     		ldr	r0, [r1, #4]
 205 0030 4FF48053 		mov	r3, #4096
 206 0034 10F00C0F 		tst	r0, #12
 207 0038 C4F20203 		movt	r3, 16386
 208 003c F7D1     		bne	.L7
 209              		.loc 1 168 0
 210 003e 1A68     		ldr	r2, [r3, #0]
 211 0040 42F4A021 		orr	r1, r2, #327680
 212 0044 1960     		str	r1, [r3, #0]
 213              		.loc 1 173 0
 214 0046 1946     		mov	r1, r3
 215              	.L8:
 216              		.loc 1 173 0 is_stmt 0 discriminator 1
 217 0048 0868     		ldr	r0, [r1, #0]
 218 004a 4FF48053 		mov	r3, #4096
 219 004e 8203     		lsls	r2, r0, #14
 220 0050 C4F20203 		movt	r3, 16386
 221 0054 F8D5     		bpl	.L8
 222              		.loc 1 179 0 is_stmt 1
 223 0056 5A6A     		ldr	r2, [r3, #36]
 224 0058 42F00101 		orr	r1, r2, #1
 225 005c 5962     		str	r1, [r3, #36]
ARM GAS  C:\Users\TAISIK~1\AppData\Local\Temp\ccL5sOmJ.s 			page 5


 226              		.loc 1 180 0
 227 005e 1946     		mov	r1, r3
 228              	.L9:
 229              		.loc 1 180 0 is_stmt 0 discriminator 1
 230 0060 486A     		ldr	r0, [r1, #36]
 231 0062 4FF48053 		mov	r3, #4096
 232 0066 8007     		lsls	r0, r0, #30
 233 0068 C4F20203 		movt	r3, 16386
 234 006c F8D5     		bpl	.L9
 235              		.loc 1 185 0 is_stmt 1
 236 006e 4FF41052 		mov	r2, #9216
 237 0072 C0F21D02 		movt	r2, 29
 238              		.loc 1 188 0
 239 0076 4FF48071 		mov	r1, #256
 240              		.loc 1 189 0
 241 007a 3020     		movs	r0, #48
 242              		.loc 1 185 0
 243 007c 5A60     		str	r2, [r3, #4]
 244              		.loc 1 188 0
 245 007e D962     		str	r1, [r3, #44]
 246              		.loc 1 189 0
 247 0080 1863     		str	r0, [r3, #48]
 248              		.loc 1 195 0
 249 0082 1A68     		ldr	r2, [r3, #0]
 250 0084 42F08071 		orr	r1, r2, #16777216
 251 0088 1960     		str	r1, [r3, #0]
 252              	.L10:
 253              		.loc 1 196 0 discriminator 1
 254 008a 1868     		ldr	r0, [r3, #0]
 255 008c 4FF48052 		mov	r2, #4096
 256 0090 8101     		lsls	r1, r0, #6
 257 0092 C4F20202 		movt	r2, 16386
 258 0096 F8D5     		bpl	.L10
 259              		.loc 1 201 0
 260 0098 4FF4005C 		mov	ip, #8192
 261 009c C4F2020C 		movt	ip, 16386
 262 00a0 1220     		movs	r0, #18
 263 00a2 CCF80000 		str	r0, [ip, #0]
 264              		.loc 1 206 0
 265 00a6 5168     		ldr	r1, [r2, #4]
 266 00a8 41F00203 		orr	r3, r1, #2
 267 00ac 5360     		str	r3, [r2, #4]
 268              	.L11:
 269              		.loc 1 207 0 discriminator 1
 270 00ae 5168     		ldr	r1, [r2, #4]
 271 00b0 01F00C03 		and	r3, r1, #12
 272 00b4 082B     		cmp	r3, #8
 273 00b6 FAD1     		bne	.L11
 274              		.loc 1 211 0
 275 00b8 7047     		bx	lr
 276              		.cfi_endproc
 277              	.LFE120:
 278              		.size	stm32_clock_init, .-stm32_clock_init
 279 00ba 00BFAFF3 		.text
 279      0080
 280              	.Letext0:
 281              		.file 2 "c:\\chibistudio\\tools\\gnu tools arm embedded\\4.6 2012q4\\bin\\../lib/gcc/arm-none-eabi
ARM GAS  C:\Users\TAISIK~1\AppData\Local\Temp\ccL5sOmJ.s 			page 6


 282              		.file 3 "../../os/ports/common/ARMCMx/nvic.h"
 283              		.file 4 "../../os/ports/common/ARMCMx/CMSIS/include/core_cm4.h"
 284              		.file 5 "../../os/hal/platforms/STM32F30x/stm32f30x.h"
 285              		.section	.debug_info,"",%progbits
 286              	.Ldebug_info0:
 287 0000 48040000 		.4byte	0x448
 288 0004 0200     		.2byte	0x2
 289 0006 00000000 		.4byte	.Ldebug_abbrev0
 290 000a 04       		.byte	0x4
 291 000b 01       		.uleb128 0x1
 292 000c 4B010000 		.4byte	.LASF52
 293 0010 01       		.byte	0x1
 294 0011 57000000 		.4byte	.LASF53
 295 0015 5A020000 		.4byte	.LASF54
 296 0019 00000000 		.4byte	0
 297 001d 00000000 		.4byte	0
 298 0021 20000000 		.4byte	.Ldebug_ranges0+0x20
 299 0025 00000000 		.4byte	.Ldebug_line0
 300 0029 02       		.uleb128 0x2
 301 002a 04       		.byte	0x4
 302 002b 05       		.byte	0x5
 303 002c 696E7400 		.ascii	"int\000"
 304 0030 03       		.uleb128 0x3
 305 0031 04       		.byte	0x4
 306 0032 07       		.byte	0x7
 307 0033 C0010000 		.4byte	.LASF0
 308 0037 03       		.uleb128 0x3
 309 0038 01       		.byte	0x1
 310 0039 06       		.byte	0x6
 311 003a 94010000 		.4byte	.LASF1
 312 003e 03       		.uleb128 0x3
 313 003f 01       		.byte	0x1
 314 0040 08       		.byte	0x8
 315 0041 35010000 		.4byte	.LASF2
 316 0045 03       		.uleb128 0x3
 317 0046 02       		.byte	0x2
 318 0047 05       		.byte	0x5
 319 0048 1E000000 		.4byte	.LASF3
 320 004c 04       		.uleb128 0x4
 321 004d 05020000 		.4byte	.LASF5
 322 0051 02       		.byte	0x2
 323 0052 36       		.byte	0x36
 324 0053 57000000 		.4byte	0x57
 325 0057 03       		.uleb128 0x3
 326 0058 02       		.byte	0x2
 327 0059 07       		.byte	0x7
 328 005a ED010000 		.4byte	.LASF4
 329 005e 04       		.uleb128 0x4
 330 005f 16020000 		.4byte	.LASF6
 331 0063 02       		.byte	0x2
 332 0064 4F       		.byte	0x4f
 333 0065 69000000 		.4byte	0x69
 334 0069 03       		.uleb128 0x3
 335 006a 04       		.byte	0x4
 336 006b 05       		.byte	0x5
 337 006c FE000000 		.4byte	.LASF7
 338 0070 04       		.uleb128 0x4
ARM GAS  C:\Users\TAISIK~1\AppData\Local\Temp\ccL5sOmJ.s 			page 7


 339 0071 B7010000 		.4byte	.LASF8
 340 0075 02       		.byte	0x2
 341 0076 50       		.byte	0x50
 342 0077 7B000000 		.4byte	0x7b
 343 007b 03       		.uleb128 0x3
 344 007c 04       		.byte	0x4
 345 007d 07       		.byte	0x7
 346 007e 33020000 		.4byte	.LASF9
 347 0082 03       		.uleb128 0x3
 348 0083 08       		.byte	0x8
 349 0084 05       		.byte	0x5
 350 0085 DD000000 		.4byte	.LASF10
 351 0089 03       		.uleb128 0x3
 352 008a 08       		.byte	0x8
 353 008b 07       		.byte	0x7
 354 008c A0010000 		.4byte	.LASF11
 355 0090 03       		.uleb128 0x3
 356 0091 01       		.byte	0x1
 357 0092 02       		.byte	0x2
 358 0093 1E020000 		.4byte	.LASF12
 359 0097 05       		.uleb128 0x5
 360 0098 70000000 		.4byte	0x70
 361 009c 05       		.uleb128 0x5
 362 009d 7B000000 		.4byte	0x7b
 363 00a1 06       		.uleb128 0x6
 364 00a2 10       		.byte	0x10
 365 00a3 03       		.byte	0x3
 366 00a4 EA       		.byte	0xea
 367 00a5 E2000000 		.4byte	0xe2
 368 00a9 07       		.uleb128 0x7
 369 00aa F8000000 		.4byte	.LASF13
 370 00ae 03       		.byte	0x3
 371 00af EB       		.byte	0xeb
 372 00b0 9C000000 		.4byte	0x9c
 373 00b4 02       		.byte	0x2
 374 00b5 23       		.byte	0x23
 375 00b6 00       		.uleb128 0
 376 00b7 07       		.uleb128 0x7
 377 00b8 A6000000 		.4byte	.LASF14
 378 00bc 03       		.byte	0x3
 379 00bd EC       		.byte	0xec
 380 00be 9C000000 		.4byte	0x9c
 381 00c2 02       		.byte	0x2
 382 00c3 23       		.byte	0x23
 383 00c4 04       		.uleb128 0x4
 384 00c5 07       		.uleb128 0x7
 385 00c6 C7000000 		.4byte	.LASF15
 386 00ca 03       		.byte	0x3
 387 00cb ED       		.byte	0xed
 388 00cc 9C000000 		.4byte	0x9c
 389 00d0 02       		.byte	0x2
 390 00d1 23       		.byte	0x23
 391 00d2 08       		.uleb128 0x8
 392 00d3 07       		.uleb128 0x7
 393 00d4 18000000 		.4byte	.LASF16
 394 00d8 03       		.byte	0x3
 395 00d9 EE       		.byte	0xee
ARM GAS  C:\Users\TAISIK~1\AppData\Local\Temp\ccL5sOmJ.s 			page 8


 396 00da 9C000000 		.4byte	0x9c
 397 00de 02       		.byte	0x2
 398 00df 23       		.byte	0x23
 399 00e0 0C       		.uleb128 0xc
 400 00e1 00       		.byte	0
 401 00e2 04       		.uleb128 0x4
 402 00e3 0E020000 		.4byte	.LASF17
 403 00e7 03       		.byte	0x3
 404 00e8 EF       		.byte	0xef
 405 00e9 A1000000 		.4byte	0xa1
 406 00ed 06       		.uleb128 0x6
 407 00ee 20       		.byte	0x20
 408 00ef 03       		.byte	0x3
 409 00f0 FF       		.byte	0xff
 410 00f1 6E010000 		.4byte	0x16e
 411 00f5 08       		.uleb128 0x8
 412 00f6 88000000 		.4byte	.LASF18
 413 00fa 03       		.byte	0x3
 414 00fb 0001     		.2byte	0x100
 415 00fd 9C000000 		.4byte	0x9c
 416 0101 02       		.byte	0x2
 417 0102 23       		.byte	0x23
 418 0103 00       		.uleb128 0
 419 0104 08       		.uleb128 0x8
 420 0105 EB000000 		.4byte	.LASF19
 421 0109 03       		.byte	0x3
 422 010a 0101     		.2byte	0x101
 423 010c 9C000000 		.4byte	0x9c
 424 0110 02       		.byte	0x2
 425 0111 23       		.byte	0x23
 426 0112 04       		.uleb128 0x4
 427 0113 08       		.uleb128 0x8
 428 0114 2C020000 		.4byte	.LASF20
 429 0118 03       		.byte	0x3
 430 0119 0201     		.2byte	0x102
 431 011b 9C000000 		.4byte	0x9c
 432 011f 02       		.byte	0x2
 433 0120 23       		.byte	0x23
 434 0121 08       		.uleb128 0x8
 435 0122 08       		.uleb128 0x8
 436 0123 2E010000 		.4byte	.LASF21
 437 0127 03       		.byte	0x3
 438 0128 0301     		.2byte	0x103
 439 012a 9C000000 		.4byte	0x9c
 440 012e 02       		.byte	0x2
 441 012f 23       		.byte	0x23
 442 0130 0C       		.uleb128 0xc
 443 0131 08       		.uleb128 0x8
 444 0132 45020000 		.4byte	.LASF22
 445 0136 03       		.byte	0x3
 446 0137 0401     		.2byte	0x104
 447 0139 9C000000 		.4byte	0x9c
 448 013d 02       		.byte	0x2
 449 013e 23       		.byte	0x23
 450 013f 10       		.uleb128 0x10
 451 0140 08       		.uleb128 0x8
 452 0141 4E020000 		.4byte	.LASF23
ARM GAS  C:\Users\TAISIK~1\AppData\Local\Temp\ccL5sOmJ.s 			page 9


 453 0145 03       		.byte	0x3
 454 0146 0501     		.2byte	0x105
 455 0148 9C000000 		.4byte	0x9c
 456 014c 02       		.byte	0x2
 457 014d 23       		.byte	0x23
 458 014e 14       		.uleb128 0x14
 459 014f 08       		.uleb128 0x8
 460 0150 43000000 		.4byte	.LASF24
 461 0154 03       		.byte	0x3
 462 0155 0601     		.2byte	0x106
 463 0157 9C000000 		.4byte	0x9c
 464 015b 02       		.byte	0x2
 465 015c 23       		.byte	0x23
 466 015d 18       		.uleb128 0x18
 467 015e 08       		.uleb128 0x8
 468 015f 3E000000 		.4byte	.LASF25
 469 0163 03       		.byte	0x3
 470 0164 0701     		.2byte	0x107
 471 0166 9C000000 		.4byte	0x9c
 472 016a 02       		.byte	0x2
 473 016b 23       		.byte	0x23
 474 016c 1C       		.uleb128 0x1c
 475 016d 00       		.byte	0
 476 016e 09       		.uleb128 0x9
 477 016f 24020000 		.4byte	.LASF26
 478 0173 03       		.byte	0x3
 479 0174 0801     		.2byte	0x108
 480 0176 ED000000 		.4byte	0xed
 481 017a 03       		.uleb128 0x3
 482 017b 01       		.byte	0x1
 483 017c 08       		.byte	0x8
 484 017d 00020000 		.4byte	.LASF27
 485 0181 0A       		.uleb128 0xa
 486 0182 97000000 		.4byte	0x97
 487 0186 0B       		.uleb128 0xb
 488 0187 70000000 		.4byte	0x70
 489 018b 96010000 		.4byte	0x196
 490 018f 0C       		.uleb128 0xc
 491 0190 30000000 		.4byte	0x30
 492 0194 03       		.byte	0x3
 493 0195 00       		.byte	0
 494 0196 0D       		.uleb128 0xd
 495 0197 10       		.byte	0x10
 496 0198 04       		.byte	0x4
 497 0199 6002     		.2byte	0x260
 498 019b DC010000 		.4byte	0x1dc
 499 019f 08       		.uleb128 0x8
 500 01a0 88000000 		.4byte	.LASF18
 501 01a4 04       		.byte	0x4
 502 01a5 6202     		.2byte	0x262
 503 01a7 97000000 		.4byte	0x97
 504 01ab 02       		.byte	0x2
 505 01ac 23       		.byte	0x23
 506 01ad 00       		.uleb128 0
 507 01ae 08       		.uleb128 0x8
 508 01af 55020000 		.4byte	.LASF28
 509 01b3 04       		.byte	0x4
ARM GAS  C:\Users\TAISIK~1\AppData\Local\Temp\ccL5sOmJ.s 			page 10


 510 01b4 6302     		.2byte	0x263
 511 01b6 97000000 		.4byte	0x97
 512 01ba 02       		.byte	0x2
 513 01bb 23       		.byte	0x23
 514 01bc 04       		.uleb128 0x4
 515 01bd 0E       		.uleb128 0xe
 516 01be 56414C00 		.ascii	"VAL\000"
 517 01c2 04       		.byte	0x4
 518 01c3 6402     		.2byte	0x264
 519 01c5 97000000 		.4byte	0x97
 520 01c9 02       		.byte	0x2
 521 01ca 23       		.byte	0x23
 522 01cb 08       		.uleb128 0x8
 523 01cc 08       		.uleb128 0x8
 524 01cd F2000000 		.4byte	.LASF29
 525 01d1 04       		.byte	0x4
 526 01d2 6502     		.2byte	0x265
 527 01d4 81010000 		.4byte	0x181
 528 01d8 02       		.byte	0x2
 529 01d9 23       		.byte	0x23
 530 01da 0C       		.uleb128 0xc
 531 01db 00       		.byte	0
 532 01dc 09       		.uleb128 0x9
 533 01dd E0010000 		.4byte	.LASF30
 534 01e1 04       		.byte	0x4
 535 01e2 6602     		.2byte	0x266
 536 01e4 96010000 		.4byte	0x196
 537 01e8 05       		.uleb128 0x5
 538 01e9 5E000000 		.4byte	0x5e
 539 01ed 0D       		.uleb128 0xd
 540 01ee 24       		.byte	0x24
 541 01ef 05       		.byte	0x5
 542 01f0 0D02     		.2byte	0x20d
 543 01f2 7B020000 		.4byte	0x27b
 544 01f6 0E       		.uleb128 0xe
 545 01f7 41435200 		.ascii	"ACR\000"
 546 01fb 05       		.byte	0x5
 547 01fc 0F02     		.2byte	0x20f
 548 01fe 97000000 		.4byte	0x97
 549 0202 02       		.byte	0x2
 550 0203 23       		.byte	0x23
 551 0204 00       		.uleb128 0
 552 0205 08       		.uleb128 0x8
 553 0206 8D000000 		.4byte	.LASF31
 554 020a 05       		.byte	0x5
 555 020b 1002     		.2byte	0x210
 556 020d 97000000 		.4byte	0x97
 557 0211 02       		.byte	0x2
 558 0212 23       		.byte	0x23
 559 0213 04       		.uleb128 0x4
 560 0214 08       		.uleb128 0x8
 561 0215 CD000000 		.4byte	.LASF32
 562 0219 05       		.byte	0x5
 563 021a 1102     		.2byte	0x211
 564 021c 97000000 		.4byte	0x97
 565 0220 02       		.byte	0x2
 566 0221 23       		.byte	0x23
ARM GAS  C:\Users\TAISIK~1\AppData\Local\Temp\ccL5sOmJ.s 			page 11


 567 0222 08       		.uleb128 0x8
 568 0223 0E       		.uleb128 0xe
 569 0224 535200   		.ascii	"SR\000"
 570 0227 05       		.byte	0x5
 571 0228 1202     		.2byte	0x212
 572 022a 97000000 		.4byte	0x97
 573 022e 02       		.byte	0x2
 574 022f 23       		.byte	0x23
 575 0230 0C       		.uleb128 0xc
 576 0231 0E       		.uleb128 0xe
 577 0232 435200   		.ascii	"CR\000"
 578 0235 05       		.byte	0x5
 579 0236 1302     		.2byte	0x213
 580 0238 97000000 		.4byte	0x97
 581 023c 02       		.byte	0x2
 582 023d 23       		.byte	0x23
 583 023e 10       		.uleb128 0x10
 584 023f 0E       		.uleb128 0xe
 585 0240 415200   		.ascii	"AR\000"
 586 0243 05       		.byte	0x5
 587 0244 1402     		.2byte	0x214
 588 0246 97000000 		.4byte	0x97
 589 024a 02       		.byte	0x2
 590 024b 23       		.byte	0x23
 591 024c 14       		.uleb128 0x14
 592 024d 08       		.uleb128 0x8
 593 024e 92020000 		.4byte	.LASF33
 594 0252 05       		.byte	0x5
 595 0253 1502     		.2byte	0x215
 596 0255 70000000 		.4byte	0x70
 597 0259 02       		.byte	0x2
 598 025a 23       		.byte	0x23
 599 025b 18       		.uleb128 0x18
 600 025c 0E       		.uleb128 0xe
 601 025d 4F425200 		.ascii	"OBR\000"
 602 0261 05       		.byte	0x5
 603 0262 1602     		.2byte	0x216
 604 0264 97000000 		.4byte	0x97
 605 0268 02       		.byte	0x2
 606 0269 23       		.byte	0x23
 607 026a 1C       		.uleb128 0x1c
 608 026b 08       		.uleb128 0x8
 609 026c 29010000 		.4byte	.LASF34
 610 0270 05       		.byte	0x5
 611 0271 1702     		.2byte	0x217
 612 0273 97000000 		.4byte	0x97
 613 0277 02       		.byte	0x2
 614 0278 23       		.byte	0x23
 615 0279 20       		.uleb128 0x20
 616 027a 00       		.byte	0
 617 027b 09       		.uleb128 0x9
 618 027c 9B020000 		.4byte	.LASF35
 619 0280 05       		.byte	0x5
 620 0281 1902     		.2byte	0x219
 621 0283 ED010000 		.4byte	0x1ed
 622 0287 0D       		.uleb128 0xd
 623 0288 1C       		.byte	0x1c
ARM GAS  C:\Users\TAISIK~1\AppData\Local\Temp\ccL5sOmJ.s 			page 12


 624 0289 05       		.byte	0x5
 625 028a 6602     		.2byte	0x266
 626 028c CD020000 		.4byte	0x2cd
 627 0290 08       		.uleb128 0x8
 628 0291 82000000 		.4byte	.LASF36
 629 0295 05       		.byte	0x5
 630 0296 6802     		.2byte	0x268
 631 0298 97000000 		.4byte	0x97
 632 029c 02       		.byte	0x2
 633 029d 23       		.byte	0x23
 634 029e 00       		.uleb128 0
 635 029f 0E       		.uleb128 0xe
 636 02a0 52435200 		.ascii	"RCR\000"
 637 02a4 05       		.byte	0x5
 638 02a5 6902     		.2byte	0x269
 639 02a7 97000000 		.4byte	0x97
 640 02ab 02       		.byte	0x2
 641 02ac 23       		.byte	0x23
 642 02ad 04       		.uleb128 0x4
 643 02ae 08       		.uleb128 0x8
 644 02af 97000000 		.4byte	.LASF37
 645 02b3 05       		.byte	0x5
 646 02b4 6A02     		.2byte	0x26a
 647 02b6 CD020000 		.4byte	0x2cd
 648 02ba 02       		.byte	0x2
 649 02bb 23       		.byte	0x23
 650 02bc 08       		.uleb128 0x8
 651 02bd 08       		.uleb128 0x8
 652 02be 07010000 		.4byte	.LASF38
 653 02c2 05       		.byte	0x5
 654 02c3 6B02     		.2byte	0x26b
 655 02c5 97000000 		.4byte	0x97
 656 02c9 02       		.byte	0x2
 657 02ca 23       		.byte	0x23
 658 02cb 18       		.uleb128 0x18
 659 02cc 00       		.byte	0
 660 02cd 05       		.uleb128 0x5
 661 02ce 86010000 		.4byte	0x186
 662 02d2 09       		.uleb128 0x9
 663 02d3 00000000 		.4byte	.LASF39
 664 02d7 05       		.byte	0x5
 665 02d8 6C02     		.2byte	0x26c
 666 02da 87020000 		.4byte	0x287
 667 02de 0D       		.uleb128 0xd
 668 02df 08       		.byte	0x8
 669 02e0 05       		.byte	0x5
 670 02e1 9202     		.2byte	0x292
 671 02e3 05030000 		.4byte	0x305
 672 02e7 0E       		.uleb128 0xe
 673 02e8 435200   		.ascii	"CR\000"
 674 02eb 05       		.byte	0x5
 675 02ec 9402     		.2byte	0x294
 676 02ee 97000000 		.4byte	0x97
 677 02f2 02       		.byte	0x2
 678 02f3 23       		.byte	0x23
 679 02f4 00       		.uleb128 0
 680 02f5 0E       		.uleb128 0xe
ARM GAS  C:\Users\TAISIK~1\AppData\Local\Temp\ccL5sOmJ.s 			page 13


 681 02f6 43535200 		.ascii	"CSR\000"
 682 02fa 05       		.byte	0x5
 683 02fb 9502     		.2byte	0x295
 684 02fd 97000000 		.4byte	0x97
 685 0301 02       		.byte	0x2
 686 0302 23       		.byte	0x23
 687 0303 04       		.uleb128 0x4
 688 0304 00       		.byte	0
 689 0305 09       		.uleb128 0x9
 690 0306 4B000000 		.4byte	.LASF40
 691 030a 05       		.byte	0x5
 692 030b 9602     		.2byte	0x296
 693 030d DE020000 		.4byte	0x2de
 694 0311 0D       		.uleb128 0xd
 695 0312 34       		.byte	0x34
 696 0313 05       		.byte	0x5
 697 0314 9B02     		.2byte	0x29b
 698 0316 DD030000 		.4byte	0x3dd
 699 031a 0E       		.uleb128 0xe
 700 031b 435200   		.ascii	"CR\000"
 701 031e 05       		.byte	0x5
 702 031f 9D02     		.2byte	0x29d
 703 0321 97000000 		.4byte	0x97
 704 0325 02       		.byte	0x2
 705 0326 23       		.byte	0x23
 706 0327 00       		.uleb128 0
 707 0328 08       		.uleb128 0x8
 708 0329 92000000 		.4byte	.LASF41
 709 032d 05       		.byte	0x5
 710 032e 9E02     		.2byte	0x29e
 711 0330 97000000 		.4byte	0x97
 712 0334 02       		.byte	0x2
 713 0335 23       		.byte	0x23
 714 0336 04       		.uleb128 0x4
 715 0337 0E       		.uleb128 0xe
 716 0338 43495200 		.ascii	"CIR\000"
 717 033c 05       		.byte	0x5
 718 033d 9F02     		.2byte	0x29f
 719 033f 97000000 		.4byte	0x97
 720 0343 02       		.byte	0x2
 721 0344 23       		.byte	0x23
 722 0345 08       		.uleb128 0x8
 723 0346 08       		.uleb128 0x8
 724 0347 20010000 		.4byte	.LASF42
 725 034b 05       		.byte	0x5
 726 034c A002     		.2byte	0x2a0
 727 034e 97000000 		.4byte	0x97
 728 0352 02       		.byte	0x2
 729 0353 23       		.byte	0x23
 730 0354 0C       		.uleb128 0xc
 731 0355 08       		.uleb128 0x8
 732 0356 0F000000 		.4byte	.LASF43
 733 035a 05       		.byte	0x5
 734 035b A102     		.2byte	0x2a1
 735 035d 97000000 		.4byte	0x97
 736 0361 02       		.byte	0x2
 737 0362 23       		.byte	0x23
ARM GAS  C:\Users\TAISIK~1\AppData\Local\Temp\ccL5sOmJ.s 			page 14


 738 0363 10       		.uleb128 0x10
 739 0364 08       		.uleb128 0x8
 740 0365 19010000 		.4byte	.LASF44
 741 0369 05       		.byte	0x5
 742 036a A202     		.2byte	0x2a2
 743 036c 97000000 		.4byte	0x97
 744 0370 02       		.byte	0x2
 745 0371 23       		.byte	0x23
 746 0372 14       		.uleb128 0x14
 747 0373 08       		.uleb128 0x8
 748 0374 43010000 		.4byte	.LASF45
 749 0378 05       		.byte	0x5
 750 0379 A302     		.2byte	0x2a3
 751 037b 97000000 		.4byte	0x97
 752 037f 02       		.byte	0x2
 753 0380 23       		.byte	0x23
 754 0381 18       		.uleb128 0x18
 755 0382 08       		.uleb128 0x8
 756 0383 9E000000 		.4byte	.LASF46
 757 0387 05       		.byte	0x5
 758 0388 A402     		.2byte	0x2a4
 759 038a 97000000 		.4byte	0x97
 760 038e 02       		.byte	0x2
 761 038f 23       		.byte	0x23
 762 0390 1C       		.uleb128 0x1c
 763 0391 08       		.uleb128 0x8
 764 0392 39000000 		.4byte	.LASF47
 765 0396 05       		.byte	0x5
 766 0397 A502     		.2byte	0x2a5
 767 0399 97000000 		.4byte	0x97
 768 039d 02       		.byte	0x2
 769 039e 23       		.byte	0x23
 770 039f 20       		.uleb128 0x20
 771 03a0 0E       		.uleb128 0xe
 772 03a1 43535200 		.ascii	"CSR\000"
 773 03a5 05       		.byte	0x5
 774 03a6 A602     		.2byte	0x2a6
 775 03a8 97000000 		.4byte	0x97
 776 03ac 02       		.byte	0x2
 777 03ad 23       		.byte	0x23
 778 03ae 24       		.uleb128 0x24
 779 03af 08       		.uleb128 0x8
 780 03b0 D5000000 		.4byte	.LASF48
 781 03b4 05       		.byte	0x5
 782 03b5 A702     		.2byte	0x2a7
 783 03b7 97000000 		.4byte	0x97
 784 03bb 02       		.byte	0x2
 785 03bc 23       		.byte	0x23
 786 03bd 28       		.uleb128 0x28
 787 03be 08       		.uleb128 0x8
 788 03bf 07010000 		.4byte	.LASF38
 789 03c3 05       		.byte	0x5
 790 03c4 A802     		.2byte	0x2a8
 791 03c6 97000000 		.4byte	0x97
 792 03ca 02       		.byte	0x2
 793 03cb 23       		.byte	0x23
 794 03cc 2C       		.uleb128 0x2c
ARM GAS  C:\Users\TAISIK~1\AppData\Local\Temp\ccL5sOmJ.s 			page 15


 795 03cd 08       		.uleb128 0x8
 796 03ce CD010000 		.4byte	.LASF49
 797 03d2 05       		.byte	0x5
 798 03d3 A902     		.2byte	0x2a9
 799 03d5 97000000 		.4byte	0x97
 800 03d9 02       		.byte	0x2
 801 03da 23       		.byte	0x23
 802 03db 30       		.uleb128 0x30
 803 03dc 00       		.byte	0
 804 03dd 09       		.uleb128 0x9
 805 03de 0D010000 		.4byte	.LASF50
 806 03e2 05       		.byte	0x5
 807 03e3 AA02     		.2byte	0x2aa
 808 03e5 11030000 		.4byte	0x311
 809 03e9 0F       		.uleb128 0xf
 810 03ea AC000000 		.4byte	.LASF55
 811 03ee 01       		.byte	0x1
 812 03ef 35       		.byte	0x35
 813 03f0 01       		.byte	0x1
 814 03f1 01       		.byte	0x1
 815 03f2 10       		.uleb128 0x10
 816 03f3 01       		.byte	0x1
 817 03f4 D3010000 		.4byte	.LASF56
 818 03f8 01       		.byte	0x1
 819 03f9 68       		.byte	0x68
 820 03fa 01       		.byte	0x1
 821 03fb 00000000 		.4byte	.LFB119
 822 03ff D2000000 		.4byte	.LFE119
 823 0403 00000000 		.4byte	.LLST0
 824 0407 1B040000 		.4byte	0x41b
 825 040b 11       		.uleb128 0x11
 826 040c E9030000 		.4byte	0x3e9
 827 0410 60000000 		.4byte	.LBB4
 828 0414 00000000 		.4byte	.Ldebug_ranges0+0
 829 0418 01       		.byte	0x1
 830 0419 7D       		.byte	0x7d
 831 041a 00       		.byte	0
 832 041b 12       		.uleb128 0x12
 833 041c 01       		.byte	0x1
 834 041d 28000000 		.4byte	.LASF57
 835 0421 01       		.byte	0x1
 836 0422 97       		.byte	0x97
 837 0423 01       		.byte	0x1
 838 0424 00000000 		.4byte	.LFB120
 839 0428 BA000000 		.4byte	.LFE120
 840 042c 02       		.byte	0x2
 841 042d 7D       		.byte	0x7d
 842 042e 00       		.sleb128 0
 843 042f 13       		.uleb128 0x13
 844 0430 A9020000 		.4byte	.LASF51
 845 0434 04       		.byte	0x4
 846 0435 9806     		.2byte	0x698
 847 0437 E8010000 		.4byte	0x1e8
 848 043b 01       		.byte	0x1
 849 043c 01       		.byte	0x1
 850 043d 13       		.uleb128 0x13
 851 043e A9020000 		.4byte	.LASF51
ARM GAS  C:\Users\TAISIK~1\AppData\Local\Temp\ccL5sOmJ.s 			page 16


 852 0442 04       		.byte	0x4
 853 0443 9806     		.2byte	0x698
 854 0445 E8010000 		.4byte	0x1e8
 855 0449 01       		.byte	0x1
 856 044a 01       		.byte	0x1
 857 044b 00       		.byte	0
 858              		.section	.debug_abbrev,"",%progbits
 859              	.Ldebug_abbrev0:
 860 0000 01       		.uleb128 0x1
 861 0001 11       		.uleb128 0x11
 862 0002 01       		.byte	0x1
 863 0003 25       		.uleb128 0x25
 864 0004 0E       		.uleb128 0xe
 865 0005 13       		.uleb128 0x13
 866 0006 0B       		.uleb128 0xb
 867 0007 03       		.uleb128 0x3
 868 0008 0E       		.uleb128 0xe
 869 0009 1B       		.uleb128 0x1b
 870 000a 0E       		.uleb128 0xe
 871 000b 11       		.uleb128 0x11
 872 000c 01       		.uleb128 0x1
 873 000d 52       		.uleb128 0x52
 874 000e 01       		.uleb128 0x1
 875 000f 55       		.uleb128 0x55
 876 0010 06       		.uleb128 0x6
 877 0011 10       		.uleb128 0x10
 878 0012 06       		.uleb128 0x6
 879 0013 00       		.byte	0
 880 0014 00       		.byte	0
 881 0015 02       		.uleb128 0x2
 882 0016 24       		.uleb128 0x24
 883 0017 00       		.byte	0
 884 0018 0B       		.uleb128 0xb
 885 0019 0B       		.uleb128 0xb
 886 001a 3E       		.uleb128 0x3e
 887 001b 0B       		.uleb128 0xb
 888 001c 03       		.uleb128 0x3
 889 001d 08       		.uleb128 0x8
 890 001e 00       		.byte	0
 891 001f 00       		.byte	0
 892 0020 03       		.uleb128 0x3
 893 0021 24       		.uleb128 0x24
 894 0022 00       		.byte	0
 895 0023 0B       		.uleb128 0xb
 896 0024 0B       		.uleb128 0xb
 897 0025 3E       		.uleb128 0x3e
 898 0026 0B       		.uleb128 0xb
 899 0027 03       		.uleb128 0x3
 900 0028 0E       		.uleb128 0xe
 901 0029 00       		.byte	0
 902 002a 00       		.byte	0
 903 002b 04       		.uleb128 0x4
 904 002c 16       		.uleb128 0x16
 905 002d 00       		.byte	0
 906 002e 03       		.uleb128 0x3
 907 002f 0E       		.uleb128 0xe
 908 0030 3A       		.uleb128 0x3a
ARM GAS  C:\Users\TAISIK~1\AppData\Local\Temp\ccL5sOmJ.s 			page 17


 909 0031 0B       		.uleb128 0xb
 910 0032 3B       		.uleb128 0x3b
 911 0033 0B       		.uleb128 0xb
 912 0034 49       		.uleb128 0x49
 913 0035 13       		.uleb128 0x13
 914 0036 00       		.byte	0
 915 0037 00       		.byte	0
 916 0038 05       		.uleb128 0x5
 917 0039 35       		.uleb128 0x35
 918 003a 00       		.byte	0
 919 003b 49       		.uleb128 0x49
 920 003c 13       		.uleb128 0x13
 921 003d 00       		.byte	0
 922 003e 00       		.byte	0
 923 003f 06       		.uleb128 0x6
 924 0040 13       		.uleb128 0x13
 925 0041 01       		.byte	0x1
 926 0042 0B       		.uleb128 0xb
 927 0043 0B       		.uleb128 0xb
 928 0044 3A       		.uleb128 0x3a
 929 0045 0B       		.uleb128 0xb
 930 0046 3B       		.uleb128 0x3b
 931 0047 0B       		.uleb128 0xb
 932 0048 01       		.uleb128 0x1
 933 0049 13       		.uleb128 0x13
 934 004a 00       		.byte	0
 935 004b 00       		.byte	0
 936 004c 07       		.uleb128 0x7
 937 004d 0D       		.uleb128 0xd
 938 004e 00       		.byte	0
 939 004f 03       		.uleb128 0x3
 940 0050 0E       		.uleb128 0xe
 941 0051 3A       		.uleb128 0x3a
 942 0052 0B       		.uleb128 0xb
 943 0053 3B       		.uleb128 0x3b
 944 0054 0B       		.uleb128 0xb
 945 0055 49       		.uleb128 0x49
 946 0056 13       		.uleb128 0x13
 947 0057 38       		.uleb128 0x38
 948 0058 0A       		.uleb128 0xa
 949 0059 00       		.byte	0
 950 005a 00       		.byte	0
 951 005b 08       		.uleb128 0x8
 952 005c 0D       		.uleb128 0xd
 953 005d 00       		.byte	0
 954 005e 03       		.uleb128 0x3
 955 005f 0E       		.uleb128 0xe
 956 0060 3A       		.uleb128 0x3a
 957 0061 0B       		.uleb128 0xb
 958 0062 3B       		.uleb128 0x3b
 959 0063 05       		.uleb128 0x5
 960 0064 49       		.uleb128 0x49
 961 0065 13       		.uleb128 0x13
 962 0066 38       		.uleb128 0x38
 963 0067 0A       		.uleb128 0xa
 964 0068 00       		.byte	0
 965 0069 00       		.byte	0
ARM GAS  C:\Users\TAISIK~1\AppData\Local\Temp\ccL5sOmJ.s 			page 18


 966 006a 09       		.uleb128 0x9
 967 006b 16       		.uleb128 0x16
 968 006c 00       		.byte	0
 969 006d 03       		.uleb128 0x3
 970 006e 0E       		.uleb128 0xe
 971 006f 3A       		.uleb128 0x3a
 972 0070 0B       		.uleb128 0xb
 973 0071 3B       		.uleb128 0x3b
 974 0072 05       		.uleb128 0x5
 975 0073 49       		.uleb128 0x49
 976 0074 13       		.uleb128 0x13
 977 0075 00       		.byte	0
 978 0076 00       		.byte	0
 979 0077 0A       		.uleb128 0xa
 980 0078 26       		.uleb128 0x26
 981 0079 00       		.byte	0
 982 007a 49       		.uleb128 0x49
 983 007b 13       		.uleb128 0x13
 984 007c 00       		.byte	0
 985 007d 00       		.byte	0
 986 007e 0B       		.uleb128 0xb
 987 007f 01       		.uleb128 0x1
 988 0080 01       		.byte	0x1
 989 0081 49       		.uleb128 0x49
 990 0082 13       		.uleb128 0x13
 991 0083 01       		.uleb128 0x1
 992 0084 13       		.uleb128 0x13
 993 0085 00       		.byte	0
 994 0086 00       		.byte	0
 995 0087 0C       		.uleb128 0xc
 996 0088 21       		.uleb128 0x21
 997 0089 00       		.byte	0
 998 008a 49       		.uleb128 0x49
 999 008b 13       		.uleb128 0x13
 1000 008c 2F       		.uleb128 0x2f
 1001 008d 0B       		.uleb128 0xb
 1002 008e 00       		.byte	0
 1003 008f 00       		.byte	0
 1004 0090 0D       		.uleb128 0xd
 1005 0091 13       		.uleb128 0x13
 1006 0092 01       		.byte	0x1
 1007 0093 0B       		.uleb128 0xb
 1008 0094 0B       		.uleb128 0xb
 1009 0095 3A       		.uleb128 0x3a
 1010 0096 0B       		.uleb128 0xb
 1011 0097 3B       		.uleb128 0x3b
 1012 0098 05       		.uleb128 0x5
 1013 0099 01       		.uleb128 0x1
 1014 009a 13       		.uleb128 0x13
 1015 009b 00       		.byte	0
 1016 009c 00       		.byte	0
 1017 009d 0E       		.uleb128 0xe
 1018 009e 0D       		.uleb128 0xd
 1019 009f 00       		.byte	0
 1020 00a0 03       		.uleb128 0x3
 1021 00a1 08       		.uleb128 0x8
 1022 00a2 3A       		.uleb128 0x3a
ARM GAS  C:\Users\TAISIK~1\AppData\Local\Temp\ccL5sOmJ.s 			page 19


 1023 00a3 0B       		.uleb128 0xb
 1024 00a4 3B       		.uleb128 0x3b
 1025 00a5 05       		.uleb128 0x5
 1026 00a6 49       		.uleb128 0x49
 1027 00a7 13       		.uleb128 0x13
 1028 00a8 38       		.uleb128 0x38
 1029 00a9 0A       		.uleb128 0xa
 1030 00aa 00       		.byte	0
 1031 00ab 00       		.byte	0
 1032 00ac 0F       		.uleb128 0xf
 1033 00ad 2E       		.uleb128 0x2e
 1034 00ae 00       		.byte	0
 1035 00af 03       		.uleb128 0x3
 1036 00b0 0E       		.uleb128 0xe
 1037 00b1 3A       		.uleb128 0x3a
 1038 00b2 0B       		.uleb128 0xb
 1039 00b3 3B       		.uleb128 0x3b
 1040 00b4 0B       		.uleb128 0xb
 1041 00b5 27       		.uleb128 0x27
 1042 00b6 0C       		.uleb128 0xc
 1043 00b7 20       		.uleb128 0x20
 1044 00b8 0B       		.uleb128 0xb
 1045 00b9 00       		.byte	0
 1046 00ba 00       		.byte	0
 1047 00bb 10       		.uleb128 0x10
 1048 00bc 2E       		.uleb128 0x2e
 1049 00bd 01       		.byte	0x1
 1050 00be 3F       		.uleb128 0x3f
 1051 00bf 0C       		.uleb128 0xc
 1052 00c0 03       		.uleb128 0x3
 1053 00c1 0E       		.uleb128 0xe
 1054 00c2 3A       		.uleb128 0x3a
 1055 00c3 0B       		.uleb128 0xb
 1056 00c4 3B       		.uleb128 0x3b
 1057 00c5 0B       		.uleb128 0xb
 1058 00c6 27       		.uleb128 0x27
 1059 00c7 0C       		.uleb128 0xc
 1060 00c8 11       		.uleb128 0x11
 1061 00c9 01       		.uleb128 0x1
 1062 00ca 12       		.uleb128 0x12
 1063 00cb 01       		.uleb128 0x1
 1064 00cc 40       		.uleb128 0x40
 1065 00cd 06       		.uleb128 0x6
 1066 00ce 01       		.uleb128 0x1
 1067 00cf 13       		.uleb128 0x13
 1068 00d0 00       		.byte	0
 1069 00d1 00       		.byte	0
 1070 00d2 11       		.uleb128 0x11
 1071 00d3 1D       		.uleb128 0x1d
 1072 00d4 00       		.byte	0
 1073 00d5 31       		.uleb128 0x31
 1074 00d6 13       		.uleb128 0x13
 1075 00d7 52       		.uleb128 0x52
 1076 00d8 01       		.uleb128 0x1
 1077 00d9 55       		.uleb128 0x55
 1078 00da 06       		.uleb128 0x6
 1079 00db 58       		.uleb128 0x58
ARM GAS  C:\Users\TAISIK~1\AppData\Local\Temp\ccL5sOmJ.s 			page 20


 1080 00dc 0B       		.uleb128 0xb
 1081 00dd 59       		.uleb128 0x59
 1082 00de 0B       		.uleb128 0xb
 1083 00df 00       		.byte	0
 1084 00e0 00       		.byte	0
 1085 00e1 12       		.uleb128 0x12
 1086 00e2 2E       		.uleb128 0x2e
 1087 00e3 00       		.byte	0
 1088 00e4 3F       		.uleb128 0x3f
 1089 00e5 0C       		.uleb128 0xc
 1090 00e6 03       		.uleb128 0x3
 1091 00e7 0E       		.uleb128 0xe
 1092 00e8 3A       		.uleb128 0x3a
 1093 00e9 0B       		.uleb128 0xb
 1094 00ea 3B       		.uleb128 0x3b
 1095 00eb 0B       		.uleb128 0xb
 1096 00ec 27       		.uleb128 0x27
 1097 00ed 0C       		.uleb128 0xc
 1098 00ee 11       		.uleb128 0x11
 1099 00ef 01       		.uleb128 0x1
 1100 00f0 12       		.uleb128 0x12
 1101 00f1 01       		.uleb128 0x1
 1102 00f2 40       		.uleb128 0x40
 1103 00f3 0A       		.uleb128 0xa
 1104 00f4 00       		.byte	0
 1105 00f5 00       		.byte	0
 1106 00f6 13       		.uleb128 0x13
 1107 00f7 34       		.uleb128 0x34
 1108 00f8 00       		.byte	0
 1109 00f9 03       		.uleb128 0x3
 1110 00fa 0E       		.uleb128 0xe
 1111 00fb 3A       		.uleb128 0x3a
 1112 00fc 0B       		.uleb128 0xb
 1113 00fd 3B       		.uleb128 0x3b
 1114 00fe 05       		.uleb128 0x5
 1115 00ff 49       		.uleb128 0x49
 1116 0100 13       		.uleb128 0x13
 1117 0101 3F       		.uleb128 0x3f
 1118 0102 0C       		.uleb128 0xc
 1119 0103 3C       		.uleb128 0x3c
 1120 0104 0C       		.uleb128 0xc
 1121 0105 00       		.byte	0
 1122 0106 00       		.byte	0
 1123 0107 00       		.byte	0
 1124              		.section	.debug_loc,"",%progbits
 1125              	.Ldebug_loc0:
 1126              	.LLST0:
 1127 0000 00000000 		.4byte	.LFB119
 1128 0004 02000000 		.4byte	.LCFI0
 1129 0008 0200     		.2byte	0x2
 1130 000a 7D       		.byte	0x7d
 1131 000b 00       		.sleb128 0
 1132 000c 02000000 		.4byte	.LCFI0
 1133 0010 D2000000 		.4byte	.LFE119
 1134 0014 0200     		.2byte	0x2
 1135 0016 7D       		.byte	0x7d
 1136 0017 0C       		.sleb128 12
ARM GAS  C:\Users\TAISIK~1\AppData\Local\Temp\ccL5sOmJ.s 			page 21


 1137 0018 00000000 		.4byte	0
 1138 001c 00000000 		.4byte	0
 1139              		.section	.debug_aranges,"",%progbits
 1140 0000 24000000 		.4byte	0x24
 1141 0004 0200     		.2byte	0x2
 1142 0006 00000000 		.4byte	.Ldebug_info0
 1143 000a 04       		.byte	0x4
 1144 000b 00       		.byte	0
 1145 000c 0000     		.2byte	0
 1146 000e 0000     		.2byte	0
 1147 0010 00000000 		.4byte	.LFB119
 1148 0014 D2000000 		.4byte	.LFE119-.LFB119
 1149 0018 00000000 		.4byte	.LFB120
 1150 001c BA000000 		.4byte	.LFE120-.LFB120
 1151 0020 00000000 		.4byte	0
 1152 0024 00000000 		.4byte	0
 1153              		.section	.debug_ranges,"",%progbits
 1154              	.Ldebug_ranges0:
 1155 0000 60000000 		.4byte	.LBB4
 1156 0004 64000000 		.4byte	.LBE4
 1157 0008 68000000 		.4byte	.LBB8
 1158 000c 6C000000 		.4byte	.LBE8
 1159 0010 6E000000 		.4byte	.LBB9
 1160 0014 AC000000 		.4byte	.LBE9
 1161 0018 00000000 		.4byte	0
 1162 001c 00000000 		.4byte	0
 1163 0020 00000000 		.4byte	.LFB119
 1164 0024 D2000000 		.4byte	.LFE119
 1165 0028 00000000 		.4byte	.LFB120
 1166 002c BA000000 		.4byte	.LFE120
 1167 0030 00000000 		.4byte	0
 1168 0034 00000000 		.4byte	0
 1169              		.section	.debug_line,"",%progbits
 1170              	.Ldebug_line0:
 1171 0000 D6010000 		.section	.debug_str,"MS",%progbits,1
 1171      02003801 
 1171      00000201 
 1171      FB0E0D00 
 1171      01010101 
 1172              	.LASF39:
 1173 0000 53595343 		.ascii	"SYSCFG_TypeDef\000"
 1173      46475F54 
 1173      79706544 
 1173      656600
 1174              	.LASF43:
 1175 000f 41504231 		.ascii	"APB1RSTR\000"
 1175      52535452 
 1175      00
 1176              	.LASF16:
 1177 0018 44454D43 		.ascii	"DEMCR\000"
 1177      5200
 1178              	.LASF3:
 1179 001e 73686F72 		.ascii	"short int\000"
 1179      7420696E 
 1179      7400
 1180              	.LASF57:
 1181 0028 73746D33 		.ascii	"stm32_clock_init\000"
ARM GAS  C:\Users\TAISIK~1\AppData\Local\Temp\ccL5sOmJ.s 			page 22


 1181      325F636C 
 1181      6F636B5F 
 1181      696E6974 
 1181      00
 1182              	.LASF47:
 1183 0039 42444352 		.ascii	"BDCR\000"
 1183      00
 1184              	.LASF25:
 1185 003e 50435352 		.ascii	"PCSR\000"
 1185      00
 1186              	.LASF24:
 1187 0043 464F4C44 		.ascii	"FOLDCNT\000"
 1187      434E5400 
 1188              	.LASF40:
 1189 004b 5057525F 		.ascii	"PWR_TypeDef\000"
 1189      54797065 
 1189      44656600 
 1190              	.LASF53:
 1191 0057 2E2E2F2E 		.ascii	"../../os/hal/platforms/STM32F30x/hal_lld.c\000"
 1191      2E2F6F73 
 1191      2F68616C 
 1191      2F706C61 
 1191      74666F72 
 1192              	.LASF36:
 1193 0082 43464752 		.ascii	"CFGR1\000"
 1193      3100
 1194              	.LASF18:
 1195 0088 4354524C 		.ascii	"CTRL\000"
 1195      00
 1196              	.LASF31:
 1197 008d 4B455952 		.ascii	"KEYR\000"
 1197      00
 1198              	.LASF41:
 1199 0092 43464752 		.ascii	"CFGR\000"
 1199      00
 1200              	.LASF37:
 1201 0097 45585449 		.ascii	"EXTICR\000"
 1201      435200
 1202              	.LASF46:
 1203 009e 41504231 		.ascii	"APB1ENR\000"
 1203      454E5200 
 1204              	.LASF14:
 1205 00a6 44435253 		.ascii	"DCRSR\000"
 1205      5200
 1206              	.LASF55:
 1207 00ac 68616C5F 		.ascii	"hal_lld_backup_domain_init\000"
 1207      6C6C645F 
 1207      6261636B 
 1207      75705F64 
 1207      6F6D6169 
 1208              	.LASF15:
 1209 00c7 44435244 		.ascii	"DCRDR\000"
 1209      5200
 1210              	.LASF32:
 1211 00cd 4F50544B 		.ascii	"OPTKEYR\000"
 1211      45595200 
 1212              	.LASF48:
ARM GAS  C:\Users\TAISIK~1\AppData\Local\Temp\ccL5sOmJ.s 			page 23


 1213 00d5 41484252 		.ascii	"AHBRSTR\000"
 1213      53545200 
 1214              	.LASF10:
 1215 00dd 6C6F6E67 		.ascii	"long long int\000"
 1215      206C6F6E 
 1215      6720696E 
 1215      7400
 1216              	.LASF19:
 1217 00eb 43594343 		.ascii	"CYCCNT\000"
 1217      4E5400
 1218              	.LASF29:
 1219 00f2 43414C49 		.ascii	"CALIB\000"
 1219      4200
 1220              	.LASF13:
 1221 00f8 44484353 		.ascii	"DHCSR\000"
 1221      5200
 1222              	.LASF7:
 1223 00fe 6C6F6E67 		.ascii	"long int\000"
 1223      20696E74 
 1223      00
 1224              	.LASF38:
 1225 0107 43464752 		.ascii	"CFGR2\000"
 1225      3200
 1226              	.LASF50:
 1227 010d 5243435F 		.ascii	"RCC_TypeDef\000"
 1227      54797065 
 1227      44656600 
 1228              	.LASF44:
 1229 0119 41484245 		.ascii	"AHBENR\000"
 1229      4E5200
 1230              	.LASF42:
 1231 0120 41504232 		.ascii	"APB2RSTR\000"
 1231      52535452 
 1231      00
 1232              	.LASF34:
 1233 0129 57525052 		.ascii	"WRPR\000"
 1233      00
 1234              	.LASF21:
 1235 012e 45584343 		.ascii	"EXCCNT\000"
 1235      4E5400
 1236              	.LASF2:
 1237 0135 756E7369 		.ascii	"unsigned char\000"
 1237      676E6564 
 1237      20636861 
 1237      7200
 1238              	.LASF45:
 1239 0143 41504232 		.ascii	"APB2ENR\000"
 1239      454E5200 
 1240              	.LASF52:
 1241 014b 474E5520 		.ascii	"GNU C 4.6.2 20121016 (release) [ARM/embedded-4_6-br"
 1241      4320342E 
 1241      362E3220 
 1241      32303132 
 1241      31303136 
 1242 017e 616E6368 		.ascii	"anch revision 192487]\000"
 1242      20726576 
 1242      6973696F 
ARM GAS  C:\Users\TAISIK~1\AppData\Local\Temp\ccL5sOmJ.s 			page 24


 1242      6E203139 
 1242      32343837 
 1243              	.LASF1:
 1244 0194 7369676E 		.ascii	"signed char\000"
 1244      65642063 
 1244      68617200 
 1245              	.LASF11:
 1246 01a0 6C6F6E67 		.ascii	"long long unsigned int\000"
 1246      206C6F6E 
 1246      6720756E 
 1246      7369676E 
 1246      65642069 
 1247              	.LASF8:
 1248 01b7 75696E74 		.ascii	"uint32_t\000"
 1248      33325F74 
 1248      00
 1249              	.LASF0:
 1250 01c0 756E7369 		.ascii	"unsigned int\000"
 1250      676E6564 
 1250      20696E74 
 1250      00
 1251              	.LASF49:
 1252 01cd 43464752 		.ascii	"CFGR3\000"
 1252      3300
 1253              	.LASF56:
 1254 01d3 68616C5F 		.ascii	"hal_lld_init\000"
 1254      6C6C645F 
 1254      696E6974 
 1254      00
 1255              	.LASF30:
 1256 01e0 53797354 		.ascii	"SysTick_Type\000"
 1256      69636B5F 
 1256      54797065 
 1256      00
 1257              	.LASF4:
 1258 01ed 73686F72 		.ascii	"short unsigned int\000"
 1258      7420756E 
 1258      7369676E 
 1258      65642069 
 1258      6E7400
 1259              	.LASF27:
 1260 0200 63686172 		.ascii	"char\000"
 1260      00
 1261              	.LASF5:
 1262 0205 75696E74 		.ascii	"uint16_t\000"
 1262      31365F74 
 1262      00
 1263              	.LASF17:
 1264 020e 434D785F 		.ascii	"CMx_SCS\000"
 1264      53435300 
 1265              	.LASF6:
 1266 0216 696E7433 		.ascii	"int32_t\000"
 1266      325F7400 
 1267              	.LASF12:
 1268 021e 5F426F6F 		.ascii	"_Bool\000"
 1268      6C00
 1269              	.LASF26:
ARM GAS  C:\Users\TAISIK~1\AppData\Local\Temp\ccL5sOmJ.s 			page 25


 1270 0224 434D785F 		.ascii	"CMx_DWT\000"
 1270      44575400 
 1271              	.LASF20:
 1272 022c 43504943 		.ascii	"CPICNT\000"
 1272      4E5400
 1273              	.LASF9:
 1274 0233 6C6F6E67 		.ascii	"long unsigned int\000"
 1274      20756E73 
 1274      69676E65 
 1274      6420696E 
 1274      7400
 1275              	.LASF22:
 1276 0245 534C4545 		.ascii	"SLEEPCNT\000"
 1276      50434E54 
 1276      00
 1277              	.LASF23:
 1278 024e 4C535543 		.ascii	"LSUCNT\000"
 1278      4E5400
 1279              	.LASF28:
 1280 0255 4C4F4144 		.ascii	"LOAD\000"
 1280      00
 1281              	.LASF54:
 1282 025a 433A5C43 		.ascii	"C:\\ChibiStudio\\chibios\\demos\\ARMCM4-STM32F303-D"
 1282      68696269 
 1282      53747564 
 1282      696F5C63 
 1282      68696269 
 1283 0289 4953434F 		.ascii	"ISCOVERY\000"
 1283      56455259 
 1283      00
 1284              	.LASF33:
 1285 0292 52455345 		.ascii	"RESERVED\000"
 1285      52564544 
 1285      00
 1286              	.LASF35:
 1287 029b 464C4153 		.ascii	"FLASH_TypeDef\000"
 1287      485F5479 
 1287      70654465 
 1287      6600
 1288              	.LASF51:
 1289 02a9 49544D5F 		.ascii	"ITM_RxBuffer\000"
 1289      52784275 
 1289      66666572 
 1289      00
 1290              		.ident	"GCC: (GNU Tools for ARM Embedded Processors) 4.6.2 20121016 (release) [ARM/embedded-4_6-br
ARM GAS  C:\Users\TAISIK~1\AppData\Local\Temp\ccL5sOmJ.s 			page 26


DEFINED SYMBOLS
                            *ABS*:00000000 hal_lld.c
C:\Users\TAISIK~1\AppData\Local\Temp\ccL5sOmJ.s:19     .text.hal_lld_init:00000000 $t
C:\Users\TAISIK~1\AppData\Local\Temp\ccL5sOmJ.s:25     .text.hal_lld_init:00000000 hal_lld_init
C:\Users\TAISIK~1\AppData\Local\Temp\ccL5sOmJ.s:162    .text.stm32_clock_init:00000000 $t
C:\Users\TAISIK~1\AppData\Local\Temp\ccL5sOmJ.s:168    .text.stm32_clock_init:00000000 stm32_clock_init
                     .debug_frame:00000010 $d

NO UNDEFINED SYMBOLS
