ARM GAS  C:\Users\TAISIK~1\AppData\Local\Temp\cc9d2KbA.s 			page 1


   1              		.syntax unified
   2              		.cpu cortex-m4
   3              		.fpu softvfp
   4              		.eabi_attribute 20, 1
   5              		.eabi_attribute 21, 1
   6              		.eabi_attribute 23, 3
   7              		.eabi_attribute 24, 1
   8              		.eabi_attribute 25, 1
   9              		.eabi_attribute 26, 1
  10              		.eabi_attribute 30, 2
  11              		.eabi_attribute 34, 1
  12              		.eabi_attribute 18, 4
  13              		.thumb
  14              		.file	"pal_lld.c"
  15              		.text
  16              	.Ltext0:
  17              		.cfi_sections	.debug_frame
  18              		.section	.text._pal_lld_init,"ax",%progbits
  19              		.align	2
  20              		.p2align 4,,15
  21              		.global	_pal_lld_init
  22              		.thumb
  23              		.thumb_func
  24              		.type	_pal_lld_init, %function
  25              	_pal_lld_init:
  26              	.LFB119:
  27              		.file 1 "../../os/hal/platforms/STM32/GPIOv2/pal_lld.c"
  28              		.loc 1 109 0
  29              		.cfi_startproc
  30              		@ args = 0, pretend = 0, frame = 0
  31              		@ frame_needed = 0, uses_anonymous_args = 0
  32              		@ link register save eliminated.
  33              	.LVL0:
  34              		.loc 1 120 0
  35 0000 4FF48053 		mov	r3, #4096
  36 0004 C4F20203 		movt	r3, 16386
  37              	.LBB14:
  38              	.LBB15:
  39              		.loc 1 84 0
  40 0008 4FF0904C 		mov	ip, #1207959552
  41              	.LBE15:
  42              	.LBE14:
  43              		.loc 1 120 0
  44 000c 5969     		ldr	r1, [r3, #20]
  45 000e 41F4FC02 		orr	r2, r1, #8257536
  46 0012 5A61     		str	r2, [r3, #20]
  47              	.LVL1:
  48              	.LBB18:
  49              	.LBB16:
  50              		.loc 1 84 0
  51 0014 4168     		ldr	r1, [r0, #4]
  52 0016 CCF80410 		str	r1, [ip, #4]
  53              		.loc 1 85 0
  54 001a 8268     		ldr	r2, [r0, #8]
  55 001c CCF80820 		str	r2, [ip, #8]
  56              		.loc 1 86 0
  57 0020 C168     		ldr	r1, [r0, #12]
ARM GAS  C:\Users\TAISIK~1\AppData\Local\Temp\cc9d2KbA.s 			page 2


  58 0022 CCF80C10 		str	r1, [ip, #12]
  59              		.loc 1 87 0
  60 0026 0269     		ldr	r2, [r0, #16]
  61 0028 CCF81420 		str	r2, [ip, #20]
  62              		.loc 1 88 0
  63 002c 4169     		ldr	r1, [r0, #20]
  64 002e CCF82010 		str	r1, [ip, #32]
  65              		.loc 1 89 0
  66 0032 8269     		ldr	r2, [r0, #24]
  67 0034 CCF82420 		str	r2, [ip, #36]
  68              		.loc 1 90 0
  69 0038 0168     		ldr	r1, [r0, #0]
  70              	.LBE16:
  71              	.LBE18:
  72              	.LBB19:
  73              	.LBB20:
  74              		.loc 1 84 0
  75 003a 4FF48063 		mov	r3, #1024
  76              	.LBE20:
  77              	.LBE19:
  78              	.LBB23:
  79              	.LBB17:
  80              		.loc 1 90 0
  81 003e CCF80010 		str	r1, [ip, #0]
  82              	.LVL2:
  83              	.LBE17:
  84              	.LBE23:
  85              	.LBB24:
  86              	.LBB21:
  87              		.loc 1 84 0
  88 0042 026A     		ldr	r2, [r0, #32]
  89 0044 C4F60003 		movt	r3, 18432
  90              	.LBE21:
  91              	.LBE24:
  92              	.LBB25:
  93              	.LBB26:
  94 0048 4FF4006C 		mov	ip, #2048
  95              	.LBE26:
  96              	.LBE25:
  97              	.LBB29:
  98              	.LBB22:
  99 004c 5A60     		str	r2, [r3, #4]
 100              		.loc 1 85 0
 101 004e 416A     		ldr	r1, [r0, #36]
 102 0050 9960     		str	r1, [r3, #8]
 103              		.loc 1 86 0
 104 0052 826A     		ldr	r2, [r0, #40]
 105 0054 DA60     		str	r2, [r3, #12]
 106              		.loc 1 87 0
 107 0056 C16A     		ldr	r1, [r0, #44]
 108 0058 5961     		str	r1, [r3, #20]
 109              		.loc 1 88 0
 110 005a 026B     		ldr	r2, [r0, #48]
 111 005c 1A62     		str	r2, [r3, #32]
 112              		.loc 1 89 0
 113 005e 416B     		ldr	r1, [r0, #52]
 114 0060 5962     		str	r1, [r3, #36]
ARM GAS  C:\Users\TAISIK~1\AppData\Local\Temp\cc9d2KbA.s 			page 3


 115              		.loc 1 90 0
 116 0062 C269     		ldr	r2, [r0, #28]
 117 0064 1A60     		str	r2, [r3, #0]
 118              	.LVL3:
 119              	.LBE22:
 120              	.LBE29:
 121              	.LBB30:
 122              	.LBB27:
 123              		.loc 1 84 0
 124 0066 C4F6000C 		movt	ip, 18432
 125 006a C16B     		ldr	r1, [r0, #60]
 126 006c CCF80410 		str	r1, [ip, #4]
 127              		.loc 1 85 0
 128 0070 026C     		ldr	r2, [r0, #64]
 129 0072 CCF80820 		str	r2, [ip, #8]
 130              		.loc 1 86 0
 131 0076 436C     		ldr	r3, [r0, #68]
 132 0078 CCF80C30 		str	r3, [ip, #12]
 133              		.loc 1 87 0
 134 007c 816C     		ldr	r1, [r0, #72]
 135 007e CCF81410 		str	r1, [ip, #20]
 136              		.loc 1 88 0
 137 0082 C26C     		ldr	r2, [r0, #76]
 138 0084 CCF82020 		str	r2, [ip, #32]
 139              		.loc 1 89 0
 140 0088 036D     		ldr	r3, [r0, #80]
 141 008a CCF82430 		str	r3, [ip, #36]
 142              		.loc 1 90 0
 143 008e 816B     		ldr	r1, [r0, #56]
 144              	.LBE27:
 145              	.LBE30:
 146              	.LBB31:
 147              	.LBB32:
 148              		.loc 1 84 0
 149 0090 4FF44063 		mov	r3, #3072
 150              	.LBE32:
 151              	.LBE31:
 152              	.LBB35:
 153              	.LBB28:
 154              		.loc 1 90 0
 155 0094 CCF80010 		str	r1, [ip, #0]
 156              	.LVL4:
 157              	.LBE28:
 158              	.LBE35:
 159              	.LBB36:
 160              	.LBB33:
 161              		.loc 1 84 0
 162 0098 826D     		ldr	r2, [r0, #88]
 163 009a C4F60003 		movt	r3, 18432
 164              	.LBE33:
 165              	.LBE36:
 166              	.LBB37:
 167              	.LBB38:
 168 009e 4FF4805C 		mov	ip, #4096
 169              	.LBE38:
 170              	.LBE37:
 171              	.LBB41:
ARM GAS  C:\Users\TAISIK~1\AppData\Local\Temp\cc9d2KbA.s 			page 4


 172              	.LBB34:
 173 00a2 5A60     		str	r2, [r3, #4]
 174              		.loc 1 85 0
 175 00a4 C16D     		ldr	r1, [r0, #92]
 176 00a6 9960     		str	r1, [r3, #8]
 177              		.loc 1 86 0
 178 00a8 026E     		ldr	r2, [r0, #96]
 179 00aa DA60     		str	r2, [r3, #12]
 180              		.loc 1 87 0
 181 00ac 416E     		ldr	r1, [r0, #100]
 182 00ae 5961     		str	r1, [r3, #20]
 183              		.loc 1 88 0
 184 00b0 826E     		ldr	r2, [r0, #104]
 185 00b2 1A62     		str	r2, [r3, #32]
 186              		.loc 1 89 0
 187 00b4 C16E     		ldr	r1, [r0, #108]
 188 00b6 5962     		str	r1, [r3, #36]
 189              		.loc 1 90 0
 190 00b8 426D     		ldr	r2, [r0, #84]
 191 00ba 1A60     		str	r2, [r3, #0]
 192              	.LVL5:
 193              	.LBE34:
 194              	.LBE41:
 195              	.LBB42:
 196              	.LBB39:
 197              		.loc 1 84 0
 198 00bc C4F6000C 		movt	ip, 18432
 199 00c0 416F     		ldr	r1, [r0, #116]
 200 00c2 CCF80410 		str	r1, [ip, #4]
 201              		.loc 1 85 0
 202 00c6 826F     		ldr	r2, [r0, #120]
 203 00c8 CCF80820 		str	r2, [ip, #8]
 204              		.loc 1 86 0
 205 00cc C36F     		ldr	r3, [r0, #124]
 206 00ce CCF80C30 		str	r3, [ip, #12]
 207              		.loc 1 87 0
 208 00d2 D0F88010 		ldr	r1, [r0, #128]
 209 00d6 CCF81410 		str	r1, [ip, #20]
 210              		.loc 1 88 0
 211 00da D0F88420 		ldr	r2, [r0, #132]
 212 00de CCF82020 		str	r2, [ip, #32]
 213              		.loc 1 89 0
 214 00e2 D0F88830 		ldr	r3, [r0, #136]
 215 00e6 CCF82430 		str	r3, [ip, #36]
 216              		.loc 1 90 0
 217 00ea 016F     		ldr	r1, [r0, #112]
 218              	.LBE39:
 219              	.LBE42:
 220              	.LBB43:
 221              	.LBB44:
 222              		.loc 1 84 0
 223 00ec 4FF4A053 		mov	r3, #5120
 224              	.LBE44:
 225              	.LBE43:
 226              	.LBB46:
 227              	.LBB40:
 228              		.loc 1 90 0
ARM GAS  C:\Users\TAISIK~1\AppData\Local\Temp\cc9d2KbA.s 			page 5


 229 00f0 CCF80010 		str	r1, [ip, #0]
 230              	.LVL6:
 231              	.LBE40:
 232              	.LBE46:
 233              	.LBB47:
 234              	.LBB45:
 235              		.loc 1 84 0
 236 00f4 D0F89020 		ldr	r2, [r0, #144]
 237 00f8 C4F60003 		movt	r3, 18432
 238 00fc 5A60     		str	r2, [r3, #4]
 239              		.loc 1 85 0
 240 00fe D0F89410 		ldr	r1, [r0, #148]
 241 0102 9960     		str	r1, [r3, #8]
 242              		.loc 1 86 0
 243 0104 D0F89820 		ldr	r2, [r0, #152]
 244 0108 DA60     		str	r2, [r3, #12]
 245              		.loc 1 87 0
 246 010a D0F89C10 		ldr	r1, [r0, #156]
 247 010e 5961     		str	r1, [r3, #20]
 248              		.loc 1 88 0
 249 0110 D0F8A020 		ldr	r2, [r0, #160]
 250 0114 1A62     		str	r2, [r3, #32]
 251              		.loc 1 89 0
 252 0116 D0F8A410 		ldr	r1, [r0, #164]
 253 011a 5962     		str	r1, [r3, #36]
 254              		.loc 1 90 0
 255 011c D0F88C20 		ldr	r2, [r0, #140]
 256 0120 1A60     		str	r2, [r3, #0]
 257              	.LBE45:
 258              	.LBE47:
 259              		.loc 1 148 0
 260 0122 7047     		bx	lr
 261              		.cfi_endproc
 262              	.LFE119:
 263              		.size	_pal_lld_init, .-_pal_lld_init
 264 0124 AFF30080 		.section	.text._pal_lld_setgroupmode,"ax",%progbits
 264      AFF30080 
 264      AFF30080 
 265              		.align	2
 266              		.p2align 4,,15
 267              		.global	_pal_lld_setgroupmode
 268              		.thumb
 269              		.thumb_func
 270              		.type	_pal_lld_setgroupmode, %function
 271              	_pal_lld_setgroupmode:
 272              	.LFB120:
 273              		.loc 1 166 0
 274              		.cfi_startproc
 275              		@ args = 0, pretend = 0, frame = 0
 276              		@ frame_needed = 0, uses_anonymous_args = 0
 277              		@ link register save eliminated.
 278              	.LVL7:
 279 0000 2DE9F00F 		push	{r4, r5, r6, r7, r8, r9, sl, fp}
 280              	.LCFI0:
 281              		.cfi_def_cfa_offset 32
 282              		.cfi_offset 11, -4
 283              		.cfi_offset 10, -8
ARM GAS  C:\Users\TAISIK~1\AppData\Local\Temp\cc9d2KbA.s 			page 6


 284              		.cfi_offset 9, -12
 285              		.cfi_offset 8, -16
 286              		.cfi_offset 7, -20
 287              		.cfi_offset 6, -24
 288              		.cfi_offset 5, -28
 289              		.cfi_offset 4, -32
 290              		.loc 1 168 0
 291 0004 02F00307 		and	r7, r2, #3
 292              	.LVL8:
 293              		.loc 1 169 0
 294 0008 C2F38006 		ubfx	r6, r2, #2, #1
 295              	.LVL9:
 296              		.loc 1 170 0
 297 000c C2F3C105 		ubfx	r5, r2, #3, #2
 298              	.LVL10:
 299              		.loc 1 171 0
 300 0010 C2F34114 		ubfx	r4, r2, #5, #2
 301              	.LVL11:
 302              		.loc 1 172 0
 303 0014 C2F3C312 		ubfx	r2, r2, #7, #4
 304              	.LVL12:
 305              		.loc 1 173 0
 306 0018 0023     		movs	r3, #0
 307              	.LBB48:
 308              		.loc 1 179 0
 309 001a 4FF00F09 		mov	r9, #15
 310              		.loc 1 184 0
 311 001e 4FF0010B 		mov	fp, #1
 312              		.loc 1 186 0
 313 0022 9246     		mov	sl, r2
 314 0024 32E0     		b	.L7
 315              	.LVL13:
 316              	.L9:
 317              		.loc 1 181 0
 318 0026 D0F82080 		ldr	r8, [r0, #32]
 319 002a 28EA0C08 		bic	r8, r8, ip
 320 002e 48EA0202 		orr	r2, r8, r2
 321              	.LVL14:
 322 0032 0262     		str	r2, [r0, #32]
 323              	.LVL15:
 324              	.L5:
 325              		.loc 1 185 0
 326 0034 4268     		ldr	r2, [r0, #4]
 327              		.loc 1 184 0
 328 0036 0BFA03FC 		lsl	ip, fp, r3
 329              		.loc 1 185 0
 330 003a 22EA0C08 		bic	r8, r2, ip
 331 003e 48EA0602 		orr	r2, r8, r6
 332 0042 4260     		str	r2, [r0, #4]
 333              	.LVL16:
 334              		.loc 1 186 0
 335 0044 4FF00308 		mov	r8, #3
 336              		.loc 1 164 0
 337 0048 5A00     		lsls	r2, r3, #1
 338              		.loc 1 187 0
 339 004a D0F808C0 		ldr	ip, [r0, #8]
 340              		.loc 1 186 0
ARM GAS  C:\Users\TAISIK~1\AppData\Local\Temp\cc9d2KbA.s 			page 7


 341 004e 08FA02F2 		lsl	r2, r8, r2
 342              		.loc 1 187 0
 343 0052 D243     		mvns	r2, r2
 344 0054 02EA0C0C 		and	ip, r2, ip
 345 0058 4CEA050C 		orr	ip, ip, r5
 346 005c C0F808C0 		str	ip, [r0, #8]
 347              		.loc 1 188 0
 348 0060 D0F80CC0 		ldr	ip, [r0, #12]
 349 0064 02EA0C0C 		and	ip, r2, ip
 350 0068 4CEA040C 		orr	ip, ip, r4
 351 006c C0F80CC0 		str	ip, [r0, #12]
 352              		.loc 1 189 0
 353 0070 D0F800C0 		ldr	ip, [r0, #0]
 354 0074 02EA0C0C 		and	ip, r2, ip
 355 0078 4CEA0702 		orr	r2, ip, r7
 356 007c 0260     		str	r2, [r0, #0]
 357              	.LVL17:
 358              	.L3:
 359              	.LBE48:
 360              		.loc 1 192 0
 361 007e 4908     		lsrs	r1, r1, #1
 362              	.LVL18:
 363 0080 19D0     		beq	.L2
 364              		.loc 1 194 0
 365 0082 7600     		lsls	r6, r6, #1
 366              	.LVL19:
 367              		.loc 1 195 0
 368 0084 AD00     		lsls	r5, r5, #2
 369              	.LVL20:
 370              		.loc 1 196 0
 371 0086 A400     		lsls	r4, r4, #2
 372              	.LVL21:
 373              		.loc 1 197 0
 374 0088 BF00     		lsls	r7, r7, #2
 375              	.LVL22:
 376              		.loc 1 198 0
 377 008a 0133     		adds	r3, r3, #1
 378              	.LVL23:
 379              	.L7:
 380              	.LBB49:
 381              		.loc 1 178 0
 382 008c 03F00702 		and	r2, r3, #7
 383 0090 4FEA820C 		lsl	ip, r2, #2
 384              	.LBE49:
 385              		.loc 1 175 0
 386 0094 11F0010F 		tst	r1, #1
 387              	.LBB50:
 388              		.loc 1 178 0
 389 0098 0AFA0CF2 		lsl	r2, sl, ip
 390              		.loc 1 179 0
 391 009c 09FA0CFC 		lsl	ip, r9, ip
 392              	.LBE50:
 393              		.loc 1 175 0
 394 00a0 EDD0     		beq	.L3
 395              	.LVL24:
 396              	.LBB51:
 397              		.loc 1 180 0
ARM GAS  C:\Users\TAISIK~1\AppData\Local\Temp\cc9d2KbA.s 			page 8


 398 00a2 072B     		cmp	r3, #7
 399 00a4 BFD9     		bls	.L9
 400              		.loc 1 183 0
 401 00a6 D0F82480 		ldr	r8, [r0, #36]
 402 00aa 28EA0C0C 		bic	ip, r8, ip
 403              	.LVL25:
 404 00ae 4CEA0202 		orr	r2, ip, r2
 405              	.LVL26:
 406 00b2 4262     		str	r2, [r0, #36]
 407 00b4 BEE7     		b	.L5
 408              	.L2:
 409              	.LBE51:
 410              		.loc 1 200 0
 411 00b6 BDE8F00F 		pop	{r4, r5, r6, r7, r8, r9, sl, fp}
 412 00ba 7047     		bx	lr
 413              		.cfi_endproc
 414              	.LFE120:
 415              		.size	_pal_lld_setgroupmode, .-_pal_lld_setgroupmode
 416 00bc AFF30080 		.text
 417              	.Letext0:
 418              		.file 2 "c:\\chibistudio\\tools\\gnu tools arm embedded\\4.6 2012q4\\bin\\../lib/gcc/arm-none-eabi
 419              		.file 3 "../../os/hal/platforms/STM32F30x/stm32f30x.h"
 420              		.file 4 "../../os/hal/platforms/STM32/GPIOv2/pal_lld.h"
 421              		.file 5 "../../os/ports/common/ARMCMx/CMSIS/include/core_cm4.h"