ARM GAS  C:\Users\TAISIK~1\AppData\Local\Temp\cchblRbf.s 			page 1


   1              		.syntax unified
   2              		.cpu cortex-m4
   3              		.fpu softvfp
   4              		.eabi_attribute 20, 1
   5              		.eabi_attribute 21, 1
   6              		.eabi_attribute 23, 3
   7              		.eabi_attribute 24, 1
   8              		.eabi_attribute 25, 1
   9              		.eabi_attribute 26, 1
  10              		.eabi_attribute 30, 2
  11              		.eabi_attribute 34, 1
  12              		.eabi_attribute 18, 4
  13              		.thumb
  14              		.file	"serial_lld.c"
  15              		.text
  16              	.Ltext0:
  17              		.cfi_sections	.debug_frame
  18              		.section	.text.notify1,"ax",%progbits
  19              		.align	2
  20              		.p2align 4,,15
  21              		.thumb
  22              		.thumb_func
  23              		.type	notify1, %function
  24              	notify1:
  25              	.LFB122:
  26              		.file 1 "../../os/hal/platforms/STM32/USARTv2/serial_lld.c"
  27              		.loc 1 198 0
  28              		.cfi_startproc
  29              		@ args = 0, pretend = 0, frame = 0
  30              		@ frame_needed = 0, uses_anonymous_args = 0
  31              		@ link register save eliminated.
  32              	.LVL0:
  33              		.loc 1 201 0
  34 0000 4FF46053 		mov	r3, #14336
  35 0004 C4F20103 		movt	r3, 16385
  36 0008 1868     		ldr	r0, [r3, #0]
  37              	.LVL1:
  38 000a 40F08002 		orr	r2, r0, #128
  39 000e 1A60     		str	r2, [r3, #0]
  40              		.loc 1 202 0
  41 0010 7047     		bx	lr
  42              		.cfi_endproc
  43              	.LFE122:
  44              		.size	notify1, .-notify1
  45 0012 00BFAFF3 		.section	.text.VectorD4,"ax",%progbits
  45      0080AFF3 
  45      0080AFF3 
  45      0080
  46              		.align	2
  47              		.p2align 4,,15
  48              		.global	VectorD4
  49              		.thumb
  50              		.thumb_func
  51              		.type	VectorD4, %function
  52              	VectorD4:
  53              	.LFB123:
  54              		.loc 1 258 0
ARM GAS  C:\Users\TAISIK~1\AppData\Local\Temp\cchblRbf.s 			page 2


  55              		.cfi_startproc
  56              		@ args = 0, pretend = 0, frame = 0
  57              		@ frame_needed = 0, uses_anonymous_args = 0
  58              	.LVL2:
  59 0000 70B5     		push	{r4, r5, r6, lr}
  60              	.LCFI0:
  61              		.cfi_def_cfa_offset 16
  62              		.cfi_offset 14, -4
  63              		.cfi_offset 6, -8
  64              		.cfi_offset 5, -12
  65              		.cfi_offset 4, -16
  66              	.LBB47:
  67              	.LBB48:
  68              		.loc 1 152 0
  69 0002 354B     		ldr	r3, .L20
  70 0004 5D6F     		ldr	r5, [r3, #116]
  71              	.LVL3:
  72              		.loc 1 153 0
  73 0006 2E68     		ldr	r6, [r5, #0]
  74              	.LVL4:
  75              		.loc 1 157 0
  76 0008 EC69     		ldr	r4, [r5, #28]
  77              	.LVL5:
  78              		.loc 1 161 0
  79 000a 2207     		lsls	r2, r4, #28
  80              		.loc 1 158 0
  81 000c 2C62     		str	r4, [r5, #32]
  82              		.loc 1 161 0
  83 000e 18D0     		beq	.L3
  84              	.LVL6:
  85              	.LBB49:
  86              	.LBB50:
  87              		.loc 1 133 0
  88 0010 14F00801 		ands	r1, r4, #8
  89              		.loc 1 134 0
  90 0014 18BF     		it	ne
  91 0016 8021     		movne	r1, #128
  92              	.LVL7:
  93              		.loc 1 135 0
  94 0018 E307     		lsls	r3, r4, #31
  95              		.loc 1 136 0
  96 001a 48BF     		it	mi
  97 001c 41F02001 		orrmi	r1, r1, #32
  98              	.LVL8:
  99              		.loc 1 137 0
 100 0020 A007     		lsls	r0, r4, #30
 101              		.loc 1 138 0
 102 0022 48BF     		it	mi
 103 0024 41F04001 		orrmi	r1, r1, #64
 104              	.LVL9:
 105              		.loc 1 139 0
 106 0028 6207     		lsls	r2, r4, #29
 107              		.loc 1 140 0
 108 002a 48BF     		it	mi
 109 002c 41F48071 		orrmi	r1, r1, #256
 110              	.LVL10:
 111              	.LBB51:
ARM GAS  C:\Users\TAISIK~1\AppData\Local\Temp\cchblRbf.s 			page 3


 112              		.loc 1 141 0
 113 0030 2023     		movs	r3, #32
 114              	.LVL11:
 115              	@ 141 "../../os/hal/platforms/STM32/USARTv2/serial_lld.c" 1
 116 0032 83F31188 		msr     BASEPRI, r3
 117              	@ 0 "" 2
 118              	.LVL12:
 119              		.thumb
 120              	.LBE51:
 121              		.loc 1 142 0
 122 0036 2948     		ldr	r0, .L20+4
 123 0038 FFF7FEFF 		bl	chEvtBroadcastFlagsI
 124              	.LVL13:
 125              	.LBB52:
 126              		.loc 1 143 0
 127 003c 0023     		movs	r3, #0
 128              	.LVL14:
 129              	@ 143 "../../os/hal/platforms/STM32/USARTv2/serial_lld.c" 1
 130 003e 83F31188 		msr     BASEPRI, r3
 131              	@ 0 "" 2
 132              	.LVL15:
 133              		.thumb
 134              	.L3:
 135              	.LBE52:
 136              	.LBE50:
 137              	.LBE49:
 138              		.loc 1 164 0
 139 0042 E305     		lsls	r3, r4, #23
 140              	.LVL16:
 141 0044 24D4     		bmi	.L16
 142              	.LVL17:
 143              	.L8:
 144              		.loc 1 170 0
 145 0046 A006     		lsls	r0, r4, #26
 146 0048 16D4     		bmi	.L17
 147              	.LVL18:
 148              	.L9:
 149              		.loc 1 176 0
 150 004a 3106     		lsls	r1, r6, #24
 151 004c 01D5     		bpl	.L10
 152 004e 2206     		lsls	r2, r4, #24
 153 0050 2AD4     		bmi	.L18
 154              	.LVL19:
 155              	.L10:
 156              		.loc 1 189 0
 157 0052 6306     		lsls	r3, r4, #25
 158              	.LVL20:
 159 0054 0CD5     		bpl	.L13
 160              	.LBB53:
 161              		.loc 1 190 0
 162 0056 2023     		movs	r3, #32
 163              	.LVL21:
 164              	@ 190 "../../os/hal/platforms/STM32/USARTv2/serial_lld.c" 1
 165 0058 83F31188 		msr     BASEPRI, r3
 166              	@ 0 "" 2
 167              	.LVL22:
 168              		.thumb
ARM GAS  C:\Users\TAISIK~1\AppData\Local\Temp\cchblRbf.s 			page 4


 169              	.LBE53:
 170              		.loc 1 191 0
 171 005c 1F48     		ldr	r0, .L20+4
 172 005e 1021     		movs	r1, #16
 173 0060 FFF7FEFF 		bl	chEvtBroadcastFlagsI
 174              	.LVL23:
 175              	.LBB54:
 176              		.loc 1 192 0
 177 0064 0023     		movs	r3, #0
 178              	.LVL24:
 179              	@ 192 "../../os/hal/platforms/STM32/USARTv2/serial_lld.c" 1
 180 0066 83F31188 		msr     BASEPRI, r3
 181              	@ 0 "" 2
 182              	.LVL25:
 183              		.thumb
 184              	.LBE54:
 185              		.loc 1 193 0
 186 006a 26F04006 		bic	r6, r6, #64
 187              	.LVL26:
 188 006e 2E60     		str	r6, [r5, #0]
 189              	.L13:
 190              	.LBE48:
 191              	.LBE47:
 192              		.loc 1 265 0
 193 0070 BDE87040 		pop	{r4, r5, r6, lr}
 194              		.loc 1 264 0
 195 0074 FFF7FEBF 		b	_port_irq_epilogue
 196              	.LVL27:
 197              	.L17:
 198              	.LBB63:
 199              	.LBB62:
 200              	.LBB55:
 201              		.loc 1 171 0
 202 0078 2023     		movs	r3, #32
 203              	.LVL28:
 204              	@ 171 "../../os/hal/platforms/STM32/USARTv2/serial_lld.c" 1
 205 007a 83F31188 		msr     BASEPRI, r3
 206              	@ 0 "" 2
 207              	.LVL29:
 208              		.thumb
 209              	.LBE55:
 210              		.loc 1 172 0
 211 007e A98C     		ldrh	r1, [r5, #36]
 212 0080 1548     		ldr	r0, .L20
 213 0082 C9B2     		uxtb	r1, r1
 214 0084 FFF7FEFF 		bl	sdIncomingDataI
 215              	.LVL30:
 216              	.LBB56:
 217              		.loc 1 173 0
 218 0088 0023     		movs	r3, #0
 219              	@ 173 "../../os/hal/platforms/STM32/USARTv2/serial_lld.c" 1
 220 008a 83F31188 		msr     BASEPRI, r3
 221              	@ 0 "" 2
 222              	.LVL31:
 223              		.thumb
 224 008e DCE7     		b	.L9
 225              	.LVL32:
ARM GAS  C:\Users\TAISIK~1\AppData\Local\Temp\cchblRbf.s 			page 5


 226              	.L16:
 227              	.LBE56:
 228              	.LBB57:
 229              		.loc 1 165 0
 230 0090 2023     		movs	r3, #32
 231              	.LVL33:
 232              	@ 165 "../../os/hal/platforms/STM32/USARTv2/serial_lld.c" 1
 233 0092 83F31188 		msr     BASEPRI, r3
 234              	@ 0 "" 2
 235              	.LVL34:
 236              		.thumb
 237              	.LBE57:
 238              		.loc 1 166 0
 239 0096 1148     		ldr	r0, .L20+4
 240 0098 4FF40071 		mov	r1, #512
 241 009c FFF7FEFF 		bl	chEvtBroadcastFlagsI
 242              	.LVL35:
 243              	.LBB58:
 244              		.loc 1 167 0
 245 00a0 0023     		movs	r3, #0
 246              	@ 167 "../../os/hal/platforms/STM32/USARTv2/serial_lld.c" 1
 247 00a2 83F31188 		msr     BASEPRI, r3
 248              	@ 0 "" 2
 249              	.LVL36:
 250              		.thumb
 251 00a6 CEE7     		b	.L8
 252              	.LVL37:
 253              	.L18:
 254              	.LBE58:
 255              	.LBB59:
 256              	.LBB60:
 257              		.loc 1 178 0
 258 00a8 2023     		movs	r3, #32
 259              	.LVL38:
 260              	@ 178 "../../os/hal/platforms/STM32/USARTv2/serial_lld.c" 1
 261 00aa 83F31188 		msr     BASEPRI, r3
 262              	@ 0 "" 2
 263              	.LVL39:
 264              		.thumb
 265              	.LBE60:
 266              		.loc 1 179 0
 267 00ae 0C48     		ldr	r0, .L20+8
 268 00b0 FFF7FEFF 		bl	chOQGetI
 269              	.LVL40:
 270              		.loc 1 180 0
 271 00b4 0028     		cmp	r0, #0
 272 00b6 05DB     		blt	.L19
 273              		.loc 1 185 0
 274 00b8 83B2     		uxth	r3, r0
 275 00ba 2B85     		strh	r3, [r5, #40]	@ movhi
 276              	.LVL41:
 277              	.L12:
 278              	.LBB61:
 279              		.loc 1 186 0
 280 00bc 0023     		movs	r3, #0
 281              	@ 186 "../../os/hal/platforms/STM32/USARTv2/serial_lld.c" 1
 282 00be 83F31188 		msr     BASEPRI, r3
ARM GAS  C:\Users\TAISIK~1\AppData\Local\Temp\cchblRbf.s 			page 6


 283              	@ 0 "" 2
 284              	.LVL42:
 285              		.thumb
 286 00c2 C6E7     		b	.L10
 287              	.LVL43:
 288              	.L19:
 289              	.LBE61:
 290              		.loc 1 181 0
 291 00c4 0548     		ldr	r0, .L20+4
 292              	.LVL44:
 293 00c6 0821     		movs	r1, #8
 294 00c8 FFF7FEFF 		bl	chEvtBroadcastFlagsI
 295              		.loc 1 182 0
 296 00cc 26F0C002 		bic	r2, r6, #192
 297 00d0 42F04000 		orr	r0, r2, #64
 298 00d4 2860     		str	r0, [r5, #0]
 299 00d6 F1E7     		b	.L12
 300              	.L21:
 301              		.align	2
 302              	.L20:
 303 00d8 00000000 		.word	.LANCHOR0
 304 00dc 04000000 		.word	.LANCHOR0+4
 305 00e0 30000000 		.word	.LANCHOR0+48
 306              	.LBE59:
 307              	.LBE62:
 308              	.LBE63:
 309              		.cfi_endproc
 310              	.LFE123:
 311              		.size	VectorD4, .-VectorD4
 312 00e4 AFF30080 		.section	.text.sd_lld_init,"ax",%progbits
 312      AFF30080 
 312      AFF30080 
 313              		.align	2
 314              		.p2align 4,,15
 315              		.global	sd_lld_init
 316              		.thumb
 317              		.thumb_func
 318              		.type	sd_lld_init, %function
 319              	sd_lld_init:
 320              	.LFB124:
 321              		.loc 1 372 0
 322              		.cfi_startproc
 323              		@ args = 0, pretend = 0, frame = 0
 324              		@ frame_needed = 0, uses_anonymous_args = 0
 325 0000 10B5     		push	{r4, lr}
 326              	.LCFI1:
 327              		.cfi_def_cfa_offset 8
 328              		.cfi_offset 14, -4
 329              		.cfi_offset 4, -8
 330              		.loc 1 375 0
 331 0002 40F20004 		movw	r4, #:lower16:.LANCHOR0
 332 0006 C0F20004 		movt	r4, #:upper16:.LANCHOR0
 333 000a 40F20002 		movw	r2, #:lower16:notify1
 334 000e C0F20002 		movt	r2, #:upper16:notify1
 335 0012 2046     		mov	r0, r4
 336 0014 0021     		movs	r1, #0
 337 0016 FFF7FEFF 		bl	sdObjectInit
ARM GAS  C:\Users\TAISIK~1\AppData\Local\Temp\cchblRbf.s 			page 7


 338              		.loc 1 376 0
 339 001a 4FF46052 		mov	r2, #14336
 340              		.loc 1 377 0
 341 001e 4FF4A243 		mov	r3, #20736
 342              		.loc 1 376 0
 343 0022 C4F20102 		movt	r2, 16385
 344              		.loc 1 377 0
 345 0026 C0F22523 		movt	r3, 549
 346              		.loc 1 376 0
 347 002a 6267     		str	r2, [r4, #116]
 348              		.loc 1 377 0
 349 002c A367     		str	r3, [r4, #120]
 350              		.loc 1 409 0
 351 002e 10BD     		pop	{r4, pc}
 352              		.cfi_endproc
 353              	.LFE124:
 354              		.size	sd_lld_init, .-sd_lld_init
 355              		.section	.text.sd_lld_start,"ax",%progbits
 356              		.align	2
 357              		.p2align 4,,15
 358              		.global	sd_lld_start
 359              		.thumb
 360              		.thumb_func
 361              		.type	sd_lld_start, %function
 362              	sd_lld_start:
 363              	.LFB125:
 364              		.loc 1 421 0
 365              		.cfi_startproc
 366              		@ args = 0, pretend = 0, frame = 0
 367              		@ frame_needed = 0, uses_anonymous_args = 0
 368              	.LVL45:
 369 0000 F8B5     		push	{r3, r4, r5, r6, r7, lr}
 370              	.LCFI2:
 371              		.cfi_def_cfa_offset 24
 372              		.cfi_offset 14, -4
 373              		.cfi_offset 7, -8
 374              		.cfi_offset 6, -12
 375              		.cfi_offset 5, -16
 376              		.cfi_offset 4, -20
 377              		.cfi_offset 3, -24
 378              		.loc 1 426 0
 379 0002 037A     		ldrb	r3, [r0, #8]	@ zero_extendqisi2
 380              		.loc 1 424 0
 381 0004 1A4C     		ldr	r4, .L28
 382 0006 0029     		cmp	r1, #0
 383 0008 18BF     		it	ne
 384 000a 0C46     		movne	r4, r1
 385              		.loc 1 426 0
 386 000c 012B     		cmp	r3, #1
 387              		.loc 1 421 0
 388 000e 0546     		mov	r5, r0
 389              		.loc 1 426 0
 390 0010 1DD0     		beq	.L27
 391              	.LVL46:
 392              	.L25:
 393              	.LBB64:
 394              	.LBB65:
ARM GAS  C:\Users\TAISIK~1\AppData\Local\Temp\cchblRbf.s 			page 8


 395              		.loc 1 106 0
 396 0012 A088     		ldrh	r0, [r4, #4]
 397              		.loc 1 103 0
 398 0014 E188     		ldrh	r1, [r4, #6]
 399              		.loc 1 100 0
 400 0016 AF6F     		ldr	r7, [r5, #120]
 401 0018 2668     		ldr	r6, [r4, #0]
 402              		.loc 1 104 0
 403 001a B4F808C0 		ldrh	ip, [r4, #8]
 404              		.loc 1 97 0
 405 001e 6B6F     		ldr	r3, [r5, #116]
 406              	.LVL47:
 407              		.loc 1 106 0
 408 0020 40F49672 		orr	r2, r0, #300
 409              		.loc 1 100 0
 410 0024 B7FBF6F4 		udiv	r4, r7, r6
 411              		.loc 1 103 0
 412 0028 41F04000 		orr	r0, r1, #64
 413 002c 80B2     		uxth	r0, r0
 414              		.loc 1 104 0
 415 002e 4CF00101 		orr	r1, ip, #1
 416              		.loc 1 100 0
 417 0032 A4B2     		uxth	r4, r4
 418              		.loc 1 106 0
 419 0034 42F0010C 		orr	ip, r2, #1
 420              		.loc 1 100 0
 421 0038 9C81     		strh	r4, [r3, #12]	@ movhi
 422              		.loc 1 104 0
 423 003a 89B2     		uxth	r1, r1
 424              		.loc 1 103 0
 425 003c 5860     		str	r0, [r3, #4]
 426              		.loc 1 106 0
 427 003e 1FFA8CF2 		uxth	r2, ip
 428              		.loc 1 108 0
 429 0042 4FF0FF30 		mov	r0, #-1
 430              		.loc 1 104 0
 431 0046 9960     		str	r1, [r3, #8]
 432              		.loc 1 105 0
 433 0048 1A60     		str	r2, [r3, #0]
 434              		.loc 1 108 0
 435 004a 1862     		str	r0, [r3, #32]
 436              	.LBE65:
 437              	.LBE64:
 438              		.loc 1 471 0
 439 004c F8BD     		pop	{r3, r4, r5, r6, r7, pc}
 440              	.LVL48:
 441              	.L27:
 442              		.loc 1 428 0
 443 004e 0948     		ldr	r0, .L28+4
 444 0050 8542     		cmp	r5, r0
 445 0052 DED1     		bne	.L25
 446              		.loc 1 429 0
 447 0054 4FF48051 		mov	r1, #4096
 448              	.LVL49:
 449 0058 C4F20201 		movt	r1, 16386
 450              		.loc 1 430 0
 451 005c 2520     		movs	r0, #37
ARM GAS  C:\Users\TAISIK~1\AppData\Local\Temp\cchblRbf.s 			page 9


 452              		.loc 1 429 0
 453 005e 8E69     		ldr	r6, [r1, #24]
 454 0060 46F48042 		orr	r2, r6, #16384
 455 0064 8A61     		str	r2, [r1, #24]
 456              		.loc 1 430 0
 457 0066 C021     		movs	r1, #192
 458 0068 FFF7FEFF 		bl	nvicEnableVector
 459 006c D1E7     		b	.L25
 460              	.L29:
 461 006e 00BF     		.align	2
 462              	.L28:
 463 0070 00000000 		.word	.LANCHOR1
 464 0074 00000000 		.word	.LANCHOR0
 465              		.cfi_endproc
 466              	.LFE125:
 467              		.size	sd_lld_start, .-sd_lld_start
 468 0078 AFF30080 		.section	.text.sd_lld_stop,"ax",%progbits
 468      AFF30080 
 469              		.align	2
 470              		.p2align 4,,15
 471              		.global	sd_lld_stop
 472              		.thumb
 473              		.thumb_func
 474              		.type	sd_lld_stop, %function
 475              	sd_lld_stop:
 476              	.LFB126:
 477              		.loc 1 482 0
 478              		.cfi_startproc
 479              		@ args = 0, pretend = 0, frame = 0
 480              		@ frame_needed = 0, uses_anonymous_args = 0
 481              		@ link register save eliminated.
 482              	.LVL50:
 483              		.loc 1 484 0
 484 0000 037A     		ldrb	r3, [r0, #8]	@ zero_extendqisi2
 485 0002 022B     		cmp	r3, #2
 486 0004 00D0     		beq	.L32
 487              	.L30:
 488 0006 7047     		bx	lr
 489              	.LVL51:
 490              	.L32:
 491              		.loc 1 487 0
 492 0008 0A49     		ldr	r1, .L33
 493              	.LVL52:
 494              		.loc 1 485 0
 495 000a 436F     		ldr	r3, [r0, #116]
 496              	.LVL53:
 497              	.LBB66:
 498              	.LBB67:
 499              		.loc 1 119 0
 500 000c 0022     		movs	r2, #0
 501              	.LBE67:
 502              	.LBE66:
 503              		.loc 1 487 0
 504 000e 8842     		cmp	r0, r1
 505              	.LBB69:
 506              	.LBB68:
 507              		.loc 1 119 0
ARM GAS  C:\Users\TAISIK~1\AppData\Local\Temp\cchblRbf.s 			page 10


 508 0010 1A60     		str	r2, [r3, #0]
 509              		.loc 1 120 0
 510 0012 5A60     		str	r2, [r3, #4]
 511              		.loc 1 121 0
 512 0014 9A60     		str	r2, [r3, #8]
 513              	.LBE68:
 514              	.LBE69:
 515              		.loc 1 487 0
 516 0016 F6D1     		bne	.L30
 517              		.loc 1 488 0
 518 0018 4FF4805C 		mov	ip, #4096
 519 001c C4F2020C 		movt	ip, 16386
 520 0020 DCF81810 		ldr	r1, [ip, #24]
 521 0024 21F48040 		bic	r0, r1, #16384
 522              	.LVL54:
 523 0028 CCF81800 		str	r0, [ip, #24]
 524              		.loc 1 489 0
 525 002c 2520     		movs	r0, #37
 526              		.loc 1 529 0
 527              		.loc 1 489 0
 528 002e FFF7FEBF 		b	nvicDisableVector
 529              	.LVL55:
 530              	.L34:
 531 0032 00BF     		.align	2
 532              	.L33:
 533 0034 00000000 		.word	.LANCHOR0
 534              		.cfi_endproc
 535              	.LFE126:
 536              		.size	sd_lld_stop, .-sd_lld_stop
 537              		.global	SD1
 538 0038 AFF30080 		.section	.rodata.default_config,"a",%progbits
 538      AFF30080 
 539              		.align	2
 540              		.set	.LANCHOR1,. + 0
 541              		.type	default_config, %object
 542              		.size	default_config, 12
 543              	default_config:
 544 0000 00960000 		.word	38400
 545 0004 0000     		.short	0
 546 0006 0040     		.short	16384
 547 0008 0000     		.short	0
 548 000a 0000     		.space	2
 549              		.section	.bss.SD1,"aw",%nobits
 550              		.align	2
 551              		.set	.LANCHOR0,. + 0
 552              		.type	SD1, %object
 553              		.size	SD1, 124
 554              	SD1:
 555 0000 00000000 		.space	124
 555      00000000 
 555      00000000 
 555      00000000 
 555      00000000 
 556              		.text
 557              	.Letext0:
 558              		.file 2 "c:\\chibistudio\\tools\\gnu tools arm embedded\\4.6 2012q4\\bin\\../lib/gcc/arm-none-eabi
 559              		.file 3 "c:\\chibistudio\\tools\\gnu tools arm embedded\\4.6 2012q4\\bin\\../lib/gcc/arm-none-eabi
ARM GAS  C:\Users\TAISIK~1\AppData\Local\Temp\cchblRbf.s 			page 11


 560              		.file 4 "../../os/ports/GCC/ARMCMx/chtypes.h"
 561              		.file 5 "../../os/kernel/include/chlists.h"
 562              		.file 6 "../../os/kernel/include/chthreads.h"
 563              		.file 7 "../../os/ports/GCC/ARMCMx/chcore_v7m.h"
 564              		.file 8 "../../os/kernel/include/chmtx.h"
 565              		.file 9 "../../os/kernel/include/chevents.h"
 566              		.file 10 "../../os/kernel/include/chqueues.h"
 567              		.file 11 "../../os/hal/platforms/STM32F30x/stm32f30x.h"
 568              		.file 12 "../../os/hal/include/serial.h"
 569              		.file 13 "../../os/hal/platforms/STM32/USARTv2/serial_lld.h"
 570              		.file 14 "../../os/ports/common/ARMCMx/CMSIS/include/core_cm4.h"