ARM GAS  C:\Users\TAISIK~1\AppData\Local\Temp\ccaTZTgg.s 			page 1


   1              		.syntax unified
   2              		.cpu cortex-m4
   3              		.fpu softvfp
   4              		.eabi_attribute 20, 1
   5              		.eabi_attribute 21, 1
   6              		.eabi_attribute 23, 3
   7              		.eabi_attribute 24, 1
   8              		.eabi_attribute 25, 1
   9              		.eabi_attribute 26, 1
  10              		.eabi_attribute 30, 2
  11              		.eabi_attribute 34, 1
  12              		.eabi_attribute 18, 4
  13              		.thumb
  14              		.file	"serial.c"
  15              		.text
  16              	.Ltext0:
  17              		.cfi_sections	.debug_frame
  18              		.section	.text.readt,"ax",%progbits
  19              		.align	2
  20              		.p2align 4,,15
  21              		.thumb
  22              		.thumb_func
  23              		.type	readt, %function
  24              	readt:
  25              	.LFB125:
  26              		.file 1 "../../os/hal/src/serial.c"
  27              		.loc 1 92 0
  28              		.cfi_startproc
  29              		@ args = 0, pretend = 0, frame = 0
  30              		@ frame_needed = 0, uses_anonymous_args = 0
  31              		@ link register save eliminated.
  32              	.LVL0:
  33              		.loc 1 94 0
  34 0000 0C30     		adds	r0, r0, #12
  35              	.LVL1:
  36              		.loc 1 95 0
  37              		.loc 1 94 0
  38 0002 FFF7FEBF 		b	chIQReadTimeout
  39              	.LVL2:
  40              	.LVL3:
  41              	.LVL4:
  42              	.LVL5:
  43              		.cfi_endproc
  44              	.LFE125:
  45              		.size	readt, .-readt
  46 0006 00BFAFF3 		.section	.text.read,"ax",%progbits
  46      0080AFF3 
  46      0080
  47              		.align	2
  48              		.p2align 4,,15
  49              		.thumb
  50              		.thumb_func
  51              		.type	read, %function
  52              	read:
  53              	.LFB119:
  54              		.loc 1 61 0
  55              		.cfi_startproc
ARM GAS  C:\Users\TAISIK~1\AppData\Local\Temp\ccaTZTgg.s 			page 2


  56              		@ args = 0, pretend = 0, frame = 0
  57              		@ frame_needed = 0, uses_anonymous_args = 0
  58              		@ link register save eliminated.
  59              	.LVL6:
  60              		.loc 1 63 0
  61 0000 0C30     		adds	r0, r0, #12
  62              	.LVL7:
  63 0002 4FF0FF33 		mov	r3, #-1
  64              		.loc 1 65 0
  65              		.loc 1 63 0
  66 0006 FFF7FEBF 		b	chIQReadTimeout
  67              	.LVL8:
  68              	.LVL9:
  69              	.LVL10:
  70              		.cfi_endproc
  71              	.LFE119:
  72              		.size	read, .-read
  73 000a 00BFAFF3 		.section	.text.writet,"ax",%progbits
  73      0080
  74              		.align	2
  75              		.p2align 4,,15
  76              		.thumb
  77              		.thumb_func
  78              		.type	writet, %function
  79              	writet:
  80              	.LFB124:
  81              		.loc 1 87 0
  82              		.cfi_startproc
  83              		@ args = 0, pretend = 0, frame = 0
  84              		@ frame_needed = 0, uses_anonymous_args = 0
  85              		@ link register save eliminated.
  86              	.LVL11:
  87              		.loc 1 89 0
  88 0000 3030     		adds	r0, r0, #48
  89              	.LVL12:
  90              		.loc 1 90 0
  91              		.loc 1 89 0
  92 0002 FFF7FEBF 		b	chOQWriteTimeout
  93              	.LVL13:
  94              	.LVL14:
  95              	.LVL15:
  96              	.LVL16:
  97              		.cfi_endproc
  98              	.LFE124:
  99              		.size	writet, .-writet
 100 0006 00BFAFF3 		.section	.text.write,"ax",%progbits
 100      0080AFF3 
 100      0080
 101              		.align	2
 102              		.p2align 4,,15
 103              		.thumb
 104              		.thumb_func
 105              		.type	write, %function
 106              	write:
 107              	.LFB118:
 108              		.loc 1 55 0
 109              		.cfi_startproc
ARM GAS  C:\Users\TAISIK~1\AppData\Local\Temp\ccaTZTgg.s 			page 3


 110              		@ args = 0, pretend = 0, frame = 0
 111              		@ frame_needed = 0, uses_anonymous_args = 0
 112              		@ link register save eliminated.
 113              	.LVL17:
 114              		.loc 1 57 0
 115 0000 3030     		adds	r0, r0, #48
 116              	.LVL18:
 117 0002 4FF0FF33 		mov	r3, #-1
 118              		.loc 1 59 0
 119              		.loc 1 57 0
 120 0006 FFF7FEBF 		b	chOQWriteTimeout
 121              	.LVL19:
 122              	.LVL20:
 123              	.LVL21:
 124              		.cfi_endproc
 125              	.LFE118:
 126              		.size	write, .-write
 127 000a 00BFAFF3 		.section	.text.gett,"ax",%progbits
 127      0080
 128              		.align	2
 129              		.p2align 4,,15
 130              		.thumb
 131              		.thumb_func
 132              		.type	gett, %function
 133              	gett:
 134              	.LFB123:
 135              		.loc 1 82 0
 136              		.cfi_startproc
 137              		@ args = 0, pretend = 0, frame = 0
 138              		@ frame_needed = 0, uses_anonymous_args = 0
 139              		@ link register save eliminated.
 140              	.LVL22:
 141              		.loc 1 84 0
 142 0000 0C30     		adds	r0, r0, #12
 143              	.LVL23:
 144              		.loc 1 85 0
 145              		.loc 1 84 0
 146 0002 FFF7FEBF 		b	chIQGetTimeout
 147              	.LVL24:
 148              	.LVL25:
 149              		.cfi_endproc
 150              	.LFE123:
 151              		.size	gett, .-gett
 152 0006 00BFAFF3 		.section	.text.get,"ax",%progbits
 152      0080AFF3 
 152      0080
 153              		.align	2
 154              		.p2align 4,,15
 155              		.thumb
 156              		.thumb_func
 157              		.type	get, %function
 158              	get:
 159              	.LFB121:
 160              		.loc 1 72 0
 161              		.cfi_startproc
 162              		@ args = 0, pretend = 0, frame = 0
 163              		@ frame_needed = 0, uses_anonymous_args = 0
ARM GAS  C:\Users\TAISIK~1\AppData\Local\Temp\ccaTZTgg.s 			page 4


 164              		@ link register save eliminated.
 165              	.LVL26:
 166              		.loc 1 74 0
 167 0000 0C30     		adds	r0, r0, #12
 168              	.LVL27:
 169 0002 4FF0FF31 		mov	r1, #-1
 170              		.loc 1 75 0
 171              		.loc 1 74 0
 172 0006 FFF7FEBF 		b	chIQGetTimeout
 173              	.LVL28:
 174              		.cfi_endproc
 175              	.LFE121:
 176              		.size	get, .-get
 177 000a 00BFAFF3 		.section	.text.putt,"ax",%progbits
 177      0080
 178              		.align	2
 179              		.p2align 4,,15
 180              		.thumb
 181              		.thumb_func
 182              		.type	putt, %function
 183              	putt:
 184              	.LFB122:
 185              		.loc 1 77 0
 186              		.cfi_startproc
 187              		@ args = 0, pretend = 0, frame = 0
 188              		@ frame_needed = 0, uses_anonymous_args = 0
 189              		@ link register save eliminated.
 190              	.LVL29:
 191              		.loc 1 79 0
 192 0000 3030     		adds	r0, r0, #48
 193              	.LVL30:
 194              		.loc 1 80 0
 195              		.loc 1 79 0
 196 0002 FFF7FEBF 		b	chOQPutTimeout
 197              	.LVL31:
 198              	.LVL32:
 199              	.LVL33:
 200              		.cfi_endproc
 201              	.LFE122:
 202              		.size	putt, .-putt
 203 0006 00BFAFF3 		.section	.text.put,"ax",%progbits
 203      0080AFF3 
 203      0080
 204              		.align	2
 205              		.p2align 4,,15
 206              		.thumb
 207              		.thumb_func
 208              		.type	put, %function
 209              	put:
 210              	.LFB120:
 211              		.loc 1 67 0
 212              		.cfi_startproc
 213              		@ args = 0, pretend = 0, frame = 0
 214              		@ frame_needed = 0, uses_anonymous_args = 0
 215              		@ link register save eliminated.
 216              	.LVL34:
 217              		.loc 1 69 0
ARM GAS  C:\Users\TAISIK~1\AppData\Local\Temp\ccaTZTgg.s 			page 5


 218 0000 3030     		adds	r0, r0, #48
 219              	.LVL35:
 220 0002 4FF0FF32 		mov	r2, #-1
 221              		.loc 1 70 0
 222              		.loc 1 69 0
 223 0006 FFF7FEBF 		b	chOQPutTimeout
 224              	.LVL36:
 225              	.LVL37:
 226              		.cfi_endproc
 227              	.LFE120:
 228              		.size	put, .-put
 229 000a 00BFAFF3 		.section	.text.sdInit,"ax",%progbits
 229      0080
 230              		.align	2
 231              		.p2align 4,,15
 232              		.global	sdInit
 233              		.thumb
 234              		.thumb_func
 235              		.type	sdInit, %function
 236              	sdInit:
 237              	.LFB126:
 238              		.loc 1 113 0
 239              		.cfi_startproc
 240              		@ args = 0, pretend = 0, frame = 0
 241              		@ frame_needed = 0, uses_anonymous_args = 0
 242              		@ link register save eliminated.
 243              		.loc 1 116 0
 244              		.loc 1 115 0
 245 0000 FFF7FEBF 		b	sd_lld_init
 246              		.cfi_endproc
 247              	.LFE126:
 248              		.size	sdInit, .-sdInit
 249 0004 AFF30080 		.section	.text.sdObjectInit,"ax",%progbits
 249      AFF30080 
 249      AFF30080 
 250              		.align	2
 251              		.p2align 4,,15
 252              		.global	sdObjectInit
 253              		.thumb
 254              		.thumb_func
 255              		.type	sdObjectInit, %function
 256              	sdObjectInit:
 257              	.LFB127:
 258              		.loc 1 133 0
 259              		.cfi_startproc
 260              		@ args = 0, pretend = 0, frame = 0
 261              		@ frame_needed = 0, uses_anonymous_args = 0
 262              	.LVL38:
 263 0000 70B5     		push	{r4, r5, r6, lr}
 264              	.LCFI0:
 265              		.cfi_def_cfa_offset 16
 266              		.cfi_offset 14, -4
 267              		.cfi_offset 6, -8
 268              		.cfi_offset 5, -12
 269              		.cfi_offset 4, -16
 270              		.loc 1 135 0
 271 0002 40F20003 		movw	r3, #:lower16:.LANCHOR0
ARM GAS  C:\Users\TAISIK~1\AppData\Local\Temp\ccaTZTgg.s 			page 6


 272 0006 0646     		mov	r6, r0
 273 0008 C0F20003 		movt	r3, #:upper16:.LANCHOR0
 274              		.loc 1 133 0
 275 000c 0446     		mov	r4, r0
 276              		.loc 1 135 0
 277 000e 46F8043B 		str	r3, [r6], #4
 278              		.loc 1 133 0
 279 0012 82B0     		sub	sp, sp, #8
 280              	.LCFI1:
 281              		.cfi_def_cfa_offset 24
 282              		.loc 1 136 0
 283 0014 6660     		str	r6, [r4, #4]
 284              		.loc 1 137 0
 285 0016 0126     		movs	r6, #1
 286              		.loc 1 133 0
 287 0018 0B46     		mov	r3, r1
 288 001a 1546     		mov	r5, r2
 289              		.loc 1 138 0
 290 001c 04F15401 		add	r1, r4, #84
 291              	.LVL39:
 292 0020 1022     		movs	r2, #16
 293              	.LVL40:
 294              		.loc 1 137 0
 295 0022 2672     		strb	r6, [r4, #8]
 296              		.loc 1 138 0
 297 0024 00F10C00 		add	r0, r0, #12
 298              	.LVL41:
 299 0028 0094     		str	r4, [sp, #0]
 300 002a FFF7FEFF 		bl	chIQInit
 301              	.LVL42:
 302              		.loc 1 139 0
 303 002e 04F16401 		add	r1, r4, #100
 304 0032 04F13000 		add	r0, r4, #48
 305 0036 1022     		movs	r2, #16
 306 0038 2B46     		mov	r3, r5
 307 003a 0094     		str	r4, [sp, #0]
 308 003c FFF7FEFF 		bl	chOQInit
 309              		.loc 1 140 0
 310 0040 02B0     		add	sp, sp, #8
 311 0042 70BD     		pop	{r4, r5, r6, pc}
 312              		.cfi_endproc
 313              	.LFE127:
 314              		.size	sdObjectInit, .-sdObjectInit
 315 0044 AFF30080 		.section	.text.sdStart,"ax",%progbits
 315      AFF30080 
 315      AFF30080 
 316              		.align	2
 317              		.p2align 4,,15
 318              		.global	sdStart
 319              		.thumb
 320              		.thumb_func
 321              		.type	sdStart, %function
 322              	sdStart:
 323              	.LFB128:
 324              		.loc 1 152 0
 325              		.cfi_startproc
 326              		@ args = 0, pretend = 0, frame = 0
ARM GAS  C:\Users\TAISIK~1\AppData\Local\Temp\ccaTZTgg.s 			page 7


 327              		@ frame_needed = 0, uses_anonymous_args = 0
 328              	.LVL43:
 329 0000 10B5     		push	{r4, lr}
 330              	.LCFI2:
 331              		.cfi_def_cfa_offset 8
 332              		.cfi_offset 14, -4
 333              		.cfi_offset 4, -8
 334              	.LBB2:
 335              		.loc 1 156 0
 336 0002 2023     		movs	r3, #32
 337              	.LVL44:
 338              	.LBE2:
 339              		.loc 1 152 0
 340 0004 0446     		mov	r4, r0
 341              	.LBB3:
 342              		.loc 1 156 0
 343              	@ 156 "../../os/hal/src/serial.c" 1
 344 0006 83F31188 		msr     BASEPRI, r3
 345              	@ 0 "" 2
 346              	.LVL45:
 347              		.thumb
 348              	.LBE3:
 349              		.loc 1 160 0
 350 000a FFF7FEFF 		bl	sd_lld_start
 351              	.LVL46:
 352              		.loc 1 161 0
 353 000e 0223     		movs	r3, #2
 354 0010 2372     		strb	r3, [r4, #8]
 355              	.LBB4:
 356              		.loc 1 162 0
 357 0012 0023     		movs	r3, #0
 358              	.LVL47:
 359              	@ 162 "../../os/hal/src/serial.c" 1
 360 0014 83F31188 		msr     BASEPRI, r3
 361              	@ 0 "" 2
 362              	.LVL48:
 363              		.thumb
 364              	.LBE4:
 365              		.loc 1 163 0
 366 0018 10BD     		pop	{r4, pc}
 367              		.cfi_endproc
 368              	.LFE128:
 369              		.size	sdStart, .-sdStart
 370 001a 00BFAFF3 		.section	.text.sdStop,"ax",%progbits
 370      0080
 371              		.align	2
 372              		.p2align 4,,15
 373              		.global	sdStop
 374              		.thumb
 375              		.thumb_func
 376              		.type	sdStop, %function
 377              	sdStop:
 378              	.LFB129:
 379              		.loc 1 174 0
 380              		.cfi_startproc
 381              		@ args = 0, pretend = 0, frame = 0
 382              		@ frame_needed = 0, uses_anonymous_args = 0
ARM GAS  C:\Users\TAISIK~1\AppData\Local\Temp\ccaTZTgg.s 			page 8


 383              	.LVL49:
 384 0000 10B5     		push	{r4, lr}
 385              	.LCFI3:
 386              		.cfi_def_cfa_offset 8
 387              		.cfi_offset 14, -4
 388              		.cfi_offset 4, -8
 389              	.LBB5:
 390              		.loc 1 178 0
 391 0002 2023     		movs	r3, #32
 392              	.LVL50:
 393              	.LBE5:
 394              		.loc 1 174 0
 395 0004 0446     		mov	r4, r0
 396              	.LBB6:
 397              		.loc 1 178 0
 398              	@ 178 "../../os/hal/src/serial.c" 1
 399 0006 83F31188 		msr     BASEPRI, r3
 400              	@ 0 "" 2
 401              	.LVL51:
 402              		.thumb
 403              	.LBE6:
 404              		.loc 1 182 0
 405 000a FFF7FEFF 		bl	sd_lld_stop
 406              	.LVL52:
 407              		.loc 1 183 0
 408 000e 0123     		movs	r3, #1
 409 0010 2372     		strb	r3, [r4, #8]
 410              		.loc 1 184 0
 411 0012 04F13000 		add	r0, r4, #48
 412 0016 FFF7FEFF 		bl	chOQResetI
 413              		.loc 1 185 0
 414 001a 04F10C00 		add	r0, r4, #12
 415 001e FFF7FEFF 		bl	chIQResetI
 416              		.loc 1 186 0
 417 0022 FFF7FEFF 		bl	chSchRescheduleS
 418              	.LBB7:
 419              		.loc 1 187 0
 420 0026 0023     		movs	r3, #0
 421              	.LVL53:
 422              	@ 187 "../../os/hal/src/serial.c" 1
 423 0028 83F31188 		msr     BASEPRI, r3
 424              	@ 0 "" 2
 425              	.LVL54:
 426              		.thumb
 427              	.LBE7:
 428              		.loc 1 188 0
 429 002c 10BD     		pop	{r4, pc}
 430              		.cfi_endproc
 431              	.LFE129:
 432              		.size	sdStop, .-sdStop
 433 002e 00BF     		.section	.text.sdIncomingDataI,"ax",%progbits
 434              		.align	2
 435              		.p2align 4,,15
 436              		.global	sdIncomingDataI
 437              		.thumb
 438              		.thumb_func
 439              		.type	sdIncomingDataI, %function
ARM GAS  C:\Users\TAISIK~1\AppData\Local\Temp\ccaTZTgg.s 			page 9


 440              	sdIncomingDataI:
 441              	.LFB130:
 442              		.loc 1 206 0
 443              		.cfi_startproc
 444              		@ args = 0, pretend = 0, frame = 0
 445              		@ frame_needed = 0, uses_anonymous_args = 0
 446              	.LVL55:
 447 0000 38B5     		push	{r3, r4, r5, lr}
 448              	.LCFI4:
 449              		.cfi_def_cfa_offset 16
 450              		.cfi_offset 14, -4
 451              		.cfi_offset 5, -8
 452              		.cfi_offset 4, -12
 453              		.cfi_offset 3, -16
 454              		.loc 1 211 0
 455 0002 4369     		ldr	r3, [r0, #20]
 456              		.loc 1 206 0
 457 0004 0446     		mov	r4, r0
 458 0006 0D46     		mov	r5, r1
 459              		.loc 1 211 0
 460 0008 3BB1     		cbz	r3, .L17
 461              		.loc 1 213 0
 462 000a 04F10C00 		add	r0, r4, #12
 463              	.LVL56:
 464 000e 2946     		mov	r1, r5
 465              	.LVL57:
 466 0010 FFF7FEFF 		bl	chIQPutI
 467 0014 0028     		cmp	r0, #0
 468 0016 0BDB     		blt	.L18
 469              	.L13:
 470 0018 38BD     		pop	{r3, r4, r5, pc}
 471              	.LVL58:
 472              	.L17:
 473              		.loc 1 212 0
 474 001a 0430     		adds	r0, r0, #4
 475 001c 0421     		movs	r1, #4
 476              	.LVL59:
 477 001e FFF7FEFF 		bl	chEvtBroadcastFlagsI
 478              		.loc 1 213 0
 479 0022 04F10C00 		add	r0, r4, #12
 480 0026 2946     		mov	r1, r5
 481 0028 FFF7FEFF 		bl	chIQPutI
 482 002c 0028     		cmp	r0, #0
 483 002e F3DA     		bge	.L13
 484              	.L18:
 485              		.loc 1 214 0
 486 0030 201D     		adds	r0, r4, #4
 487 0032 8021     		movs	r1, #128
 488              		.loc 1 215 0
 489 0034 BDE83840 		pop	{r3, r4, r5, lr}
 490              		.loc 1 214 0
 491 0038 FFF7FEBF 		b	chEvtBroadcastFlagsI
 492              		.cfi_endproc
 493              	.LFE130:
 494              		.size	sdIncomingDataI, .-sdIncomingDataI
 495 003c AFF30080 		.section	.text.sdRequestDataI,"ax",%progbits
 496              		.align	2
ARM GAS  C:\Users\TAISIK~1\AppData\Local\Temp\ccaTZTgg.s 			page 10


 497              		.p2align 4,,15
 498              		.global	sdRequestDataI
 499              		.thumb
 500              		.thumb_func
 501              		.type	sdRequestDataI, %function
 502              	sdRequestDataI:
 503              	.LFB131:
 504              		.loc 1 232 0
 505              		.cfi_startproc
 506              		@ args = 0, pretend = 0, frame = 0
 507              		@ frame_needed = 0, uses_anonymous_args = 0
 508              	.LVL60:
 509 0000 38B5     		push	{r3, r4, r5, lr}
 510              	.LCFI5:
 511              		.cfi_def_cfa_offset 16
 512              		.cfi_offset 14, -4
 513              		.cfi_offset 5, -8
 514              		.cfi_offset 4, -12
 515              		.cfi_offset 3, -16
 516              		.loc 1 232 0
 517 0002 0546     		mov	r5, r0
 518              		.loc 1 238 0
 519 0004 00F13000 		add	r0, r0, #48
 520              	.LVL61:
 521 0008 FFF7FEFF 		bl	chOQGetI
 522              		.loc 1 239 0
 523 000c 0028     		cmp	r0, #0
 524              		.loc 1 238 0
 525 000e 0446     		mov	r4, r0
 526              	.LVL62:
 527              		.loc 1 239 0
 528 0010 01DB     		blt	.L21
 529              		.loc 1 242 0
 530 0012 2046     		mov	r0, r4
 531 0014 38BD     		pop	{r3, r4, r5, pc}
 532              	.L21:
 533              		.loc 1 240 0
 534 0016 281D     		adds	r0, r5, #4
 535              	.LVL63:
 536 0018 0821     		movs	r1, #8
 537 001a FFF7FEFF 		bl	chEvtBroadcastFlagsI
 538              		.loc 1 242 0
 539 001e 2046     		mov	r0, r4
 540 0020 38BD     		pop	{r3, r4, r5, pc}
 541              		.cfi_endproc
 542              	.LFE131:
 543              		.size	sdRequestDataI, .-sdRequestDataI
 544 0022 00BFAFF3 		.section	.rodata.vmt,"a",%progbits
 544      0080AFF3 
 544      0080AFF3 
 544      0080
 545              		.align	2
 546              		.set	.LANCHOR0,. + 0
 547              		.type	vmt, %object
 548              		.size	vmt, 32
 549              	vmt:
 550 0000 00000000 		.word	write
ARM GAS  C:\Users\TAISIK~1\AppData\Local\Temp\ccaTZTgg.s 			page 11


 551 0004 00000000 		.word	read
 552 0008 00000000 		.word	put
 553 000c 00000000 		.word	get
 554 0010 00000000 		.word	putt
 555 0014 00000000 		.word	gett
 556 0018 00000000 		.word	writet
 557 001c 00000000 		.word	readt
 558              		.text
 559              	.Letext0:
 560              		.file 2 "c:\\chibistudio\\tools\\gnu tools arm embedded\\4.6 2012q4\\bin\\../lib/gcc/arm-none-eabi
 561              		.file 3 "c:\\chibistudio\\tools\\gnu tools arm embedded\\4.6 2012q4\\bin\\../lib/gcc/arm-none-eabi
 562              		.file 4 "../../os/ports/GCC/ARMCMx/chtypes.h"
 563              		.file 5 "../../os/kernel/include/chlists.h"
 564              		.file 6 "../../os/kernel/include/chthreads.h"
 565              		.file 7 "../../os/ports/GCC/ARMCMx/chcore_v7m.h"
 566              		.file 8 "../../os/kernel/include/chmtx.h"
 567              		.file 9 "../../os/kernel/include/chevents.h"
 568              		.file 10 "../../os/kernel/include/chqueues.h"
 569              		.file 11 "../../os/hal/platforms/STM32F30x/stm32f30x.h"
 570              		.file 12 "../../os/hal/include/serial.h"
 571              		.file 13 "../../os/hal/platforms/STM32/USARTv2/serial_lld.h"
 572              		.file 14 "../../os/ports/common/ARMCMx/CMSIS/include/core_cm4.h"
 573              		.section	.debug_info,"",%progbits
 574              	.Ldebug_info0:
 575 0000 D50C0000 		.4byte	0xcd5
 576 0004 0200     		.2byte	0x2
 577 0006 00000000 		.4byte	.Ldebug_abbrev0
 578 000a 04       		.byte	0x4
 579 000b 01       		.uleb128 0x1
 580 000c 1A000000 		.4byte	.LASF119
 581 0010 01       		.byte	0x1
 582 0011 6F040000 		.4byte	.LASF120
 583 0015 B7030000 		.4byte	.LASF121
 584 0019 00000000 		.4byte	0
 585 001d 00000000 		.4byte	0
 586 0021 30000000 		.4byte	.Ldebug_ranges0+0x30
 587 0025 00000000 		.4byte	.Ldebug_line0
 588 0029 02       		.uleb128 0x2
 589 002a 04       		.byte	0x4
 590 002b 05       		.byte	0x5
 591 002c 696E7400 		.ascii	"int\000"
 592 0030 03       		.uleb128 0x3
 593 0031 00000000 		.4byte	.LASF2
 594 0035 02       		.byte	0x2
 595 0036 D4       		.byte	0xd4
 596 0037 3B000000 		.4byte	0x3b
 597 003b 04       		.uleb128 0x4
 598 003c 04       		.byte	0x4
 599 003d 07       		.byte	0x7
 600 003e 50010000 		.4byte	.LASF0
 601 0042 04       		.uleb128 0x4
 602 0043 01       		.byte	0x1
 603 0044 06       		.byte	0x6
 604 0045 BB000000 		.4byte	.LASF1
 605 0049 03       		.uleb128 0x3
 606 004a 67040000 		.4byte	.LASF3
 607 004e 03       		.byte	0x3
ARM GAS  C:\Users\TAISIK~1\AppData\Local\Temp\ccaTZTgg.s 			page 12


 608 004f 2A       		.byte	0x2a
 609 0050 54000000 		.4byte	0x54
 610 0054 04       		.uleb128 0x4
 611 0055 01       		.byte	0x1
 612 0056 08       		.byte	0x8
 613 0057 C7020000 		.4byte	.LASF4
 614 005b 04       		.uleb128 0x4
 615 005c 02       		.byte	0x2
 616 005d 05       		.byte	0x5
 617 005e FC020000 		.4byte	.LASF5
 618 0062 03       		.uleb128 0x3
 619 0063 5D010000 		.4byte	.LASF6
 620 0067 03       		.byte	0x3
 621 0068 36       		.byte	0x36
 622 0069 6D000000 		.4byte	0x6d
 623 006d 04       		.uleb128 0x4
 624 006e 02       		.byte	0x2
 625 006f 07       		.byte	0x7
 626 0070 A3010000 		.4byte	.LASF7
 627 0074 03       		.uleb128 0x3
 628 0075 BF020000 		.4byte	.LASF8
 629 0079 03       		.byte	0x3
 630 007a 4F       		.byte	0x4f
 631 007b 7F000000 		.4byte	0x7f
 632 007f 04       		.uleb128 0x4
 633 0080 04       		.byte	0x4
 634 0081 05       		.byte	0x5
 635 0082 F3000000 		.4byte	.LASF9
 636 0086 03       		.uleb128 0x3
 637 0087 5C030000 		.4byte	.LASF10
 638 008b 03       		.byte	0x3
 639 008c 50       		.byte	0x50
 640 008d 91000000 		.4byte	0x91
 641 0091 04       		.uleb128 0x4
 642 0092 04       		.byte	0x4
 643 0093 07       		.byte	0x7
 644 0094 7C030000 		.4byte	.LASF11
 645 0098 04       		.uleb128 0x4
 646 0099 08       		.byte	0x8
 647 009a 05       		.byte	0x5
 648 009b AD000000 		.4byte	.LASF12
 649 009f 04       		.uleb128 0x4
 650 00a0 08       		.byte	0x8
 651 00a1 07       		.byte	0x7
 652 00a2 63000000 		.4byte	.LASF13
 653 00a6 03       		.uleb128 0x3
 654 00a7 D4000000 		.4byte	.LASF14
 655 00ab 04       		.byte	0x4
 656 00ac 24       		.byte	0x24
 657 00ad B1000000 		.4byte	0xb1
 658 00b1 04       		.uleb128 0x4
 659 00b2 01       		.byte	0x1
 660 00b3 02       		.byte	0x2
 661 00b4 B9020000 		.4byte	.LASF15
 662 00b8 03       		.uleb128 0x3
 663 00b9 D8010000 		.4byte	.LASF16
 664 00bd 04       		.byte	0x4
ARM GAS  C:\Users\TAISIK~1\AppData\Local\Temp\ccaTZTgg.s 			page 13


 665 00be 25       		.byte	0x25
 666 00bf 49000000 		.4byte	0x49
 667 00c3 03       		.uleb128 0x3
 668 00c4 FC000000 		.4byte	.LASF17
 669 00c8 04       		.byte	0x4
 670 00c9 26       		.byte	0x26
 671 00ca 49000000 		.4byte	0x49
 672 00ce 03       		.uleb128 0x3
 673 00cf 72020000 		.4byte	.LASF18
 674 00d3 04       		.byte	0x4
 675 00d4 27       		.byte	0x27
 676 00d5 49000000 		.4byte	0x49
 677 00d9 03       		.uleb128 0x3
 678 00da E3000000 		.4byte	.LASF19
 679 00de 04       		.byte	0x4
 680 00df 28       		.byte	0x28
 681 00e0 49000000 		.4byte	0x49
 682 00e4 03       		.uleb128 0x3
 683 00e5 A9020000 		.4byte	.LASF20
 684 00e9 04       		.byte	0x4
 685 00ea 29       		.byte	0x29
 686 00eb 86000000 		.4byte	0x86
 687 00ef 03       		.uleb128 0x3
 688 00f0 B6010000 		.4byte	.LASF21
 689 00f4 04       		.byte	0x4
 690 00f5 2A       		.byte	0x2a
 691 00f6 74000000 		.4byte	0x74
 692 00fa 03       		.uleb128 0x3
 693 00fb EC010000 		.4byte	.LASF22
 694 00ff 04       		.byte	0x4
 695 0100 2C       		.byte	0x2c
 696 0101 86000000 		.4byte	0x86
 697 0105 03       		.uleb128 0x3
 698 0106 28040000 		.4byte	.LASF23
 699 010a 04       		.byte	0x4
 700 010b 2D       		.byte	0x2d
 701 010c 86000000 		.4byte	0x86
 702 0110 03       		.uleb128 0x3
 703 0111 F6030000 		.4byte	.LASF24
 704 0115 04       		.byte	0x4
 705 0116 2E       		.byte	0x2e
 706 0117 86000000 		.4byte	0x86
 707 011b 03       		.uleb128 0x3
 708 011c 36030000 		.4byte	.LASF25
 709 0120 05       		.byte	0x5
 710 0121 23       		.byte	0x23
 711 0122 26010000 		.4byte	0x126
 712 0126 05       		.uleb128 0x5
 713 0127 36030000 		.4byte	.LASF25
 714 012b 48       		.byte	0x48
 715 012c 06       		.byte	0x6
 716 012d 57       		.byte	0x57
 717 012e 4B020000 		.4byte	0x24b
 718 0132 06       		.uleb128 0x6
 719 0133 17030000 		.4byte	.LASF26
 720 0137 06       		.byte	0x6
 721 0138 58       		.byte	0x58
ARM GAS  C:\Users\TAISIK~1\AppData\Local\Temp\ccaTZTgg.s 			page 14


 722 0139 70020000 		.4byte	0x270
 723 013d 02       		.byte	0x2
 724 013e 23       		.byte	0x23
 725 013f 00       		.uleb128 0
 726 0140 06       		.uleb128 0x6
 727 0141 A2020000 		.4byte	.LASF27
 728 0145 06       		.byte	0x6
 729 0146 5A       		.byte	0x5a
 730 0147 70020000 		.4byte	0x270
 731 014b 02       		.byte	0x2
 732 014c 23       		.byte	0x23
 733 014d 04       		.uleb128 0x4
 734 014e 06       		.uleb128 0x6
 735 014f 35020000 		.4byte	.LASF28
 736 0153 06       		.byte	0x6
 737 0154 5C       		.byte	0x5c
 738 0155 E4000000 		.4byte	0xe4
 739 0159 02       		.byte	0x2
 740 015a 23       		.byte	0x23
 741 015b 08       		.uleb128 0x8
 742 015c 06       		.uleb128 0x6
 743 015d D7040000 		.4byte	.LASF29
 744 0161 06       		.byte	0x6
 745 0162 5D       		.byte	0x5d
 746 0163 3E030000 		.4byte	0x33e
 747 0167 02       		.byte	0x2
 748 0168 23       		.byte	0x23
 749 0169 0C       		.uleb128 0xc
 750 016a 06       		.uleb128 0x6
 751 016b 2D010000 		.4byte	.LASF30
 752 016f 06       		.byte	0x6
 753 0170 5F       		.byte	0x5f
 754 0171 70020000 		.4byte	0x270
 755 0175 02       		.byte	0x2
 756 0176 23       		.byte	0x23
 757 0177 10       		.uleb128 0x10
 758 0178 06       		.uleb128 0x6
 759 0179 44020000 		.4byte	.LASF31
 760 017d 06       		.byte	0x6
 761 017e 60       		.byte	0x60
 762 017f 70020000 		.4byte	0x270
 763 0183 02       		.byte	0x2
 764 0184 23       		.byte	0x23
 765 0185 14       		.uleb128 0x14
 766 0186 06       		.uleb128 0x6
 767 0187 3A040000 		.4byte	.LASF32
 768 018b 06       		.byte	0x6
 769 018c 67       		.byte	0x67
 770 018d 64040000 		.4byte	0x464
 771 0191 02       		.byte	0x2
 772 0192 23       		.byte	0x23
 773 0193 18       		.uleb128 0x18
 774 0194 06       		.uleb128 0x6
 775 0195 EA020000 		.4byte	.LASF33
 776 0199 06       		.byte	0x6
 777 019a 72       		.byte	0x72
 778 019b C3000000 		.4byte	0xc3
ARM GAS  C:\Users\TAISIK~1\AppData\Local\Temp\ccaTZTgg.s 			page 15


 779 019f 02       		.byte	0x2
 780 01a0 23       		.byte	0x23
 781 01a1 1C       		.uleb128 0x1c
 782 01a2 06       		.uleb128 0x6
 783 01a3 1E030000 		.4byte	.LASF34
 784 01a7 06       		.byte	0x6
 785 01a8 76       		.byte	0x76
 786 01a9 B8000000 		.4byte	0xb8
 787 01ad 02       		.byte	0x2
 788 01ae 23       		.byte	0x23
 789 01af 1D       		.uleb128 0x1d
 790 01b0 06       		.uleb128 0x6
 791 01b1 05010000 		.4byte	.LASF35
 792 01b5 06       		.byte	0x6
 793 01b6 7B       		.byte	0x7b
 794 01b7 CE000000 		.4byte	0xce
 795 01bb 02       		.byte	0x2
 796 01bc 23       		.byte	0x23
 797 01bd 1E       		.uleb128 0x1e
 798 01be 06       		.uleb128 0x6
 799 01bf 06030000 		.4byte	.LASF36
 800 01c3 06       		.byte	0x6
 801 01c4 81       		.byte	0x81
 802 01c5 D9000000 		.4byte	0xd9
 803 01c9 02       		.byte	0x2
 804 01ca 23       		.byte	0x23
 805 01cb 1F       		.uleb128 0x1f
 806 01cc 06       		.uleb128 0x6
 807 01cd 1D010000 		.4byte	.LASF37
 808 01d1 06       		.byte	0x6
 809 01d2 88       		.byte	0x88
 810 01d3 66030000 		.4byte	0x366
 811 01d7 02       		.byte	0x2
 812 01d8 23       		.byte	0x23
 813 01d9 20       		.uleb128 0x20
 814 01da 07       		.uleb128 0x7
 815 01db 705F7500 		.ascii	"p_u\000"
 816 01df 06       		.byte	0x6
 817 01e0 AD       		.byte	0xad
 818 01e1 2F040000 		.4byte	0x42f
 819 01e5 02       		.byte	0x2
 820 01e6 23       		.byte	0x23
 821 01e7 24       		.uleb128 0x24
 822 01e8 06       		.uleb128 0x6
 823 01e9 DD040000 		.4byte	.LASF38
 824 01ed 06       		.byte	0x6
 825 01ee B2       		.byte	0xb2
 826 01ef 98020000 		.4byte	0x298
 827 01f3 02       		.byte	0x2
 828 01f4 23       		.byte	0x23
 829 01f5 28       		.uleb128 0x28
 830 01f6 06       		.uleb128 0x6
 831 01f7 85010000 		.4byte	.LASF39
 832 01fb 06       		.byte	0x6
 833 01fc B8       		.byte	0xb8
 834 01fd 76020000 		.4byte	0x276
 835 0201 02       		.byte	0x2
ARM GAS  C:\Users\TAISIK~1\AppData\Local\Temp\ccaTZTgg.s 			page 16


 836 0202 23       		.byte	0x23
 837 0203 2C       		.uleb128 0x2c
 838 0204 06       		.uleb128 0x6
 839 0205 52040000 		.4byte	.LASF40
 840 0209 06       		.byte	0x6
 841 020a BC       		.byte	0xbc
 842 020b EF000000 		.4byte	0xef
 843 020f 02       		.byte	0x2
 844 0210 23       		.byte	0x23
 845 0211 34       		.uleb128 0x34
 846 0212 06       		.uleb128 0x6
 847 0213 3D030000 		.4byte	.LASF41
 848 0217 06       		.byte	0x6
 849 0218 C2       		.byte	0xc2
 850 0219 FA000000 		.4byte	0xfa
 851 021d 02       		.byte	0x2
 852 021e 23       		.byte	0x23
 853 021f 38       		.uleb128 0x38
 854 0220 06       		.uleb128 0x6
 855 0221 F2020000 		.4byte	.LASF42
 856 0225 06       		.byte	0x6
 857 0226 C9       		.byte	0xc9
 858 0227 76040000 		.4byte	0x476
 859 022b 02       		.byte	0x2
 860 022c 23       		.byte	0x23
 861 022d 3C       		.uleb128 0x3c
 862 022e 06       		.uleb128 0x6
 863 022f 00040000 		.4byte	.LASF43
 864 0233 06       		.byte	0x6
 865 0234 CD       		.byte	0xcd
 866 0235 E4000000 		.4byte	0xe4
 867 0239 02       		.byte	0x2
 868 023a 23       		.byte	0x23
 869 023b 40       		.uleb128 0x40
 870 023c 06       		.uleb128 0x6
 871 023d CC000000 		.4byte	.LASF44
 872 0241 06       		.byte	0x6
 873 0242 D3       		.byte	0xd3
 874 0243 AE020000 		.4byte	0x2ae
 875 0247 02       		.byte	0x2
 876 0248 23       		.byte	0x23
 877 0249 44       		.uleb128 0x44
 878 024a 00       		.byte	0
 879 024b 08       		.uleb128 0x8
 880 024c 08       		.byte	0x8
 881 024d 05       		.byte	0x5
 882 024e 5A       		.byte	0x5a
 883 024f 70020000 		.4byte	0x270
 884 0253 06       		.uleb128 0x6
 885 0254 17030000 		.4byte	.LASF26
 886 0258 05       		.byte	0x5
 887 0259 5B       		.byte	0x5b
 888 025a 70020000 		.4byte	0x270
 889 025e 02       		.byte	0x2
 890 025f 23       		.byte	0x23
 891 0260 00       		.uleb128 0
 892 0261 06       		.uleb128 0x6
ARM GAS  C:\Users\TAISIK~1\AppData\Local\Temp\ccaTZTgg.s 			page 17


 893 0262 A2020000 		.4byte	.LASF27
 894 0266 05       		.byte	0x5
 895 0267 5D       		.byte	0x5d
 896 0268 70020000 		.4byte	0x270
 897 026c 02       		.byte	0x2
 898 026d 23       		.byte	0x23
 899 026e 04       		.uleb128 0x4
 900 026f 00       		.byte	0
 901 0270 09       		.uleb128 0x9
 902 0271 04       		.byte	0x4
 903 0272 1B010000 		.4byte	0x11b
 904 0276 03       		.uleb128 0x3
 905 0277 4C020000 		.4byte	.LASF45
 906 027b 05       		.byte	0x5
 907 027c 5F       		.byte	0x5f
 908 027d 4B020000 		.4byte	0x24b
 909 0281 08       		.uleb128 0x8
 910 0282 04       		.byte	0x4
 911 0283 05       		.byte	0x5
 912 0284 64       		.byte	0x64
 913 0285 98020000 		.4byte	0x298
 914 0289 06       		.uleb128 0x6
 915 028a 17030000 		.4byte	.LASF26
 916 028e 05       		.byte	0x5
 917 028f 66       		.byte	0x66
 918 0290 70020000 		.4byte	0x270
 919 0294 02       		.byte	0x2
 920 0295 23       		.byte	0x23
 921 0296 00       		.uleb128 0
 922 0297 00       		.byte	0
 923 0298 03       		.uleb128 0x3
 924 0299 E0010000 		.4byte	.LASF46
 925 029d 05       		.byte	0x5
 926 029e 69       		.byte	0x69
 927 029f 81020000 		.4byte	0x281
 928 02a3 03       		.uleb128 0x3
 929 02a4 35010000 		.4byte	.LASF47
 930 02a8 07       		.byte	0x7
 931 02a9 DE       		.byte	0xde
 932 02aa AE020000 		.4byte	0x2ae
 933 02ae 0A       		.uleb128 0xa
 934 02af 04       		.byte	0x4
 935 02b0 0B       		.uleb128 0xb
 936 02b1 18040000 		.4byte	.LASF48
 937 02b5 24       		.byte	0x24
 938 02b6 07       		.byte	0x7
 939 02b7 0501     		.2byte	0x105
 940 02b9 3E030000 		.4byte	0x33e
 941 02bd 0C       		.uleb128 0xc
 942 02be 723400   		.ascii	"r4\000"
 943 02c1 07       		.byte	0x7
 944 02c2 1801     		.2byte	0x118
 945 02c4 A3020000 		.4byte	0x2a3
 946 02c8 02       		.byte	0x2
 947 02c9 23       		.byte	0x23
 948 02ca 00       		.uleb128 0
 949 02cb 0C       		.uleb128 0xc
ARM GAS  C:\Users\TAISIK~1\AppData\Local\Temp\ccaTZTgg.s 			page 18


 950 02cc 723500   		.ascii	"r5\000"
 951 02cf 07       		.byte	0x7
 952 02d0 1901     		.2byte	0x119
 953 02d2 A3020000 		.4byte	0x2a3
 954 02d6 02       		.byte	0x2
 955 02d7 23       		.byte	0x23
 956 02d8 04       		.uleb128 0x4
 957 02d9 0C       		.uleb128 0xc
 958 02da 723600   		.ascii	"r6\000"
 959 02dd 07       		.byte	0x7
 960 02de 1A01     		.2byte	0x11a
 961 02e0 A3020000 		.4byte	0x2a3
 962 02e4 02       		.byte	0x2
 963 02e5 23       		.byte	0x23
 964 02e6 08       		.uleb128 0x8
 965 02e7 0C       		.uleb128 0xc
 966 02e8 723700   		.ascii	"r7\000"
 967 02eb 07       		.byte	0x7
 968 02ec 1B01     		.2byte	0x11b
 969 02ee A3020000 		.4byte	0x2a3
 970 02f2 02       		.byte	0x2
 971 02f3 23       		.byte	0x23
 972 02f4 0C       		.uleb128 0xc
 973 02f5 0C       		.uleb128 0xc
 974 02f6 723800   		.ascii	"r8\000"
 975 02f9 07       		.byte	0x7
 976 02fa 1C01     		.2byte	0x11c
 977 02fc A3020000 		.4byte	0x2a3
 978 0300 02       		.byte	0x2
 979 0301 23       		.byte	0x23
 980 0302 10       		.uleb128 0x10
 981 0303 0C       		.uleb128 0xc
 982 0304 723900   		.ascii	"r9\000"
 983 0307 07       		.byte	0x7
 984 0308 1D01     		.2byte	0x11d
 985 030a A3020000 		.4byte	0x2a3
 986 030e 02       		.byte	0x2
 987 030f 23       		.byte	0x23
 988 0310 14       		.uleb128 0x14
 989 0311 0C       		.uleb128 0xc
 990 0312 72313000 		.ascii	"r10\000"
 991 0316 07       		.byte	0x7
 992 0317 1E01     		.2byte	0x11e
 993 0319 A3020000 		.4byte	0x2a3
 994 031d 02       		.byte	0x2
 995 031e 23       		.byte	0x23
 996 031f 18       		.uleb128 0x18
 997 0320 0C       		.uleb128 0xc
 998 0321 72313100 		.ascii	"r11\000"
 999 0325 07       		.byte	0x7
 1000 0326 1F01     		.2byte	0x11f
 1001 0328 A3020000 		.4byte	0x2a3
 1002 032c 02       		.byte	0x2
 1003 032d 23       		.byte	0x23
 1004 032e 1C       		.uleb128 0x1c
 1005 032f 0C       		.uleb128 0xc
 1006 0330 6C7200   		.ascii	"lr\000"
ARM GAS  C:\Users\TAISIK~1\AppData\Local\Temp\ccaTZTgg.s 			page 19


 1007 0333 07       		.byte	0x7
 1008 0334 2001     		.2byte	0x120
 1009 0336 A3020000 		.4byte	0x2a3
 1010 033a 02       		.byte	0x2
 1011 033b 23       		.byte	0x23
 1012 033c 20       		.uleb128 0x20
 1013 033d 00       		.byte	0
 1014 033e 0B       		.uleb128 0xb
 1015 033f 10040000 		.4byte	.LASF49
 1016 0343 04       		.byte	0x4
 1017 0344 07       		.byte	0x7
 1018 0345 2A01     		.2byte	0x12a
 1019 0347 5B030000 		.4byte	0x35b
 1020 034b 0C       		.uleb128 0xc
 1021 034c 72313300 		.ascii	"r13\000"
 1022 0350 07       		.byte	0x7
 1023 0351 2B01     		.2byte	0x12b
 1024 0353 5B030000 		.4byte	0x35b
 1025 0357 02       		.byte	0x2
 1026 0358 23       		.byte	0x23
 1027 0359 00       		.uleb128 0
 1028 035a 00       		.byte	0
 1029 035b 09       		.uleb128 0x9
 1030 035c 04       		.byte	0x4
 1031 035d B0020000 		.4byte	0x2b0
 1032 0361 0D       		.uleb128 0xd
 1033 0362 86000000 		.4byte	0x86
 1034 0366 0D       		.uleb128 0xd
 1035 0367 10010000 		.4byte	0x110
 1036 036b 05       		.uleb128 0x5
 1037 036c 2F020000 		.4byte	.LASF50
 1038 0370 10       		.byte	0x10
 1039 0371 08       		.byte	0x8
 1040 0372 25       		.byte	0x25
 1041 0373 A2030000 		.4byte	0x3a2
 1042 0377 06       		.uleb128 0x6
 1043 0378 DB000000 		.4byte	.LASF51
 1044 037c 08       		.byte	0x8
 1045 037d 26       		.byte	0x26
 1046 037e 76020000 		.4byte	0x276
 1047 0382 02       		.byte	0x2
 1048 0383 23       		.byte	0x23
 1049 0384 00       		.uleb128 0
 1050 0385 06       		.uleb128 0x6
 1051 0386 CF040000 		.4byte	.LASF52
 1052 038a 08       		.byte	0x8
 1053 038b 28       		.byte	0x28
 1054 038c 70020000 		.4byte	0x270
 1055 0390 02       		.byte	0x2
 1056 0391 23       		.byte	0x23
 1057 0392 08       		.uleb128 0x8
 1058 0393 06       		.uleb128 0x6
 1059 0394 EF030000 		.4byte	.LASF53
 1060 0398 08       		.byte	0x8
 1061 0399 2A       		.byte	0x2a
 1062 039a A2030000 		.4byte	0x3a2
 1063 039e 02       		.byte	0x2
ARM GAS  C:\Users\TAISIK~1\AppData\Local\Temp\ccaTZTgg.s 			page 20


 1064 039f 23       		.byte	0x23
 1065 03a0 0C       		.uleb128 0xc
 1066 03a1 00       		.byte	0
 1067 03a2 09       		.uleb128 0x9
 1068 03a3 04       		.byte	0x4
 1069 03a4 6B030000 		.4byte	0x36b
 1070 03a8 03       		.uleb128 0x3
 1071 03a9 2F020000 		.4byte	.LASF50
 1072 03ad 08       		.byte	0x8
 1073 03ae 2C       		.byte	0x2c
 1074 03af 6B030000 		.4byte	0x36b
 1075 03b3 03       		.uleb128 0x3
 1076 03b4 91040000 		.4byte	.LASF54
 1077 03b8 09       		.byte	0x9
 1078 03b9 25       		.byte	0x25
 1079 03ba BE030000 		.4byte	0x3be
 1080 03be 05       		.uleb128 0x5
 1081 03bf 91040000 		.4byte	.LASF54
 1082 03c3 10       		.byte	0x10
 1083 03c4 09       		.byte	0x9
 1084 03c5 2A       		.byte	0x2a
 1085 03c6 03040000 		.4byte	0x403
 1086 03ca 06       		.uleb128 0x6
 1087 03cb 26030000 		.4byte	.LASF55
 1088 03cf 09       		.byte	0x9
 1089 03d0 2B       		.byte	0x2b
 1090 03d1 03040000 		.4byte	0x403
 1091 03d5 02       		.byte	0x2
 1092 03d6 23       		.byte	0x23
 1093 03d7 00       		.uleb128 0
 1094 03d8 06       		.uleb128 0x6
 1095 03d9 D5020000 		.4byte	.LASF56
 1096 03dd 09       		.byte	0x9
 1097 03de 2E       		.byte	0x2e
 1098 03df 70020000 		.4byte	0x270
 1099 03e3 02       		.byte	0x2
 1100 03e4 23       		.byte	0x23
 1101 03e5 04       		.uleb128 0x4
 1102 03e6 06       		.uleb128 0x6
 1103 03e7 3C020000 		.4byte	.LASF57
 1104 03eb 09       		.byte	0x9
 1105 03ec 30       		.byte	0x30
 1106 03ed FA000000 		.4byte	0xfa
 1107 03f1 02       		.byte	0x2
 1108 03f2 23       		.byte	0x23
 1109 03f3 08       		.uleb128 0x8
 1110 03f4 06       		.uleb128 0x6
 1111 03f5 E1020000 		.4byte	.LASF58
 1112 03f9 09       		.byte	0x9
 1113 03fa 33       		.byte	0x33
 1114 03fb 05010000 		.4byte	0x105
 1115 03ff 02       		.byte	0x2
 1116 0400 23       		.byte	0x23
 1117 0401 0C       		.uleb128 0xc
 1118 0402 00       		.byte	0
 1119 0403 09       		.uleb128 0x9
 1120 0404 04       		.byte	0x4
ARM GAS  C:\Users\TAISIK~1\AppData\Local\Temp\ccaTZTgg.s 			page 21


 1121 0405 B3030000 		.4byte	0x3b3
 1122 0409 05       		.uleb128 0x5
 1123 040a 3E010000 		.4byte	.LASF59
 1124 040e 04       		.byte	0x4
 1125 040f 09       		.byte	0x9
 1126 0410 3A       		.byte	0x3a
 1127 0411 24040000 		.4byte	0x424
 1128 0415 06       		.uleb128 0x6
 1129 0416 41040000 		.4byte	.LASF60
 1130 041a 09       		.byte	0x9
 1131 041b 3B       		.byte	0x3b
 1132 041c 03040000 		.4byte	0x403
 1133 0420 02       		.byte	0x2
 1134 0421 23       		.byte	0x23
 1135 0422 00       		.uleb128 0
 1136 0423 00       		.byte	0
 1137 0424 03       		.uleb128 0x3
 1138 0425 3E010000 		.4byte	.LASF59
 1139 0429 09       		.byte	0x9
 1140 042a 3E       		.byte	0x3e
 1141 042b 09040000 		.4byte	0x409
 1142 042f 0E       		.uleb128 0xe
 1143 0430 04       		.byte	0x4
 1144 0431 06       		.byte	0x6
 1145 0432 8F       		.byte	0x8f
 1146 0433 64040000 		.4byte	0x464
 1147 0437 0F       		.uleb128 0xf
 1148 0438 07000000 		.4byte	.LASF61
 1149 043c 06       		.byte	0x6
 1150 043d 96       		.byte	0x96
 1151 043e EF000000 		.4byte	0xef
 1152 0442 0F       		.uleb128 0xf
 1153 0443 7A000000 		.4byte	.LASF62
 1154 0447 06       		.byte	0x6
 1155 0448 9D       		.byte	0x9d
 1156 0449 EF000000 		.4byte	0xef
 1157 044d 0F       		.uleb128 0xf
 1158 044e 9F040000 		.4byte	.LASF63
 1159 0452 06       		.byte	0x6
 1160 0453 A4       		.byte	0xa4
 1161 0454 AE020000 		.4byte	0x2ae
 1162 0458 0F       		.uleb128 0xf
 1163 0459 10030000 		.4byte	.LASF64
 1164 045d 06       		.byte	0x6
 1165 045e AB       		.byte	0xab
 1166 045f FA000000 		.4byte	0xfa
 1167 0463 00       		.byte	0
 1168 0464 09       		.uleb128 0x9
 1169 0465 04       		.byte	0x4
 1170 0466 6A040000 		.4byte	0x46a
 1171 046a 10       		.uleb128 0x10
 1172 046b 6F040000 		.4byte	0x46f
 1173 046f 04       		.uleb128 0x4
 1174 0470 01       		.byte	0x1
 1175 0471 08       		.byte	0x8
 1176 0472 93030000 		.4byte	.LASF65
 1177 0476 09       		.uleb128 0x9
ARM GAS  C:\Users\TAISIK~1\AppData\Local\Temp\ccaTZTgg.s 			page 22


 1178 0477 04       		.byte	0x4
 1179 0478 A8030000 		.4byte	0x3a8
 1180 047c 09       		.uleb128 0x9
 1181 047d 04       		.byte	0x4
 1182 047e 82040000 		.4byte	0x482
 1183 0482 11       		.uleb128 0x11
 1184 0483 01       		.byte	0x1
 1185 0484 EF000000 		.4byte	0xef
 1186 0488 92040000 		.4byte	0x492
 1187 048c 12       		.uleb128 0x12
 1188 048d AE020000 		.4byte	0x2ae
 1189 0491 00       		.byte	0
 1190 0492 03       		.uleb128 0x3
 1191 0493 0D020000 		.4byte	.LASF66
 1192 0497 0A       		.byte	0xa
 1193 0498 30       		.byte	0x30
 1194 0499 9D040000 		.4byte	0x49d
 1195 049d 05       		.uleb128 0x5
 1196 049e 0D020000 		.4byte	.LASF66
 1197 04a2 24       		.byte	0x24
 1198 04a3 0A       		.byte	0xa
 1199 04a4 3E       		.byte	0x3e
 1200 04a5 1A050000 		.4byte	0x51a
 1201 04a9 06       		.uleb128 0x6
 1202 04aa A3000000 		.4byte	.LASF67
 1203 04ae 0A       		.byte	0xa
 1204 04af 3F       		.byte	0x3f
 1205 04b0 76020000 		.4byte	0x276
 1206 04b4 02       		.byte	0x2
 1207 04b5 23       		.byte	0x23
 1208 04b6 00       		.uleb128 0
 1209 04b7 06       		.uleb128 0x6
 1210 04b8 25020000 		.4byte	.LASF68
 1211 04bc 0A       		.byte	0xa
 1212 04bd 40       		.byte	0x40
 1213 04be 30000000 		.4byte	0x30
 1214 04c2 02       		.byte	0x2
 1215 04c3 23       		.byte	0x23
 1216 04c4 08       		.uleb128 0x8
 1217 04c5 06       		.uleb128 0x6
 1218 04c6 0C010000 		.4byte	.LASF69
 1219 04ca 0A       		.byte	0xa
 1220 04cb 41       		.byte	0x41
 1221 04cc 3D050000 		.4byte	0x53d
 1222 04d0 02       		.byte	0x2
 1223 04d1 23       		.byte	0x23
 1224 04d2 0C       		.uleb128 0xc
 1225 04d3 06       		.uleb128 0x6
 1226 04d4 34040000 		.4byte	.LASF70
 1227 04d8 0A       		.byte	0xa
 1228 04d9 42       		.byte	0x42
 1229 04da 3D050000 		.4byte	0x53d
 1230 04de 02       		.byte	0x2
 1231 04df 23       		.byte	0x23
 1232 04e0 10       		.uleb128 0x10
 1233 04e1 06       		.uleb128 0x6
 1234 04e2 15010000 		.4byte	.LASF71
ARM GAS  C:\Users\TAISIK~1\AppData\Local\Temp\ccaTZTgg.s 			page 23


 1235 04e6 0A       		.byte	0xa
 1236 04e7 44       		.byte	0x44
 1237 04e8 3D050000 		.4byte	0x53d
 1238 04ec 02       		.byte	0x2
 1239 04ed 23       		.byte	0x23
 1240 04ee 14       		.uleb128 0x14
 1241 04ef 06       		.uleb128 0x6
 1242 04f0 B1020000 		.4byte	.LASF72
 1243 04f4 0A       		.byte	0xa
 1244 04f5 45       		.byte	0x45
 1245 04f6 3D050000 		.4byte	0x53d
 1246 04fa 02       		.byte	0x2
 1247 04fb 23       		.byte	0x23
 1248 04fc 18       		.uleb128 0x18
 1249 04fd 06       		.uleb128 0x6
 1250 04fe 49040000 		.4byte	.LASF73
 1251 0502 0A       		.byte	0xa
 1252 0503 46       		.byte	0x46
 1253 0504 1A050000 		.4byte	0x51a
 1254 0508 02       		.byte	0x2
 1255 0509 23       		.byte	0x23
 1256 050a 1C       		.uleb128 0x1c
 1257 050b 06       		.uleb128 0x6
 1258 050c C8040000 		.4byte	.LASF74
 1259 0510 0A       		.byte	0xa
 1260 0511 47       		.byte	0x47
 1261 0512 AE020000 		.4byte	0x2ae
 1262 0516 02       		.byte	0x2
 1263 0517 23       		.byte	0x23
 1264 0518 20       		.uleb128 0x20
 1265 0519 00       		.byte	0
 1266 051a 03       		.uleb128 0x3
 1267 051b 03020000 		.4byte	.LASF75
 1268 051f 0A       		.byte	0xa
 1269 0520 33       		.byte	0x33
 1270 0521 25050000 		.4byte	0x525
 1271 0525 09       		.uleb128 0x9
 1272 0526 04       		.byte	0x4
 1273 0527 2B050000 		.4byte	0x52b
 1274 052b 13       		.uleb128 0x13
 1275 052c 01       		.byte	0x1
 1276 052d 37050000 		.4byte	0x537
 1277 0531 12       		.uleb128 0x12
 1278 0532 37050000 		.4byte	0x537
 1279 0536 00       		.byte	0
 1280 0537 09       		.uleb128 0x9
 1281 0538 04       		.byte	0x4
 1282 0539 92040000 		.4byte	0x492
 1283 053d 09       		.uleb128 0x9
 1284 053e 04       		.byte	0x4
 1285 053f 49000000 		.4byte	0x49
 1286 0543 03       		.uleb128 0x3
 1287 0544 F8010000 		.4byte	.LASF76
 1288 0548 0A       		.byte	0xa
 1289 0549 7B       		.byte	0x7b
 1290 054a 92040000 		.4byte	0x492
 1291 054e 03       		.uleb128 0x3
ARM GAS  C:\Users\TAISIK~1\AppData\Local\Temp\ccaTZTgg.s 			page 24


 1292 054f 0E000000 		.4byte	.LASF77
 1293 0553 0A       		.byte	0xa
 1294 0554 EE       		.byte	0xee
 1295 0555 92040000 		.4byte	0x492
 1296 0559 11       		.uleb128 0x11
 1297 055a 01       		.byte	0x1
 1298 055b 30000000 		.4byte	0x30
 1299 055f 73050000 		.4byte	0x573
 1300 0563 12       		.uleb128 0x12
 1301 0564 AE020000 		.4byte	0x2ae
 1302 0568 12       		.uleb128 0x12
 1303 0569 73050000 		.4byte	0x573
 1304 056d 12       		.uleb128 0x12
 1305 056e 30000000 		.4byte	0x30
 1306 0572 00       		.byte	0
 1307 0573 09       		.uleb128 0x9
 1308 0574 04       		.byte	0x4
 1309 0575 79050000 		.4byte	0x579
 1310 0579 10       		.uleb128 0x10
 1311 057a 49000000 		.4byte	0x49
 1312 057e 09       		.uleb128 0x9
 1313 057f 04       		.byte	0x4
 1314 0580 59050000 		.4byte	0x559
 1315 0584 11       		.uleb128 0x11
 1316 0585 01       		.byte	0x1
 1317 0586 30000000 		.4byte	0x30
 1318 058a 9E050000 		.4byte	0x59e
 1319 058e 12       		.uleb128 0x12
 1320 058f AE020000 		.4byte	0x2ae
 1321 0593 12       		.uleb128 0x12
 1322 0594 3D050000 		.4byte	0x53d
 1323 0598 12       		.uleb128 0x12
 1324 0599 30000000 		.4byte	0x30
 1325 059d 00       		.byte	0
 1326 059e 09       		.uleb128 0x9
 1327 059f 04       		.byte	0x4
 1328 05a0 84050000 		.4byte	0x584
 1329 05a4 11       		.uleb128 0x11
 1330 05a5 01       		.byte	0x1
 1331 05a6 EF000000 		.4byte	0xef
 1332 05aa B9050000 		.4byte	0x5b9
 1333 05ae 12       		.uleb128 0x12
 1334 05af AE020000 		.4byte	0x2ae
 1335 05b3 12       		.uleb128 0x12
 1336 05b4 49000000 		.4byte	0x49
 1337 05b8 00       		.byte	0
 1338 05b9 09       		.uleb128 0x9
 1339 05ba 04       		.byte	0x4
 1340 05bb A4050000 		.4byte	0x5a4
 1341 05bf 0D       		.uleb128 0xd
 1342 05c0 62000000 		.4byte	0x62
 1343 05c4 0D       		.uleb128 0xd
 1344 05c5 74000000 		.4byte	0x74
 1345 05c9 14       		.uleb128 0x14
 1346 05ca 2C       		.byte	0x2c
 1347 05cb 0B       		.byte	0xb
 1348 05cc 3103     		.2byte	0x331
ARM GAS  C:\Users\TAISIK~1\AppData\Local\Temp\ccaTZTgg.s 			page 25


 1349 05ce C3060000 		.4byte	0x6c3
 1350 05d2 0C       		.uleb128 0xc
 1351 05d3 43523100 		.ascii	"CR1\000"
 1352 05d7 0B       		.byte	0xb
 1353 05d8 3303     		.2byte	0x333
 1354 05da 61030000 		.4byte	0x361
 1355 05de 02       		.byte	0x2
 1356 05df 23       		.byte	0x23
 1357 05e0 00       		.uleb128 0
 1358 05e1 0C       		.uleb128 0xc
 1359 05e2 43523200 		.ascii	"CR2\000"
 1360 05e6 0B       		.byte	0xb
 1361 05e7 3403     		.2byte	0x334
 1362 05e9 61030000 		.4byte	0x361
 1363 05ed 02       		.byte	0x2
 1364 05ee 23       		.byte	0x23
 1365 05ef 04       		.uleb128 0x4
 1366 05f0 0C       		.uleb128 0xc
 1367 05f1 43523300 		.ascii	"CR3\000"
 1368 05f5 0B       		.byte	0xb
 1369 05f6 3503     		.2byte	0x335
 1370 05f8 61030000 		.4byte	0x361
 1371 05fc 02       		.byte	0x2
 1372 05fd 23       		.byte	0x23
 1373 05fe 08       		.uleb128 0x8
 1374 05ff 0C       		.uleb128 0xc
 1375 0600 42525200 		.ascii	"BRR\000"
 1376 0604 0B       		.byte	0xb
 1377 0605 3603     		.2byte	0x336
 1378 0607 BF050000 		.4byte	0x5bf
 1379 060b 02       		.byte	0x2
 1380 060c 23       		.byte	0x23
 1381 060d 0C       		.uleb128 0xc
 1382 060e 15       		.uleb128 0x15
 1383 060f 7A020000 		.4byte	.LASF78
 1384 0613 0B       		.byte	0xb
 1385 0614 3703     		.2byte	0x337
 1386 0616 62000000 		.4byte	0x62
 1387 061a 02       		.byte	0x2
 1388 061b 23       		.byte	0x23
 1389 061c 0E       		.uleb128 0xe
 1390 061d 15       		.uleb128 0x15
 1391 061e C7000000 		.4byte	.LASF79
 1392 0622 0B       		.byte	0xb
 1393 0623 3803     		.2byte	0x338
 1394 0625 BF050000 		.4byte	0x5bf
 1395 0629 02       		.byte	0x2
 1396 062a 23       		.byte	0x23
 1397 062b 10       		.uleb128 0x10
 1398 062c 15       		.uleb128 0x15
 1399 062d 84020000 		.4byte	.LASF80
 1400 0631 0B       		.byte	0xb
 1401 0632 3903     		.2byte	0x339
 1402 0634 62000000 		.4byte	0x62
 1403 0638 02       		.byte	0x2
 1404 0639 23       		.byte	0x23
 1405 063a 12       		.uleb128 0x12
ARM GAS  C:\Users\TAISIK~1\AppData\Local\Temp\ccaTZTgg.s 			page 26


 1406 063b 15       		.uleb128 0x15
 1407 063c 0B040000 		.4byte	.LASF81
 1408 0640 0B       		.byte	0xb
 1409 0641 3A03     		.2byte	0x33a
 1410 0643 61030000 		.4byte	0x361
 1411 0647 02       		.byte	0x2
 1412 0648 23       		.byte	0x23
 1413 0649 14       		.uleb128 0x14
 1414 064a 0C       		.uleb128 0xc
 1415 064b 52515200 		.ascii	"RQR\000"
 1416 064f 0B       		.byte	0xb
 1417 0650 3B03     		.2byte	0x33b
 1418 0652 BF050000 		.4byte	0x5bf
 1419 0656 02       		.byte	0x2
 1420 0657 23       		.byte	0x23
 1421 0658 18       		.uleb128 0x18
 1422 0659 15       		.uleb128 0x15
 1423 065a 8E020000 		.4byte	.LASF82
 1424 065e 0B       		.byte	0xb
 1425 065f 3C03     		.2byte	0x33c
 1426 0661 62000000 		.4byte	0x62
 1427 0665 02       		.byte	0x2
 1428 0666 23       		.byte	0x23
 1429 0667 1A       		.uleb128 0x1a
 1430 0668 0C       		.uleb128 0xc
 1431 0669 49535200 		.ascii	"ISR\000"
 1432 066d 0B       		.byte	0xb
 1433 066e 3D03     		.2byte	0x33d
 1434 0670 61030000 		.4byte	0x361
 1435 0674 02       		.byte	0x2
 1436 0675 23       		.byte	0x23
 1437 0676 1C       		.uleb128 0x1c
 1438 0677 0C       		.uleb128 0xc
 1439 0678 49435200 		.ascii	"ICR\000"
 1440 067c 0B       		.byte	0xb
 1441 067d 3E03     		.2byte	0x33e
 1442 067f 61030000 		.4byte	0x361
 1443 0683 02       		.byte	0x2
 1444 0684 23       		.byte	0x23
 1445 0685 20       		.uleb128 0x20
 1446 0686 0C       		.uleb128 0xc
 1447 0687 52445200 		.ascii	"RDR\000"
 1448 068b 0B       		.byte	0xb
 1449 068c 3F03     		.2byte	0x33f
 1450 068e BF050000 		.4byte	0x5bf
 1451 0692 02       		.byte	0x2
 1452 0693 23       		.byte	0x23
 1453 0694 24       		.uleb128 0x24
 1454 0695 15       		.uleb128 0x15
 1455 0696 98020000 		.4byte	.LASF83
 1456 069a 0B       		.byte	0xb
 1457 069b 4003     		.2byte	0x340
 1458 069d 62000000 		.4byte	0x62
 1459 06a1 02       		.byte	0x2
 1460 06a2 23       		.byte	0x23
 1461 06a3 26       		.uleb128 0x26
 1462 06a4 0C       		.uleb128 0xc
ARM GAS  C:\Users\TAISIK~1\AppData\Local\Temp\ccaTZTgg.s 			page 27


 1463 06a5 54445200 		.ascii	"TDR\000"
 1464 06a9 0B       		.byte	0xb
 1465 06aa 4103     		.2byte	0x341
 1466 06ac BF050000 		.4byte	0x5bf
 1467 06b0 02       		.byte	0x2
 1468 06b1 23       		.byte	0x23
 1469 06b2 28       		.uleb128 0x28
 1470 06b3 15       		.uleb128 0x15
 1471 06b4 52030000 		.4byte	.LASF84
 1472 06b8 0B       		.byte	0xb
 1473 06b9 4203     		.2byte	0x342
 1474 06bb 62000000 		.4byte	0x62
 1475 06bf 02       		.byte	0x2
 1476 06c0 23       		.byte	0x23
 1477 06c1 2A       		.uleb128 0x2a
 1478 06c2 00       		.byte	0
 1479 06c3 16       		.uleb128 0x16
 1480 06c4 C3010000 		.4byte	.LASF85
 1481 06c8 0B       		.byte	0xb
 1482 06c9 4303     		.2byte	0x343
 1483 06cb C9050000 		.4byte	0x5c9
 1484 06cf 11       		.uleb128 0x11
 1485 06d0 01       		.byte	0x1
 1486 06d1 EF000000 		.4byte	0xef
 1487 06d5 E9060000 		.4byte	0x6e9
 1488 06d9 12       		.uleb128 0x12
 1489 06da AE020000 		.4byte	0x2ae
 1490 06de 12       		.uleb128 0x12
 1491 06df 49000000 		.4byte	0x49
 1492 06e3 12       		.uleb128 0x12
 1493 06e4 10010000 		.4byte	0x110
 1494 06e8 00       		.byte	0
 1495 06e9 09       		.uleb128 0x9
 1496 06ea 04       		.byte	0x4
 1497 06eb CF060000 		.4byte	0x6cf
 1498 06ef 11       		.uleb128 0x11
 1499 06f0 01       		.byte	0x1
 1500 06f1 EF000000 		.4byte	0xef
 1501 06f5 04070000 		.4byte	0x704
 1502 06f9 12       		.uleb128 0x12
 1503 06fa AE020000 		.4byte	0x2ae
 1504 06fe 12       		.uleb128 0x12
 1505 06ff 10010000 		.4byte	0x110
 1506 0703 00       		.byte	0
 1507 0704 09       		.uleb128 0x9
 1508 0705 04       		.byte	0x4
 1509 0706 EF060000 		.4byte	0x6ef
 1510 070a 11       		.uleb128 0x11
 1511 070b 01       		.byte	0x1
 1512 070c 30000000 		.4byte	0x30
 1513 0710 29070000 		.4byte	0x729
 1514 0714 12       		.uleb128 0x12
 1515 0715 AE020000 		.4byte	0x2ae
 1516 0719 12       		.uleb128 0x12
 1517 071a 73050000 		.4byte	0x573
 1518 071e 12       		.uleb128 0x12
 1519 071f 30000000 		.4byte	0x30
ARM GAS  C:\Users\TAISIK~1\AppData\Local\Temp\ccaTZTgg.s 			page 28


 1520 0723 12       		.uleb128 0x12
 1521 0724 10010000 		.4byte	0x110
 1522 0728 00       		.byte	0
 1523 0729 09       		.uleb128 0x9
 1524 072a 04       		.byte	0x4
 1525 072b 0A070000 		.4byte	0x70a
 1526 072f 11       		.uleb128 0x11
 1527 0730 01       		.byte	0x1
 1528 0731 30000000 		.4byte	0x30
 1529 0735 4E070000 		.4byte	0x74e
 1530 0739 12       		.uleb128 0x12
 1531 073a AE020000 		.4byte	0x2ae
 1532 073e 12       		.uleb128 0x12
 1533 073f 3D050000 		.4byte	0x53d
 1534 0743 12       		.uleb128 0x12
 1535 0744 30000000 		.4byte	0x30
 1536 0748 12       		.uleb128 0x12
 1537 0749 10010000 		.4byte	0x110
 1538 074d 00       		.byte	0
 1539 074e 09       		.uleb128 0x9
 1540 074f 04       		.byte	0x4
 1541 0750 2F070000 		.4byte	0x72f
 1542 0754 17       		.uleb128 0x17
 1543 0755 01       		.byte	0x1
 1544 0756 0C       		.byte	0xc
 1545 0757 5D       		.byte	0x5d
 1546 0758 6F070000 		.4byte	0x76f
 1547 075c 18       		.uleb128 0x18
 1548 075d 48030000 		.4byte	.LASF86
 1549 0761 00       		.sleb128 0
 1550 0762 18       		.uleb128 0x18
 1551 0763 2E030000 		.4byte	.LASF87
 1552 0767 01       		.sleb128 1
 1553 0768 18       		.uleb128 0x18
 1554 0769 1F040000 		.4byte	.LASF88
 1555 076d 02       		.sleb128 2
 1556 076e 00       		.byte	0
 1557 076f 03       		.uleb128 0x3
 1558 0770 65030000 		.4byte	.LASF89
 1559 0774 0C       		.byte	0xc
 1560 0775 61       		.byte	0x61
 1561 0776 54070000 		.4byte	0x754
 1562 077a 03       		.uleb128 0x3
 1563 077b 6F030000 		.4byte	.LASF90
 1564 077f 0C       		.byte	0xc
 1565 0780 66       		.byte	0x66
 1566 0781 85070000 		.4byte	0x785
 1567 0785 05       		.uleb128 0x5
 1568 0786 6F030000 		.4byte	.LASF90
 1569 078a 7C       		.byte	0x7c
 1570 078b 0C       		.byte	0xc
 1571 078c 80       		.byte	0x80
 1572 078d 0E080000 		.4byte	0x80e
 1573 0791 07       		.uleb128 0x7
 1574 0792 766D7400 		.ascii	"vmt\000"
 1575 0796 0C       		.byte	0xc
 1576 0797 82       		.byte	0x82
ARM GAS  C:\Users\TAISIK~1\AppData\Local\Temp\ccaTZTgg.s 			page 29


 1577 0798 D7080000 		.4byte	0x8d7
 1578 079c 02       		.byte	0x2
 1579 079d 23       		.byte	0x23
 1580 079e 00       		.uleb128 0
 1581 079f 06       		.uleb128 0x6
 1582 07a0 9D010000 		.4byte	.LASF91
 1583 07a4 0C       		.byte	0xc
 1584 07a5 83       		.byte	0x83
 1585 07a6 24040000 		.4byte	0x424
 1586 07aa 02       		.byte	0x2
 1587 07ab 23       		.byte	0x23
 1588 07ac 04       		.uleb128 0x4
 1589 07ad 06       		.uleb128 0x6
 1590 07ae ED000000 		.4byte	.LASF92
 1591 07b2 0C       		.byte	0xc
 1592 07b3 83       		.byte	0x83
 1593 07b4 6F070000 		.4byte	0x76f
 1594 07b8 02       		.byte	0x2
 1595 07b9 23       		.byte	0x23
 1596 07ba 08       		.uleb128 0x8
 1597 07bb 06       		.uleb128 0x6
 1598 07bc 7E010000 		.4byte	.LASF93
 1599 07c0 0C       		.byte	0xc
 1600 07c1 83       		.byte	0x83
 1601 07c2 43050000 		.4byte	0x543
 1602 07c6 02       		.byte	0x2
 1603 07c7 23       		.byte	0x23
 1604 07c8 0C       		.uleb128 0xc
 1605 07c9 06       		.uleb128 0x6
 1606 07ca BC010000 		.4byte	.LASF94
 1607 07ce 0C       		.byte	0xc
 1608 07cf 83       		.byte	0x83
 1609 07d0 4E050000 		.4byte	0x54e
 1610 07d4 02       		.byte	0x2
 1611 07d5 23       		.byte	0x23
 1612 07d6 30       		.uleb128 0x30
 1613 07d7 07       		.uleb128 0x7
 1614 07d8 696200   		.ascii	"ib\000"
 1615 07db 0C       		.byte	0xc
 1616 07dc 83       		.byte	0x83
 1617 07dd E2080000 		.4byte	0x8e2
 1618 07e1 02       		.byte	0x2
 1619 07e2 23       		.byte	0x23
 1620 07e3 54       		.uleb128 0x54
 1621 07e4 07       		.uleb128 0x7
 1622 07e5 6F6200   		.ascii	"ob\000"
 1623 07e8 0C       		.byte	0xc
 1624 07e9 83       		.byte	0x83
 1625 07ea E2080000 		.4byte	0x8e2
 1626 07ee 02       		.byte	0x2
 1627 07ef 23       		.byte	0x23
 1628 07f0 64       		.uleb128 0x64
 1629 07f1 06       		.uleb128 0x6
 1630 07f2 4A010000 		.4byte	.LASF95
 1631 07f6 0C       		.byte	0xc
 1632 07f7 83       		.byte	0x83
 1633 07f8 F2080000 		.4byte	0x8f2
ARM GAS  C:\Users\TAISIK~1\AppData\Local\Temp\ccaTZTgg.s 			page 30


 1634 07fc 02       		.byte	0x2
 1635 07fd 23       		.byte	0x23
 1636 07fe 74       		.uleb128 0x74
 1637 07ff 06       		.uleb128 0x6
 1638 0800 A6040000 		.4byte	.LASF96
 1639 0804 0C       		.byte	0xc
 1640 0805 83       		.byte	0x83
 1641 0806 86000000 		.4byte	0x86
 1642 080a 02       		.byte	0x2
 1643 080b 23       		.byte	0x23
 1644 080c 78       		.uleb128 0x78
 1645 080d 00       		.byte	0
 1646 080e 08       		.uleb128 0x8
 1647 080f 0C       		.byte	0xc
 1648 0810 0D       		.byte	0xd
 1649 0811 DB       		.byte	0xdb
 1650 0812 4F080000 		.4byte	0x84f
 1651 0816 06       		.uleb128 0x6
 1652 0817 24010000 		.4byte	.LASF97
 1653 081b 0D       		.byte	0xd
 1654 081c DF       		.byte	0xdf
 1655 081d 86000000 		.4byte	0x86
 1656 0821 02       		.byte	0x2
 1657 0822 23       		.byte	0x23
 1658 0823 00       		.uleb128 0
 1659 0824 06       		.uleb128 0x6
 1660 0825 AC040000 		.4byte	.LASF98
 1661 0829 0D       		.byte	0xd
 1662 082a E4       		.byte	0xe4
 1663 082b 62000000 		.4byte	0x62
 1664 082f 02       		.byte	0x2
 1665 0830 23       		.byte	0x23
 1666 0831 04       		.uleb128 0x4
 1667 0832 06       		.uleb128 0x6
 1668 0833 B3040000 		.4byte	.LASF99
 1669 0837 0D       		.byte	0xd
 1670 0838 E8       		.byte	0xe8
 1671 0839 62000000 		.4byte	0x62
 1672 083d 02       		.byte	0x2
 1673 083e 23       		.byte	0x23
 1674 083f 06       		.uleb128 0x6
 1675 0840 06       		.uleb128 0x6
 1676 0841 BA040000 		.4byte	.LASF100
 1677 0845 0D       		.byte	0xd
 1678 0846 EC       		.byte	0xec
 1679 0847 62000000 		.4byte	0x62
 1680 084b 02       		.byte	0x2
 1681 084c 23       		.byte	0x23
 1682 084d 08       		.uleb128 0x8
 1683 084e 00       		.byte	0
 1684 084f 03       		.uleb128 0x3
 1685 0850 65020000 		.4byte	.LASF101
 1686 0854 0D       		.byte	0xd
 1687 0855 ED       		.byte	0xed
 1688 0856 0E080000 		.4byte	0x80e
 1689 085a 05       		.uleb128 0x5
 1690 085b 66010000 		.4byte	.LASF102
ARM GAS  C:\Users\TAISIK~1\AppData\Local\Temp\ccaTZTgg.s 			page 31


 1691 085f 20       		.byte	0x20
 1692 0860 0C       		.byte	0xc
 1693 0861 75       		.byte	0x75
 1694 0862 D7080000 		.4byte	0x8d7
 1695 0866 06       		.uleb128 0x6
 1696 0867 1A020000 		.4byte	.LASF103
 1697 086b 0C       		.byte	0xc
 1698 086c 76       		.byte	0x76
 1699 086d 7E050000 		.4byte	0x57e
 1700 0871 02       		.byte	0x2
 1701 0872 23       		.byte	0x23
 1702 0873 00       		.uleb128 0
 1703 0874 06       		.uleb128 0x6
 1704 0875 8E030000 		.4byte	.LASF104
 1705 0879 0C       		.byte	0xc
 1706 087a 76       		.byte	0x76
 1707 087b 9E050000 		.4byte	0x59e
 1708 087f 02       		.byte	0x2
 1709 0880 23       		.byte	0x23
 1710 0881 04       		.uleb128 0x4
 1711 0882 07       		.uleb128 0x7
 1712 0883 70757400 		.ascii	"put\000"
 1713 0887 0C       		.byte	0xc
 1714 0888 76       		.byte	0x76
 1715 0889 B9050000 		.4byte	0x5b9
 1716 088d 02       		.byte	0x2
 1717 088e 23       		.byte	0x23
 1718 088f 08       		.uleb128 0x8
 1719 0890 07       		.uleb128 0x7
 1720 0891 67657400 		.ascii	"get\000"
 1721 0895 0C       		.byte	0xc
 1722 0896 76       		.byte	0x76
 1723 0897 7C040000 		.4byte	0x47c
 1724 089b 02       		.byte	0x2
 1725 089c 23       		.byte	0x23
 1726 089d 0C       		.uleb128 0xc
 1727 089e 06       		.uleb128 0x6
 1728 089f 20020000 		.4byte	.LASF105
 1729 08a3 0C       		.byte	0xc
 1730 08a4 76       		.byte	0x76
 1731 08a5 E9060000 		.4byte	0x6e9
 1732 08a9 02       		.byte	0x2
 1733 08aa 23       		.byte	0x23
 1734 08ab 10       		.uleb128 0x10
 1735 08ac 06       		.uleb128 0x6
 1736 08ad 98010000 		.4byte	.LASF106
 1737 08b1 0C       		.byte	0xc
 1738 08b2 76       		.byte	0x76
 1739 08b3 04070000 		.4byte	0x704
 1740 08b7 02       		.byte	0x2
 1741 08b8 23       		.byte	0x23
 1742 08b9 14       		.uleb128 0x14
 1743 08ba 06       		.uleb128 0x6
 1744 08bb D1010000 		.4byte	.LASF107
 1745 08bf 0C       		.byte	0xc
 1746 08c0 76       		.byte	0x76
 1747 08c1 29070000 		.4byte	0x729
ARM GAS  C:\Users\TAISIK~1\AppData\Local\Temp\ccaTZTgg.s 			page 32


 1748 08c5 02       		.byte	0x2
 1749 08c6 23       		.byte	0x23
 1750 08c7 18       		.uleb128 0x18
 1751 08c8 06       		.uleb128 0x6
 1752 08c9 9D000000 		.4byte	.LASF108
 1753 08cd 0C       		.byte	0xc
 1754 08ce 76       		.byte	0x76
 1755 08cf 4E070000 		.4byte	0x74e
 1756 08d3 02       		.byte	0x2
 1757 08d4 23       		.byte	0x23
 1758 08d5 1C       		.uleb128 0x1c
 1759 08d6 00       		.byte	0
 1760 08d7 09       		.uleb128 0x9
 1761 08d8 04       		.byte	0x4
 1762 08d9 DD080000 		.4byte	0x8dd
 1763 08dd 10       		.uleb128 0x10
 1764 08de 5A080000 		.4byte	0x85a
 1765 08e2 19       		.uleb128 0x19
 1766 08e3 49000000 		.4byte	0x49
 1767 08e7 F2080000 		.4byte	0x8f2
 1768 08eb 1A       		.uleb128 0x1a
 1769 08ec 3B000000 		.4byte	0x3b
 1770 08f0 0F       		.byte	0xf
 1771 08f1 00       		.byte	0
 1772 08f2 09       		.uleb128 0x9
 1773 08f3 04       		.byte	0x4
 1774 08f4 C3060000 		.4byte	0x6c3
 1775 08f8 1B       		.uleb128 0x1b
 1776 08f9 9D000000 		.4byte	.LASF108
 1777 08fd 01       		.byte	0x1
 1778 08fe 5C       		.byte	0x5c
 1779 08ff 01       		.byte	0x1
 1780 0900 30000000 		.4byte	0x30
 1781 0904 00000000 		.4byte	.LFB125
 1782 0908 06000000 		.4byte	.LFE125
 1783 090c 02       		.byte	0x2
 1784 090d 7D       		.byte	0x7d
 1785 090e 00       		.sleb128 0
 1786 090f 4C090000 		.4byte	0x94c
 1787 0913 1C       		.uleb128 0x1c
 1788 0914 697000   		.ascii	"ip\000"
 1789 0917 01       		.byte	0x1
 1790 0918 5C       		.byte	0x5c
 1791 0919 AE020000 		.4byte	0x2ae
 1792 091d 00000000 		.4byte	.LLST0
 1793 0921 1C       		.uleb128 0x1c
 1794 0922 627000   		.ascii	"bp\000"
 1795 0925 01       		.byte	0x1
 1796 0926 5C       		.byte	0x5c
 1797 0927 3D050000 		.4byte	0x53d
 1798 092b 20000000 		.4byte	.LLST1
 1799 092f 1C       		.uleb128 0x1c
 1800 0930 6E00     		.ascii	"n\000"
 1801 0932 01       		.byte	0x1
 1802 0933 5C       		.byte	0x5c
 1803 0934 30000000 		.4byte	0x30
 1804 0938 33000000 		.4byte	.LLST2
ARM GAS  C:\Users\TAISIK~1\AppData\Local\Temp\ccaTZTgg.s 			page 33


 1805 093c 1D       		.uleb128 0x1d
 1806 093d 60020000 		.4byte	.LASF109
 1807 0941 01       		.byte	0x1
 1808 0942 5C       		.byte	0x5c
 1809 0943 10010000 		.4byte	0x110
 1810 0947 46000000 		.4byte	.LLST3
 1811 094b 00       		.byte	0
 1812 094c 1B       		.uleb128 0x1b
 1813 094d 8E030000 		.4byte	.LASF104
 1814 0951 01       		.byte	0x1
 1815 0952 3D       		.byte	0x3d
 1816 0953 01       		.byte	0x1
 1817 0954 30000000 		.4byte	0x30
 1818 0958 00000000 		.4byte	.LFB119
 1819 095c 0A000000 		.4byte	.LFE119
 1820 0960 02       		.byte	0x2
 1821 0961 7D       		.byte	0x7d
 1822 0962 00       		.sleb128 0
 1823 0963 91090000 		.4byte	0x991
 1824 0967 1C       		.uleb128 0x1c
 1825 0968 697000   		.ascii	"ip\000"
 1826 096b 01       		.byte	0x1
 1827 096c 3D       		.byte	0x3d
 1828 096d AE020000 		.4byte	0x2ae
 1829 0971 59000000 		.4byte	.LLST4
 1830 0975 1C       		.uleb128 0x1c
 1831 0976 627000   		.ascii	"bp\000"
 1832 0979 01       		.byte	0x1
 1833 097a 3D       		.byte	0x3d
 1834 097b 3D050000 		.4byte	0x53d
 1835 097f 79000000 		.4byte	.LLST5
 1836 0983 1C       		.uleb128 0x1c
 1837 0984 6E00     		.ascii	"n\000"
 1838 0986 01       		.byte	0x1
 1839 0987 3D       		.byte	0x3d
 1840 0988 30000000 		.4byte	0x30
 1841 098c 8C000000 		.4byte	.LLST6
 1842 0990 00       		.byte	0
 1843 0991 1B       		.uleb128 0x1b
 1844 0992 D1010000 		.4byte	.LASF107
 1845 0996 01       		.byte	0x1
 1846 0997 57       		.byte	0x57
 1847 0998 01       		.byte	0x1
 1848 0999 30000000 		.4byte	0x30
 1849 099d 00000000 		.4byte	.LFB124
 1850 09a1 06000000 		.4byte	.LFE124
 1851 09a5 02       		.byte	0x2
 1852 09a6 7D       		.byte	0x7d
 1853 09a7 00       		.sleb128 0
 1854 09a8 E5090000 		.4byte	0x9e5
 1855 09ac 1C       		.uleb128 0x1c
 1856 09ad 697000   		.ascii	"ip\000"
 1857 09b0 01       		.byte	0x1
 1858 09b1 57       		.byte	0x57
 1859 09b2 AE020000 		.4byte	0x2ae
 1860 09b6 9F000000 		.4byte	.LLST7
 1861 09ba 1C       		.uleb128 0x1c
ARM GAS  C:\Users\TAISIK~1\AppData\Local\Temp\ccaTZTgg.s 			page 34


 1862 09bb 627000   		.ascii	"bp\000"
 1863 09be 01       		.byte	0x1
 1864 09bf 57       		.byte	0x57
 1865 09c0 73050000 		.4byte	0x573
 1866 09c4 BF000000 		.4byte	.LLST8
 1867 09c8 1C       		.uleb128 0x1c
 1868 09c9 6E00     		.ascii	"n\000"
 1869 09cb 01       		.byte	0x1
 1870 09cc 57       		.byte	0x57
 1871 09cd 30000000 		.4byte	0x30
 1872 09d1 D2000000 		.4byte	.LLST9
 1873 09d5 1D       		.uleb128 0x1d
 1874 09d6 60020000 		.4byte	.LASF109
 1875 09da 01       		.byte	0x1
 1876 09db 57       		.byte	0x57
 1877 09dc 10010000 		.4byte	0x110
 1878 09e0 E5000000 		.4byte	.LLST10
 1879 09e4 00       		.byte	0
 1880 09e5 1B       		.uleb128 0x1b
 1881 09e6 1A020000 		.4byte	.LASF103
 1882 09ea 01       		.byte	0x1
 1883 09eb 37       		.byte	0x37
 1884 09ec 01       		.byte	0x1
 1885 09ed 30000000 		.4byte	0x30
 1886 09f1 00000000 		.4byte	.LFB118
 1887 09f5 0A000000 		.4byte	.LFE118
 1888 09f9 02       		.byte	0x2
 1889 09fa 7D       		.byte	0x7d
 1890 09fb 00       		.sleb128 0
 1891 09fc 2A0A0000 		.4byte	0xa2a
 1892 0a00 1C       		.uleb128 0x1c
 1893 0a01 697000   		.ascii	"ip\000"
 1894 0a04 01       		.byte	0x1
 1895 0a05 37       		.byte	0x37
 1896 0a06 AE020000 		.4byte	0x2ae
 1897 0a0a F8000000 		.4byte	.LLST11
 1898 0a0e 1C       		.uleb128 0x1c
 1899 0a0f 627000   		.ascii	"bp\000"
 1900 0a12 01       		.byte	0x1
 1901 0a13 37       		.byte	0x37
 1902 0a14 73050000 		.4byte	0x573
 1903 0a18 18010000 		.4byte	.LLST12
 1904 0a1c 1C       		.uleb128 0x1c
 1905 0a1d 6E00     		.ascii	"n\000"
 1906 0a1f 01       		.byte	0x1
 1907 0a20 37       		.byte	0x37
 1908 0a21 30000000 		.4byte	0x30
 1909 0a25 2B010000 		.4byte	.LLST13
 1910 0a29 00       		.byte	0
 1911 0a2a 1B       		.uleb128 0x1b
 1912 0a2b 98010000 		.4byte	.LASF106
 1913 0a2f 01       		.byte	0x1
 1914 0a30 52       		.byte	0x52
 1915 0a31 01       		.byte	0x1
 1916 0a32 EF000000 		.4byte	0xef
 1917 0a36 00000000 		.4byte	.LFB123
 1918 0a3a 06000000 		.4byte	.LFE123
ARM GAS  C:\Users\TAISIK~1\AppData\Local\Temp\ccaTZTgg.s 			page 35


 1919 0a3e 02       		.byte	0x2
 1920 0a3f 7D       		.byte	0x7d
 1921 0a40 00       		.sleb128 0
 1922 0a41 630A0000 		.4byte	0xa63
 1923 0a45 1C       		.uleb128 0x1c
 1924 0a46 697000   		.ascii	"ip\000"
 1925 0a49 01       		.byte	0x1
 1926 0a4a 52       		.byte	0x52
 1927 0a4b AE020000 		.4byte	0x2ae
 1928 0a4f 3E010000 		.4byte	.LLST14
 1929 0a53 1D       		.uleb128 0x1d
 1930 0a54 90010000 		.4byte	.LASF110
 1931 0a58 01       		.byte	0x1
 1932 0a59 52       		.byte	0x52
 1933 0a5a 10010000 		.4byte	0x110
 1934 0a5e 5E010000 		.4byte	.LLST15
 1935 0a62 00       		.byte	0
 1936 0a63 1E       		.uleb128 0x1e
 1937 0a64 67657400 		.ascii	"get\000"
 1938 0a68 01       		.byte	0x1
 1939 0a69 48       		.byte	0x48
 1940 0a6a 01       		.byte	0x1
 1941 0a6b EF000000 		.4byte	0xef
 1942 0a6f 00000000 		.4byte	.LFB121
 1943 0a73 0A000000 		.4byte	.LFE121
 1944 0a77 02       		.byte	0x2
 1945 0a78 7D       		.byte	0x7d
 1946 0a79 00       		.sleb128 0
 1947 0a7a 8D0A0000 		.4byte	0xa8d
 1948 0a7e 1C       		.uleb128 0x1c
 1949 0a7f 697000   		.ascii	"ip\000"
 1950 0a82 01       		.byte	0x1
 1951 0a83 48       		.byte	0x48
 1952 0a84 AE020000 		.4byte	0x2ae
 1953 0a88 71010000 		.4byte	.LLST16
 1954 0a8c 00       		.byte	0
 1955 0a8d 1B       		.uleb128 0x1b
 1956 0a8e 20020000 		.4byte	.LASF105
 1957 0a92 01       		.byte	0x1
 1958 0a93 4D       		.byte	0x4d
 1959 0a94 01       		.byte	0x1
 1960 0a95 EF000000 		.4byte	0xef
 1961 0a99 00000000 		.4byte	.LFB122
 1962 0a9d 06000000 		.4byte	.LFE122
 1963 0aa1 02       		.byte	0x2
 1964 0aa2 7D       		.byte	0x7d
 1965 0aa3 00       		.sleb128 0
 1966 0aa4 D30A0000 		.4byte	0xad3
 1967 0aa8 1C       		.uleb128 0x1c
 1968 0aa9 697000   		.ascii	"ip\000"
 1969 0aac 01       		.byte	0x1
 1970 0aad 4D       		.byte	0x4d
 1971 0aae AE020000 		.4byte	0x2ae
 1972 0ab2 91010000 		.4byte	.LLST17
 1973 0ab6 1C       		.uleb128 0x1c
 1974 0ab7 6200     		.ascii	"b\000"
 1975 0ab9 01       		.byte	0x1
ARM GAS  C:\Users\TAISIK~1\AppData\Local\Temp\ccaTZTgg.s 			page 36


 1976 0aba 4D       		.byte	0x4d
 1977 0abb 49000000 		.4byte	0x49
 1978 0abf B1010000 		.4byte	.LLST18
 1979 0ac3 1D       		.uleb128 0x1d
 1980 0ac4 90010000 		.4byte	.LASF110
 1981 0ac8 01       		.byte	0x1
 1982 0ac9 4D       		.byte	0x4d
 1983 0aca 10010000 		.4byte	0x110
 1984 0ace C4010000 		.4byte	.LLST19
 1985 0ad2 00       		.byte	0
 1986 0ad3 1E       		.uleb128 0x1e
 1987 0ad4 70757400 		.ascii	"put\000"
 1988 0ad8 01       		.byte	0x1
 1989 0ad9 43       		.byte	0x43
 1990 0ada 01       		.byte	0x1
 1991 0adb EF000000 		.4byte	0xef
 1992 0adf 00000000 		.4byte	.LFB120
 1993 0ae3 0A000000 		.4byte	.LFE120
 1994 0ae7 02       		.byte	0x2
 1995 0ae8 7D       		.byte	0x7d
 1996 0ae9 00       		.sleb128 0
 1997 0aea 0A0B0000 		.4byte	0xb0a
 1998 0aee 1C       		.uleb128 0x1c
 1999 0aef 697000   		.ascii	"ip\000"
 2000 0af2 01       		.byte	0x1
 2001 0af3 43       		.byte	0x43
 2002 0af4 AE020000 		.4byte	0x2ae
 2003 0af8 D7010000 		.4byte	.LLST20
 2004 0afc 1C       		.uleb128 0x1c
 2005 0afd 6200     		.ascii	"b\000"
 2006 0aff 01       		.byte	0x1
 2007 0b00 43       		.byte	0x43
 2008 0b01 49000000 		.4byte	0x49
 2009 0b05 F7010000 		.4byte	.LLST21
 2010 0b09 00       		.byte	0
 2011 0b0a 1F       		.uleb128 0x1f
 2012 0b0b 01       		.byte	0x1
 2013 0b0c C1040000 		.4byte	.LASF122
 2014 0b10 01       		.byte	0x1
 2015 0b11 71       		.byte	0x71
 2016 0b12 01       		.byte	0x1
 2017 0b13 00000000 		.4byte	.LFB126
 2018 0b17 04000000 		.4byte	.LFE126
 2019 0b1b 02       		.byte	0x2
 2020 0b1c 7D       		.byte	0x7d
 2021 0b1d 00       		.sleb128 0
 2022 0b1e 20       		.uleb128 0x20
 2023 0b1f 01       		.byte	0x1
 2024 0b20 90000000 		.4byte	.LASF113
 2025 0b24 01       		.byte	0x1
 2026 0b25 85       		.byte	0x85
 2027 0b26 01       		.byte	0x1
 2028 0b27 00000000 		.4byte	.LFB127
 2029 0b2b 44000000 		.4byte	.LFE127
 2030 0b2f 0A020000 		.4byte	.LLST22
 2031 0b33 650B0000 		.4byte	0xb65
 2032 0b37 1C       		.uleb128 0x1c
ARM GAS  C:\Users\TAISIK~1\AppData\Local\Temp\ccaTZTgg.s 			page 37


 2033 0b38 73647000 		.ascii	"sdp\000"
 2034 0b3c 01       		.byte	0x1
 2035 0b3d 85       		.byte	0x85
 2036 0b3e 650B0000 		.4byte	0xb65
 2037 0b42 36020000 		.4byte	.LLST23
 2038 0b46 1D       		.uleb128 0x1d
 2039 0b47 76010000 		.4byte	.LASF111
 2040 0b4b 01       		.byte	0x1
 2041 0b4c 85       		.byte	0x85
 2042 0b4d 1A050000 		.4byte	0x51a
 2043 0b51 54020000 		.4byte	.LLST24
 2044 0b55 1D       		.uleb128 0x1d
 2045 0b56 89040000 		.4byte	.LASF112
 2046 0b5a 01       		.byte	0x1
 2047 0b5b 85       		.byte	0x85
 2048 0b5c 1A050000 		.4byte	0x51a
 2049 0b60 72020000 		.4byte	.LLST25
 2050 0b64 00       		.byte	0
 2051 0b65 09       		.uleb128 0x9
 2052 0b66 04       		.byte	0x4
 2053 0b67 7A070000 		.4byte	0x77a
 2054 0b6b 20       		.uleb128 0x20
 2055 0b6c 01       		.byte	0x1
 2056 0b6d AF030000 		.4byte	.LASF114
 2057 0b71 01       		.byte	0x1
 2058 0b72 98       		.byte	0x98
 2059 0b73 01       		.byte	0x1
 2060 0b74 00000000 		.4byte	.LFB128
 2061 0b78 1A000000 		.4byte	.LFE128
 2062 0b7c 90020000 		.4byte	.LLST26
 2063 0b80 D50B0000 		.4byte	0xbd5
 2064 0b84 1C       		.uleb128 0x1c
 2065 0b85 73647000 		.ascii	"sdp\000"
 2066 0b89 01       		.byte	0x1
 2067 0b8a 98       		.byte	0x98
 2068 0b8b 650B0000 		.4byte	0xb65
 2069 0b8f B0020000 		.4byte	.LLST27
 2070 0b93 1D       		.uleb128 0x1d
 2071 0b94 A8030000 		.4byte	.LASF115
 2072 0b98 01       		.byte	0x1
 2073 0b99 98       		.byte	0x98
 2074 0b9a D50B0000 		.4byte	0xbd5
 2075 0b9e CE020000 		.4byte	.LLST28
 2076 0ba2 21       		.uleb128 0x21
 2077 0ba3 00000000 		.4byte	.Ldebug_ranges0+0
 2078 0ba7 BB0B0000 		.4byte	0xbbb
 2079 0bab 22       		.uleb128 0x22
 2080 0bac 746D7000 		.ascii	"tmp\000"
 2081 0bb0 01       		.byte	0x1
 2082 0bb1 9C       		.byte	0x9c
 2083 0bb2 86000000 		.4byte	0x86
 2084 0bb6 E1020000 		.4byte	.LLST29
 2085 0bba 00       		.byte	0
 2086 0bbb 23       		.uleb128 0x23
 2087 0bbc 12000000 		.4byte	.LBB4
 2088 0bc0 18000000 		.4byte	.LBE4
 2089 0bc4 22       		.uleb128 0x22
ARM GAS  C:\Users\TAISIK~1\AppData\Local\Temp\ccaTZTgg.s 			page 38


 2090 0bc5 746D7000 		.ascii	"tmp\000"
 2091 0bc9 01       		.byte	0x1
 2092 0bca A2       		.byte	0xa2
 2093 0bcb 86000000 		.4byte	0x86
 2094 0bcf F4020000 		.4byte	.LLST30
 2095 0bd3 00       		.byte	0
 2096 0bd4 00       		.byte	0
 2097 0bd5 09       		.uleb128 0x9
 2098 0bd6 04       		.byte	0x4
 2099 0bd7 DB0B0000 		.4byte	0xbdb
 2100 0bdb 10       		.uleb128 0x10
 2101 0bdc 4F080000 		.4byte	0x84f
 2102 0be0 20       		.uleb128 0x20
 2103 0be1 01       		.byte	0x1
 2104 0be2 59020000 		.4byte	.LASF116
 2105 0be6 01       		.byte	0x1
 2106 0be7 AE       		.byte	0xae
 2107 0be8 01       		.byte	0x1
 2108 0be9 00000000 		.4byte	.LFB129
 2109 0bed 2E000000 		.4byte	.LFE129
 2110 0bf1 07030000 		.4byte	.LLST31
 2111 0bf5 3B0C0000 		.4byte	0xc3b
 2112 0bf9 1C       		.uleb128 0x1c
 2113 0bfa 73647000 		.ascii	"sdp\000"
 2114 0bfe 01       		.byte	0x1
 2115 0bff AE       		.byte	0xae
 2116 0c00 650B0000 		.4byte	0xb65
 2117 0c04 27030000 		.4byte	.LLST32
 2118 0c08 21       		.uleb128 0x21
 2119 0c09 18000000 		.4byte	.Ldebug_ranges0+0x18
 2120 0c0d 210C0000 		.4byte	0xc21
 2121 0c11 22       		.uleb128 0x22
 2122 0c12 746D7000 		.ascii	"tmp\000"
 2123 0c16 01       		.byte	0x1
 2124 0c17 B2       		.byte	0xb2
 2125 0c18 86000000 		.4byte	0x86
 2126 0c1c 45030000 		.4byte	.LLST33
 2127 0c20 00       		.byte	0
 2128 0c21 23       		.uleb128 0x23
 2129 0c22 26000000 		.4byte	.LBB7
 2130 0c26 2C000000 		.4byte	.LBE7
 2131 0c2a 22       		.uleb128 0x22
 2132 0c2b 746D7000 		.ascii	"tmp\000"
 2133 0c2f 01       		.byte	0x1
 2134 0c30 BB       		.byte	0xbb
 2135 0c31 86000000 		.4byte	0x86
 2136 0c35 58030000 		.4byte	.LLST34
 2137 0c39 00       		.byte	0
 2138 0c3a 00       		.byte	0
 2139 0c3b 20       		.uleb128 0x20
 2140 0c3c 01       		.byte	0x1
 2141 0c3d 98030000 		.4byte	.LASF117
 2142 0c41 01       		.byte	0x1
 2143 0c42 CE       		.byte	0xce
 2144 0c43 01       		.byte	0x1
 2145 0c44 00000000 		.4byte	.LFB130
 2146 0c48 3C000000 		.4byte	.LFE130
ARM GAS  C:\Users\TAISIK~1\AppData\Local\Temp\ccaTZTgg.s 			page 39


 2147 0c4c 6B030000 		.4byte	.LLST35
 2148 0c50 710C0000 		.4byte	0xc71
 2149 0c54 1C       		.uleb128 0x1c
 2150 0c55 73647000 		.ascii	"sdp\000"
 2151 0c59 01       		.byte	0x1
 2152 0c5a CE       		.byte	0xce
 2153 0c5b 650B0000 		.4byte	0xb65
 2154 0c5f 8B030000 		.4byte	.LLST36
 2155 0c63 1C       		.uleb128 0x1c
 2156 0c64 6200     		.ascii	"b\000"
 2157 0c66 01       		.byte	0x1
 2158 0c67 CE       		.byte	0xce
 2159 0c68 49000000 		.4byte	0x49
 2160 0c6c A9030000 		.4byte	.LLST37
 2161 0c70 00       		.byte	0
 2162 0c71 24       		.uleb128 0x24
 2163 0c72 01       		.byte	0x1
 2164 0c73 58040000 		.4byte	.LASF123
 2165 0c77 01       		.byte	0x1
 2166 0c78 E8       		.byte	0xe8
 2167 0c79 01       		.byte	0x1
 2168 0c7a EF000000 		.4byte	0xef
 2169 0c7e 00000000 		.4byte	.LFB131
 2170 0c82 22000000 		.4byte	.LFE131
 2171 0c86 C7030000 		.4byte	.LLST38
 2172 0c8a AB0C0000 		.4byte	0xcab
 2173 0c8e 1C       		.uleb128 0x1c
 2174 0c8f 73647000 		.ascii	"sdp\000"
 2175 0c93 01       		.byte	0x1
 2176 0c94 E8       		.byte	0xe8
 2177 0c95 650B0000 		.4byte	0xb65
 2178 0c99 E7030000 		.4byte	.LLST39
 2179 0c9d 22       		.uleb128 0x22
 2180 0c9e 6200     		.ascii	"b\000"
 2181 0ca0 01       		.byte	0x1
 2182 0ca1 E9       		.byte	0xe9
 2183 0ca2 EF000000 		.4byte	0xef
 2184 0ca6 05040000 		.4byte	.LLST40
 2185 0caa 00       		.byte	0
 2186 0cab 25       		.uleb128 0x25
 2187 0cac 83000000 		.4byte	.LASF118
 2188 0cb0 0E       		.byte	0xe
 2189 0cb1 9806     		.2byte	0x698
 2190 0cb3 C4050000 		.4byte	0x5c4
 2191 0cb7 01       		.byte	0x1
 2192 0cb8 01       		.byte	0x1
 2193 0cb9 26       		.uleb128 0x26
 2194 0cba 766D7400 		.ascii	"vmt\000"
 2195 0cbe 01       		.byte	0x1
 2196 0cbf 61       		.byte	0x61
 2197 0cc0 DD080000 		.4byte	0x8dd
 2198 0cc4 05       		.byte	0x5
 2199 0cc5 03       		.byte	0x3
 2200 0cc6 00000000 		.4byte	vmt
 2201 0cca 25       		.uleb128 0x25
 2202 0ccb 83000000 		.4byte	.LASF118
 2203 0ccf 0E       		.byte	0xe
ARM GAS  C:\Users\TAISIK~1\AppData\Local\Temp\ccaTZTgg.s 			page 40


 2204 0cd0 9806     		.2byte	0x698
 2205 0cd2 C4050000 		.4byte	0x5c4
 2206 0cd6 01       		.byte	0x1
 2207 0cd7 01       		.byte	0x1
 2208 0cd8 00       		.byte	0
 2209              		.section	.debug_abbrev,"",%progbits
 2210              	.Ldebug_abbrev0:
 2211 0000 01       		.uleb128 0x1
 2212 0001 11       		.uleb128 0x11
 2213 0002 01       		.byte	0x1
 2214 0003 25       		.uleb128 0x25
 2215 0004 0E       		.uleb128 0xe
 2216 0005 13       		.uleb128 0x13
 2217 0006 0B       		.uleb128 0xb
 2218 0007 03       		.uleb128 0x3
 2219 0008 0E       		.uleb128 0xe
 2220 0009 1B       		.uleb128 0x1b
 2221 000a 0E       		.uleb128 0xe
 2222 000b 11       		.uleb128 0x11
 2223 000c 01       		.uleb128 0x1
 2224 000d 52       		.uleb128 0x52
 2225 000e 01       		.uleb128 0x1
 2226 000f 55       		.uleb128 0x55
 2227 0010 06       		.uleb128 0x6
 2228 0011 10       		.uleb128 0x10
 2229 0012 06       		.uleb128 0x6
 2230 0013 00       		.byte	0
 2231 0014 00       		.byte	0
 2232 0015 02       		.uleb128 0x2
 2233 0016 24       		.uleb128 0x24
 2234 0017 00       		.byte	0
 2235 0018 0B       		.uleb128 0xb
 2236 0019 0B       		.uleb128 0xb
 2237 001a 3E       		.uleb128 0x3e
 2238 001b 0B       		.uleb128 0xb
 2239 001c 03       		.uleb128 0x3
 2240 001d 08       		.uleb128 0x8
 2241 001e 00       		.byte	0
 2242 001f 00       		.byte	0
 2243 0020 03       		.uleb128 0x3
 2244 0021 16       		.uleb128 0x16
 2245 0022 00       		.byte	0
 2246 0023 03       		.uleb128 0x3
 2247 0024 0E       		.uleb128 0xe
 2248 0025 3A       		.uleb128 0x3a
 2249 0026 0B       		.uleb128 0xb
 2250 0027 3B       		.uleb128 0x3b
 2251 0028 0B       		.uleb128 0xb
 2252 0029 49       		.uleb128 0x49
 2253 002a 13       		.uleb128 0x13
 2254 002b 00       		.byte	0
 2255 002c 00       		.byte	0
 2256 002d 04       		.uleb128 0x4
 2257 002e 24       		.uleb128 0x24
 2258 002f 00       		.byte	0
 2259 0030 0B       		.uleb128 0xb
 2260 0031 0B       		.uleb128 0xb
ARM GAS  C:\Users\TAISIK~1\AppData\Local\Temp\ccaTZTgg.s 			page 41


 2261 0032 3E       		.uleb128 0x3e
 2262 0033 0B       		.uleb128 0xb
 2263 0034 03       		.uleb128 0x3
 2264 0035 0E       		.uleb128 0xe
 2265 0036 00       		.byte	0
 2266 0037 00       		.byte	0
 2267 0038 05       		.uleb128 0x5
 2268 0039 13       		.uleb128 0x13
 2269 003a 01       		.byte	0x1
 2270 003b 03       		.uleb128 0x3
 2271 003c 0E       		.uleb128 0xe
 2272 003d 0B       		.uleb128 0xb
 2273 003e 0B       		.uleb128 0xb
 2274 003f 3A       		.uleb128 0x3a
 2275 0040 0B       		.uleb128 0xb
 2276 0041 3B       		.uleb128 0x3b
 2277 0042 0B       		.uleb128 0xb
 2278 0043 01       		.uleb128 0x1
 2279 0044 13       		.uleb128 0x13
 2280 0045 00       		.byte	0
 2281 0046 00       		.byte	0
 2282 0047 06       		.uleb128 0x6
 2283 0048 0D       		.uleb128 0xd
 2284 0049 00       		.byte	0
 2285 004a 03       		.uleb128 0x3
 2286 004b 0E       		.uleb128 0xe
 2287 004c 3A       		.uleb128 0x3a
 2288 004d 0B       		.uleb128 0xb
 2289 004e 3B       		.uleb128 0x3b
 2290 004f 0B       		.uleb128 0xb
 2291 0050 49       		.uleb128 0x49
 2292 0051 13       		.uleb128 0x13
 2293 0052 38       		.uleb128 0x38
 2294 0053 0A       		.uleb128 0xa
 2295 0054 00       		.byte	0
 2296 0055 00       		.byte	0
 2297 0056 07       		.uleb128 0x7
 2298 0057 0D       		.uleb128 0xd
 2299 0058 00       		.byte	0
 2300 0059 03       		.uleb128 0x3
 2301 005a 08       		.uleb128 0x8
 2302 005b 3A       		.uleb128 0x3a
 2303 005c 0B       		.uleb128 0xb
 2304 005d 3B       		.uleb128 0x3b
 2305 005e 0B       		.uleb128 0xb
 2306 005f 49       		.uleb128 0x49
 2307 0060 13       		.uleb128 0x13
 2308 0061 38       		.uleb128 0x38
 2309 0062 0A       		.uleb128 0xa
 2310 0063 00       		.byte	0
 2311 0064 00       		.byte	0
 2312 0065 08       		.uleb128 0x8
 2313 0066 13       		.uleb128 0x13
 2314 0067 01       		.byte	0x1
 2315 0068 0B       		.uleb128 0xb
 2316 0069 0B       		.uleb128 0xb
 2317 006a 3A       		.uleb128 0x3a
ARM GAS  C:\Users\TAISIK~1\AppData\Local\Temp\ccaTZTgg.s 			page 42


 2318 006b 0B       		.uleb128 0xb
 2319 006c 3B       		.uleb128 0x3b
 2320 006d 0B       		.uleb128 0xb
 2321 006e 01       		.uleb128 0x1
 2322 006f 13       		.uleb128 0x13
 2323 0070 00       		.byte	0
 2324 0071 00       		.byte	0
 2325 0072 09       		.uleb128 0x9
 2326 0073 0F       		.uleb128 0xf
 2327 0074 00       		.byte	0
 2328 0075 0B       		.uleb128 0xb
 2329 0076 0B       		.uleb128 0xb
 2330 0077 49       		.uleb128 0x49
 2331 0078 13       		.uleb128 0x13
 2332 0079 00       		.byte	0
 2333 007a 00       		.byte	0
 2334 007b 0A       		.uleb128 0xa
 2335 007c 0F       		.uleb128 0xf
 2336 007d 00       		.byte	0
 2337 007e 0B       		.uleb128 0xb
 2338 007f 0B       		.uleb128 0xb
 2339 0080 00       		.byte	0
 2340 0081 00       		.byte	0
 2341 0082 0B       		.uleb128 0xb
 2342 0083 13       		.uleb128 0x13
 2343 0084 01       		.byte	0x1
 2344 0085 03       		.uleb128 0x3
 2345 0086 0E       		.uleb128 0xe
 2346 0087 0B       		.uleb128 0xb
 2347 0088 0B       		.uleb128 0xb
 2348 0089 3A       		.uleb128 0x3a
 2349 008a 0B       		.uleb128 0xb
 2350 008b 3B       		.uleb128 0x3b
 2351 008c 05       		.uleb128 0x5
 2352 008d 01       		.uleb128 0x1
 2353 008e 13       		.uleb128 0x13
 2354 008f 00       		.byte	0
 2355 0090 00       		.byte	0
 2356 0091 0C       		.uleb128 0xc
 2357 0092 0D       		.uleb128 0xd
 2358 0093 00       		.byte	0
 2359 0094 03       		.uleb128 0x3
 2360 0095 08       		.uleb128 0x8
 2361 0096 3A       		.uleb128 0x3a
 2362 0097 0B       		.uleb128 0xb
 2363 0098 3B       		.uleb128 0x3b
 2364 0099 05       		.uleb128 0x5
 2365 009a 49       		.uleb128 0x49
 2366 009b 13       		.uleb128 0x13
 2367 009c 38       		.uleb128 0x38
 2368 009d 0A       		.uleb128 0xa
 2369 009e 00       		.byte	0
 2370 009f 00       		.byte	0
 2371 00a0 0D       		.uleb128 0xd
 2372 00a1 35       		.uleb128 0x35
 2373 00a2 00       		.byte	0
 2374 00a3 49       		.uleb128 0x49
ARM GAS  C:\Users\TAISIK~1\AppData\Local\Temp\ccaTZTgg.s 			page 43


 2375 00a4 13       		.uleb128 0x13
 2376 00a5 00       		.byte	0
 2377 00a6 00       		.byte	0
 2378 00a7 0E       		.uleb128 0xe
 2379 00a8 17       		.uleb128 0x17
 2380 00a9 01       		.byte	0x1
 2381 00aa 0B       		.uleb128 0xb
 2382 00ab 0B       		.uleb128 0xb
 2383 00ac 3A       		.uleb128 0x3a
 2384 00ad 0B       		.uleb128 0xb
 2385 00ae 3B       		.uleb128 0x3b
 2386 00af 0B       		.uleb128 0xb
 2387 00b0 01       		.uleb128 0x1
 2388 00b1 13       		.uleb128 0x13
 2389 00b2 00       		.byte	0
 2390 00b3 00       		.byte	0
 2391 00b4 0F       		.uleb128 0xf
 2392 00b5 0D       		.uleb128 0xd
 2393 00b6 00       		.byte	0
 2394 00b7 03       		.uleb128 0x3
 2395 00b8 0E       		.uleb128 0xe
 2396 00b9 3A       		.uleb128 0x3a
 2397 00ba 0B       		.uleb128 0xb
 2398 00bb 3B       		.uleb128 0x3b
 2399 00bc 0B       		.uleb128 0xb
 2400 00bd 49       		.uleb128 0x49
 2401 00be 13       		.uleb128 0x13
 2402 00bf 00       		.byte	0
 2403 00c0 00       		.byte	0
 2404 00c1 10       		.uleb128 0x10
 2405 00c2 26       		.uleb128 0x26
 2406 00c3 00       		.byte	0
 2407 00c4 49       		.uleb128 0x49
 2408 00c5 13       		.uleb128 0x13
 2409 00c6 00       		.byte	0
 2410 00c7 00       		.byte	0
 2411 00c8 11       		.uleb128 0x11
 2412 00c9 15       		.uleb128 0x15
 2413 00ca 01       		.byte	0x1
 2414 00cb 27       		.uleb128 0x27
 2415 00cc 0C       		.uleb128 0xc
 2416 00cd 49       		.uleb128 0x49
 2417 00ce 13       		.uleb128 0x13
 2418 00cf 01       		.uleb128 0x1
 2419 00d0 13       		.uleb128 0x13
 2420 00d1 00       		.byte	0
 2421 00d2 00       		.byte	0
 2422 00d3 12       		.uleb128 0x12
 2423 00d4 05       		.uleb128 0x5
 2424 00d5 00       		.byte	0
 2425 00d6 49       		.uleb128 0x49
 2426 00d7 13       		.uleb128 0x13
 2427 00d8 00       		.byte	0
 2428 00d9 00       		.byte	0
 2429 00da 13       		.uleb128 0x13
 2430 00db 15       		.uleb128 0x15
 2431 00dc 01       		.byte	0x1
ARM GAS  C:\Users\TAISIK~1\AppData\Local\Temp\ccaTZTgg.s 			page 44


 2432 00dd 27       		.uleb128 0x27
 2433 00de 0C       		.uleb128 0xc
 2434 00df 01       		.uleb128 0x1
 2435 00e0 13       		.uleb128 0x13
 2436 00e1 00       		.byte	0
 2437 00e2 00       		.byte	0
 2438 00e3 14       		.uleb128 0x14
 2439 00e4 13       		.uleb128 0x13
 2440 00e5 01       		.byte	0x1
 2441 00e6 0B       		.uleb128 0xb
 2442 00e7 0B       		.uleb128 0xb
 2443 00e8 3A       		.uleb128 0x3a
 2444 00e9 0B       		.uleb128 0xb
 2445 00ea 3B       		.uleb128 0x3b
 2446 00eb 05       		.uleb128 0x5
 2447 00ec 01       		.uleb128 0x1
 2448 00ed 13       		.uleb128 0x13
 2449 00ee 00       		.byte	0
 2450 00ef 00       		.byte	0
 2451 00f0 15       		.uleb128 0x15
 2452 00f1 0D       		.uleb128 0xd
 2453 00f2 00       		.byte	0
 2454 00f3 03       		.uleb128 0x3
 2455 00f4 0E       		.uleb128 0xe
 2456 00f5 3A       		.uleb128 0x3a
 2457 00f6 0B       		.uleb128 0xb
 2458 00f7 3B       		.uleb128 0x3b
 2459 00f8 05       		.uleb128 0x5
 2460 00f9 49       		.uleb128 0x49
 2461 00fa 13       		.uleb128 0x13
 2462 00fb 38       		.uleb128 0x38
 2463 00fc 0A       		.uleb128 0xa
 2464 00fd 00       		.byte	0
 2465 00fe 00       		.byte	0
 2466 00ff 16       		.uleb128 0x16
 2467 0100 16       		.uleb128 0x16
 2468 0101 00       		.byte	0
 2469 0102 03       		.uleb128 0x3
 2470 0103 0E       		.uleb128 0xe
 2471 0104 3A       		.uleb128 0x3a
 2472 0105 0B       		.uleb128 0xb
 2473 0106 3B       		.uleb128 0x3b
 2474 0107 05       		.uleb128 0x5
 2475 0108 49       		.uleb128 0x49
 2476 0109 13       		.uleb128 0x13
 2477 010a 00       		.byte	0
 2478 010b 00       		.byte	0
 2479 010c 17       		.uleb128 0x17
 2480 010d 04       		.uleb128 0x4
 2481 010e 01       		.byte	0x1
 2482 010f 0B       		.uleb128 0xb
 2483 0110 0B       		.uleb128 0xb
 2484 0111 3A       		.uleb128 0x3a
 2485 0112 0B       		.uleb128 0xb
 2486 0113 3B       		.uleb128 0x3b
 2487 0114 0B       		.uleb128 0xb
 2488 0115 01       		.uleb128 0x1
ARM GAS  C:\Users\TAISIK~1\AppData\Local\Temp\ccaTZTgg.s 			page 45


 2489 0116 13       		.uleb128 0x13
 2490 0117 00       		.byte	0
 2491 0118 00       		.byte	0
 2492 0119 18       		.uleb128 0x18
 2493 011a 28       		.uleb128 0x28
 2494 011b 00       		.byte	0
 2495 011c 03       		.uleb128 0x3
 2496 011d 0E       		.uleb128 0xe
 2497 011e 1C       		.uleb128 0x1c
 2498 011f 0D       		.uleb128 0xd
 2499 0120 00       		.byte	0
 2500 0121 00       		.byte	0
 2501 0122 19       		.uleb128 0x19
 2502 0123 01       		.uleb128 0x1
 2503 0124 01       		.byte	0x1
 2504 0125 49       		.uleb128 0x49
 2505 0126 13       		.uleb128 0x13
 2506 0127 01       		.uleb128 0x1
 2507 0128 13       		.uleb128 0x13
 2508 0129 00       		.byte	0
 2509 012a 00       		.byte	0
 2510 012b 1A       		.uleb128 0x1a
 2511 012c 21       		.uleb128 0x21
 2512 012d 00       		.byte	0
 2513 012e 49       		.uleb128 0x49
 2514 012f 13       		.uleb128 0x13
 2515 0130 2F       		.uleb128 0x2f
 2516 0131 0B       		.uleb128 0xb
 2517 0132 00       		.byte	0
 2518 0133 00       		.byte	0
 2519 0134 1B       		.uleb128 0x1b
 2520 0135 2E       		.uleb128 0x2e
 2521 0136 01       		.byte	0x1
 2522 0137 03       		.uleb128 0x3
 2523 0138 0E       		.uleb128 0xe
 2524 0139 3A       		.uleb128 0x3a
 2525 013a 0B       		.uleb128 0xb
 2526 013b 3B       		.uleb128 0x3b
 2527 013c 0B       		.uleb128 0xb
 2528 013d 27       		.uleb128 0x27
 2529 013e 0C       		.uleb128 0xc
 2530 013f 49       		.uleb128 0x49
 2531 0140 13       		.uleb128 0x13
 2532 0141 11       		.uleb128 0x11
 2533 0142 01       		.uleb128 0x1
 2534 0143 12       		.uleb128 0x12
 2535 0144 01       		.uleb128 0x1
 2536 0145 40       		.uleb128 0x40
 2537 0146 0A       		.uleb128 0xa
 2538 0147 01       		.uleb128 0x1
 2539 0148 13       		.uleb128 0x13
 2540 0149 00       		.byte	0
 2541 014a 00       		.byte	0
 2542 014b 1C       		.uleb128 0x1c
 2543 014c 05       		.uleb128 0x5
 2544 014d 00       		.byte	0
 2545 014e 03       		.uleb128 0x3
ARM GAS  C:\Users\TAISIK~1\AppData\Local\Temp\ccaTZTgg.s 			page 46


 2546 014f 08       		.uleb128 0x8
 2547 0150 3A       		.uleb128 0x3a
 2548 0151 0B       		.uleb128 0xb
 2549 0152 3B       		.uleb128 0x3b
 2550 0153 0B       		.uleb128 0xb
 2551 0154 49       		.uleb128 0x49
 2552 0155 13       		.uleb128 0x13
 2553 0156 02       		.uleb128 0x2
 2554 0157 06       		.uleb128 0x6
 2555 0158 00       		.byte	0
 2556 0159 00       		.byte	0
 2557 015a 1D       		.uleb128 0x1d
 2558 015b 05       		.uleb128 0x5
 2559 015c 00       		.byte	0
 2560 015d 03       		.uleb128 0x3
 2561 015e 0E       		.uleb128 0xe
 2562 015f 3A       		.uleb128 0x3a
 2563 0160 0B       		.uleb128 0xb
 2564 0161 3B       		.uleb128 0x3b
 2565 0162 0B       		.uleb128 0xb
 2566 0163 49       		.uleb128 0x49
 2567 0164 13       		.uleb128 0x13
 2568 0165 02       		.uleb128 0x2
 2569 0166 06       		.uleb128 0x6
 2570 0167 00       		.byte	0
 2571 0168 00       		.byte	0
 2572 0169 1E       		.uleb128 0x1e
 2573 016a 2E       		.uleb128 0x2e
 2574 016b 01       		.byte	0x1
 2575 016c 03       		.uleb128 0x3
 2576 016d 08       		.uleb128 0x8
 2577 016e 3A       		.uleb128 0x3a
 2578 016f 0B       		.uleb128 0xb
 2579 0170 3B       		.uleb128 0x3b
 2580 0171 0B       		.uleb128 0xb
 2581 0172 27       		.uleb128 0x27
 2582 0173 0C       		.uleb128 0xc
 2583 0174 49       		.uleb128 0x49
 2584 0175 13       		.uleb128 0x13
 2585 0176 11       		.uleb128 0x11
 2586 0177 01       		.uleb128 0x1
 2587 0178 12       		.uleb128 0x12
 2588 0179 01       		.uleb128 0x1
 2589 017a 40       		.uleb128 0x40
 2590 017b 0A       		.uleb128 0xa
 2591 017c 01       		.uleb128 0x1
 2592 017d 13       		.uleb128 0x13
 2593 017e 00       		.byte	0
 2594 017f 00       		.byte	0
 2595 0180 1F       		.uleb128 0x1f
 2596 0181 2E       		.uleb128 0x2e
 2597 0182 00       		.byte	0
 2598 0183 3F       		.uleb128 0x3f
 2599 0184 0C       		.uleb128 0xc
 2600 0185 03       		.uleb128 0x3
 2601 0186 0E       		.uleb128 0xe
 2602 0187 3A       		.uleb128 0x3a
ARM GAS  C:\Users\TAISIK~1\AppData\Local\Temp\ccaTZTgg.s 			page 47


 2603 0188 0B       		.uleb128 0xb
 2604 0189 3B       		.uleb128 0x3b
 2605 018a 0B       		.uleb128 0xb
 2606 018b 27       		.uleb128 0x27
 2607 018c 0C       		.uleb128 0xc
 2608 018d 11       		.uleb128 0x11
 2609 018e 01       		.uleb128 0x1
 2610 018f 12       		.uleb128 0x12
 2611 0190 01       		.uleb128 0x1
 2612 0191 40       		.uleb128 0x40
 2613 0192 0A       		.uleb128 0xa
 2614 0193 00       		.byte	0
 2615 0194 00       		.byte	0
 2616 0195 20       		.uleb128 0x20
 2617 0196 2E       		.uleb128 0x2e
 2618 0197 01       		.byte	0x1
 2619 0198 3F       		.uleb128 0x3f
 2620 0199 0C       		.uleb128 0xc
 2621 019a 03       		.uleb128 0x3
 2622 019b 0E       		.uleb128 0xe
 2623 019c 3A       		.uleb128 0x3a
 2624 019d 0B       		.uleb128 0xb
 2625 019e 3B       		.uleb128 0x3b
 2626 019f 0B       		.uleb128 0xb
 2627 01a0 27       		.uleb128 0x27
 2628 01a1 0C       		.uleb128 0xc
 2629 01a2 11       		.uleb128 0x11
 2630 01a3 01       		.uleb128 0x1
 2631 01a4 12       		.uleb128 0x12
 2632 01a5 01       		.uleb128 0x1
 2633 01a6 40       		.uleb128 0x40
 2634 01a7 06       		.uleb128 0x6
 2635 01a8 01       		.uleb128 0x1
 2636 01a9 13       		.uleb128 0x13
 2637 01aa 00       		.byte	0
 2638 01ab 00       		.byte	0
 2639 01ac 21       		.uleb128 0x21
 2640 01ad 0B       		.uleb128 0xb
 2641 01ae 01       		.byte	0x1
 2642 01af 55       		.uleb128 0x55
 2643 01b0 06       		.uleb128 0x6
 2644 01b1 01       		.uleb128 0x1
 2645 01b2 13       		.uleb128 0x13
 2646 01b3 00       		.byte	0
 2647 01b4 00       		.byte	0
 2648 01b5 22       		.uleb128 0x22
 2649 01b6 34       		.uleb128 0x34
 2650 01b7 00       		.byte	0
 2651 01b8 03       		.uleb128 0x3
 2652 01b9 08       		.uleb128 0x8
 2653 01ba 3A       		.uleb128 0x3a
 2654 01bb 0B       		.uleb128 0xb
 2655 01bc 3B       		.uleb128 0x3b
 2656 01bd 0B       		.uleb128 0xb
 2657 01be 49       		.uleb128 0x49
 2658 01bf 13       		.uleb128 0x13
 2659 01c0 02       		.uleb128 0x2
ARM GAS  C:\Users\TAISIK~1\AppData\Local\Temp\ccaTZTgg.s 			page 48


 2660 01c1 06       		.uleb128 0x6
 2661 01c2 00       		.byte	0
 2662 01c3 00       		.byte	0
 2663 01c4 23       		.uleb128 0x23
 2664 01c5 0B       		.uleb128 0xb
 2665 01c6 01       		.byte	0x1
 2666 01c7 11       		.uleb128 0x11
 2667 01c8 01       		.uleb128 0x1
 2668 01c9 12       		.uleb128 0x12
 2669 01ca 01       		.uleb128 0x1
 2670 01cb 00       		.byte	0
 2671 01cc 00       		.byte	0
 2672 01cd 24       		.uleb128 0x24
 2673 01ce 2E       		.uleb128 0x2e
 2674 01cf 01       		.byte	0x1
 2675 01d0 3F       		.uleb128 0x3f
 2676 01d1 0C       		.uleb128 0xc
 2677 01d2 03       		.uleb128 0x3
 2678 01d3 0E       		.uleb128 0xe
 2679 01d4 3A       		.uleb128 0x3a
 2680 01d5 0B       		.uleb128 0xb
 2681 01d6 3B       		.uleb128 0x3b
 2682 01d7 0B       		.uleb128 0xb
 2683 01d8 27       		.uleb128 0x27
 2684 01d9 0C       		.uleb128 0xc
 2685 01da 49       		.uleb128 0x49
 2686 01db 13       		.uleb128 0x13
 2687 01dc 11       		.uleb128 0x11
 2688 01dd 01       		.uleb128 0x1
 2689 01de 12       		.uleb128 0x12
 2690 01df 01       		.uleb128 0x1
 2691 01e0 40       		.uleb128 0x40
 2692 01e1 06       		.uleb128 0x6
 2693 01e2 01       		.uleb128 0x1
 2694 01e3 13       		.uleb128 0x13
 2695 01e4 00       		.byte	0
 2696 01e5 00       		.byte	0
 2697 01e6 25       		.uleb128 0x25
 2698 01e7 34       		.uleb128 0x34
 2699 01e8 00       		.byte	0
 2700 01e9 03       		.uleb128 0x3
 2701 01ea 0E       		.uleb128 0xe
 2702 01eb 3A       		.uleb128 0x3a
 2703 01ec 0B       		.uleb128 0xb
 2704 01ed 3B       		.uleb128 0x3b
 2705 01ee 05       		.uleb128 0x5
 2706 01ef 49       		.uleb128 0x49
 2707 01f0 13       		.uleb128 0x13
 2708 01f1 3F       		.uleb128 0x3f
 2709 01f2 0C       		.uleb128 0xc
 2710 01f3 3C       		.uleb128 0x3c
 2711 01f4 0C       		.uleb128 0xc
 2712 01f5 00       		.byte	0
 2713 01f6 00       		.byte	0
 2714 01f7 26       		.uleb128 0x26
 2715 01f8 34       		.uleb128 0x34
 2716 01f9 00       		.byte	0
ARM GAS  C:\Users\TAISIK~1\AppData\Local\Temp\ccaTZTgg.s 			page 49


 2717 01fa 03       		.uleb128 0x3
 2718 01fb 08       		.uleb128 0x8
 2719 01fc 3A       		.uleb128 0x3a
 2720 01fd 0B       		.uleb128 0xb
 2721 01fe 3B       		.uleb128 0x3b
 2722 01ff 0B       		.uleb128 0xb
 2723 0200 49       		.uleb128 0x49
 2724 0201 13       		.uleb128 0x13
 2725 0202 02       		.uleb128 0x2
 2726 0203 0A       		.uleb128 0xa
 2727 0204 00       		.byte	0
 2728 0205 00       		.byte	0
 2729 0206 00       		.byte	0
 2730              		.section	.debug_loc,"",%progbits
 2731              	.Ldebug_loc0:
 2732              	.LLST0:
 2733 0000 00000000 		.4byte	.LVL0
 2734 0004 02000000 		.4byte	.LVL1
 2735 0008 0100     		.2byte	0x1
 2736 000a 50       		.byte	0x50
 2737 000b 02000000 		.4byte	.LVL1
 2738 000f 05000000 		.4byte	.LVL5-1
 2739 0013 0300     		.2byte	0x3
 2740 0015 70       		.byte	0x70
 2741 0016 74       		.sleb128 -12
 2742 0017 9F       		.byte	0x9f
 2743 0018 00000000 		.4byte	0
 2744 001c 00000000 		.4byte	0
 2745              	.LLST1:
 2746 0020 00000000 		.4byte	.LVL0
 2747 0024 05000000 		.4byte	.LVL4-1
 2748 0028 0100     		.2byte	0x1
 2749 002a 51       		.byte	0x51
 2750 002b 00000000 		.4byte	0
 2751 002f 00000000 		.4byte	0
 2752              	.LLST2:
 2753 0033 00000000 		.4byte	.LVL0
 2754 0037 05000000 		.4byte	.LVL3-1
 2755 003b 0100     		.2byte	0x1
 2756 003d 52       		.byte	0x52
 2757 003e 00000000 		.4byte	0
 2758 0042 00000000 		.4byte	0
 2759              	.LLST3:
 2760 0046 00000000 		.4byte	.LVL0
 2761 004a 05000000 		.4byte	.LVL2-1
 2762 004e 0100     		.2byte	0x1
 2763 0050 53       		.byte	0x53
 2764 0051 00000000 		.4byte	0
 2765 0055 00000000 		.4byte	0
 2766              	.LLST4:
 2767 0059 00000000 		.4byte	.LVL6
 2768 005d 02000000 		.4byte	.LVL7
 2769 0061 0100     		.2byte	0x1
 2770 0063 50       		.byte	0x50
 2771 0064 02000000 		.4byte	.LVL7
 2772 0068 09000000 		.4byte	.LVL8-1
 2773 006c 0300     		.2byte	0x3
ARM GAS  C:\Users\TAISIK~1\AppData\Local\Temp\ccaTZTgg.s 			page 50


 2774 006e 70       		.byte	0x70
 2775 006f 74       		.sleb128 -12
 2776 0070 9F       		.byte	0x9f
 2777 0071 00000000 		.4byte	0
 2778 0075 00000000 		.4byte	0
 2779              	.LLST5:
 2780 0079 00000000 		.4byte	.LVL6
 2781 007d 09000000 		.4byte	.LVL10-1
 2782 0081 0100     		.2byte	0x1
 2783 0083 51       		.byte	0x51
 2784 0084 00000000 		.4byte	0
 2785 0088 00000000 		.4byte	0
 2786              	.LLST6:
 2787 008c 00000000 		.4byte	.LVL6
 2788 0090 09000000 		.4byte	.LVL9-1
 2789 0094 0100     		.2byte	0x1
 2790 0096 52       		.byte	0x52
 2791 0097 00000000 		.4byte	0
 2792 009b 00000000 		.4byte	0
 2793              	.LLST7:
 2794 009f 00000000 		.4byte	.LVL11
 2795 00a3 02000000 		.4byte	.LVL12
 2796 00a7 0100     		.2byte	0x1
 2797 00a9 50       		.byte	0x50
 2798 00aa 02000000 		.4byte	.LVL12
 2799 00ae 05000000 		.4byte	.LVL13-1
 2800 00b2 0300     		.2byte	0x3
 2801 00b4 70       		.byte	0x70
 2802 00b5 50       		.sleb128 -48
 2803 00b6 9F       		.byte	0x9f
 2804 00b7 00000000 		.4byte	0
 2805 00bb 00000000 		.4byte	0
 2806              	.LLST8:
 2807 00bf 00000000 		.4byte	.LVL11
 2808 00c3 05000000 		.4byte	.LVL16-1
 2809 00c7 0100     		.2byte	0x1
 2810 00c9 51       		.byte	0x51
 2811 00ca 00000000 		.4byte	0
 2812 00ce 00000000 		.4byte	0
 2813              	.LLST9:
 2814 00d2 00000000 		.4byte	.LVL11
 2815 00d6 05000000 		.4byte	.LVL15-1
 2816 00da 0100     		.2byte	0x1
 2817 00dc 52       		.byte	0x52
 2818 00dd 00000000 		.4byte	0
 2819 00e1 00000000 		.4byte	0
 2820              	.LLST10:
 2821 00e5 00000000 		.4byte	.LVL11
 2822 00e9 05000000 		.4byte	.LVL14-1
 2823 00ed 0100     		.2byte	0x1
 2824 00ef 53       		.byte	0x53
 2825 00f0 00000000 		.4byte	0
 2826 00f4 00000000 		.4byte	0
 2827              	.LLST11:
 2828 00f8 00000000 		.4byte	.LVL17
 2829 00fc 02000000 		.4byte	.LVL18
 2830 0100 0100     		.2byte	0x1
ARM GAS  C:\Users\TAISIK~1\AppData\Local\Temp\ccaTZTgg.s 			page 51


 2831 0102 50       		.byte	0x50
 2832 0103 02000000 		.4byte	.LVL18
 2833 0107 09000000 		.4byte	.LVL21-1
 2834 010b 0300     		.2byte	0x3
 2835 010d 70       		.byte	0x70
 2836 010e 50       		.sleb128 -48
 2837 010f 9F       		.byte	0x9f
 2838 0110 00000000 		.4byte	0
 2839 0114 00000000 		.4byte	0
 2840              	.LLST12:
 2841 0118 00000000 		.4byte	.LVL17
 2842 011c 09000000 		.4byte	.LVL20-1
 2843 0120 0100     		.2byte	0x1
 2844 0122 51       		.byte	0x51
 2845 0123 00000000 		.4byte	0
 2846 0127 00000000 		.4byte	0
 2847              	.LLST13:
 2848 012b 00000000 		.4byte	.LVL17
 2849 012f 09000000 		.4byte	.LVL19-1
 2850 0133 0100     		.2byte	0x1
 2851 0135 52       		.byte	0x52
 2852 0136 00000000 		.4byte	0
 2853 013a 00000000 		.4byte	0
 2854              	.LLST14:
 2855 013e 00000000 		.4byte	.LVL22
 2856 0142 02000000 		.4byte	.LVL23
 2857 0146 0100     		.2byte	0x1
 2858 0148 50       		.byte	0x50
 2859 0149 02000000 		.4byte	.LVL23
 2860 014d 05000000 		.4byte	.LVL25-1
 2861 0151 0300     		.2byte	0x3
 2862 0153 70       		.byte	0x70
 2863 0154 74       		.sleb128 -12
 2864 0155 9F       		.byte	0x9f
 2865 0156 00000000 		.4byte	0
 2866 015a 00000000 		.4byte	0
 2867              	.LLST15:
 2868 015e 00000000 		.4byte	.LVL22
 2869 0162 05000000 		.4byte	.LVL24-1
 2870 0166 0100     		.2byte	0x1
 2871 0168 51       		.byte	0x51
 2872 0169 00000000 		.4byte	0
 2873 016d 00000000 		.4byte	0
 2874              	.LLST16:
 2875 0171 00000000 		.4byte	.LVL26
 2876 0175 02000000 		.4byte	.LVL27
 2877 0179 0100     		.2byte	0x1
 2878 017b 50       		.byte	0x50
 2879 017c 02000000 		.4byte	.LVL27
 2880 0180 09000000 		.4byte	.LVL28-1
 2881 0184 0300     		.2byte	0x3
 2882 0186 70       		.byte	0x70
 2883 0187 74       		.sleb128 -12
 2884 0188 9F       		.byte	0x9f
 2885 0189 00000000 		.4byte	0
 2886 018d 00000000 		.4byte	0
 2887              	.LLST17:
ARM GAS  C:\Users\TAISIK~1\AppData\Local\Temp\ccaTZTgg.s 			page 52


 2888 0191 00000000 		.4byte	.LVL29
 2889 0195 02000000 		.4byte	.LVL30
 2890 0199 0100     		.2byte	0x1
 2891 019b 50       		.byte	0x50
 2892 019c 02000000 		.4byte	.LVL30
 2893 01a0 05000000 		.4byte	.LVL32-1
 2894 01a4 0300     		.2byte	0x3
 2895 01a6 70       		.byte	0x70
 2896 01a7 50       		.sleb128 -48
 2897 01a8 9F       		.byte	0x9f
 2898 01a9 00000000 		.4byte	0
 2899 01ad 00000000 		.4byte	0
 2900              	.LLST18:
 2901 01b1 00000000 		.4byte	.LVL29
 2902 01b5 05000000 		.4byte	.LVL31-1
 2903 01b9 0100     		.2byte	0x1
 2904 01bb 51       		.byte	0x51
 2905 01bc 00000000 		.4byte	0
 2906 01c0 00000000 		.4byte	0
 2907              	.LLST19:
 2908 01c4 00000000 		.4byte	.LVL29
 2909 01c8 05000000 		.4byte	.LVL33-1
 2910 01cc 0100     		.2byte	0x1
 2911 01ce 52       		.byte	0x52
 2912 01cf 00000000 		.4byte	0
 2913 01d3 00000000 		.4byte	0
 2914              	.LLST20:
 2915 01d7 00000000 		.4byte	.LVL34
 2916 01db 02000000 		.4byte	.LVL35
 2917 01df 0100     		.2byte	0x1
 2918 01e1 50       		.byte	0x50
 2919 01e2 02000000 		.4byte	.LVL35
 2920 01e6 09000000 		.4byte	.LVL37-1
 2921 01ea 0300     		.2byte	0x3
 2922 01ec 70       		.byte	0x70
 2923 01ed 50       		.sleb128 -48
 2924 01ee 9F       		.byte	0x9f
 2925 01ef 00000000 		.4byte	0
 2926 01f3 00000000 		.4byte	0
 2927              	.LLST21:
 2928 01f7 00000000 		.4byte	.LVL34
 2929 01fb 09000000 		.4byte	.LVL36-1
 2930 01ff 0100     		.2byte	0x1
 2931 0201 51       		.byte	0x51
 2932 0202 00000000 		.4byte	0
 2933 0206 00000000 		.4byte	0
 2934              	.LLST22:
 2935 020a 00000000 		.4byte	.LFB127
 2936 020e 02000000 		.4byte	.LCFI0
 2937 0212 0200     		.2byte	0x2
 2938 0214 7D       		.byte	0x7d
 2939 0215 00       		.sleb128 0
 2940 0216 02000000 		.4byte	.LCFI0
 2941 021a 14000000 		.4byte	.LCFI1
 2942 021e 0200     		.2byte	0x2
 2943 0220 7D       		.byte	0x7d
 2944 0221 10       		.sleb128 16
ARM GAS  C:\Users\TAISIK~1\AppData\Local\Temp\ccaTZTgg.s 			page 53


 2945 0222 14000000 		.4byte	.LCFI1
 2946 0226 44000000 		.4byte	.LFE127
 2947 022a 0200     		.2byte	0x2
 2948 022c 7D       		.byte	0x7d
 2949 022d 18       		.sleb128 24
 2950 022e 00000000 		.4byte	0
 2951 0232 00000000 		.4byte	0
 2952              	.LLST23:
 2953 0236 00000000 		.4byte	.LVL38
 2954 023a 28000000 		.4byte	.LVL41
 2955 023e 0100     		.2byte	0x1
 2956 0240 50       		.byte	0x50
 2957 0241 28000000 		.4byte	.LVL41
 2958 0245 44000000 		.4byte	.LFE127
 2959 0249 0100     		.2byte	0x1
 2960 024b 54       		.byte	0x54
 2961 024c 00000000 		.4byte	0
 2962 0250 00000000 		.4byte	0
 2963              	.LLST24:
 2964 0254 00000000 		.4byte	.LVL38
 2965 0258 20000000 		.4byte	.LVL39
 2966 025c 0100     		.2byte	0x1
 2967 025e 51       		.byte	0x51
 2968 025f 20000000 		.4byte	.LVL39
 2969 0263 2D000000 		.4byte	.LVL42-1
 2970 0267 0100     		.2byte	0x1
 2971 0269 53       		.byte	0x53
 2972 026a 00000000 		.4byte	0
 2973 026e 00000000 		.4byte	0
 2974              	.LLST25:
 2975 0272 00000000 		.4byte	.LVL38
 2976 0276 22000000 		.4byte	.LVL40
 2977 027a 0100     		.2byte	0x1
 2978 027c 52       		.byte	0x52
 2979 027d 22000000 		.4byte	.LVL40
 2980 0281 44000000 		.4byte	.LFE127
 2981 0285 0100     		.2byte	0x1
 2982 0287 55       		.byte	0x55
 2983 0288 00000000 		.4byte	0
 2984 028c 00000000 		.4byte	0
 2985              	.LLST26:
 2986 0290 00000000 		.4byte	.LFB128
 2987 0294 02000000 		.4byte	.LCFI2
 2988 0298 0200     		.2byte	0x2
 2989 029a 7D       		.byte	0x7d
 2990 029b 00       		.sleb128 0
 2991 029c 02000000 		.4byte	.LCFI2
 2992 02a0 1A000000 		.4byte	.LFE128
 2993 02a4 0200     		.2byte	0x2
 2994 02a6 7D       		.byte	0x7d
 2995 02a7 08       		.sleb128 8
 2996 02a8 00000000 		.4byte	0
 2997 02ac 00000000 		.4byte	0
 2998              	.LLST27:
 2999 02b0 00000000 		.4byte	.LVL43
 3000 02b4 0D000000 		.4byte	.LVL46-1
 3001 02b8 0100     		.2byte	0x1
ARM GAS  C:\Users\TAISIK~1\AppData\Local\Temp\ccaTZTgg.s 			page 54


 3002 02ba 50       		.byte	0x50
 3003 02bb 0D000000 		.4byte	.LVL46-1
 3004 02bf 1A000000 		.4byte	.LFE128
 3005 02c3 0100     		.2byte	0x1
 3006 02c5 54       		.byte	0x54
 3007 02c6 00000000 		.4byte	0
 3008 02ca 00000000 		.4byte	0
 3009              	.LLST28:
 3010 02ce 00000000 		.4byte	.LVL43
 3011 02d2 0D000000 		.4byte	.LVL46-1
 3012 02d6 0100     		.2byte	0x1
 3013 02d8 51       		.byte	0x51
 3014 02d9 00000000 		.4byte	0
 3015 02dd 00000000 		.4byte	0
 3016              	.LLST29:
 3017 02e1 0A000000 		.4byte	.LVL45
 3018 02e5 0D000000 		.4byte	.LVL46-1
 3019 02e9 0100     		.2byte	0x1
 3020 02eb 53       		.byte	0x53
 3021 02ec 00000000 		.4byte	0
 3022 02f0 00000000 		.4byte	0
 3023              	.LLST30:
 3024 02f4 18000000 		.4byte	.LVL48
 3025 02f8 1A000000 		.4byte	.LFE128
 3026 02fc 0100     		.2byte	0x1
 3027 02fe 53       		.byte	0x53
 3028 02ff 00000000 		.4byte	0
 3029 0303 00000000 		.4byte	0
 3030              	.LLST31:
 3031 0307 00000000 		.4byte	.LFB129
 3032 030b 02000000 		.4byte	.LCFI3
 3033 030f 0200     		.2byte	0x2
 3034 0311 7D       		.byte	0x7d
 3035 0312 00       		.sleb128 0
 3036 0313 02000000 		.4byte	.LCFI3
 3037 0317 2E000000 		.4byte	.LFE129
 3038 031b 0200     		.2byte	0x2
 3039 031d 7D       		.byte	0x7d
 3040 031e 08       		.sleb128 8
 3041 031f 00000000 		.4byte	0
 3042 0323 00000000 		.4byte	0
 3043              	.LLST32:
 3044 0327 00000000 		.4byte	.LVL49
 3045 032b 0D000000 		.4byte	.LVL52-1
 3046 032f 0100     		.2byte	0x1
 3047 0331 50       		.byte	0x50
 3048 0332 0D000000 		.4byte	.LVL52-1
 3049 0336 2E000000 		.4byte	.LFE129
 3050 033a 0100     		.2byte	0x1
 3051 033c 54       		.byte	0x54
 3052 033d 00000000 		.4byte	0
 3053 0341 00000000 		.4byte	0
 3054              	.LLST33:
 3055 0345 0A000000 		.4byte	.LVL51
 3056 0349 0D000000 		.4byte	.LVL52-1
 3057 034d 0100     		.2byte	0x1
 3058 034f 53       		.byte	0x53
ARM GAS  C:\Users\TAISIK~1\AppData\Local\Temp\ccaTZTgg.s 			page 55


 3059 0350 00000000 		.4byte	0
 3060 0354 00000000 		.4byte	0
 3061              	.LLST34:
 3062 0358 2C000000 		.4byte	.LVL54
 3063 035c 2E000000 		.4byte	.LFE129
 3064 0360 0100     		.2byte	0x1
 3065 0362 53       		.byte	0x53
 3066 0363 00000000 		.4byte	0
 3067 0367 00000000 		.4byte	0
 3068              	.LLST35:
 3069 036b 00000000 		.4byte	.LFB130
 3070 036f 02000000 		.4byte	.LCFI4
 3071 0373 0200     		.2byte	0x2
 3072 0375 7D       		.byte	0x7d
 3073 0376 00       		.sleb128 0
 3074 0377 02000000 		.4byte	.LCFI4
 3075 037b 3C000000 		.4byte	.LFE130
 3076 037f 0200     		.2byte	0x2
 3077 0381 7D       		.byte	0x7d
 3078 0382 10       		.sleb128 16
 3079 0383 00000000 		.4byte	0
 3080 0387 00000000 		.4byte	0
 3081              	.LLST36:
 3082 038b 00000000 		.4byte	.LVL55
 3083 038f 0E000000 		.4byte	.LVL56
 3084 0393 0100     		.2byte	0x1
 3085 0395 50       		.byte	0x50
 3086 0396 0E000000 		.4byte	.LVL56
 3087 039a 3C000000 		.4byte	.LFE130
 3088 039e 0100     		.2byte	0x1
 3089 03a0 54       		.byte	0x54
 3090 03a1 00000000 		.4byte	0
 3091 03a5 00000000 		.4byte	0
 3092              	.LLST37:
 3093 03a9 00000000 		.4byte	.LVL55
 3094 03ad 10000000 		.4byte	.LVL57
 3095 03b1 0100     		.2byte	0x1
 3096 03b3 51       		.byte	0x51
 3097 03b4 1A000000 		.4byte	.LVL58
 3098 03b8 1E000000 		.4byte	.LVL59
 3099 03bc 0100     		.2byte	0x1
 3100 03be 51       		.byte	0x51
 3101 03bf 00000000 		.4byte	0
 3102 03c3 00000000 		.4byte	0
 3103              	.LLST38:
 3104 03c7 00000000 		.4byte	.LFB131
 3105 03cb 02000000 		.4byte	.LCFI5
 3106 03cf 0200     		.2byte	0x2
 3107 03d1 7D       		.byte	0x7d
 3108 03d2 00       		.sleb128 0
 3109 03d3 02000000 		.4byte	.LCFI5
 3110 03d7 22000000 		.4byte	.LFE131
 3111 03db 0200     		.2byte	0x2
 3112 03dd 7D       		.byte	0x7d
 3113 03de 10       		.sleb128 16
 3114 03df 00000000 		.4byte	0
 3115 03e3 00000000 		.4byte	0
ARM GAS  C:\Users\TAISIK~1\AppData\Local\Temp\ccaTZTgg.s 			page 56


 3116              	.LLST39:
 3117 03e7 00000000 		.4byte	.LVL60
 3118 03eb 08000000 		.4byte	.LVL61
 3119 03ef 0100     		.2byte	0x1
 3120 03f1 50       		.byte	0x50
 3121 03f2 08000000 		.4byte	.LVL61
 3122 03f6 22000000 		.4byte	.LFE131
 3123 03fa 0100     		.2byte	0x1
 3124 03fc 55       		.byte	0x55
 3125 03fd 00000000 		.4byte	0
 3126 0401 00000000 		.4byte	0
 3127              	.LLST40:
 3128 0405 10000000 		.4byte	.LVL62
 3129 0409 18000000 		.4byte	.LVL63
 3130 040d 0100     		.2byte	0x1
 3131 040f 50       		.byte	0x50
 3132 0410 18000000 		.4byte	.LVL63
 3133 0414 22000000 		.4byte	.LFE131
 3134 0418 0100     		.2byte	0x1
 3135 041a 54       		.byte	0x54
 3136 041b 00000000 		.4byte	0
 3137 041f 00000000 		.4byte	0
 3138              		.section	.debug_aranges,"",%progbits
 3139 0000 84000000 		.4byte	0x84
 3140 0004 0200     		.2byte	0x2
 3141 0006 00000000 		.4byte	.Ldebug_info0
 3142 000a 04       		.byte	0x4
 3143 000b 00       		.byte	0
 3144 000c 0000     		.2byte	0
 3145 000e 0000     		.2byte	0
 3146 0010 00000000 		.4byte	.LFB125
 3147 0014 06000000 		.4byte	.LFE125-.LFB125
 3148 0018 00000000 		.4byte	.LFB119
 3149 001c 0A000000 		.4byte	.LFE119-.LFB119
 3150 0020 00000000 		.4byte	.LFB124
 3151 0024 06000000 		.4byte	.LFE124-.LFB124
 3152 0028 00000000 		.4byte	.LFB118
 3153 002c 0A000000 		.4byte	.LFE118-.LFB118
 3154 0030 00000000 		.4byte	.LFB123
 3155 0034 06000000 		.4byte	.LFE123-.LFB123
 3156 0038 00000000 		.4byte	.LFB121
 3157 003c 0A000000 		.4byte	.LFE121-.LFB121
 3158 0040 00000000 		.4byte	.LFB122
 3159 0044 06000000 		.4byte	.LFE122-.LFB122
 3160 0048 00000000 		.4byte	.LFB120
 3161 004c 0A000000 		.4byte	.LFE120-.LFB120
 3162 0050 00000000 		.4byte	.LFB126
 3163 0054 04000000 		.4byte	.LFE126-.LFB126
 3164 0058 00000000 		.4byte	.LFB127
 3165 005c 44000000 		.4byte	.LFE127-.LFB127
 3166 0060 00000000 		.4byte	.LFB128
 3167 0064 1A000000 		.4byte	.LFE128-.LFB128
 3168 0068 00000000 		.4byte	.LFB129
 3169 006c 2E000000 		.4byte	.LFE129-.LFB129
 3170 0070 00000000 		.4byte	.LFB130
 3171 0074 3C000000 		.4byte	.LFE130-.LFB130
 3172 0078 00000000 		.4byte	.LFB131
ARM GAS  C:\Users\TAISIK~1\AppData\Local\Temp\ccaTZTgg.s 			page 57


 3173 007c 22000000 		.4byte	.LFE131-.LFB131
 3174 0080 00000000 		.4byte	0
 3175 0084 00000000 		.4byte	0
 3176              		.section	.debug_ranges,"",%progbits
 3177              	.Ldebug_ranges0:
 3178 0000 02000000 		.4byte	.LBB2
 3179 0004 04000000 		.4byte	.LBE2
 3180 0008 06000000 		.4byte	.LBB3
 3181 000c 0A000000 		.4byte	.LBE3
 3182 0010 00000000 		.4byte	0
 3183 0014 00000000 		.4byte	0
 3184 0018 02000000 		.4byte	.LBB5
 3185 001c 04000000 		.4byte	.LBE5
 3186 0020 06000000 		.4byte	.LBB6
 3187 0024 0A000000 		.4byte	.LBE6
 3188 0028 00000000 		.4byte	0
 3189 002c 00000000 		.4byte	0
 3190 0030 00000000 		.4byte	.LFB125
 3191 0034 06000000 		.4byte	.LFE125
 3192 0038 00000000 		.4byte	.LFB119
 3193 003c 0A000000 		.4byte	.LFE119
 3194 0040 00000000 		.4byte	.LFB124
 3195 0044 06000000 		.4byte	.LFE124
 3196 0048 00000000 		.4byte	.LFB118
 3197 004c 0A000000 		.4byte	.LFE118
 3198 0050 00000000 		.4byte	.LFB123
 3199 0054 06000000 		.4byte	.LFE123
 3200 0058 00000000 		.4byte	.LFB121
 3201 005c 0A000000 		.4byte	.LFE121
 3202 0060 00000000 		.4byte	.LFB122
 3203 0064 06000000 		.4byte	.LFE122
 3204 0068 00000000 		.4byte	.LFB120
 3205 006c 0A000000 		.4byte	.LFE120
 3206 0070 00000000 		.4byte	.LFB126
 3207 0074 04000000 		.4byte	.LFE126
 3208 0078 00000000 		.4byte	.LFB127
 3209 007c 44000000 		.4byte	.LFE127
 3210 0080 00000000 		.4byte	.LFB128
 3211 0084 1A000000 		.4byte	.LFE128
 3212 0088 00000000 		.4byte	.LFB129
 3213 008c 2E000000 		.4byte	.LFE129
 3214 0090 00000000 		.4byte	.LFB130
 3215 0094 3C000000 		.4byte	.LFE130
 3216 0098 00000000 		.4byte	.LFB131
 3217 009c 22000000 		.4byte	.LFE131
 3218 00a0 00000000 		.4byte	0
 3219 00a4 00000000 		.4byte	0
 3220              		.section	.debug_line,"",%progbits
 3221              	.Ldebug_line0:
 3222 0000 A3030000 		.section	.debug_str,"MS",%progbits,1
 3222      02007702 
 3222      00000201 
 3222      FB0E0D00 
 3222      01010101 
 3223              	.LASF2:
 3224 0000 73697A65 		.ascii	"size_t\000"
 3224      5F7400
ARM GAS  C:\Users\TAISIK~1\AppData\Local\Temp\ccaTZTgg.s 			page 58


 3225              	.LASF61:
 3226 0007 7264796D 		.ascii	"rdymsg\000"
 3226      736700
 3227              	.LASF77:
 3228 000e 4F757470 		.ascii	"OutputQueue\000"
 3228      75745175 
 3228      65756500 
 3229              	.LASF119:
 3230 001a 474E5520 		.ascii	"GNU C 4.6.2 20121016 (release) [ARM/embedded-4_6-br"
 3230      4320342E 
 3230      362E3220 
 3230      32303132 
 3230      31303136 
 3231 004d 616E6368 		.ascii	"anch revision 192487]\000"
 3231      20726576 
 3231      6973696F 
 3231      6E203139 
 3231      32343837 
 3232              	.LASF13:
 3233 0063 6C6F6E67 		.ascii	"long long unsigned int\000"
 3233      206C6F6E 
 3233      6720756E 
 3233      7369676E 
 3233      65642069 
 3234              	.LASF62:
 3235 007a 65786974 		.ascii	"exitcode\000"
 3235      636F6465 
 3235      00
 3236              	.LASF118:
 3237 0083 49544D5F 		.ascii	"ITM_RxBuffer\000"
 3237      52784275 
 3237      66666572 
 3237      00
 3238              	.LASF113:
 3239 0090 73644F62 		.ascii	"sdObjectInit\000"
 3239      6A656374 
 3239      496E6974 
 3239      00
 3240              	.LASF108:
 3241 009d 72656164 		.ascii	"readt\000"
 3241      7400
 3242              	.LASF67:
 3243 00a3 715F7761 		.ascii	"q_waiting\000"
 3243      6974696E 
 3243      6700
 3244              	.LASF12:
 3245 00ad 6C6F6E67 		.ascii	"long long int\000"
 3245      206C6F6E 
 3245      6720696E 
 3245      7400
 3246              	.LASF1:
 3247 00bb 7369676E 		.ascii	"signed char\000"
 3247      65642063 
 3247      68617200 
 3248              	.LASF79:
 3249 00c7 47545052 		.ascii	"GTPR\000"
 3249      00
ARM GAS  C:\Users\TAISIK~1\AppData\Local\Temp\ccaTZTgg.s 			page 59


 3250              	.LASF44:
 3251 00cc 705F6D70 		.ascii	"p_mpool\000"
 3251      6F6F6C00 
 3252              	.LASF14:
 3253 00d4 626F6F6C 		.ascii	"bool_t\000"
 3253      5F7400
 3254              	.LASF51:
 3255 00db 6D5F7175 		.ascii	"m_queue\000"
 3255      65756500 
 3256              	.LASF19:
 3257 00e3 74736C69 		.ascii	"tslices_t\000"
 3257      6365735F 
 3257      7400
 3258              	.LASF92:
 3259 00ed 73746174 		.ascii	"state\000"
 3259      6500
 3260              	.LASF9:
 3261 00f3 6C6F6E67 		.ascii	"long int\000"
 3261      20696E74 
 3261      00
 3262              	.LASF17:
 3263 00fc 74737461 		.ascii	"tstate_t\000"
 3263      74655F74 
 3263      00
 3264              	.LASF35:
 3265 0105 705F7265 		.ascii	"p_refs\000"
 3265      667300
 3266              	.LASF69:
 3267 010c 715F6275 		.ascii	"q_buffer\000"
 3267      66666572 
 3267      00
 3268              	.LASF71:
 3269 0115 715F7772 		.ascii	"q_wrptr\000"
 3269      70747200 
 3270              	.LASF37:
 3271 011d 705F7469 		.ascii	"p_time\000"
 3271      6D6500
 3272              	.LASF97:
 3273 0124 73635F73 		.ascii	"sc_speed\000"
 3273      70656564 
 3273      00
 3274              	.LASF30:
 3275 012d 705F6E65 		.ascii	"p_newer\000"
 3275      77657200 
 3276              	.LASF47:
 3277 0135 72656761 		.ascii	"regarm_t\000"
 3277      726D5F74 
 3277      00
 3278              	.LASF59:
 3279 013e 4576656E 		.ascii	"EventSource\000"
 3279      74536F75 
 3279      72636500 
 3280              	.LASF95:
 3281 014a 75736172 		.ascii	"usart\000"
 3281      7400
 3282              	.LASF0:
 3283 0150 756E7369 		.ascii	"unsigned int\000"
ARM GAS  C:\Users\TAISIK~1\AppData\Local\Temp\ccaTZTgg.s 			page 60


 3283      676E6564 
 3283      20696E74 
 3283      00
 3284              	.LASF6:
 3285 015d 75696E74 		.ascii	"uint16_t\000"
 3285      31365F74 
 3285      00
 3286              	.LASF102:
 3287 0166 53657269 		.ascii	"SerialDriverVMT\000"
 3287      616C4472 
 3287      69766572 
 3287      564D5400 
 3288              	.LASF111:
 3289 0176 696E6F74 		.ascii	"inotify\000"
 3289      69667900 
 3290              	.LASF93:
 3291 017e 69717565 		.ascii	"iqueue\000"
 3291      756500
 3292              	.LASF39:
 3293 0185 705F6D73 		.ascii	"p_msgqueue\000"
 3293      67717565 
 3293      756500
 3294              	.LASF110:
 3295 0190 74696D65 		.ascii	"timeout\000"
 3295      6F757400 
 3296              	.LASF106:
 3297 0198 67657474 		.ascii	"gett\000"
 3297      00
 3298              	.LASF91:
 3299 019d 6576656E 		.ascii	"event\000"
 3299      7400
 3300              	.LASF7:
 3301 01a3 73686F72 		.ascii	"short unsigned int\000"
 3301      7420756E 
 3301      7369676E 
 3301      65642069 
 3301      6E7400
 3302              	.LASF21:
 3303 01b6 6D73675F 		.ascii	"msg_t\000"
 3303      7400
 3304              	.LASF94:
 3305 01bc 6F717565 		.ascii	"oqueue\000"
 3305      756500
 3306              	.LASF85:
 3307 01c3 55534152 		.ascii	"USART_TypeDef\000"
 3307      545F5479 
 3307      70654465 
 3307      6600
 3308              	.LASF107:
 3309 01d1 77726974 		.ascii	"writet\000"
 3309      657400
 3310              	.LASF16:
 3311 01d8 746D6F64 		.ascii	"tmode_t\000"
 3311      655F7400 
 3312              	.LASF46:
 3313 01e0 54687265 		.ascii	"ThreadsList\000"
 3313      6164734C 
ARM GAS  C:\Users\TAISIK~1\AppData\Local\Temp\ccaTZTgg.s 			page 61


 3313      69737400 
 3314              	.LASF22:
 3315 01ec 6576656E 		.ascii	"eventmask_t\000"
 3315      746D6173 
 3315      6B5F7400 
 3316              	.LASF76:
 3317 01f8 496E7075 		.ascii	"InputQueue\000"
 3317      74517565 
 3317      756500
 3318              	.LASF75:
 3319 0203 716E6F74 		.ascii	"qnotify_t\000"
 3319      6966795F 
 3319      7400
 3320              	.LASF66:
 3321 020d 47656E65 		.ascii	"GenericQueue\000"
 3321      72696351 
 3321      75657565 
 3321      00
 3322              	.LASF103:
 3323 021a 77726974 		.ascii	"write\000"
 3323      6500
 3324              	.LASF105:
 3325 0220 70757474 		.ascii	"putt\000"
 3325      00
 3326              	.LASF68:
 3327 0225 715F636F 		.ascii	"q_counter\000"
 3327      756E7465 
 3327      7200
 3328              	.LASF50:
 3329 022f 4D757465 		.ascii	"Mutex\000"
 3329      7800
 3330              	.LASF28:
 3331 0235 705F7072 		.ascii	"p_prio\000"
 3331      696F00
 3332              	.LASF57:
 3333 023c 656C5F6D 		.ascii	"el_mask\000"
 3333      61736B00 
 3334              	.LASF31:
 3335 0244 705F6F6C 		.ascii	"p_older\000"
 3335      64657200 
 3336              	.LASF45:
 3337 024c 54687265 		.ascii	"ThreadsQueue\000"
 3337      61647351 
 3337      75657565 
 3337      00
 3338              	.LASF116:
 3339 0259 73645374 		.ascii	"sdStop\000"
 3339      6F7000
 3340              	.LASF109:
 3341 0260 74696D65 		.ascii	"time\000"
 3341      00
 3342              	.LASF101:
 3343 0265 53657269 		.ascii	"SerialConfig\000"
 3343      616C436F 
 3343      6E666967 
 3343      00
 3344              	.LASF18:
ARM GAS  C:\Users\TAISIK~1\AppData\Local\Temp\ccaTZTgg.s 			page 62


 3345 0272 74726566 		.ascii	"trefs_t\000"
 3345      735F7400 
 3346              	.LASF78:
 3347 027a 52455345 		.ascii	"RESERVED1\000"
 3347      52564544 
 3347      3100
 3348              	.LASF80:
 3349 0284 52455345 		.ascii	"RESERVED2\000"
 3349      52564544 
 3349      3200
 3350              	.LASF82:
 3351 028e 52455345 		.ascii	"RESERVED3\000"
 3351      52564544 
 3351      3300
 3352              	.LASF83:
 3353 0298 52455345 		.ascii	"RESERVED4\000"
 3353      52564544 
 3353      3400
 3354              	.LASF27:
 3355 02a2 705F7072 		.ascii	"p_prev\000"
 3355      657600
 3356              	.LASF20:
 3357 02a9 74707269 		.ascii	"tprio_t\000"
 3357      6F5F7400 
 3358              	.LASF72:
 3359 02b1 715F7264 		.ascii	"q_rdptr\000"
 3359      70747200 
 3360              	.LASF15:
 3361 02b9 5F426F6F 		.ascii	"_Bool\000"
 3361      6C00
 3362              	.LASF8:
 3363 02bf 696E7433 		.ascii	"int32_t\000"
 3363      325F7400 
 3364              	.LASF4:
 3365 02c7 756E7369 		.ascii	"unsigned char\000"
 3365      676E6564 
 3365      20636861 
 3365      7200
 3366              	.LASF56:
 3367 02d5 656C5F6C 		.ascii	"el_listener\000"
 3367      69737465 
 3367      6E657200 
 3368              	.LASF58:
 3369 02e1 656C5F66 		.ascii	"el_flags\000"
 3369      6C616773 
 3369      00
 3370              	.LASF33:
 3371 02ea 705F7374 		.ascii	"p_state\000"
 3371      61746500 
 3372              	.LASF42:
 3373 02f2 705F6D74 		.ascii	"p_mtxlist\000"
 3373      786C6973 
 3373      7400
 3374              	.LASF5:
 3375 02fc 73686F72 		.ascii	"short int\000"
 3375      7420696E 
 3375      7400
ARM GAS  C:\Users\TAISIK~1\AppData\Local\Temp\ccaTZTgg.s 			page 63


 3376              	.LASF36:
 3377 0306 705F7072 		.ascii	"p_preempt\000"
 3377      65656D70 
 3377      7400
 3378              	.LASF64:
 3379 0310 65776D61 		.ascii	"ewmask\000"
 3379      736B00
 3380              	.LASF26:
 3381 0317 705F6E65 		.ascii	"p_next\000"
 3381      787400
 3382              	.LASF34:
 3383 031e 705F666C 		.ascii	"p_flags\000"
 3383      61677300 
 3384              	.LASF55:
 3385 0326 656C5F6E 		.ascii	"el_next\000"
 3385      65787400 
 3386              	.LASF87:
 3387 032e 53445F53 		.ascii	"SD_STOP\000"
 3387      544F5000 
 3388              	.LASF25:
 3389 0336 54687265 		.ascii	"Thread\000"
 3389      616400
 3390              	.LASF41:
 3391 033d 705F6570 		.ascii	"p_epending\000"
 3391      656E6469 
 3391      6E6700
 3392              	.LASF86:
 3393 0348 53445F55 		.ascii	"SD_UNINIT\000"
 3393      4E494E49 
 3393      5400
 3394              	.LASF84:
 3395 0352 52455345 		.ascii	"RESERVED5\000"
 3395      52564544 
 3395      3500
 3396              	.LASF10:
 3397 035c 75696E74 		.ascii	"uint32_t\000"
 3397      33325F74 
 3397      00
 3398              	.LASF89:
 3399 0365 73647374 		.ascii	"sdstate_t\000"
 3399      6174655F 
 3399      7400
 3400              	.LASF90:
 3401 036f 53657269 		.ascii	"SerialDriver\000"
 3401      616C4472 
 3401      69766572 
 3401      00
 3402              	.LASF11:
 3403 037c 6C6F6E67 		.ascii	"long unsigned int\000"
 3403      20756E73 
 3403      69676E65 
 3403      6420696E 
 3403      7400
 3404              	.LASF104:
 3405 038e 72656164 		.ascii	"read\000"
 3405      00
 3406              	.LASF65:
ARM GAS  C:\Users\TAISIK~1\AppData\Local\Temp\ccaTZTgg.s 			page 64


 3407 0393 63686172 		.ascii	"char\000"
 3407      00
 3408              	.LASF117:
 3409 0398 7364496E 		.ascii	"sdIncomingDataI\000"
 3409      636F6D69 
 3409      6E674461 
 3409      74614900 
 3410              	.LASF115:
 3411 03a8 636F6E66 		.ascii	"config\000"
 3411      696700
 3412              	.LASF114:
 3413 03af 73645374 		.ascii	"sdStart\000"
 3413      61727400 
 3414              	.LASF121:
 3415 03b7 433A5C43 		.ascii	"C:\\ChibiStudio\\chibios\\demos\\ARMCM4-STM32F303-D"
 3415      68696269 
 3415      53747564 
 3415      696F5C63 
 3415      68696269 
 3416 03e6 4953434F 		.ascii	"ISCOVERY\000"
 3416      56455259 
 3416      00
 3417              	.LASF53:
 3418 03ef 6D5F6E65 		.ascii	"m_next\000"
 3418      787400
 3419              	.LASF24:
 3420 03f6 73797374 		.ascii	"systime_t\000"
 3420      696D655F 
 3420      7400
 3421              	.LASF43:
 3422 0400 705F7265 		.ascii	"p_realprio\000"
 3422      616C7072 
 3422      696F00
 3423              	.LASF81:
 3424 040b 52544F52 		.ascii	"RTOR\000"
 3424      00
 3425              	.LASF49:
 3426 0410 636F6E74 		.ascii	"context\000"
 3426      65787400 
 3427              	.LASF48:
 3428 0418 696E7463 		.ascii	"intctx\000"
 3428      747800
 3429              	.LASF88:
 3430 041f 53445F52 		.ascii	"SD_READY\000"
 3430      45414459 
 3430      00
 3431              	.LASF23:
 3432 0428 666C6167 		.ascii	"flagsmask_t\000"
 3432      736D6173 
 3432      6B5F7400 
 3433              	.LASF70:
 3434 0434 715F746F 		.ascii	"q_top\000"
 3434      7000
 3435              	.LASF32:
 3436 043a 705F6E61 		.ascii	"p_name\000"
 3436      6D6500
 3437              	.LASF60:
ARM GAS  C:\Users\TAISIK~1\AppData\Local\Temp\ccaTZTgg.s 			page 65


 3438 0441 65735F6E 		.ascii	"es_next\000"
 3438      65787400 
 3439              	.LASF73:
 3440 0449 715F6E6F 		.ascii	"q_notify\000"
 3440      74696679 
 3440      00
 3441              	.LASF40:
 3442 0452 705F6D73 		.ascii	"p_msg\000"
 3442      6700
 3443              	.LASF123:
 3444 0458 73645265 		.ascii	"sdRequestDataI\000"
 3444      71756573 
 3444      74446174 
 3444      614900
 3445              	.LASF3:
 3446 0467 75696E74 		.ascii	"uint8_t\000"
 3446      385F7400 
 3447              	.LASF120:
 3448 046f 2E2E2F2E 		.ascii	"../../os/hal/src/serial.c\000"
 3448      2E2F6F73 
 3448      2F68616C 
 3448      2F737263 
 3448      2F736572 
 3449              	.LASF112:
 3450 0489 6F6E6F74 		.ascii	"onotify\000"
 3450      69667900 
 3451              	.LASF54:
 3452 0491 4576656E 		.ascii	"EventListener\000"
 3452      744C6973 
 3452      74656E65 
 3452      7200
 3453              	.LASF63:
 3454 049f 77746F62 		.ascii	"wtobjp\000"
 3454      6A7000
 3455              	.LASF96:
 3456 04a6 636C6F63 		.ascii	"clock\000"
 3456      6B00
 3457              	.LASF98:
 3458 04ac 73635F63 		.ascii	"sc_cr1\000"
 3458      723100
 3459              	.LASF99:
 3460 04b3 73635F63 		.ascii	"sc_cr2\000"
 3460      723200
 3461              	.LASF100:
 3462 04ba 73635F63 		.ascii	"sc_cr3\000"
 3462      723300
 3463              	.LASF122:
 3464 04c1 7364496E 		.ascii	"sdInit\000"
 3464      697400
 3465              	.LASF74:
 3466 04c8 715F6C69 		.ascii	"q_link\000"
 3466      6E6B00
 3467              	.LASF52:
 3468 04cf 6D5F6F77 		.ascii	"m_owner\000"
 3468      6E657200 
 3469              	.LASF29:
 3470 04d7 705F6374 		.ascii	"p_ctx\000"
ARM GAS  C:\Users\TAISIK~1\AppData\Local\Temp\ccaTZTgg.s 			page 66


 3470      7800
 3471              	.LASF38:
 3472 04dd 705F7761 		.ascii	"p_waiting\000"
 3472      6974696E 
 3472      6700
 3473              		.ident	"GCC: (GNU Tools for ARM Embedded Processors) 4.6.2 20121016 (release) [ARM/embedded-4_6-br
ARM GAS  C:\Users\TAISIK~1\AppData\Local\Temp\ccaTZTgg.s 			page 67


DEFINED SYMBOLS
                            *ABS*:00000000 serial.c
C:\Users\TAISIK~1\AppData\Local\Temp\ccaTZTgg.s:19     .text.readt:00000000 $t
C:\Users\TAISIK~1\AppData\Local\Temp\ccaTZTgg.s:24     .text.readt:00000000 readt
C:\Users\TAISIK~1\AppData\Local\Temp\ccaTZTgg.s:47     .text.read:00000000 $t
C:\Users\TAISIK~1\AppData\Local\Temp\ccaTZTgg.s:52     .text.read:00000000 read
C:\Users\TAISIK~1\AppData\Local\Temp\ccaTZTgg.s:74     .text.writet:00000000 $t
C:\Users\TAISIK~1\AppData\Local\Temp\ccaTZTgg.s:79     .text.writet:00000000 writet
C:\Users\TAISIK~1\AppData\Local\Temp\ccaTZTgg.s:101    .text.write:00000000 $t
C:\Users\TAISIK~1\AppData\Local\Temp\ccaTZTgg.s:106    .text.write:00000000 write
C:\Users\TAISIK~1\AppData\Local\Temp\ccaTZTgg.s:128    .text.gett:00000000 $t
C:\Users\TAISIK~1\AppData\Local\Temp\ccaTZTgg.s:133    .text.gett:00000000 gett
C:\Users\TAISIK~1\AppData\Local\Temp\ccaTZTgg.s:153    .text.get:00000000 $t
C:\Users\TAISIK~1\AppData\Local\Temp\ccaTZTgg.s:158    .text.get:00000000 get
C:\Users\TAISIK~1\AppData\Local\Temp\ccaTZTgg.s:178    .text.putt:00000000 $t
C:\Users\TAISIK~1\AppData\Local\Temp\ccaTZTgg.s:183    .text.putt:00000000 putt
C:\Users\TAISIK~1\AppData\Local\Temp\ccaTZTgg.s:204    .text.put:00000000 $t
C:\Users\TAISIK~1\AppData\Local\Temp\ccaTZTgg.s:209    .text.put:00000000 put
C:\Users\TAISIK~1\AppData\Local\Temp\ccaTZTgg.s:230    .text.sdInit:00000000 $t
C:\Users\TAISIK~1\AppData\Local\Temp\ccaTZTgg.s:236    .text.sdInit:00000000 sdInit
C:\Users\TAISIK~1\AppData\Local\Temp\ccaTZTgg.s:250    .text.sdObjectInit:00000000 $t
C:\Users\TAISIK~1\AppData\Local\Temp\ccaTZTgg.s:256    .text.sdObjectInit:00000000 sdObjectInit
C:\Users\TAISIK~1\AppData\Local\Temp\ccaTZTgg.s:546    .rodata.vmt:00000000 .LANCHOR0
C:\Users\TAISIK~1\AppData\Local\Temp\ccaTZTgg.s:316    .text.sdStart:00000000 $t
C:\Users\TAISIK~1\AppData\Local\Temp\ccaTZTgg.s:322    .text.sdStart:00000000 sdStart
C:\Users\TAISIK~1\AppData\Local\Temp\ccaTZTgg.s:371    .text.sdStop:00000000 $t
C:\Users\TAISIK~1\AppData\Local\Temp\ccaTZTgg.s:377    .text.sdStop:00000000 sdStop
C:\Users\TAISIK~1\AppData\Local\Temp\ccaTZTgg.s:434    .text.sdIncomingDataI:00000000 $t
C:\Users\TAISIK~1\AppData\Local\Temp\ccaTZTgg.s:440    .text.sdIncomingDataI:00000000 sdIncomingDataI
C:\Users\TAISIK~1\AppData\Local\Temp\ccaTZTgg.s:496    .text.sdRequestDataI:00000000 $t
C:\Users\TAISIK~1\AppData\Local\Temp\ccaTZTgg.s:502    .text.sdRequestDataI:00000000 sdRequestDataI
C:\Users\TAISIK~1\AppData\Local\Temp\ccaTZTgg.s:545    .rodata.vmt:00000000 $d
C:\Users\TAISIK~1\AppData\Local\Temp\ccaTZTgg.s:549    .rodata.vmt:00000000 vmt
                     .debug_frame:00000010 $d

UNDEFINED SYMBOLS
chIQReadTimeout
chOQWriteTimeout
chIQGetTimeout
chOQPutTimeout
sd_lld_init
chIQInit
chOQInit
sd_lld_start
sd_lld_stop
chOQResetI
chIQResetI
chSchRescheduleS
chIQPutI
chEvtBroadcastFlagsI
chOQGetI
