ARM GAS  C:\Users\TAISIK~1\AppData\Local\Temp\ccbsJ8p8.s 			page 1


   1              		.syntax unified
   2              		.cpu cortex-m4
   3              		.fpu softvfp
   4              		.eabi_attribute 20, 1
   5              		.eabi_attribute 21, 1
   6              		.eabi_attribute 23, 3
   7              		.eabi_attribute 24, 1
   8              		.eabi_attribute 25, 1
   9              		.eabi_attribute 26, 1
  10              		.eabi_attribute 30, 2
  11              		.eabi_attribute 34, 1
  12              		.eabi_attribute 18, 4
  13              		.thumb
  14              		.file	"testdyn.c"
  15              		.text
  16              	.Ltext0:
  17              		.cfi_sections	.debug_frame
  18              		.section	.text.regfind,"ax",%progbits
  19              		.align	2
  20              		.p2align 4,,15
  21              		.thumb
  22              		.thumb_func
  23              		.type	regfind, %function
  24              	regfind:
  25              	.LFB12:
  26              		.file 1 "../../test/testdyn.c"
  27              		.loc 1 195 0
  28              		.cfi_startproc
  29              		@ args = 0, pretend = 0, frame = 0
  30              		@ frame_needed = 0, uses_anonymous_args = 0
  31              	.LVL0:
  32 0000 38B5     		push	{r3, r4, r5, lr}
  33              	.LCFI0:
  34              		.cfi_def_cfa_offset 16
  35              		.cfi_offset 14, -4
  36              		.cfi_offset 5, -8
  37              		.cfi_offset 4, -12
  38              		.cfi_offset 3, -16
  39              		.loc 1 195 0
  40 0002 0546     		mov	r5, r0
  41              		.loc 1 199 0
  42 0004 FFF7FEFF 		bl	chRegFirstThread
  43              	.LVL1:
  44              		.loc 1 197 0
  45 0008 0024     		movs	r4, #0
  46              		.loc 1 199 0
  47 000a 0346     		mov	r3, r0
  48              	.LVL2:
  49              	.L2:
  50              		.loc 1 202 0 discriminator 1
  51 000c 1846     		mov	r0, r3
  52              	.LVL3:
  53              		.loc 1 201 0 discriminator 1
  54 000e AB42     		cmp	r3, r5
  55 0010 08BF     		it	eq
  56 0012 44F00104 		orreq	r4, r4, #1
  57              	.LVL4:
ARM GAS  C:\Users\TAISIK~1\AppData\Local\Temp\ccbsJ8p8.s 			page 2


  58              		.loc 1 202 0 discriminator 1
  59 0016 FFF7FEFF 		bl	chRegNextThread
  60              	.LVL5:
  61 001a 0346     		mov	r3, r0
  62              	.LVL6:
  63              		.loc 1 203 0 discriminator 1
  64 001c 0028     		cmp	r0, #0
  65 001e F5D1     		bne	.L2
  66              		.loc 1 205 0
  67 0020 2046     		mov	r0, r4
  68              	.LVL7:
  69 0022 38BD     		pop	{r3, r4, r5, pc}
  70              		.cfi_endproc
  71              	.LFE12:
  72              		.size	regfind, .-regfind
  73 0024 AFF30080 		.section	.text.dyn3_execute,"ax",%progbits
  73      AFF30080 
  73      AFF30080 
  74              		.align	2
  75              		.p2align 4,,15
  76              		.thumb
  77              		.thumb_func
  78              		.type	dyn3_execute, %function
  79              	dyn3_execute:
  80              	.LFB14:
  81              		.loc 1 212 0
  82              		.cfi_startproc
  83              		@ args = 0, pretend = 0, frame = 0
  84              		@ frame_needed = 0, uses_anonymous_args = 0
  85              	.LVL8:
  86 0000 10B5     		push	{r4, lr}
  87              	.LCFI1:
  88              		.cfi_def_cfa_offset 8
  89              		.cfi_offset 14, -4
  90              		.cfi_offset 4, -8
  91              		.loc 1 214 0
  92 0002 4B4A     		ldr	r2, .L8
  93              		.loc 1 217 0
  94 0004 4B49     		ldr	r1, .L8+4
  95              		.loc 1 214 0
  96 0006 9069     		ldr	r0, [r2, #24]
  97              		.loc 1 217 0
  98 0008 4B4B     		ldr	r3, .L8+8
  99 000a 8468     		ldr	r4, [r0, #8]
 100 000c 4B48     		ldr	r0, .L8+12
 101              		.loc 1 212 0
 102 000e 82B0     		sub	sp, sp, #8
 103              	.LCFI2:
 104              		.cfi_def_cfa_offset 16
 105              		.loc 1 217 0
 106 0010 621E     		subs	r2, r4, #1
 107 0012 0091     		str	r1, [sp, #0]
 108 0014 4FF49871 		mov	r1, #304
 109 0018 FFF7FEFF 		bl	chThdCreateFromHeap
 110              	.LVL9:
 111 001c 0446     		mov	r4, r0
 112              	.LVL10:
ARM GAS  C:\Users\TAISIK~1\AppData\Local\Temp\ccbsJ8p8.s 			page 3


 113              		.loc 1 218 0
 114 001e 0120     		movs	r0, #1
 115              	.LVL11:
 116 0020 A37F     		ldrb	r3, [r4, #30]	@ zero_extendqisi2
 117 0022 1A1A     		subs	r2, r3, r0
 118 0024 5142     		rsbs	r1, r2, #0
 119 0026 41EB0201 		adc	r1, r1, r2
 120 002a FFF7FEFF 		bl	_test_assert
 121 002e 08B1     		cbz	r0, .L7
 122              	.L5:
 123              		.loc 1 240 0
 124 0030 02B0     		add	sp, sp, #8
 125 0032 10BD     		pop	{r4, pc}
 126              	.L7:
 127              		.loc 1 219 0
 128 0034 2046     		mov	r0, r4
 129 0036 FFF7FEFF 		bl	chThdAddRef
 130              		.loc 1 220 0
 131 003a A07F     		ldrb	r0, [r4, #30]	@ zero_extendqisi2
 132 003c A0F10201 		sub	r1, r0, #2
 133 0040 4B42     		rsbs	r3, r1, #0
 134 0042 43EB0101 		adc	r1, r3, r1
 135 0046 0220     		movs	r0, #2
 136 0048 FFF7FEFF 		bl	_test_assert
 137 004c 0028     		cmp	r0, #0
 138 004e EFD1     		bne	.L5
 139              		.loc 1 221 0
 140 0050 2046     		mov	r0, r4
 141 0052 FFF7FEFF 		bl	chThdRelease
 142              		.loc 1 222 0
 143 0056 A27F     		ldrb	r2, [r4, #30]	@ zero_extendqisi2
 144 0058 A2F1010C 		sub	ip, r2, #1
 145 005c DCF10003 		rsbs	r3, ip, #0
 146 0060 43EB0C01 		adc	r1, r3, ip
 147 0064 0320     		movs	r0, #3
 148 0066 FFF7FEFF 		bl	_test_assert
 149 006a 0028     		cmp	r0, #0
 150 006c E0D1     		bne	.L5
 151              		.loc 1 225 0
 152 006e 2046     		mov	r0, r4
 153 0070 FFF7FEFF 		bl	regfind
 154 0074 0146     		mov	r1, r0
 155 0076 0420     		movs	r0, #4
 156 0078 FFF7FEFF 		bl	_test_assert
 157 007c 0028     		cmp	r0, #0
 158 007e D7D1     		bne	.L5
 159              		.loc 1 226 0
 160 0080 2046     		mov	r0, r4
 161 0082 FFF7FEFF 		bl	regfind
 162 0086 0146     		mov	r1, r0
 163 0088 0520     		movs	r0, #5
 164 008a FFF7FEFF 		bl	_test_assert
 165 008e 0028     		cmp	r0, #0
 166 0090 CED1     		bne	.L5
 167              		.loc 1 229 0
 168 0092 2046     		mov	r0, r4
 169 0094 FFF7FEFF 		bl	chThdRelease
ARM GAS  C:\Users\TAISIK~1\AppData\Local\Temp\ccbsJ8p8.s 			page 4


 170              		.loc 1 230 0
 171 0098 A17F     		ldrb	r1, [r4, #30]	@ zero_extendqisi2
 172 009a D1F10101 		rsbs	r1, r1, #1
 173 009e 38BF     		it	cc
 174 00a0 0021     		movcc	r1, #0
 175 00a2 0620     		movs	r0, #6
 176 00a4 FFF7FEFF 		bl	_test_assert
 177 00a8 0028     		cmp	r0, #0
 178 00aa C1D1     		bne	.L5
 179              		.loc 1 231 0
 180 00ac 207F     		ldrb	r0, [r4, #28]	@ zero_extendqisi2
 181 00ae D0F10101 		rsbs	r1, r0, #1
 182 00b2 38BF     		it	cc
 183 00b4 0021     		movcc	r1, #0
 184 00b6 0720     		movs	r0, #7
 185 00b8 FFF7FEFF 		bl	_test_assert
 186 00bc 0028     		cmp	r0, #0
 187 00be B7D1     		bne	.L5
 188              		.loc 1 232 0
 189 00c0 2046     		mov	r0, r4
 190 00c2 FFF7FEFF 		bl	regfind
 191 00c6 0146     		mov	r1, r0
 192 00c8 0820     		movs	r0, #8
 193 00ca FFF7FEFF 		bl	_test_assert
 194 00ce 0028     		cmp	r0, #0
 195 00d0 AED1     		bne	.L5
 196              		.loc 1 233 0
 197 00d2 2046     		mov	r0, r4
 198 00d4 FFF7FEFF 		bl	regfind
 199 00d8 0146     		mov	r1, r0
 200 00da 0920     		movs	r0, #9
 201 00dc FFF7FEFF 		bl	_test_assert
 202 00e0 0028     		cmp	r0, #0
 203 00e2 A5D1     		bne	.L5
 204              		.loc 1 234 0
 205 00e4 3220     		movs	r0, #50
 206 00e6 FFF7FEFF 		bl	chThdSleep
 207              		.loc 1 235 0
 208 00ea 94F81CC0 		ldrb	ip, [r4, #28]	@ zero_extendqisi2
 209 00ee ACF10E03 		sub	r3, ip, #14
 210 00f2 5A42     		rsbs	r2, r3, #0
 211 00f4 42EB0301 		adc	r1, r2, r3
 212 00f8 0A20     		movs	r0, #10
 213 00fa FFF7FEFF 		bl	_test_assert
 214 00fe 0028     		cmp	r0, #0
 215 0100 96D1     		bne	.L5
 216              		.loc 1 238 0
 217 0102 2046     		mov	r0, r4
 218 0104 FFF7FEFF 		bl	regfind
 219 0108 0146     		mov	r1, r0
 220 010a 0B20     		movs	r0, #11
 221 010c FFF7FEFF 		bl	_test_assert
 222 0110 0028     		cmp	r0, #0
 223 0112 8DD1     		bne	.L5
 224              		.loc 1 239 0
 225 0114 2046     		mov	r0, r4
 226 0116 FFF7FEFF 		bl	regfind
ARM GAS  C:\Users\TAISIK~1\AppData\Local\Temp\ccbsJ8p8.s 			page 5


 227 011a D0F10101 		rsbs	r1, r0, #1
 228 011e 38BF     		it	cc
 229 0120 0021     		movcc	r1, #0
 230 0122 0C20     		movs	r0, #12
 231              		.loc 1 240 0
 232 0124 02B0     		add	sp, sp, #8
 233 0126 BDE81040 		pop	{r4, lr}
 234              		.loc 1 239 0
 235 012a FFF7FEBF 		b	_test_assert
 236              	.L9:
 237 012e 00BF     		.align	2
 238              	.L8:
 239 0130 00000000 		.word	rlist
 240 0134 00000000 		.word	.LC0
 241 0138 00000000 		.word	thread
 242 013c 00000000 		.word	.LANCHOR0
 243              		.cfi_endproc
 244              	.LFE14:
 245              		.size	dyn3_execute, .-dyn3_execute
 246              		.section	.text.thread,"ax",%progbits
 247              		.align	2
 248              		.p2align 4,,15
 249              		.thumb
 250              		.thumb_func
 251              		.type	thread, %function
 252              	thread:
 253              	.LFB7:
 254              		.loc 1 75 0
 255              		.cfi_startproc
 256              		@ args = 0, pretend = 0, frame = 0
 257              		@ frame_needed = 0, uses_anonymous_args = 0
 258              	.LVL12:
 259 0000 08B5     		push	{r3, lr}
 260              	.LCFI3:
 261              		.cfi_def_cfa_offset 8
 262              		.cfi_offset 14, -4
 263              		.cfi_offset 3, -8
 264              		.loc 1 77 0
 265 0002 0078     		ldrb	r0, [r0, #0]	@ zero_extendqisi2
 266              	.LVL13:
 267 0004 FFF7FEFF 		bl	test_emit_token
 268              		.loc 1 79 0
 269 0008 0020     		movs	r0, #0
 270 000a 08BD     		pop	{r3, pc}
 271              		.cfi_endproc
 272              	.LFE7:
 273              		.size	thread, .-thread
 274 000c AFF30080 		.section	.text.dyn3_setup,"ax",%progbits
 275              		.align	2
 276              		.p2align 4,,15
 277              		.thumb
 278              		.thumb_func
 279              		.type	dyn3_setup, %function
 280              	dyn3_setup:
 281              	.LFB13:
 282              		.loc 1 207 0
 283              		.cfi_startproc
ARM GAS  C:\Users\TAISIK~1\AppData\Local\Temp\ccbsJ8p8.s 			page 6


 284              		@ args = 0, pretend = 0, frame = 0
 285              		@ frame_needed = 0, uses_anonymous_args = 0
 286              		@ link register save eliminated.
 287              		.loc 1 209 0
 288 0000 40F20000 		movw	r0, #:lower16:.LANCHOR0
 289 0004 40F20001 		movw	r1, #:lower16:test
 290 0008 C0F20001 		movt	r1, #:upper16:test
 291 000c C0F20000 		movt	r0, #:upper16:.LANCHOR0
 292 0010 4FF4BE62 		mov	r2, #1520
 293              		.loc 1 210 0
 294              		.loc 1 209 0
 295 0014 FFF7FEBF 		b	chHeapInit
 296              		.cfi_endproc
 297              	.LFE13:
 298              		.size	dyn3_setup, .-dyn3_setup
 299 0018 AFF30080 		.section	.text.dyn1_setup,"ax",%progbits
 299      AFF30080 
 300              		.align	2
 301              		.p2align 4,,15
 302              		.thumb
 303              		.thumb_func
 304              		.type	dyn1_setup, %function
 305              	dyn1_setup:
 306              	.LFB8:
 307              		.loc 1 82 0
 308              		.cfi_startproc
 309              		@ args = 0, pretend = 0, frame = 0
 310              		@ frame_needed = 0, uses_anonymous_args = 0
 311              		@ link register save eliminated.
 312              		.loc 1 84 0
 313 0000 40F20000 		movw	r0, #:lower16:.LANCHOR0
 314 0004 40F20001 		movw	r1, #:lower16:test
 315 0008 C0F20001 		movt	r1, #:upper16:test
 316 000c C0F20000 		movt	r0, #:upper16:.LANCHOR0
 317 0010 4FF4BE62 		mov	r2, #1520
 318              		.loc 1 85 0
 319              		.loc 1 84 0
 320 0014 FFF7FEBF 		b	chHeapInit
 321              		.cfi_endproc
 322              	.LFE8:
 323              		.size	dyn1_setup, .-dyn1_setup
 324 0018 AFF30080 		.section	.text.dyn2_execute,"ax",%progbits
 324      AFF30080 
 325              		.align	2
 326              		.p2align 4,,15
 327              		.thumb
 328              		.thumb_func
 329              		.type	dyn2_execute, %function
 330              	dyn2_execute:
 331              	.LFB11:
 332              		.loc 1 145 0
 333              		.cfi_startproc
 334              		@ args = 0, pretend = 0, frame = 0
 335              		@ frame_needed = 0, uses_anonymous_args = 0
 336              		.loc 1 147 0
 337 0000 4648     		ldr	r0, .L21
 338              		.loc 1 145 0
ARM GAS  C:\Users\TAISIK~1\AppData\Local\Temp\ccbsJ8p8.s 			page 7


 339 0002 70B5     		push	{r4, r5, r6, lr}
 340              	.LCFI4:
 341              		.cfi_def_cfa_offset 16
 342              		.cfi_offset 14, -4
 343              		.cfi_offset 6, -8
 344              		.cfi_offset 5, -12
 345              		.cfi_offset 4, -16
 346              		.loc 1 151 0
 347 0004 464E     		ldr	r6, .L21+4
 348              		.loc 1 147 0
 349 0006 8369     		ldr	r3, [r0, #24]
 350              		.loc 1 151 0
 351 0008 3168     		ldr	r1, [r6, #0]
 352 000a 4648     		ldr	r0, .L21+8
 353              		.loc 1 147 0
 354 000c 9D68     		ldr	r5, [r3, #8]
 355              	.LVL14:
 356              		.loc 1 154 0
 357 000e 464C     		ldr	r4, .L21+12
 358              		.loc 1 151 0
 359 0010 FFF7FEFF 		bl	chPoolFree
 360              	.LVL15:
 361 0014 7168     		ldr	r1, [r6, #4]
 362 0016 4348     		ldr	r0, .L21+8
 363 0018 FFF7FEFF 		bl	chPoolFree
 364              	.LVL16:
 365 001c B168     		ldr	r1, [r6, #8]
 366 001e 4148     		ldr	r0, .L21+8
 367 0020 FFF7FEFF 		bl	chPoolFree
 368              	.LVL17:
 369 0024 F168     		ldr	r1, [r6, #12]
 370 0026 3F48     		ldr	r0, .L21+8
 371 0028 FFF7FEFF 		bl	chPoolFree
 372              	.LVL18:
 373              		.loc 1 154 0
 374 002c 691E     		subs	r1, r5, #1
 375 002e 3F4A     		ldr	r2, .L21+16
 376 0030 3F4B     		ldr	r3, .L21+20
 377 0032 3C48     		ldr	r0, .L21+8
 378 0034 FFF7FEFF 		bl	chThdCreateFromMemoryPool
 379              		.loc 1 155 0
 380 0038 A91E     		subs	r1, r5, #2
 381              		.loc 1 154 0
 382 003a 0646     		mov	r6, r0
 383              		.loc 1 155 0
 384 003c 3B4A     		ldr	r2, .L21+16
 385 003e 3D4B     		ldr	r3, .L21+24
 386 0040 3848     		ldr	r0, .L21+8
 387              		.loc 1 154 0
 388 0042 2660     		str	r6, [r4, #0]
 389              		.loc 1 155 0
 390 0044 FFF7FEFF 		bl	chThdCreateFromMemoryPool
 391              		.loc 1 156 0
 392 0048 E91E     		subs	r1, r5, #3
 393              		.loc 1 155 0
 394 004a 0646     		mov	r6, r0
 395              		.loc 1 156 0
ARM GAS  C:\Users\TAISIK~1\AppData\Local\Temp\ccbsJ8p8.s 			page 8


 396 004c 374A     		ldr	r2, .L21+16
 397 004e 3A4B     		ldr	r3, .L21+28
 398 0050 3448     		ldr	r0, .L21+8
 399              		.loc 1 155 0
 400 0052 6660     		str	r6, [r4, #4]
 401              		.loc 1 156 0
 402 0054 FFF7FEFF 		bl	chThdCreateFromMemoryPool
 403              		.loc 1 157 0
 404 0058 291F     		subs	r1, r5, #4
 405              		.loc 1 156 0
 406 005a 0646     		mov	r6, r0
 407              		.loc 1 157 0
 408 005c 334A     		ldr	r2, .L21+16
 409 005e 374B     		ldr	r3, .L21+32
 410 0060 3048     		ldr	r0, .L21+8
 411              		.loc 1 156 0
 412 0062 A660     		str	r6, [r4, #8]
 413              		.loc 1 157 0
 414 0064 FFF7FEFF 		bl	chThdCreateFromMemoryPool
 415              		.loc 1 158 0
 416 0068 691F     		subs	r1, r5, #5
 417              		.loc 1 157 0
 418 006a 0646     		mov	r6, r0
 419              		.loc 1 158 0
 420 006c 2F4A     		ldr	r2, .L21+16
 421 006e 2D48     		ldr	r0, .L21+8
 422 0070 334B     		ldr	r3, .L21+36
 423              		.loc 1 157 0
 424 0072 E660     		str	r6, [r4, #12]
 425              		.loc 1 158 0
 426 0074 FFF7FEFF 		bl	chThdCreateFromMemoryPool
 427              		.loc 1 160 0
 428 0078 2168     		ldr	r1, [r4, #0]
 429              		.loc 1 158 0
 430 007a 2061     		str	r0, [r4, #16]
 431              		.loc 1 160 0
 432 007c 49B1     		cbz	r1, .L14
 433              		.loc 1 160 0 is_stmt 0 discriminator 1
 434 007e 6168     		ldr	r1, [r4, #4]
 435 0080 39B1     		cbz	r1, .L14
 436              		.loc 1 160 0 discriminator 3
 437 0082 A168     		ldr	r1, [r4, #8]
 438 0084 29B1     		cbz	r1, .L14
 439              		.loc 1 160 0 discriminator 4
 440 0086 E168     		ldr	r1, [r4, #12]
 441 0088 19B1     		cbz	r1, .L14
 442              		.loc 1 145 0 is_stmt 1 discriminator 5
 443 008a D0F10101 		rsbs	r1, r0, #1
 444 008e 38BF     		it	cc
 445 0090 0021     		movcc	r1, #0
 446              	.L14:
 447              		.loc 1 160 0 discriminator 7
 448 0092 0120     		movs	r0, #1
 449 0094 FFF7FEFF 		bl	_test_assert
 450 0098 00B1     		cbz	r0, .L20
 451              	.LVL19:
 452              	.L13:
ARM GAS  C:\Users\TAISIK~1\AppData\Local\Temp\ccbsJ8p8.s 			page 9


 453 009a 70BD     		pop	{r4, r5, r6, pc}
 454              	.LVL20:
 455              	.L20:
 456              		.loc 1 168 0
 457 009c FFF7FEFF 		bl	test_wait_threads
 458              		.loc 1 169 0
 459 00a0 0220     		movs	r0, #2
 460 00a2 2849     		ldr	r1, .L21+40
 461 00a4 FFF7FEFF 		bl	_test_assert_sequence
 462 00a8 0028     		cmp	r0, #0
 463 00aa F6D1     		bne	.L13
 464              		.loc 1 173 0
 465 00ac 1D48     		ldr	r0, .L21+8
 466 00ae FFF7FEFF 		bl	chPoolAlloc
 467 00b2 011C     		adds	r1, r0, #0
 468 00b4 18BF     		it	ne
 469 00b6 0121     		movne	r1, #1
 470 00b8 0320     		movs	r0, #3
 471 00ba FFF7FEFF 		bl	_test_assert
 472 00be 0028     		cmp	r0, #0
 473 00c0 EBD1     		bne	.L13
 474              	.LVL21:
 475 00c2 1848     		ldr	r0, .L21+8
 476 00c4 FFF7FEFF 		bl	chPoolAlloc
 477 00c8 011C     		adds	r1, r0, #0
 478 00ca 18BF     		it	ne
 479 00cc 0121     		movne	r1, #1
 480 00ce 0320     		movs	r0, #3
 481 00d0 FFF7FEFF 		bl	_test_assert
 482 00d4 0028     		cmp	r0, #0
 483 00d6 E0D1     		bne	.L13
 484              	.LVL22:
 485 00d8 1248     		ldr	r0, .L21+8
 486 00da FFF7FEFF 		bl	chPoolAlloc
 487 00de 011C     		adds	r1, r0, #0
 488 00e0 18BF     		it	ne
 489 00e2 0121     		movne	r1, #1
 490 00e4 0320     		movs	r0, #3
 491 00e6 FFF7FEFF 		bl	_test_assert
 492 00ea 0028     		cmp	r0, #0
 493 00ec D5D1     		bne	.L13
 494              	.LVL23:
 495 00ee 0D48     		ldr	r0, .L21+8
 496 00f0 FFF7FEFF 		bl	chPoolAlloc
 497 00f4 011C     		adds	r1, r0, #0
 498 00f6 18BF     		it	ne
 499 00f8 0121     		movne	r1, #1
 500 00fa 0320     		movs	r0, #3
 501 00fc FFF7FEFF 		bl	_test_assert
 502 0100 0028     		cmp	r0, #0
 503 0102 CAD1     		bne	.L13
 504              	.LVL24:
 505              		.loc 1 174 0
 506 0104 0748     		ldr	r0, .L21+8
 507 0106 FFF7FEFF 		bl	chPoolAlloc
 508 010a D0F10101 		rsbs	r1, r0, #1
 509 010e 38BF     		it	cc
ARM GAS  C:\Users\TAISIK~1\AppData\Local\Temp\ccbsJ8p8.s 			page 10


 510 0110 0021     		movcc	r1, #0
 511 0112 0420     		movs	r0, #4
 512              		.loc 1 175 0
 513 0114 BDE87040 		pop	{r4, r5, r6, lr}
 514              		.loc 1 174 0
 515 0118 FFF7FEBF 		b	_test_assert
 516              	.L22:
 517              		.align	2
 518              	.L21:
 519 011c 00000000 		.word	rlist
 520 0120 00000000 		.word	wa
 521 0124 00000000 		.word	.LANCHOR1
 522 0128 00000000 		.word	threads
 523 012c 00000000 		.word	thread
 524 0130 00000000 		.word	.LC0
 525 0134 04000000 		.word	.LC1
 526 0138 08000000 		.word	.LC2
 527 013c 0C000000 		.word	.LC3
 528 0140 10000000 		.word	.LC4
 529 0144 14000000 		.word	.LC5
 530              		.cfi_endproc
 531              	.LFE11:
 532              		.size	dyn2_execute, .-dyn2_execute
 533 0148 AFF30080 		.section	.text.dyn2_setup,"ax",%progbits
 533      AFF30080 
 534              		.align	2
 535              		.p2align 4,,15
 536              		.thumb
 537              		.thumb_func
 538              		.type	dyn2_setup, %function
 539              	dyn2_setup:
 540              	.LFB10:
 541              		.loc 1 140 0
 542              		.cfi_startproc
 543              		@ args = 0, pretend = 0, frame = 0
 544              		@ frame_needed = 0, uses_anonymous_args = 0
 545              		@ link register save eliminated.
 546              		.loc 1 142 0
 547 0000 40F20000 		movw	r0, #:lower16:.LANCHOR1
 548 0004 C0F20000 		movt	r0, #:upper16:.LANCHOR1
 549 0008 4FF49871 		mov	r1, #304
 550 000c 0022     		movs	r2, #0
 551              		.loc 1 143 0
 552              		.loc 1 142 0
 553 000e FFF7FEBF 		b	chPoolInit
 554              		.cfi_endproc
 555              	.LFE10:
 556              		.size	dyn2_setup, .-dyn2_setup
 557 0012 00BFAFF3 		.section	.text.dyn1_execute,"ax",%progbits
 557      0080AFF3 
 557      0080AFF3 
 557      0080
 558              		.align	2
 559              		.p2align 4,,15
 560              		.thumb
 561              		.thumb_func
 562              		.type	dyn1_execute, %function
ARM GAS  C:\Users\TAISIK~1\AppData\Local\Temp\ccbsJ8p8.s 			page 11


 563              	dyn1_execute:
 564              	.LFB9:
 565              		.loc 1 87 0
 566              		.cfi_startproc
 567              		@ args = 0, pretend = 0, frame = 8
 568              		@ frame_needed = 0, uses_anonymous_args = 0
 569 0000 70B5     		push	{r4, r5, r6, lr}
 570              	.LCFI5:
 571              		.cfi_def_cfa_offset 16
 572              		.cfi_offset 14, -4
 573              		.cfi_offset 6, -8
 574              		.cfi_offset 5, -12
 575              		.cfi_offset 4, -16
 576              		.loc 1 90 0
 577 0002 364C     		ldr	r4, .L33
 578              		.loc 1 94 0
 579 0004 364E     		ldr	r6, .L33+4
 580              		.loc 1 90 0
 581 0006 A569     		ldr	r5, [r4, #24]
 582              		.loc 1 92 0
 583 0008 3648     		ldr	r0, .L33+8
 584              		.loc 1 90 0
 585 000a AD68     		ldr	r5, [r5, #8]
 586              	.LVL25:
 587              		.loc 1 94 0
 588 000c 364C     		ldr	r4, .L33+12
 589              	.LVL26:
 590              		.loc 1 87 0
 591 000e 84B0     		sub	sp, sp, #16
 592              	.LCFI6:
 593              		.cfi_def_cfa_offset 32
 594              		.loc 1 92 0
 595 0010 03A9     		add	r1, sp, #12
 596 0012 FFF7FEFF 		bl	chHeapStatus
 597              	.LVL27:
 598              		.loc 1 94 0
 599 0016 6A1E     		subs	r2, r5, #1
 600 0018 344B     		ldr	r3, .L33+16
 601 001a 3248     		ldr	r0, .L33+8
 602 001c 0096     		str	r6, [sp, #0]
 603 001e 4FF49871 		mov	r1, #304
 604 0022 FFF7FEFF 		bl	chThdCreateFromHeap
 605              		.loc 1 96 0
 606 0026 324E     		ldr	r6, .L33+20
 607 0028 304B     		ldr	r3, .L33+16
 608              		.loc 1 94 0
 609 002a 0146     		mov	r1, r0
 610 002c 2160     		str	r1, [r4, #0]
 611              		.loc 1 96 0
 612 002e AA1E     		subs	r2, r5, #2
 613 0030 4FF49871 		mov	r1, #304
 614 0034 2B48     		ldr	r0, .L33+8
 615 0036 0096     		str	r6, [sp, #0]
 616 0038 FFF7FEFF 		bl	chThdCreateFromHeap
 617 003c 0246     		mov	r2, r0
 618 003e 6260     		str	r2, [r4, #4]
 619              		.loc 1 99 0
ARM GAS  C:\Users\TAISIK~1\AppData\Local\Temp\ccbsJ8p8.s 			page 12


 620 0040 02A9     		add	r1, sp, #8
 621 0042 2848     		ldr	r0, .L33+8
 622 0044 FFF7FEFF 		bl	chHeapStatus
 623              	.LVL28:
 624              		.loc 1 100 0
 625 0048 0299     		ldr	r1, [sp, #8]
 626 004a 2648     		ldr	r0, .L33+8
 627 004c FFF7FEFF 		bl	chHeapAlloc
 628              		.loc 1 101 0
 629 0050 2849     		ldr	r1, .L33+24
 630 0052 264B     		ldr	r3, .L33+16
 631 0054 0091     		str	r1, [sp, #0]
 632              		.loc 1 100 0
 633 0056 0646     		mov	r6, r0
 634              	.LVL29:
 635              		.loc 1 101 0
 636 0058 4FF49871 		mov	r1, #304
 637 005c EA1E     		subs	r2, r5, #3
 638 005e 2148     		ldr	r0, .L33+8
 639              	.LVL30:
 640 0060 FFF7FEFF 		bl	chThdCreateFromHeap
 641 0064 0346     		mov	r3, r0
 642 0066 A360     		str	r3, [r4, #8]
 643              		.loc 1 103 0
 644 0068 3046     		mov	r0, r6
 645 006a FFF7FEFF 		bl	chHeapFree
 646              		.loc 1 105 0
 647 006e 2168     		ldr	r1, [r4, #0]
 648 0070 29B1     		cbz	r1, .L25
 649              		.loc 1 105 0 is_stmt 0 discriminator 1
 650 0072 6168     		ldr	r1, [r4, #4]
 651 0074 19B1     		cbz	r1, .L25
 652              		.loc 1 105 0 discriminator 3
 653 0076 A168     		ldr	r1, [r4, #8]
 654 0078 0029     		cmp	r1, #0
 655 007a 26D0     		beq	.L31
 656              		.loc 1 105 0
 657 007c 0021     		movs	r1, #0
 658              	.L25:
 659              		.loc 1 105 0 discriminator 7
 660 007e 0120     		movs	r0, #1
 661 0080 FFF7FEFF 		bl	_test_assert
 662 0084 08B1     		cbz	r0, .L32
 663              	.LVL31:
 664              	.L24:
 665              		.loc 1 119 0 is_stmt 1
 666 0086 04B0     		add	sp, sp, #16
 667 0088 70BD     		pop	{r4, r5, r6, pc}
 668              	.LVL32:
 669              	.L32:
 670              		.loc 1 113 0
 671 008a FFF7FEFF 		bl	test_wait_threads
 672              		.loc 1 114 0
 673 008e 0220     		movs	r0, #2
 674 0090 1949     		ldr	r1, .L33+28
 675 0092 FFF7FEFF 		bl	_test_assert_sequence
 676 0096 0028     		cmp	r0, #0
ARM GAS  C:\Users\TAISIK~1\AppData\Local\Temp\ccbsJ8p8.s 			page 13


 677 0098 F5D1     		bne	.L24
 678              		.loc 1 117 0
 679 009a 02A9     		add	r1, sp, #8
 680 009c 1148     		ldr	r0, .L33+8
 681 009e FFF7FEFF 		bl	chHeapStatus
 682 00a2 A0F10101 		sub	r1, r0, #1
 683 00a6 4A42     		rsbs	r2, r1, #0
 684 00a8 42EB0101 		adc	r1, r2, r1
 685 00ac 0320     		movs	r0, #3
 686 00ae FFF7FEFF 		bl	_test_assert
 687 00b2 0028     		cmp	r0, #0
 688 00b4 E7D1     		bne	.L24
 689              	.LVL33:
 690              		.loc 1 118 0
 691 00b6 0399     		ldr	r1, [sp, #12]
 692 00b8 029A     		ldr	r2, [sp, #8]
 693 00ba 531A     		subs	r3, r2, r1
 694 00bc 5842     		rsbs	r0, r3, #0
 695 00be 40EB0301 		adc	r1, r0, r3
 696 00c2 0420     		movs	r0, #4
 697 00c4 FFF7FEFF 		bl	_test_assert
 698 00c8 DDE7     		b	.L24
 699              	.LVL34:
 700              	.L31:
 701              		.loc 1 105 0 discriminator 4
 702 00ca E068     		ldr	r0, [r4, #12]
 703 00cc 0028     		cmp	r0, #0
 704 00ce D6D1     		bne	.L25
 705              		.loc 1 87 0 discriminator 5
 706 00d0 2369     		ldr	r3, [r4, #16]
 707 00d2 D3F10101 		rsbs	r1, r3, #1
 708 00d6 38BF     		it	cc
 709 00d8 0021     		movcc	r1, #0
 710 00da D0E7     		b	.L25
 711              	.L34:
 712              		.align	2
 713              	.L33:
 714 00dc 00000000 		.word	rlist
 715 00e0 00000000 		.word	.LC0
 716 00e4 00000000 		.word	.LANCHOR0
 717 00e8 00000000 		.word	threads
 718 00ec 00000000 		.word	thread
 719 00f0 04000000 		.word	.LC1
 720 00f4 08000000 		.word	.LC2
 721 00f8 1C000000 		.word	.LC6
 722              		.cfi_endproc
 723              	.LFE9:
 724              		.size	dyn1_execute, .-dyn1_execute
 725              		.global	patterndyn
 726              		.global	testdyn3
 727              		.global	testdyn2
 728              		.global	testdyn1
 729 00fc AFF30080 		.section	.rodata.testdyn1,"a",%progbits
 730              		.align	2
 731              		.type	testdyn1, %object
 732              		.size	testdyn1, 16
 733              	testdyn1:
ARM GAS  C:\Users\TAISIK~1\AppData\Local\Temp\ccbsJ8p8.s 			page 14


 734 0000 78000000 		.word	.LC9
 735 0004 00000000 		.word	dyn1_setup
 736 0008 00000000 		.word	0
 737 000c 00000000 		.word	dyn1_execute
 738              		.section	.rodata.testdyn2,"a",%progbits
 739              		.align	2
 740              		.type	testdyn2, %object
 741              		.size	testdyn2, 16
 742              	testdyn2:
 743 0000 48000000 		.word	.LC8
 744 0004 00000000 		.word	dyn2_setup
 745 0008 00000000 		.word	0
 746 000c 00000000 		.word	dyn2_execute
 747              		.section	.rodata.testdyn3,"a",%progbits
 748              		.align	2
 749              		.type	testdyn3, %object
 750              		.size	testdyn3, 16
 751              	testdyn3:
 752 0000 20000000 		.word	.LC7
 753 0004 00000000 		.word	dyn3_setup
 754 0008 00000000 		.word	0
 755 000c 00000000 		.word	dyn3_execute
 756              		.section	.bss.mp1,"aw",%nobits
 757              		.align	2
 758              		.set	.LANCHOR1,. + 0
 759              		.type	mp1, %object
 760              		.size	mp1, 12
 761              	mp1:
 762 0000 00000000 		.space	12
 762      00000000 
 762      00000000 
 763              		.section	.rodata.str1.4,"aMS",%progbits,1
 764              		.align	2
 765              	.LC0:
 766 0000 4100     		.ascii	"A\000"
 767 0002 0000     		.space	2
 768              	.LC1:
 769 0004 4200     		.ascii	"B\000"
 770 0006 0000     		.space	2
 771              	.LC2:
 772 0008 4300     		.ascii	"C\000"
 773 000a 0000     		.space	2
 774              	.LC3:
 775 000c 4400     		.ascii	"D\000"
 776 000e 0000     		.space	2
 777              	.LC4:
 778 0010 4500     		.ascii	"E\000"
 779 0012 0000     		.space	2
 780              	.LC5:
 781 0014 41424344 		.ascii	"ABCD\000"
 781      00
 782 0019 000000   		.space	3
 783              	.LC6:
 784 001c 414200   		.ascii	"AB\000"
 785 001f 00       		.space	1
 786              	.LC7:
 787 0020 44796E61 		.ascii	"Dynamic APIs, registry and references\000"
ARM GAS  C:\Users\TAISIK~1\AppData\Local\Temp\ccbsJ8p8.s 			page 15


 787      6D696320 
 787      41504973 
 787      2C207265 
 787      67697374 
 788 0046 0000     		.space	2
 789              	.LC8:
 790 0048 44796E61 		.ascii	"Dynamic APIs, threads creation from memory pool\000"
 790      6D696320 
 790      41504973 
 790      2C207468 
 790      72656164 
 791              	.LC9:
 792 0078 44796E61 		.ascii	"Dynamic APIs, threads creation from heap\000"
 792      6D696320 
 792      41504973 
 792      2C207468 
 792      72656164 
 793 00a1 000000   		.section	.rodata.patterndyn,"a",%progbits
 794              		.align	2
 795              		.type	patterndyn, %object
 796              		.size	patterndyn, 16
 797              	patterndyn:
 798 0000 00000000 		.word	testdyn1
 799 0004 00000000 		.word	testdyn2
 800 0008 00000000 		.word	testdyn3
 801 000c 00000000 		.word	0
 802              		.section	.bss.heap1,"aw",%nobits
 803              		.align	3
 804              		.set	.LANCHOR0,. + 0
 805              		.type	heap1, %object
 806              		.size	heap1, 32
 807              	heap1:
 808 0000 00000000 		.space	32
 808      00000000 
 808      00000000 
 808      00000000 
 808      00000000 
 809              		.text
 810              	.Letext0:
 811              		.file 2 "c:\\chibistudio\\tools\\gnu tools arm embedded\\4.6 2012q4\\bin\\../lib/gcc/arm-none-eabi
 812              		.file 3 "c:\\chibistudio\\tools\\gnu tools arm embedded\\4.6 2012q4\\bin\\../lib/gcc/arm-none-eabi
 813              		.file 4 "../../os/ports/GCC/ARMCMx/chtypes.h"
 814              		.file 5 "../../os/kernel/include/chlists.h"
 815              		.file 6 "../../os/kernel/include/chthreads.h"
 816              		.file 7 "../../os/ports/GCC/ARMCMx/chcore_v7m.h"
 817              		.file 8 "../../os/kernel/include/chschd.h"
 818              		.file 9 "../../os/kernel/include/chmtx.h"
 819              		.file 10 "../../os/kernel/include/chmemcore.h"
 820              		.file 11 "../../os/kernel/include/chheap.h"
 821              		.file 12 "../../os/kernel/include/chmempools.h"
 822              		.file 13 "../../test/test.h"