ARM GAS  C:\Users\TAISIK~1\AppData\Local\Temp\ccG4oTzW.s 			page 1


   1              		.syntax unified
   2              		.cpu cortex-m4
   3              		.fpu softvfp
   4              		.eabi_attribute 20, 1
   5              		.eabi_attribute 21, 1
   6              		.eabi_attribute 23, 3
   7              		.eabi_attribute 24, 1
   8              		.eabi_attribute 25, 1
   9              		.eabi_attribute 26, 1
  10              		.eabi_attribute 30, 2
  11              		.eabi_attribute 34, 1
  12              		.eabi_attribute 18, 4
  13              		.thumb
  14              		.file	"testmbox.c"
  15              		.text
  16              	.Ltext0:
  17              		.cfi_sections	.debug_frame
  18              		.section	.text.mbox1_setup,"ax",%progbits
  19              		.align	2
  20              		.p2align 4,,15
  21              		.thumb
  22              		.thumb_func
  23              		.type	mbox1_setup, %function
  24              	mbox1_setup:
  25              	.LFB7:
  26              		.file 1 "../../test/testmbox.c"
  27              		.loc 1 75 0
  28              		.cfi_startproc
  29              		@ args = 0, pretend = 0, frame = 0
  30              		@ frame_needed = 0, uses_anonymous_args = 0
  31              		@ link register save eliminated.
  32              		.loc 1 77 0
  33 0000 40F20000 		movw	r0, #:lower16:.LANCHOR0
  34 0004 40F20001 		movw	r1, #:lower16:test
  35 0008 C0F20001 		movt	r1, #:upper16:test
  36 000c C0F20000 		movt	r0, #:upper16:.LANCHOR0
  37 0010 0522     		movs	r2, #5
  38              		.loc 1 78 0
  39              		.loc 1 77 0
  40 0012 FFF7FEBF 		b	chMBInit
  41              		.cfi_endproc
  42              	.LFE7:
  43              		.size	mbox1_setup, .-mbox1_setup
  44 0016 00BFAFF3 		.section	.text.mbox1_execute,"ax",%progbits
  44      0080AFF3 
  44      0080
  45              		.align	2
  46              		.p2align 4,,15
  47              		.thumb
  48              		.thumb_func
  49              		.type	mbox1_execute, %function
  50              	mbox1_execute:
  51              	.LFB8:
  52              		.loc 1 80 0
  53              		.cfi_startproc
  54              		@ args = 0, pretend = 0, frame = 8
  55              		@ frame_needed = 0, uses_anonymous_args = 0
ARM GAS  C:\Users\TAISIK~1\AppData\Local\Temp\ccG4oTzW.s 			page 2


  56 0000 70B5     		push	{r4, r5, r6, lr}
  57              	.LCFI0:
  58              		.cfi_def_cfa_offset 16
  59              		.cfi_offset 14, -4
  60              		.cfi_offset 6, -8
  61              		.cfi_offset 5, -12
  62              		.cfi_offset 4, -16
  63              		.loc 1 87 0
  64 0002 624C     		ldr	r4, .L28
  65 0004 626A     		ldr	r2, [r4, #36]
  66 0006 A2F10500 		sub	r0, r2, #5
  67 000a 4142     		rsbs	r1, r0, #0
  68 000c 41EB0001 		adc	r1, r1, r0
  69              		.loc 1 80 0
  70 0010 82B0     		sub	sp, sp, #8
  71              	.LCFI1:
  72              		.cfi_def_cfa_offset 24
  73              		.loc 1 87 0
  74 0012 0120     		movs	r0, #1
  75 0014 FFF7FEFF 		bl	_test_assert
  76 0018 0028     		cmp	r0, #0
  77 001a 45D1     		bne	.L2
  78              		.loc 1 93 0
  79 001c 4221     		movs	r1, #66
  80 001e 4FF0FF32 		mov	r2, #-1
  81 0022 2046     		mov	r0, r4
  82 0024 FFF7FEFF 		bl	chMBPost
  83              	.LVL0:
  84              		.loc 1 94 0
  85 0028 D0F10101 		rsbs	r1, r0, #1
  86 002c 38BF     		it	cc
  87 002e 0021     		movcc	r1, #0
  88 0030 0220     		movs	r0, #2
  89              	.LVL1:
  90 0032 FFF7FEFF 		bl	_test_assert
  91 0036 B8BB     		cbnz	r0, .L2
  92              	.LVL2:
  93              		.loc 1 93 0
  94 0038 4321     		movs	r1, #67
  95 003a 4FF0FF32 		mov	r2, #-1
  96 003e 2046     		mov	r0, r4
  97 0040 FFF7FEFF 		bl	chMBPost
  98              	.LVL3:
  99              		.loc 1 94 0
 100 0044 D0F10101 		rsbs	r1, r0, #1
 101 0048 38BF     		it	cc
 102 004a 0021     		movcc	r1, #0
 103 004c 0220     		movs	r0, #2
 104              	.LVL4:
 105 004e FFF7FEFF 		bl	_test_assert
 106 0052 48BB     		cbnz	r0, .L2
 107              	.LVL5:
 108              		.loc 1 93 0
 109 0054 4421     		movs	r1, #68
 110 0056 4FF0FF32 		mov	r2, #-1
 111 005a 2046     		mov	r0, r4
 112 005c FFF7FEFF 		bl	chMBPost
ARM GAS  C:\Users\TAISIK~1\AppData\Local\Temp\ccG4oTzW.s 			page 3


 113              	.LVL6:
 114              		.loc 1 94 0
 115 0060 D0F10101 		rsbs	r1, r0, #1
 116 0064 38BF     		it	cc
 117 0066 0021     		movcc	r1, #0
 118 0068 0220     		movs	r0, #2
 119              	.LVL7:
 120 006a FFF7FEFF 		bl	_test_assert
 121 006e D8B9     		cbnz	r0, .L2
 122              	.LVL8:
 123              		.loc 1 93 0
 124 0070 4521     		movs	r1, #69
 125 0072 4FF0FF32 		mov	r2, #-1
 126 0076 2046     		mov	r0, r4
 127 0078 FFF7FEFF 		bl	chMBPost
 128              	.LVL9:
 129              		.loc 1 94 0
 130 007c D0F10101 		rsbs	r1, r0, #1
 131 0080 38BF     		it	cc
 132 0082 0021     		movcc	r1, #0
 133 0084 0220     		movs	r0, #2
 134              	.LVL10:
 135 0086 FFF7FEFF 		bl	_test_assert
 136 008a 68B9     		cbnz	r0, .L2
 137              	.LVL11:
 138              		.loc 1 96 0
 139 008c 4121     		movs	r1, #65
 140 008e 4FF0FF32 		mov	r2, #-1
 141 0092 2046     		mov	r0, r4
 142 0094 FFF7FEFF 		bl	chMBPostAhead
 143              	.LVL12:
 144              		.loc 1 97 0
 145 0098 D0F10101 		rsbs	r1, r0, #1
 146 009c 38BF     		it	cc
 147 009e 0021     		movcc	r1, #0
 148 00a0 0320     		movs	r0, #3
 149              	.LVL13:
 150 00a2 FFF7FEFF 		bl	_test_assert
 151 00a6 08B1     		cbz	r0, .L27
 152              	.LVL14:
 153              	.L2:
 154              		.loc 1 224 0
 155 00a8 02B0     		add	sp, sp, #8
 156 00aa 70BD     		pop	{r4, r5, r6, pc}
 157              	.LVL15:
 158              	.L27:
 159              	.LBB116:
 160              	.LBB117:
 161              		.loc 1 102 0
 162 00ac 5821     		movs	r1, #88
 163 00ae 0122     		movs	r2, #1
 164 00b0 2046     		mov	r0, r4
 165 00b2 FFF7FEFF 		bl	chMBPost
 166              	.LVL16:
 167              		.loc 1 103 0
 168 00b6 A0F1FF35 		sub	r5, r0, #-1
 169 00ba 6B42     		rsbs	r3, r5, #0
ARM GAS  C:\Users\TAISIK~1\AppData\Local\Temp\ccG4oTzW.s 			page 4


 170 00bc 43EB0501 		adc	r1, r3, r5
 171 00c0 0420     		movs	r0, #4
 172              	.LVL17:
 173 00c2 FFF7FEFF 		bl	_test_assert
 174 00c6 0546     		mov	r5, r0
 175              	.LVL18:
 176 00c8 0028     		cmp	r0, #0
 177 00ca EDD1     		bne	.L2
 178              	.LBB118:
 179              		.loc 1 104 0
 180 00cc 2023     		movs	r3, #32
 181              	.LVL19:
 182              	@ 104 "../../test/testmbox.c" 1
 183 00ce 83F31188 		msr     BASEPRI, r3
 184              	@ 0 "" 2
 185              	.LVL20:
 186              		.thumb
 187              	.LBE118:
 188              		.loc 1 105 0
 189 00d2 5821     		movs	r1, #88
 190 00d4 2046     		mov	r0, r4
 191 00d6 FFF7FEFF 		bl	chMBPostI
 192              	.LVL21:
 193              	.LBB119:
 194              		.loc 1 106 0
 195 00da 2B46     		mov	r3, r5
 196              	.LVL22:
 197              	@ 106 "../../test/testmbox.c" 1
 198 00dc 83F31188 		msr     BASEPRI, r3
 199              	@ 0 "" 2
 200              	.LVL23:
 201              		.thumb
 202              	.LBE119:
 203              		.loc 1 107 0
 204 00e0 A0F1FF31 		sub	r1, r0, #-1
 205 00e4 D1F1000C 		rsbs	ip, r1, #0
 206 00e8 4CEB0101 		adc	r1, ip, r1
 207 00ec 0520     		movs	r0, #5
 208              	.LVL24:
 209 00ee FFF7FEFF 		bl	_test_assert
 210              	.LVL25:
 211 00f2 0028     		cmp	r0, #0
 212 00f4 D8D1     		bne	.L2
 213              		.loc 1 108 0
 214 00f6 5821     		movs	r1, #88
 215 00f8 0122     		movs	r2, #1
 216 00fa 2046     		mov	r0, r4
 217 00fc FFF7FEFF 		bl	chMBPostAhead
 218              	.LVL26:
 219              		.loc 1 109 0
 220 0100 A0F1FF32 		sub	r2, r0, #-1
 221 0104 5042     		rsbs	r0, r2, #0
 222              	.LVL27:
 223 0106 40EB0201 		adc	r1, r0, r2
 224 010a 0620     		movs	r0, #6
 225 010c FFF7FEFF 		bl	_test_assert
 226              	.LVL28:
ARM GAS  C:\Users\TAISIK~1\AppData\Local\Temp\ccG4oTzW.s 			page 5


 227 0110 0546     		mov	r5, r0
 228 0112 0028     		cmp	r0, #0
 229 0114 C8D1     		bne	.L2
 230              	.LBB120:
 231              		.loc 1 110 0
 232 0116 2023     		movs	r3, #32
 233              	.LVL29:
 234              	@ 110 "../../test/testmbox.c" 1
 235 0118 83F31188 		msr     BASEPRI, r3
 236              	@ 0 "" 2
 237              	.LVL30:
 238              		.thumb
 239              	.LBE120:
 240              		.loc 1 111 0
 241 011c 5821     		movs	r1, #88
 242 011e 2046     		mov	r0, r4
 243 0120 FFF7FEFF 		bl	chMBPostAheadI
 244              	.LVL31:
 245              	.LBB121:
 246              		.loc 1 112 0
 247 0124 2B46     		mov	r3, r5
 248              	.LVL32:
 249              	@ 112 "../../test/testmbox.c" 1
 250 0126 83F31188 		msr     BASEPRI, r3
 251              	@ 0 "" 2
 252              	.LVL33:
 253              		.thumb
 254              	.LBE121:
 255              		.loc 1 113 0
 256 012a A0F1FF31 		sub	r1, r0, #-1
 257 012e 4B42     		rsbs	r3, r1, #0
 258              	.LVL34:
 259 0130 43EB0101 		adc	r1, r3, r1
 260 0134 0720     		movs	r0, #7
 261              	.LVL35:
 262 0136 FFF7FEFF 		bl	_test_assert
 263 013a 0028     		cmp	r0, #0
 264 013c B4D1     		bne	.L2
 265              	.LBB122:
 266              		.loc 1 118 0
 267 013e 2023     		movs	r3, #32
 268              	.LVL36:
 269              	@ 118 "../../test/testmbox.c" 1
 270 0140 83F31188 		msr     BASEPRI, r3
 271              	@ 0 "" 2
 272              	.LVL37:
 273              		.thumb
 274              	.LBE122:
 275 0144 666A     		ldr	r6, [r4, #36]
 276 0146 D6F10101 		rsbs	r1, r6, #1
 277 014a 38BF     		it	cc
 278 014c 0021     		movcc	r1, #0
 279 014e 0820     		movs	r0, #8
 280 0150 FFF7FEFF 		bl	_test_assert
 281              	.LVL38:
 282 0154 0646     		mov	r6, r0
 283 0156 18B1     		cbz	r0, .L4
ARM GAS  C:\Users\TAISIK~1\AppData\Local\Temp\ccG4oTzW.s 			page 6


 284              	.L25:
 285              	.LBB123:
 286              		.loc 1 223 0
 287 0158 0023     		movs	r3, #0
 288              	@ 223 "../../test/testmbox.c" 1
 289 015a 83F31188 		msr     BASEPRI, r3
 290              	@ 0 "" 2
 291              	.LVL39:
 292              		.thumb
 293 015e A3E7     		b	.L2
 294              	.LVL40:
 295              	.L4:
 296              	.LBE123:
 297              	.LBB124:
 298              		.loc 1 118 0
 299 0160 0346     		mov	r3, r0
 300              	.LVL41:
 301              	@ 118 "../../test/testmbox.c" 1
 302 0162 83F31188 		msr     BASEPRI, r3
 303              	@ 0 "" 2
 304              	.LVL42:
 305              		.thumb
 306              	.LBE124:
 307              	.LBB125:
 308              		.loc 1 119 0
 309 0166 2023     		movs	r3, #32
 310              	.LVL43:
 311              	@ 119 "../../test/testmbox.c" 1
 312 0168 83F31188 		msr     BASEPRI, r3
 313              	@ 0 "" 2
 314              	.LVL44:
 315              		.thumb
 316              	.LBE125:
 317 016c A569     		ldr	r5, [r4, #24]
 318 016e A5F1050E 		sub	lr, r5, #5
 319 0172 DEF10000 		rsbs	r0, lr, #0
 320 0176 40EB0E01 		adc	r1, r0, lr
 321 017a 0920     		movs	r0, #9
 322 017c FFF7FEFF 		bl	_test_assert
 323              	.LVL45:
 324 0180 0546     		mov	r5, r0
 325 0182 28B1     		cbz	r0, .L5
 326              	.L22:
 327              	.LBB126:
 328              		.loc 1 156 0
 329 0184 3346     		mov	r3, r6
 330              	@ 156 "../../test/testmbox.c" 1
 331 0186 83F31188 		msr     BASEPRI, r3
 332              	@ 0 "" 2
 333              	.LVL46:
 334              		.thumb
 335 018a 8DE7     		b	.L2
 336              	.L29:
 337              		.align	2
 338              	.L28:
 339 018c 00000000 		.word	.LANCHOR0
 340              	.LVL47:
ARM GAS  C:\Users\TAISIK~1\AppData\Local\Temp\ccG4oTzW.s 			page 7


 341              	.L5:
 342              	.LBE126:
 343              	.LBB127:
 344              		.loc 1 119 0
 345 0190 0346     		mov	r3, r0
 346              	.LVL48:
 347              	@ 119 "../../test/testmbox.c" 1
 348 0192 83F31188 		msr     BASEPRI, r3
 349              	@ 0 "" 2
 350              	.LVL49:
 351              		.thumb
 352              	.LBE127:
 353              	.LBB128:
 354              		.loc 1 120 0
 355 0196 2023     		movs	r3, #32
 356              	.LVL50:
 357              	@ 120 "../../test/testmbox.c" 1
 358 0198 83F31188 		msr     BASEPRI, r3
 359              	@ 0 "" 2
 360              	.LVL51:
 361              		.thumb
 362              	.LBE128:
 363 019c E168     		ldr	r1, [r4, #12]
 364 019e A068     		ldr	r0, [r4, #8]
 365 01a0 0B1A     		subs	r3, r1, r0
 366              	.LVL52:
 367 01a2 5A42     		rsbs	r2, r3, #0
 368 01a4 42EB0301 		adc	r1, r2, r3
 369 01a8 0A20     		movs	r0, #10
 370 01aa FFF7FEFF 		bl	_test_assert
 371 01ae 0346     		mov	r3, r0
 372 01b0 0028     		cmp	r0, #0
 373 01b2 40F0DF80 		bne	.L24
 374              	.LBB129:
 375              	@ 120 "../../test/testmbox.c" 1
 376 01b6 83F31188 		msr     BASEPRI, r3
 377              	@ 0 "" 2
 378              	.LVL53:
 379              		.thumb
 380              	.LBE129:
 381              		.loc 1 126 0
 382 01ba 4FF0FF32 		mov	r2, #-1
 383 01be 01A9     		add	r1, sp, #4
 384 01c0 2046     		mov	r0, r4
 385 01c2 FFF7FEFF 		bl	chMBFetch
 386              	.LVL54:
 387              		.loc 1 127 0
 388 01c6 D0F10101 		rsbs	r1, r0, #1
 389 01ca 38BF     		it	cc
 390 01cc 0021     		movcc	r1, #0
 391 01ce 0B20     		movs	r0, #11
 392              	.LVL55:
 393 01d0 FFF7FEFF 		bl	_test_assert
 394 01d4 0028     		cmp	r0, #0
 395 01d6 7FF467AF 		bne	.L2
 396              	.LVL56:
 397              		.loc 1 128 0
ARM GAS  C:\Users\TAISIK~1\AppData\Local\Temp\ccG4oTzW.s 			page 8


 398 01da 9DF80400 		ldrb	r0, [sp, #4]	@ zero_extendqisi2
 399 01de FFF7FEFF 		bl	test_emit_token
 400              	.LVL57:
 401              		.loc 1 126 0
 402 01e2 01A9     		add	r1, sp, #4
 403 01e4 2046     		mov	r0, r4
 404 01e6 4FF0FF32 		mov	r2, #-1
 405 01ea FFF7FEFF 		bl	chMBFetch
 406              	.LVL58:
 407              		.loc 1 127 0
 408 01ee D0F10101 		rsbs	r1, r0, #1
 409 01f2 38BF     		it	cc
 410 01f4 0021     		movcc	r1, #0
 411 01f6 0B20     		movs	r0, #11
 412              	.LVL59:
 413 01f8 FFF7FEFF 		bl	_test_assert
 414 01fc 0028     		cmp	r0, #0
 415 01fe 7FF453AF 		bne	.L2
 416              		.loc 1 128 0
 417 0202 9DF80400 		ldrb	r0, [sp, #4]	@ zero_extendqisi2
 418 0206 FFF7FEFF 		bl	test_emit_token
 419              	.LVL60:
 420              		.loc 1 126 0
 421 020a 01A9     		add	r1, sp, #4
 422 020c 2046     		mov	r0, r4
 423 020e 4FF0FF32 		mov	r2, #-1
 424 0212 FFF7FEFF 		bl	chMBFetch
 425              	.LVL61:
 426              		.loc 1 127 0
 427 0216 D0F10101 		rsbs	r1, r0, #1
 428 021a 38BF     		it	cc
 429 021c 0021     		movcc	r1, #0
 430 021e 0B20     		movs	r0, #11
 431              	.LVL62:
 432 0220 FFF7FEFF 		bl	_test_assert
 433 0224 0028     		cmp	r0, #0
 434 0226 7FF43FAF 		bne	.L2
 435              		.loc 1 128 0
 436 022a 9DF80400 		ldrb	r0, [sp, #4]	@ zero_extendqisi2
 437 022e FFF7FEFF 		bl	test_emit_token
 438              	.LVL63:
 439              		.loc 1 126 0
 440 0232 01A9     		add	r1, sp, #4
 441 0234 2046     		mov	r0, r4
 442 0236 4FF0FF32 		mov	r2, #-1
 443 023a FFF7FEFF 		bl	chMBFetch
 444              	.LVL64:
 445              		.loc 1 127 0
 446 023e D0F10101 		rsbs	r1, r0, #1
 447 0242 38BF     		it	cc
 448 0244 0021     		movcc	r1, #0
 449 0246 0B20     		movs	r0, #11
 450              	.LVL65:
 451 0248 FFF7FEFF 		bl	_test_assert
 452 024c 0028     		cmp	r0, #0
 453 024e 7FF42BAF 		bne	.L2
 454              		.loc 1 128 0
ARM GAS  C:\Users\TAISIK~1\AppData\Local\Temp\ccG4oTzW.s 			page 9


 455 0252 9DF80400 		ldrb	r0, [sp, #4]	@ zero_extendqisi2
 456 0256 FFF7FEFF 		bl	test_emit_token
 457              	.LVL66:
 458              		.loc 1 126 0
 459 025a 01A9     		add	r1, sp, #4
 460 025c 2046     		mov	r0, r4
 461 025e 4FF0FF32 		mov	r2, #-1
 462 0262 FFF7FEFF 		bl	chMBFetch
 463              	.LVL67:
 464              		.loc 1 127 0
 465 0266 D0F10101 		rsbs	r1, r0, #1
 466 026a 38BF     		it	cc
 467 026c 0021     		movcc	r1, #0
 468 026e 0B20     		movs	r0, #11
 469              	.LVL68:
 470 0270 FFF7FEFF 		bl	_test_assert
 471 0274 0028     		cmp	r0, #0
 472 0276 7FF417AF 		bne	.L2
 473              		.loc 1 128 0
 474 027a 9DF80400 		ldrb	r0, [sp, #4]	@ zero_extendqisi2
 475 027e FFF7FEFF 		bl	test_emit_token
 476              	.LVL69:
 477              		.loc 1 130 0
 478 0282 0C20     		movs	r0, #12
 479 0284 3D49     		ldr	r1, .L30
 480 0286 FFF7FEFF 		bl	_test_assert_sequence
 481 028a 0028     		cmp	r0, #0
 482 028c 7FF40CAF 		bne	.L2
 483              		.loc 1 135 0
 484 0290 4721     		movs	r1, #71
 485 0292 4FF0FF32 		mov	r2, #-1
 486 0296 2046     		mov	r0, r4
 487 0298 FFF7FEFF 		bl	chMBPost
 488              	.LVL70:
 489              		.loc 1 136 0
 490 029c D0F10101 		rsbs	r1, r0, #1
 491 02a0 38BF     		it	cc
 492 02a2 0021     		movcc	r1, #0
 493 02a4 0D20     		movs	r0, #13
 494              	.LVL71:
 495 02a6 FFF7FEFF 		bl	_test_assert
 496 02aa 0028     		cmp	r0, #0
 497 02ac 7FF4FCAE 		bne	.L2
 498              		.loc 1 137 0
 499 02b0 334C     		ldr	r4, .L30+4
 500 02b2 01A9     		add	r1, sp, #4
 501 02b4 4FF0FF32 		mov	r2, #-1
 502 02b8 2046     		mov	r0, r4
 503 02ba FFF7FEFF 		bl	chMBFetch
 504              	.LVL72:
 505              		.loc 1 138 0
 506 02be D0F10101 		rsbs	r1, r0, #1
 507 02c2 38BF     		it	cc
 508 02c4 0021     		movcc	r1, #0
 509 02c6 0E20     		movs	r0, #14
 510              	.LVL73:
 511 02c8 FFF7FEFF 		bl	_test_assert
ARM GAS  C:\Users\TAISIK~1\AppData\Local\Temp\ccG4oTzW.s 			page 10


 512 02cc 0028     		cmp	r0, #0
 513 02ce 7FF4EBAE 		bne	.L2
 514              		.loc 1 139 0
 515 02d2 A168     		ldr	r1, [r4, #8]
 516 02d4 2268     		ldr	r2, [r4, #0]
 517 02d6 C1EB020C 		rsb	ip, r1, r2
 518 02da DCF10003 		rsbs	r3, ip, #0
 519 02de 43EB0C01 		adc	r1, r3, ip
 520 02e2 0F20     		movs	r0, #15
 521 02e4 FFF7FEFF 		bl	_test_assert
 522 02e8 0028     		cmp	r0, #0
 523 02ea 7FF4DDAE 		bne	.L2
 524              		.loc 1 140 0
 525 02ee 2268     		ldr	r2, [r4, #0]
 526 02f0 E368     		ldr	r3, [r4, #12]
 527 02f2 C3EB020E 		rsb	lr, r3, r2
 528 02f6 DEF10000 		rsbs	r0, lr, #0
 529 02fa 40EB0E01 		adc	r1, r0, lr
 530 02fe 1020     		movs	r0, #16
 531 0300 FFF7FEFF 		bl	_test_assert
 532 0304 0028     		cmp	r0, #0
 533 0306 7FF4CFAE 		bne	.L2
 534              		.loc 1 145 0
 535 030a 0122     		movs	r2, #1
 536 030c 01A9     		add	r1, sp, #4
 537 030e 2046     		mov	r0, r4
 538 0310 FFF7FEFF 		bl	chMBFetch
 539              	.LVL74:
 540              		.loc 1 146 0
 541 0314 A0F1FF31 		sub	r1, r0, #-1
 542 0318 4D42     		rsbs	r5, r1, #0
 543 031a 45EB0101 		adc	r1, r5, r1
 544 031e 1120     		movs	r0, #17
 545              	.LVL75:
 546 0320 FFF7FEFF 		bl	_test_assert
 547 0324 0546     		mov	r5, r0
 548 0326 0028     		cmp	r0, #0
 549 0328 7FF4BEAE 		bne	.L2
 550              	.LBB130:
 551              		.loc 1 147 0
 552 032c 2023     		movs	r3, #32
 553              	.LVL76:
 554              	@ 147 "../../test/testmbox.c" 1
 555 032e 83F31188 		msr     BASEPRI, r3
 556              	@ 0 "" 2
 557              	.LVL77:
 558              		.thumb
 559              	.LBE130:
 560              		.loc 1 148 0
 561 0332 2046     		mov	r0, r4
 562 0334 01A9     		add	r1, sp, #4
 563 0336 FFF7FEFF 		bl	chMBFetchI
 564              	.LVL78:
 565              	.LBB131:
 566              		.loc 1 149 0
 567 033a 2B46     		mov	r3, r5
 568              	.LVL79:
ARM GAS  C:\Users\TAISIK~1\AppData\Local\Temp\ccG4oTzW.s 			page 11


 569              	@ 149 "../../test/testmbox.c" 1
 570 033c 83F31188 		msr     BASEPRI, r3
 571              	@ 0 "" 2
 572              	.LVL80:
 573              		.thumb
 574              	.LBE131:
 575              		.loc 1 150 0
 576 0340 A0F1FF33 		sub	r3, r0, #-1
 577              	.LVL81:
 578 0344 5842     		rsbs	r0, r3, #0
 579              	.LVL82:
 580 0346 40EB0301 		adc	r1, r0, r3
 581 034a 1220     		movs	r0, #18
 582 034c FFF7FEFF 		bl	_test_assert
 583              	.LVL83:
 584 0350 0546     		mov	r5, r0
 585 0352 0028     		cmp	r0, #0
 586 0354 7FF4A8AE 		bne	.L2
 587              	.LBB132:
 588              		.loc 1 155 0
 589 0358 2023     		movs	r3, #32
 590              	.LVL84:
 591              	@ 155 "../../test/testmbox.c" 1
 592 035a 83F31188 		msr     BASEPRI, r3
 593              	@ 0 "" 2
 594              	.LVL85:
 595              		.thumb
 596              	.LBE132:
 597 035e 616A     		ldr	r1, [r4, #36]
 598 0360 A1F10506 		sub	r6, r1, #5
 599 0364 7242     		rsbs	r2, r6, #0
 600 0366 42EB0601 		adc	r1, r2, r6
 601 036a 1320     		movs	r0, #19
 602 036c FFF7FEFF 		bl	_test_assert
 603              	.LVL86:
 604 0370 0646     		mov	r6, r0
 605 0372 38B1     		cbz	r0, .L7
 606              	.LVL87:
 607              	.L24:
 608              	.LBB133:
 609              		.loc 1 157 0
 610 0374 2B46     		mov	r3, r5
 611              	@ 157 "../../test/testmbox.c" 1
 612 0376 83F31188 		msr     BASEPRI, r3
 613              	@ 0 "" 2
 614              	.LVL88:
 615              		.thumb
 616 037a 95E6     		b	.L2
 617              	.L31:
 618              		.align	2
 619              	.L30:
 620 037c 00000000 		.word	.LC0
 621 0380 00000000 		.word	.LANCHOR0
 622              	.LVL89:
 623              	.L7:
 624              	.LBE133:
 625              	.LBB134:
ARM GAS  C:\Users\TAISIK~1\AppData\Local\Temp\ccG4oTzW.s 			page 12


 626              		.loc 1 155 0
 627 0384 0346     		mov	r3, r0
 628              	.LVL90:
 629              	@ 155 "../../test/testmbox.c" 1
 630 0386 83F31188 		msr     BASEPRI, r3
 631              	@ 0 "" 2
 632              	.LVL91:
 633              		.thumb
 634              	.LBE134:
 635              	.LBB135:
 636              		.loc 1 156 0
 637 038a 2023     		movs	r3, #32
 638              	.LVL92:
 639              	@ 156 "../../test/testmbox.c" 1
 640 038c 83F31188 		msr     BASEPRI, r3
 641              	@ 0 "" 2
 642              	.LVL93:
 643              		.thumb
 644              	.LBE135:
 645 0390 A569     		ldr	r5, [r4, #24]
 646 0392 D5F10101 		rsbs	r1, r5, #1
 647 0396 38BF     		it	cc
 648 0398 0021     		movcc	r1, #0
 649 039a 1420     		movs	r0, #20
 650 039c FFF7FEFF 		bl	_test_assert
 651              	.LVL94:
 652 03a0 0546     		mov	r5, r0
 653 03a2 0028     		cmp	r0, #0
 654 03a4 7FF4EEAE 		bne	.L22
 655              	.LBB136:
 656 03a8 0346     		mov	r3, r0
 657              	.LVL95:
 658              	@ 156 "../../test/testmbox.c" 1
 659 03aa 83F31188 		msr     BASEPRI, r3
 660              	@ 0 "" 2
 661              	.LVL96:
 662              		.thumb
 663              	.LBE136:
 664              	.LBB137:
 665              		.loc 1 157 0
 666 03ae 2023     		movs	r3, #32
 667              	.LVL97:
 668              	@ 157 "../../test/testmbox.c" 1
 669 03b0 83F31188 		msr     BASEPRI, r3
 670              	@ 0 "" 2
 671              	.LVL98:
 672              		.thumb
 673              	.LBE137:
 674 03b4 E068     		ldr	r0, [r4, #12]
 675 03b6 A268     		ldr	r2, [r4, #8]
 676 03b8 C2EB000C 		rsb	ip, r2, r0
 677 03bc DCF10003 		rsbs	r3, ip, #0
 678              	.LVL99:
 679 03c0 43EB0C01 		adc	r1, r3, ip
 680 03c4 1520     		movs	r0, #21
 681 03c6 FFF7FEFF 		bl	_test_assert
 682 03ca 0346     		mov	r3, r0
ARM GAS  C:\Users\TAISIK~1\AppData\Local\Temp\ccG4oTzW.s 			page 13


 683 03cc 0028     		cmp	r0, #0
 684 03ce D1D1     		bne	.L24
 685              	.LBB138:
 686              	@ 157 "../../test/testmbox.c" 1
 687 03d0 83F31188 		msr     BASEPRI, r3
 688              	@ 0 "" 2
 689              	.LVL100:
 690              		.thumb
 691              	.LBE138:
 692              	.LBB139:
 693              		.loc 1 162 0
 694 03d4 2023     		movs	r3, #32
 695              	.LVL101:
 696              	@ 162 "../../test/testmbox.c" 1
 697 03d6 83F31188 		msr     BASEPRI, r3
 698              	@ 0 "" 2
 699              	.LVL102:
 700              		.thumb
 701              	.LBE139:
 702              		.loc 1 163 0
 703 03da 4121     		movs	r1, #65
 704 03dc 2046     		mov	r0, r4
 705 03de FFF7FEFF 		bl	chMBPostI
 706              	.LVL103:
 707              		.loc 1 164 0
 708 03e2 D0F10101 		rsbs	r1, r0, #1
 709 03e6 38BF     		it	cc
 710 03e8 0021     		movcc	r1, #0
 711 03ea 1620     		movs	r0, #22
 712              	.LVL104:
 713 03ec FFF7FEFF 		bl	_test_assert
 714 03f0 0028     		cmp	r0, #0
 715 03f2 7FF459AE 		bne	.L2
 716              		.loc 1 165 0
 717 03f6 4221     		movs	r1, #66
 718 03f8 2046     		mov	r0, r4
 719 03fa FFF7FEFF 		bl	chMBPostI
 720              	.LVL105:
 721              		.loc 1 166 0
 722 03fe D0F10101 		rsbs	r1, r0, #1
 723 0402 38BF     		it	cc
 724 0404 0021     		movcc	r1, #0
 725 0406 1720     		movs	r0, #23
 726              	.LVL106:
 727 0408 FFF7FEFF 		bl	_test_assert
 728 040c 0028     		cmp	r0, #0
 729 040e 7FF44BAE 		bne	.L2
 730              		.loc 1 167 0
 731 0412 C24C     		ldr	r4, .L32
 732 0414 4321     		movs	r1, #67
 733 0416 2046     		mov	r0, r4
 734 0418 FFF7FEFF 		bl	chMBPostI
 735              	.LVL107:
 736              		.loc 1 168 0
 737 041c D0F10101 		rsbs	r1, r0, #1
 738 0420 38BF     		it	cc
 739 0422 0021     		movcc	r1, #0
ARM GAS  C:\Users\TAISIK~1\AppData\Local\Temp\ccG4oTzW.s 			page 14


 740 0424 1820     		movs	r0, #24
 741              	.LVL108:
 742 0426 FFF7FEFF 		bl	_test_assert
 743 042a 0028     		cmp	r0, #0
 744 042c 7FF43CAE 		bne	.L2
 745              		.loc 1 169 0
 746 0430 4421     		movs	r1, #68
 747 0432 2046     		mov	r0, r4
 748 0434 FFF7FEFF 		bl	chMBPostI
 749              	.LVL109:
 750              		.loc 1 170 0
 751 0438 D0F10101 		rsbs	r1, r0, #1
 752 043c 38BF     		it	cc
 753 043e 0021     		movcc	r1, #0
 754 0440 1920     		movs	r0, #25
 755              	.LVL110:
 756 0442 FFF7FEFF 		bl	_test_assert
 757 0446 0546     		mov	r5, r0
 758 0448 0028     		cmp	r0, #0
 759 044a 7FF42DAE 		bne	.L2
 760              		.loc 1 171 0
 761 044e 2046     		mov	r0, r4
 762 0450 4521     		movs	r1, #69
 763 0452 FFF7FEFF 		bl	chMBPostI
 764              	.LVL111:
 765              	.LBB140:
 766              		.loc 1 172 0
 767 0456 2B46     		mov	r3, r5
 768              	.LVL112:
 769              	@ 172 "../../test/testmbox.c" 1
 770 0458 83F31188 		msr     BASEPRI, r3
 771              	@ 0 "" 2
 772              	.LVL113:
 773              		.thumb
 774              	.LBE140:
 775              		.loc 1 173 0
 776 045c D0F10101 		rsbs	r1, r0, #1
 777 0460 38BF     		it	cc
 778 0462 0021     		movcc	r1, #0
 779 0464 1A20     		movs	r0, #26
 780              	.LVL114:
 781 0466 FFF7FEFF 		bl	_test_assert
 782              	.LVL115:
 783 046a 0028     		cmp	r0, #0
 784 046c 7FF41CAE 		bne	.L2
 785              		.loc 1 174 0
 786 0470 E068     		ldr	r0, [r4, #12]
 787 0472 A368     		ldr	r3, [r4, #8]
 788 0474 C11A     		subs	r1, r0, r3
 789 0476 D1F1000E 		rsbs	lr, r1, #0
 790 047a 4EEB0101 		adc	r1, lr, r1
 791 047e 1B20     		movs	r0, #27
 792 0480 FFF7FEFF 		bl	_test_assert
 793 0484 0028     		cmp	r0, #0
 794 0486 7FF40FAE 		bne	.L2
 795 048a 0525     		movs	r5, #5
 796              	.LVL116:
ARM GAS  C:\Users\TAISIK~1\AppData\Local\Temp\ccG4oTzW.s 			page 15


 797              	.L10:
 798              	.LBB141:
 799              		.loc 1 176 0
 800 048c 2023     		movs	r3, #32
 801              	.LVL117:
 802              	@ 176 "../../test/testmbox.c" 1
 803 048e 83F31188 		msr     BASEPRI, r3
 804              	@ 0 "" 2
 805              	.LVL118:
 806              		.thumb
 807              	.LBE141:
 808              		.loc 1 177 0
 809 0492 A24C     		ldr	r4, .L32
 810 0494 01A9     		add	r1, sp, #4
 811 0496 2046     		mov	r0, r4
 812 0498 FFF7FEFF 		bl	chMBFetchI
 813              	.LVL119:
 814              	.LBB142:
 815              		.loc 1 178 0
 816 049c 0023     		movs	r3, #0
 817              	.LVL120:
 818              	@ 178 "../../test/testmbox.c" 1
 819 049e 83F31188 		msr     BASEPRI, r3
 820              	@ 0 "" 2
 821              	.LVL121:
 822              		.thumb
 823              	.LBE142:
 824              		.loc 1 179 0
 825 04a2 C11A     		subs	r1, r0, r3
 826              	.LVL122:
 827 04a4 4A42     		rsbs	r2, r1, #0
 828 04a6 42EB0101 		adc	r1, r2, r1
 829 04aa 1C20     		movs	r0, #28
 830              	.LVL123:
 831 04ac FFF7FEFF 		bl	_test_assert
 832 04b0 0028     		cmp	r0, #0
 833 04b2 7FF4F9AD 		bne	.L2
 834              		.loc 1 180 0
 835 04b6 9DF80400 		ldrb	r0, [sp, #4]	@ zero_extendqisi2
 836 04ba FFF7FEFF 		bl	test_emit_token
 837              		.loc 1 175 0
 838 04be 013D     		subs	r5, r5, #1
 839 04c0 E4D1     		bne	.L10
 840              		.loc 1 182 0
 841 04c2 1D20     		movs	r0, #29
 842 04c4 9649     		ldr	r1, .L32+4
 843 04c6 FFF7FEFF 		bl	_test_assert_sequence
 844 04ca 0028     		cmp	r0, #0
 845 04cc 7FF4ECAD 		bne	.L2
 846              	.LBB143:
 847              		.loc 1 183 0
 848 04d0 2023     		movs	r3, #32
 849              	.LVL124:
 850              	@ 183 "../../test/testmbox.c" 1
 851 04d2 83F31188 		msr     BASEPRI, r3
 852              	@ 0 "" 2
 853              	.LVL125:
ARM GAS  C:\Users\TAISIK~1\AppData\Local\Temp\ccG4oTzW.s 			page 16


 854              		.thumb
 855              	.LBE143:
 856 04d6 626A     		ldr	r2, [r4, #36]
 857 04d8 A2F10503 		sub	r3, r2, #5
 858              	.LVL126:
 859 04dc 5842     		rsbs	r0, r3, #0
 860 04de 40EB0301 		adc	r1, r0, r3
 861 04e2 1E20     		movs	r0, #30
 862 04e4 FFF7FEFF 		bl	_test_assert
 863              	.LBB144:
 864 04e8 2B46     		mov	r3, r5
 865              	@ 183 "../../test/testmbox.c" 1
 866 04ea 83F31188 		msr     BASEPRI, r3
 867              	@ 0 "" 2
 868              	.LVL127:
 869              		.thumb
 870              	.LBE144:
 871 04ee 0028     		cmp	r0, #0
 872 04f0 7FF4DAAD 		bne	.L2
 873              	.LBB145:
 874              		.loc 1 184 0
 875 04f4 2023     		movs	r3, #32
 876              	.LVL128:
 877              	@ 184 "../../test/testmbox.c" 1
 878 04f6 83F31188 		msr     BASEPRI, r3
 879              	@ 0 "" 2
 880              	.LVL129:
 881              		.thumb
 882              	.LBE145:
 883 04fa A169     		ldr	r1, [r4, #24]
 884 04fc D1F10101 		rsbs	r1, r1, #1
 885 0500 38BF     		it	cc
 886 0502 0021     		movcc	r1, #0
 887 0504 1F20     		movs	r0, #31
 888 0506 FFF7FEFF 		bl	_test_assert
 889              	.LVL130:
 890              	.LBB146:
 891 050a 2B46     		mov	r3, r5
 892              	@ 184 "../../test/testmbox.c" 1
 893 050c 83F31188 		msr     BASEPRI, r3
 894              	@ 0 "" 2
 895              	.LVL131:
 896              		.thumb
 897              	.LBE146:
 898 0510 0028     		cmp	r0, #0
 899 0512 7FF4C9AD 		bne	.L2
 900              		.loc 1 185 0
 901 0516 A168     		ldr	r1, [r4, #8]
 902 0518 E268     		ldr	r2, [r4, #12]
 903 051a 531A     		subs	r3, r2, r1
 904              	.LVL132:
 905 051c 5842     		rsbs	r0, r3, #0
 906 051e 40EB0301 		adc	r1, r0, r3
 907 0522 2020     		movs	r0, #32
 908 0524 FFF7FEFF 		bl	_test_assert
 909 0528 0028     		cmp	r0, #0
 910 052a 7FF4BDAD 		bne	.L2
ARM GAS  C:\Users\TAISIK~1\AppData\Local\Temp\ccG4oTzW.s 			page 17


 911              	.LBB147:
 912              		.loc 1 187 0
 913 052e 2023     		movs	r3, #32
 914              	.LVL133:
 915              	@ 187 "../../test/testmbox.c" 1
 916 0530 83F31188 		msr     BASEPRI, r3
 917              	@ 0 "" 2
 918              	.LVL134:
 919              		.thumb
 920              	.LBE147:
 921              		.loc 1 188 0
 922 0534 4521     		movs	r1, #69
 923 0536 2046     		mov	r0, r4
 924 0538 FFF7FEFF 		bl	chMBPostAheadI
 925              	.LVL135:
 926              		.loc 1 189 0
 927 053c D0F10101 		rsbs	r1, r0, #1
 928 0540 38BF     		it	cc
 929 0542 0021     		movcc	r1, #0
 930 0544 2120     		movs	r0, #33
 931              	.LVL136:
 932 0546 FFF7FEFF 		bl	_test_assert
 933 054a 0028     		cmp	r0, #0
 934 054c 7FF4ACAD 		bne	.L2
 935              		.loc 1 190 0
 936 0550 4421     		movs	r1, #68
 937 0552 2046     		mov	r0, r4
 938 0554 FFF7FEFF 		bl	chMBPostAheadI
 939              	.LVL137:
 940              		.loc 1 191 0
 941 0558 D0F10101 		rsbs	r1, r0, #1
 942 055c 38BF     		it	cc
 943 055e 0021     		movcc	r1, #0
 944 0560 2220     		movs	r0, #34
 945              	.LVL138:
 946 0562 FFF7FEFF 		bl	_test_assert
 947 0566 0028     		cmp	r0, #0
 948 0568 7FF49EAD 		bne	.L2
 949              		.loc 1 192 0
 950 056c 4321     		movs	r1, #67
 951 056e 2046     		mov	r0, r4
 952 0570 FFF7FEFF 		bl	chMBPostAheadI
 953              	.LVL139:
 954              		.loc 1 193 0
 955 0574 D0F10101 		rsbs	r1, r0, #1
 956 0578 38BF     		it	cc
 957 057a 0021     		movcc	r1, #0
 958 057c 2320     		movs	r0, #35
 959              	.LVL140:
 960 057e FFF7FEFF 		bl	_test_assert
 961 0582 0028     		cmp	r0, #0
 962 0584 7FF490AD 		bne	.L2
 963              		.loc 1 194 0
 964 0588 4221     		movs	r1, #66
 965 058a 2046     		mov	r0, r4
 966 058c FFF7FEFF 		bl	chMBPostAheadI
 967              	.LVL141:
ARM GAS  C:\Users\TAISIK~1\AppData\Local\Temp\ccG4oTzW.s 			page 18


 968              		.loc 1 195 0
 969 0590 D0F10101 		rsbs	r1, r0, #1
 970 0594 38BF     		it	cc
 971 0596 0021     		movcc	r1, #0
 972 0598 2420     		movs	r0, #36
 973              	.LVL142:
 974 059a FFF7FEFF 		bl	_test_assert
 975 059e 0028     		cmp	r0, #0
 976 05a0 7FF482AD 		bne	.L2
 977              		.loc 1 196 0
 978 05a4 5D4C     		ldr	r4, .L32
 979 05a6 4121     		movs	r1, #65
 980 05a8 2046     		mov	r0, r4
 981 05aa FFF7FEFF 		bl	chMBPostAheadI
 982              	.LVL143:
 983              	.LBB148:
 984              		.loc 1 197 0
 985 05ae 0023     		movs	r3, #0
 986              	.LVL144:
 987              	@ 197 "../../test/testmbox.c" 1
 988 05b0 83F31188 		msr     BASEPRI, r3
 989              	@ 0 "" 2
 990              	.LVL145:
 991              		.thumb
 992              	.LBE148:
 993              		.loc 1 198 0
 994 05b4 C3EB000C 		rsb	ip, r3, r0
 995              	.LVL146:
 996 05b8 DCF10003 		rsbs	r3, ip, #0
 997 05bc 43EB0C01 		adc	r1, r3, ip
 998 05c0 2520     		movs	r0, #37
 999              	.LVL147:
 1000 05c2 FFF7FEFF 		bl	_test_assert
 1001              	.LVL148:
 1002 05c6 0028     		cmp	r0, #0
 1003 05c8 7FF46EAD 		bne	.L2
 1004              		.loc 1 199 0
 1005 05cc A168     		ldr	r1, [r4, #8]
 1006 05ce E268     		ldr	r2, [r4, #12]
 1007 05d0 C1EB020E 		rsb	lr, r1, r2
 1008 05d4 DEF10000 		rsbs	r0, lr, #0
 1009 05d8 40EB0E01 		adc	r1, r0, lr
 1010 05dc 2620     		movs	r0, #38
 1011 05de FFF7FEFF 		bl	_test_assert
 1012 05e2 0028     		cmp	r0, #0
 1013 05e4 7FF460AD 		bne	.L2
 1014 05e8 0524     		movs	r4, #5
 1015              	.L13:
 1016              	.LBB149:
 1017              		.loc 1 201 0
 1018 05ea 2023     		movs	r3, #32
 1019              	.LVL149:
 1020              	@ 201 "../../test/testmbox.c" 1
 1021 05ec 83F31188 		msr     BASEPRI, r3
 1022              	@ 0 "" 2
 1023              	.LVL150:
 1024              		.thumb
ARM GAS  C:\Users\TAISIK~1\AppData\Local\Temp\ccG4oTzW.s 			page 19


 1025              	.LBE149:
 1026              		.loc 1 202 0
 1027 05f0 4A4D     		ldr	r5, .L32
 1028 05f2 01A9     		add	r1, sp, #4
 1029 05f4 2846     		mov	r0, r5
 1030 05f6 FFF7FEFF 		bl	chMBFetchI
 1031              	.LVL151:
 1032              	.LBB150:
 1033              		.loc 1 203 0
 1034 05fa 0023     		movs	r3, #0
 1035              	.LVL152:
 1036              	@ 203 "../../test/testmbox.c" 1
 1037 05fc 83F31188 		msr     BASEPRI, r3
 1038              	@ 0 "" 2
 1039              	.LVL153:
 1040              		.thumb
 1041              	.LBE150:
 1042              		.loc 1 204 0
 1043 0600 C31A     		subs	r3, r0, r3
 1044              	.LVL154:
 1045 0602 5842     		rsbs	r0, r3, #0
 1046              	.LVL155:
 1047 0604 40EB0301 		adc	r1, r0, r3
 1048 0608 2720     		movs	r0, #39
 1049 060a FFF7FEFF 		bl	_test_assert
 1050              	.LVL156:
 1051 060e 0028     		cmp	r0, #0
 1052 0610 7FF44AAD 		bne	.L2
 1053              		.loc 1 205 0
 1054 0614 9DF80400 		ldrb	r0, [sp, #4]	@ zero_extendqisi2
 1055 0618 FFF7FEFF 		bl	test_emit_token
 1056              		.loc 1 200 0
 1057 061c 013C     		subs	r4, r4, #1
 1058 061e E4D1     		bne	.L13
 1059              		.loc 1 207 0
 1060 0620 2820     		movs	r0, #40
 1061 0622 3F49     		ldr	r1, .L32+4
 1062 0624 FFF7FEFF 		bl	_test_assert_sequence
 1063 0628 0028     		cmp	r0, #0
 1064 062a 7FF43DAD 		bne	.L2
 1065              	.LBB151:
 1066              		.loc 1 208 0
 1067 062e 2023     		movs	r3, #32
 1068              	.LVL157:
 1069              	@ 208 "../../test/testmbox.c" 1
 1070 0630 83F31188 		msr     BASEPRI, r3
 1071              	@ 0 "" 2
 1072              	.LVL158:
 1073              		.thumb
 1074              	.LBE151:
 1075 0634 686A     		ldr	r0, [r5, #36]
 1076 0636 A0F10501 		sub	r1, r0, #5
 1077 063a 4A42     		rsbs	r2, r1, #0
 1078 063c 42EB0101 		adc	r1, r2, r1
 1079 0640 2920     		movs	r0, #41
 1080 0642 FFF7FEFF 		bl	_test_assert
 1081              	.LVL159:
ARM GAS  C:\Users\TAISIK~1\AppData\Local\Temp\ccG4oTzW.s 			page 20


 1082              	.LBB152:
 1083 0646 2346     		mov	r3, r4
 1084              	@ 208 "../../test/testmbox.c" 1
 1085 0648 83F31188 		msr     BASEPRI, r3
 1086              	@ 0 "" 2
 1087              	.LVL160:
 1088              		.thumb
 1089              	.LBE152:
 1090 064c 0028     		cmp	r0, #0
 1091 064e 7FF42BAD 		bne	.L2
 1092              	.LBB153:
 1093              		.loc 1 209 0
 1094 0652 2023     		movs	r3, #32
 1095              	.LVL161:
 1096              	@ 209 "../../test/testmbox.c" 1
 1097 0654 83F31188 		msr     BASEPRI, r3
 1098              	@ 0 "" 2
 1099              	.LVL162:
 1100              		.thumb
 1101              	.LBE153:
 1102 0658 AB69     		ldr	r3, [r5, #24]
 1103              	.LVL163:
 1104 065a D3F10101 		rsbs	r1, r3, #1
 1105 065e 38BF     		it	cc
 1106 0660 0021     		movcc	r1, #0
 1107 0662 2A20     		movs	r0, #42
 1108 0664 FFF7FEFF 		bl	_test_assert
 1109              	.LBB154:
 1110 0668 2346     		mov	r3, r4
 1111              	@ 209 "../../test/testmbox.c" 1
 1112 066a 83F31188 		msr     BASEPRI, r3
 1113              	@ 0 "" 2
 1114              	.LVL164:
 1115              		.thumb
 1116              	.LBE154:
 1117 066e 0028     		cmp	r0, #0
 1118 0670 7FF41AAD 		bne	.L2
 1119              		.loc 1 210 0
 1120 0674 E868     		ldr	r0, [r5, #12]
 1121 0676 AB68     		ldr	r3, [r5, #8]
 1122              	.LVL165:
 1123 0678 C11A     		subs	r1, r0, r3
 1124 067a 4A42     		rsbs	r2, r1, #0
 1125 067c 42EB0101 		adc	r1, r2, r1
 1126 0680 2B20     		movs	r0, #43
 1127 0682 FFF7FEFF 		bl	_test_assert
 1128 0686 0028     		cmp	r0, #0
 1129 0688 7FF40EAD 		bne	.L2
 1130              		.loc 1 215 0
 1131 068c 2846     		mov	r0, r5
 1132 068e FFF7FEFF 		bl	chMBReset
 1133              	.LBB155:
 1134              		.loc 1 220 0
 1135 0692 2023     		movs	r3, #32
 1136              	.LVL166:
 1137              	@ 220 "../../test/testmbox.c" 1
 1138 0694 83F31188 		msr     BASEPRI, r3
ARM GAS  C:\Users\TAISIK~1\AppData\Local\Temp\ccG4oTzW.s 			page 21


 1139              	@ 0 "" 2
 1140              	.LVL167:
 1141              		.thumb
 1142              	.LBE155:
 1143 0698 686A     		ldr	r0, [r5, #36]
 1144 069a A0F10501 		sub	r1, r0, #5
 1145 069e 4A42     		rsbs	r2, r1, #0
 1146 06a0 42EB0101 		adc	r1, r2, r1
 1147 06a4 2C20     		movs	r0, #44
 1148 06a6 FFF7FEFF 		bl	_test_assert
 1149              	.LVL168:
 1150              	.LBB156:
 1151 06aa 2346     		mov	r3, r4
 1152              	@ 220 "../../test/testmbox.c" 1
 1153 06ac 83F31188 		msr     BASEPRI, r3
 1154              	@ 0 "" 2
 1155              	.LVL169:
 1156              		.thumb
 1157              	.LBE156:
 1158 06b0 0028     		cmp	r0, #0
 1159 06b2 7FF4F9AC 		bne	.L2
 1160              	.LBB157:
 1161              		.loc 1 221 0
 1162 06b6 2023     		movs	r3, #32
 1163              	.LVL170:
 1164              	@ 221 "../../test/testmbox.c" 1
 1165 06b8 83F31188 		msr     BASEPRI, r3
 1166              	@ 0 "" 2
 1167              	.LVL171:
 1168              		.thumb
 1169              	.LBE157:
 1170 06bc AB69     		ldr	r3, [r5, #24]
 1171              	.LVL172:
 1172 06be D3F10101 		rsbs	r1, r3, #1
 1173 06c2 38BF     		it	cc
 1174 06c4 0021     		movcc	r1, #0
 1175 06c6 2D20     		movs	r0, #45
 1176 06c8 FFF7FEFF 		bl	_test_assert
 1177              	.LBB158:
 1178 06cc 2346     		mov	r3, r4
 1179              	@ 221 "../../test/testmbox.c" 1
 1180 06ce 83F31188 		msr     BASEPRI, r3
 1181              	@ 0 "" 2
 1182              	.LVL173:
 1183              		.thumb
 1184              	.LBE158:
 1185 06d2 0028     		cmp	r0, #0
 1186 06d4 7FF4E8AC 		bne	.L2
 1187              	.LBB159:
 1188              		.loc 1 222 0
 1189 06d8 2023     		movs	r3, #32
 1190              	.LVL174:
 1191              	@ 222 "../../test/testmbox.c" 1
 1192 06da 83F31188 		msr     BASEPRI, r3
 1193              	@ 0 "" 2
 1194              	.LVL175:
 1195              		.thumb
ARM GAS  C:\Users\TAISIK~1\AppData\Local\Temp\ccG4oTzW.s 			page 22


 1196              	.LBE159:
 1197 06de A968     		ldr	r1, [r5, #8]
 1198 06e0 2A68     		ldr	r2, [r5, #0]
 1199 06e2 C1EB020E 		rsb	lr, r1, r2
 1200 06e6 DEF1000C 		rsbs	ip, lr, #0
 1201 06ea 4CEB0E01 		adc	r1, ip, lr
 1202 06ee 2E20     		movs	r0, #46
 1203 06f0 FFF7FEFF 		bl	_test_assert
 1204              	.LVL176:
 1205              	.LBB160:
 1206 06f4 2346     		mov	r3, r4
 1207              	@ 222 "../../test/testmbox.c" 1
 1208 06f6 83F31188 		msr     BASEPRI, r3
 1209              	@ 0 "" 2
 1210              	.LVL177:
 1211              		.thumb
 1212              	.LBE160:
 1213 06fa 0028     		cmp	r0, #0
 1214 06fc 7FF4D4AC 		bne	.L2
 1215              	.LBB161:
 1216              		.loc 1 223 0
 1217 0700 2023     		movs	r3, #32
 1218              	.LVL178:
 1219              	@ 223 "../../test/testmbox.c" 1
 1220 0702 83F31188 		msr     BASEPRI, r3
 1221              	@ 0 "" 2
 1222              	.LVL179:
 1223              		.thumb
 1224              	.LBE161:
 1225 0706 2968     		ldr	r1, [r5, #0]
 1226 0708 EA68     		ldr	r2, [r5, #12]
 1227 070a 8B1A     		subs	r3, r1, r2
 1228              	.LVL180:
 1229 070c 5842     		rsbs	r0, r3, #0
 1230 070e 40EB0301 		adc	r1, r0, r3
 1231 0712 2F20     		movs	r0, #47
 1232 0714 FFF7FEFF 		bl	_test_assert
 1233 0718 1EE5     		b	.L25
 1234              	.L33:
 1235 071a 00BF     		.align	2
 1236              	.L32:
 1237 071c 00000000 		.word	.LANCHOR0
 1238 0720 00000000 		.word	.LC0
 1239              	.LBE117:
 1240              	.LBE116:
 1241              		.cfi_endproc
 1242              	.LFE8:
 1243              		.size	mbox1_execute, .-mbox1_execute
 1244              		.global	patternmbox
 1245              		.global	testmbox1
 1246 0724 AFF30080 		.section	.data.mb1,"aw",%progbits
 1246      AFF30080 
 1246      AFF30080 
 1247              		.align	2
 1248              		.set	.LANCHOR0,. + 0
 1249              		.type	mb1, %object
 1250              		.size	mb1, 40
ARM GAS  C:\Users\TAISIK~1\AppData\Local\Temp\ccG4oTzW.s 			page 23


 1251              	mb1:
 1252 0000 00000000 		.word	test
 1253 0004 14000000 		.word	test+20
 1254 0008 00000000 		.word	test
 1255 000c 00000000 		.word	test
 1256 0010 10000000 		.word	mb1+16
 1257 0014 10000000 		.word	mb1+16
 1258 0018 00000000 		.word	0
 1259 001c 1C000000 		.word	mb1+28
 1260 0020 1C000000 		.word	mb1+28
 1261 0024 05000000 		.word	5
 1262              		.section	.rodata.patternmbox,"a",%progbits
 1263              		.align	2
 1264              		.type	patternmbox, %object
 1265              		.size	patternmbox, 8
 1266              	patternmbox:
 1267 0000 00000000 		.word	testmbox1
 1268 0004 00000000 		.word	0
 1269              		.section	.rodata.str1.4,"aMS",%progbits,1
 1270              		.align	2
 1271              	.LC0:
 1272 0000 41424344 		.ascii	"ABCDE\000"
 1272      4500
 1273 0006 0000     		.space	2
 1274              	.LC1:
 1275 0008 4D61696C 		.ascii	"Mailboxes, queuing and timeouts\000"
 1275      626F7865 
 1275      732C2071 
 1275      75657569 
 1275      6E672061 
 1276              		.section	.rodata.testmbox1,"a",%progbits
 1277              		.align	2
 1278              		.type	testmbox1, %object
 1279              		.size	testmbox1, 16
 1280              	testmbox1:
 1281 0000 08000000 		.word	.LC1
 1282 0004 00000000 		.word	mbox1_setup
 1283 0008 00000000 		.word	0
 1284 000c 00000000 		.word	mbox1_execute
 1285              		.text
 1286              	.Letext0:
 1287              		.file 2 "c:\\chibistudio\\tools\\gnu tools arm embedded\\4.6 2012q4\\bin\\../lib/gcc/arm-none-eabi
 1288              		.file 3 "../../os/ports/GCC/ARMCMx/chtypes.h"
 1289              		.file 4 "../../os/kernel/include/chlists.h"
 1290              		.file 5 "../../os/kernel/include/chthreads.h"
 1291              		.file 6 "../../os/ports/GCC/ARMCMx/chcore_v7m.h"
 1292              		.file 7 "../../os/kernel/include/chsem.h"
 1293              		.file 8 "../../os/kernel/include/chmtx.h"
 1294              		.file 9 "../../os/kernel/include/chmboxes.h"
 1295              		.file 10 "../../test/test.h"