ARM GAS  C:\Users\TAISIK~1\AppData\Local\Temp\ccW1qhwC.s 			page 1


   1              		.syntax unified
   2              		.cpu cortex-m4
   3              		.fpu softvfp
   4              		.eabi_attribute 20, 1
   5              		.eabi_attribute 21, 1
   6              		.eabi_attribute 23, 3
   7              		.eabi_attribute 24, 1
   8              		.eabi_attribute 25, 1
   9              		.eabi_attribute 26, 1
  10              		.eabi_attribute 30, 2
  11              		.eabi_attribute 34, 1
  12              		.eabi_attribute 18, 4
  13              		.thumb
  14              		.file	"testbmk.c"
  15              		.text
  16              	.Ltext0:
  17              		.cfi_sections	.debug_frame
  18              		.section	.text.thread2,"ax",%progbits
  19              		.align	2
  20              		.p2align 4,,15
  21              		.thumb
  22              		.thumb_func
  23              		.type	thread2, %function
  24              	thread2:
  25              	.LFB11:
  26              		.file 1 "../../test/testbmk.c"
  27              		.loc 1 158 0
  28              		.cfi_startproc
  29              		@ args = 0, pretend = 0, frame = 0
  30              		@ frame_needed = 0, uses_anonymous_args = 0
  31              		@ link register save eliminated.
  32              	.LVL0:
  33              		.loc 1 161 0
  34 0000 7047     		bx	lr
  35              		.cfi_endproc
  36              	.LFE11:
  37              		.size	thread2, .-thread2
  38 0002 00BFAFF3 		.section	.text.tmo,"ax",%progbits
  38      0080AFF3 
  38      0080AFF3 
  38      0080
  39              		.align	2
  40              		.p2align 4,,15
  41              		.thumb
  42              		.thumb_func
  43              		.type	tmo, %function
  44              	tmo:
  45              	.LFB23:
  46              		.loc 1 504 0
  47              		.cfi_startproc
  48              		@ args = 0, pretend = 0, frame = 0
  49              		@ frame_needed = 0, uses_anonymous_args = 0
  50              		@ link register save eliminated.
  51              	.LVL1:
  52              		.loc 1 504 0
  53 0000 7047     		bx	lr
  54              		.cfi_endproc
ARM GAS  C:\Users\TAISIK~1\AppData\Local\Temp\ccW1qhwC.s 			page 2


  55              	.LFE23:
  56              		.size	tmo, .-tmo
  57 0002 00BFAFF3 		.section	.text.bmk13_execute,"ax",%progbits
  57      0080AFF3 
  57      0080AFF3 
  57      0080
  58              		.align	2
  59              		.p2align 4,,15
  60              		.thumb
  61              		.thumb_func
  62              		.type	bmk13_execute, %function
  63              	bmk13_execute:
  64              	.LFB29:
  65              		.loc 1 637 0
  66              		.cfi_startproc
  67              		@ args = 0, pretend = 0, frame = 0
  68              		@ frame_needed = 0, uses_anonymous_args = 0
  69              		.loc 1 639 0
  70 0000 40F20000 		movw	r0, #:lower16:.LC0
  71              		.loc 1 637 0
  72 0004 10B5     		push	{r4, lr}
  73              	.LCFI0:
  74              		.cfi_def_cfa_offset 8
  75              		.cfi_offset 14, -4
  76              		.cfi_offset 4, -8
  77              		.loc 1 639 0
  78 0006 C0F20000 		movt	r0, #:upper16:.LC0
  79              		.loc 1 645 0
  80 000a 40F20004 		movw	r4, #:lower16:.LC1
  81 000e C0F20004 		movt	r4, #:upper16:.LC1
  82              		.loc 1 639 0
  83 0012 FFF7FEFF 		bl	test_print
  84              		.loc 1 640 0
  85 0016 4FF4CA70 		mov	r0, #404
  86 001a FFF7FEFF 		bl	test_printn
  87              		.loc 1 645 0
  88 001e 2046     		mov	r0, r4
  89 0020 FFF7FEFF 		bl	test_println
  90              		.loc 1 646 0
  91 0024 40F20000 		movw	r0, #:lower16:.LC2
  92 0028 C0F20000 		movt	r0, #:upper16:.LC2
  93 002c FFF7FEFF 		bl	test_print
  94              		.loc 1 647 0
  95 0030 4820     		movs	r0, #72
  96 0032 FFF7FEFF 		bl	test_printn
  97              		.loc 1 648 0
  98 0036 2046     		mov	r0, r4
  99 0038 FFF7FEFF 		bl	test_println
 100              		.loc 1 649 0
 101 003c 40F20000 		movw	r0, #:lower16:.LC3
 102 0040 C0F20000 		movt	r0, #:upper16:.LC3
 103 0044 FFF7FEFF 		bl	test_print
 104              		.loc 1 650 0
 105 0048 1420     		movs	r0, #20
 106 004a FFF7FEFF 		bl	test_printn
 107              		.loc 1 651 0
 108 004e 2046     		mov	r0, r4
ARM GAS  C:\Users\TAISIK~1\AppData\Local\Temp\ccW1qhwC.s 			page 3


 109 0050 FFF7FEFF 		bl	test_println
 110              		.loc 1 652 0
 111 0054 40F20000 		movw	r0, #:lower16:.LC4
 112 0058 C0F20000 		movt	r0, #:upper16:.LC4
 113 005c FFF7FEFF 		bl	test_print
 114              		.loc 1 653 0
 115 0060 0C20     		movs	r0, #12
 116 0062 FFF7FEFF 		bl	test_printn
 117              		.loc 1 654 0
 118 0066 2046     		mov	r0, r4
 119 0068 FFF7FEFF 		bl	test_println
 120              		.loc 1 656 0
 121 006c 40F20000 		movw	r0, #:lower16:.LC5
 122 0070 C0F20000 		movt	r0, #:upper16:.LC5
 123 0074 FFF7FEFF 		bl	test_print
 124              		.loc 1 657 0
 125 0078 0420     		movs	r0, #4
 126 007a FFF7FEFF 		bl	test_printn
 127              		.loc 1 658 0
 128 007e 2046     		mov	r0, r4
 129 0080 FFF7FEFF 		bl	test_println
 130              		.loc 1 659 0
 131 0084 40F20000 		movw	r0, #:lower16:.LC6
 132 0088 C0F20000 		movt	r0, #:upper16:.LC6
 133 008c FFF7FEFF 		bl	test_print
 134              		.loc 1 660 0
 135 0090 1020     		movs	r0, #16
 136 0092 FFF7FEFF 		bl	test_printn
 137              		.loc 1 661 0
 138 0096 2046     		mov	r0, r4
 139 0098 FFF7FEFF 		bl	test_println
 140              		.loc 1 664 0
 141 009c 40F20000 		movw	r0, #:lower16:.LC7
 142 00a0 C0F20000 		movt	r0, #:upper16:.LC7
 143 00a4 FFF7FEFF 		bl	test_print
 144              		.loc 1 665 0
 145 00a8 1020     		movs	r0, #16
 146 00aa FFF7FEFF 		bl	test_printn
 147              		.loc 1 666 0
 148 00ae 2046     		mov	r0, r4
 149 00b0 FFF7FEFF 		bl	test_println
 150              		.loc 1 669 0
 151 00b4 40F20000 		movw	r0, #:lower16:.LC8
 152 00b8 C0F20000 		movt	r0, #:upper16:.LC8
 153 00bc FFF7FEFF 		bl	test_print
 154              		.loc 1 670 0
 155 00c0 0820     		movs	r0, #8
 156 00c2 FFF7FEFF 		bl	test_printn
 157              		.loc 1 671 0
 158 00c6 2046     		mov	r0, r4
 159 00c8 FFF7FEFF 		bl	test_println
 160              		.loc 1 674 0
 161 00cc 40F20000 		movw	r0, #:lower16:.LC9
 162 00d0 C0F20000 		movt	r0, #:upper16:.LC9
 163 00d4 FFF7FEFF 		bl	test_print
 164              		.loc 1 675 0
 165 00d8 2420     		movs	r0, #36
ARM GAS  C:\Users\TAISIK~1\AppData\Local\Temp\ccW1qhwC.s 			page 4


 166 00da FFF7FEFF 		bl	test_printn
 167              		.loc 1 676 0
 168 00de 2046     		mov	r0, r4
 169 00e0 FFF7FEFF 		bl	test_println
 170              		.loc 1 679 0
 171 00e4 40F20000 		movw	r0, #:lower16:.LC10
 172 00e8 C0F20000 		movt	r0, #:upper16:.LC10
 173 00ec FFF7FEFF 		bl	test_print
 174              		.loc 1 680 0
 175 00f0 2820     		movs	r0, #40
 176 00f2 FFF7FEFF 		bl	test_printn
 177              		.loc 1 681 0
 178 00f6 2046     		mov	r0, r4
 179              		.loc 1 683 0
 180 00f8 BDE81040 		pop	{r4, lr}
 181              		.loc 1 681 0
 182 00fc FFF7FEBF 		b	test_println
 183              		.cfi_endproc
 184              	.LFE29:
 185              		.size	bmk13_execute, .-bmk13_execute
 186              		.section	.text.bmk12_execute,"ax",%progbits
 187              		.align	2
 188              		.p2align 4,,15
 189              		.thumb
 190              		.thumb_func
 191              		.type	bmk12_execute, %function
 192              	bmk12_execute:
 193              	.LFB28:
 194              		.loc 1 598 0
 195              		.cfi_startproc
 196              		@ args = 0, pretend = 0, frame = 0
 197              		@ frame_needed = 0, uses_anonymous_args = 0
 198              	.LVL2:
 199 0000 38B5     		push	{r3, r4, r5, lr}
 200              	.LCFI1:
 201              		.cfi_def_cfa_offset 16
 202              		.cfi_offset 14, -4
 203              		.cfi_offset 5, -8
 204              		.cfi_offset 4, -12
 205              		.cfi_offset 3, -16
 206              		.loc 1 601 0
 207 0002 FFF7FEFF 		bl	test_wait_tick
 208              		.loc 1 602 0
 209 0006 4FF47A70 		mov	r0, #1000
 210 000a FFF7FEFF 		bl	test_start_timer
 211 000e 124D     		ldr	r5, .L8
 212              		.loc 1 599 0
 213 0010 0024     		movs	r4, #0
 214              	.LVL3:
 215              	.L5:
 216              		.loc 1 604 0 discriminator 1
 217 0012 1248     		ldr	r0, .L8+4
 218 0014 FFF7FEFF 		bl	chMtxLock
 219              		.loc 1 605 0 discriminator 1
 220 0018 FFF7FEFF 		bl	chMtxUnlock
 221              		.loc 1 606 0 discriminator 1
 222 001c 0F48     		ldr	r0, .L8+4
ARM GAS  C:\Users\TAISIK~1\AppData\Local\Temp\ccW1qhwC.s 			page 5


 223 001e FFF7FEFF 		bl	chMtxLock
 224              		.loc 1 607 0 discriminator 1
 225 0022 FFF7FEFF 		bl	chMtxUnlock
 226              		.loc 1 608 0 discriminator 1
 227 0026 0D48     		ldr	r0, .L8+4
 228 0028 FFF7FEFF 		bl	chMtxLock
 229              		.loc 1 609 0 discriminator 1
 230 002c FFF7FEFF 		bl	chMtxUnlock
 231              		.loc 1 610 0 discriminator 1
 232 0030 0A48     		ldr	r0, .L8+4
 233 0032 FFF7FEFF 		bl	chMtxLock
 234              		.loc 1 611 0 discriminator 1
 235 0036 FFF7FEFF 		bl	chMtxUnlock
 236              		.loc 1 616 0 discriminator 1
 237 003a 2B78     		ldrb	r3, [r5, #0]	@ zero_extendqisi2
 238              		.loc 1 612 0 discriminator 1
 239 003c 0134     		adds	r4, r4, #1
 240              	.LVL4:
 241              		.loc 1 616 0 discriminator 1
 242 003e 002B     		cmp	r3, #0
 243 0040 E7D0     		beq	.L5
 244              		.loc 1 617 0
 245 0042 0748     		ldr	r0, .L8+8
 246 0044 FFF7FEFF 		bl	test_print
 247              		.loc 1 618 0
 248 0048 A000     		lsls	r0, r4, #2
 249 004a FFF7FEFF 		bl	test_printn
 250              		.loc 1 619 0
 251 004e 0548     		ldr	r0, .L8+12
 252              		.loc 1 620 0
 253 0050 BDE83840 		pop	{r3, r4, r5, lr}
 254              		.loc 1 619 0
 255 0054 FFF7FEBF 		b	test_println
 256              	.L9:
 257              		.align	2
 258              	.L8:
 259 0058 00000000 		.word	test_timer_done
 260 005c 00000000 		.word	.LANCHOR0
 261 0060 A8000000 		.word	.LC11
 262 0064 B8000000 		.word	.LC12
 263              		.cfi_endproc
 264              	.LFE28:
 265              		.size	bmk12_execute, .-bmk12_execute
 266 0068 AFF30080 		.section	.text.bmk12_setup,"ax",%progbits
 266      AFF30080 
 267              		.align	2
 268              		.p2align 4,,15
 269              		.thumb
 270              		.thumb_func
 271              		.type	bmk12_setup, %function
 272              	bmk12_setup:
 273              	.LFB27:
 274              		.loc 1 593 0
 275              		.cfi_startproc
 276              		@ args = 0, pretend = 0, frame = 0
 277              		@ frame_needed = 0, uses_anonymous_args = 0
 278              		@ link register save eliminated.
ARM GAS  C:\Users\TAISIK~1\AppData\Local\Temp\ccW1qhwC.s 			page 6


 279              		.loc 1 595 0
 280 0000 40F20000 		movw	r0, #:lower16:.LANCHOR0
 281 0004 C0F20000 		movt	r0, #:upper16:.LANCHOR0
 282              		.loc 1 596 0
 283              		.loc 1 595 0
 284 0008 FFF7FEBF 		b	chMtxInit
 285              		.cfi_endproc
 286              	.LFE27:
 287              		.size	bmk12_setup, .-bmk12_setup
 288 000c AFF30080 		.section	.text.thread3,"ax",%progbits
 289              		.align	2
 290              		.p2align 4,,15
 291              		.thumb
 292              		.thumb_func
 293              		.type	thread3, %function
 294              	thread3:
 295              	.LFB17:
 296              		.loc 1 345 0
 297              		.cfi_startproc
 298              		@ args = 0, pretend = 0, frame = 0
 299              		@ frame_needed = 0, uses_anonymous_args = 0
 300              	.LVL5:
 301 0000 10B5     		push	{r4, lr}
 302              	.LCFI2:
 303              		.cfi_def_cfa_offset 8
 304              		.cfi_offset 14, -4
 305              		.cfi_offset 4, -8
 306              		.loc 1 348 0
 307 0002 074C     		ldr	r4, .L16
 308 0004 A069     		ldr	r0, [r4, #24]
 309              	.LVL6:
 310 0006 437F     		ldrb	r3, [r0, #29]	@ zero_extendqisi2
 311 0008 5A07     		lsls	r2, r3, #29
 312 000a 06D4     		bmi	.L12
 313              	.L14:
 314              		.loc 1 349 0
 315 000c 0548     		ldr	r0, .L16+4
 316 000e FFF7FEFF 		bl	chSemWait
 317              		.loc 1 348 0
 318 0012 A269     		ldr	r2, [r4, #24]
 319 0014 517F     		ldrb	r1, [r2, #29]	@ zero_extendqisi2
 320 0016 4B07     		lsls	r3, r1, #29
 321 0018 F8D5     		bpl	.L14
 322              	.L12:
 323              		.loc 1 351 0
 324 001a 0020     		movs	r0, #0
 325 001c 10BD     		pop	{r4, pc}
 326              	.L17:
 327 001e 00BF     		.align	2
 328              	.L16:
 329 0020 00000000 		.word	rlist
 330 0024 00000000 		.word	.LANCHOR1
 331              		.cfi_endproc
 332              	.LFE17:
 333              		.size	thread3, .-thread3
 334              		.section	.text.bmk11_execute,"ax",%progbits
 335              		.align	2
ARM GAS  C:\Users\TAISIK~1\AppData\Local\Temp\ccW1qhwC.s 			page 7


 336              		.p2align 4,,15
 337              		.thumb
 338              		.thumb_func
 339              		.type	bmk11_execute, %function
 340              	bmk11_execute:
 341              	.LFB26:
 342              		.loc 1 551 0
 343              		.cfi_startproc
 344              		@ args = 0, pretend = 0, frame = 0
 345              		@ frame_needed = 0, uses_anonymous_args = 0
 346              	.LVL7:
 347 0000 38B5     		push	{r3, r4, r5, lr}
 348              	.LCFI3:
 349              		.cfi_def_cfa_offset 16
 350              		.cfi_offset 14, -4
 351              		.cfi_offset 5, -8
 352              		.cfi_offset 4, -12
 353              		.cfi_offset 3, -16
 354              		.loc 1 554 0
 355 0002 FFF7FEFF 		bl	test_wait_tick
 356              		.loc 1 555 0
 357 0006 4FF47A70 		mov	r0, #1000
 358 000a FFF7FEFF 		bl	test_start_timer
 359 000e 144D     		ldr	r5, .L21
 360              		.loc 1 552 0
 361 0010 0024     		movs	r4, #0
 362              	.LVL8:
 363              	.L19:
 364              		.loc 1 557 0 discriminator 1
 365 0012 1448     		ldr	r0, .L21+4
 366 0014 FFF7FEFF 		bl	chSemWait
 367              		.loc 1 558 0 discriminator 1
 368 0018 1248     		ldr	r0, .L21+4
 369 001a FFF7FEFF 		bl	chSemSignal
 370              		.loc 1 559 0 discriminator 1
 371 001e 1148     		ldr	r0, .L21+4
 372 0020 FFF7FEFF 		bl	chSemWait
 373              		.loc 1 560 0 discriminator 1
 374 0024 0F48     		ldr	r0, .L21+4
 375 0026 FFF7FEFF 		bl	chSemSignal
 376              		.loc 1 561 0 discriminator 1
 377 002a 0E48     		ldr	r0, .L21+4
 378 002c FFF7FEFF 		bl	chSemWait
 379              		.loc 1 562 0 discriminator 1
 380 0030 0C48     		ldr	r0, .L21+4
 381 0032 FFF7FEFF 		bl	chSemSignal
 382              		.loc 1 563 0 discriminator 1
 383 0036 0B48     		ldr	r0, .L21+4
 384 0038 FFF7FEFF 		bl	chSemWait
 385              		.loc 1 564 0 discriminator 1
 386 003c 0948     		ldr	r0, .L21+4
 387 003e FFF7FEFF 		bl	chSemSignal
 388              		.loc 1 569 0 discriminator 1
 389 0042 2B78     		ldrb	r3, [r5, #0]	@ zero_extendqisi2
 390              		.loc 1 565 0 discriminator 1
 391 0044 0134     		adds	r4, r4, #1
 392              	.LVL9:
ARM GAS  C:\Users\TAISIK~1\AppData\Local\Temp\ccW1qhwC.s 			page 8


 393              		.loc 1 569 0 discriminator 1
 394 0046 002B     		cmp	r3, #0
 395 0048 E3D0     		beq	.L19
 396              		.loc 1 570 0
 397 004a 0748     		ldr	r0, .L21+8
 398 004c FFF7FEFF 		bl	test_print
 399              		.loc 1 571 0
 400 0050 A000     		lsls	r0, r4, #2
 401 0052 FFF7FEFF 		bl	test_printn
 402              		.loc 1 572 0
 403 0056 0548     		ldr	r0, .L21+12
 404              		.loc 1 573 0
 405 0058 BDE83840 		pop	{r3, r4, r5, lr}
 406              		.loc 1 572 0
 407 005c FFF7FEBF 		b	test_println
 408              	.L22:
 409              		.align	2
 410              	.L21:
 411 0060 00000000 		.word	test_timer_done
 412 0064 00000000 		.word	.LANCHOR1
 413 0068 A8000000 		.word	.LC11
 414 006c C8000000 		.word	.LC13
 415              		.cfi_endproc
 416              	.LFE26:
 417              		.size	bmk11_execute, .-bmk11_execute
 418              		.section	.text.bmk11_setup,"ax",%progbits
 419              		.align	2
 420              		.p2align 4,,15
 421              		.thumb
 422              		.thumb_func
 423              		.type	bmk11_setup, %function
 424              	bmk11_setup:
 425              	.LFB25:
 426              		.loc 1 546 0
 427              		.cfi_startproc
 428              		@ args = 0, pretend = 0, frame = 0
 429              		@ frame_needed = 0, uses_anonymous_args = 0
 430              		@ link register save eliminated.
 431              		.loc 1 548 0
 432 0000 40F20000 		movw	r0, #:lower16:.LANCHOR1
 433 0004 C0F20000 		movt	r0, #:upper16:.LANCHOR1
 434 0008 0121     		movs	r1, #1
 435              		.loc 1 549 0
 436              		.loc 1 548 0
 437 000a FFF7FEBF 		b	chSemInit
 438              		.cfi_endproc
 439              	.LFE25:
 440              		.size	bmk11_setup, .-bmk11_setup
 441 000e 00BF     		.section	.text.bmk7_setup,"ax",%progbits
 442              		.align	2
 443              		.p2align 4,,15
 444              		.thumb
 445              		.thumb_func
 446              		.type	bmk7_setup, %function
 447              	bmk7_setup:
 448              	.LFB18:
 449              		.loc 1 353 0
ARM GAS  C:\Users\TAISIK~1\AppData\Local\Temp\ccW1qhwC.s 			page 9


 450              		.cfi_startproc
 451              		@ args = 0, pretend = 0, frame = 0
 452              		@ frame_needed = 0, uses_anonymous_args = 0
 453              		@ link register save eliminated.
 454              		.loc 1 355 0
 455 0000 40F20000 		movw	r0, #:lower16:.LANCHOR1
 456 0004 C0F20000 		movt	r0, #:upper16:.LANCHOR1
 457 0008 0021     		movs	r1, #0
 458              		.loc 1 356 0
 459              		.loc 1 355 0
 460 000a FFF7FEBF 		b	chSemInit
 461              		.cfi_endproc
 462              	.LFE18:
 463              		.size	bmk7_setup, .-bmk7_setup
 464 000e 00BF     		.section	.text.bmk10_execute,"ax",%progbits
 465              		.align	2
 466              		.p2align 4,,15
 467              		.thumb
 468              		.thumb_func
 469              		.type	bmk10_execute, %function
 470              	bmk10_execute:
 471              	.LFB24:
 472              		.loc 1 506 0
 473              		.cfi_startproc
 474              		@ args = 0, pretend = 0, frame = 0
 475              		@ frame_needed = 0, uses_anonymous_args = 0
 476              	.LVL10:
 477 0000 38B5     		push	{r3, r4, r5, lr}
 478              	.LCFI4:
 479              		.cfi_def_cfa_offset 16
 480              		.cfi_offset 14, -4
 481              		.cfi_offset 5, -8
 482              		.cfi_offset 4, -12
 483              		.cfi_offset 3, -16
 484              		.loc 1 510 0
 485 0002 FFF7FEFF 		bl	test_wait_tick
 486              		.loc 1 511 0
 487 0006 4FF47A70 		mov	r0, #1000
 488 000a FFF7FEFF 		bl	test_start_timer
 489 000e 154D     		ldr	r5, .L28
 490              		.loc 1 508 0
 491 0010 0024     		movs	r4, #0
 492              	.LVL11:
 493              	.L26:
 494              	.LBB2:
 495              		.loc 1 513 0 discriminator 1
 496 0012 2023     		movs	r3, #32
 497              	.LVL12:
 498              	@ 513 "../../test/testbmk.c" 1
 499 0014 83F31188 		msr     BASEPRI, r3
 500              	@ 0 "" 2
 501              	.LVL13:
 502              		.thumb
 503              	.LBE2:
 504              		.loc 1 514 0 discriminator 1
 505 0018 0121     		movs	r1, #1
 506 001a 0023     		movs	r3, #0
ARM GAS  C:\Users\TAISIK~1\AppData\Local\Temp\ccW1qhwC.s 			page 10


 507              	.LVL14:
 508 001c 1248     		ldr	r0, .L28+4
 509 001e 134A     		ldr	r2, .L28+8
 510 0020 FFF7FEFF 		bl	chVTSetI
 511              		.loc 1 515 0 discriminator 1
 512 0024 0023     		movs	r3, #0
 513 0026 42F21071 		movw	r1, #10000
 514 002a 104A     		ldr	r2, .L28+8
 515 002c 1048     		ldr	r0, .L28+12
 516 002e FFF7FEFF 		bl	chVTSetI
 517              		.loc 1 516 0 discriminator 1
 518 0032 0D48     		ldr	r0, .L28+4
 519 0034 FFF7FEFF 		bl	chVTResetI
 520              		.loc 1 517 0 discriminator 1
 521 0038 0D48     		ldr	r0, .L28+12
 522 003a FFF7FEFF 		bl	chVTResetI
 523              	.LBB3:
 524              		.loc 1 518 0 discriminator 1
 525 003e 0023     		movs	r3, #0
 526              	.LVL15:
 527              	@ 518 "../../test/testbmk.c" 1
 528 0040 83F31188 		msr     BASEPRI, r3
 529              	@ 0 "" 2
 530              	.LVL16:
 531              		.thumb
 532              	.LBE3:
 533              		.loc 1 523 0 discriminator 1
 534 0044 2B78     		ldrb	r3, [r5, #0]	@ zero_extendqisi2
 535              	.LVL17:
 536              		.loc 1 519 0 discriminator 1
 537 0046 0134     		adds	r4, r4, #1
 538              	.LVL18:
 539              		.loc 1 523 0 discriminator 1
 540 0048 002B     		cmp	r3, #0
 541 004a E2D0     		beq	.L26
 542              		.loc 1 524 0
 543 004c 0948     		ldr	r0, .L28+16
 544 004e FFF7FEFF 		bl	test_print
 545              		.loc 1 525 0
 546 0052 6000     		lsls	r0, r4, #1
 547 0054 FFF7FEFF 		bl	test_printn
 548              		.loc 1 526 0
 549 0058 0748     		ldr	r0, .L28+20
 550              		.loc 1 527 0
 551 005a BDE83840 		pop	{r3, r4, r5, lr}
 552              		.loc 1 526 0
 553 005e FFF7FEBF 		b	test_println
 554              	.L29:
 555 0062 00BF     		.align	2
 556              	.L28:
 557 0064 00000000 		.word	test_timer_done
 558 0068 00000000 		.word	.LANCHOR2
 559 006c 00000000 		.word	tmo
 560 0070 00000000 		.word	.LANCHOR3
 561 0074 A8000000 		.word	.LC11
 562 0078 D8000000 		.word	.LC14
 563              		.cfi_endproc
ARM GAS  C:\Users\TAISIK~1\AppData\Local\Temp\ccW1qhwC.s 			page 11


 564              	.LFE24:
 565              		.size	bmk10_execute, .-bmk10_execute
 566 007c AFF30080 		.section	.text.bmk9_execute,"ax",%progbits
 567              		.align	2
 568              		.p2align 4,,15
 569              		.thumb
 570              		.thumb_func
 571              		.type	bmk9_execute, %function
 572              	bmk9_execute:
 573              	.LFB22:
 574              		.loc 1 458 0
 575              		.cfi_startproc
 576              		@ args = 0, pretend = 0, frame = 0
 577              		@ frame_needed = 0, uses_anonymous_args = 0
 578 0000 30B5     		push	{r4, r5, lr}
 579              	.LCFI5:
 580              		.cfi_def_cfa_offset 12
 581              		.cfi_offset 14, -4
 582              		.cfi_offset 5, -8
 583              		.cfi_offset 4, -12
 584              		.loc 1 463 0
 585 0002 0024     		movs	r4, #0
 586              		.loc 1 458 0
 587 0004 83B0     		sub	sp, sp, #12
 588              	.LCFI6:
 589              		.cfi_def_cfa_offset 24
 590              		.loc 1 463 0
 591 0006 2449     		ldr	r1, .L33
 592 0008 2448     		ldr	r0, .L33+4
 593 000a 0094     		str	r4, [sp, #0]
 594 000c 1022     		movs	r2, #16
 595 000e 2346     		mov	r3, r4
 596 0010 FFF7FEFF 		bl	chIQInit
 597              	.LVL19:
 598              		.loc 1 465 0
 599 0014 FFF7FEFF 		bl	test_wait_tick
 600              		.loc 1 466 0
 601 0018 4FF47A70 		mov	r0, #1000
 602 001c FFF7FEFF 		bl	test_start_timer
 603 0020 1F4D     		ldr	r5, .L33+8
 604              	.LVL20:
 605              	.L31:
 606              	.LBB4:
 607              		.loc 1 468 0 discriminator 1
 608 0022 2023     		movs	r3, #32
 609              	.LVL21:
 610              	@ 468 "../../test/testbmk.c" 1
 611 0024 83F31188 		msr     BASEPRI, r3
 612              	@ 0 "" 2
 613              	.LVL22:
 614              		.thumb
 615              	.LBE4:
 616              		.loc 1 469 0 discriminator 1
 617 0028 0021     		movs	r1, #0
 618 002a 1C48     		ldr	r0, .L33+4
 619 002c FFF7FEFF 		bl	chIQPutI
 620              	.LVL23:
ARM GAS  C:\Users\TAISIK~1\AppData\Local\Temp\ccW1qhwC.s 			page 12


 621              		.loc 1 470 0 discriminator 1
 622 0030 0121     		movs	r1, #1
 623 0032 1A48     		ldr	r0, .L33+4
 624 0034 FFF7FEFF 		bl	chIQPutI
 625              		.loc 1 471 0 discriminator 1
 626 0038 0221     		movs	r1, #2
 627 003a 1848     		ldr	r0, .L33+4
 628 003c FFF7FEFF 		bl	chIQPutI
 629              		.loc 1 472 0 discriminator 1
 630 0040 0321     		movs	r1, #3
 631 0042 1648     		ldr	r0, .L33+4
 632 0044 FFF7FEFF 		bl	chIQPutI
 633              	.LBB5:
 634              		.loc 1 473 0 discriminator 1
 635 0048 0023     		movs	r3, #0
 636              	.LVL24:
 637              	@ 473 "../../test/testbmk.c" 1
 638 004a 83F31188 		msr     BASEPRI, r3
 639              	@ 0 "" 2
 640              	.LVL25:
 641              		.thumb
 642              	.LBE5:
 643              		.loc 1 474 0 discriminator 1
 644 004e 4FF0FF31 		mov	r1, #-1
 645 0052 1248     		ldr	r0, .L33+4
 646 0054 FFF7FEFF 		bl	chIQGetTimeout
 647              	.LVL26:
 648              		.loc 1 475 0 discriminator 1
 649 0058 4FF0FF31 		mov	r1, #-1
 650 005c 0F48     		ldr	r0, .L33+4
 651 005e FFF7FEFF 		bl	chIQGetTimeout
 652              		.loc 1 476 0 discriminator 1
 653 0062 4FF0FF31 		mov	r1, #-1
 654 0066 0D48     		ldr	r0, .L33+4
 655 0068 FFF7FEFF 		bl	chIQGetTimeout
 656              		.loc 1 477 0 discriminator 1
 657 006c 0B48     		ldr	r0, .L33+4
 658 006e 4FF0FF31 		mov	r1, #-1
 659 0072 FFF7FEFF 		bl	chIQGetTimeout
 660              		.loc 1 482 0 discriminator 1
 661 0076 2B78     		ldrb	r3, [r5, #0]	@ zero_extendqisi2
 662              		.loc 1 478 0 discriminator 1
 663 0078 0134     		adds	r4, r4, #1
 664              	.LVL27:
 665              		.loc 1 482 0 discriminator 1
 666 007a 002B     		cmp	r3, #0
 667 007c D1D0     		beq	.L31
 668              		.loc 1 483 0
 669 007e 0948     		ldr	r0, .L33+12
 670 0080 FFF7FEFF 		bl	test_print
 671              		.loc 1 484 0
 672 0084 A000     		lsls	r0, r4, #2
 673 0086 FFF7FEFF 		bl	test_printn
 674              		.loc 1 485 0
 675 008a 0748     		ldr	r0, .L33+16
 676              		.loc 1 486 0
 677 008c 03B0     		add	sp, sp, #12
ARM GAS  C:\Users\TAISIK~1\AppData\Local\Temp\ccW1qhwC.s 			page 13


 678 008e BDE83040 		pop	{r4, r5, lr}
 679              		.loc 1 485 0
 680 0092 FFF7FEBF 		b	test_println
 681              	.L34:
 682 0096 00BF     		.align	2
 683              	.L33:
 684 0098 00000000 		.word	.LANCHOR5
 685 009c 00000000 		.word	.LANCHOR4
 686 00a0 00000000 		.word	test_timer_done
 687 00a4 A8000000 		.word	.LC11
 688 00a8 E4000000 		.word	.LC15
 689              		.cfi_endproc
 690              	.LFE22:
 691              		.size	bmk9_execute, .-bmk9_execute
 692 00ac AFF30080 		.section	.text.bmk6_execute,"ax",%progbits
 693              		.align	2
 694              		.p2align 4,,15
 695              		.thumb
 696              		.thumb_func
 697              		.type	bmk6_execute, %function
 698              	bmk6_execute:
 699              	.LFB16:
 700              		.loc 1 308 0
 701              		.cfi_startproc
 702              		@ args = 0, pretend = 0, frame = 0
 703              		@ frame_needed = 0, uses_anonymous_args = 0
 704              	.LVL28:
 705 0000 2DE9F041 		push	{r4, r5, r6, r7, r8, lr}
 706              	.LCFI7:
 707              		.cfi_def_cfa_offset 24
 708              		.cfi_offset 14, -4
 709              		.cfi_offset 8, -8
 710              		.cfi_offset 7, -12
 711              		.cfi_offset 6, -16
 712              		.cfi_offset 5, -20
 713              		.cfi_offset 4, -24
 714              		.loc 1 312 0
 715 0004 1448     		ldr	r0, .L38
 716              		.loc 1 311 0
 717 0006 154A     		ldr	r2, .L38+4
 718              		.loc 1 312 0
 719 0008 8369     		ldr	r3, [r0, #24]
 720              		.loc 1 311 0
 721 000a D2F80080 		ldr	r8, [r2, #0]
 722              	.LVL29:
 723              		.loc 1 312 0
 724 000e 9E68     		ldr	r6, [r3, #8]
 725 0010 134F     		ldr	r7, .L38+8
 726              		.loc 1 308 0
 727 0012 82B0     		sub	sp, sp, #8
 728              	.LCFI8:
 729              		.cfi_def_cfa_offset 32
 730              		.loc 1 313 0
 731 0014 FFF7FEFF 		bl	test_wait_tick
 732              	.LVL30:
 733              		.loc 1 314 0
 734 0018 4FF47A70 		mov	r0, #1000
ARM GAS  C:\Users\TAISIK~1\AppData\Local\Temp\ccW1qhwC.s 			page 14


 735 001c FFF7FEFF 		bl	test_start_timer
 736              		.loc 1 310 0
 737 0020 0024     		movs	r4, #0
 738              		.loc 1 312 0
 739 0022 0136     		adds	r6, r6, #1
 740              	.LVL31:
 741              		.loc 1 316 0
 742 0024 2546     		mov	r5, r4
 743              	.LVL32:
 744              	.L36:
 745              		.loc 1 316 0 is_stmt 0 discriminator 1
 746 0026 4FF49871 		mov	r1, #304
 747 002a 4046     		mov	r0, r8
 748 002c 3246     		mov	r2, r6
 749 002e 0D4B     		ldr	r3, .L38+12
 750 0030 0095     		str	r5, [sp, #0]
 751 0032 FFF7FEFF 		bl	chThdCreateStatic
 752              		.loc 1 321 0 is_stmt 1 discriminator 1
 753 0036 3978     		ldrb	r1, [r7, #0]	@ zero_extendqisi2
 754              		.loc 1 317 0 discriminator 1
 755 0038 0134     		adds	r4, r4, #1
 756              	.LVL33:
 757              		.loc 1 321 0 discriminator 1
 758 003a 0029     		cmp	r1, #0
 759 003c F3D0     		beq	.L36
 760              		.loc 1 322 0
 761 003e 0A48     		ldr	r0, .L38+16
 762 0040 FFF7FEFF 		bl	test_print
 763              		.loc 1 323 0
 764 0044 2046     		mov	r0, r4
 765 0046 FFF7FEFF 		bl	test_printn
 766              		.loc 1 324 0
 767 004a 0848     		ldr	r0, .L38+20
 768              		.loc 1 325 0
 769 004c 02B0     		add	sp, sp, #8
 770 004e BDE8F041 		pop	{r4, r5, r6, r7, r8, lr}
 771              		.loc 1 324 0
 772 0052 FFF7FEBF 		b	test_println
 773              	.L39:
 774 0056 00BF     		.align	2
 775              	.L38:
 776 0058 00000000 		.word	rlist
 777 005c 00000000 		.word	wa
 778 0060 00000000 		.word	test_timer_done
 779 0064 00000000 		.word	thread2
 780 0068 A8000000 		.word	.LC11
 781 006c F0000000 		.word	.LC16
 782              		.cfi_endproc
 783              	.LFE16:
 784              		.size	bmk6_execute, .-bmk6_execute
 785              		.section	.text.bmk8_execute,"ax",%progbits
 786              		.align	2
 787              		.p2align 4,,15
 788              		.thumb
 789              		.thumb_func
 790              		.type	bmk8_execute, %function
 791              	bmk8_execute:
ARM GAS  C:\Users\TAISIK~1\AppData\Local\Temp\ccW1qhwC.s 			page 15


 792              	.LFB21:
 793              		.loc 1 420 0
 794              		.cfi_startproc
 795              		@ args = 0, pretend = 0, frame = 8
 796              		@ frame_needed = 0, uses_anonymous_args = 0
 797 0000 2DE9F041 		push	{r4, r5, r6, r7, r8, lr}
 798              	.LCFI9:
 799              		.cfi_def_cfa_offset 24
 800              		.cfi_offset 14, -4
 801              		.cfi_offset 8, -8
 802              		.cfi_offset 7, -12
 803              		.cfi_offset 6, -16
 804              		.cfi_offset 5, -20
 805              		.cfi_offset 4, -24
 806              		.loc 1 426 0
 807 0004 40F20007 		movw	r7, #:lower16:rlist
 808              		.loc 1 420 0
 809 0008 84B0     		sub	sp, sp, #16
 810              	.LCFI10:
 811              		.cfi_def_cfa_offset 40
 812              		.loc 1 423 0
 813 000a 04AC     		add	r4, sp, #16
 814              		.loc 1 426 0
 815 000c C0F20007 		movt	r7, #:upper16:rlist
 816              		.loc 1 423 0
 817 0010 0025     		movs	r5, #0
 818 0012 44F8045D 		str	r5, [r4, #-4]!
 819              	.LVL34:
 820              		.loc 1 424 0
 821 0016 FFF7FEFF 		bl	test_wait_tick
 822              		.loc 1 426 0
 823 001a B869     		ldr	r0, [r7, #24]
 824 001c 40F20006 		movw	r6, #:lower16:wa
 825 0020 C0F20006 		movt	r6, #:upper16:wa
 826 0024 8368     		ldr	r3, [r0, #8]
 827 0026 3068     		ldr	r0, [r6, #0]
 828 0028 0094     		str	r4, [sp, #0]
 829 002a 40F20005 		movw	r5, #:lower16:thread8
 830 002e C0F20005 		movt	r5, #:upper16:thread8
 831 0032 5A1E     		subs	r2, r3, #1
 832 0034 4FF49871 		mov	r1, #304
 833 0038 2B46     		mov	r3, r5
 834 003a FFF7FEFF 		bl	chThdCreateStatic
 835              		.loc 1 427 0
 836 003e B969     		ldr	r1, [r7, #24]
 837              		.loc 1 426 0
 838 0040 40F20008 		movw	r8, #:lower16:threads
 839              		.loc 1 427 0
 840 0044 8A68     		ldr	r2, [r1, #8]
 841 0046 0094     		str	r4, [sp, #0]
 842              		.loc 1 426 0
 843 0048 C0F20008 		movt	r8, #:upper16:threads
 844 004c 8646     		mov	lr, r0
 845              		.loc 1 427 0
 846 004e 013A     		subs	r2, r2, #1
 847 0050 2B46     		mov	r3, r5
 848 0052 7068     		ldr	r0, [r6, #4]
ARM GAS  C:\Users\TAISIK~1\AppData\Local\Temp\ccW1qhwC.s 			page 16


 849              		.loc 1 426 0
 850 0054 C8F800E0 		str	lr, [r8, #0]
 851              		.loc 1 427 0
 852 0058 4FF49871 		mov	r1, #304
 853 005c FFF7FEFF 		bl	chThdCreateStatic
 854              		.loc 1 428 0
 855 0060 BB69     		ldr	r3, [r7, #24]
 856 0062 9A68     		ldr	r2, [r3, #8]
 857 0064 0094     		str	r4, [sp, #0]
 858              		.loc 1 427 0
 859 0066 0146     		mov	r1, r0
 860 0068 C8F80410 		str	r1, [r8, #4]
 861              		.loc 1 428 0
 862 006c 013A     		subs	r2, r2, #1
 863 006e 2B46     		mov	r3, r5
 864 0070 B068     		ldr	r0, [r6, #8]
 865 0072 4FF49871 		mov	r1, #304
 866 0076 FFF7FEFF 		bl	chThdCreateStatic
 867              		.loc 1 429 0
 868 007a BB69     		ldr	r3, [r7, #24]
 869 007c 9A68     		ldr	r2, [r3, #8]
 870 007e 0094     		str	r4, [sp, #0]
 871              		.loc 1 428 0
 872 0080 0146     		mov	r1, r0
 873 0082 C8F80810 		str	r1, [r8, #8]
 874              		.loc 1 429 0
 875 0086 013A     		subs	r2, r2, #1
 876 0088 2B46     		mov	r3, r5
 877 008a F068     		ldr	r0, [r6, #12]
 878 008c 4FF49871 		mov	r1, #304
 879 0090 FFF7FEFF 		bl	chThdCreateStatic
 880              		.loc 1 430 0
 881 0094 BB69     		ldr	r3, [r7, #24]
 882 0096 9A68     		ldr	r2, [r3, #8]
 883 0098 0094     		str	r4, [sp, #0]
 884              		.loc 1 429 0
 885 009a 0146     		mov	r1, r0
 886              		.loc 1 430 0
 887 009c 013A     		subs	r2, r2, #1
 888              		.loc 1 429 0
 889 009e C8F80C10 		str	r1, [r8, #12]
 890              		.loc 1 430 0
 891 00a2 2B46     		mov	r3, r5
 892 00a4 4FF49871 		mov	r1, #304
 893 00a8 3069     		ldr	r0, [r6, #16]
 894 00aa FFF7FEFF 		bl	chThdCreateStatic
 895 00ae 0346     		mov	r3, r0
 896              		.loc 1 432 0
 897 00b0 4FF47A70 		mov	r0, #1000
 898              		.loc 1 430 0
 899 00b4 C8F81030 		str	r3, [r8, #16]
 900              		.loc 1 432 0
 901 00b8 FFF7FEFF 		bl	chThdSleep
 902              		.loc 1 433 0
 903 00bc FFF7FEFF 		bl	test_terminate_threads
 904              		.loc 1 434 0
 905 00c0 FFF7FEFF 		bl	test_wait_threads
ARM GAS  C:\Users\TAISIK~1\AppData\Local\Temp\ccW1qhwC.s 			page 17


 906              		.loc 1 436 0
 907 00c4 40F20000 		movw	r0, #:lower16:.LC11
 908 00c8 C0F20000 		movt	r0, #:upper16:.LC11
 909 00cc FFF7FEFF 		bl	test_print
 910              		.loc 1 437 0
 911 00d0 0398     		ldr	r0, [sp, #12]
 912 00d2 FFF7FEFF 		bl	test_printn
 913              		.loc 1 438 0
 914 00d6 40F20000 		movw	r0, #:lower16:.LC17
 915 00da C0F20000 		movt	r0, #:upper16:.LC17
 916 00de FFF7FEFF 		bl	test_println
 917              		.loc 1 439 0
 918 00e2 04B0     		add	sp, sp, #16
 919 00e4 BDE8F081 		pop	{r4, r5, r6, r7, r8, pc}
 920              		.cfi_endproc
 921              	.LFE21:
 922              		.size	bmk8_execute, .-bmk8_execute
 923 00e8 AFF30080 		.section	.text.thread8,"ax",%progbits
 923      AFF30080 
 924              		.align	2
 925              		.p2align 4,,15
 926              		.thumb
 927              		.thumb_func
 928              		.type	thread8, %function
 929              	thread8:
 930              	.LFB20:
 931              		.loc 1 405 0
 932              		.cfi_startproc
 933              		@ args = 0, pretend = 0, frame = 0
 934              		@ frame_needed = 0, uses_anonymous_args = 0
 935              	.LVL35:
 936 0000 38B5     		push	{r3, r4, r5, lr}
 937              	.LCFI11:
 938              		.cfi_def_cfa_offset 16
 939              		.cfi_offset 14, -4
 940              		.cfi_offset 5, -8
 941              		.cfi_offset 4, -12
 942              		.cfi_offset 3, -16
 943 0002 094C     		ldr	r4, .L44
 944              		.loc 1 405 0
 945 0004 0546     		mov	r5, r0
 946              	.LVL36:
 947              	.L42:
 948              		.loc 1 408 0 discriminator 1
 949 0006 FFF7FEFF 		bl	chThdYield
 950              		.loc 1 409 0 discriminator 1
 951 000a FFF7FEFF 		bl	chThdYield
 952              		.loc 1 410 0 discriminator 1
 953 000e FFF7FEFF 		bl	chThdYield
 954              		.loc 1 411 0 discriminator 1
 955 0012 FFF7FEFF 		bl	chThdYield
 956              		.loc 1 412 0 discriminator 1
 957 0016 2968     		ldr	r1, [r5, #0]
 958              		.loc 1 416 0 discriminator 1
 959 0018 A069     		ldr	r0, [r4, #24]
 960              		.loc 1 412 0 discriminator 1
 961 001a 0A1D     		adds	r2, r1, #4
ARM GAS  C:\Users\TAISIK~1\AppData\Local\Temp\ccW1qhwC.s 			page 18


 962 001c 2A60     		str	r2, [r5, #0]
 963              		.loc 1 416 0 discriminator 1
 964 001e 437F     		ldrb	r3, [r0, #29]	@ zero_extendqisi2
 965 0020 5907     		lsls	r1, r3, #29
 966 0022 F0D5     		bpl	.L42
 967              		.loc 1 418 0
 968 0024 0020     		movs	r0, #0
 969 0026 38BD     		pop	{r3, r4, r5, pc}
 970              	.L45:
 971              		.align	2
 972              	.L44:
 973 0028 00000000 		.word	rlist
 974              		.cfi_endproc
 975              	.LFE20:
 976              		.size	thread8, .-thread8
 977 002c AFF30080 		.section	.text.bmk7_execute,"ax",%progbits
 978              		.align	2
 979              		.p2align 4,,15
 980              		.thumb
 981              		.thumb_func
 982              		.type	bmk7_execute, %function
 983              	bmk7_execute:
 984              	.LFB19:
 985              		.loc 1 358 0
 986              		.cfi_startproc
 987              		@ args = 0, pretend = 0, frame = 0
 988              		@ frame_needed = 0, uses_anonymous_args = 0
 989 0000 2DE9F041 		push	{r4, r5, r6, r7, r8, lr}
 990              	.LCFI12:
 991              		.cfi_def_cfa_offset 24
 992              		.cfi_offset 14, -4
 993              		.cfi_offset 8, -8
 994              		.cfi_offset 7, -12
 995              		.cfi_offset 6, -16
 996              		.cfi_offset 5, -20
 997              		.cfi_offset 4, -24
 998              		.loc 1 361 0
 999 0004 384F     		ldr	r7, .L49
 1000 0006 394E     		ldr	r6, .L49+4
 1001 0008 BC69     		ldr	r4, [r7, #24]
 1002 000a 394B     		ldr	r3, .L49+8
 1003 000c A568     		ldr	r5, [r4, #8]
 1004 000e 3068     		ldr	r0, [r6, #0]
 1005 0010 DFF8F480 		ldr	r8, .L49+32
 1006 0014 374C     		ldr	r4, .L49+12
 1007              		.loc 1 358 0
 1008 0016 82B0     		sub	sp, sp, #8
 1009              	.LCFI13:
 1010              		.cfi_def_cfa_offset 32
 1011              		.loc 1 361 0
 1012 0018 6A1D     		adds	r2, r5, #5
 1013 001a 4FF49871 		mov	r1, #304
 1014 001e 0025     		movs	r5, #0
 1015 0020 0095     		str	r5, [sp, #0]
 1016 0022 FFF7FEFF 		bl	chThdCreateStatic
 1017              		.loc 1 362 0
 1018 0026 BB69     		ldr	r3, [r7, #24]
ARM GAS  C:\Users\TAISIK~1\AppData\Local\Temp\ccW1qhwC.s 			page 19


 1019 0028 9A68     		ldr	r2, [r3, #8]
 1020 002a 314B     		ldr	r3, .L49+8
 1021 002c 0095     		str	r5, [sp, #0]
 1022              		.loc 1 361 0
 1023 002e 0146     		mov	r1, r0
 1024 0030 C8F80010 		str	r1, [r8, #0]
 1025              		.loc 1 362 0
 1026 0034 0432     		adds	r2, r2, #4
 1027 0036 4FF49871 		mov	r1, #304
 1028 003a 7068     		ldr	r0, [r6, #4]
 1029 003c FFF7FEFF 		bl	chThdCreateStatic
 1030              		.loc 1 363 0
 1031 0040 BB69     		ldr	r3, [r7, #24]
 1032 0042 9A68     		ldr	r2, [r3, #8]
 1033 0044 2A4B     		ldr	r3, .L49+8
 1034 0046 0095     		str	r5, [sp, #0]
 1035              		.loc 1 362 0
 1036 0048 0146     		mov	r1, r0
 1037 004a C8F80410 		str	r1, [r8, #4]
 1038              		.loc 1 363 0
 1039 004e 0332     		adds	r2, r2, #3
 1040 0050 4FF49871 		mov	r1, #304
 1041 0054 B068     		ldr	r0, [r6, #8]
 1042 0056 FFF7FEFF 		bl	chThdCreateStatic
 1043              		.loc 1 364 0
 1044 005a BB69     		ldr	r3, [r7, #24]
 1045 005c 9A68     		ldr	r2, [r3, #8]
 1046 005e 244B     		ldr	r3, .L49+8
 1047 0060 0095     		str	r5, [sp, #0]
 1048              		.loc 1 363 0
 1049 0062 0146     		mov	r1, r0
 1050 0064 C8F80810 		str	r1, [r8, #8]
 1051              		.loc 1 364 0
 1052 0068 0232     		adds	r2, r2, #2
 1053 006a 4FF49871 		mov	r1, #304
 1054 006e F068     		ldr	r0, [r6, #12]
 1055 0070 FFF7FEFF 		bl	chThdCreateStatic
 1056              		.loc 1 365 0
 1057 0074 BB69     		ldr	r3, [r7, #24]
 1058 0076 9A68     		ldr	r2, [r3, #8]
 1059 0078 1D4B     		ldr	r3, .L49+8
 1060 007a 0095     		str	r5, [sp, #0]
 1061              		.loc 1 364 0
 1062 007c 0146     		mov	r1, r0
 1063 007e C8F80C10 		str	r1, [r8, #12]
 1064              		.loc 1 365 0
 1065 0082 0132     		adds	r2, r2, #1
 1066 0084 4FF49871 		mov	r1, #304
 1067 0088 3069     		ldr	r0, [r6, #16]
 1068 008a FFF7FEFF 		bl	chThdCreateStatic
 1069 008e C8F81000 		str	r0, [r8, #16]
 1070              	.LVL37:
 1071              		.loc 1 368 0
 1072 0092 FFF7FEFF 		bl	test_wait_tick
 1073              		.loc 1 369 0
 1074 0096 4FF47A70 		mov	r0, #1000
 1075 009a FFF7FEFF 		bl	test_start_timer
ARM GAS  C:\Users\TAISIK~1\AppData\Local\Temp\ccW1qhwC.s 			page 20


 1076              	.LVL38:
 1077              	.L47:
 1078              		.loc 1 371 0 discriminator 1
 1079 009e 1648     		ldr	r0, .L49+16
 1080 00a0 0021     		movs	r1, #0
 1081 00a2 FFF7FEFF 		bl	chSemReset
 1082              		.loc 1 376 0 discriminator 1
 1083 00a6 2078     		ldrb	r0, [r4, #0]	@ zero_extendqisi2
 1084              		.loc 1 372 0 discriminator 1
 1085 00a8 0135     		adds	r5, r5, #1
 1086              	.LVL39:
 1087              		.loc 1 376 0 discriminator 1
 1088 00aa 0028     		cmp	r0, #0
 1089 00ac F7D0     		beq	.L47
 1090              		.loc 1 377 0
 1091 00ae FFF7FEFF 		bl	test_terminate_threads
 1092              		.loc 1 378 0
 1093 00b2 0021     		movs	r1, #0
 1094 00b4 1048     		ldr	r0, .L49+16
 1095 00b6 FFF7FEFF 		bl	chSemReset
 1096              		.loc 1 379 0
 1097 00ba FFF7FEFF 		bl	test_wait_threads
 1098              		.loc 1 381 0
 1099 00be 0F48     		ldr	r0, .L49+20
 1100 00c0 FFF7FEFF 		bl	test_print
 1101              		.loc 1 382 0
 1102 00c4 2846     		mov	r0, r5
 1103 00c6 FFF7FEFF 		bl	test_printn
 1104              		.loc 1 384 0
 1105 00ca 05EB4505 		add	r5, r5, r5, lsl #1
 1106              	.LVL40:
 1107              		.loc 1 383 0
 1108 00ce 0C48     		ldr	r0, .L49+24
 1109 00d0 FFF7FEFF 		bl	test_print
 1110              		.loc 1 384 0
 1111 00d4 6800     		lsls	r0, r5, #1
 1112 00d6 FFF7FEFF 		bl	test_printn
 1113              		.loc 1 385 0
 1114 00da 0A48     		ldr	r0, .L49+28
 1115              		.loc 1 386 0
 1116 00dc 02B0     		add	sp, sp, #8
 1117 00de BDE8F041 		pop	{r4, r5, r6, r7, r8, lr}
 1118              		.loc 1 385 0
 1119 00e2 FFF7FEBF 		b	test_println
 1120              	.L50:
 1121 00e6 00BF     		.align	2
 1122              	.L49:
 1123 00e8 00000000 		.word	rlist
 1124 00ec 00000000 		.word	wa
 1125 00f0 00000000 		.word	thread3
 1126 00f4 00000000 		.word	test_timer_done
 1127 00f8 00000000 		.word	.LANCHOR1
 1128 00fc A8000000 		.word	.LC11
 1129 0100 08010000 		.word	.LC18
 1130 0104 FC000000 		.word	.LC17
 1131 0108 00000000 		.word	threads
 1132              		.cfi_endproc
ARM GAS  C:\Users\TAISIK~1\AppData\Local\Temp\ccW1qhwC.s 			page 21


 1133              	.LFE19:
 1134              		.size	bmk7_execute, .-bmk7_execute
 1135 010c AFF30080 		.section	.text.bmk5_execute,"ax",%progbits
 1136              		.align	2
 1137              		.p2align 4,,15
 1138              		.thumb
 1139              		.thumb_func
 1140              		.type	bmk5_execute, %function
 1141              	bmk5_execute:
 1142              	.LFB15:
 1143              		.loc 1 269 0
 1144              		.cfi_startproc
 1145              		@ args = 0, pretend = 0, frame = 0
 1146              		@ frame_needed = 0, uses_anonymous_args = 0
 1147              	.LVL41:
 1148 0000 2DE9F041 		push	{r4, r5, r6, r7, r8, lr}
 1149              	.LCFI14:
 1150              		.cfi_def_cfa_offset 24
 1151              		.cfi_offset 14, -4
 1152              		.cfi_offset 8, -8
 1153              		.cfi_offset 7, -12
 1154              		.cfi_offset 6, -16
 1155              		.cfi_offset 5, -20
 1156              		.cfi_offset 4, -24
 1157              		.loc 1 273 0
 1158 0004 1548     		ldr	r0, .L54
 1159              		.loc 1 272 0
 1160 0006 164A     		ldr	r2, .L54+4
 1161              		.loc 1 273 0
 1162 0008 8369     		ldr	r3, [r0, #24]
 1163              		.loc 1 272 0
 1164 000a D2F80080 		ldr	r8, [r2, #0]
 1165              	.LVL42:
 1166              		.loc 1 273 0
 1167 000e 9E68     		ldr	r6, [r3, #8]
 1168 0010 144F     		ldr	r7, .L54+8
 1169              		.loc 1 269 0
 1170 0012 82B0     		sub	sp, sp, #8
 1171              	.LCFI15:
 1172              		.cfi_def_cfa_offset 32
 1173              		.loc 1 274 0
 1174 0014 FFF7FEFF 		bl	test_wait_tick
 1175              	.LVL43:
 1176              		.loc 1 275 0
 1177 0018 4FF47A70 		mov	r0, #1000
 1178 001c FFF7FEFF 		bl	test_start_timer
 1179              		.loc 1 271 0
 1180 0020 0024     		movs	r4, #0
 1181              		.loc 1 273 0
 1182 0022 013E     		subs	r6, r6, #1
 1183              	.LVL44:
 1184              		.loc 1 277 0
 1185 0024 2546     		mov	r5, r4
 1186              	.LVL45:
 1187              	.L52:
 1188              		.loc 1 277 0 is_stmt 0 discriminator 1
 1189 0026 4FF49871 		mov	r1, #304
ARM GAS  C:\Users\TAISIK~1\AppData\Local\Temp\ccW1qhwC.s 			page 22


 1190 002a 3246     		mov	r2, r6
 1191 002c 0E4B     		ldr	r3, .L54+12
 1192 002e 0095     		str	r5, [sp, #0]
 1193 0030 4046     		mov	r0, r8
 1194 0032 FFF7FEFF 		bl	chThdCreateStatic
 1195 0036 FFF7FEFF 		bl	chThdWait
 1196              		.loc 1 282 0 is_stmt 1 discriminator 1
 1197 003a 3978     		ldrb	r1, [r7, #0]	@ zero_extendqisi2
 1198              		.loc 1 278 0 discriminator 1
 1199 003c 0134     		adds	r4, r4, #1
 1200              	.LVL46:
 1201              		.loc 1 282 0 discriminator 1
 1202 003e 0029     		cmp	r1, #0
 1203 0040 F1D0     		beq	.L52
 1204              		.loc 1 283 0
 1205 0042 0A48     		ldr	r0, .L54+16
 1206 0044 FFF7FEFF 		bl	test_print
 1207              		.loc 1 284 0
 1208 0048 2046     		mov	r0, r4
 1209 004a FFF7FEFF 		bl	test_printn
 1210              		.loc 1 285 0
 1211 004e 0848     		ldr	r0, .L54+20
 1212              		.loc 1 286 0
 1213 0050 02B0     		add	sp, sp, #8
 1214 0052 BDE8F041 		pop	{r4, r5, r6, r7, r8, lr}
 1215              		.loc 1 285 0
 1216 0056 FFF7FEBF 		b	test_println
 1217              	.L55:
 1218 005a 00BF     		.align	2
 1219              	.L54:
 1220 005c 00000000 		.word	rlist
 1221 0060 00000000 		.word	wa
 1222 0064 00000000 		.word	test_timer_done
 1223 0068 00000000 		.word	thread2
 1224 006c A8000000 		.word	.LC11
 1225 0070 F0000000 		.word	.LC16
 1226              		.cfi_endproc
 1227              	.LFE15:
 1228              		.size	bmk5_execute, .-bmk5_execute
 1229 0074 AFF30080 		.section	.text.bmk4_execute,"ax",%progbits
 1229      AFF30080 
 1229      AFF30080 
 1230              		.align	2
 1231              		.p2align 4,,15
 1232              		.thumb
 1233              		.thumb_func
 1234              		.type	bmk4_execute, %function
 1235              	bmk4_execute:
 1236              	.LFB14:
 1237              		.loc 1 221 0
 1238              		.cfi_startproc
 1239              		@ args = 0, pretend = 0, frame = 0
 1240              		@ frame_needed = 0, uses_anonymous_args = 0
 1241 0000 70B5     		push	{r4, r5, r6, lr}
 1242              	.LCFI16:
 1243              		.cfi_def_cfa_offset 16
 1244              		.cfi_offset 14, -4
ARM GAS  C:\Users\TAISIK~1\AppData\Local\Temp\ccW1qhwC.s 			page 23


 1245              		.cfi_offset 6, -8
 1246              		.cfi_offset 5, -12
 1247              		.cfi_offset 4, -16
 1248              		.loc 1 225 0
 1249 0002 254C     		ldr	r4, .L59
 1250 0004 2548     		ldr	r0, .L59+4
 1251 0006 A169     		ldr	r1, [r4, #24]
 1252 0008 254B     		ldr	r3, .L59+8
 1253 000a 8A68     		ldr	r2, [r1, #8]
 1254 000c 0068     		ldr	r0, [r0, #0]
 1255 000e 254C     		ldr	r4, .L59+12
 1256              		.loc 1 221 0
 1257 0010 82B0     		sub	sp, sp, #8
 1258              	.LCFI17:
 1259              		.cfi_def_cfa_offset 24
 1260              		.loc 1 225 0
 1261 0012 0132     		adds	r2, r2, #1
 1262 0014 4FF49871 		mov	r1, #304
 1263 0018 0025     		movs	r5, #0
 1264 001a 0095     		str	r5, [sp, #0]
 1265 001c FFF7FEFF 		bl	chThdCreateStatic
 1266 0020 214B     		ldr	r3, .L59+16
 1267 0022 1860     		str	r0, [r3, #0]
 1268 0024 0646     		mov	r6, r0
 1269              	.LVL47:
 1270              		.loc 1 227 0
 1271 0026 FFF7FEFF 		bl	test_wait_tick
 1272              	.LVL48:
 1273              		.loc 1 228 0
 1274 002a 4FF47A70 		mov	r0, #1000
 1275 002e FFF7FEFF 		bl	test_start_timer
 1276              	.LVL49:
 1277              	.L57:
 1278              	.LBB6:
 1279              		.loc 1 230 0 discriminator 1
 1280 0032 2023     		movs	r3, #32
 1281              	.LVL50:
 1282              	@ 230 "../../test/testbmk.c" 1
 1283 0034 83F31188 		msr     BASEPRI, r3
 1284              	@ 0 "" 2
 1285              	.LVL51:
 1286              		.thumb
 1287              	.LBE6:
 1288              		.loc 1 231 0 discriminator 1
 1289 0038 0021     		movs	r1, #0
 1290 003a 3046     		mov	r0, r6
 1291 003c FFF7FEFF 		bl	chSchWakeupS
 1292              	.LVL52:
 1293              		.loc 1 232 0 discriminator 1
 1294 0040 3046     		mov	r0, r6
 1295 0042 0021     		movs	r1, #0
 1296 0044 FFF7FEFF 		bl	chSchWakeupS
 1297              		.loc 1 233 0 discriminator 1
 1298 0048 3046     		mov	r0, r6
 1299 004a 0021     		movs	r1, #0
 1300 004c FFF7FEFF 		bl	chSchWakeupS
 1301              		.loc 1 234 0 discriminator 1
ARM GAS  C:\Users\TAISIK~1\AppData\Local\Temp\ccW1qhwC.s 			page 24


 1302 0050 3046     		mov	r0, r6
 1303 0052 0021     		movs	r1, #0
 1304 0054 FFF7FEFF 		bl	chSchWakeupS
 1305              	.LBB7:
 1306              		.loc 1 235 0 discriminator 1
 1307 0058 0023     		movs	r3, #0
 1308              	.LVL53:
 1309              	@ 235 "../../test/testbmk.c" 1
 1310 005a 83F31188 		msr     BASEPRI, r3
 1311              	@ 0 "" 2
 1312              	.LVL54:
 1313              		.thumb
 1314              	.LBE7:
 1315              		.loc 1 240 0 discriminator 1
 1316 005e 2378     		ldrb	r3, [r4, #0]	@ zero_extendqisi2
 1317              	.LVL55:
 1318              		.loc 1 236 0 discriminator 1
 1319 0060 0435     		adds	r5, r5, #4
 1320              	.LVL56:
 1321              		.loc 1 240 0 discriminator 1
 1322 0062 002B     		cmp	r3, #0
 1323 0064 E5D0     		beq	.L57
 1324              	.LBB8:
 1325              		.loc 1 241 0
 1326 0066 2023     		movs	r3, #32
 1327              	.LVL57:
 1328              	@ 241 "../../test/testbmk.c" 1
 1329 0068 83F31188 		msr     BASEPRI, r3
 1330              	@ 0 "" 2
 1331              	.LVL58:
 1332              		.thumb
 1333              	.LBE8:
 1334              		.loc 1 242 0
 1335 006c 4FF0FF31 		mov	r1, #-1
 1336 0070 3046     		mov	r0, r6
 1337 0072 FFF7FEFF 		bl	chSchWakeupS
 1338              	.LVL59:
 1339              	.LBB9:
 1340              		.loc 1 243 0
 1341 0076 0023     		movs	r3, #0
 1342              	.LVL60:
 1343              	@ 243 "../../test/testbmk.c" 1
 1344 0078 83F31188 		msr     BASEPRI, r3
 1345              	@ 0 "" 2
 1346              	.LVL61:
 1347              		.thumb
 1348              	.LBE9:
 1349              		.loc 1 245 0
 1350 007c FFF7FEFF 		bl	test_wait_threads
 1351              	.LVL62:
 1352              		.loc 1 246 0
 1353 0080 0A48     		ldr	r0, .L59+20
 1354 0082 FFF7FEFF 		bl	test_print
 1355              		.loc 1 247 0
 1356 0086 6800     		lsls	r0, r5, #1
 1357 0088 FFF7FEFF 		bl	test_printn
 1358              		.loc 1 248 0
ARM GAS  C:\Users\TAISIK~1\AppData\Local\Temp\ccW1qhwC.s 			page 25


 1359 008c 0848     		ldr	r0, .L59+24
 1360              		.loc 1 249 0
 1361 008e 02B0     		add	sp, sp, #8
 1362 0090 BDE87040 		pop	{r4, r5, r6, lr}
 1363              		.loc 1 248 0
 1364 0094 FFF7FEBF 		b	test_println
 1365              	.L60:
 1366              		.align	2
 1367              	.L59:
 1368 0098 00000000 		.word	rlist
 1369 009c 00000000 		.word	wa
 1370 00a0 00000000 		.word	thread4
 1371 00a4 00000000 		.word	test_timer_done
 1372 00a8 00000000 		.word	threads
 1373 00ac A8000000 		.word	.LC11
 1374 00b0 FC000000 		.word	.LC17
 1375              		.cfi_endproc
 1376              	.LFE14:
 1377              		.size	bmk4_execute, .-bmk4_execute
 1378 00b4 AFF30080 		.section	.text.msg_loop_test,"ax",%progbits
 1378      AFF30080 
 1378      AFF30080 
 1379              		.align	2
 1380              		.p2align 4,,15
 1381              		.thumb
 1382              		.thumb_func
 1383              		.type	msg_loop_test, %function
 1384              	msg_loop_test:
 1385              	.LFB8:
 1386              		.loc 1 84 0
 1387              		.cfi_startproc
 1388              		@ args = 0, pretend = 0, frame = 0
 1389              		@ frame_needed = 0, uses_anonymous_args = 0
 1390              	.LVL63:
 1391 0000 70B5     		push	{r4, r5, r6, lr}
 1392              	.LCFI18:
 1393              		.cfi_def_cfa_offset 16
 1394              		.cfi_offset 14, -4
 1395              		.cfi_offset 6, -8
 1396              		.cfi_offset 5, -12
 1397              		.cfi_offset 4, -16
 1398              		.loc 1 84 0
 1399 0002 0546     		mov	r5, r0
 1400              		.loc 1 87 0
 1401 0004 FFF7FEFF 		bl	test_wait_tick
 1402              	.LVL64:
 1403              		.loc 1 88 0
 1404 0008 4FF47A70 		mov	r0, #1000
 1405 000c FFF7FEFF 		bl	test_start_timer
 1406 0010 074E     		ldr	r6, .L64
 1407              		.loc 1 86 0
 1408 0012 0024     		movs	r4, #0
 1409              	.LVL65:
 1410              	.L62:
 1411              		.loc 1 90 0 discriminator 1
 1412 0014 2846     		mov	r0, r5
 1413 0016 0121     		movs	r1, #1
ARM GAS  C:\Users\TAISIK~1\AppData\Local\Temp\ccW1qhwC.s 			page 26


 1414 0018 FFF7FEFF 		bl	chMsgSend
 1415              		.loc 1 95 0 discriminator 1
 1416 001c 3378     		ldrb	r3, [r6, #0]	@ zero_extendqisi2
 1417              		.loc 1 91 0 discriminator 1
 1418 001e 0134     		adds	r4, r4, #1
 1419              	.LVL66:
 1420              		.loc 1 95 0 discriminator 1
 1421 0020 002B     		cmp	r3, #0
 1422 0022 F7D0     		beq	.L62
 1423              		.loc 1 96 0
 1424 0024 2846     		mov	r0, r5
 1425 0026 0021     		movs	r1, #0
 1426 0028 FFF7FEFF 		bl	chMsgSend
 1427              		.loc 1 98 0
 1428 002c 2046     		mov	r0, r4
 1429 002e 70BD     		pop	{r4, r5, r6, pc}
 1430              	.L65:
 1431              		.align	2
 1432              	.L64:
 1433 0030 00000000 		.word	test_timer_done
 1434              		.cfi_endproc
 1435              	.LFE8:
 1436              		.size	msg_loop_test, .-msg_loop_test
 1437 0034 AFF30080 		.section	.text.bmk3_execute,"ax",%progbits
 1437      AFF30080 
 1437      AFF30080 
 1438              		.align	2
 1439              		.p2align 4,,15
 1440              		.thumb
 1441              		.thumb_func
 1442              		.type	bmk3_execute, %function
 1443              	bmk3_execute:
 1444              	.LFB12:
 1445              		.loc 1 173 0
 1446              		.cfi_startproc
 1447              		@ args = 0, pretend = 0, frame = 0
 1448              		@ frame_needed = 0, uses_anonymous_args = 0
 1449 0000 2DE9F041 		push	{r4, r5, r6, r7, r8, lr}
 1450              	.LCFI19:
 1451              		.cfi_def_cfa_offset 24
 1452              		.cfi_offset 14, -4
 1453              		.cfi_offset 8, -8
 1454              		.cfi_offset 7, -12
 1455              		.cfi_offset 6, -16
 1456              		.cfi_offset 5, -20
 1457              		.cfi_offset 4, -24
 1458              		.loc 1 176 0
 1459 0004 40F20006 		movw	r6, #:lower16:rlist
 1460 0008 C0F20006 		movt	r6, #:upper16:rlist
 1461 000c 40F20005 		movw	r5, #:lower16:wa
 1462 0010 B069     		ldr	r0, [r6, #24]
 1463 0012 C0F20005 		movt	r5, #:upper16:wa
 1464 0016 8468     		ldr	r4, [r0, #8]
 1465 0018 2868     		ldr	r0, [r5, #0]
 1466              		.loc 1 173 0
 1467 001a 82B0     		sub	sp, sp, #8
 1468              	.LCFI20:
ARM GAS  C:\Users\TAISIK~1\AppData\Local\Temp\ccW1qhwC.s 			page 27


 1469              		.cfi_def_cfa_offset 32
 1470              		.loc 1 176 0
 1471 001c 40F20003 		movw	r3, #:lower16:thread1
 1472 0020 4FF00008 		mov	r8, #0
 1473 0024 621C     		adds	r2, r4, #1
 1474 0026 C0F20003 		movt	r3, #:upper16:thread1
 1475 002a 4FF49871 		mov	r1, #304
 1476 002e CDF80080 		str	r8, [sp, #0]
 1477 0032 FFF7FEFF 		bl	chThdCreateStatic
 1478              		.loc 1 177 0
 1479 0036 B769     		ldr	r7, [r6, #24]
 1480              		.loc 1 176 0
 1481 0038 40F20004 		movw	r4, #:lower16:threads
 1482 003c C0F20004 		movt	r4, #:upper16:threads
 1483              		.loc 1 177 0
 1484 0040 BA68     		ldr	r2, [r7, #8]
 1485 0042 CDF80080 		str	r8, [sp, #0]
 1486 0046 40F20007 		movw	r7, #:lower16:thread2
 1487              		.loc 1 176 0
 1488 004a 8646     		mov	lr, r0
 1489              		.loc 1 177 0
 1490 004c C0F20007 		movt	r7, #:upper16:thread2
 1491              		.loc 1 176 0
 1492 0050 C4F800E0 		str	lr, [r4, #0]
 1493              		.loc 1 177 0
 1494 0054 023A     		subs	r2, r2, #2
 1495 0056 3B46     		mov	r3, r7
 1496 0058 6868     		ldr	r0, [r5, #4]
 1497 005a 4FF49871 		mov	r1, #304
 1498 005e FFF7FEFF 		bl	chThdCreateStatic
 1499              		.loc 1 178 0
 1500 0062 B369     		ldr	r3, [r6, #24]
 1501 0064 9A68     		ldr	r2, [r3, #8]
 1502              		.loc 1 177 0
 1503 0066 0146     		mov	r1, r0
 1504 0068 6160     		str	r1, [r4, #4]
 1505              		.loc 1 178 0
 1506 006a 033A     		subs	r2, r2, #3
 1507 006c 3B46     		mov	r3, r7
 1508 006e A868     		ldr	r0, [r5, #8]
 1509 0070 CDF80080 		str	r8, [sp, #0]
 1510 0074 4FF49871 		mov	r1, #304
 1511 0078 FFF7FEFF 		bl	chThdCreateStatic
 1512              		.loc 1 179 0
 1513 007c B369     		ldr	r3, [r6, #24]
 1514 007e 9A68     		ldr	r2, [r3, #8]
 1515              		.loc 1 178 0
 1516 0080 0146     		mov	r1, r0
 1517 0082 A160     		str	r1, [r4, #8]
 1518              		.loc 1 179 0
 1519 0084 043A     		subs	r2, r2, #4
 1520 0086 3B46     		mov	r3, r7
 1521 0088 E868     		ldr	r0, [r5, #12]
 1522 008a CDF80080 		str	r8, [sp, #0]
 1523 008e 4FF49871 		mov	r1, #304
 1524 0092 FFF7FEFF 		bl	chThdCreateStatic
 1525              		.loc 1 180 0
ARM GAS  C:\Users\TAISIK~1\AppData\Local\Temp\ccW1qhwC.s 			page 28


 1526 0096 B369     		ldr	r3, [r6, #24]
 1527 0098 9A68     		ldr	r2, [r3, #8]
 1528              		.loc 1 179 0
 1529 009a 0146     		mov	r1, r0
 1530              		.loc 1 180 0
 1531 009c 053A     		subs	r2, r2, #5
 1532              		.loc 1 179 0
 1533 009e E160     		str	r1, [r4, #12]
 1534              		.loc 1 180 0
 1535 00a0 3B46     		mov	r3, r7
 1536 00a2 4FF49871 		mov	r1, #304
 1537 00a6 2869     		ldr	r0, [r5, #16]
 1538 00a8 CDF80080 		str	r8, [sp, #0]
 1539 00ac FFF7FEFF 		bl	chThdCreateStatic
 1540              		.loc 1 181 0
 1541 00b0 2368     		ldr	r3, [r4, #0]
 1542              		.loc 1 180 0
 1543 00b2 2061     		str	r0, [r4, #16]
 1544              		.loc 1 181 0
 1545 00b4 1846     		mov	r0, r3
 1546 00b6 FFF7FEFF 		bl	msg_loop_test
 1547 00ba 0446     		mov	r4, r0
 1548              	.LVL67:
 1549              		.loc 1 182 0
 1550 00bc FFF7FEFF 		bl	test_wait_threads
 1551              	.LVL68:
 1552              		.loc 1 183 0
 1553 00c0 40F20000 		movw	r0, #:lower16:.LC11
 1554 00c4 C0F20000 		movt	r0, #:upper16:.LC11
 1555 00c8 FFF7FEFF 		bl	test_print
 1556              		.loc 1 184 0
 1557 00cc 2046     		mov	r0, r4
 1558 00ce FFF7FEFF 		bl	test_printn
 1559              		.loc 1 185 0
 1560 00d2 40F20000 		movw	r0, #:lower16:.LC19
 1561 00d6 C0F20000 		movt	r0, #:upper16:.LC19
 1562 00da FFF7FEFF 		bl	test_print
 1563              		.loc 1 186 0
 1564 00de 6000     		lsls	r0, r4, #1
 1565 00e0 FFF7FEFF 		bl	test_printn
 1566              		.loc 1 187 0
 1567 00e4 40F20000 		movw	r0, #:lower16:.LC17
 1568 00e8 C0F20000 		movt	r0, #:upper16:.LC17
 1569              		.loc 1 188 0
 1570 00ec 02B0     		add	sp, sp, #8
 1571 00ee BDE8F041 		pop	{r4, r5, r6, r7, r8, lr}
 1572              		.loc 1 187 0
 1573 00f2 FFF7FEBF 		b	test_println
 1574              		.cfi_endproc
 1575              	.LFE12:
 1576              		.size	bmk3_execute, .-bmk3_execute
 1577 00f6 00BFAFF3 		.section	.text.bmk2_execute,"ax",%progbits
 1577      0080AFF3 
 1577      0080
 1578              		.align	2
 1579              		.p2align 4,,15
 1580              		.thumb
ARM GAS  C:\Users\TAISIK~1\AppData\Local\Temp\ccW1qhwC.s 			page 29


 1581              		.thumb_func
 1582              		.type	bmk2_execute, %function
 1583              	bmk2_execute:
 1584              	.LFB10:
 1585              		.loc 1 138 0
 1586              		.cfi_startproc
 1587              		@ args = 0, pretend = 0, frame = 0
 1588              		@ frame_needed = 0, uses_anonymous_args = 0
 1589              		.loc 1 141 0
 1590 0000 40F2000C 		movw	ip, #:lower16:rlist
 1591              		.loc 1 138 0
 1592 0004 10B5     		push	{r4, lr}
 1593              	.LCFI21:
 1594              		.cfi_def_cfa_offset 8
 1595              		.cfi_offset 14, -4
 1596              		.cfi_offset 4, -8
 1597              		.loc 1 141 0
 1598 0006 C0F2000C 		movt	ip, #:upper16:rlist
 1599 000a 40F20000 		movw	r0, #:lower16:wa
 1600 000e DCF81820 		ldr	r2, [ip, #24]
 1601 0012 C0F20000 		movt	r0, #:upper16:wa
 1602 0016 9168     		ldr	r1, [r2, #8]
 1603 0018 0068     		ldr	r0, [r0, #0]
 1604              		.loc 1 138 0
 1605 001a 82B0     		sub	sp, sp, #8
 1606              	.LCFI22:
 1607              		.cfi_def_cfa_offset 16
 1608              		.loc 1 141 0
 1609 001c 40F20003 		movw	r3, #:lower16:thread1
 1610 0020 4A1C     		adds	r2, r1, #1
 1611 0022 0024     		movs	r4, #0
 1612 0024 4FF49871 		mov	r1, #304
 1613 0028 C0F20003 		movt	r3, #:upper16:thread1
 1614 002c 0094     		str	r4, [sp, #0]
 1615 002e FFF7FEFF 		bl	chThdCreateStatic
 1616 0032 40F20003 		movw	r3, #:lower16:threads
 1617 0036 C0F20003 		movt	r3, #:upper16:threads
 1618 003a 0246     		mov	r2, r0
 1619 003c 1A60     		str	r2, [r3, #0]
 1620              		.loc 1 142 0
 1621 003e FFF7FEFF 		bl	msg_loop_test
 1622 0042 0446     		mov	r4, r0
 1623              	.LVL69:
 1624              		.loc 1 143 0
 1625 0044 FFF7FEFF 		bl	test_wait_threads
 1626              	.LVL70:
 1627              		.loc 1 144 0
 1628 0048 40F20000 		movw	r0, #:lower16:.LC11
 1629 004c C0F20000 		movt	r0, #:upper16:.LC11
 1630 0050 FFF7FEFF 		bl	test_print
 1631              		.loc 1 145 0
 1632 0054 2046     		mov	r0, r4
 1633 0056 FFF7FEFF 		bl	test_printn
 1634              		.loc 1 146 0
 1635 005a 40F20000 		movw	r0, #:lower16:.LC19
 1636 005e C0F20000 		movt	r0, #:upper16:.LC19
 1637 0062 FFF7FEFF 		bl	test_print
ARM GAS  C:\Users\TAISIK~1\AppData\Local\Temp\ccW1qhwC.s 			page 30


 1638              		.loc 1 147 0
 1639 0066 6000     		lsls	r0, r4, #1
 1640 0068 FFF7FEFF 		bl	test_printn
 1641              		.loc 1 148 0
 1642 006c 40F20000 		movw	r0, #:lower16:.LC17
 1643 0070 C0F20000 		movt	r0, #:upper16:.LC17
 1644              		.loc 1 149 0
 1645 0074 02B0     		add	sp, sp, #8
 1646 0076 BDE81040 		pop	{r4, lr}
 1647              		.loc 1 148 0
 1648 007a FFF7FEBF 		b	test_println
 1649              		.cfi_endproc
 1650              	.LFE10:
 1651              		.size	bmk2_execute, .-bmk2_execute
 1652 007e 00BF     		.section	.text.bmk1_execute,"ax",%progbits
 1653              		.align	2
 1654              		.p2align 4,,15
 1655              		.thumb
 1656              		.thumb_func
 1657              		.type	bmk1_execute, %function
 1658              	bmk1_execute:
 1659              	.LFB9:
 1660              		.loc 1 109 0
 1661              		.cfi_startproc
 1662              		@ args = 0, pretend = 0, frame = 0
 1663              		@ frame_needed = 0, uses_anonymous_args = 0
 1664              		.loc 1 112 0
 1665 0000 40F2000C 		movw	ip, #:lower16:rlist
 1666              		.loc 1 109 0
 1667 0004 10B5     		push	{r4, lr}
 1668              	.LCFI23:
 1669              		.cfi_def_cfa_offset 8
 1670              		.cfi_offset 14, -4
 1671              		.cfi_offset 4, -8
 1672              		.loc 1 112 0
 1673 0006 C0F2000C 		movt	ip, #:upper16:rlist
 1674 000a 40F20000 		movw	r0, #:lower16:wa
 1675 000e DCF81820 		ldr	r2, [ip, #24]
 1676 0012 C0F20000 		movt	r0, #:upper16:wa
 1677 0016 9168     		ldr	r1, [r2, #8]
 1678 0018 0068     		ldr	r0, [r0, #0]
 1679              		.loc 1 109 0
 1680 001a 82B0     		sub	sp, sp, #8
 1681              	.LCFI24:
 1682              		.cfi_def_cfa_offset 16
 1683              		.loc 1 112 0
 1684 001c 40F20003 		movw	r3, #:lower16:thread1
 1685 0020 4A1E     		subs	r2, r1, #1
 1686 0022 0024     		movs	r4, #0
 1687 0024 4FF49871 		mov	r1, #304
 1688 0028 C0F20003 		movt	r3, #:upper16:thread1
 1689 002c 0094     		str	r4, [sp, #0]
 1690 002e FFF7FEFF 		bl	chThdCreateStatic
 1691 0032 40F20003 		movw	r3, #:lower16:threads
 1692 0036 C0F20003 		movt	r3, #:upper16:threads
 1693 003a 0246     		mov	r2, r0
 1694 003c 1A60     		str	r2, [r3, #0]
ARM GAS  C:\Users\TAISIK~1\AppData\Local\Temp\ccW1qhwC.s 			page 31


 1695              		.loc 1 113 0
 1696 003e FFF7FEFF 		bl	msg_loop_test
 1697 0042 0446     		mov	r4, r0
 1698              	.LVL71:
 1699              		.loc 1 114 0
 1700 0044 FFF7FEFF 		bl	test_wait_threads
 1701              	.LVL72:
 1702              		.loc 1 115 0
 1703 0048 40F20000 		movw	r0, #:lower16:.LC11
 1704 004c C0F20000 		movt	r0, #:upper16:.LC11
 1705 0050 FFF7FEFF 		bl	test_print
 1706              		.loc 1 116 0
 1707 0054 2046     		mov	r0, r4
 1708 0056 FFF7FEFF 		bl	test_printn
 1709              		.loc 1 117 0
 1710 005a 40F20000 		movw	r0, #:lower16:.LC19
 1711 005e C0F20000 		movt	r0, #:upper16:.LC19
 1712 0062 FFF7FEFF 		bl	test_print
 1713              		.loc 1 118 0
 1714 0066 6000     		lsls	r0, r4, #1
 1715 0068 FFF7FEFF 		bl	test_printn
 1716              		.loc 1 119 0
 1717 006c 40F20000 		movw	r0, #:lower16:.LC17
 1718 0070 C0F20000 		movt	r0, #:upper16:.LC17
 1719              		.loc 1 120 0
 1720 0074 02B0     		add	sp, sp, #8
 1721 0076 BDE81040 		pop	{r4, lr}
 1722              		.loc 1 119 0
 1723 007a FFF7FEBF 		b	test_println
 1724              		.cfi_endproc
 1725              	.LFE9:
 1726              		.size	bmk1_execute, .-bmk1_execute
 1727 007e 00BF     		.section	.text.thread1,"ax",%progbits
 1728              		.align	2
 1729              		.p2align 4,,15
 1730              		.thumb
 1731              		.thumb_func
 1732              		.type	thread1, %function
 1733              	thread1:
 1734              	.LFB7:
 1735              		.loc 1 68 0
 1736              		.cfi_startproc
 1737              		@ args = 0, pretend = 0, frame = 0
 1738              		@ frame_needed = 0, uses_anonymous_args = 0
 1739              	.LVL73:
 1740 0000 10B5     		push	{r4, lr}
 1741              	.LCFI25:
 1742              		.cfi_def_cfa_offset 8
 1743              		.cfi_offset 14, -4
 1744              		.cfi_offset 4, -8
 1745              	.LVL74:
 1746              	.L70:
 1747              		.loc 1 74 0 discriminator 1
 1748 0002 FFF7FEFF 		bl	chMsgWait
 1749              	.LVL75:
 1750              		.loc 1 75 0 discriminator 1
 1751 0006 446B     		ldr	r4, [r0, #52]
ARM GAS  C:\Users\TAISIK~1\AppData\Local\Temp\ccW1qhwC.s 			page 32


 1752              	.LVL76:
 1753              		.loc 1 76 0 discriminator 1
 1754 0008 2146     		mov	r1, r4
 1755 000a FFF7FEFF 		bl	chMsgRelease
 1756              	.LVL77:
 1757              		.loc 1 77 0 discriminator 1
 1758 000e 002C     		cmp	r4, #0
 1759 0010 F7D1     		bne	.L70
 1760              		.loc 1 79 0
 1761 0012 2046     		mov	r0, r4
 1762 0014 10BD     		pop	{r4, pc}
 1763              		.cfi_endproc
 1764              	.LFE7:
 1765              		.size	thread1, .-thread1
 1766 0016 00BFAFF3 		.section	.text.thread4,"ax",%progbits
 1766      0080AFF3 
 1766      0080
 1767              		.align	2
 1768              		.p2align 4,,15
 1769              		.global	thread4
 1770              		.thumb
 1771              		.thumb_func
 1772              		.type	thread4, %function
 1773              	thread4:
 1774              	.LFB13:
 1775              		.loc 1 207 0
 1776              		.cfi_startproc
 1777              		@ args = 0, pretend = 0, frame = 0
 1778              		@ frame_needed = 0, uses_anonymous_args = 0
 1779              	.LVL78:
 1780              		.loc 1 209 0
 1781 0000 084A     		ldr	r2, .L75
 1782              		.loc 1 207 0
 1783 0002 10B5     		push	{r4, lr}
 1784              	.LCFI26:
 1785              		.cfi_def_cfa_offset 8
 1786              		.cfi_offset 14, -4
 1787              		.cfi_offset 4, -8
 1788              	.LBB10:
 1789              		.loc 1 212 0
 1790 0004 2023     		movs	r3, #32
 1791              	.LVL79:
 1792              	.LBE10:
 1793              		.loc 1 209 0
 1794 0006 9469     		ldr	r4, [r2, #24]
 1795              	.LVL80:
 1796              	.LBB11:
 1797              		.loc 1 212 0
 1798              	@ 212 "../../test/testbmk.c" 1
 1799 0008 83F31188 		msr     BASEPRI, r3
 1800              	@ 0 "" 2
 1801              	.LVL81:
 1802              		.thumb
 1803              	.L73:
 1804              	.LBE11:
 1805              		.loc 1 214 0 discriminator 1
 1806 000c 0220     		movs	r0, #2
ARM GAS  C:\Users\TAISIK~1\AppData\Local\Temp\ccW1qhwC.s 			page 33


 1807 000e FFF7FEFF 		bl	chSchGoSleepS
 1808              	.LVL82:
 1809              		.loc 1 216 0 discriminator 1
 1810 0012 636A     		ldr	r3, [r4, #36]
 1811 0014 002B     		cmp	r3, #0
 1812 0016 F9D0     		beq	.L73
 1813              	.LBB12:
 1814              		.loc 1 217 0
 1815 0018 0023     		movs	r3, #0
 1816              	.LVL83:
 1817              	@ 217 "../../test/testbmk.c" 1
 1818 001a 83F31188 		msr     BASEPRI, r3
 1819              	@ 0 "" 2
 1820              	.LVL84:
 1821              		.thumb
 1822              	.LBE12:
 1823              		.loc 1 219 0
 1824 001e 1846     		mov	r0, r3
 1825 0020 10BD     		pop	{r4, pc}
 1826              	.L76:
 1827 0022 00BF     		.align	2
 1828              	.L75:
 1829 0024 00000000 		.word	rlist
 1830              		.cfi_endproc
 1831              	.LFE13:
 1832              		.size	thread4, .-thread4
 1833              		.global	patternbmk
 1834              		.global	testbmk13
 1835              		.global	testbmk12
 1836              		.global	testbmk11
 1837              		.global	testbmk10
 1838              		.global	testbmk9
 1839              		.global	testbmk8
 1840              		.global	testbmk7
 1841              		.global	testbmk6
 1842              		.global	testbmk5
 1843              		.global	testbmk4
 1844              		.global	testbmk3
 1845              		.global	testbmk2
 1846              		.global	testbmk1
 1847 0028 AFF30080 		.section	.rodata.testbmk8,"a",%progbits
 1847      AFF30080 
 1848              		.align	2
 1849              		.type	testbmk8, %object
 1850              		.size	testbmk8, 16
 1851              	testbmk8:
 1852 0000 D0010000 		.word	.LC25
 1853 0004 00000000 		.word	0
 1854 0008 00000000 		.word	0
 1855 000c 00000000 		.word	bmk8_execute
 1856              		.section	.rodata.patternbmk,"a",%progbits
 1857              		.align	2
 1858              		.type	patternbmk, %object
 1859              		.size	patternbmk, 56
 1860              	patternbmk:
 1861 0000 00000000 		.word	testbmk1
 1862 0004 00000000 		.word	testbmk2
ARM GAS  C:\Users\TAISIK~1\AppData\Local\Temp\ccW1qhwC.s 			page 34


 1863 0008 00000000 		.word	testbmk3
 1864 000c 00000000 		.word	testbmk4
 1865 0010 00000000 		.word	testbmk5
 1866 0014 00000000 		.word	testbmk6
 1867 0018 00000000 		.word	testbmk7
 1868 001c 00000000 		.word	testbmk8
 1869 0020 00000000 		.word	testbmk9
 1870 0024 00000000 		.word	testbmk10
 1871 0028 00000000 		.word	testbmk11
 1872 002c 00000000 		.word	testbmk12
 1873 0030 00000000 		.word	testbmk13
 1874 0034 00000000 		.word	0
 1875              		.section	.bss.vt1.4808,"aw",%nobits
 1876              		.align	2
 1877              		.set	.LANCHOR2,. + 0
 1878              		.type	vt1.4808, %object
 1879              		.size	vt1.4808, 20
 1880              	vt1.4808:
 1881 0000 00000000 		.space	20
 1881      00000000 
 1881      00000000 
 1881      00000000 
 1881      00000000 
 1882              		.section	.rodata.testbmk3,"a",%progbits
 1883              		.align	2
 1884              		.type	testbmk3, %object
 1885              		.size	testbmk3, 16
 1886              	testbmk3:
 1887 0000 80020000 		.word	.LC30
 1888 0004 00000000 		.word	0
 1889 0008 00000000 		.word	0
 1890 000c 00000000 		.word	bmk3_execute
 1891              		.section	.rodata.testbmk9,"a",%progbits
 1892              		.align	2
 1893              		.type	testbmk9, %object
 1894              		.size	testbmk9, 16
 1895              	testbmk9:
 1896 0000 AC010000 		.word	.LC24
 1897 0004 00000000 		.word	0
 1898 0008 00000000 		.word	0
 1899 000c 00000000 		.word	bmk9_execute
 1900              		.section	.rodata.testbmk10,"a",%progbits
 1901              		.align	2
 1902              		.type	testbmk10, %object
 1903              		.size	testbmk10, 16
 1904              	testbmk10:
 1905 0000 88010000 		.word	.LC23
 1906 0004 00000000 		.word	0
 1907 0008 00000000 		.word	0
 1908 000c 00000000 		.word	bmk10_execute
 1909              		.section	.rodata.testbmk11,"a",%progbits
 1910              		.align	2
 1911              		.type	testbmk11, %object
 1912              		.size	testbmk11, 16
 1913              	testbmk11:
 1914 0000 64010000 		.word	.LC22
 1915 0004 00000000 		.word	bmk11_setup
ARM GAS  C:\Users\TAISIK~1\AppData\Local\Temp\ccW1qhwC.s 			page 35


 1916 0008 00000000 		.word	0
 1917 000c 00000000 		.word	bmk11_execute
 1918              		.section	.bss.mtx1,"aw",%nobits
 1919              		.align	2
 1920              		.set	.LANCHOR0,. + 0
 1921              		.type	mtx1, %object
 1922              		.size	mtx1, 16
 1923              	mtx1:
 1924 0000 00000000 		.space	16
 1924      00000000 
 1924      00000000 
 1924      00000000 
 1925              		.section	.rodata.testbmk12,"a",%progbits
 1926              		.align	2
 1927              		.type	testbmk12, %object
 1928              		.size	testbmk12, 16
 1929              	testbmk12:
 1930 0000 44010000 		.word	.LC21
 1931 0004 00000000 		.word	bmk12_setup
 1932 0008 00000000 		.word	0
 1933 000c 00000000 		.word	bmk12_execute
 1934              		.section	.rodata.testbmk2,"a",%progbits
 1935              		.align	2
 1936              		.type	testbmk2, %object
 1937              		.size	testbmk2, 16
 1938              	testbmk2:
 1939 0000 98020000 		.word	.LC31
 1940 0004 00000000 		.word	0
 1941 0008 00000000 		.word	0
 1942 000c 00000000 		.word	bmk2_execute
 1943              		.section	.rodata.str1.4,"aMS",%progbits,1
 1944              		.align	2
 1945              	.LC0:
 1946 0000 2D2D2D20 		.ascii	"--- System: \000"
 1946      53797374 
 1946      656D3A20 
 1946      00
 1947 000d 000000   		.space	3
 1948              	.LC1:
 1949 0010 20627974 		.ascii	" bytes\000"
 1949      657300
 1950 0017 00       		.space	1
 1951              	.LC2:
 1952 0018 2D2D2D20 		.ascii	"--- Thread: \000"
 1952      54687265 
 1952      61643A20 
 1952      00
 1953 0025 000000   		.space	3
 1954              	.LC3:
 1955 0028 2D2D2D20 		.ascii	"--- Timer : \000"
 1955      54696D65 
 1955      72203A20 
 1955      00
 1956 0035 000000   		.space	3
 1957              	.LC4:
 1958 0038 2D2D2D20 		.ascii	"--- Semaph: \000"
 1958      53656D61 
ARM GAS  C:\Users\TAISIK~1\AppData\Local\Temp\ccW1qhwC.s 			page 36


 1958      70683A20 
 1958      00
 1959 0045 000000   		.space	3
 1960              	.LC5:
 1961 0048 2D2D2D20 		.ascii	"--- EventS: \000"
 1961      4576656E 
 1961      74533A20 
 1961      00
 1962 0055 000000   		.space	3
 1963              	.LC6:
 1964 0058 2D2D2D20 		.ascii	"--- EventL: \000"
 1964      4576656E 
 1964      744C3A20 
 1964      00
 1965 0065 000000   		.space	3
 1966              	.LC7:
 1967 0068 2D2D2D20 		.ascii	"--- Mutex : \000"
 1967      4D757465 
 1967      78203A20 
 1967      00
 1968 0075 000000   		.space	3
 1969              	.LC8:
 1970 0078 2D2D2D20 		.ascii	"--- CondV.: \000"
 1970      436F6E64 
 1970      562E3A20 
 1970      00
 1971 0085 000000   		.space	3
 1972              	.LC9:
 1973 0088 2D2D2D20 		.ascii	"--- Queue : \000"
 1973      51756575 
 1973      65203A20 
 1973      00
 1974 0095 000000   		.space	3
 1975              	.LC10:
 1976 0098 2D2D2D20 		.ascii	"--- MailB.: \000"
 1976      4D61696C 
 1976      422E3A20 
 1976      00
 1977 00a5 000000   		.space	3
 1978              	.LC11:
 1979 00a8 2D2D2D20 		.ascii	"--- Score : \000"
 1979      53636F72 
 1979      65203A20 
 1979      00
 1980 00b5 000000   		.space	3
 1981              	.LC12:
 1982 00b8 206C6F63 		.ascii	" lock+unlock/S\000"
 1982      6B2B756E 
 1982      6C6F636B 
 1982      2F5300
 1983 00c7 00       		.space	1
 1984              	.LC13:
 1985 00c8 20776169 		.ascii	" wait+signal/S\000"
 1985      742B7369 
 1985      676E616C 
 1985      2F5300
 1986 00d7 00       		.space	1
ARM GAS  C:\Users\TAISIK~1\AppData\Local\Temp\ccW1qhwC.s 			page 37


 1987              	.LC14:
 1988 00d8 2074696D 		.ascii	" timers/S\000"
 1988      6572732F 
 1988      5300
 1989 00e2 0000     		.space	2
 1990              	.LC15:
 1991 00e4 20627974 		.ascii	" bytes/S\000"
 1991      65732F53 
 1991      00
 1992 00ed 000000   		.space	3
 1993              	.LC16:
 1994 00f0 20746872 		.ascii	" threads/S\000"
 1994      65616473 
 1994      2F5300
 1995 00fb 00       		.space	1
 1996              	.LC17:
 1997 00fc 20637478 		.ascii	" ctxswc/S\000"
 1997      7377632F 
 1997      5300
 1998 0106 0000     		.space	2
 1999              	.LC18:
 2000 0108 20726573 		.ascii	" reschedules/S, \000"
 2000      63686564 
 2000      756C6573 
 2000      2F532C20 
 2000      00
 2001 0119 000000   		.space	3
 2002              	.LC19:
 2003 011c 206D7367 		.ascii	" msgs/S, \000"
 2003      732F532C 
 2003      2000
 2004 0126 0000     		.space	2
 2005              	.LC20:
 2006 0128 42656E63 		.ascii	"Benchmark, RAM footprint\000"
 2006      686D6172 
 2006      6B2C2052 
 2006      414D2066 
 2006      6F6F7470 
 2007 0141 000000   		.space	3
 2008              	.LC21:
 2009 0144 42656E63 		.ascii	"Benchmark, mutexes lock/unlock\000"
 2009      686D6172 
 2009      6B2C206D 
 2009      75746578 
 2009      6573206C 
 2010 0163 00       		.space	1
 2011              	.LC22:
 2012 0164 42656E63 		.ascii	"Benchmark, semaphores wait/signal\000"
 2012      686D6172 
 2012      6B2C2073 
 2012      656D6170 
 2012      686F7265 
 2013 0186 0000     		.space	2
 2014              	.LC23:
 2015 0188 42656E63 		.ascii	"Benchmark, virtual timers set/reset\000"
 2015      686D6172 
 2015      6B2C2076 
ARM GAS  C:\Users\TAISIK~1\AppData\Local\Temp\ccW1qhwC.s 			page 38


 2015      69727475 
 2015      616C2074 
 2016              	.LC24:
 2017 01ac 42656E63 		.ascii	"Benchmark, I/O Queues throughput\000"
 2017      686D6172 
 2017      6B2C2049 
 2017      2F4F2051 
 2017      75657565 
 2018 01cd 000000   		.space	3
 2019              	.LC25:
 2020 01d0 42656E63 		.ascii	"Benchmark, round robin context switching\000"
 2020      686D6172 
 2020      6B2C2072 
 2020      6F756E64 
 2020      20726F62 
 2021 01f9 000000   		.space	3
 2022              	.LC26:
 2023 01fc 42656E63 		.ascii	"Benchmark, mass reschedule, 5 threads\000"
 2023      686D6172 
 2023      6B2C206D 
 2023      61737320 
 2023      72657363 
 2024 0222 0000     		.space	2
 2025              	.LC27:
 2026 0224 42656E63 		.ascii	"Benchmark, threads, create only\000"
 2026      686D6172 
 2026      6B2C2074 
 2026      68726561 
 2026      64732C20 
 2027              	.LC28:
 2028 0244 42656E63 		.ascii	"Benchmark, threads, full cycle\000"
 2028      686D6172 
 2028      6B2C2074 
 2028      68726561 
 2028      64732C20 
 2029 0263 00       		.space	1
 2030              	.LC29:
 2031 0264 42656E63 		.ascii	"Benchmark, context switch\000"
 2031      686D6172 
 2031      6B2C2063 
 2031      6F6E7465 
 2031      78742073 
 2032 027e 0000     		.space	2
 2033              	.LC30:
 2034 0280 42656E63 		.ascii	"Benchmark, messages #3\000"
 2034      686D6172 
 2034      6B2C206D 
 2034      65737361 
 2034      67657320 
 2035 0297 00       		.space	1
 2036              	.LC31:
 2037 0298 42656E63 		.ascii	"Benchmark, messages #2\000"
 2037      686D6172 
 2037      6B2C206D 
 2037      65737361 
 2037      67657320 
 2038 02af 00       		.space	1
ARM GAS  C:\Users\TAISIK~1\AppData\Local\Temp\ccW1qhwC.s 			page 39


 2039              	.LC32:
 2040 02b0 42656E63 		.ascii	"Benchmark, messages #1\000"
 2040      686D6172 
 2040      6B2C206D 
 2040      65737361 
 2040      67657320 
 2041 02c7 00       		.section	.bss.vt2.4809,"aw",%nobits
 2042              		.align	2
 2043              		.set	.LANCHOR3,. + 0
 2044              		.type	vt2.4809, %object
 2045              		.size	vt2.4809, 20
 2046              	vt2.4809:
 2047 0000 00000000 		.space	20
 2047      00000000 
 2047      00000000 
 2047      00000000 
 2047      00000000 
 2048              		.section	.bss.sem1,"aw",%nobits
 2049              		.align	2
 2050              		.set	.LANCHOR1,. + 0
 2051              		.type	sem1, %object
 2052              		.size	sem1, 12
 2053              	sem1:
 2054 0000 00000000 		.space	12
 2054      00000000 
 2054      00000000 
 2055              		.section	.rodata.testbmk4,"a",%progbits
 2056              		.align	2
 2057              		.type	testbmk4, %object
 2058              		.size	testbmk4, 16
 2059              	testbmk4:
 2060 0000 64020000 		.word	.LC29
 2061 0004 00000000 		.word	0
 2062 0008 00000000 		.word	0
 2063 000c 00000000 		.word	bmk4_execute
 2064              		.section	.rodata.testbmk1,"a",%progbits
 2065              		.align	2
 2066              		.type	testbmk1, %object
 2067              		.size	testbmk1, 16
 2068              	testbmk1:
 2069 0000 B0020000 		.word	.LC32
 2070 0004 00000000 		.word	0
 2071 0008 00000000 		.word	0
 2072 000c 00000000 		.word	bmk1_execute
 2073              		.section	.bss.ib.4795,"aw",%nobits
 2074              		.align	2
 2075              		.set	.LANCHOR5,. + 0
 2076              		.type	ib.4795, %object
 2077              		.size	ib.4795, 16
 2078              	ib.4795:
 2079 0000 00000000 		.space	16
 2079      00000000 
 2079      00000000 
 2079      00000000 
 2080              		.section	.bss.iq.4796,"aw",%nobits
 2081              		.align	2
 2082              		.set	.LANCHOR4,. + 0
ARM GAS  C:\Users\TAISIK~1\AppData\Local\Temp\ccW1qhwC.s 			page 40


 2083              		.type	iq.4796, %object
 2084              		.size	iq.4796, 36
 2085              	iq.4796:
 2086 0000 00000000 		.space	36
 2086      00000000 
 2086      00000000 
 2086      00000000 
 2086      00000000 
 2087              		.section	.rodata.testbmk13,"a",%progbits
 2088              		.align	2
 2089              		.type	testbmk13, %object
 2090              		.size	testbmk13, 16
 2091              	testbmk13:
 2092 0000 28010000 		.word	.LC20
 2093 0004 00000000 		.word	0
 2094 0008 00000000 		.word	0
 2095 000c 00000000 		.word	bmk13_execute
 2096              		.section	.rodata.testbmk5,"a",%progbits
 2097              		.align	2
 2098              		.type	testbmk5, %object
 2099              		.size	testbmk5, 16
 2100              	testbmk5:
 2101 0000 44020000 		.word	.LC28
 2102 0004 00000000 		.word	0
 2103 0008 00000000 		.word	0
 2104 000c 00000000 		.word	bmk5_execute
 2105              		.section	.rodata.testbmk6,"a",%progbits
 2106              		.align	2
 2107              		.type	testbmk6, %object
 2108              		.size	testbmk6, 16
 2109              	testbmk6:
 2110 0000 24020000 		.word	.LC27
 2111 0004 00000000 		.word	0
 2112 0008 00000000 		.word	0
 2113 000c 00000000 		.word	bmk6_execute
 2114              		.section	.rodata.testbmk7,"a",%progbits
 2115              		.align	2
 2116              		.type	testbmk7, %object
 2117              		.size	testbmk7, 16
 2118              	testbmk7:
 2119 0000 FC010000 		.word	.LC26
 2120 0004 00000000 		.word	bmk7_setup
 2121 0008 00000000 		.word	0
 2122 000c 00000000 		.word	bmk7_execute
 2123              		.text
 2124              	.Letext0:
 2125              		.file 2 "c:\\chibistudio\\tools\\gnu tools arm embedded\\4.6 2012q4\\bin\\../lib/gcc/arm-none-eabi
 2126              		.file 3 "c:\\chibistudio\\tools\\gnu tools arm embedded\\4.6 2012q4\\bin\\../lib/gcc/arm-none-eabi
 2127              		.file 4 "../../os/ports/GCC/ARMCMx/chtypes.h"
 2128              		.file 5 "../../os/kernel/include/chlists.h"
 2129              		.file 6 "../../os/kernel/include/chthreads.h"
 2130              		.file 7 "../../os/ports/GCC/ARMCMx/chcore_v7m.h"
 2131              		.file 8 "../../os/kernel/include/chvt.h"
 2132              		.file 9 "../../os/kernel/include/chschd.h"
 2133              		.file 10 "../../os/kernel/include/chsem.h"
 2134              		.file 11 "../../os/kernel/include/chmtx.h"
 2135              		.file 12 "../../os/kernel/include/chqueues.h"
ARM GAS  C:\Users\TAISIK~1\AppData\Local\Temp\ccW1qhwC.s 			page 41


 2136              		.file 13 "../../test/test.h"