ARM GAS  C:\Users\TAISIK~1\AppData\Local\Temp\cc2RcPp8.s 			page 1


   1              		.syntax unified
   2              		.cpu cortex-m4
   3              		.fpu softvfp
   4              		.eabi_attribute 20, 1
   5              		.eabi_attribute 21, 1
   6              		.eabi_attribute 23, 3
   7              		.eabi_attribute 24, 1
   8              		.eabi_attribute 25, 1
   9              		.eabi_attribute 26, 1
  10              		.eabi_attribute 30, 2
  11              		.eabi_attribute 34, 1
  12              		.eabi_attribute 18, 4
  13              		.thumb
  14              		.file	"testevt.c"
  15              		.text
  16              	.Ltext0:
  17              		.cfi_sections	.debug_frame
  18              		.section	.text.evt3_setup,"ax",%progbits
  19              		.align	2
  20              		.p2align 4,,15
  21              		.thumb
  22              		.thumb_func
  23              		.type	evt3_setup, %function
  24              	evt3_setup:
  25              	.LFB16:
  26              		.file 1 "../../test/testevt.c"
  27              		.loc 1 251 0
  28              		.cfi_startproc
  29              		@ args = 0, pretend = 0, frame = 0
  30              		@ frame_needed = 0, uses_anonymous_args = 0
  31              		@ link register save eliminated.
  32              		.loc 1 253 0
  33 0000 4FF0FF30 		mov	r0, #-1
  34              		.loc 1 254 0
  35              		.loc 1 253 0
  36 0004 FFF7FEBF 		b	chEvtGetAndClearEvents
  37              		.cfi_endproc
  38              	.LFE16:
  39              		.size	evt3_setup, .-evt3_setup
  40 0008 AFF30080 		.section	.text.evt2_setup,"ax",%progbits
  40      AFF30080 
  41              		.align	2
  42              		.p2align 4,,15
  43              		.thumb
  44              		.thumb_func
  45              		.type	evt2_setup, %function
  46              	evt2_setup:
  47              	.LFB12:
  48              		.loc 1 132 0
  49              		.cfi_startproc
  50              		@ args = 0, pretend = 0, frame = 0
  51              		@ frame_needed = 0, uses_anonymous_args = 0
  52              		@ link register save eliminated.
  53              		.loc 1 134 0
  54 0000 4FF0FF30 		mov	r0, #-1
  55              		.loc 1 135 0
  56              		.loc 1 134 0
ARM GAS  C:\Users\TAISIK~1\AppData\Local\Temp\cc2RcPp8.s 			page 2


  57 0004 FFF7FEBF 		b	chEvtGetAndClearEvents
  58              		.cfi_endproc
  59              	.LFE12:
  60              		.size	evt2_setup, .-evt2_setup
  61 0008 AFF30080 		.section	.text.evt1_setup,"ax",%progbits
  61      AFF30080 
  62              		.align	2
  63              		.p2align 4,,15
  64              		.thumb
  65              		.thumb_func
  66              		.type	evt1_setup, %function
  67              	evt1_setup:
  68              	.LFB7:
  69              		.loc 1 79 0
  70              		.cfi_startproc
  71              		@ args = 0, pretend = 0, frame = 0
  72              		@ frame_needed = 0, uses_anonymous_args = 0
  73              		@ link register save eliminated.
  74              		.loc 1 81 0
  75 0000 4FF0FF30 		mov	r0, #-1
  76              		.loc 1 82 0
  77              		.loc 1 81 0
  78 0004 FFF7FEBF 		b	chEvtGetAndClearEvents
  79              		.cfi_endproc
  80              	.LFE7:
  81              		.size	evt1_setup, .-evt1_setup
  82 0008 AFF30080 		.section	.text.thread2,"ax",%progbits
  82      AFF30080 
  83              		.align	2
  84              		.p2align 4,,15
  85              		.thumb
  86              		.thumb_func
  87              		.type	thread2, %function
  88              	thread2:
  89              	.LFB14:
  90              		.loc 1 144 0
  91              		.cfi_startproc
  92              		@ args = 0, pretend = 0, frame = 0
  93              		@ frame_needed = 0, uses_anonymous_args = 0
  94              	.LVL0:
  95              		.loc 1 147 0
  96 0000 40F20000 		movw	r0, #:lower16:.LANCHOR0
  97              	.LVL1:
  98              		.loc 1 144 0
  99 0004 08B5     		push	{r3, lr}
 100              	.LCFI0:
 101              		.cfi_def_cfa_offset 8
 102              		.cfi_offset 14, -4
 103              		.cfi_offset 3, -8
 104              		.loc 1 147 0
 105 0006 0021     		movs	r1, #0
 106 0008 C0F20000 		movt	r0, #:upper16:.LANCHOR0
 107 000c FFF7FEFF 		bl	chEvtBroadcastFlags
 108              		.loc 1 148 0
 109 0010 3220     		movs	r0, #50
 110 0012 FFF7FEFF 		bl	chThdSleep
 111              		.loc 1 149 0
ARM GAS  C:\Users\TAISIK~1\AppData\Local\Temp\cc2RcPp8.s 			page 3


 112 0016 40F20000 		movw	r0, #:lower16:.LANCHOR1
 113 001a C0F20000 		movt	r0, #:upper16:.LANCHOR1
 114 001e 0021     		movs	r1, #0
 115 0020 FFF7FEFF 		bl	chEvtBroadcastFlags
 116              		.loc 1 151 0
 117 0024 0020     		movs	r0, #0
 118 0026 08BD     		pop	{r3, pc}
 119              		.cfi_endproc
 120              	.LFE14:
 121              		.size	thread2, .-thread2
 122 0028 AFF30080 		.section	.text.thread1,"ax",%progbits
 122      AFF30080 
 123              		.align	2
 124              		.p2align 4,,15
 125              		.thumb
 126              		.thumb_func
 127              		.type	thread1, %function
 128              	thread1:
 129              	.LFB13:
 130              		.loc 1 137 0
 131              		.cfi_startproc
 132              		@ args = 0, pretend = 0, frame = 0
 133              		@ frame_needed = 0, uses_anonymous_args = 0
 134              	.LVL2:
 135 0000 10B5     		push	{r4, lr}
 136              	.LCFI1:
 137              		.cfi_def_cfa_offset 8
 138              		.cfi_offset 14, -4
 139              		.cfi_offset 4, -8
 140              		.loc 1 137 0
 141 0002 0446     		mov	r4, r0
 142              		.loc 1 139 0
 143 0004 3220     		movs	r0, #50
 144              	.LVL3:
 145 0006 FFF7FEFF 		bl	chThdSleep
 146              		.loc 1 140 0
 147 000a 2046     		mov	r0, r4
 148 000c 0121     		movs	r1, #1
 149 000e FFF7FEFF 		bl	chEvtSignal
 150              		.loc 1 142 0
 151 0012 0020     		movs	r0, #0
 152 0014 10BD     		pop	{r4, pc}
 153              		.cfi_endproc
 154              	.LFE13:
 155              		.size	thread1, .-thread1
 156 0016 00BFAFF3 		.section	.text.evt1_execute,"ax",%progbits
 156      0080AFF3 
 156      0080
 157              		.align	2
 158              		.p2align 4,,15
 159              		.thumb
 160              		.thumb_func
 161              		.type	evt1_execute, %function
 162              	evt1_execute:
 163              	.LFB11:
 164              		.loc 1 89 0
 165              		.cfi_startproc
ARM GAS  C:\Users\TAISIK~1\AppData\Local\Temp\cc2RcPp8.s 			page 4


 166              		@ args = 0, pretend = 0, frame = 32
 167              		@ frame_needed = 0, uses_anonymous_args = 0
 168 0000 10B5     		push	{r4, lr}
 169              	.LCFI2:
 170              		.cfi_def_cfa_offset 8
 171              		.cfi_offset 14, -4
 172              		.cfi_offset 4, -8
 173              		.loc 1 95 0
 174 0002 1D4C     		ldr	r4, .L10
 175              		.loc 1 89 0
 176 0004 88B0     		sub	sp, sp, #32
 177              	.LCFI3:
 178              		.cfi_def_cfa_offset 40
 179              		.loc 1 96 0
 180 0006 0122     		movs	r2, #1
 181 0008 2046     		mov	r0, r4
 182 000a 6946     		mov	r1, sp
 183              		.loc 1 95 0
 184 000c 2460     		str	r4, [r4, #0]
 185              		.loc 1 96 0
 186 000e FFF7FEFF 		bl	chEvtRegisterMask
 187              		.loc 1 97 0
 188 0012 2046     		mov	r0, r4
 189 0014 04A9     		add	r1, sp, #16
 190 0016 0222     		movs	r2, #2
 191 0018 FFF7FEFF 		bl	chEvtRegisterMask
 192              		.loc 1 98 0
 193 001c 2168     		ldr	r1, [r4, #0]
 194 001e 091B     		subs	r1, r1, r4
 195 0020 18BF     		it	ne
 196 0022 0121     		movne	r1, #1
 197 0024 0120     		movs	r0, #1
 198 0026 FFF7FEFF 		bl	_test_assert
 199 002a 08B1     		cbz	r0, .L9
 200              	.L6:
 201              		.loc 1 109 0
 202 002c 08B0     		add	sp, sp, #32
 203 002e 10BD     		pop	{r4, pc}
 204              	.L9:
 205              		.loc 1 99 0
 206 0030 2046     		mov	r0, r4
 207 0032 6946     		mov	r1, sp
 208 0034 FFF7FEFF 		bl	chEvtUnregister
 209              		.loc 1 100 0
 210 0038 2068     		ldr	r0, [r4, #0]
 211 003a 011B     		subs	r1, r0, r4
 212 003c 18BF     		it	ne
 213 003e 0121     		movne	r1, #1
 214 0040 0220     		movs	r0, #2
 215 0042 FFF7FEFF 		bl	_test_assert
 216 0046 0028     		cmp	r0, #0
 217 0048 F0D1     		bne	.L6
 218              		.loc 1 101 0
 219 004a 2046     		mov	r0, r4
 220 004c 04A9     		add	r1, sp, #16
 221 004e FFF7FEFF 		bl	chEvtUnregister
 222              		.loc 1 102 0
ARM GAS  C:\Users\TAISIK~1\AppData\Local\Temp\cc2RcPp8.s 			page 5


 223 0052 2168     		ldr	r1, [r4, #0]
 224 0054 0B1B     		subs	r3, r1, r4
 225 0056 5A42     		rsbs	r2, r3, #0
 226 0058 42EB0301 		adc	r1, r2, r3
 227 005c 0320     		movs	r0, #3
 228 005e FFF7FEFF 		bl	_test_assert
 229 0062 0028     		cmp	r0, #0
 230 0064 E2D1     		bne	.L6
 231              		.loc 1 107 0
 232 0066 0721     		movs	r1, #7
 233 0068 0448     		ldr	r0, .L10+4
 234 006a FFF7FEFF 		bl	chEvtDispatch
 235              		.loc 1 108 0
 236 006e 0420     		movs	r0, #4
 237 0070 0349     		ldr	r1, .L10+8
 238 0072 FFF7FEFF 		bl	_test_assert_sequence
 239 0076 D9E7     		b	.L6
 240              	.L11:
 241              		.align	2
 242              	.L10:
 243 0078 00000000 		.word	.LANCHOR0
 244 007c 00000000 		.word	.LANCHOR2
 245 0080 00000000 		.word	.LC0
 246              		.cfi_endproc
 247              	.LFE11:
 248              		.size	evt1_execute, .-evt1_execute
 249 0084 AFF30080 		.section	.text.h3,"ax",%progbits
 249      AFF30080 
 249      AFF30080 
 250              		.align	2
 251              		.p2align 4,,15
 252              		.thumb
 253              		.thumb_func
 254              		.type	h3, %function
 255              	h3:
 256              	.LFB10:
 257              		.loc 1 86 0
 258              		.cfi_startproc
 259              		@ args = 0, pretend = 0, frame = 0
 260              		@ frame_needed = 0, uses_anonymous_args = 0
 261              		@ link register save eliminated.
 262              	.LVL4:
 263              		.loc 1 86 0
 264 0000 4320     		movs	r0, #67
 265              	.LVL5:
 266 0002 FFF7FEBF 		b	test_emit_token
 267              		.cfi_endproc
 268              	.LFE10:
 269              		.size	h3, .-h3
 270 0006 00BFAFF3 		.section	.text.h2,"ax",%progbits
 270      0080AFF3 
 270      0080
 271              		.align	2
 272              		.p2align 4,,15
 273              		.thumb
 274              		.thumb_func
 275              		.type	h2, %function
ARM GAS  C:\Users\TAISIK~1\AppData\Local\Temp\cc2RcPp8.s 			page 6


 276              	h2:
 277              	.LFB9:
 278              		.loc 1 85 0
 279              		.cfi_startproc
 280              		@ args = 0, pretend = 0, frame = 0
 281              		@ frame_needed = 0, uses_anonymous_args = 0
 282              		@ link register save eliminated.
 283              	.LVL6:
 284              		.loc 1 85 0
 285 0000 4220     		movs	r0, #66
 286              	.LVL7:
 287 0002 FFF7FEBF 		b	test_emit_token
 288              		.cfi_endproc
 289              	.LFE9:
 290              		.size	h2, .-h2
 291 0006 00BFAFF3 		.section	.text.h1,"ax",%progbits
 291      0080AFF3 
 291      0080
 292              		.align	2
 293              		.p2align 4,,15
 294              		.thumb
 295              		.thumb_func
 296              		.type	h1, %function
 297              	h1:
 298              	.LFB8:
 299              		.loc 1 84 0
 300              		.cfi_startproc
 301              		@ args = 0, pretend = 0, frame = 0
 302              		@ frame_needed = 0, uses_anonymous_args = 0
 303              		@ link register save eliminated.
 304              	.LVL8:
 305              		.loc 1 84 0
 306 0000 4120     		movs	r0, #65
 307              	.LVL9:
 308 0002 FFF7FEBF 		b	test_emit_token
 309              		.cfi_endproc
 310              	.LFE8:
 311              		.size	h1, .-h1
 312 0006 00BFAFF3 		.section	.text.evt3_execute,"ax",%progbits
 312      0080AFF3 
 312      0080
 313              		.align	2
 314              		.p2align 4,,15
 315              		.thumb
 316              		.thumb_func
 317              		.type	evt3_execute, %function
 318              	evt3_execute:
 319              	.LFB17:
 320              		.loc 1 256 0
 321              		.cfi_startproc
 322              		@ args = 0, pretend = 0, frame = 0
 323              		@ frame_needed = 0, uses_anonymous_args = 0
 324              		.loc 1 262 0
 325 0000 0021     		movs	r1, #0
 326              		.loc 1 256 0
 327 0002 08B5     		push	{r3, lr}
 328              	.LCFI4:
ARM GAS  C:\Users\TAISIK~1\AppData\Local\Temp\cc2RcPp8.s 			page 7


 329              		.cfi_def_cfa_offset 8
 330              		.cfi_offset 14, -4
 331              		.cfi_offset 3, -8
 332              		.loc 1 262 0
 333 0004 4FF0FF30 		mov	r0, #-1
 334 0008 FFF7FEFF 		bl	chEvtWaitOneTimeout
 335              	.LVL10:
 336              		.loc 1 263 0
 337 000c D0F10101 		rsbs	r1, r0, #1
 338 0010 38BF     		it	cc
 339 0012 0021     		movcc	r1, #0
 340 0014 0120     		movs	r0, #1
 341              	.LVL11:
 342 0016 FFF7FEFF 		bl	_test_assert
 343 001a 00B1     		cbz	r0, .L17
 344              	.L15:
 345 001c 08BD     		pop	{r3, pc}
 346              	.L17:
 347              		.loc 1 264 0
 348 001e 0146     		mov	r1, r0
 349 0020 4FF0FF30 		mov	r0, #-1
 350 0024 FFF7FEFF 		bl	chEvtWaitAnyTimeout
 351              	.LVL12:
 352              		.loc 1 265 0
 353 0028 D0F10101 		rsbs	r1, r0, #1
 354 002c 38BF     		it	cc
 355 002e 0021     		movcc	r1, #0
 356 0030 0220     		movs	r0, #2
 357              	.LVL13:
 358 0032 FFF7FEFF 		bl	_test_assert
 359 0036 0028     		cmp	r0, #0
 360 0038 F0D1     		bne	.L15
 361              		.loc 1 266 0
 362 003a 0146     		mov	r1, r0
 363 003c 4FF0FF30 		mov	r0, #-1
 364 0040 FFF7FEFF 		bl	chEvtWaitAllTimeout
 365              	.LVL14:
 366              		.loc 1 267 0
 367 0044 D0F10101 		rsbs	r1, r0, #1
 368 0048 38BF     		it	cc
 369 004a 0021     		movcc	r1, #0
 370 004c 0320     		movs	r0, #3
 371              	.LVL15:
 372 004e FFF7FEFF 		bl	_test_assert
 373 0052 0028     		cmp	r0, #0
 374 0054 E2D1     		bne	.L15
 375              	.LBB4:
 376              	.LBB5:
 377              		.loc 1 268 0
 378 0056 0A21     		movs	r1, #10
 379 0058 4FF0FF30 		mov	r0, #-1
 380 005c FFF7FEFF 		bl	chEvtWaitOneTimeout
 381              	.LVL16:
 382              		.loc 1 269 0
 383 0060 D0F10101 		rsbs	r1, r0, #1
 384 0064 38BF     		it	cc
 385 0066 0021     		movcc	r1, #0
ARM GAS  C:\Users\TAISIK~1\AppData\Local\Temp\cc2RcPp8.s 			page 8


 386 0068 0420     		movs	r0, #4
 387              	.LVL17:
 388 006a FFF7FEFF 		bl	_test_assert
 389 006e 0028     		cmp	r0, #0
 390 0070 D4D1     		bne	.L15
 391              		.loc 1 270 0
 392 0072 0A21     		movs	r1, #10
 393 0074 4FF0FF30 		mov	r0, #-1
 394 0078 FFF7FEFF 		bl	chEvtWaitAnyTimeout
 395              	.LVL18:
 396              		.loc 1 271 0
 397 007c D0F10101 		rsbs	r1, r0, #1
 398 0080 38BF     		it	cc
 399 0082 0021     		movcc	r1, #0
 400 0084 0520     		movs	r0, #5
 401              	.LVL19:
 402 0086 FFF7FEFF 		bl	_test_assert
 403 008a 0028     		cmp	r0, #0
 404 008c C6D1     		bne	.L15
 405              		.loc 1 272 0
 406 008e 0A21     		movs	r1, #10
 407 0090 4FF0FF30 		mov	r0, #-1
 408 0094 FFF7FEFF 		bl	chEvtWaitAllTimeout
 409              	.LVL20:
 410              		.loc 1 273 0
 411 0098 D0F10101 		rsbs	r1, r0, #1
 412 009c 38BF     		it	cc
 413 009e 0021     		movcc	r1, #0
 414 00a0 0620     		movs	r0, #6
 415              	.LVL21:
 416              	.LBE5:
 417              	.LBE4:
 418              		.loc 1 274 0
 419 00a2 BDE80840 		pop	{r3, lr}
 420              	.LBB7:
 421              	.LBB6:
 422              		.loc 1 273 0
 423 00a6 FFF7FEBF 		b	_test_assert
 424              	.LBE6:
 425              	.LBE7:
 426              		.cfi_endproc
 427              	.LFE17:
 428              		.size	evt3_execute, .-evt3_execute
 429 00aa 00BFAFF3 		.section	.text.evt2_execute,"ax",%progbits
 429      0080
 430              		.align	2
 431              		.p2align 4,,15
 432              		.thumb
 433              		.thumb_func
 434              		.type	evt2_execute, %function
 435              	evt2_execute:
 436              	.LFB15:
 437              		.loc 1 153 0
 438              		.cfi_startproc
 439              		@ args = 0, pretend = 0, frame = 32
 440              		@ frame_needed = 0, uses_anonymous_args = 0
 441 0000 2DE9F043 		push	{r4, r5, r6, r7, r8, r9, lr}
ARM GAS  C:\Users\TAISIK~1\AppData\Local\Temp\cc2RcPp8.s 			page 9


 442              	.LCFI5:
 443              		.cfi_def_cfa_offset 28
 444              		.cfi_offset 14, -4
 445              		.cfi_offset 9, -8
 446              		.cfi_offset 8, -12
 447              		.cfi_offset 7, -16
 448              		.cfi_offset 6, -20
 449              		.cfi_offset 5, -24
 450              		.cfi_offset 4, -28
 451              		.loc 1 161 0
 452 0004 0520     		movs	r0, #5
 453              		.loc 1 153 0
 454 0006 8BB0     		sub	sp, sp, #44
 455              	.LCFI6:
 456              		.cfi_def_cfa_offset 72
 457              		.loc 1 161 0
 458 0008 FFF7FEFF 		bl	chEvtAddEvents
 459              		.loc 1 162 0
 460 000c 4FF0FF30 		mov	r0, #-1
 461 0010 FFF7FEFF 		bl	chEvtWaitOne
 462              	.LVL22:
 463              		.loc 1 163 0
 464 0014 A0F10100 		sub	r0, r0, #1
 465              	.LVL23:
 466 0018 4142     		rsbs	r1, r0, #0
 467 001a 41EB0001 		adc	r1, r1, r0
 468 001e 0120     		movs	r0, #1
 469              	.LVL24:
 470 0020 FFF7FEFF 		bl	_test_assert
 471 0024 10B1     		cbz	r0, .L20
 472              	.L18:
 473              		.loc 1 226 0
 474 0026 0BB0     		add	sp, sp, #44
 475 0028 BDE8F083 		pop	{r4, r5, r6, r7, r8, r9, pc}
 476              	.L20:
 477              		.loc 1 164 0
 478 002c 4FF0FF30 		mov	r0, #-1
 479 0030 FFF7FEFF 		bl	chEvtWaitOne
 480              	.LVL25:
 481              		.loc 1 165 0
 482 0034 A0F10402 		sub	r2, r0, #4
 483 0038 5342     		rsbs	r3, r2, #0
 484 003a 43EB0201 		adc	r1, r3, r2
 485 003e 0220     		movs	r0, #2
 486              	.LVL26:
 487 0040 FFF7FEFF 		bl	_test_assert
 488              	.LVL27:
 489 0044 0028     		cmp	r0, #0
 490 0046 EED1     		bne	.L18
 491              		.loc 1 166 0
 492 0048 4FF0FF30 		mov	r0, #-1
 493 004c FFF7FEFF 		bl	chEvtGetAndClearEvents
 494              	.LVL28:
 495              		.loc 1 167 0
 496 0050 D0F10101 		rsbs	r1, r0, #1
 497 0054 38BF     		it	cc
 498 0056 0021     		movcc	r1, #0
ARM GAS  C:\Users\TAISIK~1\AppData\Local\Temp\cc2RcPp8.s 			page 10


 499 0058 0320     		movs	r0, #3
 500              	.LVL29:
 501 005a FFF7FEFF 		bl	_test_assert
 502 005e 0028     		cmp	r0, #0
 503 0060 E1D1     		bne	.L18
 504              	.LBB10:
 505              	.LBB11:
 506              		.loc 1 174 0
 507 0062 784F     		ldr	r7, .L21
 508 0064 784C     		ldr	r4, .L21+4
 509              		.loc 1 173 0
 510 0066 794E     		ldr	r6, .L21+8
 511              		.loc 1 174 0
 512 0068 794D     		ldr	r5, .L21+12
 513              		.loc 1 172 0
 514 006a FFF7FEFF 		bl	test_wait_tick
 515              		.loc 1 174 0
 516 006e BA69     		ldr	r2, [r7, #24]
 517 0070 D4F80080 		ldr	r8, [r4, #0]
 518 0074 9068     		ldr	r0, [r2, #8]
 519              		.loc 1 173 0
 520 0076 F468     		ldr	r4, [r6, #12]
 521              	.LVL30:
 522              		.loc 1 174 0
 523 0078 764B     		ldr	r3, .L21+16
 524 007a 0092     		str	r2, [sp, #0]
 525 007c 4FF49871 		mov	r1, #304
 526 0080 421E     		subs	r2, r0, #1
 527 0082 4046     		mov	r0, r8
 528 0084 FFF7FEFF 		bl	chThdCreateStatic
 529 0088 0146     		mov	r1, r0
 530              		.loc 1 176 0
 531 008a 4FF0FF30 		mov	r0, #-1
 532              		.loc 1 174 0
 533 008e 2960     		str	r1, [r5, #0]
 534              		.loc 1 176 0
 535 0090 FFF7FEFF 		bl	chEvtWaitOne
 536              		.loc 1 173 0
 537 0094 04F13201 		add	r1, r4, #50
 538              		.loc 1 176 0
 539 0098 8146     		mov	r9, r0
 540              	.LVL31:
 541              		.loc 1 177 0
 542 009a 04F13702 		add	r2, r4, #55
 543 009e 0420     		movs	r0, #4
 544              	.LVL32:
 545 00a0 FFF7FEFF 		bl	_test_assert_time_window
 546 00a4 0028     		cmp	r0, #0
 547 00a6 BED1     		bne	.L18
 548              		.loc 1 178 0
 549 00a8 A9F1010E 		sub	lr, r9, #1
 550 00ac DEF1000C 		rsbs	ip, lr, #0
 551 00b0 4CEB0E01 		adc	r1, ip, lr
 552 00b4 0520     		movs	r0, #5
 553 00b6 FFF7FEFF 		bl	_test_assert
 554 00ba 0028     		cmp	r0, #0
 555 00bc B3D1     		bne	.L18
ARM GAS  C:\Users\TAISIK~1\AppData\Local\Temp\cc2RcPp8.s 			page 11


 556              		.loc 1 179 0
 557 00be 4FF0FF30 		mov	r0, #-1
 558 00c2 FFF7FEFF 		bl	chEvtGetAndClearEvents
 559              	.LVL33:
 560              		.loc 1 180 0
 561 00c6 D0F10101 		rsbs	r1, r0, #1
 562 00ca 38BF     		it	cc
 563 00cc 0021     		movcc	r1, #0
 564 00ce 0620     		movs	r0, #6
 565              	.LVL34:
 566 00d0 FFF7FEFF 		bl	_test_assert
 567 00d4 0028     		cmp	r0, #0
 568 00d6 A6D1     		bne	.L18
 569              		.loc 1 181 0
 570 00d8 FFF7FEFF 		bl	test_wait_threads
 571              		.loc 1 186 0
 572 00dc 0520     		movs	r0, #5
 573 00de FFF7FEFF 		bl	chEvtAddEvents
 574              		.loc 1 187 0
 575 00e2 4FF0FF30 		mov	r0, #-1
 576 00e6 FFF7FEFF 		bl	chEvtWaitAny
 577              	.LVL35:
 578              		.loc 1 188 0
 579 00ea A0F10501 		sub	r1, r0, #5
 580 00ee 4B42     		rsbs	r3, r1, #0
 581 00f0 43EB0101 		adc	r1, r3, r1
 582 00f4 0720     		movs	r0, #7
 583              	.LVL36:
 584 00f6 FFF7FEFF 		bl	_test_assert
 585 00fa 0028     		cmp	r0, #0
 586 00fc 93D1     		bne	.L18
 587              		.loc 1 189 0
 588 00fe 4FF0FF30 		mov	r0, #-1
 589 0102 FFF7FEFF 		bl	chEvtGetAndClearEvents
 590              	.LVL37:
 591              		.loc 1 190 0
 592 0106 D0F10101 		rsbs	r1, r0, #1
 593 010a 38BF     		it	cc
 594 010c 0021     		movcc	r1, #0
 595 010e 0820     		movs	r0, #8
 596              	.LVL38:
 597 0110 FFF7FEFF 		bl	_test_assert
 598 0114 0028     		cmp	r0, #0
 599 0116 86D1     		bne	.L18
 600              		.loc 1 195 0
 601 0118 FFF7FEFF 		bl	test_wait_tick
 602              		.loc 1 197 0
 603 011c B969     		ldr	r1, [r7, #24]
 604              		.loc 1 196 0
 605 011e F468     		ldr	r4, [r6, #12]
 606              	.LVL39:
 607              		.loc 1 197 0
 608 0120 8868     		ldr	r0, [r1, #8]
 609 0122 4C4B     		ldr	r3, .L21+16
 610 0124 0091     		str	r1, [sp, #0]
 611 0126 421E     		subs	r2, r0, #1
 612 0128 4FF49871 		mov	r1, #304
ARM GAS  C:\Users\TAISIK~1\AppData\Local\Temp\cc2RcPp8.s 			page 12


 613 012c 4046     		mov	r0, r8
 614 012e FFF7FEFF 		bl	chThdCreateStatic
 615 0132 0246     		mov	r2, r0
 616              		.loc 1 199 0
 617 0134 4FF0FF30 		mov	r0, #-1
 618              		.loc 1 197 0
 619 0138 2A60     		str	r2, [r5, #0]
 620              		.loc 1 199 0
 621 013a FFF7FEFF 		bl	chEvtWaitAny
 622              		.loc 1 196 0
 623 013e 04F13201 		add	r1, r4, #50
 624              		.loc 1 199 0
 625 0142 8146     		mov	r9, r0
 626              	.LVL40:
 627              		.loc 1 200 0
 628 0144 04F13702 		add	r2, r4, #55
 629 0148 0920     		movs	r0, #9
 630              	.LVL41:
 631 014a FFF7FEFF 		bl	_test_assert_time_window
 632 014e 0028     		cmp	r0, #0
 633 0150 7FF469AF 		bne	.L18
 634              		.loc 1 201 0
 635 0154 A9F10102 		sub	r2, r9, #1
 636 0158 5342     		rsbs	r3, r2, #0
 637 015a 43EB0201 		adc	r1, r3, r2
 638 015e 0A20     		movs	r0, #10
 639 0160 FFF7FEFF 		bl	_test_assert
 640 0164 0028     		cmp	r0, #0
 641 0166 7FF45EAF 		bne	.L18
 642              		.loc 1 202 0
 643 016a 4FF0FF30 		mov	r0, #-1
 644 016e FFF7FEFF 		bl	chEvtGetAndClearEvents
 645              	.LVL42:
 646              		.loc 1 203 0
 647 0172 D0F10101 		rsbs	r1, r0, #1
 648 0176 38BF     		it	cc
 649 0178 0021     		movcc	r1, #0
 650 017a 0B20     		movs	r0, #11
 651              	.LVL43:
 652 017c FFF7FEFF 		bl	_test_assert
 653 0180 0028     		cmp	r0, #0
 654 0182 7FF450AF 		bne	.L18
 655              		.loc 1 209 0
 656 0186 344C     		ldr	r4, .L21+20
 657              	.LVL44:
 658              		.loc 1 210 0
 659 0188 DFF8D890 		ldr	r9, .L21+32
 660              		.loc 1 204 0
 661 018c FFF7FEFF 		bl	test_wait_threads
 662              		.loc 1 211 0
 663 0190 2046     		mov	r0, r4
 664 0192 02A9     		add	r1, sp, #8
 665 0194 0122     		movs	r2, #1
 666              		.loc 1 209 0
 667 0196 2460     		str	r4, [r4, #0]
 668              		.loc 1 210 0
 669 0198 C9F80090 		str	r9, [r9, #0]
ARM GAS  C:\Users\TAISIK~1\AppData\Local\Temp\cc2RcPp8.s 			page 13


 670              		.loc 1 211 0
 671 019c FFF7FEFF 		bl	chEvtRegisterMask
 672              		.loc 1 212 0
 673 01a0 06A9     		add	r1, sp, #24
 674 01a2 0422     		movs	r2, #4
 675 01a4 4846     		mov	r0, r9
 676 01a6 FFF7FEFF 		bl	chEvtRegisterMask
 677              		.loc 1 213 0
 678 01aa FFF7FEFF 		bl	test_wait_tick
 679              		.loc 1 215 0
 680 01ae BB69     		ldr	r3, [r7, #24]
 681 01b0 2A4A     		ldr	r2, .L21+24
 682 01b2 9868     		ldr	r0, [r3, #8]
 683              		.loc 1 214 0
 684 01b4 F668     		ldr	r6, [r6, #12]
 685              	.LVL45:
 686              		.loc 1 215 0
 687 01b6 2A4B     		ldr	r3, .L21+28
 688 01b8 0092     		str	r2, [sp, #0]
 689 01ba 4FF49871 		mov	r1, #304
 690 01be 421E     		subs	r2, r0, #1
 691 01c0 4046     		mov	r0, r8
 692 01c2 FFF7FEFF 		bl	chThdCreateStatic
 693 01c6 0146     		mov	r1, r0
 694              		.loc 1 217 0
 695 01c8 0520     		movs	r0, #5
 696              		.loc 1 215 0
 697 01ca 2960     		str	r1, [r5, #0]
 698              		.loc 1 217 0
 699 01cc FFF7FEFF 		bl	chEvtWaitAll
 700              		.loc 1 214 0
 701 01d0 06F13201 		add	r1, r6, #50
 702              		.loc 1 218 0
 703 01d4 06F13702 		add	r2, r6, #55
 704 01d8 0C20     		movs	r0, #12
 705 01da FFF7FEFF 		bl	_test_assert_time_window
 706 01de 0028     		cmp	r0, #0
 707 01e0 7FF421AF 		bne	.L18
 708              		.loc 1 219 0
 709 01e4 4FF0FF30 		mov	r0, #-1
 710 01e8 FFF7FEFF 		bl	chEvtGetAndClearEvents
 711              	.LVL46:
 712              		.loc 1 220 0
 713 01ec D0F10101 		rsbs	r1, r0, #1
 714 01f0 38BF     		it	cc
 715 01f2 0021     		movcc	r1, #0
 716 01f4 0D20     		movs	r0, #13
 717              	.LVL47:
 718 01f6 FFF7FEFF 		bl	_test_assert
 719 01fa 0028     		cmp	r0, #0
 720 01fc 7FF413AF 		bne	.L18
 721              		.loc 1 221 0
 722 0200 FFF7FEFF 		bl	test_wait_threads
 723              		.loc 1 222 0
 724 0204 2046     		mov	r0, r4
 725 0206 02A9     		add	r1, sp, #8
 726 0208 FFF7FEFF 		bl	chEvtUnregister
ARM GAS  C:\Users\TAISIK~1\AppData\Local\Temp\cc2RcPp8.s 			page 14


 727              		.loc 1 223 0
 728 020c 4846     		mov	r0, r9
 729 020e 06A9     		add	r1, sp, #24
 730 0210 FFF7FEFF 		bl	chEvtUnregister
 731              		.loc 1 224 0
 732 0214 2068     		ldr	r0, [r4, #0]
 733 0216 011B     		subs	r1, r0, r4
 734 0218 D1F1000C 		rsbs	ip, r1, #0
 735 021c 4CEB0101 		adc	r1, ip, r1
 736 0220 0E20     		movs	r0, #14
 737 0222 FFF7FEFF 		bl	_test_assert
 738 0226 0028     		cmp	r0, #0
 739 0228 7FF4FDAE 		bne	.L18
 740              		.loc 1 225 0
 741 022c D9F80020 		ldr	r2, [r9, #0]
 742 0230 C9EB020E 		rsb	lr, r9, r2
 743 0234 DEF10003 		rsbs	r3, lr, #0
 744 0238 43EB0E01 		adc	r1, r3, lr
 745 023c 0F20     		movs	r0, #15
 746 023e FFF7FEFF 		bl	_test_assert
 747 0242 F0E6     		b	.L18
 748              	.L22:
 749              		.align	2
 750              	.L21:
 751 0244 00000000 		.word	rlist
 752 0248 00000000 		.word	wa
 753 024c 00000000 		.word	vtlist
 754 0250 00000000 		.word	threads
 755 0254 00000000 		.word	thread1
 756 0258 00000000 		.word	.LANCHOR0
 757 025c 04000000 		.word	.LC1
 758 0260 00000000 		.word	thread2
 759 0264 00000000 		.word	.LANCHOR1
 760              	.LBE11:
 761              	.LBE10:
 762              		.cfi_endproc
 763              	.LFE15:
 764              		.size	evt2_execute, .-evt2_execute
 765              		.global	patternevt
 766              		.global	testevt3
 767              		.global	testevt2
 768              		.global	testevt1
 769 0268 AFF30080 		.section	.rodata.patternevt,"a",%progbits
 769      AFF30080 
 770              		.align	2
 771              		.type	patternevt, %object
 772              		.size	patternevt, 16
 773              	patternevt:
 774 0000 00000000 		.word	testevt1
 775 0004 00000000 		.word	testevt2
 776 0008 00000000 		.word	testevt3
 777 000c 00000000 		.word	0
 778              		.section	.rodata.testevt2,"a",%progbits
 779              		.align	2
 780              		.type	testevt2, %object
 781              		.size	testevt2, 16
 782              	testevt2:
ARM GAS  C:\Users\TAISIK~1\AppData\Local\Temp\cc2RcPp8.s 			page 15


 783 0000 1C000000 		.word	.LC3
 784 0004 00000000 		.word	evt2_setup
 785 0008 00000000 		.word	0
 786 000c 00000000 		.word	evt2_execute
 787              		.section	.rodata.str1.4,"aMS",%progbits,1
 788              		.align	2
 789              	.LC0:
 790 0000 41424300 		.ascii	"ABC\000"
 791              	.LC1:
 792 0004 4100     		.ascii	"A\000"
 793 0006 0000     		.space	2
 794              	.LC2:
 795 0008 4576656E 		.ascii	"Events, timeouts\000"
 795      74732C20 
 795      74696D65 
 795      6F757473 
 795      00
 796 0019 000000   		.space	3
 797              	.LC3:
 798 001c 4576656E 		.ascii	"Events, wait and broadcast\000"
 798      74732C20 
 798      77616974 
 798      20616E64 
 798      2062726F 
 799 0037 00       		.space	1
 800              	.LC4:
 801 0038 4576656E 		.ascii	"Events, registration and dispatch\000"
 801      74732C20 
 801      72656769 
 801      73747261 
 801      74696F6E 
 802 005a 0000     		.section	.rodata.testevt1,"a",%progbits
 803              		.align	2
 804              		.type	testevt1, %object
 805              		.size	testevt1, 16
 806              	testevt1:
 807 0000 38000000 		.word	.LC4
 808 0004 00000000 		.word	evt1_setup
 809 0008 00000000 		.word	0
 810 000c 00000000 		.word	evt1_execute
 811              		.section	.rodata.evhndl,"a",%progbits
 812              		.align	2
 813              		.set	.LANCHOR2,. + 0
 814              		.type	evhndl, %object
 815              		.size	evhndl, 12
 816              	evhndl:
 817 0000 00000000 		.word	h1
 818 0004 00000000 		.word	h2
 819 0008 00000000 		.word	h3
 820              		.section	.rodata.testevt3,"a",%progbits
 821              		.align	2
 822              		.type	testevt3, %object
 823              		.size	testevt3, 16
 824              	testevt3:
 825 0000 08000000 		.word	.LC2
 826 0004 00000000 		.word	evt3_setup
 827 0008 00000000 		.word	0
ARM GAS  C:\Users\TAISIK~1\AppData\Local\Temp\cc2RcPp8.s 			page 16


 828 000c 00000000 		.word	evt3_execute
 829              		.section	.data.es1,"aw",%progbits
 830              		.align	2
 831              		.set	.LANCHOR0,. + 0
 832              		.type	es1, %object
 833              		.size	es1, 4
 834              	es1:
 835 0000 00000000 		.word	es1
 836              		.section	.data.es2,"aw",%progbits
 837              		.align	2
 838              		.set	.LANCHOR1,. + 0
 839              		.type	es2, %object
 840              		.size	es2, 4
 841              	es2:
 842 0000 00000000 		.word	es2
 843              		.text
 844              	.Letext0:
 845              		.file 2 "c:\\chibistudio\\tools\\gnu tools arm embedded\\4.6 2012q4\\bin\\../lib/gcc/arm-none-eabi
 846              		.file 3 "../../os/ports/GCC/ARMCMx/chtypes.h"
 847              		.file 4 "../../os/kernel/include/chlists.h"
 848              		.file 5 "../../os/kernel/include/chthreads.h"
 849              		.file 6 "../../os/ports/GCC/ARMCMx/chcore_v7m.h"
 850              		.file 7 "../../os/kernel/include/chvt.h"
 851              		.file 8 "../../os/kernel/include/chschd.h"
 852              		.file 9 "../../os/kernel/include/chmtx.h"
 853              		.file 10 "../../os/kernel/include/chevents.h"
 854              		.file 11 "../../test/test.h"