ARM GAS  C:\Users\TAISIK~1\AppData\Local\Temp\ccZJTFka.s 			page 1


   1              		.syntax unified
   2              		.cpu cortex-m4
   3              		.fpu softvfp
   4              		.eabi_attribute 20, 1
   5              		.eabi_attribute 21, 1
   6              		.eabi_attribute 23, 3
   7              		.eabi_attribute 24, 1
   8              		.eabi_attribute 25, 1
   9              		.eabi_attribute 26, 1
  10              		.eabi_attribute 30, 2
  11              		.eabi_attribute 34, 1
  12              		.eabi_attribute 18, 4
  13              		.thumb
  14              		.file	"testqueues.c"
  15              		.text
  16              	.Ltext0:
  17              		.cfi_sections	.debug_frame
  18              		.section	.text.notify,"ax",%progbits
  19              		.align	2
  20              		.p2align 4,,15
  21              		.thumb
  22              		.thumb_func
  23              		.type	notify, %function
  24              	notify:
  25              	.LFB7:
  26              		.file 1 "../../test/testqueues.c"
  27              		.loc 1 61 0
  28              		.cfi_startproc
  29              		@ args = 0, pretend = 0, frame = 0
  30              		@ frame_needed = 0, uses_anonymous_args = 0
  31              		@ link register save eliminated.
  32              	.LVL0:
  33              		.loc 1 63 0
  34 0000 7047     		bx	lr
  35              		.cfi_endproc
  36              	.LFE7:
  37              		.size	notify, .-notify
  38 0002 00BFAFF3 		.section	.text.thread2,"ax",%progbits
  38      0080AFF3 
  38      0080AFF3 
  38      0080
  39              		.align	2
  40              		.p2align 4,,15
  41              		.thumb
  42              		.thumb_func
  43              		.type	thread2, %function
  44              	thread2:
  45              	.LFB12:
  46              		.loc 1 174 0
  47              		.cfi_startproc
  48              		@ args = 0, pretend = 0, frame = 0
  49              		@ frame_needed = 0, uses_anonymous_args = 0
  50              	.LVL1:
  51              		.loc 1 177 0
  52 0000 40F20000 		movw	r0, #:lower16:.LANCHOR0
  53              	.LVL2:
  54              		.loc 1 174 0
ARM GAS  C:\Users\TAISIK~1\AppData\Local\Temp\ccZJTFka.s 			page 2


  55 0004 08B5     		push	{r3, lr}
  56              	.LCFI0:
  57              		.cfi_def_cfa_offset 8
  58              		.cfi_offset 14, -4
  59              		.cfi_offset 3, -8
  60              		.loc 1 177 0
  61 0006 0021     		movs	r1, #0
  62 0008 C822     		movs	r2, #200
  63 000a C0F20000 		movt	r0, #:upper16:.LANCHOR0
  64 000e FFF7FEFF 		bl	chOQPutTimeout
  65              		.loc 1 179 0
  66 0012 0020     		movs	r0, #0
  67 0014 08BD     		pop	{r3, pc}
  68              		.cfi_endproc
  69              	.LFE12:
  70              		.size	thread2, .-thread2
  71 0016 00BFAFF3 		.section	.text.queues2_setup,"ax",%progbits
  71      0080AFF3 
  71      0080
  72              		.align	2
  73              		.p2align 4,,15
  74              		.thumb
  75              		.thumb_func
  76              		.type	queues2_setup, %function
  77              	queues2_setup:
  78              	.LFB11:
  79              		.loc 1 169 0
  80              		.cfi_startproc
  81              		@ args = 0, pretend = 0, frame = 0
  82              		@ frame_needed = 0, uses_anonymous_args = 0
  83 0000 00B5     		push	{lr}
  84              	.LCFI1:
  85              		.cfi_def_cfa_offset 4
  86              		.cfi_offset 14, -4
  87              		.loc 1 171 0
  88 0002 40F20003 		movw	r3, #:lower16:wa
  89 0006 C0F20003 		movt	r3, #:upper16:wa
  90              		.loc 1 169 0
  91 000a 83B0     		sub	sp, sp, #12
  92              	.LCFI2:
  93              		.cfi_def_cfa_offset 16
  94              		.loc 1 171 0
  95 000c 0022     		movs	r2, #0
  96 000e 1968     		ldr	r1, [r3, #0]
  97 0010 0092     		str	r2, [sp, #0]
  98 0012 40F20000 		movw	r0, #:lower16:.LANCHOR0
  99 0016 40F20003 		movw	r3, #:lower16:notify
 100 001a C0F20003 		movt	r3, #:upper16:notify
 101 001e C0F20000 		movt	r0, #:upper16:.LANCHOR0
 102 0022 0422     		movs	r2, #4
 103 0024 FFF7FEFF 		bl	chOQInit
 104              		.loc 1 172 0
 105 0028 03B0     		add	sp, sp, #12
 106 002a 00BD     		pop	{pc}
 107              		.cfi_endproc
 108              	.LFE11:
 109              		.size	queues2_setup, .-queues2_setup
ARM GAS  C:\Users\TAISIK~1\AppData\Local\Temp\ccZJTFka.s 			page 3


 110 002c AFF30080 		.section	.text.thread1,"ax",%progbits
 111              		.align	2
 112              		.p2align 4,,15
 113              		.thumb
 114              		.thumb_func
 115              		.type	thread1, %function
 116              	thread1:
 117              	.LFB9:
 118              		.loc 1 87 0
 119              		.cfi_startproc
 120              		@ args = 0, pretend = 0, frame = 0
 121              		@ frame_needed = 0, uses_anonymous_args = 0
 122              	.LVL3:
 123              		.loc 1 90 0
 124 0000 40F20000 		movw	r0, #:lower16:.LANCHOR1
 125              	.LVL4:
 126              		.loc 1 87 0
 127 0004 08B5     		push	{r3, lr}
 128              	.LCFI3:
 129              		.cfi_def_cfa_offset 8
 130              		.cfi_offset 14, -4
 131              		.cfi_offset 3, -8
 132              		.loc 1 90 0
 133 0006 C821     		movs	r1, #200
 134 0008 C0F20000 		movt	r0, #:upper16:.LANCHOR1
 135 000c FFF7FEFF 		bl	chIQGetTimeout
 136              		.loc 1 92 0
 137 0010 0020     		movs	r0, #0
 138 0012 08BD     		pop	{r3, pc}
 139              		.cfi_endproc
 140              	.LFE9:
 141              		.size	thread1, .-thread1
 142 0014 AFF30080 		.section	.text.queues1_setup,"ax",%progbits
 142      AFF30080 
 142      AFF30080 
 143              		.align	2
 144              		.p2align 4,,15
 145              		.thumb
 146              		.thumb_func
 147              		.type	queues1_setup, %function
 148              	queues1_setup:
 149              	.LFB8:
 150              		.loc 1 82 0
 151              		.cfi_startproc
 152              		@ args = 0, pretend = 0, frame = 0
 153              		@ frame_needed = 0, uses_anonymous_args = 0
 154 0000 00B5     		push	{lr}
 155              	.LCFI4:
 156              		.cfi_def_cfa_offset 4
 157              		.cfi_offset 14, -4
 158              		.loc 1 84 0
 159 0002 40F20003 		movw	r3, #:lower16:wa
 160 0006 C0F20003 		movt	r3, #:upper16:wa
 161              		.loc 1 82 0
 162 000a 83B0     		sub	sp, sp, #12
 163              	.LCFI5:
 164              		.cfi_def_cfa_offset 16
ARM GAS  C:\Users\TAISIK~1\AppData\Local\Temp\ccZJTFka.s 			page 4


 165              		.loc 1 84 0
 166 000c 0022     		movs	r2, #0
 167 000e 1968     		ldr	r1, [r3, #0]
 168 0010 0092     		str	r2, [sp, #0]
 169 0012 40F20000 		movw	r0, #:lower16:.LANCHOR1
 170 0016 40F20003 		movw	r3, #:lower16:notify
 171 001a C0F20003 		movt	r3, #:upper16:notify
 172 001e C0F20000 		movt	r0, #:upper16:.LANCHOR1
 173 0022 0422     		movs	r2, #4
 174 0024 FFF7FEFF 		bl	chIQInit
 175              		.loc 1 85 0
 176 0028 03B0     		add	sp, sp, #12
 177 002a 00BD     		pop	{pc}
 178              		.cfi_endproc
 179              	.LFE8:
 180              		.size	queues1_setup, .-queues1_setup
 181 002c AFF30080 		.section	.text.queues2_execute,"ax",%progbits
 182              		.align	2
 183              		.p2align 4,,15
 184              		.thumb
 185              		.thumb_func
 186              		.type	queues2_execute, %function
 187              	queues2_execute:
 188              	.LFB13:
 189              		.loc 1 181 0
 190              		.cfi_startproc
 191              		@ args = 0, pretend = 0, frame = 0
 192              		@ frame_needed = 0, uses_anonymous_args = 0
 193 0000 2DE9F041 		push	{r4, r5, r6, r7, r8, lr}
 194              	.LCFI6:
 195              		.cfi_def_cfa_offset 24
 196              		.cfi_offset 14, -4
 197              		.cfi_offset 8, -8
 198              		.cfi_offset 7, -12
 199              		.cfi_offset 6, -16
 200              		.cfi_offset 5, -20
 201              		.cfi_offset 4, -24
 202              	.LBB96:
 203              		.loc 1 186 0
 204 0004 2023     		movs	r3, #32
 205              	.LVL5:
 206              	.LBE96:
 207              		.loc 1 181 0
 208 0006 82B0     		sub	sp, sp, #8
 209              	.LCFI7:
 210              		.cfi_def_cfa_offset 32
 211              	.LBB97:
 212              		.loc 1 186 0
 213              	@ 186 "../../test/testqueues.c" 1
 214 0008 83F31188 		msr     BASEPRI, r3
 215              	@ 0 "" 2
 216              	.LVL6:
 217              		.thumb
 218              	.LBE97:
 219 000c AC4D     		ldr	r5, .L25
 220 000e 6A69     		ldr	r2, [r5, #20]
 221 0010 AB69     		ldr	r3, [r5, #24]
ARM GAS  C:\Users\TAISIK~1\AppData\Local\Temp\ccZJTFka.s 			page 5


 222              	.LVL7:
 223 0012 9A42     		cmp	r2, r3
 224 0014 00F09780 		beq	.L23
 225 0018 0021     		movs	r1, #0
 226              	.L7:
 227              		.loc 1 186 0 is_stmt 0 discriminator 4
 228 001a 0120     		movs	r0, #1
 229 001c FFF7FEFF 		bl	_test_assert
 230 0020 0646     		mov	r6, r0
 231 0022 0028     		cmp	r0, #0
 232 0024 68D1     		bne	.L20
 233              	.LBB98:
 234              	.LBB99:
 235              	.LBB100:
 236              		.loc 1 186 0
 237 0026 0346     		mov	r3, r0
 238              	.LVL8:
 239              	@ 186 "../../test/testqueues.c" 1
 240 0028 83F31188 		msr     BASEPRI, r3
 241              	@ 0 "" 2
 242              	.LVL9:
 243              		.thumb
 244              	.LBE100:
 245              		.loc 1 190 0 is_stmt 1
 246 002c A44C     		ldr	r4, .L25
 247 002e 4121     		movs	r1, #65
 248 0030 2046     		mov	r0, r4
 249 0032 4FF0FF32 		mov	r2, #-1
 250 0036 FFF7FEFF 		bl	chOQPutTimeout
 251              	.LVL10:
 252 003a 4221     		movs	r1, #66
 253 003c 2046     		mov	r0, r4
 254 003e 4FF0FF32 		mov	r2, #-1
 255 0042 FFF7FEFF 		bl	chOQPutTimeout
 256              	.LVL11:
 257 0046 4321     		movs	r1, #67
 258 0048 2046     		mov	r0, r4
 259 004a 4FF0FF32 		mov	r2, #-1
 260 004e FFF7FEFF 		bl	chOQPutTimeout
 261              	.LVL12:
 262 0052 2046     		mov	r0, r4
 263 0054 4421     		movs	r1, #68
 264 0056 4FF0FF32 		mov	r2, #-1
 265 005a FFF7FEFF 		bl	chOQPutTimeout
 266              	.LVL13:
 267              	.LBB101:
 268              		.loc 1 191 0
 269 005e 2023     		movs	r3, #32
 270              	.LVL14:
 271              	@ 191 "../../test/testqueues.c" 1
 272 0060 83F31188 		msr     BASEPRI, r3
 273              	@ 0 "" 2
 274              	.LVL15:
 275              		.thumb
 276              	.LBE101:
 277 0064 A868     		ldr	r0, [r5, #8]
 278 0066 D0F10101 		rsbs	r1, r0, #1
ARM GAS  C:\Users\TAISIK~1\AppData\Local\Temp\ccZJTFka.s 			page 6


 279 006a 38BF     		it	cc
 280 006c 0021     		movcc	r1, #0
 281 006e 0220     		movs	r0, #2
 282 0070 FFF7FEFF 		bl	_test_assert
 283              	.LVL16:
 284 0074 0546     		mov	r5, r0
 285 0076 0028     		cmp	r0, #0
 286 0078 44D1     		bne	.L21
 287              	.LBB102:
 288 007a 0346     		mov	r3, r0
 289              	.LVL17:
 290              	@ 191 "../../test/testqueues.c" 1
 291 007c 83F31188 		msr     BASEPRI, r3
 292              	@ 0 "" 2
 293              	.LVL18:
 294              		.thumb
 295              	.LBE102:
 296              	.LBB103:
 297              	.LBB104:
 298              		.loc 1 197 0
 299 0080 2023     		movs	r3, #32
 300              	.LVL19:
 301              	@ 197 "../../test/testqueues.c" 1
 302 0082 83F31188 		msr     BASEPRI, r3
 303              	@ 0 "" 2
 304              	.LVL20:
 305              		.thumb
 306              	.LBE104:
 307              		.loc 1 198 0
 308 0086 2046     		mov	r0, r4
 309 0088 FFF7FEFF 		bl	chOQGetI
 310              	.LVL21:
 311              	.LBB105:
 312              		.loc 1 199 0
 313 008c 2B46     		mov	r3, r5
 314              	.LVL22:
 315              	@ 199 "../../test/testqueues.c" 1
 316 008e 83F31188 		msr     BASEPRI, r3
 317              	@ 0 "" 2
 318              	.LVL23:
 319              		.thumb
 320              	.LBE105:
 321              		.loc 1 200 0
 322 0092 C0B2     		uxtb	r0, r0
 323              	.LVL24:
 324 0094 FFF7FEFF 		bl	test_emit_token
 325              	.LVL25:
 326              	.LBB106:
 327              		.loc 1 197 0
 328 0098 2023     		movs	r3, #32
 329              	@ 197 "../../test/testqueues.c" 1
 330 009a 83F31188 		msr     BASEPRI, r3
 331              	@ 0 "" 2
 332              	.LVL26:
 333              		.thumb
 334              	.LBE106:
 335              		.loc 1 198 0
ARM GAS  C:\Users\TAISIK~1\AppData\Local\Temp\ccZJTFka.s 			page 7


 336 009e 2046     		mov	r0, r4
 337 00a0 FFF7FEFF 		bl	chOQGetI
 338              	.LVL27:
 339              	.LBB107:
 340              		.loc 1 199 0
 341 00a4 2B46     		mov	r3, r5
 342              	@ 199 "../../test/testqueues.c" 1
 343 00a6 83F31188 		msr     BASEPRI, r3
 344              	@ 0 "" 2
 345              	.LVL28:
 346              		.thumb
 347              	.LBE107:
 348              		.loc 1 200 0
 349 00aa C0B2     		uxtb	r0, r0
 350              	.LVL29:
 351 00ac FFF7FEFF 		bl	test_emit_token
 352              	.LVL30:
 353              	.LBB108:
 354              		.loc 1 197 0
 355 00b0 2023     		movs	r3, #32
 356              	@ 197 "../../test/testqueues.c" 1
 357 00b2 83F31188 		msr     BASEPRI, r3
 358              	@ 0 "" 2
 359              	.LVL31:
 360              		.thumb
 361              	.LBE108:
 362              		.loc 1 198 0
 363 00b6 2046     		mov	r0, r4
 364 00b8 FFF7FEFF 		bl	chOQGetI
 365              	.LVL32:
 366              	.LBB109:
 367              		.loc 1 199 0
 368 00bc 2B46     		mov	r3, r5
 369              	@ 199 "../../test/testqueues.c" 1
 370 00be 83F31188 		msr     BASEPRI, r3
 371              	@ 0 "" 2
 372              	.LVL33:
 373              		.thumb
 374              	.LBE109:
 375              		.loc 1 200 0
 376 00c2 C0B2     		uxtb	r0, r0
 377              	.LVL34:
 378 00c4 FFF7FEFF 		bl	test_emit_token
 379              	.LVL35:
 380              	.LBB110:
 381              		.loc 1 197 0
 382 00c8 2023     		movs	r3, #32
 383              	@ 197 "../../test/testqueues.c" 1
 384 00ca 83F31188 		msr     BASEPRI, r3
 385              	@ 0 "" 2
 386              	.LVL36:
 387              		.thumb
 388              	.LBE110:
 389              		.loc 1 198 0
 390 00ce 2046     		mov	r0, r4
 391 00d0 FFF7FEFF 		bl	chOQGetI
 392              	.LVL37:
ARM GAS  C:\Users\TAISIK~1\AppData\Local\Temp\ccZJTFka.s 			page 8


 393              	.LBB111:
 394              		.loc 1 199 0
 395 00d4 2B46     		mov	r3, r5
 396              	@ 199 "../../test/testqueues.c" 1
 397 00d6 83F31188 		msr     BASEPRI, r3
 398              	@ 0 "" 2
 399              	.LVL38:
 400              		.thumb
 401              	.LBE111:
 402              		.loc 1 200 0
 403 00da C0B2     		uxtb	r0, r0
 404              	.LVL39:
 405 00dc FFF7FEFF 		bl	test_emit_token
 406              	.LVL40:
 407              	.LBE103:
 408              	.LBB112:
 409              		.loc 1 202 0
 410 00e0 2023     		movs	r3, #32
 411              	.LVL41:
 412              	@ 202 "../../test/testqueues.c" 1
 413 00e2 83F31188 		msr     BASEPRI, r3
 414              	@ 0 "" 2
 415              	.LVL42:
 416              		.thumb
 417              	.LBE112:
 418 00e6 6269     		ldr	r2, [r4, #20]
 419 00e8 A369     		ldr	r3, [r4, #24]
 420              	.LVL43:
 421 00ea 9A42     		cmp	r2, r3
 422 00ec 30D0     		beq	.L24
 423 00ee 2946     		mov	r1, r5
 424              	.L11:
 425 00f0 0320     		movs	r0, #3
 426 00f2 FFF7FEFF 		bl	_test_assert
 427 00f6 48B1     		cbz	r0, .L12
 428              	.LVL44:
 429              	.L20:
 430              	.LBB113:
 431 00f8 0023     		movs	r3, #0
 432              	.LVL45:
 433              	@ 202 "../../test/testqueues.c" 1
 434 00fa 83F31188 		msr     BASEPRI, r3
 435              	@ 0 "" 2
 436              	.LVL46:
 437              		.thumb
 438              	.L6:
 439              	.LBE113:
 440              	.LBE99:
 441              	.LBE98:
 442              		.loc 1 229 0
 443 00fe 02B0     		add	sp, sp, #8
 444 0100 BDE8F081 		pop	{r4, r5, r6, r7, r8, pc}
 445              	.LVL47:
 446              	.L21:
 447              	.LBB135:
 448              	.LBB132:
 449              	.LBB114:
ARM GAS  C:\Users\TAISIK~1\AppData\Local\Temp\ccZJTFka.s 			page 9


 450              		.loc 1 218 0
 451 0104 3346     		mov	r3, r6
 452              	@ 218 "../../test/testqueues.c" 1
 453 0106 83F31188 		msr     BASEPRI, r3
 454              	@ 0 "" 2
 455              	.LVL48:
 456              		.thumb
 457 010a F8E7     		b	.L6
 458              	.LVL49:
 459              	.L12:
 460              	.LBE114:
 461              	.LBB115:
 462              		.loc 1 202 0
 463 010c 0346     		mov	r3, r0
 464              	.LVL50:
 465              	@ 202 "../../test/testqueues.c" 1
 466 010e 83F31188 		msr     BASEPRI, r3
 467              	@ 0 "" 2
 468              	.LVL51:
 469              		.thumb
 470              	.LBE115:
 471              		.loc 1 203 0
 472 0112 0420     		movs	r0, #4
 473 0114 6B49     		ldr	r1, .L25+4
 474 0116 FFF7FEFF 		bl	_test_assert_sequence
 475              	.LVL52:
 476 011a 0546     		mov	r5, r0
 477 011c 0028     		cmp	r0, #0
 478 011e EED1     		bne	.L6
 479              	.LBB116:
 480              		.loc 1 204 0
 481 0120 2023     		movs	r3, #32
 482              	.LVL53:
 483              	@ 204 "../../test/testqueues.c" 1
 484 0122 83F31188 		msr     BASEPRI, r3
 485              	@ 0 "" 2
 486              	.LVL54:
 487              		.thumb
 488              	.LBE116:
 489 0126 664C     		ldr	r4, .L25
 490 0128 2046     		mov	r0, r4
 491 012a FFF7FEFF 		bl	chOQGetI
 492              	.LVL55:
 493 012e 0330     		adds	r0, r0, #3
 494 0130 14BF     		ite	ne
 495 0132 0021     		movne	r1, #0
 496 0134 0121     		moveq	r1, #1
 497 0136 0520     		movs	r0, #5
 498 0138 FFF7FEFF 		bl	_test_assert
 499 013c 68B1     		cbz	r0, .L13
 500              	.LBB117:
 501 013e 2B46     		mov	r3, r5
 502              	@ 204 "../../test/testqueues.c" 1
 503 0140 83F31188 		msr     BASEPRI, r3
 504              	@ 0 "" 2
 505              	.LVL56:
 506              		.thumb
ARM GAS  C:\Users\TAISIK~1\AppData\Local\Temp\ccZJTFka.s 			page 10


 507 0144 DBE7     		b	.L6
 508              	.LVL57:
 509              	.L23:
 510              	.LBE117:
 511              	.LBE132:
 512              	.LBE135:
 513              		.loc 1 181 0 discriminator 1
 514 0146 A968     		ldr	r1, [r5, #8]
 515 0148 0031     		adds	r1, r1, #0
 516 014a 18BF     		it	ne
 517 014c 0121     		movne	r1, #1
 518 014e 64E7     		b	.L7
 519              	.LVL58:
 520              	.L24:
 521              	.LBB136:
 522              	.LBB133:
 523              		.loc 1 181 0 is_stmt 0
 524 0150 A168     		ldr	r1, [r4, #8]
 525 0152 0031     		adds	r1, r1, #0
 526 0154 18BF     		it	ne
 527 0156 0121     		movne	r1, #1
 528 0158 CAE7     		b	.L11
 529              	.L13:
 530              	.LBB118:
 531              		.loc 1 204 0 is_stmt 1
 532 015a 0346     		mov	r3, r0
 533              	.LVL59:
 534              	@ 204 "../../test/testqueues.c" 1
 535 015c 83F31188 		msr     BASEPRI, r3
 536              	@ 0 "" 2
 537              	.LVL60:
 538              		.thumb
 539              	.LBE118:
 540              		.loc 1 207 0
 541 0160 594E     		ldr	r6, .L25+8
 542 0162 7568     		ldr	r5, [r6, #4]
 543 0164 0822     		movs	r2, #8
 544 0166 2946     		mov	r1, r5
 545 0168 2046     		mov	r0, r4
 546 016a FFF7FEFF 		bl	chOQWriteTimeout
 547              	.LVL61:
 548              		.loc 1 208 0
 549 016e A0F10402 		sub	r2, r0, #4
 550 0172 5042     		rsbs	r0, r2, #0
 551              	.LVL62:
 552 0174 40EB0201 		adc	r1, r0, r2
 553 0178 0620     		movs	r0, #6
 554 017a FFF7FEFF 		bl	_test_assert
 555              	.LVL63:
 556 017e 8046     		mov	r8, r0
 557 0180 0028     		cmp	r0, #0
 558 0182 BCD1     		bne	.L6
 559              	.LBB119:
 560              		.loc 1 209 0
 561 0184 2023     		movs	r3, #32
 562              	.LVL64:
 563              	@ 209 "../../test/testqueues.c" 1
ARM GAS  C:\Users\TAISIK~1\AppData\Local\Temp\ccZJTFka.s 			page 11


 564 0186 83F31188 		msr     BASEPRI, r3
 565              	@ 0 "" 2
 566              	.LVL65:
 567              		.thumb
 568              	.LBE119:
 569 018a A768     		ldr	r7, [r4, #8]
 570 018c D7F10101 		rsbs	r1, r7, #1
 571 0190 38BF     		it	cc
 572 0192 0021     		movcc	r1, #0
 573 0194 0720     		movs	r0, #7
 574 0196 FFF7FEFF 		bl	_test_assert
 575              	.LVL66:
 576 019a 0746     		mov	r7, r0
 577 019c 18B1     		cbz	r0, .L14
 578              	.LBB120:
 579 019e 4346     		mov	r3, r8
 580              	@ 209 "../../test/testqueues.c" 1
 581 01a0 83F31188 		msr     BASEPRI, r3
 582              	@ 0 "" 2
 583              	.LVL67:
 584              		.thumb
 585 01a4 ABE7     		b	.L6
 586              	.LVL68:
 587              	.L14:
 588              	.LBE120:
 589              	.LBB121:
 590 01a6 0346     		mov	r3, r0
 591              	.LVL69:
 592              	@ 209 "../../test/testqueues.c" 1
 593 01a8 83F31188 		msr     BASEPRI, r3
 594              	@ 0 "" 2
 595              	.LVL70:
 596              		.thumb
 597              	.LBE121:
 598              		.loc 1 210 0
 599 01ac 474B     		ldr	r3, .L25+12
 600              	.LVL71:
 601 01ae 3068     		ldr	r0, [r6, #0]
 602 01b0 9A69     		ldr	r2, [r3, #24]
 603 01b2 474B     		ldr	r3, .L25+16
 604 01b4 9668     		ldr	r6, [r2, #8]
 605 01b6 0097     		str	r7, [sp, #0]
 606 01b8 721C     		adds	r2, r6, #1
 607 01ba 4FF49871 		mov	r1, #304
 608 01be FFF7FEFF 		bl	chThdCreateStatic
 609 01c2 4449     		ldr	r1, .L25+20
 610              	.LBB122:
 611              		.loc 1 211 0
 612 01c4 2023     		movs	r3, #32
 613              	.LVL72:
 614              	.LBE122:
 615              		.loc 1 210 0
 616 01c6 0860     		str	r0, [r1, #0]
 617              	.LBB123:
 618              		.loc 1 211 0
 619              	@ 211 "../../test/testqueues.c" 1
 620 01c8 83F31188 		msr     BASEPRI, r3
ARM GAS  C:\Users\TAISIK~1\AppData\Local\Temp\ccZJTFka.s 			page 12


 621              	@ 0 "" 2
 622              	.LVL73:
 623              		.thumb
 624              	.LBE123:
 625 01cc 2669     		ldr	r6, [r4, #16]
 626 01ce E268     		ldr	r2, [r4, #12]
 627 01d0 A068     		ldr	r0, [r4, #8]
 628 01d2 B11A     		subs	r1, r6, r2
 629 01d4 C0EB010C 		rsb	ip, r0, r1
 630 01d8 ACF10403 		sub	r3, ip, #4
 631              	.LVL74:
 632 01dc 5E42     		rsbs	r6, r3, #0
 633 01de 46EB0301 		adc	r1, r6, r3
 634 01e2 0820     		movs	r0, #8
 635 01e4 FFF7FEFF 		bl	_test_assert
 636 01e8 0646     		mov	r6, r0
 637 01ea 18B1     		cbz	r0, .L15
 638              	.LBB124:
 639 01ec 3B46     		mov	r3, r7
 640              	@ 211 "../../test/testqueues.c" 1
 641 01ee 83F31188 		msr     BASEPRI, r3
 642              	@ 0 "" 2
 643              	.LVL75:
 644              		.thumb
 645 01f2 84E7     		b	.L6
 646              	.LVL76:
 647              	.L15:
 648              	.LBE124:
 649              	.LBB125:
 650 01f4 0346     		mov	r3, r0
 651              	.LVL77:
 652              	@ 211 "../../test/testqueues.c" 1
 653 01f6 83F31188 		msr     BASEPRI, r3
 654              	@ 0 "" 2
 655              	.LVL78:
 656              		.thumb
 657              	.LBE125:
 658              		.loc 1 212 0
 659 01fa FFF7FEFF 		bl	test_wait_threads
 660              	.LVL79:
 661              	.LBB126:
 662              		.loc 1 215 0
 663 01fe 2023     		movs	r3, #32
 664              	.LVL80:
 665              	@ 215 "../../test/testqueues.c" 1
 666 0200 83F31188 		msr     BASEPRI, r3
 667              	@ 0 "" 2
 668              	.LVL81:
 669              		.thumb
 670              	.LBE126:
 671              		.loc 1 216 0
 672 0204 2046     		mov	r0, r4
 673 0206 FFF7FEFF 		bl	chOQResetI
 674              	.LVL82:
 675              	.LBB127:
 676              		.loc 1 217 0
 677 020a 3346     		mov	r3, r6
ARM GAS  C:\Users\TAISIK~1\AppData\Local\Temp\ccZJTFka.s 			page 13


 678              	.LVL83:
 679              	@ 217 "../../test/testqueues.c" 1
 680 020c 83F31188 		msr     BASEPRI, r3
 681              	@ 0 "" 2
 682              	.LVL84:
 683              		.thumb
 684              	.LBE127:
 685              	.LBB128:
 686              		.loc 1 218 0
 687 0210 2023     		movs	r3, #32
 688              	.LVL85:
 689              	@ 218 "../../test/testqueues.c" 1
 690 0212 83F31188 		msr     BASEPRI, r3
 691              	@ 0 "" 2
 692              	.LVL86:
 693              		.thumb
 694              	.LBE128:
 695 0216 2069     		ldr	r0, [r4, #16]
 696 0218 E168     		ldr	r1, [r4, #12]
 697 021a A368     		ldr	r3, [r4, #8]
 698              	.LVL87:
 699 021c 421A     		subs	r2, r0, r1
 700 021e D11A     		subs	r1, r2, r3
 701 0220 4842     		rsbs	r0, r1, #0
 702 0222 40EB0101 		adc	r1, r0, r1
 703 0226 0920     		movs	r0, #9
 704 0228 FFF7FEFF 		bl	_test_assert
 705 022c 0028     		cmp	r0, #0
 706 022e 7FF469AF 		bne	.L21
 707              	.LBB129:
 708 0232 0346     		mov	r3, r0
 709              	.LVL88:
 710              	@ 218 "../../test/testqueues.c" 1
 711 0234 83F31188 		msr     BASEPRI, r3
 712              	@ 0 "" 2
 713              	.LVL89:
 714              		.thumb
 715              	.LBE129:
 716              		.loc 1 221 0
 717 0238 0222     		movs	r2, #2
 718 023a 2946     		mov	r1, r5
 719 023c 2046     		mov	r0, r4
 720 023e FFF7FEFF 		bl	chOQWriteTimeout
 721              	.LVL90:
 722              		.loc 1 222 0
 723 0242 A0F10203 		sub	r3, r0, #2
 724 0246 5A42     		rsbs	r2, r3, #0
 725 0248 42EB0301 		adc	r1, r2, r3
 726 024c 0A20     		movs	r0, #10
 727              	.LVL91:
 728 024e FFF7FEFF 		bl	_test_assert
 729              	.LVL92:
 730 0252 0346     		mov	r3, r0
 731 0254 0028     		cmp	r0, #0
 732 0256 7FF452AF 		bne	.L6
 733              		.loc 1 223 0
 734 025a 2946     		mov	r1, r5
ARM GAS  C:\Users\TAISIK~1\AppData\Local\Temp\ccZJTFka.s 			page 14


 735 025c 0222     		movs	r2, #2
 736 025e 2046     		mov	r0, r4
 737 0260 FFF7FEFF 		bl	chOQWriteTimeout
 738              	.LVL93:
 739              		.loc 1 224 0
 740 0264 A0F10201 		sub	r1, r0, #2
 741 0268 4842     		rsbs	r0, r1, #0
 742              	.LVL94:
 743 026a 40EB0101 		adc	r1, r0, r1
 744              	.LVL95:
 745 026e 0B20     		movs	r0, #11
 746 0270 FFF7FEFF 		bl	_test_assert
 747 0274 0028     		cmp	r0, #0
 748 0276 7FF442AF 		bne	.L6
 749              	.LBB130:
 750              		.loc 1 225 0
 751 027a 2023     		movs	r3, #32
 752              	.LVL96:
 753              	@ 225 "../../test/testqueues.c" 1
 754 027c 83F31188 		msr     BASEPRI, r3
 755              	@ 0 "" 2
 756              	.LVL97:
 757              		.thumb
 758              	.LBE130:
 759 0280 A268     		ldr	r2, [r4, #8]
 760 0282 D2F10101 		rsbs	r1, r2, #1
 761 0286 38BF     		it	cc
 762 0288 0021     		movcc	r1, #0
 763 028a 0C20     		movs	r0, #12
 764 028c FFF7FEFF 		bl	_test_assert
 765              	.LVL98:
 766              	.LBB131:
 767 0290 0023     		movs	r3, #0
 768              	@ 225 "../../test/testqueues.c" 1
 769 0292 83F31188 		msr     BASEPRI, r3
 770              	@ 0 "" 2
 771              	.LVL99:
 772              		.thumb
 773              	.LBE131:
 774 0296 0028     		cmp	r0, #0
 775 0298 7FF431AF 		bne	.L6
 776              		.loc 1 228 0
 777 029c 1946     		mov	r1, r3
 778              	.LVL100:
 779 029e 0A22     		movs	r2, #10
 780 02a0 0748     		ldr	r0, .L25
 781 02a2 FFF7FEFF 		bl	chOQPutTimeout
 782              	.LVL101:
 783 02a6 A0F1FF3C 		sub	ip, r0, #-1
 784 02aa DCF10000 		rsbs	r0, ip, #0
 785 02ae 40EB0C01 		adc	r1, r0, ip
 786 02b2 0D20     		movs	r0, #13
 787              	.LBE133:
 788              	.LBE136:
 789              		.loc 1 229 0
 790 02b4 02B0     		add	sp, sp, #8
 791 02b6 BDE8F041 		pop	{r4, r5, r6, r7, r8, lr}
ARM GAS  C:\Users\TAISIK~1\AppData\Local\Temp\ccZJTFka.s 			page 15


 792              	.LBB137:
 793              	.LBB134:
 794              		.loc 1 228 0
 795 02ba FFF7FEBF 		b	_test_assert
 796              	.L26:
 797 02be 00BF     		.align	2
 798              	.L25:
 799 02c0 00000000 		.word	.LANCHOR0
 800 02c4 00000000 		.word	.LC0
 801 02c8 00000000 		.word	wa
 802 02cc 00000000 		.word	rlist
 803 02d0 00000000 		.word	thread2
 804 02d4 00000000 		.word	threads
 805              	.LBE134:
 806              	.LBE137:
 807              		.cfi_endproc
 808              	.LFE13:
 809              		.size	queues2_execute, .-queues2_execute
 810 02d8 AFF30080 		.section	.text.queues1_execute,"ax",%progbits
 810      AFF30080 
 811              		.align	2
 812              		.p2align 4,,15
 813              		.thumb
 814              		.thumb_func
 815              		.type	queues1_execute, %function
 816              	queues1_execute:
 817              	.LFB10:
 818              		.loc 1 94 0
 819              		.cfi_startproc
 820              		@ args = 0, pretend = 0, frame = 0
 821              		@ frame_needed = 0, uses_anonymous_args = 0
 822 0000 2DE9F043 		push	{r4, r5, r6, r7, r8, r9, lr}
 823              	.LCFI8:
 824              		.cfi_def_cfa_offset 28
 825              		.cfi_offset 14, -4
 826              		.cfi_offset 9, -8
 827              		.cfi_offset 8, -12
 828              		.cfi_offset 7, -16
 829              		.cfi_offset 6, -20
 830              		.cfi_offset 5, -24
 831              		.cfi_offset 4, -28
 832              	.LBB174:
 833              		.loc 1 99 0
 834 0004 2023     		movs	r3, #32
 835              	.LVL102:
 836              	.LBE174:
 837              		.loc 1 94 0
 838 0006 83B0     		sub	sp, sp, #12
 839              	.LCFI9:
 840              		.cfi_def_cfa_offset 40
 841              	.LBB175:
 842              		.loc 1 99 0
 843              	@ 99 "../../test/testqueues.c" 1
 844 0008 83F31188 		msr     BASEPRI, r3
 845              	@ 0 "" 2
 846              	.LVL103:
 847              		.thumb
ARM GAS  C:\Users\TAISIK~1\AppData\Local\Temp\ccZJTFka.s 			page 16


 848              	.LBE175:
 849 000c AC4C     		ldr	r4, .L43
 850 000e A168     		ldr	r1, [r4, #8]
 851 0010 D1F10101 		rsbs	r1, r1, #1
 852 0014 38BF     		it	cc
 853 0016 0021     		movcc	r1, #0
 854 0018 0120     		movs	r0, #1
 855 001a FFF7FEFF 		bl	_test_assert
 856              	.LVL104:
 857 001e 0546     		mov	r5, r0
 858 0020 28BB     		cbnz	r0, .L39
 859              	.LBB176:
 860              	.LBB177:
 861              	.LBB178:
 862 0022 0346     		mov	r3, r0
 863              	.LVL105:
 864              	@ 99 "../../test/testqueues.c" 1
 865 0024 83F31188 		msr     BASEPRI, r3
 866              	@ 0 "" 2
 867              	.LVL106:
 868              		.thumb
 869              	.LBE178:
 870              	.LBB179:
 871              		.loc 1 102 0
 872 0028 2023     		movs	r3, #32
 873              	.LVL107:
 874              	@ 102 "../../test/testqueues.c" 1
 875 002a 83F31188 		msr     BASEPRI, r3
 876              	@ 0 "" 2
 877              	.LVL108:
 878              		.thumb
 879              	.LBE179:
 880              		.loc 1 104 0
 881 002e 4121     		movs	r1, #65
 882 0030 2046     		mov	r0, r4
 883 0032 FFF7FEFF 		bl	chIQPutI
 884              	.LVL109:
 885 0036 4221     		movs	r1, #66
 886 0038 2046     		mov	r0, r4
 887 003a FFF7FEFF 		bl	chIQPutI
 888              	.LVL110:
 889 003e 4321     		movs	r1, #67
 890 0040 2046     		mov	r0, r4
 891 0042 FFF7FEFF 		bl	chIQPutI
 892              	.LVL111:
 893 0046 2046     		mov	r0, r4
 894 0048 4421     		movs	r1, #68
 895 004a FFF7FEFF 		bl	chIQPutI
 896              	.LVL112:
 897              	.LBB180:
 898              		.loc 1 105 0
 899 004e 2B46     		mov	r3, r5
 900              	.LVL113:
 901              	@ 105 "../../test/testqueues.c" 1
 902 0050 83F31188 		msr     BASEPRI, r3
 903              	@ 0 "" 2
 904              	.LVL114:
ARM GAS  C:\Users\TAISIK~1\AppData\Local\Temp\ccZJTFka.s 			page 17


 905              		.thumb
 906              	.LBE180:
 907              	.LBB181:
 908              		.loc 1 106 0
 909 0054 2023     		movs	r3, #32
 910              	.LVL115:
 911              	@ 106 "../../test/testqueues.c" 1
 912 0056 83F31188 		msr     BASEPRI, r3
 913              	@ 0 "" 2
 914              	.LVL116:
 915              		.thumb
 916              	.LBE181:
 917 005a 6269     		ldr	r2, [r4, #20]
 918 005c A369     		ldr	r3, [r4, #24]
 919              	.LVL117:
 920 005e 9A42     		cmp	r2, r3
 921 0060 56D0     		beq	.L40
 922 0062 2946     		mov	r1, r5
 923              	.L30:
 924 0064 0220     		movs	r0, #2
 925 0066 FFF7FEFF 		bl	_test_assert
 926 006a 0646     		mov	r6, r0
 927 006c 28B1     		cbz	r0, .L31
 928              	.LVL118:
 929              	.L39:
 930              	.LBB182:
 931 006e 0023     		movs	r3, #0
 932              	.LVL119:
 933              	@ 106 "../../test/testqueues.c" 1
 934 0070 83F31188 		msr     BASEPRI, r3
 935              	@ 0 "" 2
 936              	.LVL120:
 937              		.thumb
 938              	.L27:
 939              	.LBE182:
 940              	.LBE177:
 941              	.LBE176:
 942              		.loc 1 151 0
 943 0074 03B0     		add	sp, sp, #12
 944 0076 BDE8F083 		pop	{r4, r5, r6, r7, r8, r9, pc}
 945              	.LVL121:
 946              	.L31:
 947              	.LBB210:
 948              	.LBB208:
 949              	.LBB183:
 950              		.loc 1 106 0
 951 007a 0346     		mov	r3, r0
 952              	.LVL122:
 953              	@ 106 "../../test/testqueues.c" 1
 954 007c 83F31188 		msr     BASEPRI, r3
 955              	@ 0 "" 2
 956              	.LVL123:
 957              		.thumb
 958              	.LBE183:
 959              	.LBB184:
 960              		.loc 1 107 0
 961 0080 2023     		movs	r3, #32
ARM GAS  C:\Users\TAISIK~1\AppData\Local\Temp\ccZJTFka.s 			page 18


 962              	.LVL124:
 963              	@ 107 "../../test/testqueues.c" 1
 964 0082 83F31188 		msr     BASEPRI, r3
 965              	@ 0 "" 2
 966              	.LVL125:
 967              		.thumb
 968              	.LBE184:
 969 0086 8E4D     		ldr	r5, .L43
 970 0088 0146     		mov	r1, r0
 971 008a 2846     		mov	r0, r5
 972 008c FFF7FEFF 		bl	chIQPutI
 973              	.LVL126:
 974 0090 0430     		adds	r0, r0, #4
 975 0092 14BF     		ite	ne
 976 0094 0021     		movne	r1, #0
 977 0096 0121     		moveq	r1, #1
 978 0098 0320     		movs	r0, #3
 979 009a FFF7FEFF 		bl	_test_assert
 980 009e 0746     		mov	r7, r0
 981 00a0 90BB     		cbnz	r0, .L41
 982              	.LBB185:
 983 00a2 0346     		mov	r3, r0
 984              	.LVL127:
 985              	@ 107 "../../test/testqueues.c" 1
 986 00a4 83F31188 		msr     BASEPRI, r3
 987              	@ 0 "" 2
 988              	.LVL128:
 989              		.thumb
 990              	.LBE185:
 991              		.loc 1 111 0
 992 00a8 4FF0FF31 		mov	r1, #-1
 993 00ac 2846     		mov	r0, r5
 994 00ae FFF7FEFF 		bl	chIQGetTimeout
 995              	.LVL129:
 996 00b2 C0B2     		uxtb	r0, r0
 997 00b4 FFF7FEFF 		bl	test_emit_token
 998              	.LVL130:
 999 00b8 4FF0FF31 		mov	r1, #-1
 1000 00bc 2846     		mov	r0, r5
 1001 00be FFF7FEFF 		bl	chIQGetTimeout
 1002 00c2 C0B2     		uxtb	r0, r0
 1003 00c4 FFF7FEFF 		bl	test_emit_token
 1004              	.LVL131:
 1005 00c8 4FF0FF31 		mov	r1, #-1
 1006 00cc 2846     		mov	r0, r5
 1007 00ce FFF7FEFF 		bl	chIQGetTimeout
 1008 00d2 C0B2     		uxtb	r0, r0
 1009 00d4 FFF7FEFF 		bl	test_emit_token
 1010              	.LVL132:
 1011 00d8 4FF0FF31 		mov	r1, #-1
 1012 00dc 2846     		mov	r0, r5
 1013 00de FFF7FEFF 		bl	chIQGetTimeout
 1014 00e2 C0B2     		uxtb	r0, r0
 1015 00e4 FFF7FEFF 		bl	test_emit_token
 1016              	.LVL133:
 1017              	.LBB186:
 1018              		.loc 1 112 0
ARM GAS  C:\Users\TAISIK~1\AppData\Local\Temp\ccZJTFka.s 			page 19


 1019 00e8 2023     		movs	r3, #32
 1020              	.LVL134:
 1021              	@ 112 "../../test/testqueues.c" 1
 1022 00ea 83F31188 		msr     BASEPRI, r3
 1023              	@ 0 "" 2
 1024              	.LVL135:
 1025              		.thumb
 1026              	.LBE186:
 1027 00ee A968     		ldr	r1, [r5, #8]
 1028 00f0 D1F10101 		rsbs	r1, r1, #1
 1029 00f4 38BF     		it	cc
 1030 00f6 0021     		movcc	r1, #0
 1031 00f8 0420     		movs	r0, #4
 1032 00fa FFF7FEFF 		bl	_test_assert
 1033              	.LVL136:
 1034 00fe 60B1     		cbz	r0, .L33
 1035              	.LBB187:
 1036 0100 3B46     		mov	r3, r7
 1037              	@ 112 "../../test/testqueues.c" 1
 1038 0102 83F31188 		msr     BASEPRI, r3
 1039              	@ 0 "" 2
 1040              	.LVL137:
 1041              		.thumb
 1042 0106 B5E7     		b	.L27
 1043              	.LVL138:
 1044              	.L41:
 1045              	.LBE187:
 1046              	.LBB188:
 1047              		.loc 1 107 0
 1048 0108 3346     		mov	r3, r6
 1049              	@ 107 "../../test/testqueues.c" 1
 1050 010a 83F31188 		msr     BASEPRI, r3
 1051              	@ 0 "" 2
 1052              	.LVL139:
 1053              		.thumb
 1054 010e B1E7     		b	.L27
 1055              	.LVL140:
 1056              	.L40:
 1057              	.LBE188:
 1058              		.loc 1 94 0
 1059 0110 A068     		ldr	r0, [r4, #8]
 1060 0112 011C     		adds	r1, r0, #0
 1061 0114 18BF     		it	ne
 1062 0116 0121     		movne	r1, #1
 1063 0118 A4E7     		b	.L30
 1064              	.L33:
 1065              	.LBB189:
 1066              		.loc 1 112 0
 1067 011a 0346     		mov	r3, r0
 1068              	.LVL141:
 1069              	@ 112 "../../test/testqueues.c" 1
 1070 011c 83F31188 		msr     BASEPRI, r3
 1071              	@ 0 "" 2
 1072              	.LVL142:
 1073              		.thumb
 1074              	.LBE189:
 1075              		.loc 1 113 0
ARM GAS  C:\Users\TAISIK~1\AppData\Local\Temp\ccZJTFka.s 			page 20


 1076 0120 0520     		movs	r0, #5
 1077 0122 6849     		ldr	r1, .L43+4
 1078 0124 FFF7FEFF 		bl	_test_assert_sequence
 1079              	.LVL143:
 1080 0128 0646     		mov	r6, r0
 1081 012a 0028     		cmp	r0, #0
 1082 012c A2D1     		bne	.L27
 1083              	.LBB190:
 1084              		.loc 1 116 0
 1085 012e 2023     		movs	r3, #32
 1086              	.LVL144:
 1087              	@ 116 "../../test/testqueues.c" 1
 1088 0130 83F31188 		msr     BASEPRI, r3
 1089              	@ 0 "" 2
 1090              	.LVL145:
 1091              		.thumb
 1092              	.LBE190:
 1093              		.loc 1 118 0
 1094 0134 4121     		movs	r1, #65
 1095 0136 2846     		mov	r0, r5
 1096 0138 FFF7FEFF 		bl	chIQPutI
 1097              	.LVL146:
 1098 013c 4221     		movs	r1, #66
 1099 013e 2846     		mov	r0, r5
 1100 0140 FFF7FEFF 		bl	chIQPutI
 1101              	.LVL147:
 1102 0144 4321     		movs	r1, #67
 1103 0146 2846     		mov	r0, r5
 1104 0148 FFF7FEFF 		bl	chIQPutI
 1105              	.LVL148:
 1106 014c 2846     		mov	r0, r5
 1107 014e 4421     		movs	r1, #68
 1108 0150 FFF7FEFF 		bl	chIQPutI
 1109              	.LVL149:
 1110              	.LBB191:
 1111              		.loc 1 119 0
 1112 0154 3346     		mov	r3, r6
 1113              	.LVL150:
 1114              	@ 119 "../../test/testqueues.c" 1
 1115 0156 83F31188 		msr     BASEPRI, r3
 1116              	@ 0 "" 2
 1117              	.LVL151:
 1118              		.thumb
 1119              	.LBE191:
 1120              		.loc 1 122 0
 1121 015a 5B4F     		ldr	r7, .L43+8
 1122 015c D7F80480 		ldr	r8, [r7, #4]
 1123 0160 0822     		movs	r2, #8
 1124 0162 4146     		mov	r1, r8
 1125 0164 2846     		mov	r0, r5
 1126 0166 FFF7FEFF 		bl	chIQReadTimeout
 1127              	.LVL152:
 1128              		.loc 1 123 0
 1129 016a A0F10403 		sub	r3, r0, #4
 1130 016e 5A42     		rsbs	r2, r3, #0
 1131 0170 42EB0301 		adc	r1, r2, r3
 1132 0174 0620     		movs	r0, #6
ARM GAS  C:\Users\TAISIK~1\AppData\Local\Temp\ccZJTFka.s 			page 21


 1133              	.LVL153:
 1134 0176 FFF7FEFF 		bl	_test_assert
 1135              	.LVL154:
 1136 017a 8146     		mov	r9, r0
 1137 017c 0028     		cmp	r0, #0
 1138 017e 7FF479AF 		bne	.L27
 1139              	.LBB192:
 1140              		.loc 1 124 0
 1141 0182 2023     		movs	r3, #32
 1142              	.LVL155:
 1143              	@ 124 "../../test/testqueues.c" 1
 1144 0184 83F31188 		msr     BASEPRI, r3
 1145              	@ 0 "" 2
 1146              	.LVL156:
 1147              		.thumb
 1148              	.LBE192:
 1149 0188 AE68     		ldr	r6, [r5, #8]
 1150 018a D6F10101 		rsbs	r1, r6, #1
 1151 018e 38BF     		it	cc
 1152 0190 0021     		movcc	r1, #0
 1153 0192 0720     		movs	r0, #7
 1154 0194 FFF7FEFF 		bl	_test_assert
 1155              	.LVL157:
 1156 0198 0646     		mov	r6, r0
 1157 019a 0028     		cmp	r0, #0
 1158 019c 4BD1     		bne	.L42
 1159              	.LBB193:
 1160 019e 0346     		mov	r3, r0
 1161              	.LVL158:
 1162              	@ 124 "../../test/testqueues.c" 1
 1163 01a0 83F31188 		msr     BASEPRI, r3
 1164              	@ 0 "" 2
 1165              	.LVL159:
 1166              		.thumb
 1167              	.LBE193:
 1168              	.LBB194:
 1169              		.loc 1 127 0
 1170 01a4 2023     		movs	r3, #32
 1171              	.LVL160:
 1172              	@ 127 "../../test/testqueues.c" 1
 1173 01a6 83F31188 		msr     BASEPRI, r3
 1174              	@ 0 "" 2
 1175              	.LVL161:
 1176              		.thumb
 1177              	.LBE194:
 1178              		.loc 1 129 0
 1179 01aa 4121     		movs	r1, #65
 1180 01ac 2846     		mov	r0, r5
 1181 01ae FFF7FEFF 		bl	chIQPutI
 1182              	.LVL162:
 1183 01b2 4221     		movs	r1, #66
 1184 01b4 2846     		mov	r0, r5
 1185 01b6 FFF7FEFF 		bl	chIQPutI
 1186              	.LVL163:
 1187 01ba 4321     		movs	r1, #67
 1188 01bc 2846     		mov	r0, r5
 1189 01be FFF7FEFF 		bl	chIQPutI
ARM GAS  C:\Users\TAISIK~1\AppData\Local\Temp\ccZJTFka.s 			page 22


 1190              	.LVL164:
 1191 01c2 2846     		mov	r0, r5
 1192 01c4 4421     		movs	r1, #68
 1193 01c6 FFF7FEFF 		bl	chIQPutI
 1194              	.LVL165:
 1195              	.LBB195:
 1196              		.loc 1 130 0
 1197 01ca 3346     		mov	r3, r6
 1198              	.LVL166:
 1199              	@ 130 "../../test/testqueues.c" 1
 1200 01cc 83F31188 		msr     BASEPRI, r3
 1201              	@ 0 "" 2
 1202              	.LVL167:
 1203              		.thumb
 1204              	.LBE195:
 1205              		.loc 1 133 0
 1206 01d0 0222     		movs	r2, #2
 1207 01d2 4146     		mov	r1, r8
 1208 01d4 2846     		mov	r0, r5
 1209 01d6 FFF7FEFF 		bl	chIQReadTimeout
 1210              	.LVL168:
 1211              		.loc 1 134 0
 1212 01da A0F10201 		sub	r1, r0, #2
 1213 01de 4842     		rsbs	r0, r1, #0
 1214              	.LVL169:
 1215 01e0 40EB0101 		adc	r1, r0, r1
 1216              	.LVL170:
 1217 01e4 0820     		movs	r0, #8
 1218 01e6 FFF7FEFF 		bl	_test_assert
 1219 01ea 0028     		cmp	r0, #0
 1220 01ec 7FF442AF 		bne	.L27
 1221              		.loc 1 135 0
 1222 01f0 4146     		mov	r1, r8
 1223 01f2 0346     		mov	r3, r0
 1224 01f4 0222     		movs	r2, #2
 1225 01f6 2846     		mov	r0, r5
 1226 01f8 FFF7FEFF 		bl	chIQReadTimeout
 1227              	.LVL171:
 1228              		.loc 1 136 0
 1229 01fc A0F10203 		sub	r3, r0, #2
 1230 0200 5A42     		rsbs	r2, r3, #0
 1231 0202 42EB0301 		adc	r1, r2, r3
 1232 0206 0920     		movs	r0, #9
 1233              	.LVL172:
 1234 0208 FFF7FEFF 		bl	_test_assert
 1235              	.LVL173:
 1236 020c 8046     		mov	r8, r0
 1237 020e 0028     		cmp	r0, #0
 1238 0210 7FF430AF 		bne	.L27
 1239              	.LBB196:
 1240              		.loc 1 137 0
 1241 0214 2023     		movs	r3, #32
 1242              	.LVL174:
 1243              	@ 137 "../../test/testqueues.c" 1
 1244 0216 83F31188 		msr     BASEPRI, r3
 1245              	@ 0 "" 2
 1246              	.LVL175:
ARM GAS  C:\Users\TAISIK~1\AppData\Local\Temp\ccZJTFka.s 			page 23


 1247              		.thumb
 1248              	.LBE196:
 1249 021a AE68     		ldr	r6, [r5, #8]
 1250 021c D6F10101 		rsbs	r1, r6, #1
 1251 0220 38BF     		it	cc
 1252 0222 0021     		movcc	r1, #0
 1253 0224 0A20     		movs	r0, #10
 1254 0226 FFF7FEFF 		bl	_test_assert
 1255              	.LVL176:
 1256 022a 0646     		mov	r6, r0
 1257 022c 38B1     		cbz	r0, .L35
 1258              	.LBB197:
 1259 022e 4346     		mov	r3, r8
 1260              	@ 137 "../../test/testqueues.c" 1
 1261 0230 83F31188 		msr     BASEPRI, r3
 1262              	@ 0 "" 2
 1263              	.LVL177:
 1264              		.thumb
 1265 0234 1EE7     		b	.L27
 1266              	.LVL178:
 1267              	.L42:
 1268              	.LBE197:
 1269              	.LBB198:
 1270              		.loc 1 124 0
 1271 0236 4B46     		mov	r3, r9
 1272              	@ 124 "../../test/testqueues.c" 1
 1273 0238 83F31188 		msr     BASEPRI, r3
 1274              	@ 0 "" 2
 1275              	.LVL179:
 1276              		.thumb
 1277 023c 1AE7     		b	.L27
 1278              	.LVL180:
 1279              	.L35:
 1280              	.LBE198:
 1281              	.LBB199:
 1282              		.loc 1 137 0
 1283 023e 0346     		mov	r3, r0
 1284              	.LVL181:
 1285              	@ 137 "../../test/testqueues.c" 1
 1286 0240 83F31188 		msr     BASEPRI, r3
 1287              	@ 0 "" 2
 1288              	.LVL182:
 1289              		.thumb
 1290              	.LBE199:
 1291              	.LBB200:
 1292              		.loc 1 140 0
 1293 0244 2023     		movs	r3, #32
 1294              	.LVL183:
 1295              	@ 140 "../../test/testqueues.c" 1
 1296 0246 83F31188 		msr     BASEPRI, r3
 1297              	@ 0 "" 2
 1298              	.LVL184:
 1299              		.thumb
 1300              	.LBE200:
 1301              		.loc 1 141 0
 1302 024a 0146     		mov	r1, r0
 1303 024c 2846     		mov	r0, r5
ARM GAS  C:\Users\TAISIK~1\AppData\Local\Temp\ccZJTFka.s 			page 24


 1304 024e FFF7FEFF 		bl	chIQPutI
 1305              	.LVL185:
 1306              		.loc 1 142 0
 1307 0252 2846     		mov	r0, r5
 1308 0254 FFF7FEFF 		bl	chIQResetI
 1309              	.LBB201:
 1310              		.loc 1 143 0
 1311 0258 3346     		mov	r3, r6
 1312              	.LVL186:
 1313              	@ 143 "../../test/testqueues.c" 1
 1314 025a 83F31188 		msr     BASEPRI, r3
 1315              	@ 0 "" 2
 1316              	.LVL187:
 1317              		.thumb
 1318              	.LBE201:
 1319              	.LBB202:
 1320              		.loc 1 144 0
 1321 025e 2023     		movs	r3, #32
 1322              	.LVL188:
 1323              	@ 144 "../../test/testqueues.c" 1
 1324 0260 83F31188 		msr     BASEPRI, r3
 1325              	@ 0 "" 2
 1326              	.LVL189:
 1327              		.thumb
 1328              	.LBE202:
 1329 0264 A868     		ldr	r0, [r5, #8]
 1330 0266 D0F10101 		rsbs	r1, r0, #1
 1331 026a 38BF     		it	cc
 1332 026c 0021     		movcc	r1, #0
 1333 026e 0B20     		movs	r0, #11
 1334 0270 FFF7FEFF 		bl	_test_assert
 1335              	.LVL190:
 1336              	.LBB203:
 1337 0274 0023     		movs	r3, #0
 1338              	@ 144 "../../test/testqueues.c" 1
 1339 0276 83F31188 		msr     BASEPRI, r3
 1340              	@ 0 "" 2
 1341              	.LVL191:
 1342              		.thumb
 1343              	.LBE203:
 1344 027a 0028     		cmp	r0, #0
 1345 027c 7FF4FAAE 		bne	.L27
 1346              		.loc 1 145 0
 1347 0280 124B     		ldr	r3, .L43+12
 1348              	.LVL192:
 1349 0282 3868     		ldr	r0, [r7, #0]
 1350 0284 9A69     		ldr	r2, [r3, #24]
 1351 0286 124B     		ldr	r3, .L43+16
 1352 0288 9568     		ldr	r5, [r2, #8]
 1353 028a 4FF49871 		mov	r1, #304
 1354 028e 6A1C     		adds	r2, r5, #1
 1355 0290 0025     		movs	r5, #0
 1356 0292 0095     		str	r5, [sp, #0]
 1357 0294 FFF7FEFF 		bl	chThdCreateStatic
 1358 0298 0E49     		ldr	r1, .L43+20
 1359              	.LBB204:
 1360              		.loc 1 146 0
ARM GAS  C:\Users\TAISIK~1\AppData\Local\Temp\ccZJTFka.s 			page 25


 1361 029a 2023     		movs	r3, #32
 1362              	.LVL193:
 1363              	.LBE204:
 1364              		.loc 1 145 0
 1365 029c 0860     		str	r0, [r1, #0]
 1366              	.LBB205:
 1367              		.loc 1 146 0
 1368              	@ 146 "../../test/testqueues.c" 1
 1369 029e 83F31188 		msr     BASEPRI, r3
 1370              	@ 0 "" 2
 1371              	.LVL194:
 1372              		.thumb
 1373              	.LBE205:
 1374 02a2 A268     		ldr	r2, [r4, #8]
 1375 02a4 511B     		subs	r1, r2, r5
 1376 02a6 D1F1000C 		rsbs	ip, r1, #0
 1377 02aa 4CEB0101 		adc	r1, ip, r1
 1378 02ae 0C20     		movs	r0, #12
 1379 02b0 FFF7FEFF 		bl	_test_assert
 1380              	.LVL195:
 1381 02b4 0346     		mov	r3, r0
 1382 02b6 78B1     		cbz	r0, .L37
 1383              	.LBB206:
 1384 02b8 2B46     		mov	r3, r5
 1385              	@ 146 "../../test/testqueues.c" 1
 1386 02ba 83F31188 		msr     BASEPRI, r3
 1387              	@ 0 "" 2
 1388              	.LVL196:
 1389              		.thumb
 1390 02be D9E6     		b	.L27
 1391              	.L44:
 1392              		.align	2
 1393              	.L43:
 1394 02c0 00000000 		.word	.LANCHOR1
 1395 02c4 00000000 		.word	.LC0
 1396 02c8 00000000 		.word	wa
 1397 02cc 00000000 		.word	rlist
 1398 02d0 00000000 		.word	thread1
 1399 02d4 00000000 		.word	threads
 1400              	.LVL197:
 1401              	.L37:
 1402              	.LBE206:
 1403              	.LBB207:
 1404              	@ 146 "../../test/testqueues.c" 1
 1405 02d8 83F31188 		msr     BASEPRI, r3
 1406              	@ 0 "" 2
 1407              	.LVL198:
 1408              		.thumb
 1409              	.LBE207:
 1410              		.loc 1 147 0
 1411 02dc FFF7FEFF 		bl	test_wait_threads
 1412              	.LVL199:
 1413              		.loc 1 150 0
 1414 02e0 0A21     		movs	r1, #10
 1415 02e2 0748     		ldr	r0, .L45
 1416 02e4 FFF7FEFF 		bl	chIQGetTimeout
 1417 02e8 A0F1FF31 		sub	r1, r0, #-1
ARM GAS  C:\Users\TAISIK~1\AppData\Local\Temp\ccZJTFka.s 			page 26


 1418 02ec 4842     		rsbs	r0, r1, #0
 1419 02ee 40EB0101 		adc	r1, r0, r1
 1420 02f2 0D20     		movs	r0, #13
 1421              	.LBE208:
 1422              	.LBE210:
 1423              		.loc 1 151 0
 1424 02f4 03B0     		add	sp, sp, #12
 1425 02f6 BDE8F043 		pop	{r4, r5, r6, r7, r8, r9, lr}
 1426              	.LBB211:
 1427              	.LBB209:
 1428              		.loc 1 150 0
 1429 02fa FFF7FEBF 		b	_test_assert
 1430              	.L46:
 1431 02fe 00BF     		.align	2
 1432              	.L45:
 1433 0300 00000000 		.word	.LANCHOR1
 1434              	.LBE209:
 1435              	.LBE211:
 1436              		.cfi_endproc
 1437              	.LFE10:
 1438              		.size	queues1_execute, .-queues1_execute
 1439              		.global	patternqueues
 1440              		.global	testqueues2
 1441              		.global	testqueues1
 1442 0304 AFF30080 		.section	.rodata.testqueues1,"a",%progbits
 1442      AFF30080 
 1442      AFF30080 
 1443              		.align	2
 1444              		.type	testqueues1, %object
 1445              		.size	testqueues1, 16
 1446              	testqueues1:
 1447 0000 20000000 		.word	.LC2
 1448 0004 00000000 		.word	queues1_setup
 1449 0008 00000000 		.word	0
 1450 000c 00000000 		.word	queues1_execute
 1451              		.section	.rodata.testqueues2,"a",%progbits
 1452              		.align	2
 1453              		.type	testqueues2, %object
 1454              		.size	testqueues2, 16
 1455              	testqueues2:
 1456 0000 08000000 		.word	.LC1
 1457 0004 00000000 		.word	queues2_setup
 1458 0008 00000000 		.word	0
 1459 000c 00000000 		.word	queues2_execute
 1460              		.section	.rodata.str1.4,"aMS",%progbits,1
 1461              		.align	2
 1462              	.LC0:
 1463 0000 41424344 		.ascii	"ABCD\000"
 1463      00
 1464 0005 000000   		.space	3
 1465              	.LC1:
 1466 0008 51756575 		.ascii	"Queues, output queues\000"
 1466      65732C20 
 1466      6F757470 
 1466      75742071 
 1466      75657565 
 1467 001e 0000     		.space	2
ARM GAS  C:\Users\TAISIK~1\AppData\Local\Temp\ccZJTFka.s 			page 27


 1468              	.LC2:
 1469 0020 51756575 		.ascii	"Queues, input queues\000"
 1469      65732C20 
 1469      696E7075 
 1469      74207175 
 1469      65756573 
 1470 0035 000000   		.section	.rodata.patternqueues,"a",%progbits
 1471              		.align	2
 1472              		.type	patternqueues, %object
 1473              		.size	patternqueues, 12
 1474              	patternqueues:
 1475 0000 00000000 		.word	testqueues1
 1476 0004 00000000 		.word	testqueues2
 1477 0008 00000000 		.word	0
 1478              		.section	.data.oq,"aw",%progbits
 1479              		.align	2
 1480              		.set	.LANCHOR0,. + 0
 1481              		.type	oq, %object
 1482              		.size	oq, 36
 1483              	oq:
 1484 0000 00000000 		.word	oq
 1485 0004 00000000 		.word	oq
 1486 0008 04000000 		.word	4
 1487 000c 30010000 		.word	test+304
 1488 0010 34010000 		.word	test+308
 1489 0014 30010000 		.word	test+304
 1490 0018 30010000 		.word	test+304
 1491 001c 00000000 		.word	notify
 1492 0020 00000000 		.word	0
 1493              		.section	.data.iq,"aw",%progbits
 1494              		.align	2
 1495              		.set	.LANCHOR1,. + 0
 1496              		.type	iq, %object
 1497              		.size	iq, 36
 1498              	iq:
 1499 0000 00000000 		.word	iq
 1500 0004 00000000 		.word	iq
 1501 0008 00000000 		.word	0
 1502 000c 00000000 		.word	test
 1503 0010 04000000 		.word	test+4
 1504 0014 00000000 		.word	test
 1505 0018 00000000 		.word	test
 1506 001c 00000000 		.word	notify
 1507 0020 00000000 		.word	0
 1508              		.text
 1509              	.Letext0:
 1510              		.file 2 "c:\\chibistudio\\tools\\gnu tools arm embedded\\4.6 2012q4\\bin\\../lib/gcc/arm-none-eabi
 1511              		.file 3 "c:\\chibistudio\\tools\\gnu tools arm embedded\\4.6 2012q4\\bin\\../lib/gcc/arm-none-eabi
 1512              		.file 4 "../../os/ports/GCC/ARMCMx/chtypes.h"
 1513              		.file 5 "../../os/kernel/include/chlists.h"
 1514              		.file 6 "../../os/kernel/include/chthreads.h"
 1515              		.file 7 "../../os/ports/GCC/ARMCMx/chcore_v7m.h"
 1516              		.file 8 "../../os/kernel/include/chschd.h"
 1517              		.file 9 "../../os/kernel/include/chmtx.h"
 1518              		.file 10 "../../os/kernel/include/chqueues.h"
 1519              		.file 11 "../../test/test.h"