ARM GAS  C:\Users\TAISIK~1\AppData\Local\Temp\ccG4oTzW.s 			page 1


   1              		.syntax unified
   2              		.cpu cortex-m4
   3              		.fpu softvfp
   4              		.eabi_attribute 20, 1
   5              		.eabi_attribute 21, 1
   6              		.eabi_attribute 23, 3
   7              		.eabi_attribute 24, 1
   8              		.eabi_attribute 25, 1
   9              		.eabi_attribute 26, 1
  10              		.eabi_attribute 30, 2
  11              		.eabi_attribute 34, 1
  12              		.eabi_attribute 18, 4
  13              		.thumb
  14              		.file	"testmbox.c"
  15              		.text
  16              	.Ltext0:
  17              		.cfi_sections	.debug_frame
  18              		.section	.text.mbox1_setup,"ax",%progbits
  19              		.align	2
  20              		.p2align 4,,15
  21              		.thumb
  22              		.thumb_func
  23              		.type	mbox1_setup, %function
  24              	mbox1_setup:
  25              	.LFB7:
  26              		.file 1 "../../test/testmbox.c"
  27              		.loc 1 75 0
  28              		.cfi_startproc
  29              		@ args = 0, pretend = 0, frame = 0
  30              		@ frame_needed = 0, uses_anonymous_args = 0
  31              		@ link register save eliminated.
  32              		.loc 1 77 0
  33 0000 40F20000 		movw	r0, #:lower16:.LANCHOR0
  34 0004 40F20001 		movw	r1, #:lower16:test
  35 0008 C0F20001 		movt	r1, #:upper16:test
  36 000c C0F20000 		movt	r0, #:upper16:.LANCHOR0
  37 0010 0522     		movs	r2, #5
  38              		.loc 1 78 0
  39              		.loc 1 77 0
  40 0012 FFF7FEBF 		b	chMBInit
  41              		.cfi_endproc
  42              	.LFE7:
  43              		.size	mbox1_setup, .-mbox1_setup
  44 0016 00BFAFF3 		.section	.text.mbox1_execute,"ax",%progbits
  44      0080AFF3 
  44      0080
  45              		.align	2
  46              		.p2align 4,,15
  47              		.thumb
  48              		.thumb_func
  49              		.type	mbox1_execute, %function
  50              	mbox1_execute:
  51              	.LFB8:
  52              		.loc 1 80 0
  53              		.cfi_startproc
  54              		@ args = 0, pretend = 0, frame = 8
  55              		@ frame_needed = 0, uses_anonymous_args = 0
ARM GAS  C:\Users\TAISIK~1\AppData\Local\Temp\ccG4oTzW.s 			page 2


  56 0000 70B5     		push	{r4, r5, r6, lr}
  57              	.LCFI0:
  58              		.cfi_def_cfa_offset 16
  59              		.cfi_offset 14, -4
  60              		.cfi_offset 6, -8
  61              		.cfi_offset 5, -12
  62              		.cfi_offset 4, -16
  63              		.loc 1 87 0
  64 0002 624C     		ldr	r4, .L28
  65 0004 626A     		ldr	r2, [r4, #36]
  66 0006 A2F10500 		sub	r0, r2, #5
  67 000a 4142     		rsbs	r1, r0, #0
  68 000c 41EB0001 		adc	r1, r1, r0
  69              		.loc 1 80 0
  70 0010 82B0     		sub	sp, sp, #8
  71              	.LCFI1:
  72              		.cfi_def_cfa_offset 24
  73              		.loc 1 87 0
  74 0012 0120     		movs	r0, #1
  75 0014 FFF7FEFF 		bl	_test_assert
  76 0018 0028     		cmp	r0, #0
  77 001a 45D1     		bne	.L2
  78              		.loc 1 93 0
  79 001c 4221     		movs	r1, #66
  80 001e 4FF0FF32 		mov	r2, #-1
  81 0022 2046     		mov	r0, r4
  82 0024 FFF7FEFF 		bl	chMBPost
  83              	.LVL0:
  84              		.loc 1 94 0
  85 0028 D0F10101 		rsbs	r1, r0, #1
  86 002c 38BF     		it	cc
  87 002e 0021     		movcc	r1, #0
  88 0030 0220     		movs	r0, #2
  89              	.LVL1:
  90 0032 FFF7FEFF 		bl	_test_assert
  91 0036 B8BB     		cbnz	r0, .L2
  92              	.LVL2:
  93              		.loc 1 93 0
  94 0038 4321     		movs	r1, #67
  95 003a 4FF0FF32 		mov	r2, #-1
  96 003e 2046     		mov	r0, r4
  97 0040 FFF7FEFF 		bl	chMBPost
  98              	.LVL3:
  99              		.loc 1 94 0
 100 0044 D0F10101 		rsbs	r1, r0, #1
 101 0048 38BF     		it	cc
 102 004a 0021     		movcc	r1, #0
 103 004c 0220     		movs	r0, #2
 104              	.LVL4:
 105 004e FFF7FEFF 		bl	_test_assert
 106 0052 48BB     		cbnz	r0, .L2
 107              	.LVL5:
 108              		.loc 1 93 0
 109 0054 4421     		movs	r1, #68
 110 0056 4FF0FF32 		mov	r2, #-1
 111 005a 2046     		mov	r0, r4
 112 005c FFF7FEFF 		bl	chMBPost
ARM GAS  C:\Users\TAISIK~1\AppData\Local\Temp\ccG4oTzW.s 			page 3


 113              	.LVL6:
 114              		.loc 1 94 0
 115 0060 D0F10101 		rsbs	r1, r0, #1
 116 0064 38BF     		it	cc
 117 0066 0021     		movcc	r1, #0
 118 0068 0220     		movs	r0, #2
 119              	.LVL7:
 120 006a FFF7FEFF 		bl	_test_assert
 121 006e D8B9     		cbnz	r0, .L2
 122              	.LVL8:
 123              		.loc 1 93 0
 124 0070 4521     		movs	r1, #69
 125 0072 4FF0FF32 		mov	r2, #-1
 126 0076 2046     		mov	r0, r4
 127 0078 FFF7FEFF 		bl	chMBPost
 128              	.LVL9:
 129              		.loc 1 94 0
 130 007c D0F10101 		rsbs	r1, r0, #1
 131 0080 38BF     		it	cc
 132 0082 0021     		movcc	r1, #0
 133 0084 0220     		movs	r0, #2
 134              	.LVL10:
 135 0086 FFF7FEFF 		bl	_test_assert
 136 008a 68B9     		cbnz	r0, .L2
 137              	.LVL11:
 138              		.loc 1 96 0
 139 008c 4121     		movs	r1, #65
 140 008e 4FF0FF32 		mov	r2, #-1
 141 0092 2046     		mov	r0, r4
 142 0094 FFF7FEFF 		bl	chMBPostAhead
 143              	.LVL12:
 144              		.loc 1 97 0
 145 0098 D0F10101 		rsbs	r1, r0, #1
 146 009c 38BF     		it	cc
 147 009e 0021     		movcc	r1, #0
 148 00a0 0320     		movs	r0, #3
 149              	.LVL13:
 150 00a2 FFF7FEFF 		bl	_test_assert
 151 00a6 08B1     		cbz	r0, .L27
 152              	.LVL14:
 153              	.L2:
 154              		.loc 1 224 0
 155 00a8 02B0     		add	sp, sp, #8
 156 00aa 70BD     		pop	{r4, r5, r6, pc}
 157              	.LVL15:
 158              	.L27:
 159              	.LBB116:
 160              	.LBB117:
 161              		.loc 1 102 0
 162 00ac 5821     		movs	r1, #88
 163 00ae 0122     		movs	r2, #1
 164 00b0 2046     		mov	r0, r4
 165 00b2 FFF7FEFF 		bl	chMBPost
 166              	.LVL16:
 167              		.loc 1 103 0
 168 00b6 A0F1FF35 		sub	r5, r0, #-1
 169 00ba 6B42     		rsbs	r3, r5, #0
ARM GAS  C:\Users\TAISIK~1\AppData\Local\Temp\ccG4oTzW.s 			page 4


 170 00bc 43EB0501 		adc	r1, r3, r5
 171 00c0 0420     		movs	r0, #4
 172              	.LVL17:
 173 00c2 FFF7FEFF 		bl	_test_assert
 174 00c6 0546     		mov	r5, r0
 175              	.LVL18:
 176 00c8 0028     		cmp	r0, #0
 177 00ca EDD1     		bne	.L2
 178              	.LBB118:
 179              		.loc 1 104 0
 180 00cc 2023     		movs	r3, #32
 181              	.LVL19:
 182              	@ 104 "../../test/testmbox.c" 1
 183 00ce 83F31188 		msr     BASEPRI, r3
 184              	@ 0 "" 2
 185              	.LVL20:
 186              		.thumb
 187              	.LBE118:
 188              		.loc 1 105 0
 189 00d2 5821     		movs	r1, #88
 190 00d4 2046     		mov	r0, r4
 191 00d6 FFF7FEFF 		bl	chMBPostI
 192              	.LVL21:
 193              	.LBB119:
 194              		.loc 1 106 0
 195 00da 2B46     		mov	r3, r5
 196              	.LVL22:
 197              	@ 106 "../../test/testmbox.c" 1
 198 00dc 83F31188 		msr     BASEPRI, r3
 199              	@ 0 "" 2
 200              	.LVL23:
 201              		.thumb
 202              	.LBE119:
 203              		.loc 1 107 0
 204 00e0 A0F1FF31 		sub	r1, r0, #-1
 205 00e4 D1F1000C 		rsbs	ip, r1, #0
 206 00e8 4CEB0101 		adc	r1, ip, r1
 207 00ec 0520     		movs	r0, #5
 208              	.LVL24:
 209 00ee FFF7FEFF 		bl	_test_assert
 210              	.LVL25:
 211 00f2 0028     		cmp	r0, #0
 212 00f4 D8D1     		bne	.L2
 213              		.loc 1 108 0
 214 00f6 5821     		movs	r1, #88
 215 00f8 0122     		movs	r2, #1
 216 00fa 2046     		mov	r0, r4
 217 00fc FFF7FEFF 		bl	chMBPostAhead
 218              	.LVL26:
 219              		.loc 1 109 0
 220 0100 A0F1FF32 		sub	r2, r0, #-1
 221 0104 5042     		rsbs	r0, r2, #0
 222              	.LVL27:
 223 0106 40EB0201 		adc	r1, r0, r2
 224 010a 0620     		movs	r0, #6
 225 010c FFF7FEFF 		bl	_test_assert
 226              	.LVL28:
ARM GAS  C:\Users\TAISIK~1\AppData\Local\Temp\ccG4oTzW.s 			page 5


 227 0110 0546     		mov	r5, r0
 228 0112 0028     		cmp	r0, #0
 229 0114 C8D1     		bne	.L2
 230              	.LBB120:
 231              		.loc 1 110 0
 232 0116 2023     		movs	r3, #32
 233              	.LVL29:
 234              	@ 110 "../../test/testmbox.c" 1
 235 0118 83F31188 		msr     BASEPRI, r3
 236              	@ 0 "" 2
 237              	.LVL30:
 238              		.thumb
 239              	.LBE120:
 240              		.loc 1 111 0
 241 011c 5821     		movs	r1, #88
 242 011e 2046     		mov	r0, r4
 243 0120 FFF7FEFF 		bl	chMBPostAheadI
 244              	.LVL31:
 245              	.LBB121:
 246              		.loc 1 112 0
 247 0124 2B46     		mov	r3, r5
 248              	.LVL32:
 249              	@ 112 "../../test/testmbox.c" 1
 250 0126 83F31188 		msr     BASEPRI, r3
 251              	@ 0 "" 2
 252              	.LVL33:
 253              		.thumb
 254              	.LBE121:
 255              		.loc 1 113 0
 256 012a A0F1FF31 		sub	r1, r0, #-1
 257 012e 4B42     		rsbs	r3, r1, #0
 258              	.LVL34:
 259 0130 43EB0101 		adc	r1, r3, r1
 260 0134 0720     		movs	r0, #7
 261              	.LVL35:
 262 0136 FFF7FEFF 		bl	_test_assert
 263 013a 0028     		cmp	r0, #0
 264 013c B4D1     		bne	.L2
 265              	.LBB122:
 266              		.loc 1 118 0
 267 013e 2023     		movs	r3, #32
 268              	.LVL36:
 269              	@ 118 "../../test/testmbox.c" 1
 270 0140 83F31188 		msr     BASEPRI, r3
 271              	@ 0 "" 2
 272              	.LVL37:
 273              		.thumb
 274              	.LBE122:
 275 0144 666A     		ldr	r6, [r4, #36]
 276 0146 D6F10101 		rsbs	r1, r6, #1
 277 014a 38BF     		it	cc
 278 014c 0021     		movcc	r1, #0
 279 014e 0820     		movs	r0, #8
 280 0150 FFF7FEFF 		bl	_test_assert
 281              	.LVL38:
 282 0154 0646     		mov	r6, r0
 283 0156 18B1     		cbz	r0, .L4
ARM GAS  C:\Users\TAISIK~1\AppData\Local\Temp\ccG4oTzW.s 			page 6


 284              	.L25:
 285              	.LBB123:
 286              		.loc 1 223 0
 287 0158 0023     		movs	r3, #0
 288              	@ 223 "../../test/testmbox.c" 1
 289 015a 83F31188 		msr     BASEPRI, r3
 290              	@ 0 "" 2
 291              	.LVL39:
 292              		.thumb
 293 015e A3E7     		b	.L2
 294              	.LVL40:
 295              	.L4:
 296              	.LBE123:
 297              	.LBB124:
 298              		.loc 1 118 0
 299 0160 0346     		mov	r3, r0
 300              	.LVL41:
 301              	@ 118 "../../test/testmbox.c" 1
 302 0162 83F31188 		msr     BASEPRI, r3
 303              	@ 0 "" 2
 304              	.LVL42:
 305              		.thumb
 306              	.LBE124:
 307              	.LBB125:
 308              		.loc 1 119 0
 309 0166 2023     		movs	r3, #32
 310              	.LVL43:
 311              	@ 119 "../../test/testmbox.c" 1
 312 0168 83F31188 		msr     BASEPRI, r3
 313              	@ 0 "" 2
 314              	.LVL44:
 315              		.thumb
 316              	.LBE125:
 317 016c A569     		ldr	r5, [r4, #24]
 318 016e A5F1050E 		sub	lr, r5, #5
 319 0172 DEF10000 		rsbs	r0, lr, #0
 320 0176 40EB0E01 		adc	r1, r0, lr
 321 017a 0920     		movs	r0, #9
 322 017c FFF7FEFF 		bl	_test_assert
 323              	.LVL45:
 324 0180 0546     		mov	r5, r0
 325 0182 28B1     		cbz	r0, .L5
 326              	.L22:
 327              	.LBB126:
 328              		.loc 1 156 0
 329 0184 3346     		mov	r3, r6
 330              	@ 156 "../../test/testmbox.c" 1
 331 0186 83F31188 		msr     BASEPRI, r3
 332              	@ 0 "" 2
 333              	.LVL46:
 334              		.thumb
 335 018a 8DE7     		b	.L2
 336              	.L29:
 337              		.align	2
 338              	.L28:
 339 018c 00000000 		.word	.LANCHOR0
 340              	.LVL47:
ARM GAS  C:\Users\TAISIK~1\AppData\Local\Temp\ccG4oTzW.s 			page 7


 341              	.L5:
 342              	.LBE126:
 343              	.LBB127:
 344              		.loc 1 119 0
 345 0190 0346     		mov	r3, r0
 346              	.LVL48:
 347              	@ 119 "../../test/testmbox.c" 1
 348 0192 83F31188 		msr     BASEPRI, r3
 349              	@ 0 "" 2
 350              	.LVL49:
 351              		.thumb
 352              	.LBE127:
 353              	.LBB128:
 354              		.loc 1 120 0
 355 0196 2023     		movs	r3, #32
 356              	.LVL50:
 357              	@ 120 "../../test/testmbox.c" 1
 358 0198 83F31188 		msr     BASEPRI, r3
 359              	@ 0 "" 2
 360              	.LVL51:
 361              		.thumb
 362              	.LBE128:
 363 019c E168     		ldr	r1, [r4, #12]
 364 019e A068     		ldr	r0, [r4, #8]
 365 01a0 0B1A     		subs	r3, r1, r0
 366              	.LVL52:
 367 01a2 5A42     		rsbs	r2, r3, #0
 368 01a4 42EB0301 		adc	r1, r2, r3
 369 01a8 0A20     		movs	r0, #10
 370 01aa FFF7FEFF 		bl	_test_assert
 371 01ae 0346     		mov	r3, r0
 372 01b0 0028     		cmp	r0, #0
 373 01b2 40F0DF80 		bne	.L24
 374              	.LBB129:
 375              	@ 120 "../../test/testmbox.c" 1
 376 01b6 83F31188 		msr     BASEPRI, r3
 377              	@ 0 "" 2
 378              	.LVL53:
 379              		.thumb
 380              	.LBE129:
 381              		.loc 1 126 0
 382 01ba 4FF0FF32 		mov	r2, #-1
 383 01be 01A9     		add	r1, sp, #4
 384 01c0 2046     		mov	r0, r4
 385 01c2 FFF7FEFF 		bl	chMBFetch
 386              	.LVL54:
 387              		.loc 1 127 0
 388 01c6 D0F10101 		rsbs	r1, r0, #1
 389 01ca 38BF     		it	cc
 390 01cc 0021     		movcc	r1, #0
 391 01ce 0B20     		movs	r0, #11
 392              	.LVL55:
 393 01d0 FFF7FEFF 		bl	_test_assert
 394 01d4 0028     		cmp	r0, #0
 395 01d6 7FF467AF 		bne	.L2
 396              	.LVL56:
 397              		.loc 1 128 0
ARM GAS  C:\Users\TAISIK~1\AppData\Local\Temp\ccG4oTzW.s 			page 8


 398 01da 9DF80400 		ldrb	r0, [sp, #4]	@ zero_extendqisi2
 399 01de FFF7FEFF 		bl	test_emit_token
 400              	.LVL57:
 401              		.loc 1 126 0
 402 01e2 01A9     		add	r1, sp, #4
 403 01e4 2046     		mov	r0, r4
 404 01e6 4FF0FF32 		mov	r2, #-1
 405 01ea FFF7FEFF 		bl	chMBFetch
 406              	.LVL58:
 407              		.loc 1 127 0
 408 01ee D0F10101 		rsbs	r1, r0, #1
 409 01f2 38BF     		it	cc
 410 01f4 0021     		movcc	r1, #0
 411 01f6 0B20     		movs	r0, #11
 412              	.LVL59:
 413 01f8 FFF7FEFF 		bl	_test_assert
 414 01fc 0028     		cmp	r0, #0
 415 01fe 7FF453AF 		bne	.L2
 416              		.loc 1 128 0
 417 0202 9DF80400 		ldrb	r0, [sp, #4]	@ zero_extendqisi2
 418 0206 FFF7FEFF 		bl	test_emit_token
 419              	.LVL60:
 420              		.loc 1 126 0
 421 020a 01A9     		add	r1, sp, #4
 422 020c 2046     		mov	r0, r4
 423 020e 4FF0FF32 		mov	r2, #-1
 424 0212 FFF7FEFF 		bl	chMBFetch
 425              	.LVL61:
 426              		.loc 1 127 0
 427 0216 D0F10101 		rsbs	r1, r0, #1
 428 021a 38BF     		it	cc
 429 021c 0021     		movcc	r1, #0
 430 021e 0B20     		movs	r0, #11
 431              	.LVL62:
 432 0220 FFF7FEFF 		bl	_test_assert
 433 0224 0028     		cmp	r0, #0
 434 0226 7FF43FAF 		bne	.L2
 435              		.loc 1 128 0
 436 022a 9DF80400 		ldrb	r0, [sp, #4]	@ zero_extendqisi2
 437 022e FFF7FEFF 		bl	test_emit_token
 438              	.LVL63:
 439              		.loc 1 126 0
 440 0232 01A9     		add	r1, sp, #4
 441 0234 2046     		mov	r0, r4
 442 0236 4FF0FF32 		mov	r2, #-1
 443 023a FFF7FEFF 		bl	chMBFetch
 444              	.LVL64:
 445              		.loc 1 127 0
 446 023e D0F10101 		rsbs	r1, r0, #1
 447 0242 38BF     		it	cc
 448 0244 0021     		movcc	r1, #0
 449 0246 0B20     		movs	r0, #11
 450              	.LVL65:
 451 0248 FFF7FEFF 		bl	_test_assert
 452 024c 0028     		cmp	r0, #0
 453 024e 7FF42BAF 		bne	.L2
 454              		.loc 1 128 0
ARM GAS  C:\Users\TAISIK~1\AppData\Local\Temp\ccG4oTzW.s 			page 9


 455 0252 9DF80400 		ldrb	r0, [sp, #4]	@ zero_extendqisi2
 456 0256 FFF7FEFF 		bl	test_emit_token
 457              	.LVL66:
 458              		.loc 1 126 0
 459 025a 01A9     		add	r1, sp, #4
 460 025c 2046     		mov	r0, r4
 461 025e 4FF0FF32 		mov	r2, #-1
 462 0262 FFF7FEFF 		bl	chMBFetch
 463              	.LVL67:
 464              		.loc 1 127 0
 465 0266 D0F10101 		rsbs	r1, r0, #1
 466 026a 38BF     		it	cc
 467 026c 0021     		movcc	r1, #0
 468 026e 0B20     		movs	r0, #11
 469              	.LVL68:
 470 0270 FFF7FEFF 		bl	_test_assert
 471 0274 0028     		cmp	r0, #0
 472 0276 7FF417AF 		bne	.L2
 473              		.loc 1 128 0
 474 027a 9DF80400 		ldrb	r0, [sp, #4]	@ zero_extendqisi2
 475 027e FFF7FEFF 		bl	test_emit_token
 476              	.LVL69:
 477              		.loc 1 130 0
 478 0282 0C20     		movs	r0, #12
 479 0284 3D49     		ldr	r1, .L30
 480 0286 FFF7FEFF 		bl	_test_assert_sequence
 481 028a 0028     		cmp	r0, #0
 482 028c 7FF40CAF 		bne	.L2
 483              		.loc 1 135 0
 484 0290 4721     		movs	r1, #71
 485 0292 4FF0FF32 		mov	r2, #-1
 486 0296 2046     		mov	r0, r4
 487 0298 FFF7FEFF 		bl	chMBPost
 488              	.LVL70:
 489              		.loc 1 136 0
 490 029c D0F10101 		rsbs	r1, r0, #1
 491 02a0 38BF     		it	cc
 492 02a2 0021     		movcc	r1, #0
 493 02a4 0D20     		movs	r0, #13
 494              	.LVL71:
 495 02a6 FFF7FEFF 		bl	_test_assert
 496 02aa 0028     		cmp	r0, #0
 497 02ac 7FF4FCAE 		bne	.L2
 498              		.loc 1 137 0
 499 02b0 334C     		ldr	r4, .L30+4
 500 02b2 01A9     		add	r1, sp, #4
 501 02b4 4FF0FF32 		mov	r2, #-1
 502 02b8 2046     		mov	r0, r4
 503 02ba FFF7FEFF 		bl	chMBFetch
 504              	.LVL72:
 505              		.loc 1 138 0
 506 02be D0F10101 		rsbs	r1, r0, #1
 507 02c2 38BF     		it	cc
 508 02c4 0021     		movcc	r1, #0
 509 02c6 0E20     		movs	r0, #14
 510              	.LVL73:
 511 02c8 FFF7FEFF 		bl	_test_assert
ARM GAS  C:\Users\TAISIK~1\AppData\Local\Temp\ccG4oTzW.s 			page 10


 512 02cc 0028     		cmp	r0, #0
 513 02ce 7FF4EBAE 		bne	.L2
 514              		.loc 1 139 0
 515 02d2 A168     		ldr	r1, [r4, #8]
 516 02d4 2268     		ldr	r2, [r4, #0]
 517 02d6 C1EB020C 		rsb	ip, r1, r2
 518 02da DCF10003 		rsbs	r3, ip, #0
 519 02de 43EB0C01 		adc	r1, r3, ip
 520 02e2 0F20     		movs	r0, #15
 521 02e4 FFF7FEFF 		bl	_test_assert
 522 02e8 0028     		cmp	r0, #0
 523 02ea 7FF4DDAE 		bne	.L2
 524              		.loc 1 140 0
 525 02ee 2268     		ldr	r2, [r4, #0]
 526 02f0 E368     		ldr	r3, [r4, #12]
 527 02f2 C3EB020E 		rsb	lr, r3, r2
 528 02f6 DEF10000 		rsbs	r0, lr, #0
 529 02fa 40EB0E01 		adc	r1, r0, lr
 530 02fe 1020     		movs	r0, #16
 531 0300 FFF7FEFF 		bl	_test_assert
 532 0304 0028     		cmp	r0, #0
 533 0306 7FF4CFAE 		bne	.L2
 534              		.loc 1 145 0
 535 030a 0122     		movs	r2, #1
 536 030c 01A9     		add	r1, sp, #4
 537 030e 2046     		mov	r0, r4
 538 0310 FFF7FEFF 		bl	chMBFetch
 539              	.LVL74:
 540              		.loc 1 146 0
 541 0314 A0F1FF31 		sub	r1, r0, #-1
 542 0318 4D42     		rsbs	r5, r1, #0
 543 031a 45EB0101 		adc	r1, r5, r1
 544 031e 1120     		movs	r0, #17
 545              	.LVL75:
 546 0320 FFF7FEFF 		bl	_test_assert
 547 0324 0546     		mov	r5, r0
 548 0326 0028     		cmp	r0, #0
 549 0328 7FF4BEAE 		bne	.L2
 550              	.LBB130:
 551              		.loc 1 147 0
 552 032c 2023     		movs	r3, #32
 553              	.LVL76:
 554              	@ 147 "../../test/testmbox.c" 1
 555 032e 83F31188 		msr     BASEPRI, r3
 556              	@ 0 "" 2
 557              	.LVL77:
 558              		.thumb
 559              	.LBE130:
 560              		.loc 1 148 0
 561 0332 2046     		mov	r0, r4
 562 0334 01A9     		add	r1, sp, #4
 563 0336 FFF7FEFF 		bl	chMBFetchI
 564              	.LVL78:
 565              	.LBB131:
 566              		.loc 1 149 0
 567 033a 2B46     		mov	r3, r5
 568              	.LVL79:
ARM GAS  C:\Users\TAISIK~1\AppData\Local\Temp\ccG4oTzW.s 			page 11


 569              	@ 149 "../../test/testmbox.c" 1
 570 033c 83F31188 		msr     BASEPRI, r3
 571              	@ 0 "" 2
 572              	.LVL80:
 573              		.thumb
 574              	.LBE131:
 575              		.loc 1 150 0
 576 0340 A0F1FF33 		sub	r3, r0, #-1
 577              	.LVL81:
 578 0344 5842     		rsbs	r0, r3, #0
 579              	.LVL82:
 580 0346 40EB0301 		adc	r1, r0, r3
 581 034a 1220     		movs	r0, #18
 582 034c FFF7FEFF 		bl	_test_assert
 583              	.LVL83:
 584 0350 0546     		mov	r5, r0
 585 0352 0028     		cmp	r0, #0
 586 0354 7FF4A8AE 		bne	.L2
 587              	.LBB132:
 588              		.loc 1 155 0
 589 0358 2023     		movs	r3, #32
 590              	.LVL84:
 591              	@ 155 "../../test/testmbox.c" 1
 592 035a 83F31188 		msr     BASEPRI, r3
 593              	@ 0 "" 2
 594              	.LVL85:
 595              		.thumb
 596              	.LBE132:
 597 035e 616A     		ldr	r1, [r4, #36]
 598 0360 A1F10506 		sub	r6, r1, #5
 599 0364 7242     		rsbs	r2, r6, #0
 600 0366 42EB0601 		adc	r1, r2, r6
 601 036a 1320     		movs	r0, #19
 602 036c FFF7FEFF 		bl	_test_assert
 603              	.LVL86:
 604 0370 0646     		mov	r6, r0
 605 0372 38B1     		cbz	r0, .L7
 606              	.LVL87:
 607              	.L24:
 608              	.LBB133:
 609              		.loc 1 157 0
 610 0374 2B46     		mov	r3, r5
 611              	@ 157 "../../test/testmbox.c" 1
 612 0376 83F31188 		msr     BASEPRI, r3
 613              	@ 0 "" 2
 614              	.LVL88:
 615              		.thumb
 616 037a 95E6     		b	.L2
 617              	.L31:
 618              		.align	2
 619              	.L30:
 620 037c 00000000 		.word	.LC0
 621 0380 00000000 		.word	.LANCHOR0
 622              	.LVL89:
 623              	.L7:
 624              	.LBE133:
 625              	.LBB134:
ARM GAS  C:\Users\TAISIK~1\AppData\Local\Temp\ccG4oTzW.s 			page 12


 626              		.loc 1 155 0
 627 0384 0346     		mov	r3, r0
 628              	.LVL90:
 629              	@ 155 "../../test/testmbox.c" 1
 630 0386 83F31188 		msr     BASEPRI, r3
 631              	@ 0 "" 2
 632              	.LVL91:
 633              		.thumb
 634              	.LBE134:
 635              	.LBB135:
 636              		.loc 1 156 0
 637 038a 2023     		movs	r3, #32
 638              	.LVL92:
 639              	@ 156 "../../test/testmbox.c" 1
 640 038c 83F31188 		msr     BASEPRI, r3
 641              	@ 0 "" 2
 642              	.LVL93:
 643              		.thumb
 644              	.LBE135:
 645 0390 A569     		ldr	r5, [r4, #24]
 646 0392 D5F10101 		rsbs	r1, r5, #1
 647 0396 38BF     		it	cc
 648 0398 0021     		movcc	r1, #0
 649 039a 1420     		movs	r0, #20
 650 039c FFF7FEFF 		bl	_test_assert
 651              	.LVL94:
 652 03a0 0546     		mov	r5, r0
 653 03a2 0028     		cmp	r0, #0
 654 03a4 7FF4EEAE 		bne	.L22
 655              	.LBB136:
 656 03a8 0346     		mov	r3, r0
 657              	.LVL95:
 658              	@ 156 "../../test/testmbox.c" 1
 659 03aa 83F31188 		msr     BASEPRI, r3
 660              	@ 0 "" 2
 661              	.LVL96:
 662              		.thumb
 663              	.LBE136:
 664              	.LBB137:
 665              		.loc 1 157 0
 666 03ae 2023     		movs	r3, #32
 667              	.LVL97:
 668              	@ 157 "../../test/testmbox.c" 1
 669 03b0 83F31188 		msr     BASEPRI, r3
 670              	@ 0 "" 2
 671              	.LVL98:
 672              		.thumb
 673              	.LBE137:
 674 03b4 E068     		ldr	r0, [r4, #12]
 675 03b6 A268     		ldr	r2, [r4, #8]
 676 03b8 C2EB000C 		rsb	ip, r2, r0
 677 03bc DCF10003 		rsbs	r3, ip, #0
 678              	.LVL99:
 679 03c0 43EB0C01 		adc	r1, r3, ip
 680 03c4 1520     		movs	r0, #21
 681 03c6 FFF7FEFF 		bl	_test_assert
 682 03ca 0346     		mov	r3, r0
ARM GAS  C:\Users\TAISIK~1\AppData\Local\Temp\ccG4oTzW.s 			page 13


 683 03cc 0028     		cmp	r0, #0
 684 03ce D1D1     		bne	.L24
 685              	.LBB138:
 686              	@ 157 "../../test/testmbox.c" 1
 687 03d0 83F31188 		msr     BASEPRI, r3
 688              	@ 0 "" 2
 689              	.LVL100:
 690              		.thumb
 691              	.LBE138:
 692              	.LBB139:
 693              		.loc 1 162 0
 694 03d4 2023     		movs	r3, #32
 695              	.LVL101:
 696              	@ 162 "../../test/testmbox.c" 1
 697 03d6 83F31188 		msr     BASEPRI, r3
 698              	@ 0 "" 2
 699              	.LVL102:
 700              		.thumb
 701              	.LBE139:
 702              		.loc 1 163 0
 703 03da 4121     		movs	r1, #65
 704 03dc 2046     		mov	r0, r4
 705 03de FFF7FEFF 		bl	chMBPostI
 706              	.LVL103:
 707              		.loc 1 164 0
 708 03e2 D0F10101 		rsbs	r1, r0, #1
 709 03e6 38BF     		it	cc
 710 03e8 0021     		movcc	r1, #0
 711 03ea 1620     		movs	r0, #22
 712              	.LVL104:
 713 03ec FFF7FEFF 		bl	_test_assert
 714 03f0 0028     		cmp	r0, #0
 715 03f2 7FF459AE 		bne	.L2
 716              		.loc 1 165 0
 717 03f6 4221     		movs	r1, #66
 718 03f8 2046     		mov	r0, r4
 719 03fa FFF7FEFF 		bl	chMBPostI
 720              	.LVL105:
 721              		.loc 1 166 0
 722 03fe D0F10101 		rsbs	r1, r0, #1
 723 0402 38BF     		it	cc
 724 0404 0021     		movcc	r1, #0
 725 0406 1720     		movs	r0, #23
 726              	.LVL106:
 727 0408 FFF7FEFF 		bl	_test_assert
 728 040c 0028     		cmp	r0, #0
 729 040e 7FF44BAE 		bne	.L2
 730              		.loc 1 167 0
 731 0412 C24C     		ldr	r4, .L32
 732 0414 4321     		movs	r1, #67
 733 0416 2046     		mov	r0, r4
 734 0418 FFF7FEFF 		bl	chMBPostI
 735              	.LVL107:
 736              		.loc 1 168 0
 737 041c D0F10101 		rsbs	r1, r0, #1
 738 0420 38BF     		it	cc
 739 0422 0021     		movcc	r1, #0
ARM GAS  C:\Users\TAISIK~1\AppData\Local\Temp\ccG4oTzW.s 			page 14


 740 0424 1820     		movs	r0, #24
 741              	.LVL108:
 742 0426 FFF7FEFF 		bl	_test_assert
 743 042a 0028     		cmp	r0, #0
 744 042c 7FF43CAE 		bne	.L2
 745              		.loc 1 169 0
 746 0430 4421     		movs	r1, #68
 747 0432 2046     		mov	r0, r4
 748 0434 FFF7FEFF 		bl	chMBPostI
 749              	.LVL109:
 750              		.loc 1 170 0
 751 0438 D0F10101 		rsbs	r1, r0, #1
 752 043c 38BF     		it	cc
 753 043e 0021     		movcc	r1, #0
 754 0440 1920     		movs	r0, #25
 755              	.LVL110:
 756 0442 FFF7FEFF 		bl	_test_assert
 757 0446 0546     		mov	r5, r0
 758 0448 0028     		cmp	r0, #0
 759 044a 7FF42DAE 		bne	.L2
 760              		.loc 1 171 0
 761 044e 2046     		mov	r0, r4
 762 0450 4521     		movs	r1, #69
 763 0452 FFF7FEFF 		bl	chMBPostI
 764              	.LVL111:
 765              	.LBB140:
 766              		.loc 1 172 0
 767 0456 2B46     		mov	r3, r5
 768              	.LVL112:
 769              	@ 172 "../../test/testmbox.c" 1
 770 0458 83F31188 		msr     BASEPRI, r3
 771              	@ 0 "" 2
 772              	.LVL113:
 773              		.thumb
 774              	.LBE140:
 775              		.loc 1 173 0
 776 045c D0F10101 		rsbs	r1, r0, #1
 777 0460 38BF     		it	cc
 778 0462 0021     		movcc	r1, #0
 779 0464 1A20     		movs	r0, #26
 780              	.LVL114:
 781 0466 FFF7FEFF 		bl	_test_assert
 782              	.LVL115:
 783 046a 0028     		cmp	r0, #0
 784 046c 7FF41CAE 		bne	.L2
 785              		.loc 1 174 0
 786 0470 E068     		ldr	r0, [r4, #12]
 787 0472 A368     		ldr	r3, [r4, #8]
 788 0474 C11A     		subs	r1, r0, r3
 789 0476 D1F1000E 		rsbs	lr, r1, #0
 790 047a 4EEB0101 		adc	r1, lr, r1
 791 047e 1B20     		movs	r0, #27
 792 0480 FFF7FEFF 		bl	_test_assert
 793 0484 0028     		cmp	r0, #0
 794 0486 7FF40FAE 		bne	.L2
 795 048a 0525     		movs	r5, #5
 796              	.LVL116:
ARM GAS  C:\Users\TAISIK~1\AppData\Local\Temp\ccG4oTzW.s 			page 15


 797              	.L10:
 798              	.LBB141:
 799              		.loc 1 176 0
 800 048c 2023     		movs	r3, #32
 801              	.LVL117:
 802              	@ 176 "../../test/testmbox.c" 1
 803 048e 83F31188 		msr     BASEPRI, r3
 804              	@ 0 "" 2
 805              	.LVL118:
 806              		.thumb
 807              	.LBE141:
 808              		.loc 1 177 0
 809 0492 A24C     		ldr	r4, .L32
 810 0494 01A9     		add	r1, sp, #4
 811 0496 2046     		mov	r0, r4
 812 0498 FFF7FEFF 		bl	chMBFetchI
 813              	.LVL119:
 814              	.LBB142:
 815              		.loc 1 178 0
 816 049c 0023     		movs	r3, #0
 817              	.LVL120:
 818              	@ 178 "../../test/testmbox.c" 1
 819 049e 83F31188 		msr     BASEPRI, r3
 820              	@ 0 "" 2
 821              	.LVL121:
 822              		.thumb
 823              	.LBE142:
 824              		.loc 1 179 0
 825 04a2 C11A     		subs	r1, r0, r3
 826              	.LVL122:
 827 04a4 4A42     		rsbs	r2, r1, #0
 828 04a6 42EB0101 		adc	r1, r2, r1
 829 04aa 1C20     		movs	r0, #28
 830              	.LVL123:
 831 04ac FFF7FEFF 		bl	_test_assert
 832 04b0 0028     		cmp	r0, #0
 833 04b2 7FF4F9AD 		bne	.L2
 834              		.loc 1 180 0
 835 04b6 9DF80400 		ldrb	r0, [sp, #4]	@ zero_extendqisi2
 836 04ba FFF7FEFF 		bl	test_emit_token
 837              		.loc 1 175 0
 838 04be 013D     		subs	r5, r5, #1
 839 04c0 E4D1     		bne	.L10
 840              		.loc 1 182 0
 841 04c2 1D20     		movs	r0, #29
 842 04c4 9649     		ldr	r1, .L32+4
 843 04c6 FFF7FEFF 		bl	_test_assert_sequence
 844 04ca 0028     		cmp	r0, #0
 845 04cc 7FF4ECAD 		bne	.L2
 846              	.LBB143:
 847              		.loc 1 183 0
 848 04d0 2023     		movs	r3, #32
 849              	.LVL124:
 850              	@ 183 "../../test/testmbox.c" 1
 851 04d2 83F31188 		msr     BASEPRI, r3
 852              	@ 0 "" 2
 853              	.LVL125:
ARM GAS  C:\Users\TAISIK~1\AppData\Local\Temp\ccG4oTzW.s 			page 16


 854              		.thumb
 855              	.LBE143:
 856 04d6 626A     		ldr	r2, [r4, #36]
 857 04d8 A2F10503 		sub	r3, r2, #5
 858              	.LVL126:
 859 04dc 5842     		rsbs	r0, r3, #0
 860 04de 40EB0301 		adc	r1, r0, r3
 861 04e2 1E20     		movs	r0, #30
 862 04e4 FFF7FEFF 		bl	_test_assert
 863              	.LBB144:
 864 04e8 2B46     		mov	r3, r5
 865              	@ 183 "../../test/testmbox.c" 1
 866 04ea 83F31188 		msr     BASEPRI, r3
 867              	@ 0 "" 2
 868              	.LVL127:
 869              		.thumb
 870              	.LBE144:
 871 04ee 0028     		cmp	r0, #0
 872 04f0 7FF4DAAD 		bne	.L2
 873              	.LBB145:
 874              		.loc 1 184 0
 875 04f4 2023     		movs	r3, #32
 876              	.LVL128:
 877              	@ 184 "../../test/testmbox.c" 1
 878 04f6 83F31188 		msr     BASEPRI, r3
 879              	@ 0 "" 2
 880              	.LVL129:
 881              		.thumb
 882              	.LBE145:
 883 04fa A169     		ldr	r1, [r4, #24]
 884 04fc D1F10101 		rsbs	r1, r1, #1
 885 0500 38BF     		it	cc
 886 0502 0021     		movcc	r1, #0
 887 0504 1F20     		movs	r0, #31
 888 0506 FFF7FEFF 		bl	_test_assert
 889              	.LVL130:
 890              	.LBB146:
 891 050a 2B46     		mov	r3, r5
 892              	@ 184 "../../test/testmbox.c" 1
 893 050c 83F31188 		msr     BASEPRI, r3
 894              	@ 0 "" 2
 895              	.LVL131:
 896              		.thumb
 897              	.LBE146:
 898 0510 0028     		cmp	r0, #0
 899 0512 7FF4C9AD 		bne	.L2
 900              		.loc 1 185 0
 901 0516 A168     		ldr	r1, [r4, #8]
 902 0518 E268     		ldr	r2, [r4, #12]
 903 051a 531A     		subs	r3, r2, r1
 904              	.LVL132:
 905 051c 5842     		rsbs	r0, r3, #0
 906 051e 40EB0301 		adc	r1, r0, r3
 907 0522 2020     		movs	r0, #32
 908 0524 FFF7FEFF 		bl	_test_assert
 909 0528 0028     		cmp	r0, #0
 910 052a 7FF4BDAD 		bne	.L2
ARM GAS  C:\Users\TAISIK~1\AppData\Local\Temp\ccG4oTzW.s 			page 17


 911              	.LBB147:
 912              		.loc 1 187 0
 913 052e 2023     		movs	r3, #32
 914              	.LVL133:
 915              	@ 187 "../../test/testmbox.c" 1
 916 0530 83F31188 		msr     BASEPRI, r3
 917              	@ 0 "" 2
 918              	.LVL134:
 919              		.thumb
 920              	.LBE147:
 921              		.loc 1 188 0
 922 0534 4521     		movs	r1, #69
 923 0536 2046     		mov	r0, r4
 924 0538 FFF7FEFF 		bl	chMBPostAheadI
 925              	.LVL135:
 926              		.loc 1 189 0
 927 053c D0F10101 		rsbs	r1, r0, #1
 928 0540 38BF     		it	cc
 929 0542 0021     		movcc	r1, #0
 930 0544 2120     		movs	r0, #33
 931              	.LVL136:
 932 0546 FFF7FEFF 		bl	_test_assert
 933 054a 0028     		cmp	r0, #0
 934 054c 7FF4ACAD 		bne	.L2
 935              		.loc 1 190 0
 936 0550 4421     		movs	r1, #68
 937 0552 2046     		mov	r0, r4
 938 0554 FFF7FEFF 		bl	chMBPostAheadI
 939              	.LVL137:
 940              		.loc 1 191 0
 941 0558 D0F10101 		rsbs	r1, r0, #1
 942 055c 38BF     		it	cc
 943 055e 0021     		movcc	r1, #0
 944 0560 2220     		movs	r0, #34
 945              	.LVL138:
 946 0562 FFF7FEFF 		bl	_test_assert
 947 0566 0028     		cmp	r0, #0
 948 0568 7FF49EAD 		bne	.L2
 949              		.loc 1 192 0
 950 056c 4321     		movs	r1, #67
 951 056e 2046     		mov	r0, r4
 952 0570 FFF7FEFF 		bl	chMBPostAheadI
 953              	.LVL139:
 954              		.loc 1 193 0
 955 0574 D0F10101 		rsbs	r1, r0, #1
 956 0578 38BF     		it	cc
 957 057a 0021     		movcc	r1, #0
 958 057c 2320     		movs	r0, #35
 959              	.LVL140:
 960 057e FFF7FEFF 		bl	_test_assert
 961 0582 0028     		cmp	r0, #0
 962 0584 7FF490AD 		bne	.L2
 963              		.loc 1 194 0
 964 0588 4221     		movs	r1, #66
 965 058a 2046     		mov	r0, r4
 966 058c FFF7FEFF 		bl	chMBPostAheadI
 967              	.LVL141:
ARM GAS  C:\Users\TAISIK~1\AppData\Local\Temp\ccG4oTzW.s 			page 18


 968              		.loc 1 195 0
 969 0590 D0F10101 		rsbs	r1, r0, #1
 970 0594 38BF     		it	cc
 971 0596 0021     		movcc	r1, #0
 972 0598 2420     		movs	r0, #36
 973              	.LVL142:
 974 059a FFF7FEFF 		bl	_test_assert
 975 059e 0028     		cmp	r0, #0
 976 05a0 7FF482AD 		bne	.L2
 977              		.loc 1 196 0
 978 05a4 5D4C     		ldr	r4, .L32
 979 05a6 4121     		movs	r1, #65
 980 05a8 2046     		mov	r0, r4
 981 05aa FFF7FEFF 		bl	chMBPostAheadI
 982              	.LVL143:
 983              	.LBB148:
 984              		.loc 1 197 0
 985 05ae 0023     		movs	r3, #0
 986              	.LVL144:
 987              	@ 197 "../../test/testmbox.c" 1
 988 05b0 83F31188 		msr     BASEPRI, r3
 989              	@ 0 "" 2
 990              	.LVL145:
 991              		.thumb
 992              	.LBE148:
 993              		.loc 1 198 0
 994 05b4 C3EB000C 		rsb	ip, r3, r0
 995              	.LVL146:
 996 05b8 DCF10003 		rsbs	r3, ip, #0
 997 05bc 43EB0C01 		adc	r1, r3, ip
 998 05c0 2520     		movs	r0, #37
 999              	.LVL147:
 1000 05c2 FFF7FEFF 		bl	_test_assert
 1001              	.LVL148:
 1002 05c6 0028     		cmp	r0, #0
 1003 05c8 7FF46EAD 		bne	.L2
 1004              		.loc 1 199 0
 1005 05cc A168     		ldr	r1, [r4, #8]
 1006 05ce E268     		ldr	r2, [r4, #12]
 1007 05d0 C1EB020E 		rsb	lr, r1, r2
 1008 05d4 DEF10000 		rsbs	r0, lr, #0
 1009 05d8 40EB0E01 		adc	r1, r0, lr
 1010 05dc 2620     		movs	r0, #38
 1011 05de FFF7FEFF 		bl	_test_assert
 1012 05e2 0028     		cmp	r0, #0
 1013 05e4 7FF460AD 		bne	.L2
 1014 05e8 0524     		movs	r4, #5
 1015              	.L13:
 1016              	.LBB149:
 1017              		.loc 1 201 0
 1018 05ea 2023     		movs	r3, #32
 1019              	.LVL149:
 1020              	@ 201 "../../test/testmbox.c" 1
 1021 05ec 83F31188 		msr     BASEPRI, r3
 1022              	@ 0 "" 2
 1023              	.LVL150:
 1024              		.thumb
ARM GAS  C:\Users\TAISIK~1\AppData\Local\Temp\ccG4oTzW.s 			page 19


 1025              	.LBE149:
 1026              		.loc 1 202 0
 1027 05f0 4A4D     		ldr	r5, .L32
 1028 05f2 01A9     		add	r1, sp, #4
 1029 05f4 2846     		mov	r0, r5
 1030 05f6 FFF7FEFF 		bl	chMBFetchI
 1031              	.LVL151:
 1032              	.LBB150:
 1033              		.loc 1 203 0
 1034 05fa 0023     		movs	r3, #0
 1035              	.LVL152:
 1036              	@ 203 "../../test/testmbox.c" 1
 1037 05fc 83F31188 		msr     BASEPRI, r3
 1038              	@ 0 "" 2
 1039              	.LVL153:
 1040              		.thumb
 1041              	.LBE150:
 1042              		.loc 1 204 0
 1043 0600 C31A     		subs	r3, r0, r3
 1044              	.LVL154:
 1045 0602 5842     		rsbs	r0, r3, #0
 1046              	.LVL155:
 1047 0604 40EB0301 		adc	r1, r0, r3
 1048 0608 2720     		movs	r0, #39
 1049 060a FFF7FEFF 		bl	_test_assert
 1050              	.LVL156:
 1051 060e 0028     		cmp	r0, #0
 1052 0610 7FF44AAD 		bne	.L2
 1053              		.loc 1 205 0
 1054 0614 9DF80400 		ldrb	r0, [sp, #4]	@ zero_extendqisi2
 1055 0618 FFF7FEFF 		bl	test_emit_token
 1056              		.loc 1 200 0
 1057 061c 013C     		subs	r4, r4, #1
 1058 061e E4D1     		bne	.L13
 1059              		.loc 1 207 0
 1060 0620 2820     		movs	r0, #40
 1061 0622 3F49     		ldr	r1, .L32+4
 1062 0624 FFF7FEFF 		bl	_test_assert_sequence
 1063 0628 0028     		cmp	r0, #0
 1064 062a 7FF43DAD 		bne	.L2
 1065              	.LBB151:
 1066              		.loc 1 208 0
 1067 062e 2023     		movs	r3, #32
 1068              	.LVL157:
 1069              	@ 208 "../../test/testmbox.c" 1
 1070 0630 83F31188 		msr     BASEPRI, r3
 1071              	@ 0 "" 2
 1072              	.LVL158:
 1073              		.thumb
 1074              	.LBE151:
 1075 0634 686A     		ldr	r0, [r5, #36]
 1076 0636 A0F10501 		sub	r1, r0, #5
 1077 063a 4A42     		rsbs	r2, r1, #0
 1078 063c 42EB0101 		adc	r1, r2, r1
 1079 0640 2920     		movs	r0, #41
 1080 0642 FFF7FEFF 		bl	_test_assert
 1081              	.LVL159:
ARM GAS  C:\Users\TAISIK~1\AppData\Local\Temp\ccG4oTzW.s 			page 20


 1082              	.LBB152:
 1083 0646 2346     		mov	r3, r4
 1084              	@ 208 "../../test/testmbox.c" 1
 1085 0648 83F31188 		msr     BASEPRI, r3
 1086              	@ 0 "" 2
 1087              	.LVL160:
 1088              		.thumb
 1089              	.LBE152:
 1090 064c 0028     		cmp	r0, #0
 1091 064e 7FF42BAD 		bne	.L2
 1092              	.LBB153:
 1093              		.loc 1 209 0
 1094 0652 2023     		movs	r3, #32
 1095              	.LVL161:
 1096              	@ 209 "../../test/testmbox.c" 1
 1097 0654 83F31188 		msr     BASEPRI, r3
 1098              	@ 0 "" 2
 1099              	.LVL162:
 1100              		.thumb
 1101              	.LBE153:
 1102 0658 AB69     		ldr	r3, [r5, #24]
 1103              	.LVL163:
 1104 065a D3F10101 		rsbs	r1, r3, #1
 1105 065e 38BF     		it	cc
 1106 0660 0021     		movcc	r1, #0
 1107 0662 2A20     		movs	r0, #42
 1108 0664 FFF7FEFF 		bl	_test_assert
 1109              	.LBB154:
 1110 0668 2346     		mov	r3, r4
 1111              	@ 209 "../../test/testmbox.c" 1
 1112 066a 83F31188 		msr     BASEPRI, r3
 1113              	@ 0 "" 2
 1114              	.LVL164:
 1115              		.thumb
 1116              	.LBE154:
 1117 066e 0028     		cmp	r0, #0
 1118 0670 7FF41AAD 		bne	.L2
 1119              		.loc 1 210 0
 1120 0674 E868     		ldr	r0, [r5, #12]
 1121 0676 AB68     		ldr	r3, [r5, #8]
 1122              	.LVL165:
 1123 0678 C11A     		subs	r1, r0, r3
 1124 067a 4A42     		rsbs	r2, r1, #0
 1125 067c 42EB0101 		adc	r1, r2, r1
 1126 0680 2B20     		movs	r0, #43
 1127 0682 FFF7FEFF 		bl	_test_assert
 1128 0686 0028     		cmp	r0, #0
 1129 0688 7FF40EAD 		bne	.L2
 1130              		.loc 1 215 0
 1131 068c 2846     		mov	r0, r5
 1132 068e FFF7FEFF 		bl	chMBReset
 1133              	.LBB155:
 1134              		.loc 1 220 0
 1135 0692 2023     		movs	r3, #32
 1136              	.LVL166:
 1137              	@ 220 "../../test/testmbox.c" 1
 1138 0694 83F31188 		msr     BASEPRI, r3
ARM GAS  C:\Users\TAISIK~1\AppData\Local\Temp\ccG4oTzW.s 			page 21


 1139              	@ 0 "" 2
 1140              	.LVL167:
 1141              		.thumb
 1142              	.LBE155:
 1143 0698 686A     		ldr	r0, [r5, #36]
 1144 069a A0F10501 		sub	r1, r0, #5
 1145 069e 4A42     		rsbs	r2, r1, #0
 1146 06a0 42EB0101 		adc	r1, r2, r1
 1147 06a4 2C20     		movs	r0, #44
 1148 06a6 FFF7FEFF 		bl	_test_assert
 1149              	.LVL168:
 1150              	.LBB156:
 1151 06aa 2346     		mov	r3, r4
 1152              	@ 220 "../../test/testmbox.c" 1
 1153 06ac 83F31188 		msr     BASEPRI, r3
 1154              	@ 0 "" 2
 1155              	.LVL169:
 1156              		.thumb
 1157              	.LBE156:
 1158 06b0 0028     		cmp	r0, #0
 1159 06b2 7FF4F9AC 		bne	.L2
 1160              	.LBB157:
 1161              		.loc 1 221 0
 1162 06b6 2023     		movs	r3, #32
 1163              	.LVL170:
 1164              	@ 221 "../../test/testmbox.c" 1
 1165 06b8 83F31188 		msr     BASEPRI, r3
 1166              	@ 0 "" 2
 1167              	.LVL171:
 1168              		.thumb
 1169              	.LBE157:
 1170 06bc AB69     		ldr	r3, [r5, #24]
 1171              	.LVL172:
 1172 06be D3F10101 		rsbs	r1, r3, #1
 1173 06c2 38BF     		it	cc
 1174 06c4 0021     		movcc	r1, #0
 1175 06c6 2D20     		movs	r0, #45
 1176 06c8 FFF7FEFF 		bl	_test_assert
 1177              	.LBB158:
 1178 06cc 2346     		mov	r3, r4
 1179              	@ 221 "../../test/testmbox.c" 1
 1180 06ce 83F31188 		msr     BASEPRI, r3
 1181              	@ 0 "" 2
 1182              	.LVL173:
 1183              		.thumb
 1184              	.LBE158:
 1185 06d2 0028     		cmp	r0, #0
 1186 06d4 7FF4E8AC 		bne	.L2
 1187              	.LBB159:
 1188              		.loc 1 222 0
 1189 06d8 2023     		movs	r3, #32
 1190              	.LVL174:
 1191              	@ 222 "../../test/testmbox.c" 1
 1192 06da 83F31188 		msr     BASEPRI, r3
 1193              	@ 0 "" 2
 1194              	.LVL175:
 1195              		.thumb
ARM GAS  C:\Users\TAISIK~1\AppData\Local\Temp\ccG4oTzW.s 			page 22


 1196              	.LBE159:
 1197 06de A968     		ldr	r1, [r5, #8]
 1198 06e0 2A68     		ldr	r2, [r5, #0]
 1199 06e2 C1EB020E 		rsb	lr, r1, r2
 1200 06e6 DEF1000C 		rsbs	ip, lr, #0
 1201 06ea 4CEB0E01 		adc	r1, ip, lr
 1202 06ee 2E20     		movs	r0, #46
 1203 06f0 FFF7FEFF 		bl	_test_assert
 1204              	.LVL176:
 1205              	.LBB160:
 1206 06f4 2346     		mov	r3, r4
 1207              	@ 222 "../../test/testmbox.c" 1
 1208 06f6 83F31188 		msr     BASEPRI, r3
 1209              	@ 0 "" 2
 1210              	.LVL177:
 1211              		.thumb
 1212              	.LBE160:
 1213 06fa 0028     		cmp	r0, #0
 1214 06fc 7FF4D4AC 		bne	.L2
 1215              	.LBB161:
 1216              		.loc 1 223 0
 1217 0700 2023     		movs	r3, #32
 1218              	.LVL178:
 1219              	@ 223 "../../test/testmbox.c" 1
 1220 0702 83F31188 		msr     BASEPRI, r3
 1221              	@ 0 "" 2
 1222              	.LVL179:
 1223              		.thumb
 1224              	.LBE161:
 1225 0706 2968     		ldr	r1, [r5, #0]
 1226 0708 EA68     		ldr	r2, [r5, #12]
 1227 070a 8B1A     		subs	r3, r1, r2
 1228              	.LVL180:
 1229 070c 5842     		rsbs	r0, r3, #0
 1230 070e 40EB0301 		adc	r1, r0, r3
 1231 0712 2F20     		movs	r0, #47
 1232 0714 FFF7FEFF 		bl	_test_assert
 1233 0718 1EE5     		b	.L25
 1234              	.L33:
 1235 071a 00BF     		.align	2
 1236              	.L32:
 1237 071c 00000000 		.word	.LANCHOR0
 1238 0720 00000000 		.word	.LC0
 1239              	.LBE117:
 1240              	.LBE116:
 1241              		.cfi_endproc
 1242              	.LFE8:
 1243              		.size	mbox1_execute, .-mbox1_execute
 1244              		.global	patternmbox
 1245              		.global	testmbox1
 1246 0724 AFF30080 		.section	.data.mb1,"aw",%progbits
 1246      AFF30080 
 1246      AFF30080 
 1247              		.align	2
 1248              		.set	.LANCHOR0,. + 0
 1249              		.type	mb1, %object
 1250              		.size	mb1, 40
ARM GAS  C:\Users\TAISIK~1\AppData\Local\Temp\ccG4oTzW.s 			page 23


 1251              	mb1:
 1252 0000 00000000 		.word	test
 1253 0004 14000000 		.word	test+20
 1254 0008 00000000 		.word	test
 1255 000c 00000000 		.word	test
 1256 0010 10000000 		.word	mb1+16
 1257 0014 10000000 		.word	mb1+16
 1258 0018 00000000 		.word	0
 1259 001c 1C000000 		.word	mb1+28
 1260 0020 1C000000 		.word	mb1+28
 1261 0024 05000000 		.word	5
 1262              		.section	.rodata.patternmbox,"a",%progbits
 1263              		.align	2
 1264              		.type	patternmbox, %object
 1265              		.size	patternmbox, 8
 1266              	patternmbox:
 1267 0000 00000000 		.word	testmbox1
 1268 0004 00000000 		.word	0
 1269              		.section	.rodata.str1.4,"aMS",%progbits,1
 1270              		.align	2
 1271              	.LC0:
 1272 0000 41424344 		.ascii	"ABCDE\000"
 1272      4500
 1273 0006 0000     		.space	2
 1274              	.LC1:
 1275 0008 4D61696C 		.ascii	"Mailboxes, queuing and timeouts\000"
 1275      626F7865 
 1275      732C2071 
 1275      75657569 
 1275      6E672061 
 1276              		.section	.rodata.testmbox1,"a",%progbits
 1277              		.align	2
 1278              		.type	testmbox1, %object
 1279              		.size	testmbox1, 16
 1280              	testmbox1:
 1281 0000 08000000 		.word	.LC1
 1282 0004 00000000 		.word	mbox1_setup
 1283 0008 00000000 		.word	0
 1284 000c 00000000 		.word	mbox1_execute
 1285              		.text
 1286              	.Letext0:
 1287              		.file 2 "c:\\chibistudio\\tools\\gnu tools arm embedded\\4.6 2012q4\\bin\\../lib/gcc/arm-none-eabi
 1288              		.file 3 "../../os/ports/GCC/ARMCMx/chtypes.h"
 1289              		.file 4 "../../os/kernel/include/chlists.h"
 1290              		.file 5 "../../os/kernel/include/chthreads.h"
 1291              		.file 6 "../../os/ports/GCC/ARMCMx/chcore_v7m.h"
 1292              		.file 7 "../../os/kernel/include/chsem.h"
 1293              		.file 8 "../../os/kernel/include/chmtx.h"
 1294              		.file 9 "../../os/kernel/include/chmboxes.h"
 1295              		.file 10 "../../test/test.h"
 1296              		.section	.debug_info,"",%progbits
 1297              	.Ldebug_info0:
 1298 0000 2D0E0000 		.4byte	0xe2d
 1299 0004 0200     		.2byte	0x2
 1300 0006 00000000 		.4byte	.Ldebug_abbrev0
 1301 000a 04       		.byte	0x4
 1302 000b 01       		.uleb128 0x1
ARM GAS  C:\Users\TAISIK~1\AppData\Local\Temp\ccG4oTzW.s 			page 24


 1303 000c 1E000000 		.4byte	.LASF79
 1304 0010 01       		.byte	0x1
 1305 0011 90020000 		.4byte	.LASF80
 1306 0015 A8000000 		.4byte	.LASF81
 1307 0019 00000000 		.4byte	0
 1308 001d 00000000 		.4byte	0
 1309 0021 00000000 		.4byte	.Ldebug_ranges0+0
 1310 0025 00000000 		.4byte	.Ldebug_line0
 1311 0029 02       		.uleb128 0x2
 1312 002a 04       		.byte	0x4
 1313 002b 05       		.byte	0x5
 1314 002c 696E7400 		.ascii	"int\000"
 1315 0030 03       		.uleb128 0x3
 1316 0031 04       		.byte	0x4
 1317 0032 07       		.byte	0x7
 1318 0033 45010000 		.4byte	.LASF0
 1319 0037 03       		.uleb128 0x3
 1320 0038 01       		.byte	0x1
 1321 0039 06       		.byte	0x6
 1322 003a EE000000 		.4byte	.LASF1
 1323 003e 04       		.uleb128 0x4
 1324 003f 54030000 		.4byte	.LASF5
 1325 0043 02       		.byte	0x2
 1326 0044 2A       		.byte	0x2a
 1327 0045 49000000 		.4byte	0x49
 1328 0049 03       		.uleb128 0x3
 1329 004a 01       		.byte	0x1
 1330 004b 08       		.byte	0x8
 1331 004c 5F020000 		.4byte	.LASF2
 1332 0050 03       		.uleb128 0x3
 1333 0051 02       		.byte	0x2
 1334 0052 05       		.byte	0x5
 1335 0053 86020000 		.4byte	.LASF3
 1336 0057 03       		.uleb128 0x3
 1337 0058 02       		.byte	0x2
 1338 0059 07       		.byte	0x7
 1339 005a 96010000 		.4byte	.LASF4
 1340 005e 04       		.uleb128 0x4
 1341 005f 57020000 		.4byte	.LASF6
 1342 0063 02       		.byte	0x2
 1343 0064 4F       		.byte	0x4f
 1344 0065 69000000 		.4byte	0x69
 1345 0069 03       		.uleb128 0x3
 1346 006a 04       		.byte	0x4
 1347 006b 05       		.byte	0x5
 1348 006c 14010000 		.4byte	.LASF7
 1349 0070 04       		.uleb128 0x4
 1350 0071 E1020000 		.4byte	.LASF8
 1351 0075 02       		.byte	0x2
 1352 0076 50       		.byte	0x50
 1353 0077 7B000000 		.4byte	0x7b
 1354 007b 03       		.uleb128 0x3
 1355 007c 04       		.byte	0x4
 1356 007d 07       		.byte	0x7
 1357 007e 5C010000 		.4byte	.LASF9
 1358 0082 03       		.uleb128 0x3
 1359 0083 08       		.byte	0x8
ARM GAS  C:\Users\TAISIK~1\AppData\Local\Temp\ccG4oTzW.s 			page 25


 1360 0084 05       		.byte	0x5
 1361 0085 E0000000 		.4byte	.LASF10
 1362 0089 04       		.uleb128 0x4
 1363 008a 0D000000 		.4byte	.LASF11
 1364 008e 02       		.byte	0x2
 1365 008f 78       		.byte	0x78
 1366 0090 94000000 		.4byte	0x94
 1367 0094 03       		.uleb128 0x3
 1368 0095 08       		.byte	0x8
 1369 0096 07       		.byte	0x7
 1370 0097 67000000 		.4byte	.LASF12
 1371 009b 03       		.uleb128 0x3
 1372 009c 01       		.byte	0x1
 1373 009d 02       		.byte	0x2
 1374 009e 51020000 		.4byte	.LASF13
 1375 00a2 04       		.uleb128 0x4
 1376 00a3 AF010000 		.4byte	.LASF14
 1377 00a7 03       		.byte	0x3
 1378 00a8 25       		.byte	0x25
 1379 00a9 3E000000 		.4byte	0x3e
 1380 00ad 04       		.uleb128 0x4
 1381 00ae 1D010000 		.4byte	.LASF15
 1382 00b2 03       		.byte	0x3
 1383 00b3 26       		.byte	0x26
 1384 00b4 3E000000 		.4byte	0x3e
 1385 00b8 04       		.uleb128 0x4
 1386 00b9 32020000 		.4byte	.LASF16
 1387 00bd 03       		.byte	0x3
 1388 00be 27       		.byte	0x27
 1389 00bf 3E000000 		.4byte	0x3e
 1390 00c3 04       		.uleb128 0x4
 1391 00c4 0A010000 		.4byte	.LASF17
 1392 00c8 03       		.byte	0x3
 1393 00c9 28       		.byte	0x28
 1394 00ca 3E000000 		.4byte	0x3e
 1395 00ce 04       		.uleb128 0x4
 1396 00cf 49020000 		.4byte	.LASF18
 1397 00d3 03       		.byte	0x3
 1398 00d4 29       		.byte	0x29
 1399 00d5 70000000 		.4byte	0x70
 1400 00d9 04       		.uleb128 0x4
 1401 00da A9010000 		.4byte	.LASF19
 1402 00de 03       		.byte	0x3
 1403 00df 2A       		.byte	0x2a
 1404 00e0 5E000000 		.4byte	0x5e
 1405 00e4 04       		.uleb128 0x4
 1406 00e5 CF010000 		.4byte	.LASF20
 1407 00e9 03       		.byte	0x3
 1408 00ea 2C       		.byte	0x2c
 1409 00eb 70000000 		.4byte	0x70
 1410 00ef 04       		.uleb128 0x4
 1411 00f0 F6020000 		.4byte	.LASF21
 1412 00f4 03       		.byte	0x3
 1413 00f5 2E       		.byte	0x2e
 1414 00f6 70000000 		.4byte	0x70
 1415 00fa 04       		.uleb128 0x4
 1416 00fb 3F010000 		.4byte	.LASF22
ARM GAS  C:\Users\TAISIK~1\AppData\Local\Temp\ccG4oTzW.s 			page 26


 1417 00ff 03       		.byte	0x3
 1418 0100 2F       		.byte	0x2f
 1419 0101 5E000000 		.4byte	0x5e
 1420 0105 04       		.uleb128 0x4
 1421 0106 C6020000 		.4byte	.LASF23
 1422 010a 04       		.byte	0x4
 1423 010b 23       		.byte	0x23
 1424 010c 10010000 		.4byte	0x110
 1425 0110 05       		.uleb128 0x5
 1426 0111 C6020000 		.4byte	.LASF23
 1427 0115 48       		.byte	0x48
 1428 0116 05       		.byte	0x5
 1429 0117 57       		.byte	0x57
 1430 0118 35020000 		.4byte	0x235
 1431 011c 06       		.uleb128 0x6
 1432 011d B7020000 		.4byte	.LASF24
 1433 0121 05       		.byte	0x5
 1434 0122 58       		.byte	0x58
 1435 0123 5A020000 		.4byte	0x25a
 1436 0127 02       		.byte	0x2
 1437 0128 23       		.byte	0x23
 1438 0129 00       		.uleb128 0
 1439 012a 06       		.uleb128 0x6
 1440 012b 3A020000 		.4byte	.LASF25
 1441 012f 05       		.byte	0x5
 1442 0130 5A       		.byte	0x5a
 1443 0131 5A020000 		.4byte	0x25a
 1444 0135 02       		.byte	0x2
 1445 0136 23       		.byte	0x23
 1446 0137 04       		.uleb128 0x4
 1447 0138 06       		.uleb128 0x6
 1448 0139 A1000000 		.4byte	.LASF26
 1449 013d 05       		.byte	0x5
 1450 013e 5C       		.byte	0x5c
 1451 013f CE000000 		.4byte	0xce
 1452 0143 02       		.byte	0x2
 1453 0144 23       		.byte	0x23
 1454 0145 08       		.uleb128 0x8
 1455 0146 06       		.uleb128 0x6
 1456 0147 72030000 		.4byte	.LASF27
 1457 014b 05       		.byte	0x5
 1458 014c 5D       		.byte	0x5d
 1459 014d 33030000 		.4byte	0x333
 1460 0151 02       		.byte	0x2
 1461 0152 23       		.byte	0x23
 1462 0153 0C       		.uleb128 0xc
 1463 0154 06       		.uleb128 0x6
 1464 0155 26010000 		.4byte	.LASF28
 1465 0159 05       		.byte	0x5
 1466 015a 5F       		.byte	0x5f
 1467 015b 5A020000 		.4byte	0x25a
 1468 015f 02       		.byte	0x2
 1469 0160 23       		.byte	0x23
 1470 0161 10       		.uleb128 0x10
 1471 0162 06       		.uleb128 0x6
 1472 0163 FF010000 		.4byte	.LASF29
 1473 0167 05       		.byte	0x5
ARM GAS  C:\Users\TAISIK~1\AppData\Local\Temp\ccG4oTzW.s 			page 27


 1474 0168 60       		.byte	0x60
 1475 0169 5A020000 		.4byte	0x25a
 1476 016d 02       		.byte	0x2
 1477 016e 23       		.byte	0x23
 1478 016f 14       		.uleb128 0x14
 1479 0170 06       		.uleb128 0x6
 1480 0171 63030000 		.4byte	.LASF30
 1481 0175 05       		.byte	0x5
 1482 0176 67       		.byte	0x67
 1483 0177 7A040000 		.4byte	0x47a
 1484 017b 02       		.byte	0x2
 1485 017c 23       		.byte	0x23
 1486 017d 18       		.uleb128 0x18
 1487 017e 06       		.uleb128 0x6
 1488 017f 02010000 		.4byte	.LASF31
 1489 0183 05       		.byte	0x5
 1490 0184 72       		.byte	0x72
 1491 0185 AD000000 		.4byte	0xad
 1492 0189 02       		.byte	0x2
 1493 018a 23       		.byte	0x23
 1494 018b 1C       		.uleb128 0x1c
 1495 018c 06       		.uleb128 0x6
 1496 018d BE020000 		.4byte	.LASF32
 1497 0191 05       		.byte	0x5
 1498 0192 76       		.byte	0x76
 1499 0193 A2000000 		.4byte	0xa2
 1500 0197 02       		.byte	0x2
 1501 0198 23       		.byte	0x23
 1502 0199 1D       		.uleb128 0x1d
 1503 019a 06       		.uleb128 0x6
 1504 019b 4D030000 		.4byte	.LASF33
 1505 019f 05       		.byte	0x5
 1506 01a0 7B       		.byte	0x7b
 1507 01a1 B8000000 		.4byte	0xb8
 1508 01a5 02       		.byte	0x2
 1509 01a6 23       		.byte	0x23
 1510 01a7 1E       		.uleb128 0x1e
 1511 01a8 06       		.uleb128 0x6
 1512 01a9 A6020000 		.4byte	.LASF34
 1513 01ad 05       		.byte	0x5
 1514 01ae 81       		.byte	0x81
 1515 01af C3000000 		.4byte	0xc3
 1516 01b3 02       		.byte	0x2
 1517 01b4 23       		.byte	0x23
 1518 01b5 1F       		.uleb128 0x1f
 1519 01b6 06       		.uleb128 0x6
 1520 01b7 12030000 		.4byte	.LASF35
 1521 01bb 05       		.byte	0x5
 1522 01bc 88       		.byte	0x88
 1523 01bd 56030000 		.4byte	0x356
 1524 01c1 02       		.byte	0x2
 1525 01c2 23       		.byte	0x23
 1526 01c3 20       		.uleb128 0x20
 1527 01c4 07       		.uleb128 0x7
 1528 01c5 705F7500 		.ascii	"p_u\000"
 1529 01c9 05       		.byte	0x5
 1530 01ca AD       		.byte	0xad
ARM GAS  C:\Users\TAISIK~1\AppData\Local\Temp\ccG4oTzW.s 			page 28


 1531 01cb 45040000 		.4byte	0x445
 1532 01cf 02       		.byte	0x2
 1533 01d0 23       		.byte	0x23
 1534 01d1 24       		.uleb128 0x24
 1535 01d2 06       		.uleb128 0x6
 1536 01d3 78030000 		.4byte	.LASF36
 1537 01d7 05       		.byte	0x5
 1538 01d8 B2       		.byte	0xb2
 1539 01d9 82020000 		.4byte	0x282
 1540 01dd 02       		.byte	0x2
 1541 01de 23       		.byte	0x23
 1542 01df 28       		.uleb128 0x28
 1543 01e0 06       		.uleb128 0x6
 1544 01e1 20030000 		.4byte	.LASF37
 1545 01e5 05       		.byte	0x5
 1546 01e6 B8       		.byte	0xb8
 1547 01e7 60020000 		.4byte	0x260
 1548 01eb 02       		.byte	0x2
 1549 01ec 23       		.byte	0x23
 1550 01ed 2C       		.uleb128 0x2c
 1551 01ee 06       		.uleb128 0x6
 1552 01ef 00000000 		.4byte	.LASF38
 1553 01f3 05       		.byte	0x5
 1554 01f4 BC       		.byte	0xbc
 1555 01f5 D9000000 		.4byte	0xd9
 1556 01f9 02       		.byte	0x2
 1557 01fa 23       		.byte	0x23
 1558 01fb 34       		.uleb128 0x34
 1559 01fc 06       		.uleb128 0x6
 1560 01fd D6020000 		.4byte	.LASF39
 1561 0201 05       		.byte	0x5
 1562 0202 C2       		.byte	0xc2
 1563 0203 E4000000 		.4byte	0xe4
 1564 0207 02       		.byte	0x2
 1565 0208 23       		.byte	0x23
 1566 0209 38       		.uleb128 0x38
 1567 020a 06       		.uleb128 0x6
 1568 020b 7C020000 		.4byte	.LASF40
 1569 020f 05       		.byte	0x5
 1570 0210 C9       		.byte	0xc9
 1571 0211 8C040000 		.4byte	0x48c
 1572 0215 02       		.byte	0x2
 1573 0216 23       		.byte	0x23
 1574 0217 3C       		.uleb128 0x3c
 1575 0218 06       		.uleb128 0x6
 1576 0219 00030000 		.4byte	.LASF41
 1577 021d 05       		.byte	0x5
 1578 021e CD       		.byte	0xcd
 1579 021f CE000000 		.4byte	0xce
 1580 0223 02       		.byte	0x2
 1581 0224 23       		.byte	0x23
 1582 0225 40       		.uleb128 0x40
 1583 0226 06       		.uleb128 0x6
 1584 0227 FA000000 		.4byte	.LASF42
 1585 022b 05       		.byte	0x5
 1586 022c D3       		.byte	0xd3
 1587 022d 98020000 		.4byte	0x298
ARM GAS  C:\Users\TAISIK~1\AppData\Local\Temp\ccG4oTzW.s 			page 29


 1588 0231 02       		.byte	0x2
 1589 0232 23       		.byte	0x23
 1590 0233 44       		.uleb128 0x44
 1591 0234 00       		.byte	0
 1592 0235 08       		.uleb128 0x8
 1593 0236 08       		.byte	0x8
 1594 0237 04       		.byte	0x4
 1595 0238 5A       		.byte	0x5a
 1596 0239 5A020000 		.4byte	0x25a
 1597 023d 06       		.uleb128 0x6
 1598 023e B7020000 		.4byte	.LASF24
 1599 0242 04       		.byte	0x4
 1600 0243 5B       		.byte	0x5b
 1601 0244 5A020000 		.4byte	0x25a
 1602 0248 02       		.byte	0x2
 1603 0249 23       		.byte	0x23
 1604 024a 00       		.uleb128 0
 1605 024b 06       		.uleb128 0x6
 1606 024c 3A020000 		.4byte	.LASF25
 1607 0250 04       		.byte	0x4
 1608 0251 5D       		.byte	0x5d
 1609 0252 5A020000 		.4byte	0x25a
 1610 0256 02       		.byte	0x2
 1611 0257 23       		.byte	0x23
 1612 0258 04       		.uleb128 0x4
 1613 0259 00       		.byte	0
 1614 025a 09       		.uleb128 0x9
 1615 025b 04       		.byte	0x4
 1616 025c 05010000 		.4byte	0x105
 1617 0260 04       		.uleb128 0x4
 1618 0261 07020000 		.4byte	.LASF43
 1619 0265 04       		.byte	0x4
 1620 0266 5F       		.byte	0x5f
 1621 0267 35020000 		.4byte	0x235
 1622 026b 08       		.uleb128 0x8
 1623 026c 04       		.byte	0x4
 1624 026d 04       		.byte	0x4
 1625 026e 64       		.byte	0x64
 1626 026f 82020000 		.4byte	0x282
 1627 0273 06       		.uleb128 0x6
 1628 0274 B7020000 		.4byte	.LASF24
 1629 0278 04       		.byte	0x4
 1630 0279 66       		.byte	0x66
 1631 027a 5A020000 		.4byte	0x25a
 1632 027e 02       		.byte	0x2
 1633 027f 23       		.byte	0x23
 1634 0280 00       		.uleb128 0
 1635 0281 00       		.byte	0
 1636 0282 04       		.uleb128 0x4
 1637 0283 C3010000 		.4byte	.LASF44
 1638 0287 04       		.byte	0x4
 1639 0288 69       		.byte	0x69
 1640 0289 6B020000 		.4byte	0x26b
 1641 028d 04       		.uleb128 0x4
 1642 028e 36010000 		.4byte	.LASF45
 1643 0292 06       		.byte	0x6
 1644 0293 DE       		.byte	0xde
ARM GAS  C:\Users\TAISIK~1\AppData\Local\Temp\ccG4oTzW.s 			page 30


 1645 0294 98020000 		.4byte	0x298
 1646 0298 0A       		.uleb128 0xa
 1647 0299 04       		.byte	0x4
 1648 029a 04       		.uleb128 0x4
 1649 029b EB010000 		.4byte	.LASF46
 1650 029f 06       		.byte	0x6
 1651 02a0 E4       		.byte	0xe4
 1652 02a1 89000000 		.4byte	0x89
 1653 02a5 0B       		.uleb128 0xb
 1654 02a6 19030000 		.4byte	.LASF47
 1655 02aa 24       		.byte	0x24
 1656 02ab 06       		.byte	0x6
 1657 02ac 0501     		.2byte	0x105
 1658 02ae 33030000 		.4byte	0x333
 1659 02b2 0C       		.uleb128 0xc
 1660 02b3 723400   		.ascii	"r4\000"
 1661 02b6 06       		.byte	0x6
 1662 02b7 1801     		.2byte	0x118
 1663 02b9 8D020000 		.4byte	0x28d
 1664 02bd 02       		.byte	0x2
 1665 02be 23       		.byte	0x23
 1666 02bf 00       		.uleb128 0
 1667 02c0 0C       		.uleb128 0xc
 1668 02c1 723500   		.ascii	"r5\000"
 1669 02c4 06       		.byte	0x6
 1670 02c5 1901     		.2byte	0x119
 1671 02c7 8D020000 		.4byte	0x28d
 1672 02cb 02       		.byte	0x2
 1673 02cc 23       		.byte	0x23
 1674 02cd 04       		.uleb128 0x4
 1675 02ce 0C       		.uleb128 0xc
 1676 02cf 723600   		.ascii	"r6\000"
 1677 02d2 06       		.byte	0x6
 1678 02d3 1A01     		.2byte	0x11a
 1679 02d5 8D020000 		.4byte	0x28d
 1680 02d9 02       		.byte	0x2
 1681 02da 23       		.byte	0x23
 1682 02db 08       		.uleb128 0x8
 1683 02dc 0C       		.uleb128 0xc
 1684 02dd 723700   		.ascii	"r7\000"
 1685 02e0 06       		.byte	0x6
 1686 02e1 1B01     		.2byte	0x11b
 1687 02e3 8D020000 		.4byte	0x28d
 1688 02e7 02       		.byte	0x2
 1689 02e8 23       		.byte	0x23
 1690 02e9 0C       		.uleb128 0xc
 1691 02ea 0C       		.uleb128 0xc
 1692 02eb 723800   		.ascii	"r8\000"
 1693 02ee 06       		.byte	0x6
 1694 02ef 1C01     		.2byte	0x11c
 1695 02f1 8D020000 		.4byte	0x28d
 1696 02f5 02       		.byte	0x2
 1697 02f6 23       		.byte	0x23
 1698 02f7 10       		.uleb128 0x10
 1699 02f8 0C       		.uleb128 0xc
 1700 02f9 723900   		.ascii	"r9\000"
 1701 02fc 06       		.byte	0x6
ARM GAS  C:\Users\TAISIK~1\AppData\Local\Temp\ccG4oTzW.s 			page 31


 1702 02fd 1D01     		.2byte	0x11d
 1703 02ff 8D020000 		.4byte	0x28d
 1704 0303 02       		.byte	0x2
 1705 0304 23       		.byte	0x23
 1706 0305 14       		.uleb128 0x14
 1707 0306 0C       		.uleb128 0xc
 1708 0307 72313000 		.ascii	"r10\000"
 1709 030b 06       		.byte	0x6
 1710 030c 1E01     		.2byte	0x11e
 1711 030e 8D020000 		.4byte	0x28d
 1712 0312 02       		.byte	0x2
 1713 0313 23       		.byte	0x23
 1714 0314 18       		.uleb128 0x18
 1715 0315 0C       		.uleb128 0xc
 1716 0316 72313100 		.ascii	"r11\000"
 1717 031a 06       		.byte	0x6
 1718 031b 1F01     		.2byte	0x11f
 1719 031d 8D020000 		.4byte	0x28d
 1720 0321 02       		.byte	0x2
 1721 0322 23       		.byte	0x23
 1722 0323 1C       		.uleb128 0x1c
 1723 0324 0C       		.uleb128 0xc
 1724 0325 6C7200   		.ascii	"lr\000"
 1725 0328 06       		.byte	0x6
 1726 0329 2001     		.2byte	0x120
 1727 032b 8D020000 		.4byte	0x28d
 1728 032f 02       		.byte	0x2
 1729 0330 23       		.byte	0x23
 1730 0331 20       		.uleb128 0x20
 1731 0332 00       		.byte	0
 1732 0333 0B       		.uleb128 0xb
 1733 0334 8E010000 		.4byte	.LASF48
 1734 0338 04       		.byte	0x4
 1735 0339 06       		.byte	0x6
 1736 033a 2A01     		.2byte	0x12a
 1737 033c 50030000 		.4byte	0x350
 1738 0340 0C       		.uleb128 0xc
 1739 0341 72313300 		.ascii	"r13\000"
 1740 0345 06       		.byte	0x6
 1741 0346 2B01     		.2byte	0x12b
 1742 0348 50030000 		.4byte	0x350
 1743 034c 02       		.byte	0x2
 1744 034d 23       		.byte	0x23
 1745 034e 00       		.uleb128 0
 1746 034f 00       		.byte	0
 1747 0350 09       		.uleb128 0x9
 1748 0351 04       		.byte	0x4
 1749 0352 A5020000 		.4byte	0x2a5
 1750 0356 0D       		.uleb128 0xd
 1751 0357 EF000000 		.4byte	0xef
 1752 035b 05       		.uleb128 0x5
 1753 035c 2B030000 		.4byte	.LASF49
 1754 0360 0C       		.byte	0xc
 1755 0361 07       		.byte	0x7
 1756 0362 25       		.byte	0x25
 1757 0363 84030000 		.4byte	0x384
 1758 0367 06       		.uleb128 0x6
ARM GAS  C:\Users\TAISIK~1\AppData\Local\Temp\ccG4oTzW.s 			page 32


 1759 0368 2E010000 		.4byte	.LASF50
 1760 036c 07       		.byte	0x7
 1761 036d 26       		.byte	0x26
 1762 036e 60020000 		.4byte	0x260
 1763 0372 02       		.byte	0x2
 1764 0373 23       		.byte	0x23
 1765 0374 00       		.uleb128 0
 1766 0375 06       		.uleb128 0x6
 1767 0376 88010000 		.4byte	.LASF51
 1768 037a 07       		.byte	0x7
 1769 037b 28       		.byte	0x28
 1770 037c FA000000 		.4byte	0xfa
 1771 0380 02       		.byte	0x2
 1772 0381 23       		.byte	0x23
 1773 0382 08       		.uleb128 0x8
 1774 0383 00       		.byte	0
 1775 0384 04       		.uleb128 0x4
 1776 0385 2B030000 		.4byte	.LASF49
 1777 0389 07       		.byte	0x7
 1778 038a 29       		.byte	0x29
 1779 038b 5B030000 		.4byte	0x35b
 1780 038f 05       		.uleb128 0x5
 1781 0390 DB010000 		.4byte	.LASF52
 1782 0394 10       		.byte	0x10
 1783 0395 08       		.byte	0x8
 1784 0396 25       		.byte	0x25
 1785 0397 C6030000 		.4byte	0x3c6
 1786 039b 06       		.uleb128 0x6
 1787 039c 6D020000 		.4byte	.LASF53
 1788 03a0 08       		.byte	0x8
 1789 03a1 26       		.byte	0x26
 1790 03a2 60020000 		.4byte	0x260
 1791 03a6 02       		.byte	0x2
 1792 03a7 23       		.byte	0x23
 1793 03a8 00       		.uleb128 0
 1794 03a9 06       		.uleb128 0x6
 1795 03aa 6A030000 		.4byte	.LASF54
 1796 03ae 08       		.byte	0x8
 1797 03af 28       		.byte	0x28
 1798 03b0 5A020000 		.4byte	0x25a
 1799 03b4 02       		.byte	0x2
 1800 03b5 23       		.byte	0x23
 1801 03b6 08       		.uleb128 0x8
 1802 03b7 06       		.uleb128 0x6
 1803 03b8 EF020000 		.4byte	.LASF55
 1804 03bc 08       		.byte	0x8
 1805 03bd 2A       		.byte	0x2a
 1806 03be C6030000 		.4byte	0x3c6
 1807 03c2 02       		.byte	0x2
 1808 03c3 23       		.byte	0x23
 1809 03c4 0C       		.uleb128 0xc
 1810 03c5 00       		.byte	0
 1811 03c6 09       		.uleb128 0x9
 1812 03c7 04       		.byte	0x4
 1813 03c8 8F030000 		.4byte	0x38f
 1814 03cc 04       		.uleb128 0x4
 1815 03cd DB010000 		.4byte	.LASF52
ARM GAS  C:\Users\TAISIK~1\AppData\Local\Temp\ccG4oTzW.s 			page 33


 1816 03d1 08       		.byte	0x8
 1817 03d2 2C       		.byte	0x2c
 1818 03d3 8F030000 		.4byte	0x38f
 1819 03d7 08       		.uleb128 0x8
 1820 03d8 28       		.byte	0x28
 1821 03d9 09       		.byte	0x9
 1822 03da 2C       		.byte	0x2c
 1823 03db 34040000 		.4byte	0x434
 1824 03df 06       		.uleb128 0x6
 1825 03e0 1A020000 		.4byte	.LASF56
 1826 03e4 09       		.byte	0x9
 1827 03e5 2D       		.byte	0x2d
 1828 03e6 34040000 		.4byte	0x434
 1829 03ea 02       		.byte	0x2
 1830 03eb 23       		.byte	0x23
 1831 03ec 00       		.uleb128 0
 1832 03ed 06       		.uleb128 0x6
 1833 03ee 75020000 		.4byte	.LASF57
 1834 03f2 09       		.byte	0x9
 1835 03f3 2F       		.byte	0x2f
 1836 03f4 34040000 		.4byte	0x434
 1837 03f8 02       		.byte	0x2
 1838 03f9 23       		.byte	0x23
 1839 03fa 04       		.uleb128 0x4
 1840 03fb 06       		.uleb128 0x6
 1841 03fc 98000000 		.4byte	.LASF58
 1842 0400 09       		.byte	0x9
 1843 0401 31       		.byte	0x31
 1844 0402 34040000 		.4byte	0x434
 1845 0406 02       		.byte	0x2
 1846 0407 23       		.byte	0x23
 1847 0408 08       		.uleb128 0x8
 1848 0409 06       		.uleb128 0x6
 1849 040a F6010000 		.4byte	.LASF59
 1850 040e 09       		.byte	0x9
 1851 040f 32       		.byte	0x32
 1852 0410 34040000 		.4byte	0x434
 1853 0414 02       		.byte	0x2
 1854 0415 23       		.byte	0x23
 1855 0416 0C       		.uleb128 0xc
 1856 0417 06       		.uleb128 0x6
 1857 0418 35030000 		.4byte	.LASF60
 1858 041c 09       		.byte	0x9
 1859 041d 33       		.byte	0x33
 1860 041e 84030000 		.4byte	0x384
 1861 0422 02       		.byte	0x2
 1862 0423 23       		.byte	0x23
 1863 0424 10       		.uleb128 0x10
 1864 0425 06       		.uleb128 0x6
 1865 0426 77010000 		.4byte	.LASF61
 1866 042a 09       		.byte	0x9
 1867 042b 35       		.byte	0x35
 1868 042c 84030000 		.4byte	0x384
 1869 0430 02       		.byte	0x2
 1870 0431 23       		.byte	0x23
 1871 0432 1C       		.uleb128 0x1c
 1872 0433 00       		.byte	0
ARM GAS  C:\Users\TAISIK~1\AppData\Local\Temp\ccG4oTzW.s 			page 34


 1873 0434 09       		.uleb128 0x9
 1874 0435 04       		.byte	0x4
 1875 0436 D9000000 		.4byte	0xd9
 1876 043a 04       		.uleb128 0x4
 1877 043b 16000000 		.4byte	.LASF62
 1878 043f 09       		.byte	0x9
 1879 0440 37       		.byte	0x37
 1880 0441 D7030000 		.4byte	0x3d7
 1881 0445 0E       		.uleb128 0xe
 1882 0446 04       		.byte	0x4
 1883 0447 05       		.byte	0x5
 1884 0448 8F       		.byte	0x8f
 1885 0449 7A040000 		.4byte	0x47a
 1886 044d 0F       		.uleb128 0xf
 1887 044e 06000000 		.4byte	.LASF63
 1888 0452 05       		.byte	0x5
 1889 0453 96       		.byte	0x96
 1890 0454 D9000000 		.4byte	0xd9
 1891 0458 0F       		.uleb128 0xf
 1892 0459 8A000000 		.4byte	.LASF64
 1893 045d 05       		.byte	0x5
 1894 045e 9D       		.byte	0x9d
 1895 045f D9000000 		.4byte	0xd9
 1896 0463 0F       		.uleb128 0xf
 1897 0464 5C030000 		.4byte	.LASF65
 1898 0468 05       		.byte	0x5
 1899 0469 A4       		.byte	0xa4
 1900 046a 98020000 		.4byte	0x298
 1901 046e 0F       		.uleb128 0xf
 1902 046f B0020000 		.4byte	.LASF66
 1903 0473 05       		.byte	0x5
 1904 0474 AB       		.byte	0xab
 1905 0475 E4000000 		.4byte	0xe4
 1906 0479 00       		.byte	0
 1907 047a 09       		.uleb128 0x9
 1908 047b 04       		.byte	0x4
 1909 047c 80040000 		.4byte	0x480
 1910 0480 10       		.uleb128 0x10
 1911 0481 85040000 		.4byte	0x485
 1912 0485 03       		.uleb128 0x3
 1913 0486 01       		.byte	0x1
 1914 0487 08       		.byte	0x8
 1915 0488 EA020000 		.4byte	.LASF67
 1916 048c 09       		.uleb128 0x9
 1917 048d 04       		.byte	0x4
 1918 048e CC030000 		.4byte	0x3cc
 1919 0492 05       		.uleb128 0x5
 1920 0493 CD020000 		.4byte	.LASF68
 1921 0497 10       		.byte	0x10
 1922 0498 0A       		.byte	0xa
 1923 0499 3F       		.byte	0x3f
 1924 049a D7040000 		.4byte	0x4d7
 1925 049e 06       		.uleb128 0x6
 1926 049f 83010000 		.4byte	.LASF69
 1927 04a3 0A       		.byte	0xa
 1928 04a4 40       		.byte	0x40
 1929 04a5 7A040000 		.4byte	0x47a
ARM GAS  C:\Users\TAISIK~1\AppData\Local\Temp\ccG4oTzW.s 			page 35


 1930 04a9 02       		.byte	0x2
 1931 04aa 23       		.byte	0x23
 1932 04ab 00       		.uleb128 0
 1933 04ac 06       		.uleb128 0x6
 1934 04ad 14020000 		.4byte	.LASF70
 1935 04b1 0A       		.byte	0xa
 1936 04b2 41       		.byte	0x41
 1937 04b3 D9040000 		.4byte	0x4d9
 1938 04b7 02       		.byte	0x2
 1939 04b8 23       		.byte	0x23
 1940 04b9 04       		.uleb128 0x4
 1941 04ba 06       		.uleb128 0x6
 1942 04bb 6E010000 		.4byte	.LASF71
 1943 04bf 0A       		.byte	0xa
 1944 04c0 42       		.byte	0x42
 1945 04c1 D9040000 		.4byte	0x4d9
 1946 04c5 02       		.byte	0x2
 1947 04c6 23       		.byte	0x23
 1948 04c7 08       		.uleb128 0x8
 1949 04c8 06       		.uleb128 0x6
 1950 04c9 41020000 		.4byte	.LASF72
 1951 04cd 0A       		.byte	0xa
 1952 04ce 43       		.byte	0x43
 1953 04cf D9040000 		.4byte	0x4d9
 1954 04d3 02       		.byte	0x2
 1955 04d4 23       		.byte	0x23
 1956 04d5 0C       		.uleb128 0xc
 1957 04d6 00       		.byte	0
 1958 04d7 11       		.uleb128 0x11
 1959 04d8 01       		.byte	0x1
 1960 04d9 09       		.uleb128 0x9
 1961 04da 04       		.byte	0x4
 1962 04db D7040000 		.4byte	0x4d7
 1963 04df 12       		.uleb128 0x12
 1964 04e0 F005     		.2byte	0x5f0
 1965 04e2 0A       		.byte	0xa
 1966 04e3 48       		.byte	0x48
 1967 04e4 2E050000 		.4byte	0x52e
 1968 04e8 07       		.uleb128 0x7
 1969 04e9 543000   		.ascii	"T0\000"
 1970 04ec 0A       		.byte	0xa
 1971 04ed 49       		.byte	0x49
 1972 04ee 2E050000 		.4byte	0x52e
 1973 04f2 02       		.byte	0x2
 1974 04f3 23       		.byte	0x23
 1975 04f4 00       		.uleb128 0
 1976 04f5 07       		.uleb128 0x7
 1977 04f6 543100   		.ascii	"T1\000"
 1978 04f9 0A       		.byte	0xa
 1979 04fa 4A       		.byte	0x4a
 1980 04fb 2E050000 		.4byte	0x52e
 1981 04ff 03       		.byte	0x3
 1982 0500 23       		.byte	0x23
 1983 0501 B002     		.uleb128 0x130
 1984 0503 07       		.uleb128 0x7
 1985 0504 543200   		.ascii	"T2\000"
 1986 0507 0A       		.byte	0xa
ARM GAS  C:\Users\TAISIK~1\AppData\Local\Temp\ccG4oTzW.s 			page 36


 1987 0508 4B       		.byte	0x4b
 1988 0509 2E050000 		.4byte	0x52e
 1989 050d 03       		.byte	0x3
 1990 050e 23       		.byte	0x23
 1991 050f E004     		.uleb128 0x260
 1992 0511 07       		.uleb128 0x7
 1993 0512 543300   		.ascii	"T3\000"
 1994 0515 0A       		.byte	0xa
 1995 0516 4C       		.byte	0x4c
 1996 0517 2E050000 		.4byte	0x52e
 1997 051b 03       		.byte	0x3
 1998 051c 23       		.byte	0x23
 1999 051d 9007     		.uleb128 0x390
 2000 051f 07       		.uleb128 0x7
 2001 0520 543400   		.ascii	"T4\000"
 2002 0523 0A       		.byte	0xa
 2003 0524 4D       		.byte	0x4d
 2004 0525 2E050000 		.4byte	0x52e
 2005 0529 03       		.byte	0x3
 2006 052a 23       		.byte	0x23
 2007 052b C009     		.uleb128 0x4c0
 2008 052d 00       		.byte	0
 2009 052e 13       		.uleb128 0x13
 2010 052f 9A020000 		.4byte	0x29a
 2011 0533 3E050000 		.4byte	0x53e
 2012 0537 14       		.uleb128 0x14
 2013 0538 30000000 		.4byte	0x30
 2014 053c 25       		.byte	0x25
 2015 053d 00       		.byte	0
 2016 053e 15       		.uleb128 0x15
 2017 053f 40030000 		.4byte	.LASF82
 2018 0543 F005     		.2byte	0x5f0
 2019 0545 0A       		.byte	0xa
 2020 0546 47       		.byte	0x47
 2021 0547 61050000 		.4byte	0x561
 2022 054b 16       		.uleb128 0x16
 2023 054c 776100   		.ascii	"wa\000"
 2024 054f 0A       		.byte	0xa
 2025 0550 4E       		.byte	0x4e
 2026 0551 DF040000 		.4byte	0x4df
 2027 0555 0F       		.uleb128 0xf
 2028 0556 0B030000 		.4byte	.LASF73
 2029 055a 0A       		.byte	0xa
 2030 055b 4F       		.byte	0x4f
 2031 055c 61050000 		.4byte	0x561
 2032 0560 00       		.byte	0
 2033 0561 13       		.uleb128 0x13
 2034 0562 3E000000 		.4byte	0x3e
 2035 0566 72050000 		.4byte	0x572
 2036 056a 17       		.uleb128 0x17
 2037 056b 30000000 		.4byte	0x30
 2038 056f EF05     		.2byte	0x5ef
 2039 0571 00       		.byte	0
 2040 0572 18       		.uleb128 0x18
 2041 0573 24020000 		.4byte	.LASF83
 2042 0577 01       		.byte	0x1
 2043 0578 50       		.byte	0x50
ARM GAS  C:\Users\TAISIK~1\AppData\Local\Temp\ccG4oTzW.s 			page 37


 2044 0579 01       		.byte	0x1
 2045 057a 01       		.byte	0x1
 2046 057b 53090000 		.4byte	0x953
 2047 057f 19       		.uleb128 0x19
 2048 0580 52010000 		.4byte	.LASF74
 2049 0584 01       		.byte	0x1
 2050 0585 51       		.byte	0x51
 2051 0586 D9000000 		.4byte	0xd9
 2052 058a 19       		.uleb128 0x19
 2053 058b 57010000 		.4byte	.LASF75
 2054 058f 01       		.byte	0x1
 2055 0590 51       		.byte	0x51
 2056 0591 D9000000 		.4byte	0xd9
 2057 0595 1A       		.uleb128 0x1a
 2058 0596 6900     		.ascii	"i\000"
 2059 0598 01       		.byte	0x1
 2060 0599 52       		.byte	0x52
 2061 059a 30000000 		.4byte	0x30
 2062 059e 1B       		.uleb128 0x1b
 2063 059f AF050000 		.4byte	0x5af
 2064 05a3 1A       		.uleb128 0x1a
 2065 05a4 746D7000 		.ascii	"tmp\000"
 2066 05a8 01       		.byte	0x1
 2067 05a9 68       		.byte	0x68
 2068 05aa 70000000 		.4byte	0x70
 2069 05ae 00       		.byte	0
 2070 05af 1B       		.uleb128 0x1b
 2071 05b0 C0050000 		.4byte	0x5c0
 2072 05b4 1A       		.uleb128 0x1a
 2073 05b5 746D7000 		.ascii	"tmp\000"
 2074 05b9 01       		.byte	0x1
 2075 05ba 6A       		.byte	0x6a
 2076 05bb 70000000 		.4byte	0x70
 2077 05bf 00       		.byte	0
 2078 05c0 1B       		.uleb128 0x1b
 2079 05c1 D1050000 		.4byte	0x5d1
 2080 05c5 1A       		.uleb128 0x1a
 2081 05c6 746D7000 		.ascii	"tmp\000"
 2082 05ca 01       		.byte	0x1
 2083 05cb 6E       		.byte	0x6e
 2084 05cc 70000000 		.4byte	0x70
 2085 05d0 00       		.byte	0
 2086 05d1 1B       		.uleb128 0x1b
 2087 05d2 E2050000 		.4byte	0x5e2
 2088 05d6 1A       		.uleb128 0x1a
 2089 05d7 746D7000 		.ascii	"tmp\000"
 2090 05db 01       		.byte	0x1
 2091 05dc 70       		.byte	0x70
 2092 05dd 70000000 		.4byte	0x70
 2093 05e1 00       		.byte	0
 2094 05e2 1B       		.uleb128 0x1b
 2095 05e3 F3050000 		.4byte	0x5f3
 2096 05e7 1A       		.uleb128 0x1a
 2097 05e8 746D7000 		.ascii	"tmp\000"
 2098 05ec 01       		.byte	0x1
 2099 05ed 76       		.byte	0x76
 2100 05ee 70000000 		.4byte	0x70
ARM GAS  C:\Users\TAISIK~1\AppData\Local\Temp\ccG4oTzW.s 			page 38


 2101 05f2 00       		.byte	0
 2102 05f3 1B       		.uleb128 0x1b
 2103 05f4 04060000 		.4byte	0x604
 2104 05f8 1A       		.uleb128 0x1a
 2105 05f9 746D7000 		.ascii	"tmp\000"
 2106 05fd 01       		.byte	0x1
 2107 05fe 76       		.byte	0x76
 2108 05ff 70000000 		.4byte	0x70
 2109 0603 00       		.byte	0
 2110 0604 1B       		.uleb128 0x1b
 2111 0605 15060000 		.4byte	0x615
 2112 0609 1A       		.uleb128 0x1a
 2113 060a 746D7000 		.ascii	"tmp\000"
 2114 060e 01       		.byte	0x1
 2115 060f 76       		.byte	0x76
 2116 0610 70000000 		.4byte	0x70
 2117 0614 00       		.byte	0
 2118 0615 1B       		.uleb128 0x1b
 2119 0616 26060000 		.4byte	0x626
 2120 061a 1A       		.uleb128 0x1a
 2121 061b 746D7000 		.ascii	"tmp\000"
 2122 061f 01       		.byte	0x1
 2123 0620 77       		.byte	0x77
 2124 0621 70000000 		.4byte	0x70
 2125 0625 00       		.byte	0
 2126 0626 1B       		.uleb128 0x1b
 2127 0627 37060000 		.4byte	0x637
 2128 062b 1A       		.uleb128 0x1a
 2129 062c 746D7000 		.ascii	"tmp\000"
 2130 0630 01       		.byte	0x1
 2131 0631 77       		.byte	0x77
 2132 0632 70000000 		.4byte	0x70
 2133 0636 00       		.byte	0
 2134 0637 1B       		.uleb128 0x1b
 2135 0638 48060000 		.4byte	0x648
 2136 063c 1A       		.uleb128 0x1a
 2137 063d 746D7000 		.ascii	"tmp\000"
 2138 0641 01       		.byte	0x1
 2139 0642 77       		.byte	0x77
 2140 0643 70000000 		.4byte	0x70
 2141 0647 00       		.byte	0
 2142 0648 1B       		.uleb128 0x1b
 2143 0649 59060000 		.4byte	0x659
 2144 064d 1A       		.uleb128 0x1a
 2145 064e 746D7000 		.ascii	"tmp\000"
 2146 0652 01       		.byte	0x1
 2147 0653 78       		.byte	0x78
 2148 0654 70000000 		.4byte	0x70
 2149 0658 00       		.byte	0
 2150 0659 1B       		.uleb128 0x1b
 2151 065a 6A060000 		.4byte	0x66a
 2152 065e 1A       		.uleb128 0x1a
 2153 065f 746D7000 		.ascii	"tmp\000"
 2154 0663 01       		.byte	0x1
 2155 0664 78       		.byte	0x78
 2156 0665 70000000 		.4byte	0x70
 2157 0669 00       		.byte	0
ARM GAS  C:\Users\TAISIK~1\AppData\Local\Temp\ccG4oTzW.s 			page 39


 2158 066a 1B       		.uleb128 0x1b
 2159 066b 7B060000 		.4byte	0x67b
 2160 066f 1A       		.uleb128 0x1a
 2161 0670 746D7000 		.ascii	"tmp\000"
 2162 0674 01       		.byte	0x1
 2163 0675 78       		.byte	0x78
 2164 0676 70000000 		.4byte	0x70
 2165 067a 00       		.byte	0
 2166 067b 1B       		.uleb128 0x1b
 2167 067c 8C060000 		.4byte	0x68c
 2168 0680 1A       		.uleb128 0x1a
 2169 0681 746D7000 		.ascii	"tmp\000"
 2170 0685 01       		.byte	0x1
 2171 0686 93       		.byte	0x93
 2172 0687 70000000 		.4byte	0x70
 2173 068b 00       		.byte	0
 2174 068c 1B       		.uleb128 0x1b
 2175 068d 9D060000 		.4byte	0x69d
 2176 0691 1A       		.uleb128 0x1a
 2177 0692 746D7000 		.ascii	"tmp\000"
 2178 0696 01       		.byte	0x1
 2179 0697 95       		.byte	0x95
 2180 0698 70000000 		.4byte	0x70
 2181 069c 00       		.byte	0
 2182 069d 1B       		.uleb128 0x1b
 2183 069e AE060000 		.4byte	0x6ae
 2184 06a2 1A       		.uleb128 0x1a
 2185 06a3 746D7000 		.ascii	"tmp\000"
 2186 06a7 01       		.byte	0x1
 2187 06a8 9B       		.byte	0x9b
 2188 06a9 70000000 		.4byte	0x70
 2189 06ad 00       		.byte	0
 2190 06ae 1B       		.uleb128 0x1b
 2191 06af BF060000 		.4byte	0x6bf
 2192 06b3 1A       		.uleb128 0x1a
 2193 06b4 746D7000 		.ascii	"tmp\000"
 2194 06b8 01       		.byte	0x1
 2195 06b9 9B       		.byte	0x9b
 2196 06ba 70000000 		.4byte	0x70
 2197 06be 00       		.byte	0
 2198 06bf 1B       		.uleb128 0x1b
 2199 06c0 D0060000 		.4byte	0x6d0
 2200 06c4 1A       		.uleb128 0x1a
 2201 06c5 746D7000 		.ascii	"tmp\000"
 2202 06c9 01       		.byte	0x1
 2203 06ca 9B       		.byte	0x9b
 2204 06cb 70000000 		.4byte	0x70
 2205 06cf 00       		.byte	0
 2206 06d0 1B       		.uleb128 0x1b
 2207 06d1 E1060000 		.4byte	0x6e1
 2208 06d5 1A       		.uleb128 0x1a
 2209 06d6 746D7000 		.ascii	"tmp\000"
 2210 06da 01       		.byte	0x1
 2211 06db 9C       		.byte	0x9c
 2212 06dc 70000000 		.4byte	0x70
 2213 06e0 00       		.byte	0
 2214 06e1 1B       		.uleb128 0x1b
ARM GAS  C:\Users\TAISIK~1\AppData\Local\Temp\ccG4oTzW.s 			page 40


 2215 06e2 F2060000 		.4byte	0x6f2
 2216 06e6 1A       		.uleb128 0x1a
 2217 06e7 746D7000 		.ascii	"tmp\000"
 2218 06eb 01       		.byte	0x1
 2219 06ec 9C       		.byte	0x9c
 2220 06ed 70000000 		.4byte	0x70
 2221 06f1 00       		.byte	0
 2222 06f2 1B       		.uleb128 0x1b
 2223 06f3 03070000 		.4byte	0x703
 2224 06f7 1A       		.uleb128 0x1a
 2225 06f8 746D7000 		.ascii	"tmp\000"
 2226 06fc 01       		.byte	0x1
 2227 06fd 9C       		.byte	0x9c
 2228 06fe 70000000 		.4byte	0x70
 2229 0702 00       		.byte	0
 2230 0703 1B       		.uleb128 0x1b
 2231 0704 14070000 		.4byte	0x714
 2232 0708 1A       		.uleb128 0x1a
 2233 0709 746D7000 		.ascii	"tmp\000"
 2234 070d 01       		.byte	0x1
 2235 070e 9D       		.byte	0x9d
 2236 070f 70000000 		.4byte	0x70
 2237 0713 00       		.byte	0
 2238 0714 1B       		.uleb128 0x1b
 2239 0715 25070000 		.4byte	0x725
 2240 0719 1A       		.uleb128 0x1a
 2241 071a 746D7000 		.ascii	"tmp\000"
 2242 071e 01       		.byte	0x1
 2243 071f 9D       		.byte	0x9d
 2244 0720 70000000 		.4byte	0x70
 2245 0724 00       		.byte	0
 2246 0725 1B       		.uleb128 0x1b
 2247 0726 36070000 		.4byte	0x736
 2248 072a 1A       		.uleb128 0x1a
 2249 072b 746D7000 		.ascii	"tmp\000"
 2250 072f 01       		.byte	0x1
 2251 0730 9D       		.byte	0x9d
 2252 0731 70000000 		.4byte	0x70
 2253 0735 00       		.byte	0
 2254 0736 1B       		.uleb128 0x1b
 2255 0737 47070000 		.4byte	0x747
 2256 073b 1A       		.uleb128 0x1a
 2257 073c 746D7000 		.ascii	"tmp\000"
 2258 0740 01       		.byte	0x1
 2259 0741 A2       		.byte	0xa2
 2260 0742 70000000 		.4byte	0x70
 2261 0746 00       		.byte	0
 2262 0747 1B       		.uleb128 0x1b
 2263 0748 58070000 		.4byte	0x758
 2264 074c 1A       		.uleb128 0x1a
 2265 074d 746D7000 		.ascii	"tmp\000"
 2266 0751 01       		.byte	0x1
 2267 0752 AC       		.byte	0xac
 2268 0753 70000000 		.4byte	0x70
 2269 0757 00       		.byte	0
 2270 0758 1B       		.uleb128 0x1b
 2271 0759 69070000 		.4byte	0x769
ARM GAS  C:\Users\TAISIK~1\AppData\Local\Temp\ccG4oTzW.s 			page 41


 2272 075d 1A       		.uleb128 0x1a
 2273 075e 746D7000 		.ascii	"tmp\000"
 2274 0762 01       		.byte	0x1
 2275 0763 B0       		.byte	0xb0
 2276 0764 70000000 		.4byte	0x70
 2277 0768 00       		.byte	0
 2278 0769 1B       		.uleb128 0x1b
 2279 076a 7A070000 		.4byte	0x77a
 2280 076e 1A       		.uleb128 0x1a
 2281 076f 746D7000 		.ascii	"tmp\000"
 2282 0773 01       		.byte	0x1
 2283 0774 B2       		.byte	0xb2
 2284 0775 70000000 		.4byte	0x70
 2285 0779 00       		.byte	0
 2286 077a 1B       		.uleb128 0x1b
 2287 077b 8B070000 		.4byte	0x78b
 2288 077f 1A       		.uleb128 0x1a
 2289 0780 746D7000 		.ascii	"tmp\000"
 2290 0784 01       		.byte	0x1
 2291 0785 B7       		.byte	0xb7
 2292 0786 70000000 		.4byte	0x70
 2293 078a 00       		.byte	0
 2294 078b 1B       		.uleb128 0x1b
 2295 078c 9C070000 		.4byte	0x79c
 2296 0790 1A       		.uleb128 0x1a
 2297 0791 746D7000 		.ascii	"tmp\000"
 2298 0795 01       		.byte	0x1
 2299 0796 B7       		.byte	0xb7
 2300 0797 70000000 		.4byte	0x70
 2301 079b 00       		.byte	0
 2302 079c 1B       		.uleb128 0x1b
 2303 079d AD070000 		.4byte	0x7ad
 2304 07a1 1A       		.uleb128 0x1a
 2305 07a2 746D7000 		.ascii	"tmp\000"
 2306 07a6 01       		.byte	0x1
 2307 07a7 B7       		.byte	0xb7
 2308 07a8 70000000 		.4byte	0x70
 2309 07ac 00       		.byte	0
 2310 07ad 1B       		.uleb128 0x1b
 2311 07ae BE070000 		.4byte	0x7be
 2312 07b2 1A       		.uleb128 0x1a
 2313 07b3 746D7000 		.ascii	"tmp\000"
 2314 07b7 01       		.byte	0x1
 2315 07b8 B8       		.byte	0xb8
 2316 07b9 70000000 		.4byte	0x70
 2317 07bd 00       		.byte	0
 2318 07be 1B       		.uleb128 0x1b
 2319 07bf CF070000 		.4byte	0x7cf
 2320 07c3 1A       		.uleb128 0x1a
 2321 07c4 746D7000 		.ascii	"tmp\000"
 2322 07c8 01       		.byte	0x1
 2323 07c9 B8       		.byte	0xb8
 2324 07ca 70000000 		.4byte	0x70
 2325 07ce 00       		.byte	0
 2326 07cf 1B       		.uleb128 0x1b
 2327 07d0 E0070000 		.4byte	0x7e0
 2328 07d4 1A       		.uleb128 0x1a
ARM GAS  C:\Users\TAISIK~1\AppData\Local\Temp\ccG4oTzW.s 			page 42


 2329 07d5 746D7000 		.ascii	"tmp\000"
 2330 07d9 01       		.byte	0x1
 2331 07da B8       		.byte	0xb8
 2332 07db 70000000 		.4byte	0x70
 2333 07df 00       		.byte	0
 2334 07e0 1B       		.uleb128 0x1b
 2335 07e1 F1070000 		.4byte	0x7f1
 2336 07e5 1A       		.uleb128 0x1a
 2337 07e6 746D7000 		.ascii	"tmp\000"
 2338 07ea 01       		.byte	0x1
 2339 07eb BB       		.byte	0xbb
 2340 07ec 70000000 		.4byte	0x70
 2341 07f0 00       		.byte	0
 2342 07f1 1B       		.uleb128 0x1b
 2343 07f2 02080000 		.4byte	0x802
 2344 07f6 1A       		.uleb128 0x1a
 2345 07f7 746D7000 		.ascii	"tmp\000"
 2346 07fb 01       		.byte	0x1
 2347 07fc C5       		.byte	0xc5
 2348 07fd 70000000 		.4byte	0x70
 2349 0801 00       		.byte	0
 2350 0802 1B       		.uleb128 0x1b
 2351 0803 13080000 		.4byte	0x813
 2352 0807 1A       		.uleb128 0x1a
 2353 0808 746D7000 		.ascii	"tmp\000"
 2354 080c 01       		.byte	0x1
 2355 080d C9       		.byte	0xc9
 2356 080e 70000000 		.4byte	0x70
 2357 0812 00       		.byte	0
 2358 0813 1B       		.uleb128 0x1b
 2359 0814 24080000 		.4byte	0x824
 2360 0818 1A       		.uleb128 0x1a
 2361 0819 746D7000 		.ascii	"tmp\000"
 2362 081d 01       		.byte	0x1
 2363 081e CB       		.byte	0xcb
 2364 081f 70000000 		.4byte	0x70
 2365 0823 00       		.byte	0
 2366 0824 1B       		.uleb128 0x1b
 2367 0825 35080000 		.4byte	0x835
 2368 0829 1A       		.uleb128 0x1a
 2369 082a 746D7000 		.ascii	"tmp\000"
 2370 082e 01       		.byte	0x1
 2371 082f D0       		.byte	0xd0
 2372 0830 70000000 		.4byte	0x70
 2373 0834 00       		.byte	0
 2374 0835 1B       		.uleb128 0x1b
 2375 0836 46080000 		.4byte	0x846
 2376 083a 1A       		.uleb128 0x1a
 2377 083b 746D7000 		.ascii	"tmp\000"
 2378 083f 01       		.byte	0x1
 2379 0840 D0       		.byte	0xd0
 2380 0841 70000000 		.4byte	0x70
 2381 0845 00       		.byte	0
 2382 0846 1B       		.uleb128 0x1b
 2383 0847 57080000 		.4byte	0x857
 2384 084b 1A       		.uleb128 0x1a
 2385 084c 746D7000 		.ascii	"tmp\000"
ARM GAS  C:\Users\TAISIK~1\AppData\Local\Temp\ccG4oTzW.s 			page 43


 2386 0850 01       		.byte	0x1
 2387 0851 D0       		.byte	0xd0
 2388 0852 70000000 		.4byte	0x70
 2389 0856 00       		.byte	0
 2390 0857 1B       		.uleb128 0x1b
 2391 0858 68080000 		.4byte	0x868
 2392 085c 1A       		.uleb128 0x1a
 2393 085d 746D7000 		.ascii	"tmp\000"
 2394 0861 01       		.byte	0x1
 2395 0862 D1       		.byte	0xd1
 2396 0863 70000000 		.4byte	0x70
 2397 0867 00       		.byte	0
 2398 0868 1B       		.uleb128 0x1b
 2399 0869 79080000 		.4byte	0x879
 2400 086d 1A       		.uleb128 0x1a
 2401 086e 746D7000 		.ascii	"tmp\000"
 2402 0872 01       		.byte	0x1
 2403 0873 D1       		.byte	0xd1
 2404 0874 70000000 		.4byte	0x70
 2405 0878 00       		.byte	0
 2406 0879 1B       		.uleb128 0x1b
 2407 087a 8A080000 		.4byte	0x88a
 2408 087e 1A       		.uleb128 0x1a
 2409 087f 746D7000 		.ascii	"tmp\000"
 2410 0883 01       		.byte	0x1
 2411 0884 D1       		.byte	0xd1
 2412 0885 70000000 		.4byte	0x70
 2413 0889 00       		.byte	0
 2414 088a 1B       		.uleb128 0x1b
 2415 088b 9B080000 		.4byte	0x89b
 2416 088f 1A       		.uleb128 0x1a
 2417 0890 746D7000 		.ascii	"tmp\000"
 2418 0894 01       		.byte	0x1
 2419 0895 DC       		.byte	0xdc
 2420 0896 70000000 		.4byte	0x70
 2421 089a 00       		.byte	0
 2422 089b 1B       		.uleb128 0x1b
 2423 089c AC080000 		.4byte	0x8ac
 2424 08a0 1A       		.uleb128 0x1a
 2425 08a1 746D7000 		.ascii	"tmp\000"
 2426 08a5 01       		.byte	0x1
 2427 08a6 DC       		.byte	0xdc
 2428 08a7 70000000 		.4byte	0x70
 2429 08ab 00       		.byte	0
 2430 08ac 1B       		.uleb128 0x1b
 2431 08ad BD080000 		.4byte	0x8bd
 2432 08b1 1A       		.uleb128 0x1a
 2433 08b2 746D7000 		.ascii	"tmp\000"
 2434 08b6 01       		.byte	0x1
 2435 08b7 DC       		.byte	0xdc
 2436 08b8 70000000 		.4byte	0x70
 2437 08bc 00       		.byte	0
 2438 08bd 1B       		.uleb128 0x1b
 2439 08be CE080000 		.4byte	0x8ce
 2440 08c2 1A       		.uleb128 0x1a
 2441 08c3 746D7000 		.ascii	"tmp\000"
 2442 08c7 01       		.byte	0x1
ARM GAS  C:\Users\TAISIK~1\AppData\Local\Temp\ccG4oTzW.s 			page 44


 2443 08c8 DD       		.byte	0xdd
 2444 08c9 70000000 		.4byte	0x70
 2445 08cd 00       		.byte	0
 2446 08ce 1B       		.uleb128 0x1b
 2447 08cf DF080000 		.4byte	0x8df
 2448 08d3 1A       		.uleb128 0x1a
 2449 08d4 746D7000 		.ascii	"tmp\000"
 2450 08d8 01       		.byte	0x1
 2451 08d9 DD       		.byte	0xdd
 2452 08da 70000000 		.4byte	0x70
 2453 08de 00       		.byte	0
 2454 08df 1B       		.uleb128 0x1b
 2455 08e0 F0080000 		.4byte	0x8f0
 2456 08e4 1A       		.uleb128 0x1a
 2457 08e5 746D7000 		.ascii	"tmp\000"
 2458 08e9 01       		.byte	0x1
 2459 08ea DD       		.byte	0xdd
 2460 08eb 70000000 		.4byte	0x70
 2461 08ef 00       		.byte	0
 2462 08f0 1B       		.uleb128 0x1b
 2463 08f1 01090000 		.4byte	0x901
 2464 08f5 1A       		.uleb128 0x1a
 2465 08f6 746D7000 		.ascii	"tmp\000"
 2466 08fa 01       		.byte	0x1
 2467 08fb DE       		.byte	0xde
 2468 08fc 70000000 		.4byte	0x70
 2469 0900 00       		.byte	0
 2470 0901 1B       		.uleb128 0x1b
 2471 0902 12090000 		.4byte	0x912
 2472 0906 1A       		.uleb128 0x1a
 2473 0907 746D7000 		.ascii	"tmp\000"
 2474 090b 01       		.byte	0x1
 2475 090c DE       		.byte	0xde
 2476 090d 70000000 		.4byte	0x70
 2477 0911 00       		.byte	0
 2478 0912 1B       		.uleb128 0x1b
 2479 0913 23090000 		.4byte	0x923
 2480 0917 1A       		.uleb128 0x1a
 2481 0918 746D7000 		.ascii	"tmp\000"
 2482 091c 01       		.byte	0x1
 2483 091d DE       		.byte	0xde
 2484 091e 70000000 		.4byte	0x70
 2485 0922 00       		.byte	0
 2486 0923 1B       		.uleb128 0x1b
 2487 0924 34090000 		.4byte	0x934
 2488 0928 1A       		.uleb128 0x1a
 2489 0929 746D7000 		.ascii	"tmp\000"
 2490 092d 01       		.byte	0x1
 2491 092e DF       		.byte	0xdf
 2492 092f 70000000 		.4byte	0x70
 2493 0933 00       		.byte	0
 2494 0934 1B       		.uleb128 0x1b
 2495 0935 45090000 		.4byte	0x945
 2496 0939 1A       		.uleb128 0x1a
 2497 093a 746D7000 		.ascii	"tmp\000"
 2498 093e 01       		.byte	0x1
 2499 093f DF       		.byte	0xdf
ARM GAS  C:\Users\TAISIK~1\AppData\Local\Temp\ccG4oTzW.s 			page 45


 2500 0940 70000000 		.4byte	0x70
 2501 0944 00       		.byte	0
 2502 0945 1C       		.uleb128 0x1c
 2503 0946 1A       		.uleb128 0x1a
 2504 0947 746D7000 		.ascii	"tmp\000"
 2505 094b 01       		.byte	0x1
 2506 094c DF       		.byte	0xdf
 2507 094d 70000000 		.4byte	0x70
 2508 0951 00       		.byte	0
 2509 0952 00       		.byte	0
 2510 0953 1D       		.uleb128 0x1d
 2511 0954 B7010000 		.4byte	.LASF84
 2512 0958 01       		.byte	0x1
 2513 0959 4B       		.byte	0x4b
 2514 095a 01       		.byte	0x1
 2515 095b 00000000 		.4byte	.LFB7
 2516 095f 16000000 		.4byte	.LFE7
 2517 0963 02       		.byte	0x2
 2518 0964 7D       		.byte	0x7d
 2519 0965 00       		.sleb128 0
 2520 0966 1E       		.uleb128 0x1e
 2521 0967 72050000 		.4byte	0x572
 2522 096b 00000000 		.4byte	.LFB8
 2523 096f 24070000 		.4byte	.LFE8
 2524 0973 00000000 		.4byte	.LLST0
 2525 0977 B40D0000 		.4byte	0xdb4
 2526 097b 1F       		.uleb128 0x1f
 2527 097c 7F050000 		.4byte	0x57f
 2528 0980 2C000000 		.4byte	.LLST1
 2529 0984 20       		.uleb128 0x20
 2530 0985 8A050000 		.4byte	0x58a
 2531 0989 1F       		.uleb128 0x1f
 2532 098a 95050000 		.4byte	0x595
 2533 098e 6B000000 		.4byte	.LLST2
 2534 0992 21       		.uleb128 0x21
 2535 0993 72050000 		.4byte	0x572
 2536 0997 AC000000 		.4byte	.LBB116
 2537 099b 24070000 		.4byte	.LBE116
 2538 099f 01       		.byte	0x1
 2539 09a0 50       		.byte	0x50
 2540 09a1 22       		.uleb128 0x22
 2541 09a2 AC000000 		.4byte	.LBB117
 2542 09a6 24070000 		.4byte	.LBE117
 2543 09aa 1F       		.uleb128 0x1f
 2544 09ab 7F050000 		.4byte	0x57f
 2545 09af AF000000 		.4byte	.LLST3
 2546 09b3 20       		.uleb128 0x20
 2547 09b4 8A050000 		.4byte	0x58a
 2548 09b8 1F       		.uleb128 0x1f
 2549 09b9 95050000 		.4byte	0x595
 2550 09bd 07020000 		.4byte	.LLST4
 2551 09c1 23       		.uleb128 0x23
 2552 09c2 CC000000 		.4byte	.LBB118
 2553 09c6 D2000000 		.4byte	.LBE118
 2554 09ca D8090000 		.4byte	0x9d8
 2555 09ce 1F       		.uleb128 0x1f
 2556 09cf A3050000 		.4byte	0x5a3
ARM GAS  C:\Users\TAISIK~1\AppData\Local\Temp\ccG4oTzW.s 			page 46


 2557 09d3 63020000 		.4byte	.LLST5
 2558 09d7 00       		.byte	0
 2559 09d8 23       		.uleb128 0x23
 2560 09d9 DA000000 		.4byte	.LBB119
 2561 09dd E0000000 		.4byte	.LBE119
 2562 09e1 EF090000 		.4byte	0x9ef
 2563 09e5 1F       		.uleb128 0x1f
 2564 09e6 B4050000 		.4byte	0x5b4
 2565 09ea 76020000 		.4byte	.LLST6
 2566 09ee 00       		.byte	0
 2567 09ef 23       		.uleb128 0x23
 2568 09f0 16010000 		.4byte	.LBB120
 2569 09f4 1C010000 		.4byte	.LBE120
 2570 09f8 060A0000 		.4byte	0xa06
 2571 09fc 1F       		.uleb128 0x1f
 2572 09fd C5050000 		.4byte	0x5c5
 2573 0a01 89020000 		.4byte	.LLST7
 2574 0a05 00       		.byte	0
 2575 0a06 23       		.uleb128 0x23
 2576 0a07 24010000 		.4byte	.LBB121
 2577 0a0b 2A010000 		.4byte	.LBE121
 2578 0a0f 1D0A0000 		.4byte	0xa1d
 2579 0a13 1F       		.uleb128 0x1f
 2580 0a14 D6050000 		.4byte	0x5d6
 2581 0a18 9C020000 		.4byte	.LLST8
 2582 0a1c 00       		.byte	0
 2583 0a1d 23       		.uleb128 0x23
 2584 0a1e 3E010000 		.4byte	.LBB122
 2585 0a22 44010000 		.4byte	.LBE122
 2586 0a26 340A0000 		.4byte	0xa34
 2587 0a2a 1F       		.uleb128 0x1f
 2588 0a2b E7050000 		.4byte	0x5e7
 2589 0a2f AF020000 		.4byte	.LLST9
 2590 0a33 00       		.byte	0
 2591 0a34 23       		.uleb128 0x23
 2592 0a35 58010000 		.4byte	.LBB123
 2593 0a39 60010000 		.4byte	.LBE123
 2594 0a3d 4B0A0000 		.4byte	0xa4b
 2595 0a41 1F       		.uleb128 0x1f
 2596 0a42 39090000 		.4byte	0x939
 2597 0a46 C2020000 		.4byte	.LLST10
 2598 0a4a 00       		.byte	0
 2599 0a4b 23       		.uleb128 0x23
 2600 0a4c 60010000 		.4byte	.LBB124
 2601 0a50 66010000 		.4byte	.LBE124
 2602 0a54 620A0000 		.4byte	0xa62
 2603 0a58 1F       		.uleb128 0x1f
 2604 0a59 09060000 		.4byte	0x609
 2605 0a5d E0020000 		.4byte	.LLST11
 2606 0a61 00       		.byte	0
 2607 0a62 23       		.uleb128 0x23
 2608 0a63 66010000 		.4byte	.LBB125
 2609 0a67 6C010000 		.4byte	.LBE125
 2610 0a6b 790A0000 		.4byte	0xa79
 2611 0a6f 1F       		.uleb128 0x1f
 2612 0a70 1A060000 		.4byte	0x61a
 2613 0a74 F3020000 		.4byte	.LLST12
ARM GAS  C:\Users\TAISIK~1\AppData\Local\Temp\ccG4oTzW.s 			page 47


 2614 0a78 00       		.byte	0
 2615 0a79 23       		.uleb128 0x23
 2616 0a7a 84010000 		.4byte	.LBB126
 2617 0a7e 90010000 		.4byte	.LBE126
 2618 0a82 900A0000 		.4byte	0xa90
 2619 0a86 1F       		.uleb128 0x1f
 2620 0a87 E6060000 		.4byte	0x6e6
 2621 0a8b 06030000 		.4byte	.LLST13
 2622 0a8f 00       		.byte	0
 2623 0a90 23       		.uleb128 0x23
 2624 0a91 90010000 		.4byte	.LBB127
 2625 0a95 96010000 		.4byte	.LBE127
 2626 0a99 A70A0000 		.4byte	0xaa7
 2627 0a9d 1F       		.uleb128 0x1f
 2628 0a9e 3C060000 		.4byte	0x63c
 2629 0aa2 24030000 		.4byte	.LLST14
 2630 0aa6 00       		.byte	0
 2631 0aa7 23       		.uleb128 0x23
 2632 0aa8 96010000 		.4byte	.LBB128
 2633 0aac 9C010000 		.4byte	.LBE128
 2634 0ab0 BE0A0000 		.4byte	0xabe
 2635 0ab4 1F       		.uleb128 0x1f
 2636 0ab5 4D060000 		.4byte	0x64d
 2637 0ab9 37030000 		.4byte	.LLST15
 2638 0abd 00       		.byte	0
 2639 0abe 23       		.uleb128 0x23
 2640 0abf B6010000 		.4byte	.LBB129
 2641 0ac3 BA010000 		.4byte	.LBE129
 2642 0ac7 D50A0000 		.4byte	0xad5
 2643 0acb 1F       		.uleb128 0x1f
 2644 0acc 6F060000 		.4byte	0x66f
 2645 0ad0 4A030000 		.4byte	.LLST16
 2646 0ad4 00       		.byte	0
 2647 0ad5 23       		.uleb128 0x23
 2648 0ad6 2C030000 		.4byte	.LBB130
 2649 0ada 32030000 		.4byte	.LBE130
 2650 0ade EC0A0000 		.4byte	0xaec
 2651 0ae2 1F       		.uleb128 0x1f
 2652 0ae3 80060000 		.4byte	0x680
 2653 0ae7 5D030000 		.4byte	.LLST17
 2654 0aeb 00       		.byte	0
 2655 0aec 23       		.uleb128 0x23
 2656 0aed 3A030000 		.4byte	.LBB131
 2657 0af1 40030000 		.4byte	.LBE131
 2658 0af5 030B0000 		.4byte	0xb03
 2659 0af9 1F       		.uleb128 0x1f
 2660 0afa 91060000 		.4byte	0x691
 2661 0afe 70030000 		.4byte	.LLST18
 2662 0b02 00       		.byte	0
 2663 0b03 23       		.uleb128 0x23
 2664 0b04 58030000 		.4byte	.LBB132
 2665 0b08 5E030000 		.4byte	.LBE132
 2666 0b0c 1A0B0000 		.4byte	0xb1a
 2667 0b10 1F       		.uleb128 0x1f
 2668 0b11 A2060000 		.4byte	0x6a2
 2669 0b15 83030000 		.4byte	.LLST19
 2670 0b19 00       		.byte	0
ARM GAS  C:\Users\TAISIK~1\AppData\Local\Temp\ccG4oTzW.s 			page 48


 2671 0b1a 23       		.uleb128 0x23
 2672 0b1b 74030000 		.4byte	.LBB133
 2673 0b1f 84030000 		.4byte	.LBE133
 2674 0b23 310B0000 		.4byte	0xb31
 2675 0b27 1F       		.uleb128 0x1f
 2676 0b28 19070000 		.4byte	0x719
 2677 0b2c 96030000 		.4byte	.LLST20
 2678 0b30 00       		.byte	0
 2679 0b31 23       		.uleb128 0x23
 2680 0b32 84030000 		.4byte	.LBB134
 2681 0b36 8A030000 		.4byte	.LBE134
 2682 0b3a 480B0000 		.4byte	0xb48
 2683 0b3e 1F       		.uleb128 0x1f
 2684 0b3f C4060000 		.4byte	0x6c4
 2685 0b43 B4030000 		.4byte	.LLST21
 2686 0b47 00       		.byte	0
 2687 0b48 23       		.uleb128 0x23
 2688 0b49 8A030000 		.4byte	.LBB135
 2689 0b4d 90030000 		.4byte	.LBE135
 2690 0b51 5F0B0000 		.4byte	0xb5f
 2691 0b55 1F       		.uleb128 0x1f
 2692 0b56 D5060000 		.4byte	0x6d5
 2693 0b5a C7030000 		.4byte	.LLST22
 2694 0b5e 00       		.byte	0
 2695 0b5f 23       		.uleb128 0x23
 2696 0b60 A8030000 		.4byte	.LBB136
 2697 0b64 AE030000 		.4byte	.LBE136
 2698 0b68 760B0000 		.4byte	0xb76
 2699 0b6c 1F       		.uleb128 0x1f
 2700 0b6d F7060000 		.4byte	0x6f7
 2701 0b71 DA030000 		.4byte	.LLST23
 2702 0b75 00       		.byte	0
 2703 0b76 23       		.uleb128 0x23
 2704 0b77 AE030000 		.4byte	.LBB137
 2705 0b7b B4030000 		.4byte	.LBE137
 2706 0b7f 8D0B0000 		.4byte	0xb8d
 2707 0b83 1F       		.uleb128 0x1f
 2708 0b84 08070000 		.4byte	0x708
 2709 0b88 ED030000 		.4byte	.LLST24
 2710 0b8c 00       		.byte	0
 2711 0b8d 23       		.uleb128 0x23
 2712 0b8e D0030000 		.4byte	.LBB138
 2713 0b92 D4030000 		.4byte	.LBE138
 2714 0b96 A40B0000 		.4byte	0xba4
 2715 0b9a 1F       		.uleb128 0x1f
 2716 0b9b 2A070000 		.4byte	0x72a
 2717 0b9f 00040000 		.4byte	.LLST25
 2718 0ba3 00       		.byte	0
 2719 0ba4 23       		.uleb128 0x23
 2720 0ba5 D4030000 		.4byte	.LBB139
 2721 0ba9 DA030000 		.4byte	.LBE139
 2722 0bad BB0B0000 		.4byte	0xbbb
 2723 0bb1 1F       		.uleb128 0x1f
 2724 0bb2 3B070000 		.4byte	0x73b
 2725 0bb6 13040000 		.4byte	.LLST26
 2726 0bba 00       		.byte	0
 2727 0bbb 23       		.uleb128 0x23
ARM GAS  C:\Users\TAISIK~1\AppData\Local\Temp\ccG4oTzW.s 			page 49


 2728 0bbc 56040000 		.4byte	.LBB140
 2729 0bc0 5C040000 		.4byte	.LBE140
 2730 0bc4 D20B0000 		.4byte	0xbd2
 2731 0bc8 1F       		.uleb128 0x1f
 2732 0bc9 4C070000 		.4byte	0x74c
 2733 0bcd 26040000 		.4byte	.LLST27
 2734 0bd1 00       		.byte	0
 2735 0bd2 23       		.uleb128 0x23
 2736 0bd3 8C040000 		.4byte	.LBB141
 2737 0bd7 92040000 		.4byte	.LBE141
 2738 0bdb E90B0000 		.4byte	0xbe9
 2739 0bdf 1F       		.uleb128 0x1f
 2740 0be0 5D070000 		.4byte	0x75d
 2741 0be4 39040000 		.4byte	.LLST28
 2742 0be8 00       		.byte	0
 2743 0be9 23       		.uleb128 0x23
 2744 0bea 9C040000 		.4byte	.LBB142
 2745 0bee A2040000 		.4byte	.LBE142
 2746 0bf2 000C0000 		.4byte	0xc00
 2747 0bf6 1F       		.uleb128 0x1f
 2748 0bf7 6E070000 		.4byte	0x76e
 2749 0bfb 4C040000 		.4byte	.LLST29
 2750 0bff 00       		.byte	0
 2751 0c00 23       		.uleb128 0x23
 2752 0c01 D0040000 		.4byte	.LBB143
 2753 0c05 D6040000 		.4byte	.LBE143
 2754 0c09 170C0000 		.4byte	0xc17
 2755 0c0d 1F       		.uleb128 0x1f
 2756 0c0e 7F070000 		.4byte	0x77f
 2757 0c12 5F040000 		.4byte	.LLST30
 2758 0c16 00       		.byte	0
 2759 0c17 23       		.uleb128 0x23
 2760 0c18 E8040000 		.4byte	.LBB144
 2761 0c1c EE040000 		.4byte	.LBE144
 2762 0c20 2E0C0000 		.4byte	0xc2e
 2763 0c24 1F       		.uleb128 0x1f
 2764 0c25 90070000 		.4byte	0x790
 2765 0c29 72040000 		.4byte	.LLST31
 2766 0c2d 00       		.byte	0
 2767 0c2e 23       		.uleb128 0x23
 2768 0c2f F4040000 		.4byte	.LBB145
 2769 0c33 FA040000 		.4byte	.LBE145
 2770 0c37 450C0000 		.4byte	0xc45
 2771 0c3b 1F       		.uleb128 0x1f
 2772 0c3c B2070000 		.4byte	0x7b2
 2773 0c40 90040000 		.4byte	.LLST32
 2774 0c44 00       		.byte	0
 2775 0c45 23       		.uleb128 0x23
 2776 0c46 0A050000 		.4byte	.LBB146
 2777 0c4a 10050000 		.4byte	.LBE146
 2778 0c4e 5C0C0000 		.4byte	0xc5c
 2779 0c52 1F       		.uleb128 0x1f
 2780 0c53 C3070000 		.4byte	0x7c3
 2781 0c57 A3040000 		.4byte	.LLST33
 2782 0c5b 00       		.byte	0
 2783 0c5c 23       		.uleb128 0x23
 2784 0c5d 2E050000 		.4byte	.LBB147
ARM GAS  C:\Users\TAISIK~1\AppData\Local\Temp\ccG4oTzW.s 			page 50


 2785 0c61 34050000 		.4byte	.LBE147
 2786 0c65 730C0000 		.4byte	0xc73
 2787 0c69 1F       		.uleb128 0x1f
 2788 0c6a E5070000 		.4byte	0x7e5
 2789 0c6e C1040000 		.4byte	.LLST34
 2790 0c72 00       		.byte	0
 2791 0c73 23       		.uleb128 0x23
 2792 0c74 AE050000 		.4byte	.LBB148
 2793 0c78 B4050000 		.4byte	.LBE148
 2794 0c7c 8A0C0000 		.4byte	0xc8a
 2795 0c80 1F       		.uleb128 0x1f
 2796 0c81 F6070000 		.4byte	0x7f6
 2797 0c85 D4040000 		.4byte	.LLST35
 2798 0c89 00       		.byte	0
 2799 0c8a 23       		.uleb128 0x23
 2800 0c8b EA050000 		.4byte	.LBB149
 2801 0c8f F0050000 		.4byte	.LBE149
 2802 0c93 A10C0000 		.4byte	0xca1
 2803 0c97 1F       		.uleb128 0x1f
 2804 0c98 07080000 		.4byte	0x807
 2805 0c9c E7040000 		.4byte	.LLST36
 2806 0ca0 00       		.byte	0
 2807 0ca1 23       		.uleb128 0x23
 2808 0ca2 FA050000 		.4byte	.LBB150
 2809 0ca6 00060000 		.4byte	.LBE150
 2810 0caa B80C0000 		.4byte	0xcb8
 2811 0cae 1F       		.uleb128 0x1f
 2812 0caf 18080000 		.4byte	0x818
 2813 0cb3 FA040000 		.4byte	.LLST37
 2814 0cb7 00       		.byte	0
 2815 0cb8 23       		.uleb128 0x23
 2816 0cb9 2E060000 		.4byte	.LBB151
 2817 0cbd 34060000 		.4byte	.LBE151
 2818 0cc1 CF0C0000 		.4byte	0xccf
 2819 0cc5 1F       		.uleb128 0x1f
 2820 0cc6 29080000 		.4byte	0x829
 2821 0cca 0D050000 		.4byte	.LLST38
 2822 0cce 00       		.byte	0
 2823 0ccf 23       		.uleb128 0x23
 2824 0cd0 46060000 		.4byte	.LBB152
 2825 0cd4 4C060000 		.4byte	.LBE152
 2826 0cd8 E60C0000 		.4byte	0xce6
 2827 0cdc 1F       		.uleb128 0x1f
 2828 0cdd 3A080000 		.4byte	0x83a
 2829 0ce1 20050000 		.4byte	.LLST39
 2830 0ce5 00       		.byte	0
 2831 0ce6 23       		.uleb128 0x23
 2832 0ce7 52060000 		.4byte	.LBB153
 2833 0ceb 58060000 		.4byte	.LBE153
 2834 0cef FD0C0000 		.4byte	0xcfd
 2835 0cf3 1F       		.uleb128 0x1f
 2836 0cf4 5C080000 		.4byte	0x85c
 2837 0cf8 3E050000 		.4byte	.LLST40
 2838 0cfc 00       		.byte	0
 2839 0cfd 23       		.uleb128 0x23
 2840 0cfe 68060000 		.4byte	.LBB154
 2841 0d02 6E060000 		.4byte	.LBE154
ARM GAS  C:\Users\TAISIK~1\AppData\Local\Temp\ccG4oTzW.s 			page 51


 2842 0d06 140D0000 		.4byte	0xd14
 2843 0d0a 1F       		.uleb128 0x1f
 2844 0d0b 6D080000 		.4byte	0x86d
 2845 0d0f 51050000 		.4byte	.LLST41
 2846 0d13 00       		.byte	0
 2847 0d14 23       		.uleb128 0x23
 2848 0d15 92060000 		.4byte	.LBB155
 2849 0d19 98060000 		.4byte	.LBE155
 2850 0d1d 2B0D0000 		.4byte	0xd2b
 2851 0d21 1F       		.uleb128 0x1f
 2852 0d22 8F080000 		.4byte	0x88f
 2853 0d26 6F050000 		.4byte	.LLST42
 2854 0d2a 00       		.byte	0
 2855 0d2b 23       		.uleb128 0x23
 2856 0d2c AA060000 		.4byte	.LBB156
 2857 0d30 B0060000 		.4byte	.LBE156
 2858 0d34 420D0000 		.4byte	0xd42
 2859 0d38 1F       		.uleb128 0x1f
 2860 0d39 A0080000 		.4byte	0x8a0
 2861 0d3d 82050000 		.4byte	.LLST43
 2862 0d41 00       		.byte	0
 2863 0d42 23       		.uleb128 0x23
 2864 0d43 B6060000 		.4byte	.LBB157
 2865 0d47 BC060000 		.4byte	.LBE157
 2866 0d4b 590D0000 		.4byte	0xd59
 2867 0d4f 1F       		.uleb128 0x1f
 2868 0d50 C2080000 		.4byte	0x8c2
 2869 0d54 A0050000 		.4byte	.LLST44
 2870 0d58 00       		.byte	0
 2871 0d59 23       		.uleb128 0x23
 2872 0d5a CC060000 		.4byte	.LBB158
 2873 0d5e D2060000 		.4byte	.LBE158
 2874 0d62 700D0000 		.4byte	0xd70
 2875 0d66 1F       		.uleb128 0x1f
 2876 0d67 D3080000 		.4byte	0x8d3
 2877 0d6b B3050000 		.4byte	.LLST45
 2878 0d6f 00       		.byte	0
 2879 0d70 23       		.uleb128 0x23
 2880 0d71 D8060000 		.4byte	.LBB159
 2881 0d75 DE060000 		.4byte	.LBE159
 2882 0d79 870D0000 		.4byte	0xd87
 2883 0d7d 1F       		.uleb128 0x1f
 2884 0d7e F5080000 		.4byte	0x8f5
 2885 0d82 D1050000 		.4byte	.LLST46
 2886 0d86 00       		.byte	0
 2887 0d87 23       		.uleb128 0x23
 2888 0d88 F4060000 		.4byte	.LBB160
 2889 0d8c FA060000 		.4byte	.LBE160
 2890 0d90 9E0D0000 		.4byte	0xd9e
 2891 0d94 1F       		.uleb128 0x1f
 2892 0d95 06090000 		.4byte	0x906
 2893 0d99 E4050000 		.4byte	.LLST47
 2894 0d9d 00       		.byte	0
 2895 0d9e 22       		.uleb128 0x22
 2896 0d9f 00070000 		.4byte	.LBB161
 2897 0da3 06070000 		.4byte	.LBE161
 2898 0da7 1F       		.uleb128 0x1f
ARM GAS  C:\Users\TAISIK~1\AppData\Local\Temp\ccG4oTzW.s 			page 52


 2899 0da8 28090000 		.4byte	0x928
 2900 0dac 02060000 		.4byte	.LLST48
 2901 0db0 00       		.byte	0
 2902 0db1 00       		.byte	0
 2903 0db2 00       		.byte	0
 2904 0db3 00       		.byte	0
 2905 0db4 24       		.uleb128 0x24
 2906 0db5 93000000 		.4byte	.LASF76
 2907 0db9 0A       		.byte	0xa
 2908 0dba AA       		.byte	0xaa
 2909 0dbb 3E050000 		.4byte	0x53e
 2910 0dbf 01       		.byte	0x1
 2911 0dc0 01       		.byte	0x1
 2912 0dc1 25       		.uleb128 0x25
 2913 0dc2 6D623100 		.ascii	"mb1\000"
 2914 0dc6 01       		.byte	0x1
 2915 0dc7 40       		.byte	0x40
 2916 0dc8 3A040000 		.4byte	0x43a
 2917 0dcc 05       		.byte	0x5
 2918 0dcd 03       		.byte	0x3
 2919 0dce 00000000 		.4byte	mb1
 2920 0dd2 24       		.uleb128 0x24
 2921 0dd3 E1010000 		.4byte	.LASF77
 2922 0dd7 01       		.byte	0x1
 2923 0dd8 E2       		.byte	0xe2
 2924 0dd9 DF0D0000 		.4byte	0xddf
 2925 0ddd 01       		.byte	0x1
 2926 0dde 01       		.byte	0x1
 2927 0ddf 10       		.uleb128 0x10
 2928 0de0 92040000 		.4byte	0x492
 2929 0de4 24       		.uleb128 0x24
 2930 0de5 93000000 		.4byte	.LASF76
 2931 0de9 0A       		.byte	0xa
 2932 0dea AA       		.byte	0xaa
 2933 0deb 3E050000 		.4byte	0x53e
 2934 0def 01       		.byte	0x1
 2935 0df0 01       		.byte	0x1
 2936 0df1 26       		.uleb128 0x26
 2937 0df2 E1010000 		.4byte	.LASF77
 2938 0df6 01       		.byte	0x1
 2939 0df7 E2       		.byte	0xe2
 2940 0df8 DF0D0000 		.4byte	0xddf
 2941 0dfc 01       		.byte	0x1
 2942 0dfd 05       		.byte	0x5
 2943 0dfe 03       		.byte	0x3
 2944 0dff 00000000 		.4byte	testmbox1
 2945 0e03 13       		.uleb128 0x13
 2946 0e04 130E0000 		.4byte	0xe13
 2947 0e08 130E0000 		.4byte	0xe13
 2948 0e0c 14       		.uleb128 0x14
 2949 0e0d 30000000 		.4byte	0x30
 2950 0e11 01       		.byte	0x1
 2951 0e12 00       		.byte	0
 2952 0e13 09       		.uleb128 0x9
 2953 0e14 04       		.byte	0x4
 2954 0e15 DF0D0000 		.4byte	0xddf
 2955 0e19 26       		.uleb128 0x26
ARM GAS  C:\Users\TAISIK~1\AppData\Local\Temp\ccG4oTzW.s 			page 53


 2956 0e1a 7E000000 		.4byte	.LASF78
 2957 0e1e 01       		.byte	0x1
 2958 0e1f EE       		.byte	0xee
 2959 0e20 2B0E0000 		.4byte	0xe2b
 2960 0e24 01       		.byte	0x1
 2961 0e25 05       		.byte	0x5
 2962 0e26 03       		.byte	0x3
 2963 0e27 00000000 		.4byte	patternmbox
 2964 0e2b 10       		.uleb128 0x10
 2965 0e2c 030E0000 		.4byte	0xe03
 2966 0e30 00       		.byte	0
 2967              		.section	.debug_abbrev,"",%progbits
 2968              	.Ldebug_abbrev0:
 2969 0000 01       		.uleb128 0x1
 2970 0001 11       		.uleb128 0x11
 2971 0002 01       		.byte	0x1
 2972 0003 25       		.uleb128 0x25
 2973 0004 0E       		.uleb128 0xe
 2974 0005 13       		.uleb128 0x13
 2975 0006 0B       		.uleb128 0xb
 2976 0007 03       		.uleb128 0x3
 2977 0008 0E       		.uleb128 0xe
 2978 0009 1B       		.uleb128 0x1b
 2979 000a 0E       		.uleb128 0xe
 2980 000b 11       		.uleb128 0x11
 2981 000c 01       		.uleb128 0x1
 2982 000d 52       		.uleb128 0x52
 2983 000e 01       		.uleb128 0x1
 2984 000f 55       		.uleb128 0x55
 2985 0010 06       		.uleb128 0x6
 2986 0011 10       		.uleb128 0x10
 2987 0012 06       		.uleb128 0x6
 2988 0013 00       		.byte	0
 2989 0014 00       		.byte	0
 2990 0015 02       		.uleb128 0x2
 2991 0016 24       		.uleb128 0x24
 2992 0017 00       		.byte	0
 2993 0018 0B       		.uleb128 0xb
 2994 0019 0B       		.uleb128 0xb
 2995 001a 3E       		.uleb128 0x3e
 2996 001b 0B       		.uleb128 0xb
 2997 001c 03       		.uleb128 0x3
 2998 001d 08       		.uleb128 0x8
 2999 001e 00       		.byte	0
 3000 001f 00       		.byte	0
 3001 0020 03       		.uleb128 0x3
 3002 0021 24       		.uleb128 0x24
 3003 0022 00       		.byte	0
 3004 0023 0B       		.uleb128 0xb
 3005 0024 0B       		.uleb128 0xb
 3006 0025 3E       		.uleb128 0x3e
 3007 0026 0B       		.uleb128 0xb
 3008 0027 03       		.uleb128 0x3
 3009 0028 0E       		.uleb128 0xe
 3010 0029 00       		.byte	0
 3011 002a 00       		.byte	0
 3012 002b 04       		.uleb128 0x4
ARM GAS  C:\Users\TAISIK~1\AppData\Local\Temp\ccG4oTzW.s 			page 54


 3013 002c 16       		.uleb128 0x16
 3014 002d 00       		.byte	0
 3015 002e 03       		.uleb128 0x3
 3016 002f 0E       		.uleb128 0xe
 3017 0030 3A       		.uleb128 0x3a
 3018 0031 0B       		.uleb128 0xb
 3019 0032 3B       		.uleb128 0x3b
 3020 0033 0B       		.uleb128 0xb
 3021 0034 49       		.uleb128 0x49
 3022 0035 13       		.uleb128 0x13
 3023 0036 00       		.byte	0
 3024 0037 00       		.byte	0
 3025 0038 05       		.uleb128 0x5
 3026 0039 13       		.uleb128 0x13
 3027 003a 01       		.byte	0x1
 3028 003b 03       		.uleb128 0x3
 3029 003c 0E       		.uleb128 0xe
 3030 003d 0B       		.uleb128 0xb
 3031 003e 0B       		.uleb128 0xb
 3032 003f 3A       		.uleb128 0x3a
 3033 0040 0B       		.uleb128 0xb
 3034 0041 3B       		.uleb128 0x3b
 3035 0042 0B       		.uleb128 0xb
 3036 0043 01       		.uleb128 0x1
 3037 0044 13       		.uleb128 0x13
 3038 0045 00       		.byte	0
 3039 0046 00       		.byte	0
 3040 0047 06       		.uleb128 0x6
 3041 0048 0D       		.uleb128 0xd
 3042 0049 00       		.byte	0
 3043 004a 03       		.uleb128 0x3
 3044 004b 0E       		.uleb128 0xe
 3045 004c 3A       		.uleb128 0x3a
 3046 004d 0B       		.uleb128 0xb
 3047 004e 3B       		.uleb128 0x3b
 3048 004f 0B       		.uleb128 0xb
 3049 0050 49       		.uleb128 0x49
 3050 0051 13       		.uleb128 0x13
 3051 0052 38       		.uleb128 0x38
 3052 0053 0A       		.uleb128 0xa
 3053 0054 00       		.byte	0
 3054 0055 00       		.byte	0
 3055 0056 07       		.uleb128 0x7
 3056 0057 0D       		.uleb128 0xd
 3057 0058 00       		.byte	0
 3058 0059 03       		.uleb128 0x3
 3059 005a 08       		.uleb128 0x8
 3060 005b 3A       		.uleb128 0x3a
 3061 005c 0B       		.uleb128 0xb
 3062 005d 3B       		.uleb128 0x3b
 3063 005e 0B       		.uleb128 0xb
 3064 005f 49       		.uleb128 0x49
 3065 0060 13       		.uleb128 0x13
 3066 0061 38       		.uleb128 0x38
 3067 0062 0A       		.uleb128 0xa
 3068 0063 00       		.byte	0
 3069 0064 00       		.byte	0
ARM GAS  C:\Users\TAISIK~1\AppData\Local\Temp\ccG4oTzW.s 			page 55


 3070 0065 08       		.uleb128 0x8
 3071 0066 13       		.uleb128 0x13
 3072 0067 01       		.byte	0x1
 3073 0068 0B       		.uleb128 0xb
 3074 0069 0B       		.uleb128 0xb
 3075 006a 3A       		.uleb128 0x3a
 3076 006b 0B       		.uleb128 0xb
 3077 006c 3B       		.uleb128 0x3b
 3078 006d 0B       		.uleb128 0xb
 3079 006e 01       		.uleb128 0x1
 3080 006f 13       		.uleb128 0x13
 3081 0070 00       		.byte	0
 3082 0071 00       		.byte	0
 3083 0072 09       		.uleb128 0x9
 3084 0073 0F       		.uleb128 0xf
 3085 0074 00       		.byte	0
 3086 0075 0B       		.uleb128 0xb
 3087 0076 0B       		.uleb128 0xb
 3088 0077 49       		.uleb128 0x49
 3089 0078 13       		.uleb128 0x13
 3090 0079 00       		.byte	0
 3091 007a 00       		.byte	0
 3092 007b 0A       		.uleb128 0xa
 3093 007c 0F       		.uleb128 0xf
 3094 007d 00       		.byte	0
 3095 007e 0B       		.uleb128 0xb
 3096 007f 0B       		.uleb128 0xb
 3097 0080 00       		.byte	0
 3098 0081 00       		.byte	0
 3099 0082 0B       		.uleb128 0xb
 3100 0083 13       		.uleb128 0x13
 3101 0084 01       		.byte	0x1
 3102 0085 03       		.uleb128 0x3
 3103 0086 0E       		.uleb128 0xe
 3104 0087 0B       		.uleb128 0xb
 3105 0088 0B       		.uleb128 0xb
 3106 0089 3A       		.uleb128 0x3a
 3107 008a 0B       		.uleb128 0xb
 3108 008b 3B       		.uleb128 0x3b
 3109 008c 05       		.uleb128 0x5
 3110 008d 01       		.uleb128 0x1
 3111 008e 13       		.uleb128 0x13
 3112 008f 00       		.byte	0
 3113 0090 00       		.byte	0
 3114 0091 0C       		.uleb128 0xc
 3115 0092 0D       		.uleb128 0xd
 3116 0093 00       		.byte	0
 3117 0094 03       		.uleb128 0x3
 3118 0095 08       		.uleb128 0x8
 3119 0096 3A       		.uleb128 0x3a
 3120 0097 0B       		.uleb128 0xb
 3121 0098 3B       		.uleb128 0x3b
 3122 0099 05       		.uleb128 0x5
 3123 009a 49       		.uleb128 0x49
 3124 009b 13       		.uleb128 0x13
 3125 009c 38       		.uleb128 0x38
 3126 009d 0A       		.uleb128 0xa
ARM GAS  C:\Users\TAISIK~1\AppData\Local\Temp\ccG4oTzW.s 			page 56


 3127 009e 00       		.byte	0
 3128 009f 00       		.byte	0
 3129 00a0 0D       		.uleb128 0xd
 3130 00a1 35       		.uleb128 0x35
 3131 00a2 00       		.byte	0
 3132 00a3 49       		.uleb128 0x49
 3133 00a4 13       		.uleb128 0x13
 3134 00a5 00       		.byte	0
 3135 00a6 00       		.byte	0
 3136 00a7 0E       		.uleb128 0xe
 3137 00a8 17       		.uleb128 0x17
 3138 00a9 01       		.byte	0x1
 3139 00aa 0B       		.uleb128 0xb
 3140 00ab 0B       		.uleb128 0xb
 3141 00ac 3A       		.uleb128 0x3a
 3142 00ad 0B       		.uleb128 0xb
 3143 00ae 3B       		.uleb128 0x3b
 3144 00af 0B       		.uleb128 0xb
 3145 00b0 01       		.uleb128 0x1
 3146 00b1 13       		.uleb128 0x13
 3147 00b2 00       		.byte	0
 3148 00b3 00       		.byte	0
 3149 00b4 0F       		.uleb128 0xf
 3150 00b5 0D       		.uleb128 0xd
 3151 00b6 00       		.byte	0
 3152 00b7 03       		.uleb128 0x3
 3153 00b8 0E       		.uleb128 0xe
 3154 00b9 3A       		.uleb128 0x3a
 3155 00ba 0B       		.uleb128 0xb
 3156 00bb 3B       		.uleb128 0x3b
 3157 00bc 0B       		.uleb128 0xb
 3158 00bd 49       		.uleb128 0x49
 3159 00be 13       		.uleb128 0x13
 3160 00bf 00       		.byte	0
 3161 00c0 00       		.byte	0
 3162 00c1 10       		.uleb128 0x10
 3163 00c2 26       		.uleb128 0x26
 3164 00c3 00       		.byte	0
 3165 00c4 49       		.uleb128 0x49
 3166 00c5 13       		.uleb128 0x13
 3167 00c6 00       		.byte	0
 3168 00c7 00       		.byte	0
 3169 00c8 11       		.uleb128 0x11
 3170 00c9 15       		.uleb128 0x15
 3171 00ca 00       		.byte	0
 3172 00cb 27       		.uleb128 0x27
 3173 00cc 0C       		.uleb128 0xc
 3174 00cd 00       		.byte	0
 3175 00ce 00       		.byte	0
 3176 00cf 12       		.uleb128 0x12
 3177 00d0 13       		.uleb128 0x13
 3178 00d1 01       		.byte	0x1
 3179 00d2 0B       		.uleb128 0xb
 3180 00d3 05       		.uleb128 0x5
 3181 00d4 3A       		.uleb128 0x3a
 3182 00d5 0B       		.uleb128 0xb
 3183 00d6 3B       		.uleb128 0x3b
ARM GAS  C:\Users\TAISIK~1\AppData\Local\Temp\ccG4oTzW.s 			page 57


 3184 00d7 0B       		.uleb128 0xb
 3185 00d8 01       		.uleb128 0x1
 3186 00d9 13       		.uleb128 0x13
 3187 00da 00       		.byte	0
 3188 00db 00       		.byte	0
 3189 00dc 13       		.uleb128 0x13
 3190 00dd 01       		.uleb128 0x1
 3191 00de 01       		.byte	0x1
 3192 00df 49       		.uleb128 0x49
 3193 00e0 13       		.uleb128 0x13
 3194 00e1 01       		.uleb128 0x1
 3195 00e2 13       		.uleb128 0x13
 3196 00e3 00       		.byte	0
 3197 00e4 00       		.byte	0
 3198 00e5 14       		.uleb128 0x14
 3199 00e6 21       		.uleb128 0x21
 3200 00e7 00       		.byte	0
 3201 00e8 49       		.uleb128 0x49
 3202 00e9 13       		.uleb128 0x13
 3203 00ea 2F       		.uleb128 0x2f
 3204 00eb 0B       		.uleb128 0xb
 3205 00ec 00       		.byte	0
 3206 00ed 00       		.byte	0
 3207 00ee 15       		.uleb128 0x15
 3208 00ef 17       		.uleb128 0x17
 3209 00f0 01       		.byte	0x1
 3210 00f1 03       		.uleb128 0x3
 3211 00f2 0E       		.uleb128 0xe
 3212 00f3 0B       		.uleb128 0xb
 3213 00f4 05       		.uleb128 0x5
 3214 00f5 3A       		.uleb128 0x3a
 3215 00f6 0B       		.uleb128 0xb
 3216 00f7 3B       		.uleb128 0x3b
 3217 00f8 0B       		.uleb128 0xb
 3218 00f9 01       		.uleb128 0x1
 3219 00fa 13       		.uleb128 0x13
 3220 00fb 00       		.byte	0
 3221 00fc 00       		.byte	0
 3222 00fd 16       		.uleb128 0x16
 3223 00fe 0D       		.uleb128 0xd
 3224 00ff 00       		.byte	0
 3225 0100 03       		.uleb128 0x3
 3226 0101 08       		.uleb128 0x8
 3227 0102 3A       		.uleb128 0x3a
 3228 0103 0B       		.uleb128 0xb
 3229 0104 3B       		.uleb128 0x3b
 3230 0105 0B       		.uleb128 0xb
 3231 0106 49       		.uleb128 0x49
 3232 0107 13       		.uleb128 0x13
 3233 0108 00       		.byte	0
 3234 0109 00       		.byte	0
 3235 010a 17       		.uleb128 0x17
 3236 010b 21       		.uleb128 0x21
 3237 010c 00       		.byte	0
 3238 010d 49       		.uleb128 0x49
 3239 010e 13       		.uleb128 0x13
 3240 010f 2F       		.uleb128 0x2f
ARM GAS  C:\Users\TAISIK~1\AppData\Local\Temp\ccG4oTzW.s 			page 58


 3241 0110 05       		.uleb128 0x5
 3242 0111 00       		.byte	0
 3243 0112 00       		.byte	0
 3244 0113 18       		.uleb128 0x18
 3245 0114 2E       		.uleb128 0x2e
 3246 0115 01       		.byte	0x1
 3247 0116 03       		.uleb128 0x3
 3248 0117 0E       		.uleb128 0xe
 3249 0118 3A       		.uleb128 0x3a
 3250 0119 0B       		.uleb128 0xb
 3251 011a 3B       		.uleb128 0x3b
 3252 011b 0B       		.uleb128 0xb
 3253 011c 27       		.uleb128 0x27
 3254 011d 0C       		.uleb128 0xc
 3255 011e 20       		.uleb128 0x20
 3256 011f 0B       		.uleb128 0xb
 3257 0120 01       		.uleb128 0x1
 3258 0121 13       		.uleb128 0x13
 3259 0122 00       		.byte	0
 3260 0123 00       		.byte	0
 3261 0124 19       		.uleb128 0x19
 3262 0125 34       		.uleb128 0x34
 3263 0126 00       		.byte	0
 3264 0127 03       		.uleb128 0x3
 3265 0128 0E       		.uleb128 0xe
 3266 0129 3A       		.uleb128 0x3a
 3267 012a 0B       		.uleb128 0xb
 3268 012b 3B       		.uleb128 0x3b
 3269 012c 0B       		.uleb128 0xb
 3270 012d 49       		.uleb128 0x49
 3271 012e 13       		.uleb128 0x13
 3272 012f 00       		.byte	0
 3273 0130 00       		.byte	0
 3274 0131 1A       		.uleb128 0x1a
 3275 0132 34       		.uleb128 0x34
 3276 0133 00       		.byte	0
 3277 0134 03       		.uleb128 0x3
 3278 0135 08       		.uleb128 0x8
 3279 0136 3A       		.uleb128 0x3a
 3280 0137 0B       		.uleb128 0xb
 3281 0138 3B       		.uleb128 0x3b
 3282 0139 0B       		.uleb128 0xb
 3283 013a 49       		.uleb128 0x49
 3284 013b 13       		.uleb128 0x13
 3285 013c 00       		.byte	0
 3286 013d 00       		.byte	0
 3287 013e 1B       		.uleb128 0x1b
 3288 013f 0B       		.uleb128 0xb
 3289 0140 01       		.byte	0x1
 3290 0141 01       		.uleb128 0x1
 3291 0142 13       		.uleb128 0x13
 3292 0143 00       		.byte	0
 3293 0144 00       		.byte	0
 3294 0145 1C       		.uleb128 0x1c
 3295 0146 0B       		.uleb128 0xb
 3296 0147 01       		.byte	0x1
 3297 0148 00       		.byte	0
ARM GAS  C:\Users\TAISIK~1\AppData\Local\Temp\ccG4oTzW.s 			page 59


 3298 0149 00       		.byte	0
 3299 014a 1D       		.uleb128 0x1d
 3300 014b 2E       		.uleb128 0x2e
 3301 014c 00       		.byte	0
 3302 014d 03       		.uleb128 0x3
 3303 014e 0E       		.uleb128 0xe
 3304 014f 3A       		.uleb128 0x3a
 3305 0150 0B       		.uleb128 0xb
 3306 0151 3B       		.uleb128 0x3b
 3307 0152 0B       		.uleb128 0xb
 3308 0153 27       		.uleb128 0x27
 3309 0154 0C       		.uleb128 0xc
 3310 0155 11       		.uleb128 0x11
 3311 0156 01       		.uleb128 0x1
 3312 0157 12       		.uleb128 0x12
 3313 0158 01       		.uleb128 0x1
 3314 0159 40       		.uleb128 0x40
 3315 015a 0A       		.uleb128 0xa
 3316 015b 00       		.byte	0
 3317 015c 00       		.byte	0
 3318 015d 1E       		.uleb128 0x1e
 3319 015e 2E       		.uleb128 0x2e
 3320 015f 01       		.byte	0x1
 3321 0160 31       		.uleb128 0x31
 3322 0161 13       		.uleb128 0x13
 3323 0162 11       		.uleb128 0x11
 3324 0163 01       		.uleb128 0x1
 3325 0164 12       		.uleb128 0x12
 3326 0165 01       		.uleb128 0x1
 3327 0166 40       		.uleb128 0x40
 3328 0167 06       		.uleb128 0x6
 3329 0168 01       		.uleb128 0x1
 3330 0169 13       		.uleb128 0x13
 3331 016a 00       		.byte	0
 3332 016b 00       		.byte	0
 3333 016c 1F       		.uleb128 0x1f
 3334 016d 34       		.uleb128 0x34
 3335 016e 00       		.byte	0
 3336 016f 31       		.uleb128 0x31
 3337 0170 13       		.uleb128 0x13
 3338 0171 02       		.uleb128 0x2
 3339 0172 06       		.uleb128 0x6
 3340 0173 00       		.byte	0
 3341 0174 00       		.byte	0
 3342 0175 20       		.uleb128 0x20
 3343 0176 34       		.uleb128 0x34
 3344 0177 00       		.byte	0
 3345 0178 31       		.uleb128 0x31
 3346 0179 13       		.uleb128 0x13
 3347 017a 00       		.byte	0
 3348 017b 00       		.byte	0
 3349 017c 21       		.uleb128 0x21
 3350 017d 1D       		.uleb128 0x1d
 3351 017e 01       		.byte	0x1
 3352 017f 31       		.uleb128 0x31
 3353 0180 13       		.uleb128 0x13
 3354 0181 11       		.uleb128 0x11
ARM GAS  C:\Users\TAISIK~1\AppData\Local\Temp\ccG4oTzW.s 			page 60


 3355 0182 01       		.uleb128 0x1
 3356 0183 12       		.uleb128 0x12
 3357 0184 01       		.uleb128 0x1
 3358 0185 58       		.uleb128 0x58
 3359 0186 0B       		.uleb128 0xb
 3360 0187 59       		.uleb128 0x59
 3361 0188 0B       		.uleb128 0xb
 3362 0189 00       		.byte	0
 3363 018a 00       		.byte	0
 3364 018b 22       		.uleb128 0x22
 3365 018c 0B       		.uleb128 0xb
 3366 018d 01       		.byte	0x1
 3367 018e 11       		.uleb128 0x11
 3368 018f 01       		.uleb128 0x1
 3369 0190 12       		.uleb128 0x12
 3370 0191 01       		.uleb128 0x1
 3371 0192 00       		.byte	0
 3372 0193 00       		.byte	0
 3373 0194 23       		.uleb128 0x23
 3374 0195 0B       		.uleb128 0xb
 3375 0196 01       		.byte	0x1
 3376 0197 11       		.uleb128 0x11
 3377 0198 01       		.uleb128 0x1
 3378 0199 12       		.uleb128 0x12
 3379 019a 01       		.uleb128 0x1
 3380 019b 01       		.uleb128 0x1
 3381 019c 13       		.uleb128 0x13
 3382 019d 00       		.byte	0
 3383 019e 00       		.byte	0
 3384 019f 24       		.uleb128 0x24
 3385 01a0 34       		.uleb128 0x34
 3386 01a1 00       		.byte	0
 3387 01a2 03       		.uleb128 0x3
 3388 01a3 0E       		.uleb128 0xe
 3389 01a4 3A       		.uleb128 0x3a
 3390 01a5 0B       		.uleb128 0xb
 3391 01a6 3B       		.uleb128 0x3b
 3392 01a7 0B       		.uleb128 0xb
 3393 01a8 49       		.uleb128 0x49
 3394 01a9 13       		.uleb128 0x13
 3395 01aa 3F       		.uleb128 0x3f
 3396 01ab 0C       		.uleb128 0xc
 3397 01ac 3C       		.uleb128 0x3c
 3398 01ad 0C       		.uleb128 0xc
 3399 01ae 00       		.byte	0
 3400 01af 00       		.byte	0
 3401 01b0 25       		.uleb128 0x25
 3402 01b1 34       		.uleb128 0x34
 3403 01b2 00       		.byte	0
 3404 01b3 03       		.uleb128 0x3
 3405 01b4 08       		.uleb128 0x8
 3406 01b5 3A       		.uleb128 0x3a
 3407 01b6 0B       		.uleb128 0xb
 3408 01b7 3B       		.uleb128 0x3b
 3409 01b8 0B       		.uleb128 0xb
 3410 01b9 49       		.uleb128 0x49
 3411 01ba 13       		.uleb128 0x13
ARM GAS  C:\Users\TAISIK~1\AppData\Local\Temp\ccG4oTzW.s 			page 61


 3412 01bb 02       		.uleb128 0x2
 3413 01bc 0A       		.uleb128 0xa
 3414 01bd 00       		.byte	0
 3415 01be 00       		.byte	0
 3416 01bf 26       		.uleb128 0x26
 3417 01c0 34       		.uleb128 0x34
 3418 01c1 00       		.byte	0
 3419 01c2 03       		.uleb128 0x3
 3420 01c3 0E       		.uleb128 0xe
 3421 01c4 3A       		.uleb128 0x3a
 3422 01c5 0B       		.uleb128 0xb
 3423 01c6 3B       		.uleb128 0x3b
 3424 01c7 0B       		.uleb128 0xb
 3425 01c8 49       		.uleb128 0x49
 3426 01c9 13       		.uleb128 0x13
 3427 01ca 3F       		.uleb128 0x3f
 3428 01cb 0C       		.uleb128 0xc
 3429 01cc 02       		.uleb128 0x2
 3430 01cd 0A       		.uleb128 0xa
 3431 01ce 00       		.byte	0
 3432 01cf 00       		.byte	0
 3433 01d0 00       		.byte	0
 3434              		.section	.debug_loc,"",%progbits
 3435              	.Ldebug_loc0:
 3436              	.LLST0:
 3437 0000 00000000 		.4byte	.LFB8
 3438 0004 02000000 		.4byte	.LCFI0
 3439 0008 0200     		.2byte	0x2
 3440 000a 7D       		.byte	0x7d
 3441 000b 00       		.sleb128 0
 3442 000c 02000000 		.4byte	.LCFI0
 3443 0010 12000000 		.4byte	.LCFI1
 3444 0014 0200     		.2byte	0x2
 3445 0016 7D       		.byte	0x7d
 3446 0017 10       		.sleb128 16
 3447 0018 12000000 		.4byte	.LCFI1
 3448 001c 24070000 		.4byte	.LFE8
 3449 0020 0200     		.2byte	0x2
 3450 0022 7D       		.byte	0x7d
 3451 0023 18       		.sleb128 24
 3452 0024 00000000 		.4byte	0
 3453 0028 00000000 		.4byte	0
 3454              	.LLST1:
 3455 002c 28000000 		.4byte	.LVL0
 3456 0030 32000000 		.4byte	.LVL1
 3457 0034 0100     		.2byte	0x1
 3458 0036 50       		.byte	0x50
 3459 0037 44000000 		.4byte	.LVL3
 3460 003b 4E000000 		.4byte	.LVL4
 3461 003f 0100     		.2byte	0x1
 3462 0041 50       		.byte	0x50
 3463 0042 60000000 		.4byte	.LVL6
 3464 0046 6A000000 		.4byte	.LVL7
 3465 004a 0100     		.2byte	0x1
 3466 004c 50       		.byte	0x50
 3467 004d 7C000000 		.4byte	.LVL9
 3468 0051 86000000 		.4byte	.LVL10
ARM GAS  C:\Users\TAISIK~1\AppData\Local\Temp\ccG4oTzW.s 			page 62


 3469 0055 0100     		.2byte	0x1
 3470 0057 50       		.byte	0x50
 3471 0058 98000000 		.4byte	.LVL12
 3472 005c A2000000 		.4byte	.LVL13
 3473 0060 0100     		.2byte	0x1
 3474 0062 50       		.byte	0x50
 3475 0063 00000000 		.4byte	0
 3476 0067 00000000 		.4byte	0
 3477              	.LLST2:
 3478 006b 38000000 		.4byte	.LVL2
 3479 006f 54000000 		.4byte	.LVL5
 3480 0073 0200     		.2byte	0x2
 3481 0075 31       		.byte	0x31
 3482 0076 9F       		.byte	0x9f
 3483 0077 54000000 		.4byte	.LVL5
 3484 007b 70000000 		.4byte	.LVL8
 3485 007f 0200     		.2byte	0x2
 3486 0081 32       		.byte	0x32
 3487 0082 9F       		.byte	0x9f
 3488 0083 70000000 		.4byte	.LVL8
 3489 0087 8C000000 		.4byte	.LVL11
 3490 008b 0200     		.2byte	0x2
 3491 008d 33       		.byte	0x33
 3492 008e 9F       		.byte	0x9f
 3493 008f 8C000000 		.4byte	.LVL11
 3494 0093 A8000000 		.4byte	.LVL14
 3495 0097 0200     		.2byte	0x2
 3496 0099 34       		.byte	0x34
 3497 009a 9F       		.byte	0x9f
 3498 009b AC000000 		.4byte	.LVL15
 3499 009f 24070000 		.4byte	.LFE8
 3500 00a3 0200     		.2byte	0x2
 3501 00a5 34       		.byte	0x34
 3502 00a6 9F       		.byte	0x9f
 3503 00a7 00000000 		.4byte	0
 3504 00ab 00000000 		.4byte	0
 3505              	.LLST3:
 3506 00af B6000000 		.4byte	.LVL16
 3507 00b3 C2000000 		.4byte	.LVL17
 3508 00b7 0100     		.2byte	0x1
 3509 00b9 50       		.byte	0x50
 3510 00ba C2000000 		.4byte	.LVL17
 3511 00be C8000000 		.4byte	.LVL18
 3512 00c2 0300     		.2byte	0x3
 3513 00c4 75       		.byte	0x75
 3514 00c5 7F       		.sleb128 -1
 3515 00c6 9F       		.byte	0x9f
 3516 00c7 DA000000 		.4byte	.LVL21
 3517 00cb EE000000 		.4byte	.LVL24
 3518 00cf 0100     		.2byte	0x1
 3519 00d1 50       		.byte	0x50
 3520 00d2 00010000 		.4byte	.LVL26
 3521 00d6 06010000 		.4byte	.LVL27
 3522 00da 0100     		.2byte	0x1
 3523 00dc 50       		.byte	0x50
 3524 00dd 06010000 		.4byte	.LVL27
 3525 00e1 0F010000 		.4byte	.LVL28-1
ARM GAS  C:\Users\TAISIK~1\AppData\Local\Temp\ccG4oTzW.s 			page 63


 3526 00e5 0300     		.2byte	0x3
 3527 00e7 72       		.byte	0x72
 3528 00e8 7F       		.sleb128 -1
 3529 00e9 9F       		.byte	0x9f
 3530 00ea 24010000 		.4byte	.LVL31
 3531 00ee 36010000 		.4byte	.LVL35
 3532 00f2 0100     		.2byte	0x1
 3533 00f4 50       		.byte	0x50
 3534 00f5 C6010000 		.4byte	.LVL54
 3535 00f9 D0010000 		.4byte	.LVL55
 3536 00fd 0100     		.2byte	0x1
 3537 00ff 50       		.byte	0x50
 3538 0100 EE010000 		.4byte	.LVL58
 3539 0104 F8010000 		.4byte	.LVL59
 3540 0108 0100     		.2byte	0x1
 3541 010a 50       		.byte	0x50
 3542 010b 16020000 		.4byte	.LVL61
 3543 010f 20020000 		.4byte	.LVL62
 3544 0113 0100     		.2byte	0x1
 3545 0115 50       		.byte	0x50
 3546 0116 3E020000 		.4byte	.LVL64
 3547 011a 48020000 		.4byte	.LVL65
 3548 011e 0100     		.2byte	0x1
 3549 0120 50       		.byte	0x50
 3550 0121 66020000 		.4byte	.LVL67
 3551 0125 70020000 		.4byte	.LVL68
 3552 0129 0100     		.2byte	0x1
 3553 012b 50       		.byte	0x50
 3554 012c 9C020000 		.4byte	.LVL70
 3555 0130 A6020000 		.4byte	.LVL71
 3556 0134 0100     		.2byte	0x1
 3557 0136 50       		.byte	0x50
 3558 0137 BE020000 		.4byte	.LVL72
 3559 013b C8020000 		.4byte	.LVL73
 3560 013f 0100     		.2byte	0x1
 3561 0141 50       		.byte	0x50
 3562 0142 14030000 		.4byte	.LVL74
 3563 0146 20030000 		.4byte	.LVL75
 3564 014a 0100     		.2byte	0x1
 3565 014c 50       		.byte	0x50
 3566 014d 3A030000 		.4byte	.LVL78
 3567 0151 46030000 		.4byte	.LVL82
 3568 0155 0100     		.2byte	0x1
 3569 0157 50       		.byte	0x50
 3570 0158 46030000 		.4byte	.LVL82
 3571 015c 4F030000 		.4byte	.LVL83-1
 3572 0160 0300     		.2byte	0x3
 3573 0162 73       		.byte	0x73
 3574 0163 7F       		.sleb128 -1
 3575 0164 9F       		.byte	0x9f
 3576 0165 E2030000 		.4byte	.LVL103
 3577 0169 EC030000 		.4byte	.LVL104
 3578 016d 0100     		.2byte	0x1
 3579 016f 50       		.byte	0x50
 3580 0170 FE030000 		.4byte	.LVL105
 3581 0174 08040000 		.4byte	.LVL106
 3582 0178 0100     		.2byte	0x1
ARM GAS  C:\Users\TAISIK~1\AppData\Local\Temp\ccG4oTzW.s 			page 64


 3583 017a 50       		.byte	0x50
 3584 017b 1C040000 		.4byte	.LVL107
 3585 017f 26040000 		.4byte	.LVL108
 3586 0183 0100     		.2byte	0x1
 3587 0185 50       		.byte	0x50
 3588 0186 38040000 		.4byte	.LVL109
 3589 018a 42040000 		.4byte	.LVL110
 3590 018e 0100     		.2byte	0x1
 3591 0190 50       		.byte	0x50
 3592 0191 56040000 		.4byte	.LVL111
 3593 0195 66040000 		.4byte	.LVL114
 3594 0199 0100     		.2byte	0x1
 3595 019b 50       		.byte	0x50
 3596 019c 9C040000 		.4byte	.LVL119
 3597 01a0 AC040000 		.4byte	.LVL123
 3598 01a4 0100     		.2byte	0x1
 3599 01a6 50       		.byte	0x50
 3600 01a7 3C050000 		.4byte	.LVL135
 3601 01ab 46050000 		.4byte	.LVL136
 3602 01af 0100     		.2byte	0x1
 3603 01b1 50       		.byte	0x50
 3604 01b2 58050000 		.4byte	.LVL137
 3605 01b6 62050000 		.4byte	.LVL138
 3606 01ba 0100     		.2byte	0x1
 3607 01bc 50       		.byte	0x50
 3608 01bd 74050000 		.4byte	.LVL139
 3609 01c1 7E050000 		.4byte	.LVL140
 3610 01c5 0100     		.2byte	0x1
 3611 01c7 50       		.byte	0x50
 3612 01c8 90050000 		.4byte	.LVL141
 3613 01cc 9A050000 		.4byte	.LVL142
 3614 01d0 0100     		.2byte	0x1
 3615 01d2 50       		.byte	0x50
 3616 01d3 AE050000 		.4byte	.LVL143
 3617 01d7 C2050000 		.4byte	.LVL147
 3618 01db 0100     		.2byte	0x1
 3619 01dd 50       		.byte	0x50
 3620 01de C2050000 		.4byte	.LVL147
 3621 01e2 C5050000 		.4byte	.LVL148-1
 3622 01e6 0100     		.2byte	0x1
 3623 01e8 5C       		.byte	0x5c
 3624 01e9 FA050000 		.4byte	.LVL151
 3625 01ed 04060000 		.4byte	.LVL155
 3626 01f1 0100     		.2byte	0x1
 3627 01f3 50       		.byte	0x50
 3628 01f4 04060000 		.4byte	.LVL155
 3629 01f8 0D060000 		.4byte	.LVL156-1
 3630 01fc 0100     		.2byte	0x1
 3631 01fe 53       		.byte	0x53
 3632 01ff 00000000 		.4byte	0
 3633 0203 00000000 		.4byte	0
 3634              	.LLST4:
 3635 0207 BA010000 		.4byte	.LVL53
 3636 020b E2010000 		.4byte	.LVL57
 3637 020f 0200     		.2byte	0x2
 3638 0211 30       		.byte	0x30
 3639 0212 9F       		.byte	0x9f
ARM GAS  C:\Users\TAISIK~1\AppData\Local\Temp\ccG4oTzW.s 			page 65


 3640 0213 E2010000 		.4byte	.LVL57
 3641 0217 0A020000 		.4byte	.LVL60
 3642 021b 0200     		.2byte	0x2
 3643 021d 31       		.byte	0x31
 3644 021e 9F       		.byte	0x9f
 3645 021f 0A020000 		.4byte	.LVL60
 3646 0223 32020000 		.4byte	.LVL63
 3647 0227 0200     		.2byte	0x2
 3648 0229 32       		.byte	0x32
 3649 022a 9F       		.byte	0x9f
 3650 022b 32020000 		.4byte	.LVL63
 3651 022f 5A020000 		.4byte	.LVL66
 3652 0233 0200     		.2byte	0x2
 3653 0235 33       		.byte	0x33
 3654 0236 9F       		.byte	0x9f
 3655 0237 5A020000 		.4byte	.LVL66
 3656 023b 82020000 		.4byte	.LVL69
 3657 023f 0200     		.2byte	0x2
 3658 0241 34       		.byte	0x34
 3659 0242 9F       		.byte	0x9f
 3660 0243 82020000 		.4byte	.LVL69
 3661 0247 74030000 		.4byte	.LVL87
 3662 024b 0200     		.2byte	0x2
 3663 024d 35       		.byte	0x35
 3664 024e 9F       		.byte	0x9f
 3665 024f 84030000 		.4byte	.LVL89
 3666 0253 8C040000 		.4byte	.LVL116
 3667 0257 0200     		.2byte	0x2
 3668 0259 35       		.byte	0x35
 3669 025a 9F       		.byte	0x9f
 3670 025b 00000000 		.4byte	0
 3671 025f 00000000 		.4byte	0
 3672              	.LLST5:
 3673 0263 D2000000 		.4byte	.LVL20
 3674 0267 D9000000 		.4byte	.LVL21-1
 3675 026b 0100     		.2byte	0x1
 3676 026d 53       		.byte	0x53
 3677 026e 00000000 		.4byte	0
 3678 0272 00000000 		.4byte	0
 3679              	.LLST6:
 3680 0276 E0000000 		.4byte	.LVL23
 3681 027a F1000000 		.4byte	.LVL25-1
 3682 027e 0100     		.2byte	0x1
 3683 0280 53       		.byte	0x53
 3684 0281 00000000 		.4byte	0
 3685 0285 00000000 		.4byte	0
 3686              	.LLST7:
 3687 0289 1C010000 		.4byte	.LVL30
 3688 028d 23010000 		.4byte	.LVL31-1
 3689 0291 0100     		.2byte	0x1
 3690 0293 53       		.byte	0x53
 3691 0294 00000000 		.4byte	0
 3692 0298 00000000 		.4byte	0
 3693              	.LLST8:
 3694 029c 2A010000 		.4byte	.LVL33
 3695 02a0 30010000 		.4byte	.LVL34
 3696 02a4 0100     		.2byte	0x1
ARM GAS  C:\Users\TAISIK~1\AppData\Local\Temp\ccG4oTzW.s 			page 66


 3697 02a6 53       		.byte	0x53
 3698 02a7 00000000 		.4byte	0
 3699 02ab 00000000 		.4byte	0
 3700              	.LLST9:
 3701 02af 44010000 		.4byte	.LVL37
 3702 02b3 53010000 		.4byte	.LVL38-1
 3703 02b7 0100     		.2byte	0x1
 3704 02b9 53       		.byte	0x53
 3705 02ba 00000000 		.4byte	0
 3706 02be 00000000 		.4byte	0
 3707              	.LLST10:
 3708 02c2 A8000000 		.4byte	.LVL14
 3709 02c6 AC000000 		.4byte	.LVL15
 3710 02ca 0100     		.2byte	0x1
 3711 02cc 53       		.byte	0x53
 3712 02cd 5E010000 		.4byte	.LVL39
 3713 02d1 60010000 		.4byte	.LVL40
 3714 02d5 0100     		.2byte	0x1
 3715 02d7 53       		.byte	0x53
 3716 02d8 00000000 		.4byte	0
 3717 02dc 00000000 		.4byte	0
 3718              	.LLST11:
 3719 02e0 66010000 		.4byte	.LVL42
 3720 02e4 68010000 		.4byte	.LVL43
 3721 02e8 0100     		.2byte	0x1
 3722 02ea 53       		.byte	0x53
 3723 02eb 00000000 		.4byte	0
 3724 02ef 00000000 		.4byte	0
 3725              	.LLST12:
 3726 02f3 6C010000 		.4byte	.LVL44
 3727 02f7 7F010000 		.4byte	.LVL45-1
 3728 02fb 0100     		.2byte	0x1
 3729 02fd 53       		.byte	0x53
 3730 02fe 00000000 		.4byte	0
 3731 0302 00000000 		.4byte	0
 3732              	.LLST13:
 3733 0306 A8000000 		.4byte	.LVL14
 3734 030a AC000000 		.4byte	.LVL15
 3735 030e 0100     		.2byte	0x1
 3736 0310 53       		.byte	0x53
 3737 0311 8A010000 		.4byte	.LVL46
 3738 0315 90010000 		.4byte	.LVL47
 3739 0319 0100     		.2byte	0x1
 3740 031b 53       		.byte	0x53
 3741 031c 00000000 		.4byte	0
 3742 0320 00000000 		.4byte	0
 3743              	.LLST14:
 3744 0324 96010000 		.4byte	.LVL49
 3745 0328 98010000 		.4byte	.LVL50
 3746 032c 0100     		.2byte	0x1
 3747 032e 53       		.byte	0x53
 3748 032f 00000000 		.4byte	0
 3749 0333 00000000 		.4byte	0
 3750              	.LLST15:
 3751 0337 9C010000 		.4byte	.LVL51
 3752 033b A2010000 		.4byte	.LVL52
 3753 033f 0100     		.2byte	0x1
ARM GAS  C:\Users\TAISIK~1\AppData\Local\Temp\ccG4oTzW.s 			page 67


 3754 0341 53       		.byte	0x53
 3755 0342 00000000 		.4byte	0
 3756 0346 00000000 		.4byte	0
 3757              	.LLST16:
 3758 034a BA010000 		.4byte	.LVL53
 3759 034e C5010000 		.4byte	.LVL54-1
 3760 0352 0100     		.2byte	0x1
 3761 0354 53       		.byte	0x53
 3762 0355 00000000 		.4byte	0
 3763 0359 00000000 		.4byte	0
 3764              	.LLST17:
 3765 035d 32030000 		.4byte	.LVL77
 3766 0361 39030000 		.4byte	.LVL78-1
 3767 0365 0100     		.2byte	0x1
 3768 0367 53       		.byte	0x53
 3769 0368 00000000 		.4byte	0
 3770 036c 00000000 		.4byte	0
 3771              	.LLST18:
 3772 0370 40030000 		.4byte	.LVL80
 3773 0374 44030000 		.4byte	.LVL81
 3774 0378 0100     		.2byte	0x1
 3775 037a 53       		.byte	0x53
 3776 037b 00000000 		.4byte	0
 3777 037f 00000000 		.4byte	0
 3778              	.LLST19:
 3779 0383 5E030000 		.4byte	.LVL85
 3780 0387 6F030000 		.4byte	.LVL86-1
 3781 038b 0100     		.2byte	0x1
 3782 038d 53       		.byte	0x53
 3783 038e 00000000 		.4byte	0
 3784 0392 00000000 		.4byte	0
 3785              	.LLST20:
 3786 0396 A8000000 		.4byte	.LVL14
 3787 039a AC000000 		.4byte	.LVL15
 3788 039e 0100     		.2byte	0x1
 3789 03a0 53       		.byte	0x53
 3790 03a1 7A030000 		.4byte	.LVL88
 3791 03a5 84030000 		.4byte	.LVL89
 3792 03a9 0100     		.2byte	0x1
 3793 03ab 53       		.byte	0x53
 3794 03ac 00000000 		.4byte	0
 3795 03b0 00000000 		.4byte	0
 3796              	.LLST21:
 3797 03b4 8A030000 		.4byte	.LVL91
 3798 03b8 8C030000 		.4byte	.LVL92
 3799 03bc 0100     		.2byte	0x1
 3800 03be 53       		.byte	0x53
 3801 03bf 00000000 		.4byte	0
 3802 03c3 00000000 		.4byte	0
 3803              	.LLST22:
 3804 03c7 90030000 		.4byte	.LVL93
 3805 03cb 9F030000 		.4byte	.LVL94-1
 3806 03cf 0100     		.2byte	0x1
 3807 03d1 53       		.byte	0x53
 3808 03d2 00000000 		.4byte	0
 3809 03d6 00000000 		.4byte	0
 3810              	.LLST23:
ARM GAS  C:\Users\TAISIK~1\AppData\Local\Temp\ccG4oTzW.s 			page 68


 3811 03da AE030000 		.4byte	.LVL96
 3812 03de B0030000 		.4byte	.LVL97
 3813 03e2 0100     		.2byte	0x1
 3814 03e4 53       		.byte	0x53
 3815 03e5 00000000 		.4byte	0
 3816 03e9 00000000 		.4byte	0
 3817              	.LLST24:
 3818 03ed B4030000 		.4byte	.LVL98
 3819 03f1 C0030000 		.4byte	.LVL99
 3820 03f5 0100     		.2byte	0x1
 3821 03f7 53       		.byte	0x53
 3822 03f8 00000000 		.4byte	0
 3823 03fc 00000000 		.4byte	0
 3824              	.LLST25:
 3825 0400 D4030000 		.4byte	.LVL100
 3826 0404 D6030000 		.4byte	.LVL101
 3827 0408 0100     		.2byte	0x1
 3828 040a 53       		.byte	0x53
 3829 040b 00000000 		.4byte	0
 3830 040f 00000000 		.4byte	0
 3831              	.LLST26:
 3832 0413 DA030000 		.4byte	.LVL102
 3833 0417 E1030000 		.4byte	.LVL103-1
 3834 041b 0100     		.2byte	0x1
 3835 041d 53       		.byte	0x53
 3836 041e 00000000 		.4byte	0
 3837 0422 00000000 		.4byte	0
 3838              	.LLST27:
 3839 0426 5C040000 		.4byte	.LVL113
 3840 042a 69040000 		.4byte	.LVL115-1
 3841 042e 0100     		.2byte	0x1
 3842 0430 53       		.byte	0x53
 3843 0431 00000000 		.4byte	0
 3844 0435 00000000 		.4byte	0
 3845              	.LLST28:
 3846 0439 92040000 		.4byte	.LVL118
 3847 043d 9B040000 		.4byte	.LVL119-1
 3848 0441 0100     		.2byte	0x1
 3849 0443 53       		.byte	0x53
 3850 0444 00000000 		.4byte	0
 3851 0448 00000000 		.4byte	0
 3852              	.LLST29:
 3853 044c A2040000 		.4byte	.LVL121
 3854 0450 A4040000 		.4byte	.LVL122
 3855 0454 0100     		.2byte	0x1
 3856 0456 53       		.byte	0x53
 3857 0457 00000000 		.4byte	0
 3858 045b 00000000 		.4byte	0
 3859              	.LLST30:
 3860 045f D6040000 		.4byte	.LVL125
 3861 0463 DC040000 		.4byte	.LVL126
 3862 0467 0100     		.2byte	0x1
 3863 0469 53       		.byte	0x53
 3864 046a 00000000 		.4byte	0
 3865 046e 00000000 		.4byte	0
 3866              	.LLST31:
 3867 0472 A8000000 		.4byte	.LVL14
ARM GAS  C:\Users\TAISIK~1\AppData\Local\Temp\ccG4oTzW.s 			page 69


 3868 0476 AC000000 		.4byte	.LVL15
 3869 047a 0100     		.2byte	0x1
 3870 047c 53       		.byte	0x53
 3871 047d EE040000 		.4byte	.LVL127
 3872 0481 F6040000 		.4byte	.LVL128
 3873 0485 0100     		.2byte	0x1
 3874 0487 53       		.byte	0x53
 3875 0488 00000000 		.4byte	0
 3876 048c 00000000 		.4byte	0
 3877              	.LLST32:
 3878 0490 FA040000 		.4byte	.LVL129
 3879 0494 09050000 		.4byte	.LVL130-1
 3880 0498 0100     		.2byte	0x1
 3881 049a 53       		.byte	0x53
 3882 049b 00000000 		.4byte	0
 3883 049f 00000000 		.4byte	0
 3884              	.LLST33:
 3885 04a3 A8000000 		.4byte	.LVL14
 3886 04a7 AC000000 		.4byte	.LVL15
 3887 04ab 0100     		.2byte	0x1
 3888 04ad 53       		.byte	0x53
 3889 04ae 10050000 		.4byte	.LVL131
 3890 04b2 1C050000 		.4byte	.LVL132
 3891 04b6 0100     		.2byte	0x1
 3892 04b8 53       		.byte	0x53
 3893 04b9 00000000 		.4byte	0
 3894 04bd 00000000 		.4byte	0
 3895              	.LLST34:
 3896 04c1 34050000 		.4byte	.LVL134
 3897 04c5 3B050000 		.4byte	.LVL135-1
 3898 04c9 0100     		.2byte	0x1
 3899 04cb 53       		.byte	0x53
 3900 04cc 00000000 		.4byte	0
 3901 04d0 00000000 		.4byte	0
 3902              	.LLST35:
 3903 04d4 B4050000 		.4byte	.LVL145
 3904 04d8 B8050000 		.4byte	.LVL146
 3905 04dc 0100     		.2byte	0x1
 3906 04de 53       		.byte	0x53
 3907 04df 00000000 		.4byte	0
 3908 04e3 00000000 		.4byte	0
 3909              	.LLST36:
 3910 04e7 F0050000 		.4byte	.LVL150
 3911 04eb F9050000 		.4byte	.LVL151-1
 3912 04ef 0100     		.2byte	0x1
 3913 04f1 53       		.byte	0x53
 3914 04f2 00000000 		.4byte	0
 3915 04f6 00000000 		.4byte	0
 3916              	.LLST37:
 3917 04fa 00060000 		.4byte	.LVL153
 3918 04fe 02060000 		.4byte	.LVL154
 3919 0502 0100     		.2byte	0x1
 3920 0504 53       		.byte	0x53
 3921 0505 00000000 		.4byte	0
 3922 0509 00000000 		.4byte	0
 3923              	.LLST38:
 3924 050d 34060000 		.4byte	.LVL158
ARM GAS  C:\Users\TAISIK~1\AppData\Local\Temp\ccG4oTzW.s 			page 70


 3925 0511 45060000 		.4byte	.LVL159-1
 3926 0515 0100     		.2byte	0x1
 3927 0517 53       		.byte	0x53
 3928 0518 00000000 		.4byte	0
 3929 051c 00000000 		.4byte	0
 3930              	.LLST39:
 3931 0520 A8000000 		.4byte	.LVL14
 3932 0524 AC000000 		.4byte	.LVL15
 3933 0528 0100     		.2byte	0x1
 3934 052a 53       		.byte	0x53
 3935 052b 4C060000 		.4byte	.LVL160
 3936 052f 54060000 		.4byte	.LVL161
 3937 0533 0100     		.2byte	0x1
 3938 0535 53       		.byte	0x53
 3939 0536 00000000 		.4byte	0
 3940 053a 00000000 		.4byte	0
 3941              	.LLST40:
 3942 053e 58060000 		.4byte	.LVL162
 3943 0542 5A060000 		.4byte	.LVL163
 3944 0546 0100     		.2byte	0x1
 3945 0548 53       		.byte	0x53
 3946 0549 00000000 		.4byte	0
 3947 054d 00000000 		.4byte	0
 3948              	.LLST41:
 3949 0551 A8000000 		.4byte	.LVL14
 3950 0555 AC000000 		.4byte	.LVL15
 3951 0559 0100     		.2byte	0x1
 3952 055b 53       		.byte	0x53
 3953 055c 6E060000 		.4byte	.LVL164
 3954 0560 78060000 		.4byte	.LVL165
 3955 0564 0100     		.2byte	0x1
 3956 0566 53       		.byte	0x53
 3957 0567 00000000 		.4byte	0
 3958 056b 00000000 		.4byte	0
 3959              	.LLST42:
 3960 056f 98060000 		.4byte	.LVL167
 3961 0573 A9060000 		.4byte	.LVL168-1
 3962 0577 0100     		.2byte	0x1
 3963 0579 53       		.byte	0x53
 3964 057a 00000000 		.4byte	0
 3965 057e 00000000 		.4byte	0
 3966              	.LLST43:
 3967 0582 A8000000 		.4byte	.LVL14
 3968 0586 AC000000 		.4byte	.LVL15
 3969 058a 0100     		.2byte	0x1
 3970 058c 53       		.byte	0x53
 3971 058d B0060000 		.4byte	.LVL169
 3972 0591 B8060000 		.4byte	.LVL170
 3973 0595 0100     		.2byte	0x1
 3974 0597 53       		.byte	0x53
 3975 0598 00000000 		.4byte	0
 3976 059c 00000000 		.4byte	0
 3977              	.LLST44:
 3978 05a0 BC060000 		.4byte	.LVL171
 3979 05a4 BE060000 		.4byte	.LVL172
 3980 05a8 0100     		.2byte	0x1
 3981 05aa 53       		.byte	0x53
ARM GAS  C:\Users\TAISIK~1\AppData\Local\Temp\ccG4oTzW.s 			page 71


 3982 05ab 00000000 		.4byte	0
 3983 05af 00000000 		.4byte	0
 3984              	.LLST45:
 3985 05b3 A8000000 		.4byte	.LVL14
 3986 05b7 AC000000 		.4byte	.LVL15
 3987 05bb 0100     		.2byte	0x1
 3988 05bd 53       		.byte	0x53
 3989 05be D2060000 		.4byte	.LVL173
 3990 05c2 DA060000 		.4byte	.LVL174
 3991 05c6 0100     		.2byte	0x1
 3992 05c8 53       		.byte	0x53
 3993 05c9 00000000 		.4byte	0
 3994 05cd 00000000 		.4byte	0
 3995              	.LLST46:
 3996 05d1 DE060000 		.4byte	.LVL175
 3997 05d5 F3060000 		.4byte	.LVL176-1
 3998 05d9 0100     		.2byte	0x1
 3999 05db 53       		.byte	0x53
 4000 05dc 00000000 		.4byte	0
 4001 05e0 00000000 		.4byte	0
 4002              	.LLST47:
 4003 05e4 A8000000 		.4byte	.LVL14
 4004 05e8 AC000000 		.4byte	.LVL15
 4005 05ec 0100     		.2byte	0x1
 4006 05ee 53       		.byte	0x53
 4007 05ef FA060000 		.4byte	.LVL177
 4008 05f3 02070000 		.4byte	.LVL178
 4009 05f7 0100     		.2byte	0x1
 4010 05f9 53       		.byte	0x53
 4011 05fa 00000000 		.4byte	0
 4012 05fe 00000000 		.4byte	0
 4013              	.LLST48:
 4014 0602 06070000 		.4byte	.LVL179
 4015 0606 0C070000 		.4byte	.LVL180
 4016 060a 0100     		.2byte	0x1
 4017 060c 53       		.byte	0x53
 4018 060d 00000000 		.4byte	0
 4019 0611 00000000 		.4byte	0
 4020              		.section	.debug_aranges,"",%progbits
 4021 0000 24000000 		.4byte	0x24
 4022 0004 0200     		.2byte	0x2
 4023 0006 00000000 		.4byte	.Ldebug_info0
 4024 000a 04       		.byte	0x4
 4025 000b 00       		.byte	0
 4026 000c 0000     		.2byte	0
 4027 000e 0000     		.2byte	0
 4028 0010 00000000 		.4byte	.LFB7
 4029 0014 16000000 		.4byte	.LFE7-.LFB7
 4030 0018 00000000 		.4byte	.LFB8
 4031 001c 24070000 		.4byte	.LFE8-.LFB8
 4032 0020 00000000 		.4byte	0
 4033 0024 00000000 		.4byte	0
 4034              		.section	.debug_ranges,"",%progbits
 4035              	.Ldebug_ranges0:
 4036 0000 00000000 		.4byte	.LFB7
 4037 0004 16000000 		.4byte	.LFE7
 4038 0008 00000000 		.4byte	.LFB8
ARM GAS  C:\Users\TAISIK~1\AppData\Local\Temp\ccG4oTzW.s 			page 72


 4039 000c 24070000 		.4byte	.LFE8
 4040 0010 00000000 		.4byte	0
 4041 0014 00000000 		.4byte	0
 4042              		.section	.debug_line,"",%progbits
 4043              	.Ldebug_line0:
 4044 0000 07020000 		.section	.debug_str,"MS",%progbits,1
 4044      02004D01 
 4044      00000201 
 4044      FB0E0D00 
 4044      01010101 
 4045              	.LASF38:
 4046 0000 705F6D73 		.ascii	"p_msg\000"
 4046      6700
 4047              	.LASF63:
 4048 0006 7264796D 		.ascii	"rdymsg\000"
 4048      736700
 4049              	.LASF11:
 4050 000d 75696E74 		.ascii	"uint64_t\000"
 4050      36345F74 
 4050      00
 4051              	.LASF62:
 4052 0016 4D61696C 		.ascii	"Mailbox\000"
 4052      626F7800 
 4053              	.LASF79:
 4054 001e 474E5520 		.ascii	"GNU C 4.6.2 20121016 (release) [ARM/embedded-4_6-br"
 4054      4320342E 
 4054      362E3220 
 4054      32303132 
 4054      31303136 
 4055 0051 616E6368 		.ascii	"anch revision 192487]\000"
 4055      20726576 
 4055      6973696F 
 4055      6E203139 
 4055      32343837 
 4056              	.LASF12:
 4057 0067 6C6F6E67 		.ascii	"long long unsigned int\000"
 4057      206C6F6E 
 4057      6720756E 
 4057      7369676E 
 4057      65642069 
 4058              	.LASF78:
 4059 007e 70617474 		.ascii	"patternmbox\000"
 4059      65726E6D 
 4059      626F7800 
 4060              	.LASF64:
 4061 008a 65786974 		.ascii	"exitcode\000"
 4061      636F6465 
 4061      00
 4062              	.LASF76:
 4063 0093 74657374 		.ascii	"test\000"
 4063      00
 4064              	.LASF58:
 4065 0098 6D625F77 		.ascii	"mb_wrptr\000"
 4065      72707472 
 4065      00
 4066              	.LASF26:
 4067 00a1 705F7072 		.ascii	"p_prio\000"
ARM GAS  C:\Users\TAISIK~1\AppData\Local\Temp\ccG4oTzW.s 			page 73


 4067      696F00
 4068              	.LASF81:
 4069 00a8 433A5C43 		.ascii	"C:\\ChibiStudio\\chibios\\demos\\ARMCM4-STM32F303-D"
 4069      68696269 
 4069      53747564 
 4069      696F5C63 
 4069      68696269 
 4070 00d7 4953434F 		.ascii	"ISCOVERY\000"
 4070      56455259 
 4070      00
 4071              	.LASF10:
 4072 00e0 6C6F6E67 		.ascii	"long long int\000"
 4072      206C6F6E 
 4072      6720696E 
 4072      7400
 4073              	.LASF1:
 4074 00ee 7369676E 		.ascii	"signed char\000"
 4074      65642063 
 4074      68617200 
 4075              	.LASF42:
 4076 00fa 705F6D70 		.ascii	"p_mpool\000"
 4076      6F6F6C00 
 4077              	.LASF31:
 4078 0102 705F7374 		.ascii	"p_state\000"
 4078      61746500 
 4079              	.LASF17:
 4080 010a 74736C69 		.ascii	"tslices_t\000"
 4080      6365735F 
 4080      7400
 4081              	.LASF7:
 4082 0114 6C6F6E67 		.ascii	"long int\000"
 4082      20696E74 
 4082      00
 4083              	.LASF15:
 4084 011d 74737461 		.ascii	"tstate_t\000"
 4084      74655F74 
 4084      00
 4085              	.LASF28:
 4086 0126 705F6E65 		.ascii	"p_newer\000"
 4086      77657200 
 4087              	.LASF50:
 4088 012e 735F7175 		.ascii	"s_queue\000"
 4088      65756500 
 4089              	.LASF45:
 4090 0136 72656761 		.ascii	"regarm_t\000"
 4090      726D5F74 
 4090      00
 4091              	.LASF22:
 4092 013f 636E745F 		.ascii	"cnt_t\000"
 4092      7400
 4093              	.LASF0:
 4094 0145 756E7369 		.ascii	"unsigned int\000"
 4094      676E6564 
 4094      20696E74 
 4094      00
 4095              	.LASF74:
 4096 0152 6D736731 		.ascii	"msg1\000"
ARM GAS  C:\Users\TAISIK~1\AppData\Local\Temp\ccG4oTzW.s 			page 74


 4096      00
 4097              	.LASF75:
 4098 0157 6D736732 		.ascii	"msg2\000"
 4098      00
 4099              	.LASF9:
 4100 015c 6C6F6E67 		.ascii	"long unsigned int\000"
 4100      20756E73 
 4100      69676E65 
 4100      6420696E 
 4100      7400
 4101              	.LASF71:
 4102 016e 74656172 		.ascii	"teardown\000"
 4102      646F776E 
 4102      00
 4103              	.LASF61:
 4104 0177 6D625F65 		.ascii	"mb_emptysem\000"
 4104      6D707479 
 4104      73656D00 
 4105              	.LASF69:
 4106 0183 6E616D65 		.ascii	"name\000"
 4106      00
 4107              	.LASF51:
 4108 0188 735F636E 		.ascii	"s_cnt\000"
 4108      7400
 4109              	.LASF48:
 4110 018e 636F6E74 		.ascii	"context\000"
 4110      65787400 
 4111              	.LASF4:
 4112 0196 73686F72 		.ascii	"short unsigned int\000"
 4112      7420756E 
 4112      7369676E 
 4112      65642069 
 4112      6E7400
 4113              	.LASF19:
 4114 01a9 6D73675F 		.ascii	"msg_t\000"
 4114      7400
 4115              	.LASF14:
 4116 01af 746D6F64 		.ascii	"tmode_t\000"
 4116      655F7400 
 4117              	.LASF84:
 4118 01b7 6D626F78 		.ascii	"mbox1_setup\000"
 4118      315F7365 
 4118      74757000 
 4119              	.LASF44:
 4120 01c3 54687265 		.ascii	"ThreadsList\000"
 4120      6164734C 
 4120      69737400 
 4121              	.LASF20:
 4122 01cf 6576656E 		.ascii	"eventmask_t\000"
 4122      746D6173 
 4122      6B5F7400 
 4123              	.LASF52:
 4124 01db 4D757465 		.ascii	"Mutex\000"
 4124      7800
 4125              	.LASF77:
 4126 01e1 74657374 		.ascii	"testmbox1\000"
 4126      6D626F78 
ARM GAS  C:\Users\TAISIK~1\AppData\Local\Temp\ccG4oTzW.s 			page 75


 4126      3100
 4127              	.LASF46:
 4128 01eb 73746B61 		.ascii	"stkalign_t\000"
 4128      6C69676E 
 4128      5F7400
 4129              	.LASF59:
 4130 01f6 6D625F72 		.ascii	"mb_rdptr\000"
 4130      64707472 
 4130      00
 4131              	.LASF29:
 4132 01ff 705F6F6C 		.ascii	"p_older\000"
 4132      64657200 
 4133              	.LASF43:
 4134 0207 54687265 		.ascii	"ThreadsQueue\000"
 4134      61647351 
 4134      75657565 
 4134      00
 4135              	.LASF70:
 4136 0214 73657475 		.ascii	"setup\000"
 4136      7000
 4137              	.LASF56:
 4138 021a 6D625F62 		.ascii	"mb_buffer\000"
 4138      75666665 
 4138      7200
 4139              	.LASF83:
 4140 0224 6D626F78 		.ascii	"mbox1_execute\000"
 4140      315F6578 
 4140      65637574 
 4140      6500
 4141              	.LASF16:
 4142 0232 74726566 		.ascii	"trefs_t\000"
 4142      735F7400 
 4143              	.LASF25:
 4144 023a 705F7072 		.ascii	"p_prev\000"
 4144      657600
 4145              	.LASF72:
 4146 0241 65786563 		.ascii	"execute\000"
 4146      75746500 
 4147              	.LASF18:
 4148 0249 74707269 		.ascii	"tprio_t\000"
 4148      6F5F7400 
 4149              	.LASF13:
 4150 0251 5F426F6F 		.ascii	"_Bool\000"
 4150      6C00
 4151              	.LASF6:
 4152 0257 696E7433 		.ascii	"int32_t\000"
 4152      325F7400 
 4153              	.LASF2:
 4154 025f 756E7369 		.ascii	"unsigned char\000"
 4154      676E6564 
 4154      20636861 
 4154      7200
 4155              	.LASF53:
 4156 026d 6D5F7175 		.ascii	"m_queue\000"
 4156      65756500 
 4157              	.LASF57:
 4158 0275 6D625F74 		.ascii	"mb_top\000"
ARM GAS  C:\Users\TAISIK~1\AppData\Local\Temp\ccG4oTzW.s 			page 76


 4158      6F7000
 4159              	.LASF40:
 4160 027c 705F6D74 		.ascii	"p_mtxlist\000"
 4160      786C6973 
 4160      7400
 4161              	.LASF3:
 4162 0286 73686F72 		.ascii	"short int\000"
 4162      7420696E 
 4162      7400
 4163              	.LASF80:
 4164 0290 2E2E2F2E 		.ascii	"../../test/testmbox.c\000"
 4164      2E2F7465 
 4164      73742F74 
 4164      6573746D 
 4164      626F782E 
 4165              	.LASF34:
 4166 02a6 705F7072 		.ascii	"p_preempt\000"
 4166      65656D70 
 4166      7400
 4167              	.LASF66:
 4168 02b0 65776D61 		.ascii	"ewmask\000"
 4168      736B00
 4169              	.LASF24:
 4170 02b7 705F6E65 		.ascii	"p_next\000"
 4170      787400
 4171              	.LASF32:
 4172 02be 705F666C 		.ascii	"p_flags\000"
 4172      61677300 
 4173              	.LASF23:
 4174 02c6 54687265 		.ascii	"Thread\000"
 4174      616400
 4175              	.LASF68:
 4176 02cd 74657374 		.ascii	"testcase\000"
 4176      63617365 
 4176      00
 4177              	.LASF39:
 4178 02d6 705F6570 		.ascii	"p_epending\000"
 4178      656E6469 
 4178      6E6700
 4179              	.LASF8:
 4180 02e1 75696E74 		.ascii	"uint32_t\000"
 4180      33325F74 
 4180      00
 4181              	.LASF67:
 4182 02ea 63686172 		.ascii	"char\000"
 4182      00
 4183              	.LASF55:
 4184 02ef 6D5F6E65 		.ascii	"m_next\000"
 4184      787400
 4185              	.LASF21:
 4186 02f6 73797374 		.ascii	"systime_t\000"
 4186      696D655F 
 4186      7400
 4187              	.LASF41:
 4188 0300 705F7265 		.ascii	"p_realprio\000"
 4188      616C7072 
 4188      696F00
ARM GAS  C:\Users\TAISIK~1\AppData\Local\Temp\ccG4oTzW.s 			page 77


 4189              	.LASF73:
 4190 030b 62756666 		.ascii	"buffer\000"
 4190      657200
 4191              	.LASF35:
 4192 0312 705F7469 		.ascii	"p_time\000"
 4192      6D6500
 4193              	.LASF47:
 4194 0319 696E7463 		.ascii	"intctx\000"
 4194      747800
 4195              	.LASF37:
 4196 0320 705F6D73 		.ascii	"p_msgqueue\000"
 4196      67717565 
 4196      756500
 4197              	.LASF49:
 4198 032b 53656D61 		.ascii	"Semaphore\000"
 4198      70686F72 
 4198      6500
 4199              	.LASF60:
 4200 0335 6D625F66 		.ascii	"mb_fullsem\000"
 4200      756C6C73 
 4200      656D00
 4201              	.LASF82:
 4202 0340 74657374 		.ascii	"test_buffers\000"
 4202      5F627566 
 4202      66657273 
 4202      00
 4203              	.LASF33:
 4204 034d 705F7265 		.ascii	"p_refs\000"
 4204      667300
 4205              	.LASF5:
 4206 0354 75696E74 		.ascii	"uint8_t\000"
 4206      385F7400 
 4207              	.LASF65:
 4208 035c 77746F62 		.ascii	"wtobjp\000"
 4208      6A7000
 4209              	.LASF30:
 4210 0363 705F6E61 		.ascii	"p_name\000"
 4210      6D6500
 4211              	.LASF54:
 4212 036a 6D5F6F77 		.ascii	"m_owner\000"
 4212      6E657200 
 4213              	.LASF27:
 4214 0372 705F6374 		.ascii	"p_ctx\000"
 4214      7800
 4215              	.LASF36:
 4216 0378 705F7761 		.ascii	"p_waiting\000"
 4216      6974696E 
 4216      6700
 4217              		.ident	"GCC: (GNU Tools for ARM Embedded Processors) 4.6.2 20121016 (release) [ARM/embedded-4_6-br
ARM GAS  C:\Users\TAISIK~1\AppData\Local\Temp\ccG4oTzW.s 			page 78


DEFINED SYMBOLS
                            *ABS*:00000000 testmbox.c
C:\Users\TAISIK~1\AppData\Local\Temp\ccG4oTzW.s:19     .text.mbox1_setup:00000000 $t
C:\Users\TAISIK~1\AppData\Local\Temp\ccG4oTzW.s:24     .text.mbox1_setup:00000000 mbox1_setup
C:\Users\TAISIK~1\AppData\Local\Temp\ccG4oTzW.s:1248   .data.mb1:00000000 .LANCHOR0
C:\Users\TAISIK~1\AppData\Local\Temp\ccG4oTzW.s:45     .text.mbox1_execute:00000000 $t
C:\Users\TAISIK~1\AppData\Local\Temp\ccG4oTzW.s:50     .text.mbox1_execute:00000000 mbox1_execute
C:\Users\TAISIK~1\AppData\Local\Temp\ccG4oTzW.s:339    .text.mbox1_execute:0000018c $d
C:\Users\TAISIK~1\AppData\Local\Temp\ccG4oTzW.s:345    .text.mbox1_execute:00000190 $t
C:\Users\TAISIK~1\AppData\Local\Temp\ccG4oTzW.s:620    .text.mbox1_execute:0000037c $d
C:\Users\TAISIK~1\AppData\Local\Temp\ccG4oTzW.s:627    .text.mbox1_execute:00000384 $t
C:\Users\TAISIK~1\AppData\Local\Temp\ccG4oTzW.s:1237   .text.mbox1_execute:0000071c $d
C:\Users\TAISIK~1\AppData\Local\Temp\ccG4oTzW.s:1266   .rodata.patternmbox:00000000 patternmbox
C:\Users\TAISIK~1\AppData\Local\Temp\ccG4oTzW.s:1280   .rodata.testmbox1:00000000 testmbox1
C:\Users\TAISIK~1\AppData\Local\Temp\ccG4oTzW.s:1247   .data.mb1:00000000 $d
C:\Users\TAISIK~1\AppData\Local\Temp\ccG4oTzW.s:1251   .data.mb1:00000000 mb1
C:\Users\TAISIK~1\AppData\Local\Temp\ccG4oTzW.s:1263   .rodata.patternmbox:00000000 $d
C:\Users\TAISIK~1\AppData\Local\Temp\ccG4oTzW.s:1270   .rodata.str1.4:00000000 $d
C:\Users\TAISIK~1\AppData\Local\Temp\ccG4oTzW.s:1277   .rodata.testmbox1:00000000 $d
                     .debug_frame:00000010 $d
C:\Users\TAISIK~1\AppData\Local\Temp\ccG4oTzW.s:1246   .text.mbox1_execute:00000724 $t

UNDEFINED SYMBOLS
test
chMBInit
_test_assert
chMBPost
chMBPostAhead
chMBPostI
chMBPostAheadI
chMBFetch
test_emit_token
_test_assert_sequence
chMBFetchI
chMBReset
