ARM GAS  C:\Users\TAISIK~1\AppData\Local\Temp\ccF9Wo1R.s 			page 1


   1              		.syntax unified
   2              		.cpu cortex-m4
   3              		.fpu softvfp
   4              		.eabi_attribute 20, 1
   5              		.eabi_attribute 21, 1
   6              		.eabi_attribute 23, 3
   7              		.eabi_attribute 24, 1
   8              		.eabi_attribute 25, 1
   9              		.eabi_attribute 26, 1
  10              		.eabi_attribute 30, 2
  11              		.eabi_attribute 34, 1
  12              		.eabi_attribute 18, 4
  13              		.thumb
  14              		.file	"test.c"
  15              		.text
  16              	.Ltext0:
  17              		.cfi_sections	.debug_frame
  18              		.section	.text.tmr,"ax",%progbits
  19              		.align	2
  20              		.p2align 4,,15
  21              		.thumb
  22              		.thumb_func
  23              		.type	tmr, %function
  24              	tmr:
  25              	.LFB132:
  26              		.file 1 "../../test/test.c"
  27              		.loc 1 265 0
  28              		.cfi_startproc
  29              		@ args = 0, pretend = 0, frame = 0
  30              		@ frame_needed = 0, uses_anonymous_args = 0
  31              		@ link register save eliminated.
  32              	.LVL0:
  33              		.loc 1 268 0
  34 0000 40F20003 		movw	r3, #:lower16:.LANCHOR0
  35 0004 C0F20003 		movt	r3, #:upper16:.LANCHOR0
  36 0008 0122     		movs	r2, #1
  37 000a 1A70     		strb	r2, [r3, #0]
  38              		.loc 1 269 0
  39 000c 7047     		bx	lr
  40              		.cfi_endproc
  41              	.LFE132:
  42              		.size	tmr, .-tmr
  43 000e 00BF     		.section	.text.print_line,"ax",%progbits
  44              		.align	2
  45              		.p2align 4,,15
  46              		.thumb
  47              		.thumb_func
  48              		.type	print_line, %function
  49              	print_line:
  50              	.LFB135:
  51              		.loc 1 304 0
  52              		.cfi_startproc
  53              		@ args = 0, pretend = 0, frame = 0
  54              		@ frame_needed = 0, uses_anonymous_args = 0
  55              	.LVL1:
  56 0000 38B5     		push	{r3, r4, r5, lr}
  57              	.LCFI0:
ARM GAS  C:\Users\TAISIK~1\AppData\Local\Temp\ccF9Wo1R.s 			page 2


  58              		.cfi_def_cfa_offset 16
  59              		.cfi_offset 14, -4
  60              		.cfi_offset 5, -8
  61              		.cfi_offset 4, -12
  62              		.cfi_offset 3, -16
  63 0002 0B4D     		ldr	r5, .L7
  64              		.loc 1 304 0
  65 0004 4C24     		movs	r4, #76
  66              	.LVL2:
  67              	.L3:
  68              		.loc 1 308 0 discriminator 2
  69 0006 2868     		ldr	r0, [r5, #0]
  70 0008 0368     		ldr	r3, [r0, #0]
  71 000a 2D21     		movs	r1, #45
  72 000c 9A68     		ldr	r2, [r3, #8]
  73 000e 9047     		blx	r2
  74 0010 2868     		ldr	r0, [r5, #0]
  75 0012 0168     		ldr	r1, [r0, #0]
  76 0014 013C     		subs	r4, r4, #1
  77 0016 8B68     		ldr	r3, [r1, #8]
  78 0018 2D21     		movs	r1, #45
  79 001a 9847     		blx	r3
  80              		.loc 1 307 0 discriminator 2
  81 001c 013C     		subs	r4, r4, #1
  82 001e F2D1     		bne	.L3
  83              		.loc 1 309 0
  84 0020 0348     		ldr	r0, .L7
  85 0022 0068     		ldr	r0, [r0, #0]
  86 0024 0168     		ldr	r1, [r0, #0]
  87 0026 0222     		movs	r2, #2
  88 0028 0B68     		ldr	r3, [r1, #0]
  89 002a 0249     		ldr	r1, .L7+4
  90 002c 9847     		blx	r3
  91              		.loc 1 310 0
  92 002e 38BD     		pop	{r3, r4, r5, pc}
  93              	.L8:
  94              		.align	2
  95              	.L7:
  96 0030 00000000 		.word	.LANCHOR1
  97 0034 00000000 		.word	.LC0
  98              		.cfi_endproc
  99              	.LFE135:
 100              		.size	print_line, .-print_line
 101 0038 AFF30080 		.section	.text.test_printn,"ax",%progbits
 101      AFF30080 
 102              		.align	2
 103              		.p2align 4,,15
 104              		.global	test_printn
 105              		.thumb
 106              		.thumb_func
 107              		.type	test_printn, %function
 108              	test_printn:
 109              	.LFB118:
 110              		.loc 1 95 0
 111              		.cfi_startproc
 112              		@ args = 0, pretend = 0, frame = 16
 113              		@ frame_needed = 0, uses_anonymous_args = 0
ARM GAS  C:\Users\TAISIK~1\AppData\Local\Temp\ccF9Wo1R.s 			page 3


 114              	.LVL3:
 115 0000 F0B5     		push	{r4, r5, r6, r7, lr}
 116              	.LCFI1:
 117              		.cfi_def_cfa_offset 20
 118              		.cfi_offset 14, -4
 119              		.cfi_offset 7, -8
 120              		.cfi_offset 6, -12
 121              		.cfi_offset 5, -16
 122              		.cfi_offset 4, -20
 123 0002 85B0     		sub	sp, sp, #20
 124              	.LCFI2:
 125              		.cfi_def_cfa_offset 40
 126              		.loc 1 98 0
 127 0004 0028     		cmp	r0, #0
 128 0006 37D0     		beq	.L20
 129              		.loc 1 103 0
 130 0008 4CF6CD42 		movw	r2, #52429
 131              	.LBB24:
 132              	.LBB25:
 133              		.loc 1 101 0
 134 000c 6F46     		mov	r7, sp
 135              	.LBE25:
 136              	.LBE24:
 137              		.loc 1 98 0
 138 000e 6C46     		mov	r4, sp
 139              		.loc 1 103 0
 140 0010 CCF6CC42 		movt	r2, 52428
 141              	.LVL4:
 142              	.L12:
 143 0014 A2FB0013 		umull	r1, r3, r2, r0
 144 0018 DB08     		lsrs	r3, r3, #3
 145 001a 03EB830C 		add	ip, r3, r3, lsl #2
 146 001e A0EB4C01 		sub	r1, r0, ip, lsl #1
 147 0022 3031     		adds	r1, r1, #48
 148 0024 C9B2     		uxtb	r1, r1
 149              		.loc 1 102 0
 150 0026 1846     		mov	r0, r3
 151              		.loc 1 103 0
 152 0028 04F8011B 		strb	r1, [r4], #1
 153              	.LVL5:
 154              		.loc 1 102 0
 155 002c 002B     		cmp	r3, #0
 156 002e F1D1     		bne	.L12
 157              		.loc 1 104 0
 158 0030 BC42     		cmp	r4, r7
 159 0032 1FD9     		bls	.L9
 160              		.loc 1 95 0
 161 0034 013C     		subs	r4, r4, #1
 162              	.LVL6:
 163 0036 E307     		lsls	r3, r4, #31
 164              	.LVL7:
 165 0038 134E     		ldr	r6, .L22
 166 003a 15D5     		bpl	.L13
 167              		.loc 1 105 0
 168 003c 3068     		ldr	r0, [r6, #0]
 169              	.LVL8:
 170 003e 0368     		ldr	r3, [r0, #0]
ARM GAS  C:\Users\TAISIK~1\AppData\Local\Temp\ccF9Wo1R.s 			page 4


 171 0040 9A68     		ldr	r2, [r3, #8]
 172 0042 9047     		blx	r2
 173 0044 3068     		ldr	r0, [r6, #0]
 174              		.loc 1 104 0
 175 0046 14F8011D 		ldrb	r1, [r4, #-1]!	@ zero_extendqisi2
 176              		.loc 1 105 0
 177 004a 0368     		ldr	r3, [r0, #0]
 178 004c 9A68     		ldr	r2, [r3, #8]
 179 004e 9047     		blx	r2
 180              		.loc 1 104 0
 181 0050 BC42     		cmp	r4, r7
 182 0052 0FD0     		beq	.L9
 183              	.L21:
 184              		.loc 1 105 0
 185 0054 3068     		ldr	r0, [r6, #0]
 186              		.loc 1 104 0
 187 0056 14F8011C 		ldrb	r1, [r4, #-1]	@ zero_extendqisi2
 188              		.loc 1 105 0
 189 005a 0368     		ldr	r3, [r0, #0]
 190              		.loc 1 104 0
 191 005c 651E     		subs	r5, r4, #1
 192              		.loc 1 105 0
 193 005e 9A68     		ldr	r2, [r3, #8]
 194 0060 9047     		blx	r2
 195              		.loc 1 104 0
 196 0062 15F8011C 		ldrb	r1, [r5, #-1]	@ zero_extendqisi2
 197 0066 023C     		subs	r4, r4, #2
 198              	.L13:
 199              		.loc 1 105 0
 200 0068 3068     		ldr	r0, [r6, #0]
 201 006a 0368     		ldr	r3, [r0, #0]
 202 006c 9A68     		ldr	r2, [r3, #8]
 203 006e 9047     		blx	r2
 204              		.loc 1 104 0
 205 0070 BC42     		cmp	r4, r7
 206 0072 EFD1     		bne	.L21
 207              	.L9:
 208              		.loc 1 107 0
 209 0074 05B0     		add	sp, sp, #20
 210 0076 F0BD     		pop	{r4, r5, r6, r7, pc}
 211              	.LVL9:
 212              	.L20:
 213              	.LBB27:
 214              	.LBB26:
 215              		.loc 1 99 0
 216 0078 0348     		ldr	r0, .L22
 217              	.LVL10:
 218 007a 0068     		ldr	r0, [r0, #0]
 219 007c 0168     		ldr	r1, [r0, #0]
 220 007e 8B68     		ldr	r3, [r1, #8]
 221 0080 3021     		movs	r1, #48
 222 0082 9847     		blx	r3
 223 0084 F6E7     		b	.L9
 224              	.L23:
 225 0086 00BF     		.align	2
 226              	.L22:
 227 0088 00000000 		.word	.LANCHOR1
ARM GAS  C:\Users\TAISIK~1\AppData\Local\Temp\ccF9Wo1R.s 			page 5


 228              	.LBE26:
 229              	.LBE27:
 230              		.cfi_endproc
 231              	.LFE118:
 232              		.size	test_printn, .-test_printn
 233 008c AFF30080 		.section	.text.test_print,"ax",%progbits
 234              		.align	2
 235              		.p2align 4,,15
 236              		.global	test_print
 237              		.thumb
 238              		.thumb_func
 239              		.type	test_print, %function
 240              	test_print:
 241              	.LFB119:
 242              		.loc 1 114 0
 243              		.cfi_startproc
 244              		@ args = 0, pretend = 0, frame = 0
 245              		@ frame_needed = 0, uses_anonymous_args = 0
 246              	.LVL11:
 247 0000 38B5     		push	{r3, r4, r5, lr}
 248              	.LCFI3:
 249              		.cfi_def_cfa_offset 16
 250              		.cfi_offset 14, -4
 251              		.cfi_offset 5, -8
 252              		.cfi_offset 4, -12
 253              		.cfi_offset 3, -16
 254              		.loc 1 116 0
 255 0002 0178     		ldrb	r1, [r0, #0]	@ zero_extendqisi2
 256 0004 49B1     		cbz	r1, .L24
 257 0006 054D     		ldr	r5, .L28
 258 0008 0446     		mov	r4, r0
 259              	.LVL12:
 260              	.L26:
 261              		.loc 1 117 0
 262 000a 2868     		ldr	r0, [r5, #0]
 263 000c 0268     		ldr	r2, [r0, #0]
 264 000e 9368     		ldr	r3, [r2, #8]
 265 0010 9847     		blx	r3
 266              		.loc 1 116 0
 267 0012 14F8011F 		ldrb	r1, [r4, #1]!	@ zero_extendqisi2
 268 0016 0029     		cmp	r1, #0
 269 0018 F7D1     		bne	.L26
 270              	.L24:
 271 001a 38BD     		pop	{r3, r4, r5, pc}
 272              	.L29:
 273              		.align	2
 274              	.L28:
 275 001c 00000000 		.word	.LANCHOR1
 276              		.cfi_endproc
 277              	.LFE119:
 278              		.size	test_print, .-test_print
 279              		.section	.text.test_println,"ax",%progbits
 280              		.align	2
 281              		.p2align 4,,15
 282              		.global	test_println
 283              		.thumb
 284              		.thumb_func
ARM GAS  C:\Users\TAISIK~1\AppData\Local\Temp\ccF9Wo1R.s 			page 6


 285              		.type	test_println, %function
 286              	test_println:
 287              	.LFB120:
 288              		.loc 1 125 0
 289              		.cfi_startproc
 290              		@ args = 0, pretend = 0, frame = 0
 291              		@ frame_needed = 0, uses_anonymous_args = 0
 292              	.LVL13:
 293 0000 08B5     		push	{r3, lr}
 294              	.LCFI4:
 295              		.cfi_def_cfa_offset 8
 296              		.cfi_offset 14, -4
 297              		.cfi_offset 3, -8
 298              		.loc 1 127 0
 299 0002 FFF7FEFF 		bl	test_print
 300              	.LVL14:
 301              		.loc 1 128 0
 302 0006 40F20000 		movw	r0, #:lower16:.LANCHOR1
 303 000a C0F20000 		movt	r0, #:upper16:.LANCHOR1
 304 000e 40F20001 		movw	r1, #:lower16:.LC0
 305 0012 0068     		ldr	r0, [r0, #0]
 306 0014 0268     		ldr	r2, [r0, #0]
 307 0016 C0F20001 		movt	r1, #:upper16:.LC0
 308 001a 1368     		ldr	r3, [r2, #0]
 309 001c 0222     		movs	r2, #2
 310 001e 9847     		blx	r3
 311              		.loc 1 129 0
 312 0020 08BD     		pop	{r3, pc}
 313              		.cfi_endproc
 314              	.LFE120:
 315              		.size	test_println, .-test_println
 316 0022 00BFAFF3 		.section	.text.test_emit_token,"ax",%progbits
 316      0080AFF3 
 316      0080AFF3 
 316      0080
 317              		.align	2
 318              		.p2align 4,,15
 319              		.global	test_emit_token
 320              		.thumb
 321              		.thumb_func
 322              		.type	test_emit_token, %function
 323              	test_emit_token:
 324              	.LFB123:
 325              		.loc 1 151 0
 326              		.cfi_startproc
 327              		@ args = 0, pretend = 0, frame = 0
 328              		@ frame_needed = 0, uses_anonymous_args = 0
 329              		@ link register save eliminated.
 330              	.LVL15:
 331              	.LBB28:
 332              		.loc 1 153 0
 333 0000 2023     		movs	r3, #32
 334              	.LVL16:
 335              	@ 153 "../../test/test.c" 1
 336 0002 83F31188 		msr     BASEPRI, r3
 337              	@ 0 "" 2
 338              	.LVL17:
ARM GAS  C:\Users\TAISIK~1\AppData\Local\Temp\ccF9Wo1R.s 			page 7


 339              		.thumb
 340              	.LBE28:
 341              		.loc 1 154 0
 342 0006 40F20002 		movw	r2, #:lower16:.LANCHOR2
 343 000a C0F20002 		movt	r2, #:upper16:.LANCHOR2
 344              	.LBB29:
 345              		.loc 1 155 0
 346 000e 0023     		movs	r3, #0
 347              	.LVL18:
 348              	.LBE29:
 349              		.loc 1 154 0
 350 0010 1168     		ldr	r1, [r2, #0]
 351 0012 01F8010B 		strb	r0, [r1], #1
 352 0016 1160     		str	r1, [r2, #0]
 353              	.LBB30:
 354              		.loc 1 155 0
 355              	@ 155 "../../test/test.c" 1
 356 0018 83F31188 		msr     BASEPRI, r3
 357              	@ 0 "" 2
 358              	.LVL19:
 359              		.thumb
 360              	.LBE30:
 361              		.loc 1 156 0
 362 001c 7047     		bx	lr
 363              		.cfi_endproc
 364              	.LFE123:
 365              		.size	test_emit_token, .-test_emit_token
 366 001e 00BF     		.section	.text._test_fail,"ax",%progbits
 367              		.align	2
 368              		.p2align 4,,15
 369              		.global	_test_fail
 370              		.thumb
 371              		.thumb_func
 372              		.type	_test_fail, %function
 373              	_test_fail:
 374              	.LFB124:
 375              		.loc 1 161 0
 376              		.cfi_startproc
 377              		@ args = 0, pretend = 0, frame = 0
 378              		@ frame_needed = 0, uses_anonymous_args = 0
 379              		@ link register save eliminated.
 380              	.LVL20:
 381 0000 10B4     		push	{r4}
 382              	.LCFI5:
 383              		.cfi_def_cfa_offset 4
 384              		.cfi_offset 4, -4
 385              		.loc 1 164 0
 386 0002 40F20001 		movw	r1, #:lower16:.LANCHOR4
 387              		.loc 1 163 0
 388 0006 40F20004 		movw	r4, #:lower16:.LANCHOR3
 389              		.loc 1 165 0
 390 000a 40F20002 		movw	r2, #:lower16:.LANCHOR5
 391              		.loc 1 163 0
 392 000e C0F20004 		movt	r4, #:upper16:.LANCHOR3
 393              		.loc 1 164 0
 394 0012 C0F20001 		movt	r1, #:upper16:.LANCHOR4
 395              		.loc 1 165 0
ARM GAS  C:\Users\TAISIK~1\AppData\Local\Temp\ccF9Wo1R.s 			page 8


 396 0016 C0F20002 		movt	r2, #:upper16:.LANCHOR5
 397              		.loc 1 163 0
 398 001a 0123     		movs	r3, #1
 399              		.loc 1 165 0
 400 001c 1060     		str	r0, [r2, #0]
 401              		.loc 1 163 0
 402 001e 2370     		strb	r3, [r4, #0]
 403              		.loc 1 164 0
 404 0020 0B70     		strb	r3, [r1, #0]
 405              		.loc 1 167 0
 406 0022 1846     		mov	r0, r3
 407              	.LVL21:
 408 0024 10BC     		pop	{r4}
 409 0026 7047     		bx	lr
 410              		.cfi_endproc
 411              	.LFE124:
 412              		.size	_test_fail, .-_test_fail
 413 0028 AFF30080 		.section	.text._test_assert,"ax",%progbits
 413      AFF30080 
 414              		.align	2
 415              		.p2align 4,,15
 416              		.global	_test_assert
 417              		.thumb
 418              		.thumb_func
 419              		.type	_test_assert, %function
 420              	_test_assert:
 421              	.LFB125:
 422              		.loc 1 169 0
 423              		.cfi_startproc
 424              		@ args = 0, pretend = 0, frame = 0
 425              		@ frame_needed = 0, uses_anonymous_args = 0
 426              		@ link register save eliminated.
 427              	.LVL22:
 428              		.loc 1 171 0
 429 0000 41B9     		cbnz	r1, .L35
 430              	.LVL23:
 431              	.LBB31:
 432              	.LBB32:
 433              		.loc 1 163 0
 434 0002 054A     		ldr	r2, .L36
 435              		.loc 1 164 0
 436 0004 0549     		ldr	r1, .L36+4
 437              	.LVL24:
 438              		.loc 1 163 0
 439 0006 0123     		movs	r3, #1
 440 0008 1370     		strb	r3, [r2, #0]
 441              		.loc 1 165 0
 442 000a 054A     		ldr	r2, .L36+8
 443              		.loc 1 164 0
 444 000c 0B70     		strb	r3, [r1, #0]
 445              		.loc 1 165 0
 446 000e 1060     		str	r0, [r2, #0]
 447              	.LBE32:
 448              	.LBE31:
 449              		.loc 1 172 0
 450 0010 1846     		mov	r0, r3
 451              	.LVL25:
ARM GAS  C:\Users\TAISIK~1\AppData\Local\Temp\ccF9Wo1R.s 			page 9


 452 0012 7047     		bx	lr
 453              	.LVL26:
 454              	.L35:
 455              		.loc 1 173 0
 456 0014 0020     		movs	r0, #0
 457              	.LVL27:
 458              		.loc 1 174 0
 459 0016 7047     		bx	lr
 460              	.L37:
 461              		.align	2
 462              	.L36:
 463 0018 00000000 		.word	.LANCHOR3
 464 001c 00000000 		.word	.LANCHOR4
 465 0020 00000000 		.word	.LANCHOR5
 466              		.cfi_endproc
 467              	.LFE125:
 468              		.size	_test_assert, .-_test_assert
 469 0024 AFF30080 		.section	.text._test_assert_sequence,"ax",%progbits
 469      AFF30080 
 469      AFF30080 
 470              		.align	2
 471              		.p2align 4,,15
 472              		.global	_test_assert_sequence
 473              		.thumb
 474              		.thumb_func
 475              		.type	_test_assert_sequence, %function
 476              	_test_assert_sequence:
 477              	.LFB126:
 478              		.loc 1 176 0
 479              		.cfi_startproc
 480              		@ args = 0, pretend = 0, frame = 0
 481              		@ frame_needed = 0, uses_anonymous_args = 0
 482              		@ link register save eliminated.
 483              	.LVL28:
 484 0000 F0B4     		push	{r4, r5, r6, r7}
 485              	.LCFI6:
 486              		.cfi_def_cfa_offset 16
 487              		.cfi_offset 7, -4
 488              		.cfi_offset 6, -8
 489              		.cfi_offset 5, -12
 490              		.cfi_offset 4, -16
 491              		.loc 1 185 0
 492 0002 194C     		ldr	r4, .L54
 493              		.loc 1 177 0
 494 0004 194A     		ldr	r2, .L54+4
 495              		.loc 1 185 0
 496 0006 2368     		ldr	r3, [r4, #0]
 497 0008 9D1A     		subs	r5, r3, r2
 498 000a 15F0010F 		tst	r5, #1
 499              		.loc 1 177 0
 500 000e 1646     		mov	r6, r2
 501 0010 15D0     		beq	.L39
 502              	.LVL29:
 503              		.loc 1 178 0
 504 0012 9342     		cmp	r3, r2
 505 0014 18D9     		bls	.L51
 506              		.loc 1 179 0
ARM GAS  C:\Users\TAISIK~1\AppData\Local\Temp\ccF9Wo1R.s 			page 10


 507 0016 11F8015B 		ldrb	r5, [r1], #1	@ zero_extendqisi2
 508              	.LVL30:
 509 001a 1778     		ldrb	r7, [r2, #0]	@ zero_extendqisi2
 510              		.loc 1 178 0
 511 001c 561C     		adds	r6, r2, #1
 512              		.loc 1 179 0
 513 001e AF42     		cmp	r7, r5
 514 0020 0DD0     		beq	.L39
 515 0022 16E0     		b	.L53
 516              	.L41:
 517 0024 3678     		ldrb	r6, [r6, #0]	@ zero_extendqisi2
 518 0026 15F801CB 		ldrb	ip, [r5], #1	@ zero_extendqisi2
 519 002a 6645     		cmp	r6, ip
 520              		.loc 1 178 0
 521 002c 07F10106 		add	r6, r7, #1
 522              		.loc 1 179 0
 523 0030 0FD1     		bne	.L53
 524              	.LVL31:
 525 0032 91F801C0 		ldrb	ip, [r1, #1]	@ zero_extendqisi2
 526 0036 3F78     		ldrb	r7, [r7, #0]	@ zero_extendqisi2
 527 0038 691C     		adds	r1, r5, #1
 528              	.LVL32:
 529 003a 6745     		cmp	r7, ip
 530 003c 09D1     		bne	.L53
 531              	.L39:
 532              		.loc 1 178 0 discriminator 1
 533 003e B342     		cmp	r3, r6
 534              		.loc 1 179 0 discriminator 1
 535 0040 0D46     		mov	r5, r1
 536              		.loc 1 178 0 discriminator 1
 537 0042 06F10107 		add	r7, r6, #1
 538 0046 EDD8     		bhi	.L41
 539              	.L51:
 540              		.loc 1 182 0
 541 0048 0B78     		ldrb	r3, [r1, #0]	@ zero_extendqisi2
 542 004a 13B9     		cbnz	r3, .L53
 543              	.LBB33:
 544              	.LBB34:
 545              		.loc 1 136 0
 546 004c 2260     		str	r2, [r4, #0]
 547              	.LBE34:
 548              	.LBE33:
 549              		.loc 1 185 0
 550 004e 1846     		mov	r0, r3
 551              	.LVL33:
 552 0050 07E0     		b	.L40
 553              	.LVL34:
 554              	.L53:
 555              	.LBB35:
 556              	.LBB36:
 557              		.loc 1 163 0
 558 0052 074A     		ldr	r2, .L54+8
 559              		.loc 1 164 0
 560 0054 0749     		ldr	r1, .L54+12
 561              		.loc 1 163 0
 562 0056 0123     		movs	r3, #1
 563 0058 1370     		strb	r3, [r2, #0]
ARM GAS  C:\Users\TAISIK~1\AppData\Local\Temp\ccF9Wo1R.s 			page 11


 564              		.loc 1 165 0
 565 005a 074A     		ldr	r2, .L54+16
 566              		.loc 1 164 0
 567 005c 0B70     		strb	r3, [r1, #0]
 568              		.loc 1 165 0
 569 005e 1060     		str	r0, [r2, #0]
 570              	.LBE36:
 571              	.LBE35:
 572              		.loc 1 183 0
 573 0060 1846     		mov	r0, r3
 574              	.LVL35:
 575              	.L40:
 576              		.loc 1 186 0
 577 0062 F0BC     		pop	{r4, r5, r6, r7}
 578 0064 7047     		bx	lr
 579              	.L55:
 580 0066 00BF     		.align	2
 581              	.L54:
 582 0068 00000000 		.word	.LANCHOR2
 583 006c 00000000 		.word	.LANCHOR6
 584 0070 00000000 		.word	.LANCHOR3
 585 0074 00000000 		.word	.LANCHOR4
 586 0078 00000000 		.word	.LANCHOR5
 587              		.cfi_endproc
 588              	.LFE126:
 589              		.size	_test_assert_sequence, .-_test_assert_sequence
 590 007c AFF30080 		.section	.text._test_assert_time_window,"ax",%progbits
 591              		.align	2
 592              		.p2align 4,,15
 593              		.global	_test_assert_time_window
 594              		.thumb
 595              		.thumb_func
 596              		.type	_test_assert_time_window, %function
 597              	_test_assert_time_window:
 598              	.LFB127:
 599              		.loc 1 188 0
 600              		.cfi_startproc
 601              		@ args = 0, pretend = 0, frame = 0
 602              		@ frame_needed = 0, uses_anonymous_args = 0
 603              	.LVL36:
 604 0000 0B46     		mov	r3, r1
 605 0002 10B5     		push	{r4, lr}
 606              	.LCFI7:
 607              		.cfi_def_cfa_offset 8
 608              		.cfi_offset 14, -4
 609              		.cfi_offset 4, -8
 610              		.loc 1 190 0
 611 0004 1146     		mov	r1, r2
 612              	.LVL37:
 613              		.loc 1 188 0
 614 0006 0446     		mov	r4, r0
 615              		.loc 1 190 0
 616 0008 1846     		mov	r0, r3
 617              	.LVL38:
 618 000a FFF7FEFF 		bl	chTimeIsWithin
 619              	.LVL39:
 620              	.LBB37:
ARM GAS  C:\Users\TAISIK~1\AppData\Local\Temp\ccF9Wo1R.s 			page 12


 621              	.LBB38:
 622              		.loc 1 171 0
 623 000e 38B9     		cbnz	r0, .L58
 624              	.LVL40:
 625              	.LBB39:
 626              	.LBB40:
 627              		.loc 1 163 0
 628 0010 044B     		ldr	r3, .L59
 629              		.loc 1 164 0
 630 0012 054A     		ldr	r2, .L59+4
 631              		.loc 1 165 0
 632 0014 0549     		ldr	r1, .L59+8
 633              		.loc 1 163 0
 634 0016 0120     		movs	r0, #1
 635              	.LVL41:
 636 0018 1870     		strb	r0, [r3, #0]
 637              		.loc 1 164 0
 638 001a 1070     		strb	r0, [r2, #0]
 639              		.loc 1 165 0
 640 001c 0C60     		str	r4, [r1, #0]
 641 001e 10BD     		pop	{r4, pc}
 642              	.LVL42:
 643              	.L58:
 644              	.LBE40:
 645              	.LBE39:
 646              		.loc 1 173 0
 647 0020 0020     		movs	r0, #0
 648              	.LVL43:
 649              	.LBE38:
 650              	.LBE37:
 651              		.loc 1 191 0
 652 0022 10BD     		pop	{r4, pc}
 653              	.L60:
 654              		.align	2
 655              	.L59:
 656 0024 00000000 		.word	.LANCHOR3
 657 0028 00000000 		.word	.LANCHOR4
 658 002c 00000000 		.word	.LANCHOR5
 659              		.cfi_endproc
 660              	.LFE127:
 661              		.size	_test_assert_time_window, .-_test_assert_time_window
 662              		.section	.text.test_terminate_threads,"ax",%progbits
 663              		.align	2
 664              		.p2align 4,,15
 665              		.global	test_terminate_threads
 666              		.thumb
 667              		.thumb_func
 668              		.type	test_terminate_threads, %function
 669              	test_terminate_threads:
 670              	.LFB128:
 671              		.loc 1 200 0
 672              		.cfi_startproc
 673              		@ args = 0, pretend = 0, frame = 0
 674              		@ frame_needed = 0, uses_anonymous_args = 0
 675              	.LVL44:
 676 0000 10B5     		push	{r4, lr}
 677              	.LCFI8:
ARM GAS  C:\Users\TAISIK~1\AppData\Local\Temp\ccF9Wo1R.s 			page 13


 678              		.cfi_def_cfa_offset 8
 679              		.cfi_offset 14, -4
 680              		.cfi_offset 4, -8
 681              		.loc 1 204 0
 682 0002 0C4C     		ldr	r4, .L67
 683 0004 2068     		ldr	r0, [r4, #0]
 684 0006 08B1     		cbz	r0, .L62
 685              		.loc 1 205 0
 686 0008 FFF7FEFF 		bl	chThdTerminate
 687              	.L62:
 688              	.LVL45:
 689              		.loc 1 204 0
 690 000c 6068     		ldr	r0, [r4, #4]
 691 000e 08B1     		cbz	r0, .L63
 692              		.loc 1 205 0
 693 0010 FFF7FEFF 		bl	chThdTerminate
 694              	.L63:
 695              	.LVL46:
 696              		.loc 1 204 0
 697 0014 A068     		ldr	r0, [r4, #8]
 698 0016 08B1     		cbz	r0, .L64
 699              		.loc 1 205 0
 700 0018 FFF7FEFF 		bl	chThdTerminate
 701              	.L64:
 702              	.LVL47:
 703              		.loc 1 204 0
 704 001c E068     		ldr	r0, [r4, #12]
 705 001e 08B1     		cbz	r0, .L65
 706              		.loc 1 205 0
 707 0020 FFF7FEFF 		bl	chThdTerminate
 708              	.L65:
 709              	.LVL48:
 710              		.loc 1 204 0
 711 0024 2069     		ldr	r0, [r4, #16]
 712 0026 18B1     		cbz	r0, .L61
 713              		.loc 1 206 0
 714 0028 BDE81040 		pop	{r4, lr}
 715              		.loc 1 205 0
 716 002c FFF7FEBF 		b	chThdTerminate
 717              	.L61:
 718 0030 10BD     		pop	{r4, pc}
 719              	.L68:
 720 0032 00BF     		.align	2
 721              	.L67:
 722 0034 00000000 		.word	.LANCHOR7
 723              		.cfi_endproc
 724              	.LFE128:
 725              		.size	test_terminate_threads, .-test_terminate_threads
 726 0038 AFF30080 		.section	.text.test_wait_threads,"ax",%progbits
 726      AFF30080 
 727              		.align	2
 728              		.p2align 4,,15
 729              		.global	test_wait_threads
 730              		.thumb
 731              		.thumb_func
 732              		.type	test_wait_threads, %function
 733              	test_wait_threads:
ARM GAS  C:\Users\TAISIK~1\AppData\Local\Temp\ccF9Wo1R.s 			page 14


 734              	.LFB129:
 735              		.loc 1 211 0
 736              		.cfi_startproc
 737              		@ args = 0, pretend = 0, frame = 0
 738              		@ frame_needed = 0, uses_anonymous_args = 0
 739              	.LVL49:
 740 0000 10B5     		push	{r4, lr}
 741              	.LCFI9:
 742              		.cfi_def_cfa_offset 8
 743              		.cfi_offset 14, -4
 744              		.cfi_offset 4, -8
 745              		.loc 1 215 0
 746 0002 124C     		ldr	r4, .L75
 747 0004 2068     		ldr	r0, [r4, #0]
 748 0006 18B1     		cbz	r0, .L70
 749              		.loc 1 216 0
 750 0008 FFF7FEFF 		bl	chThdWait
 751              		.loc 1 217 0
 752 000c 0023     		movs	r3, #0
 753 000e 2360     		str	r3, [r4, #0]
 754              	.L70:
 755              	.LVL50:
 756              		.loc 1 215 0
 757 0010 6068     		ldr	r0, [r4, #4]
 758 0012 20B1     		cbz	r0, .L71
 759              		.loc 1 216 0
 760 0014 FFF7FEFF 		bl	chThdWait
 761              		.loc 1 217 0
 762 0018 0C48     		ldr	r0, .L75
 763 001a 0022     		movs	r2, #0
 764 001c 4260     		str	r2, [r0, #4]
 765              	.L71:
 766              	.LVL51:
 767              		.loc 1 215 0
 768 001e A068     		ldr	r0, [r4, #8]
 769 0020 20B1     		cbz	r0, .L72
 770              		.loc 1 216 0
 771 0022 FFF7FEFF 		bl	chThdWait
 772              		.loc 1 217 0
 773 0026 094B     		ldr	r3, .L75
 774 0028 0021     		movs	r1, #0
 775 002a 9960     		str	r1, [r3, #8]
 776              	.L72:
 777              	.LVL52:
 778              		.loc 1 215 0
 779 002c E068     		ldr	r0, [r4, #12]
 780 002e 20B1     		cbz	r0, .L73
 781              		.loc 1 216 0
 782 0030 FFF7FEFF 		bl	chThdWait
 783              		.loc 1 217 0
 784 0034 0548     		ldr	r0, .L75
 785 0036 0022     		movs	r2, #0
 786 0038 C260     		str	r2, [r0, #12]
 787              	.L73:
 788              	.LVL53:
 789              		.loc 1 215 0
 790 003a 2069     		ldr	r0, [r4, #16]
ARM GAS  C:\Users\TAISIK~1\AppData\Local\Temp\ccF9Wo1R.s 			page 15


 791 003c 20B1     		cbz	r0, .L69
 792              		.loc 1 216 0
 793 003e FFF7FEFF 		bl	chThdWait
 794              		.loc 1 217 0
 795 0042 024B     		ldr	r3, .L75
 796 0044 0021     		movs	r1, #0
 797 0046 1961     		str	r1, [r3, #16]
 798              	.LVL54:
 799              	.L69:
 800 0048 10BD     		pop	{r4, pc}
 801              	.L76:
 802 004a 00BF     		.align	2
 803              	.L75:
 804 004c 00000000 		.word	.LANCHOR7
 805              		.cfi_endproc
 806              	.LFE129:
 807              		.size	test_wait_threads, .-test_wait_threads
 808              		.section	.text.test_cpu_pulse,"ax",%progbits
 809              		.align	2
 810              		.p2align 4,,15
 811              		.global	test_cpu_pulse
 812              		.thumb
 813              		.thumb_func
 814              		.type	test_cpu_pulse, %function
 815              	test_cpu_pulse:
 816              	.LFB130:
 817              		.loc 1 228 0
 818              		.cfi_startproc
 819              		@ args = 0, pretend = 0, frame = 0
 820              		@ frame_needed = 0, uses_anonymous_args = 0
 821              		@ link register save eliminated.
 822              	.LVL55:
 823 0000 30B4     		push	{r4, r5}
 824              	.LCFI10:
 825              		.cfi_def_cfa_offset 8
 826              		.cfi_offset 5, -4
 827              		.cfi_offset 4, -8
 828              		.loc 1 231 0
 829 0002 114B     		ldr	r3, .L89
 830 0004 9B69     		ldr	r3, [r3, #24]
 831              		.loc 1 232 0
 832 0006 4FF47A75 		mov	r5, #1000
 833 000a 05FB00F4 		mul	r4, r5, r0
 834              		.loc 1 231 0
 835 000e 196A     		ldr	r1, [r3, #32]
 836              	.LVL56:
 837              		.loc 1 232 0
 838 0010 44F6D352 		movw	r2, #19923
 839 0014 A4F57A75 		sub	r5, r4, #1000
 840 0018 C1F26202 		movt	r2, 4194
 841 001c 4C1C     		adds	r4, r1, #1
 842 001e A2FB0550 		umull	r5, r0, r2, r5
 843              	.LVL57:
 844 0022 04EB9010 		add	r0, r4, r0, lsr #6
 845              	.LVL58:
 846              	.L87:
 847              		.loc 1 239 0
ARM GAS  C:\Users\TAISIK~1\AppData\Local\Temp\ccF9Wo1R.s 			page 16


 848 0026 8142     		cmp	r1, r0
 849              		.loc 1 234 0
 850 0028 1A6A     		ldr	r2, [r3, #32]
 851              	.LVL59:
 852              		.loc 1 239 0
 853 002a 03D2     		bcs	.L78
 854              		.loc 1 239 0 is_stmt 0 discriminator 1
 855 002c 9142     		cmp	r1, r2
 856 002e 03D9     		bls	.L88
 857              	.LVL60:
 858              	.L86:
 859              		.loc 1 241 0 is_stmt 1
 860 0030 30BC     		pop	{r4, r5}
 861 0032 7047     		bx	lr
 862              	.LVL61:
 863              	.L78:
 864              		.loc 1 239 0 discriminator 2
 865 0034 9142     		cmp	r1, r2
 866 0036 F6D9     		bls	.L87
 867              	.L88:
 868              		.loc 1 239 0 is_stmt 0
 869 0038 9042     		cmp	r0, r2
 870 003a 94BF     		ite	ls
 871 003c 0022     		movls	r2, #0
 872              	.LVL62:
 873 003e 0122     		movhi	r2, #1
 874              		.loc 1 240 0 is_stmt 1
 875 0040 002A     		cmp	r2, #0
 876 0042 F0D1     		bne	.L87
 877 0044 F4E7     		b	.L86
 878              	.L90:
 879 0046 00BF     		.align	2
 880              	.L89:
 881 0048 00000000 		.word	rlist
 882              		.cfi_endproc
 883              	.LFE130:
 884              		.size	test_cpu_pulse, .-test_cpu_pulse
 885 004c AFF30080 		.section	.text.test_wait_tick,"ax",%progbits
 886              		.align	2
 887              		.p2align 4,,15
 888              		.global	test_wait_tick
 889              		.thumb
 890              		.thumb_func
 891              		.type	test_wait_tick, %function
 892              	test_wait_tick:
 893              	.LFB131:
 894              		.loc 1 249 0
 895              		.cfi_startproc
 896              		@ args = 0, pretend = 0, frame = 0
 897              		@ frame_needed = 0, uses_anonymous_args = 0
 898 0000 08B5     		push	{r3, lr}
 899              	.LCFI11:
 900              		.cfi_def_cfa_offset 8
 901              		.cfi_offset 14, -4
 902              		.cfi_offset 3, -8
 903              		.loc 1 251 0
 904 0002 0120     		movs	r0, #1
ARM GAS  C:\Users\TAISIK~1\AppData\Local\Temp\ccF9Wo1R.s 			page 17


 905 0004 FFF7FEFF 		bl	chThdSleep
 906              		.loc 1 252 0
 907 0008 40F20003 		movw	r3, #:lower16:vtlist
 908 000c C0F20003 		movt	r3, #:upper16:vtlist
 909 0010 D868     		ldr	r0, [r3, #12]
 910              		.loc 1 253 0
 911 0012 08BD     		pop	{r3, pc}
 912              		.cfi_endproc
 913              	.LFE131:
 914              		.size	test_wait_tick, .-test_wait_tick
 915 0014 AFF30080 		.section	.text.test_start_timer,"ax",%progbits
 915      AFF30080 
 915      AFF30080 
 916              		.align	2
 917              		.p2align 4,,15
 918              		.global	test_start_timer
 919              		.thumb
 920              		.thumb_func
 921              		.type	test_start_timer, %function
 922              	test_start_timer:
 923              	.LFB133:
 924              		.loc 1 276 0
 925              		.cfi_startproc
 926              		@ args = 0, pretend = 0, frame = 0
 927              		@ frame_needed = 0, uses_anonymous_args = 0
 928              	.LVL63:
 929              		.loc 1 279 0
 930 0000 40F20001 		movw	r1, #:lower16:.LANCHOR0
 931 0004 C0F20001 		movt	r1, #:upper16:.LANCHOR0
 932              		.loc 1 276 0
 933 0008 10B5     		push	{r4, lr}
 934              	.LCFI12:
 935              		.cfi_def_cfa_offset 8
 936              		.cfi_offset 14, -4
 937              		.cfi_offset 4, -8
 938              		.loc 1 279 0
 939 000a 0024     		movs	r4, #0
 940 000c 0C70     		strb	r4, [r1, #0]
 941              	.LVL64:
 942              	.LBB41:
 943              		.loc 1 280 0
 944 000e 2023     		movs	r3, #32
 945              	.LVL65:
 946              	@ 280 "../../test/test.c" 1
 947 0010 83F31188 		msr     BASEPRI, r3
 948              	@ 0 "" 2
 949              	.LVL66:
 950              		.thumb
 951              	.LBE41:
 952              		.loc 1 278 0
 953 0014 4FF47A7E 		mov	lr, #1000
 954 0018 0EFB00FC 		mul	ip, lr, r0
 955 001c 44F6D353 		movw	r3, #19923
 956              	.LVL67:
 957 0020 ACF57A72 		sub	r2, ip, #1000
 958 0024 C1F26203 		movt	r3, 4194
 959 0028 A3FB0220 		umull	r2, r0, r3, r2
ARM GAS  C:\Users\TAISIK~1\AppData\Local\Temp\ccF9Wo1R.s 			page 18


 960              	.LVL68:
 961 002c 8109     		lsrs	r1, r0, #6
 962              		.loc 1 280 0
 963 002e 40F20002 		movw	r2, #:lower16:tmr
 964 0032 40F20000 		movw	r0, #:lower16:.LANCHOR8
 965 0036 2346     		mov	r3, r4
 966 0038 C0F20000 		movt	r0, #:upper16:.LANCHOR8
 967              		.loc 1 278 0
 968 003c 0131     		adds	r1, r1, #1
 969              		.loc 1 280 0
 970 003e C0F20002 		movt	r2, #:upper16:tmr
 971 0042 FFF7FEFF 		bl	chVTSetI
 972              	.LBB42:
 973 0046 2346     		mov	r3, r4
 974              	.LVL69:
 975              	@ 280 "../../test/test.c" 1
 976 0048 83F31188 		msr     BASEPRI, r3
 977              	@ 0 "" 2
 978              	.LVL70:
 979              		.thumb
 980              	.LBE42:
 981              		.loc 1 281 0
 982 004c 10BD     		pop	{r4, pc}
 983              		.cfi_endproc
 984              	.LFE133:
 985              		.size	test_start_timer, .-test_start_timer
 986 004e 00BF     		.section	.text.TestThread,"ax",%progbits
 987              		.align	2
 988              		.p2align 4,,15
 989              		.global	TestThread
 990              		.thumb
 991              		.thumb_func
 992              		.type	TestThread, %function
 993              	TestThread:
 994              	.LFB136:
 995              		.loc 1 318 0
 996              		.cfi_startproc
 997              		@ args = 0, pretend = 0, frame = 8
 998              		@ frame_needed = 0, uses_anonymous_args = 0
 999              	.LVL71:
 1000 0000 2DE9F04F 		push	{r4, r5, r6, r7, r8, r9, sl, fp, lr}
 1001              	.LCFI13:
 1002              		.cfi_def_cfa_offset 36
 1003              		.cfi_offset 14, -4
 1004              		.cfi_offset 11, -8
 1005              		.cfi_offset 10, -12
 1006              		.cfi_offset 9, -16
 1007              		.cfi_offset 8, -20
 1008              		.cfi_offset 7, -24
 1009              		.cfi_offset 6, -28
 1010              		.cfi_offset 5, -32
 1011              		.cfi_offset 4, -36
 1012              		.loc 1 353 0
 1013 0004 6C4D     		ldr	r5, .L110
 1014              		.loc 1 321 0
 1015 0006 6D4E     		ldr	r6, .L110+4
 1016              	.LBB43:
ARM GAS  C:\Users\TAISIK~1\AppData\Local\Temp\ccF9Wo1R.s 			page 19


 1017              	.LBB44:
 1018              	.LBB45:
 1019              	.LBB46:
 1020              		.loc 1 136 0
 1021 0008 DFF828B2 		ldr	fp, .L110+124
 1022              	.LBE46:
 1023              	.LBE45:
 1024              		.loc 1 291 0
 1025 000c DFF83CA2 		ldr	sl, .L110+148
 1026              		.loc 1 293 0
 1027 0010 6B4F     		ldr	r7, .L110+8
 1028              	.LBE44:
 1029              	.LBE43:
 1030              		.loc 1 318 0
 1031 0012 83B0     		sub	sp, sp, #12
 1032              	.LCFI14:
 1033              		.cfi_def_cfa_offset 48
 1034              		.loc 1 318 0
 1035 0014 0146     		mov	r1, r0
 1036              		.loc 1 322 0
 1037 0016 6B48     		ldr	r0, .L110+12
 1038              	.LVL72:
 1039              		.loc 1 321 0
 1040 0018 3160     		str	r1, [r6, #0]
 1041              		.loc 1 353 0
 1042 001a 0195     		str	r5, [sp, #4]
 1043              		.loc 1 322 0
 1044 001c FFF7FEFF 		bl	test_println
 1045              	.LVL73:
 1046              		.loc 1 323 0
 1047 0020 6948     		ldr	r0, .L110+16
 1048              	.LBB53:
 1049              	.LBB51:
 1050              	.LBB49:
 1051              	.LBB47:
 1052              		.loc 1 136 0
 1053 0022 6A4D     		ldr	r5, .L110+20
 1054              	.LBE47:
 1055              	.LBE49:
 1056              	.LBE51:
 1057              	.LBE53:
 1058              		.loc 1 323 0
 1059 0024 FFF7FEFF 		bl	test_println
 1060              		.loc 1 324 0
 1061 0028 6948     		ldr	r0, .L110+24
 1062 002a FFF7FEFF 		bl	test_println
 1063              		.loc 1 325 0
 1064 002e 6948     		ldr	r0, .L110+28
 1065 0030 FFF7FEFF 		bl	test_print
 1066              		.loc 1 326 0
 1067 0034 6848     		ldr	r0, .L110+32
 1068 0036 FFF7FEFF 		bl	test_println
 1069              		.loc 1 327 0
 1070 003a 6848     		ldr	r0, .L110+36
 1071 003c FFF7FEFF 		bl	test_print
 1072              		.loc 1 328 0
 1073 0040 6748     		ldr	r0, .L110+40
ARM GAS  C:\Users\TAISIK~1\AppData\Local\Temp\ccF9Wo1R.s 			page 20


 1074 0042 FFF7FEFF 		bl	test_println
 1075              		.loc 1 330 0
 1076 0046 6748     		ldr	r0, .L110+44
 1077 0048 FFF7FEFF 		bl	test_print
 1078              		.loc 1 331 0
 1079 004c 6648     		ldr	r0, .L110+48
 1080 004e FFF7FEFF 		bl	test_println
 1081              		.loc 1 333 0
 1082 0052 6648     		ldr	r0, .L110+52
 1083 0054 FFF7FEFF 		bl	test_print
 1084              		.loc 1 334 0
 1085 0058 6548     		ldr	r0, .L110+56
 1086 005a FFF7FEFF 		bl	test_println
 1087              		.loc 1 336 0
 1088 005e 6548     		ldr	r0, .L110+60
 1089 0060 FFF7FEFF 		bl	test_print
 1090              		.loc 1 337 0
 1091 0064 6448     		ldr	r0, .L110+64
 1092 0066 FFF7FEFF 		bl	test_println
 1093              		.loc 1 340 0
 1094 006a 6448     		ldr	r0, .L110+68
 1095 006c FFF7FEFF 		bl	test_print
 1096              		.loc 1 341 0
 1097 0070 6348     		ldr	r0, .L110+72
 1098 0072 FFF7FEFF 		bl	test_println
 1099              		.loc 1 344 0
 1100 0076 6348     		ldr	r0, .L110+76
 1101 0078 FFF7FEFF 		bl	test_print
 1102              		.loc 1 345 0
 1103 007c 6248     		ldr	r0, .L110+80
 1104 007e FFF7FEFF 		bl	test_println
 1105              		.loc 1 348 0
 1106 0082 6248     		ldr	r0, .L110+84
 1107 0084 FFF7FEFF 		bl	test_print
 1108              		.loc 1 349 0
 1109 0088 6148     		ldr	r0, .L110+88
 1110 008a FFF7FEFF 		bl	test_println
 1111              		.loc 1 351 0
 1112 008e 4D48     		ldr	r0, .L110+12
 1113 0090 FFF7FEFF 		bl	test_println
 1114              		.loc 1 353 0
 1115 0094 40F20003 		movw	r3, #:lower16:.LANCHOR4
 1116 0098 C0F20003 		movt	r3, #:upper16:.LANCHOR4
 1117 009c 0022     		movs	r2, #0
 1118 009e 1A70     		strb	r2, [r3, #0]
 1119              	.LVL74:
 1120 00a0 5C4B     		ldr	r3, .L110+92
 1121              		.loc 1 354 0
 1122 00a2 0092     		str	r2, [sp, #0]
 1123              	.LVL75:
 1124              	.L94:
 1125              		.loc 1 355 0 discriminator 1
 1126 00a4 0099     		ldr	r1, [sp, #0]
 1127 00a6 4A1C     		adds	r2, r1, #1
 1128 00a8 0092     		str	r2, [sp, #0]
 1129 00aa 9846     		mov	r8, r3
 1130              		.loc 1 318 0 discriminator 1
ARM GAS  C:\Users\TAISIK~1\AppData\Local\Temp\ccF9Wo1R.s 			page 21


 1131 00ac 4FF00009 		mov	r9, #0
 1132              	.L107:
 1133              	.LVL76:
 1134              		.loc 1 357 0 discriminator 1
 1135 00b0 58F8041B 		ldr	r1, [r8], #4
 1136 00b4 0029     		cmp	r1, #0
 1137 00b6 55D0     		beq	.L108
 1138              	.L101:
 1139              		.loc 1 358 0
 1140 00b8 FFF7FEFF 		bl	print_line
 1141              		.loc 1 359 0
 1142 00bc 5648     		ldr	r0, .L110+96
 1143 00be FFF7FEFF 		bl	test_print
 1144              		.loc 1 360 0
 1145 00c2 0098     		ldr	r0, [sp, #0]
 1146 00c4 FFF7FEFF 		bl	test_printn
 1147              		.loc 1 362 0
 1148 00c8 09F10109 		add	r9, r9, #1
 1149              	.LVL77:
 1150              		.loc 1 361 0
 1151 00cc 5348     		ldr	r0, .L110+100
 1152 00ce FFF7FEFF 		bl	test_print
 1153              		.loc 1 362 0
 1154 00d2 4846     		mov	r0, r9
 1155 00d4 FFF7FEFF 		bl	test_printn
 1156              		.loc 1 363 0
 1157 00d8 5148     		ldr	r0, .L110+104
 1158 00da FFF7FEFF 		bl	test_print
 1159              		.loc 1 364 0
 1160 00de 58F8044C 		ldr	r4, [r8, #-4]
 1161 00e2 2068     		ldr	r0, [r4, #0]
 1162 00e4 FFF7FEFF 		bl	test_print
 1163              		.loc 1 365 0
 1164 00e8 4E48     		ldr	r0, .L110+108
 1165 00ea FFF7FEFF 		bl	test_println
 1166              		.loc 1 367 0
 1167 00ee C820     		movs	r0, #200
 1168 00f0 FFF7FEFF 		bl	chThdSleep
 1169              		.loc 1 369 0
 1170 00f4 58F8044C 		ldr	r4, [r8, #-4]
 1171              	.LVL78:
 1172              	.LBB54:
 1173              	.LBB52:
 1174              	.LBB50:
 1175              	.LBB48:
 1176              		.loc 1 136 0
 1177 00f8 C5F800B0 		str	fp, [r5, #0]
 1178              	.LBE48:
 1179              	.LBE50:
 1180              		.loc 1 291 0
 1181 00fc 0020     		movs	r0, #0
 1182              		.loc 1 293 0
 1183 00fe 3860     		str	r0, [r7, #0]
 1184 0100 7860     		str	r0, [r7, #4]
 1185 0102 B860     		str	r0, [r7, #8]
 1186 0104 F860     		str	r0, [r7, #12]
 1187 0106 3861     		str	r0, [r7, #16]
ARM GAS  C:\Users\TAISIK~1\AppData\Local\Temp\ccF9Wo1R.s 			page 22


 1188              		.loc 1 295 0
 1189 0108 6368     		ldr	r3, [r4, #4]
 1190              		.loc 1 291 0
 1191 010a 8AF80000 		strb	r0, [sl, #0]
 1192              	.LVL79:
 1193              		.loc 1 295 0
 1194 010e 03B1     		cbz	r3, .L95
 1195              		.loc 1 296 0
 1196 0110 9847     		blx	r3
 1197              	.LVL80:
 1198              	.L95:
 1199              		.loc 1 297 0
 1200 0112 E268     		ldr	r2, [r4, #12]
 1201 0114 9047     		blx	r2
 1202              		.loc 1 298 0
 1203 0116 A368     		ldr	r3, [r4, #8]
 1204 0118 03B1     		cbz	r3, .L96
 1205              		.loc 1 299 0
 1206 011a 9847     		blx	r3
 1207              	.L96:
 1208              		.loc 1 301 0
 1209 011c FFF7FEFF 		bl	test_wait_threads
 1210              	.LBE52:
 1211              	.LBE54:
 1212              		.loc 1 370 0
 1213 0120 9AF80030 		ldrb	r3, [sl, #0]	@ zero_extendqisi2
 1214 0124 002B     		cmp	r3, #0
 1215 0126 3ED0     		beq	.L97
 1216              		.loc 1 371 0
 1217 0128 3F48     		ldr	r0, .L110+112
 1218 012a FFF7FEFF 		bl	test_print
 1219              		.loc 1 372 0
 1220 012e 3F48     		ldr	r0, .L110+116
 1221 0130 0068     		ldr	r0, [r0, #0]
 1222 0132 FFF7FEFF 		bl	test_printn
 1223              		.loc 1 373 0
 1224 0136 3E48     		ldr	r0, .L110+120
 1225 0138 FFF7FEFF 		bl	test_print
 1226              	.LVL81:
 1227              	.LBB55:
 1228              	.LBB56:
 1229              		.loc 1 142 0
 1230 013c 2968     		ldr	r1, [r5, #0]
 1231 013e 5945     		cmp	r1, fp
 1232 0140 09D9     		bls	.L98
 1233 0142 3C4C     		ldr	r4, .L110+124
 1234              	.LVL82:
 1235              	.L99:
 1236              		.loc 1 143 0
 1237 0144 3068     		ldr	r0, [r6, #0]
 1238 0146 14F8011B 		ldrb	r1, [r4], #1	@ zero_extendqisi2
 1239              	.LVL83:
 1240 014a 0268     		ldr	r2, [r0, #0]
 1241 014c 9368     		ldr	r3, [r2, #8]
 1242 014e 9847     		blx	r3
 1243              		.loc 1 142 0
 1244 0150 2A68     		ldr	r2, [r5, #0]
ARM GAS  C:\Users\TAISIK~1\AppData\Local\Temp\ccF9Wo1R.s 			page 23


 1245 0152 A242     		cmp	r2, r4
 1246 0154 F6D8     		bhi	.L99
 1247              	.LVL84:
 1248              	.L98:
 1249              	.LBE56:
 1250              	.LBE55:
 1251              		.loc 1 375 0
 1252 0156 3848     		ldr	r0, .L110+128
 1253 0158 FFF7FEFF 		bl	test_println
 1254              	.LVL85:
 1255              		.loc 1 357 0
 1256 015c 58F8041B 		ldr	r1, [r8], #4
 1257 0160 0029     		cmp	r1, #0
 1258 0162 A9D1     		bne	.L101
 1259              	.LVL86:
 1260              	.L108:
 1261              		.loc 1 355 0
 1262 0164 0198     		ldr	r0, [sp, #4]
 1263 0166 50F8043F 		ldr	r3, [r0, #4]!
 1264 016a 0190     		str	r0, [sp, #4]
 1265 016c 002B     		cmp	r3, #0
 1266 016e 99D1     		bne	.L94
 1267              		.loc 1 383 0
 1268 0170 FFF7FEFF 		bl	print_line
 1269              		.loc 1 384 0
 1270 0174 1348     		ldr	r0, .L110+12
 1271 0176 FFF7FEFF 		bl	test_println
 1272              		.loc 1 385 0
 1273 017a 3048     		ldr	r0, .L110+132
 1274 017c FFF7FEFF 		bl	test_print
 1275              		.loc 1 386 0
 1276 0180 40F2000C 		movw	ip, #:lower16:.LANCHOR4
 1277 0184 C0F2000C 		movt	ip, #:upper16:.LANCHOR4
 1278 0188 9CF80030 		ldrb	r3, [ip, #0]	@ zero_extendqisi2
 1279 018c 7BB9     		cbnz	r3, .L109
 1280              		.loc 1 389 0
 1281 018e 2C48     		ldr	r0, .L110+136
 1282 0190 FFF7FEFF 		bl	test_println
 1283              	.L105:
 1284              		.loc 1 391 0
 1285 0194 40F2000E 		movw	lr, #:lower16:.LANCHOR4
 1286 0198 C0F2000E 		movt	lr, #:upper16:.LANCHOR4
 1287 019c 9EF80000 		ldrb	r0, [lr, #0]	@ zero_extendqisi2
 1288              		.loc 1 392 0
 1289 01a0 03B0     		add	sp, sp, #12
 1290 01a2 BDE8F08F 		pop	{r4, r5, r6, r7, r8, r9, sl, fp, pc}
 1291              	.LVL87:
 1292              	.L97:
 1293              		.loc 1 378 0
 1294 01a6 2748     		ldr	r0, .L110+140
 1295 01a8 FFF7FEFF 		bl	test_println
 1296 01ac 80E7     		b	.L107
 1297              	.LVL88:
 1298              	.L109:
 1299              		.loc 1 387 0
 1300 01ae 2648     		ldr	r0, .L110+144
 1301 01b0 FFF7FEFF 		bl	test_println
ARM GAS  C:\Users\TAISIK~1\AppData\Local\Temp\ccF9Wo1R.s 			page 24


 1302 01b4 EEE7     		b	.L105
 1303              	.L111:
 1304 01b6 00BF     		.align	2
 1305              	.L110:
 1306 01b8 00000000 		.word	.LANCHOR9
 1307 01bc 00000000 		.word	.LANCHOR1
 1308 01c0 00000000 		.word	.LANCHOR7
 1309 01c4 04000000 		.word	.LC1
 1310 01c8 08000000 		.word	.LC2
 1311 01cc 00000000 		.word	.LANCHOR2
 1312 01d0 24000000 		.word	.LC3
 1313 01d4 28000000 		.word	.LC4
 1314 01d8 3C000000 		.word	.LC5
 1315 01dc 4C000000 		.word	.LC6
 1316 01e0 60000000 		.word	.LC7
 1317 01e4 78000000 		.word	.LC8
 1318 01e8 8C000000 		.word	.LC9
 1319 01ec D4000000 		.word	.LC10
 1320 01f0 E8000000 		.word	.LC11
 1321 01f4 F4000000 		.word	.LC12
 1322 01f8 08010000 		.word	.LC13
 1323 01fc 14010000 		.word	.LC14
 1324 0200 28010000 		.word	.LC15
 1325 0204 40010000 		.word	.LC16
 1326 0208 54010000 		.word	.LC17
 1327 020c 6C010000 		.word	.LC18
 1328 0210 80010000 		.word	.LC19
 1329 0214 00000000 		.word	patternthd
 1330 0218 A8010000 		.word	.LC20
 1331 021c B8010000 		.word	.LC21
 1332 0220 BC010000 		.word	.LC22
 1333 0224 C0010000 		.word	.LC23
 1334 0228 C4010000 		.word	.LC24
 1335 022c 00000000 		.word	.LANCHOR5
 1336 0230 DC010000 		.word	.LC25
 1337 0234 00000000 		.word	.LANCHOR6
 1338 0238 E0010000 		.word	.LC26
 1339 023c F8010000 		.word	.LC28
 1340 0240 10020000 		.word	.LC30
 1341 0244 E4010000 		.word	.LC27
 1342 0248 08020000 		.word	.LC29
 1343 024c 00000000 		.word	.LANCHOR3
 1344              		.cfi_endproc
 1345              	.LFE136:
 1346              		.size	TestThread, .-TestThread
 1347              		.global	test_timer_done
 1348              		.global	wa
 1349              		.global	threads
 1350              		.global	test
 1351              		.section	.bss.test,"aw",%nobits
 1352              		.align	3
 1353              		.type	test, %object
 1354              		.size	test, 1520
 1355              	test:
 1356 0000 00000000 		.space	1520
 1356      00000000 
 1356      00000000 
ARM GAS  C:\Users\TAISIK~1\AppData\Local\Temp\ccF9Wo1R.s 			page 25


 1356      00000000 
 1356      00000000 
 1357              		.section	.bss.failpoint,"aw",%nobits
 1358              		.align	2
 1359              		.set	.LANCHOR5,. + 0
 1360              		.type	failpoint, %object
 1361              		.size	failpoint, 4
 1362              	failpoint:
 1363 0000 00000000 		.space	4
 1364              		.section	.bss.local_fail,"aw",%nobits
 1365              		.set	.LANCHOR3,. + 0
 1366              		.type	local_fail, %object
 1367              		.size	local_fail, 1
 1368              	local_fail:
 1369 0000 00       		.space	1
 1370              		.section	.bss.test_timer_done,"aw",%nobits
 1371              		.set	.LANCHOR0,. + 0
 1372              		.type	test_timer_done, %object
 1373              		.size	test_timer_done, 1
 1374              	test_timer_done:
 1375 0000 00       		.space	1
 1376              		.section	.rodata.wa,"a",%progbits
 1377              		.align	2
 1378              		.type	wa, %object
 1379              		.size	wa, 20
 1380              	wa:
 1381 0000 00000000 		.word	test
 1382 0004 30010000 		.word	test+304
 1383 0008 60020000 		.word	test+608
 1384 000c 90030000 		.word	test+912
 1385 0010 C0040000 		.word	test+1216
 1386              		.section	.bss.tokp,"aw",%nobits
 1387              		.align	2
 1388              		.set	.LANCHOR2,. + 0
 1389              		.type	tokp, %object
 1390              		.size	tokp, 4
 1391              	tokp:
 1392 0000 00000000 		.space	4
 1393              		.section	.bss.global_fail,"aw",%nobits
 1394              		.set	.LANCHOR4,. + 0
 1395              		.type	global_fail, %object
 1396              		.size	global_fail, 1
 1397              	global_fail:
 1398 0000 00       		.space	1
 1399              		.section	.rodata.str1.4,"aMS",%progbits,1
 1400              		.align	2
 1401              	.LC0:
 1402 0000 0D0A00   		.ascii	"\015\012\000"
 1403 0003 00       		.space	1
 1404              	.LC1:
 1405 0004 00       		.ascii	"\000"
 1406 0005 000000   		.space	3
 1407              	.LC2:
 1408 0008 2A2A2A20 		.ascii	"*** ChibiOS/RT test suite\000"
 1408      43686962 
 1408      694F532F 
 1408      52542074 
ARM GAS  C:\Users\TAISIK~1\AppData\Local\Temp\ccF9Wo1R.s 			page 26


 1408      65737420 
 1409 0022 0000     		.space	2
 1410              	.LC3:
 1411 0024 2A2A2A00 		.ascii	"***\000"
 1412              	.LC4:
 1413 0028 2A2A2A20 		.ascii	"*** Kernel:       \000"
 1413      4B65726E 
 1413      656C3A20 
 1413      20202020 
 1413      202000
 1414 003b 00       		.space	1
 1415              	.LC5:
 1416 003c 322E352E 		.ascii	"2.5.2unstable\000"
 1416      32756E73 
 1416      7461626C 
 1416      6500
 1417 004a 0000     		.space	2
 1418              	.LC6:
 1419 004c 2A2A2A20 		.ascii	"*** Compiled:     \000"
 1419      436F6D70 
 1419      696C6564 
 1419      3A202020 
 1419      202000
 1420 005f 00       		.space	1
 1421              	.LC7:
 1422 0060 4D617220 		.ascii	"Mar  3 2013 - 20:45:50\000"
 1422      20332032 
 1422      30313320 
 1422      2D203230 
 1422      3A34353A 
 1423 0077 00       		.space	1
 1424              	.LC8:
 1425 0078 2A2A2A20 		.ascii	"*** Compiler:     \000"
 1425      436F6D70 
 1425      696C6572 
 1425      3A202020 
 1425      202000
 1426 008b 00       		.space	1
 1427              	.LC9:
 1428 008c 47434320 		.ascii	"GCC 4.6.2 20121016 (release) [ARM/embedded-4_6-bran"
 1428      342E362E 
 1428      32203230 
 1428      31323130 
 1428      31362028 
 1429 00bf 63682072 		.ascii	"ch revision 192487]\000"
 1429      65766973 
 1429      696F6E20 
 1429      31393234 
 1429      38375D00 
 1430 00d3 00       		.space	1
 1431              	.LC10:
 1432 00d4 2A2A2A20 		.ascii	"*** Architecture: \000"
 1432      41726368 
 1432      69746563 
 1432      74757265 
 1432      3A2000
 1433 00e7 00       		.space	1
ARM GAS  C:\Users\TAISIK~1\AppData\Local\Temp\ccF9Wo1R.s 			page 27


 1434              	.LC11:
 1435 00e8 41524D76 		.ascii	"ARMv7-ME\000"
 1435      372D4D45 
 1435      00
 1436 00f1 000000   		.space	3
 1437              	.LC12:
 1438 00f4 2A2A2A20 		.ascii	"*** Core Variant: \000"
 1438      436F7265 
 1438      20566172 
 1438      69616E74 
 1438      3A2000
 1439 0107 00       		.space	1
 1440              	.LC13:
 1441 0108 436F7274 		.ascii	"Cortex-M4\000"
 1441      65782D4D 
 1441      3400
 1442 0112 0000     		.space	2
 1443              	.LC14:
 1444 0114 2A2A2A20 		.ascii	"*** Port Info:    \000"
 1444      506F7274 
 1444      20496E66 
 1444      6F3A2020 
 1444      202000
 1445 0127 00       		.space	1
 1446              	.LC15:
 1447 0128 41647661 		.ascii	"Advanced kernel mode\000"
 1447      6E636564 
 1447      206B6572 
 1447      6E656C20 
 1447      6D6F6465 
 1448 013d 000000   		.space	3
 1449              	.LC16:
 1450 0140 2A2A2A20 		.ascii	"*** Platform:     \000"
 1450      506C6174 
 1450      666F726D 
 1450      3A202020 
 1450      202000
 1451 0153 00       		.space	1
 1452              	.LC17:
 1453 0154 53544D33 		.ascii	"STM32F30x Analog & DSP\000"
 1453      32463330 
 1453      7820416E 
 1453      616C6F67 
 1453      20262044 
 1454 016b 00       		.space	1
 1455              	.LC18:
 1456 016c 2A2A2A20 		.ascii	"*** Test Board:   \000"
 1456      54657374 
 1456      20426F61 
 1456      72643A20 
 1456      202000
 1457 017f 00       		.space	1
 1458              	.LC19:
 1459 0180 53544D69 		.ascii	"STMicroelectronics STM32F3-Discovery\000"
 1459      63726F65 
 1459      6C656374 
 1459      726F6E69 
ARM GAS  C:\Users\TAISIK~1\AppData\Local\Temp\ccF9Wo1R.s 			page 28


 1459      63732053 
 1460 01a5 000000   		.space	3
 1461              	.LC20:
 1462 01a8 2D2D2D20 		.ascii	"--- Test Case \000"
 1462      54657374 
 1462      20436173 
 1462      652000
 1463 01b7 00       		.space	1
 1464              	.LC21:
 1465 01b8 2E00     		.ascii	".\000"
 1466 01ba 0000     		.space	2
 1467              	.LC22:
 1468 01bc 202800   		.ascii	" (\000"
 1469 01bf 00       		.space	1
 1470              	.LC23:
 1471 01c0 2900     		.ascii	")\000"
 1472 01c2 0000     		.space	2
 1473              	.LC24:
 1474 01c4 2D2D2D20 		.ascii	"--- Result: FAILURE (#\000"
 1474      52657375 
 1474      6C743A20 
 1474      4641494C 
 1474      55524520 
 1475 01db 00       		.space	1
 1476              	.LC25:
 1477 01dc 205B00   		.ascii	" [\000"
 1478 01df 00       		.space	1
 1479              	.LC26:
 1480 01e0 5D2900   		.ascii	"])\000"
 1481 01e3 00       		.space	1
 1482              	.LC27:
 1483 01e4 2D2D2D20 		.ascii	"--- Result: SUCCESS\000"
 1483      52657375 
 1483      6C743A20 
 1483      53554343 
 1483      45535300 
 1484              	.LC28:
 1485 01f8 46696E61 		.ascii	"Final result: \000"
 1485      6C207265 
 1485      73756C74 
 1485      3A2000
 1486 0207 00       		.space	1
 1487              	.LC29:
 1488 0208 4641494C 		.ascii	"FAILURE\000"
 1488      55524500 
 1489              	.LC30:
 1490 0210 53554343 		.ascii	"SUCCESS\000"
 1490      45535300 
 1491              		.section	.bss.vt,"aw",%nobits
 1492              		.align	2
 1493              		.set	.LANCHOR8,. + 0
 1494              		.type	vt, %object
 1495              		.size	vt, 20
 1496              	vt:
 1497 0000 00000000 		.space	20
 1497      00000000 
 1497      00000000 
ARM GAS  C:\Users\TAISIK~1\AppData\Local\Temp\ccF9Wo1R.s 			page 29


 1497      00000000 
 1497      00000000 
 1498              		.section	.bss.threads,"aw",%nobits
 1499              		.align	2
 1500              		.set	.LANCHOR7,. + 0
 1501              		.type	threads, %object
 1502              		.size	threads, 20
 1503              	threads:
 1504 0000 00000000 		.space	20
 1504      00000000 
 1504      00000000 
 1504      00000000 
 1504      00000000 
 1505              		.section	.rodata.patterns,"a",%progbits
 1506              		.align	2
 1507              		.set	.LANCHOR9,. + 0
 1508              		.type	patterns, %object
 1509              		.size	patterns, 48
 1510              	patterns:
 1511 0000 00000000 		.word	patternthd
 1512 0004 00000000 		.word	patternsem
 1513 0008 00000000 		.word	patternmtx
 1514 000c 00000000 		.word	patternmsg
 1515 0010 00000000 		.word	patternmbox
 1516 0014 00000000 		.word	patternevt
 1517 0018 00000000 		.word	patternheap
 1518 001c 00000000 		.word	patternpools
 1519 0020 00000000 		.word	patterndyn
 1520 0024 00000000 		.word	patternqueues
 1521 0028 00000000 		.word	patternbmk
 1522 002c 00000000 		.word	0
 1523              		.section	.bss.chp,"aw",%nobits
 1524              		.align	2
 1525              		.set	.LANCHOR1,. + 0
 1526              		.type	chp, %object
 1527              		.size	chp, 4
 1528              	chp:
 1529 0000 00000000 		.space	4
 1530              		.section	.bss.tokens_buffer,"aw",%nobits
 1531              		.align	2
 1532              		.set	.LANCHOR6,. + 0
 1533              		.type	tokens_buffer, %object
 1534              		.size	tokens_buffer, 16
 1535              	tokens_buffer:
 1536 0000 00000000 		.space	16
 1536      00000000 
 1536      00000000 
 1536      00000000 
 1537              		.text
 1538              	.Letext0:
 1539              		.file 2 "c:\\chibistudio\\tools\\gnu tools arm embedded\\4.6 2012q4\\bin\\../lib/gcc/arm-none-eabi
 1540              		.file 3 "c:\\chibistudio\\tools\\gnu tools arm embedded\\4.6 2012q4\\bin\\../lib/gcc/arm-none-eabi
 1541              		.file 4 "../../os/ports/GCC/ARMCMx/chtypes.h"
 1542              		.file 5 "../../os/kernel/include/chlists.h"
 1543              		.file 6 "../../os/kernel/include/chthreads.h"
 1544              		.file 7 "../../os/ports/GCC/ARMCMx/chcore_v7m.h"
 1545              		.file 8 "../../os/kernel/include/chvt.h"
ARM GAS  C:\Users\TAISIK~1\AppData\Local\Temp\ccF9Wo1R.s 			page 30


 1546              		.file 9 "../../os/kernel/include/chschd.h"
 1547              		.file 10 "../../os/kernel/include/chmtx.h"
 1548              		.file 11 "../../os/kernel/include/chstreams.h"
 1549              		.file 12 "../../test/test.h"
 1550              		.file 13 "../../os/ports/common/ARMCMx/CMSIS/include/core_cm4.h"
 1551              		.file 14 "../../test/testthd.h"
 1552              		.file 15 "../../test/testsem.h"
 1553              		.file 16 "../../test/testmtx.h"
 1554              		.file 17 "../../test/testmsg.h"
 1555              		.file 18 "../../test/testmbox.h"
 1556              		.file 19 "../../test/testevt.h"
 1557              		.file 20 "../../test/testheap.h"
 1558              		.file 21 "../../test/testpools.h"
 1559              		.file 22 "../../test/testdyn.h"
 1560              		.file 23 "../../test/testqueues.h"
 1561              		.file 24 "../../test/testbmk.h"