ARM GAS  C:\Users\TAISIK~1\AppData\Local\Temp\ccNdz0rF.s 			page 1


   1              		.syntax unified
   2              		.cpu cortex-m4
   3              		.fpu softvfp
   4              		.eabi_attribute 20, 1
   5              		.eabi_attribute 21, 1
   6              		.eabi_attribute 23, 3
   7              		.eabi_attribute 24, 1
   8              		.eabi_attribute 25, 1
   9              		.eabi_attribute 26, 1
  10              		.eabi_attribute 30, 2
  11              		.eabi_attribute 34, 1
  12              		.eabi_attribute 18, 4
  13              		.thumb
  14              		.file	"testpools.c"
  15              		.text
  16              	.Ltext0:
  17              		.cfi_sections	.debug_frame
  18              		.section	.text.null_provider,"ax",%progbits
  19              		.align	2
  20              		.p2align 4,,15
  21              		.thumb
  22              		.thumb_func
  23              		.type	null_provider, %function
  24              	null_provider:
  25              	.LFB7:
  26              		.file 1 "../../test/testpools.c"
  27              		.loc 1 64 0
  28              		.cfi_startproc
  29              		@ args = 0, pretend = 0, frame = 0
  30              		@ frame_needed = 0, uses_anonymous_args = 0
  31              		@ link register save eliminated.
  32              	.LVL0:
  33              		.loc 1 68 0
  34 0000 0020     		movs	r0, #0
  35              	.LVL1:
  36 0002 7047     		bx	lr
  37              		.cfi_endproc
  38              	.LFE7:
  39              		.size	null_provider, .-null_provider
  40 0004 AFF30080 		.section	.text.pools1_setup,"ax",%progbits
  40      AFF30080 
  40      AFF30080 
  41              		.align	2
  42              		.p2align 4,,15
  43              		.thumb
  44              		.thumb_func
  45              		.type	pools1_setup, %function
  46              	pools1_setup:
  47              	.LFB8:
  48              		.loc 1 70 0
  49              		.cfi_startproc
  50              		@ args = 0, pretend = 0, frame = 0
  51              		@ frame_needed = 0, uses_anonymous_args = 0
  52              		@ link register save eliminated.
  53              		.loc 1 72 0
  54 0000 40F20000 		movw	r0, #:lower16:.LANCHOR0
  55 0004 C0F20000 		movt	r0, #:upper16:.LANCHOR0
ARM GAS  C:\Users\TAISIK~1\AppData\Local\Temp\ccNdz0rF.s 			page 2


  56 0008 4FF49871 		mov	r1, #304
  57 000c 0022     		movs	r2, #0
  58              		.loc 1 73 0
  59              		.loc 1 72 0
  60 000e FFF7FEBF 		b	chPoolInit
  61              		.cfi_endproc
  62              	.LFE8:
  63              		.size	pools1_setup, .-pools1_setup
  64 0012 00BFAFF3 		.section	.text.pools1_execute,"ax",%progbits
  64      0080AFF3 
  64      0080AFF3 
  64      0080
  65              		.align	2
  66              		.p2align 4,,15
  67              		.thumb
  68              		.thumb_func
  69              		.type	pools1_execute, %function
  70              	pools1_execute:
  71              	.LFB9:
  72              		.loc 1 75 0
  73              		.cfi_startproc
  74              		@ args = 0, pretend = 0, frame = 0
  75              		@ frame_needed = 0, uses_anonymous_args = 0
  76 0000 38B5     		push	{r3, r4, r5, lr}
  77              	.LCFI0:
  78              		.cfi_def_cfa_offset 16
  79              		.cfi_offset 14, -4
  80              		.cfi_offset 5, -8
  81              		.cfi_offset 4, -12
  82              		.cfi_offset 3, -16
  83              		.loc 1 79 0
  84 0002 574C     		ldr	r4, .L7
  85 0004 5748     		ldr	r0, .L7+4
  86 0006 2568     		ldr	r5, [r4, #0]
  87 0008 0522     		movs	r2, #5
  88 000a 2946     		mov	r1, r5
  89 000c FFF7FEFF 		bl	chPoolLoadArray
  90              	.LVL2:
  91              		.loc 1 83 0
  92 0010 5448     		ldr	r0, .L7+4
  93 0012 FFF7FEFF 		bl	chPoolAlloc
  94 0016 011C     		adds	r1, r0, #0
  95 0018 18BF     		it	ne
  96 001a 0121     		movne	r1, #1
  97 001c 0120     		movs	r0, #1
  98 001e FFF7FEFF 		bl	_test_assert
  99 0022 0028     		cmp	r0, #0
 100 0024 40F08A80 		bne	.L3
 101              	.LVL3:
 102 0028 4E48     		ldr	r0, .L7+4
 103 002a FFF7FEFF 		bl	chPoolAlloc
 104 002e 011C     		adds	r1, r0, #0
 105 0030 18BF     		it	ne
 106 0032 0121     		movne	r1, #1
 107 0034 0120     		movs	r0, #1
 108 0036 FFF7FEFF 		bl	_test_assert
 109 003a 0028     		cmp	r0, #0
ARM GAS  C:\Users\TAISIK~1\AppData\Local\Temp\ccNdz0rF.s 			page 3


 110 003c 7ED1     		bne	.L3
 111              	.LVL4:
 112 003e 4948     		ldr	r0, .L7+4
 113 0040 FFF7FEFF 		bl	chPoolAlloc
 114 0044 011C     		adds	r1, r0, #0
 115 0046 18BF     		it	ne
 116 0048 0121     		movne	r1, #1
 117 004a 0120     		movs	r0, #1
 118 004c FFF7FEFF 		bl	_test_assert
 119 0050 0028     		cmp	r0, #0
 120 0052 73D1     		bne	.L3
 121              	.LVL5:
 122 0054 4348     		ldr	r0, .L7+4
 123 0056 FFF7FEFF 		bl	chPoolAlloc
 124 005a 011C     		adds	r1, r0, #0
 125 005c 18BF     		it	ne
 126 005e 0121     		movne	r1, #1
 127 0060 0120     		movs	r0, #1
 128 0062 FFF7FEFF 		bl	_test_assert
 129 0066 0028     		cmp	r0, #0
 130 0068 68D1     		bne	.L3
 131              	.LVL6:
 132 006a 3E48     		ldr	r0, .L7+4
 133 006c FFF7FEFF 		bl	chPoolAlloc
 134 0070 011C     		adds	r1, r0, #0
 135 0072 18BF     		it	ne
 136 0074 0121     		movne	r1, #1
 137 0076 0120     		movs	r0, #1
 138 0078 FFF7FEFF 		bl	_test_assert
 139 007c 0028     		cmp	r0, #0
 140 007e 5DD1     		bne	.L3
 141              	.LVL7:
 142              		.loc 1 86 0
 143 0080 3848     		ldr	r0, .L7+4
 144 0082 FFF7FEFF 		bl	chPoolAlloc
 145 0086 D0F10101 		rsbs	r1, r0, #1
 146 008a 38BF     		it	cc
 147 008c 0021     		movcc	r1, #0
 148 008e 0220     		movs	r0, #2
 149 0090 FFF7FEFF 		bl	_test_assert
 150 0094 0028     		cmp	r0, #0
 151 0096 51D1     		bne	.L3
 152              	.LBB4:
 153              	.LBB5:
 154              		.loc 1 90 0
 155 0098 3248     		ldr	r0, .L7+4
 156 009a 2946     		mov	r1, r5
 157 009c FFF7FEFF 		bl	chPoolFree
 158              	.LVL8:
 159 00a0 6168     		ldr	r1, [r4, #4]
 160 00a2 3048     		ldr	r0, .L7+4
 161 00a4 FFF7FEFF 		bl	chPoolFree
 162              	.LVL9:
 163 00a8 A168     		ldr	r1, [r4, #8]
 164 00aa 2E48     		ldr	r0, .L7+4
 165 00ac FFF7FEFF 		bl	chPoolFree
 166              	.LVL10:
ARM GAS  C:\Users\TAISIK~1\AppData\Local\Temp\ccNdz0rF.s 			page 4


 167 00b0 E168     		ldr	r1, [r4, #12]
 168 00b2 2C48     		ldr	r0, .L7+4
 169 00b4 FFF7FEFF 		bl	chPoolFree
 170              	.LVL11:
 171 00b8 2169     		ldr	r1, [r4, #16]
 172 00ba 2A48     		ldr	r0, .L7+4
 173 00bc FFF7FEFF 		bl	chPoolFree
 174              	.LVL12:
 175              		.loc 1 94 0
 176 00c0 2848     		ldr	r0, .L7+4
 177 00c2 FFF7FEFF 		bl	chPoolAlloc
 178 00c6 011C     		adds	r1, r0, #0
 179 00c8 18BF     		it	ne
 180 00ca 0121     		movne	r1, #1
 181 00cc 0320     		movs	r0, #3
 182 00ce FFF7FEFF 		bl	_test_assert
 183 00d2 0028     		cmp	r0, #0
 184 00d4 32D1     		bne	.L3
 185              	.LVL13:
 186 00d6 2348     		ldr	r0, .L7+4
 187 00d8 FFF7FEFF 		bl	chPoolAlloc
 188 00dc 011C     		adds	r1, r0, #0
 189 00de 18BF     		it	ne
 190 00e0 0121     		movne	r1, #1
 191 00e2 0320     		movs	r0, #3
 192 00e4 FFF7FEFF 		bl	_test_assert
 193 00e8 40BB     		cbnz	r0, .L3
 194              	.LVL14:
 195 00ea 1E48     		ldr	r0, .L7+4
 196 00ec FFF7FEFF 		bl	chPoolAlloc
 197 00f0 011C     		adds	r1, r0, #0
 198 00f2 18BF     		it	ne
 199 00f4 0121     		movne	r1, #1
 200 00f6 0320     		movs	r0, #3
 201 00f8 FFF7FEFF 		bl	_test_assert
 202 00fc F0B9     		cbnz	r0, .L3
 203              	.LVL15:
 204 00fe 1948     		ldr	r0, .L7+4
 205 0100 FFF7FEFF 		bl	chPoolAlloc
 206 0104 011C     		adds	r1, r0, #0
 207 0106 18BF     		it	ne
 208 0108 0121     		movne	r1, #1
 209 010a 0320     		movs	r0, #3
 210 010c FFF7FEFF 		bl	_test_assert
 211 0110 A0B9     		cbnz	r0, .L3
 212              	.LVL16:
 213 0112 1448     		ldr	r0, .L7+4
 214 0114 FFF7FEFF 		bl	chPoolAlloc
 215 0118 011C     		adds	r1, r0, #0
 216 011a 18BF     		it	ne
 217 011c 0121     		movne	r1, #1
 218 011e 0320     		movs	r0, #3
 219 0120 FFF7FEFF 		bl	_test_assert
 220 0124 50B9     		cbnz	r0, .L3
 221              	.LVL17:
 222              		.loc 1 97 0
 223 0126 0F48     		ldr	r0, .L7+4
ARM GAS  C:\Users\TAISIK~1\AppData\Local\Temp\ccNdz0rF.s 			page 5


 224 0128 FFF7FEFF 		bl	chPoolAlloc
 225 012c D0F10101 		rsbs	r1, r0, #1
 226 0130 38BF     		it	cc
 227 0132 0021     		movcc	r1, #0
 228 0134 0420     		movs	r0, #4
 229 0136 FFF7FEFF 		bl	_test_assert
 230 013a 00B1     		cbz	r0, .L6
 231              	.LVL18:
 232              	.L3:
 233 013c 38BD     		pop	{r3, r4, r5, pc}
 234              	.LVL19:
 235              	.L6:
 236              		.loc 1 100 0
 237 013e 1021     		movs	r1, #16
 238 0140 094A     		ldr	r2, .L7+8
 239 0142 0848     		ldr	r0, .L7+4
 240 0144 FFF7FEFF 		bl	chPoolInit
 241              		.loc 1 101 0
 242 0148 0648     		ldr	r0, .L7+4
 243 014a FFF7FEFF 		bl	chPoolAlloc
 244 014e D0F10101 		rsbs	r1, r0, #1
 245 0152 38BF     		it	cc
 246 0154 0021     		movcc	r1, #0
 247 0156 0520     		movs	r0, #5
 248              	.LBE5:
 249              	.LBE4:
 250              		.loc 1 102 0
 251 0158 BDE83840 		pop	{r3, r4, r5, lr}
 252              	.LBB7:
 253              	.LBB6:
 254              		.loc 1 101 0
 255 015c FFF7FEBF 		b	_test_assert
 256              	.L8:
 257              		.align	2
 258              	.L7:
 259 0160 00000000 		.word	wa
 260 0164 00000000 		.word	.LANCHOR0
 261 0168 00000000 		.word	null_provider
 262              	.LBE6:
 263              	.LBE7:
 264              		.cfi_endproc
 265              	.LFE9:
 266              		.size	pools1_execute, .-pools1_execute
 267              		.global	patternpools
 268              		.global	testpools1
 269 016c AFF30080 		.section	.rodata.str1.4,"aMS",%progbits,1
 270              		.align	2
 271              	.LC0:
 272 0000 4D656D6F 		.ascii	"Memory Pools, queue/dequeue\000"
 272      72792050 
 272      6F6F6C73 
 272      2C207175 
 272      6575652F 
 273              		.section	.rodata.patternpools,"a",%progbits
 274              		.align	2
 275              		.type	patternpools, %object
 276              		.size	patternpools, 8
ARM GAS  C:\Users\TAISIK~1\AppData\Local\Temp\ccNdz0rF.s 			page 6


 277              	patternpools:
 278 0000 00000000 		.word	testpools1
 279 0004 00000000 		.word	0
 280              		.section	.data.mp1,"aw",%progbits
 281              		.align	2
 282              		.set	.LANCHOR0,. + 0
 283              		.type	mp1, %object
 284              		.size	mp1, 12
 285              	mp1:
 286 0000 00000000 		.word	0
 287 0004 30010000 		.word	304
 288 0008 00000000 		.word	0
 289              		.section	.rodata.testpools1,"a",%progbits
 290              		.align	2
 291              		.type	testpools1, %object
 292              		.size	testpools1, 16
 293              	testpools1:
 294 0000 00000000 		.word	.LC0
 295 0004 00000000 		.word	pools1_setup
 296 0008 00000000 		.word	0
 297 000c 00000000 		.word	pools1_execute
 298              		.text
 299              	.Letext0:
 300              		.file 2 "c:\\chibistudio\\tools\\gnu tools arm embedded\\4.6 2012q4\\bin\\../lib/gcc/arm-none-eabi
 301              		.file 3 "../../os/kernel/include/chmemcore.h"
 302              		.file 4 "../../os/kernel/include/chmempools.h"
 303              		.file 5 "../../test/test.h"