ARM GAS  C:\Users\TAISIK~1\AppData\Local\Temp\ccZJTFka.s 			page 1


   1              		.syntax unified
   2              		.cpu cortex-m4
   3              		.fpu softvfp
   4              		.eabi_attribute 20, 1
   5              		.eabi_attribute 21, 1
   6              		.eabi_attribute 23, 3
   7              		.eabi_attribute 24, 1
   8              		.eabi_attribute 25, 1
   9              		.eabi_attribute 26, 1
  10              		.eabi_attribute 30, 2
  11              		.eabi_attribute 34, 1
  12              		.eabi_attribute 18, 4
  13              		.thumb
  14              		.file	"testqueues.c"
  15              		.text
  16              	.Ltext0:
  17              		.cfi_sections	.debug_frame
  18              		.section	.text.notify,"ax",%progbits
  19              		.align	2
  20              		.p2align 4,,15
  21              		.thumb
  22              		.thumb_func
  23              		.type	notify, %function
  24              	notify:
  25              	.LFB7:
  26              		.file 1 "../../test/testqueues.c"
  27              		.loc 1 61 0
  28              		.cfi_startproc
  29              		@ args = 0, pretend = 0, frame = 0
  30              		@ frame_needed = 0, uses_anonymous_args = 0
  31              		@ link register save eliminated.
  32              	.LVL0:
  33              		.loc 1 63 0
  34 0000 7047     		bx	lr
  35              		.cfi_endproc
  36              	.LFE7:
  37              		.size	notify, .-notify
  38 0002 00BFAFF3 		.section	.text.thread2,"ax",%progbits
  38      0080AFF3 
  38      0080AFF3 
  38      0080
  39              		.align	2
  40              		.p2align 4,,15
  41              		.thumb
  42              		.thumb_func
  43              		.type	thread2, %function
  44              	thread2:
  45              	.LFB12:
  46              		.loc 1 174 0
  47              		.cfi_startproc
  48              		@ args = 0, pretend = 0, frame = 0
  49              		@ frame_needed = 0, uses_anonymous_args = 0
  50              	.LVL1:
  51              		.loc 1 177 0
  52 0000 40F20000 		movw	r0, #:lower16:.LANCHOR0
  53              	.LVL2:
  54              		.loc 1 174 0
ARM GAS  C:\Users\TAISIK~1\AppData\Local\Temp\ccZJTFka.s 			page 2


  55 0004 08B5     		push	{r3, lr}
  56              	.LCFI0:
  57              		.cfi_def_cfa_offset 8
  58              		.cfi_offset 14, -4
  59              		.cfi_offset 3, -8
  60              		.loc 1 177 0
  61 0006 0021     		movs	r1, #0
  62 0008 C822     		movs	r2, #200
  63 000a C0F20000 		movt	r0, #:upper16:.LANCHOR0
  64 000e FFF7FEFF 		bl	chOQPutTimeout
  65              		.loc 1 179 0
  66 0012 0020     		movs	r0, #0
  67 0014 08BD     		pop	{r3, pc}
  68              		.cfi_endproc
  69              	.LFE12:
  70              		.size	thread2, .-thread2
  71 0016 00BFAFF3 		.section	.text.queues2_setup,"ax",%progbits
  71      0080AFF3 
  71      0080
  72              		.align	2
  73              		.p2align 4,,15
  74              		.thumb
  75              		.thumb_func
  76              		.type	queues2_setup, %function
  77              	queues2_setup:
  78              	.LFB11:
  79              		.loc 1 169 0
  80              		.cfi_startproc
  81              		@ args = 0, pretend = 0, frame = 0
  82              		@ frame_needed = 0, uses_anonymous_args = 0
  83 0000 00B5     		push	{lr}
  84              	.LCFI1:
  85              		.cfi_def_cfa_offset 4
  86              		.cfi_offset 14, -4
  87              		.loc 1 171 0
  88 0002 40F20003 		movw	r3, #:lower16:wa
  89 0006 C0F20003 		movt	r3, #:upper16:wa
  90              		.loc 1 169 0
  91 000a 83B0     		sub	sp, sp, #12
  92              	.LCFI2:
  93              		.cfi_def_cfa_offset 16
  94              		.loc 1 171 0
  95 000c 0022     		movs	r2, #0
  96 000e 1968     		ldr	r1, [r3, #0]
  97 0010 0092     		str	r2, [sp, #0]
  98 0012 40F20000 		movw	r0, #:lower16:.LANCHOR0
  99 0016 40F20003 		movw	r3, #:lower16:notify
 100 001a C0F20003 		movt	r3, #:upper16:notify
 101 001e C0F20000 		movt	r0, #:upper16:.LANCHOR0
 102 0022 0422     		movs	r2, #4
 103 0024 FFF7FEFF 		bl	chOQInit
 104              		.loc 1 172 0
 105 0028 03B0     		add	sp, sp, #12
 106 002a 00BD     		pop	{pc}
 107              		.cfi_endproc
 108              	.LFE11:
 109              		.size	queues2_setup, .-queues2_setup
ARM GAS  C:\Users\TAISIK~1\AppData\Local\Temp\ccZJTFka.s 			page 3


 110 002c AFF30080 		.section	.text.thread1,"ax",%progbits
 111              		.align	2
 112              		.p2align 4,,15
 113              		.thumb
 114              		.thumb_func
 115              		.type	thread1, %function
 116              	thread1:
 117              	.LFB9:
 118              		.loc 1 87 0
 119              		.cfi_startproc
 120              		@ args = 0, pretend = 0, frame = 0
 121              		@ frame_needed = 0, uses_anonymous_args = 0
 122              	.LVL3:
 123              		.loc 1 90 0
 124 0000 40F20000 		movw	r0, #:lower16:.LANCHOR1
 125              	.LVL4:
 126              		.loc 1 87 0
 127 0004 08B5     		push	{r3, lr}
 128              	.LCFI3:
 129              		.cfi_def_cfa_offset 8
 130              		.cfi_offset 14, -4
 131              		.cfi_offset 3, -8
 132              		.loc 1 90 0
 133 0006 C821     		movs	r1, #200
 134 0008 C0F20000 		movt	r0, #:upper16:.LANCHOR1
 135 000c FFF7FEFF 		bl	chIQGetTimeout
 136              		.loc 1 92 0
 137 0010 0020     		movs	r0, #0
 138 0012 08BD     		pop	{r3, pc}
 139              		.cfi_endproc
 140              	.LFE9:
 141              		.size	thread1, .-thread1
 142 0014 AFF30080 		.section	.text.queues1_setup,"ax",%progbits
 142      AFF30080 
 142      AFF30080 
 143              		.align	2
 144              		.p2align 4,,15
 145              		.thumb
 146              		.thumb_func
 147              		.type	queues1_setup, %function
 148              	queues1_setup:
 149              	.LFB8:
 150              		.loc 1 82 0
 151              		.cfi_startproc
 152              		@ args = 0, pretend = 0, frame = 0
 153              		@ frame_needed = 0, uses_anonymous_args = 0
 154 0000 00B5     		push	{lr}
 155              	.LCFI4:
 156              		.cfi_def_cfa_offset 4
 157              		.cfi_offset 14, -4
 158              		.loc 1 84 0
 159 0002 40F20003 		movw	r3, #:lower16:wa
 160 0006 C0F20003 		movt	r3, #:upper16:wa
 161              		.loc 1 82 0
 162 000a 83B0     		sub	sp, sp, #12
 163              	.LCFI5:
 164              		.cfi_def_cfa_offset 16
ARM GAS  C:\Users\TAISIK~1\AppData\Local\Temp\ccZJTFka.s 			page 4


 165              		.loc 1 84 0
 166 000c 0022     		movs	r2, #0
 167 000e 1968     		ldr	r1, [r3, #0]
 168 0010 0092     		str	r2, [sp, #0]
 169 0012 40F20000 		movw	r0, #:lower16:.LANCHOR1
 170 0016 40F20003 		movw	r3, #:lower16:notify
 171 001a C0F20003 		movt	r3, #:upper16:notify
 172 001e C0F20000 		movt	r0, #:upper16:.LANCHOR1
 173 0022 0422     		movs	r2, #4
 174 0024 FFF7FEFF 		bl	chIQInit
 175              		.loc 1 85 0
 176 0028 03B0     		add	sp, sp, #12
 177 002a 00BD     		pop	{pc}
 178              		.cfi_endproc
 179              	.LFE8:
 180              		.size	queues1_setup, .-queues1_setup
 181 002c AFF30080 		.section	.text.queues2_execute,"ax",%progbits
 182              		.align	2
 183              		.p2align 4,,15
 184              		.thumb
 185              		.thumb_func
 186              		.type	queues2_execute, %function
 187              	queues2_execute:
 188              	.LFB13:
 189              		.loc 1 181 0
 190              		.cfi_startproc
 191              		@ args = 0, pretend = 0, frame = 0
 192              		@ frame_needed = 0, uses_anonymous_args = 0
 193 0000 2DE9F041 		push	{r4, r5, r6, r7, r8, lr}
 194              	.LCFI6:
 195              		.cfi_def_cfa_offset 24
 196              		.cfi_offset 14, -4
 197              		.cfi_offset 8, -8
 198              		.cfi_offset 7, -12
 199              		.cfi_offset 6, -16
 200              		.cfi_offset 5, -20
 201              		.cfi_offset 4, -24
 202              	.LBB96:
 203              		.loc 1 186 0
 204 0004 2023     		movs	r3, #32
 205              	.LVL5:
 206              	.LBE96:
 207              		.loc 1 181 0
 208 0006 82B0     		sub	sp, sp, #8
 209              	.LCFI7:
 210              		.cfi_def_cfa_offset 32
 211              	.LBB97:
 212              		.loc 1 186 0
 213              	@ 186 "../../test/testqueues.c" 1
 214 0008 83F31188 		msr     BASEPRI, r3
 215              	@ 0 "" 2
 216              	.LVL6:
 217              		.thumb
 218              	.LBE97:
 219 000c AC4D     		ldr	r5, .L25
 220 000e 6A69     		ldr	r2, [r5, #20]
 221 0010 AB69     		ldr	r3, [r5, #24]
ARM GAS  C:\Users\TAISIK~1\AppData\Local\Temp\ccZJTFka.s 			page 5


 222              	.LVL7:
 223 0012 9A42     		cmp	r2, r3
 224 0014 00F09780 		beq	.L23
 225 0018 0021     		movs	r1, #0
 226              	.L7:
 227              		.loc 1 186 0 is_stmt 0 discriminator 4
 228 001a 0120     		movs	r0, #1
 229 001c FFF7FEFF 		bl	_test_assert
 230 0020 0646     		mov	r6, r0
 231 0022 0028     		cmp	r0, #0
 232 0024 68D1     		bne	.L20
 233              	.LBB98:
 234              	.LBB99:
 235              	.LBB100:
 236              		.loc 1 186 0
 237 0026 0346     		mov	r3, r0
 238              	.LVL8:
 239              	@ 186 "../../test/testqueues.c" 1
 240 0028 83F31188 		msr     BASEPRI, r3
 241              	@ 0 "" 2
 242              	.LVL9:
 243              		.thumb
 244              	.LBE100:
 245              		.loc 1 190 0 is_stmt 1
 246 002c A44C     		ldr	r4, .L25
 247 002e 4121     		movs	r1, #65
 248 0030 2046     		mov	r0, r4
 249 0032 4FF0FF32 		mov	r2, #-1
 250 0036 FFF7FEFF 		bl	chOQPutTimeout
 251              	.LVL10:
 252 003a 4221     		movs	r1, #66
 253 003c 2046     		mov	r0, r4
 254 003e 4FF0FF32 		mov	r2, #-1
 255 0042 FFF7FEFF 		bl	chOQPutTimeout
 256              	.LVL11:
 257 0046 4321     		movs	r1, #67
 258 0048 2046     		mov	r0, r4
 259 004a 4FF0FF32 		mov	r2, #-1
 260 004e FFF7FEFF 		bl	chOQPutTimeout
 261              	.LVL12:
 262 0052 2046     		mov	r0, r4
 263 0054 4421     		movs	r1, #68
 264 0056 4FF0FF32 		mov	r2, #-1
 265 005a FFF7FEFF 		bl	chOQPutTimeout
 266              	.LVL13:
 267              	.LBB101:
 268              		.loc 1 191 0
 269 005e 2023     		movs	r3, #32
 270              	.LVL14:
 271              	@ 191 "../../test/testqueues.c" 1
 272 0060 83F31188 		msr     BASEPRI, r3
 273              	@ 0 "" 2
 274              	.LVL15:
 275              		.thumb
 276              	.LBE101:
 277 0064 A868     		ldr	r0, [r5, #8]
 278 0066 D0F10101 		rsbs	r1, r0, #1
ARM GAS  C:\Users\TAISIK~1\AppData\Local\Temp\ccZJTFka.s 			page 6


 279 006a 38BF     		it	cc
 280 006c 0021     		movcc	r1, #0
 281 006e 0220     		movs	r0, #2
 282 0070 FFF7FEFF 		bl	_test_assert
 283              	.LVL16:
 284 0074 0546     		mov	r5, r0
 285 0076 0028     		cmp	r0, #0
 286 0078 44D1     		bne	.L21
 287              	.LBB102:
 288 007a 0346     		mov	r3, r0
 289              	.LVL17:
 290              	@ 191 "../../test/testqueues.c" 1
 291 007c 83F31188 		msr     BASEPRI, r3
 292              	@ 0 "" 2
 293              	.LVL18:
 294              		.thumb
 295              	.LBE102:
 296              	.LBB103:
 297              	.LBB104:
 298              		.loc 1 197 0
 299 0080 2023     		movs	r3, #32
 300              	.LVL19:
 301              	@ 197 "../../test/testqueues.c" 1
 302 0082 83F31188 		msr     BASEPRI, r3
 303              	@ 0 "" 2
 304              	.LVL20:
 305              		.thumb
 306              	.LBE104:
 307              		.loc 1 198 0
 308 0086 2046     		mov	r0, r4
 309 0088 FFF7FEFF 		bl	chOQGetI
 310              	.LVL21:
 311              	.LBB105:
 312              		.loc 1 199 0
 313 008c 2B46     		mov	r3, r5
 314              	.LVL22:
 315              	@ 199 "../../test/testqueues.c" 1
 316 008e 83F31188 		msr     BASEPRI, r3
 317              	@ 0 "" 2
 318              	.LVL23:
 319              		.thumb
 320              	.LBE105:
 321              		.loc 1 200 0
 322 0092 C0B2     		uxtb	r0, r0
 323              	.LVL24:
 324 0094 FFF7FEFF 		bl	test_emit_token
 325              	.LVL25:
 326              	.LBB106:
 327              		.loc 1 197 0
 328 0098 2023     		movs	r3, #32
 329              	@ 197 "../../test/testqueues.c" 1
 330 009a 83F31188 		msr     BASEPRI, r3
 331              	@ 0 "" 2
 332              	.LVL26:
 333              		.thumb
 334              	.LBE106:
 335              		.loc 1 198 0
ARM GAS  C:\Users\TAISIK~1\AppData\Local\Temp\ccZJTFka.s 			page 7


 336 009e 2046     		mov	r0, r4
 337 00a0 FFF7FEFF 		bl	chOQGetI
 338              	.LVL27:
 339              	.LBB107:
 340              		.loc 1 199 0
 341 00a4 2B46     		mov	r3, r5
 342              	@ 199 "../../test/testqueues.c" 1
 343 00a6 83F31188 		msr     BASEPRI, r3
 344              	@ 0 "" 2
 345              	.LVL28:
 346              		.thumb
 347              	.LBE107:
 348              		.loc 1 200 0
 349 00aa C0B2     		uxtb	r0, r0
 350              	.LVL29:
 351 00ac FFF7FEFF 		bl	test_emit_token
 352              	.LVL30:
 353              	.LBB108:
 354              		.loc 1 197 0
 355 00b0 2023     		movs	r3, #32
 356              	@ 197 "../../test/testqueues.c" 1
 357 00b2 83F31188 		msr     BASEPRI, r3
 358              	@ 0 "" 2
 359              	.LVL31:
 360              		.thumb
 361              	.LBE108:
 362              		.loc 1 198 0
 363 00b6 2046     		mov	r0, r4
 364 00b8 FFF7FEFF 		bl	chOQGetI
 365              	.LVL32:
 366              	.LBB109:
 367              		.loc 1 199 0
 368 00bc 2B46     		mov	r3, r5
 369              	@ 199 "../../test/testqueues.c" 1
 370 00be 83F31188 		msr     BASEPRI, r3
 371              	@ 0 "" 2
 372              	.LVL33:
 373              		.thumb
 374              	.LBE109:
 375              		.loc 1 200 0
 376 00c2 C0B2     		uxtb	r0, r0
 377              	.LVL34:
 378 00c4 FFF7FEFF 		bl	test_emit_token
 379              	.LVL35:
 380              	.LBB110:
 381              		.loc 1 197 0
 382 00c8 2023     		movs	r3, #32
 383              	@ 197 "../../test/testqueues.c" 1
 384 00ca 83F31188 		msr     BASEPRI, r3
 385              	@ 0 "" 2
 386              	.LVL36:
 387              		.thumb
 388              	.LBE110:
 389              		.loc 1 198 0
 390 00ce 2046     		mov	r0, r4
 391 00d0 FFF7FEFF 		bl	chOQGetI
 392              	.LVL37:
ARM GAS  C:\Users\TAISIK~1\AppData\Local\Temp\ccZJTFka.s 			page 8


 393              	.LBB111:
 394              		.loc 1 199 0
 395 00d4 2B46     		mov	r3, r5
 396              	@ 199 "../../test/testqueues.c" 1
 397 00d6 83F31188 		msr     BASEPRI, r3
 398              	@ 0 "" 2
 399              	.LVL38:
 400              		.thumb
 401              	.LBE111:
 402              		.loc 1 200 0
 403 00da C0B2     		uxtb	r0, r0
 404              	.LVL39:
 405 00dc FFF7FEFF 		bl	test_emit_token
 406              	.LVL40:
 407              	.LBE103:
 408              	.LBB112:
 409              		.loc 1 202 0
 410 00e0 2023     		movs	r3, #32
 411              	.LVL41:
 412              	@ 202 "../../test/testqueues.c" 1
 413 00e2 83F31188 		msr     BASEPRI, r3
 414              	@ 0 "" 2
 415              	.LVL42:
 416              		.thumb
 417              	.LBE112:
 418 00e6 6269     		ldr	r2, [r4, #20]
 419 00e8 A369     		ldr	r3, [r4, #24]
 420              	.LVL43:
 421 00ea 9A42     		cmp	r2, r3
 422 00ec 30D0     		beq	.L24
 423 00ee 2946     		mov	r1, r5
 424              	.L11:
 425 00f0 0320     		movs	r0, #3
 426 00f2 FFF7FEFF 		bl	_test_assert
 427 00f6 48B1     		cbz	r0, .L12
 428              	.LVL44:
 429              	.L20:
 430              	.LBB113:
 431 00f8 0023     		movs	r3, #0
 432              	.LVL45:
 433              	@ 202 "../../test/testqueues.c" 1
 434 00fa 83F31188 		msr     BASEPRI, r3
 435              	@ 0 "" 2
 436              	.LVL46:
 437              		.thumb
 438              	.L6:
 439              	.LBE113:
 440              	.LBE99:
 441              	.LBE98:
 442              		.loc 1 229 0
 443 00fe 02B0     		add	sp, sp, #8
 444 0100 BDE8F081 		pop	{r4, r5, r6, r7, r8, pc}
 445              	.LVL47:
 446              	.L21:
 447              	.LBB135:
 448              	.LBB132:
 449              	.LBB114:
ARM GAS  C:\Users\TAISIK~1\AppData\Local\Temp\ccZJTFka.s 			page 9


 450              		.loc 1 218 0
 451 0104 3346     		mov	r3, r6
 452              	@ 218 "../../test/testqueues.c" 1
 453 0106 83F31188 		msr     BASEPRI, r3
 454              	@ 0 "" 2
 455              	.LVL48:
 456              		.thumb
 457 010a F8E7     		b	.L6
 458              	.LVL49:
 459              	.L12:
 460              	.LBE114:
 461              	.LBB115:
 462              		.loc 1 202 0
 463 010c 0346     		mov	r3, r0
 464              	.LVL50:
 465              	@ 202 "../../test/testqueues.c" 1
 466 010e 83F31188 		msr     BASEPRI, r3
 467              	@ 0 "" 2
 468              	.LVL51:
 469              		.thumb
 470              	.LBE115:
 471              		.loc 1 203 0
 472 0112 0420     		movs	r0, #4
 473 0114 6B49     		ldr	r1, .L25+4
 474 0116 FFF7FEFF 		bl	_test_assert_sequence
 475              	.LVL52:
 476 011a 0546     		mov	r5, r0
 477 011c 0028     		cmp	r0, #0
 478 011e EED1     		bne	.L6
 479              	.LBB116:
 480              		.loc 1 204 0
 481 0120 2023     		movs	r3, #32
 482              	.LVL53:
 483              	@ 204 "../../test/testqueues.c" 1
 484 0122 83F31188 		msr     BASEPRI, r3
 485              	@ 0 "" 2
 486              	.LVL54:
 487              		.thumb
 488              	.LBE116:
 489 0126 664C     		ldr	r4, .L25
 490 0128 2046     		mov	r0, r4
 491 012a FFF7FEFF 		bl	chOQGetI
 492              	.LVL55:
 493 012e 0330     		adds	r0, r0, #3
 494 0130 14BF     		ite	ne
 495 0132 0021     		movne	r1, #0
 496 0134 0121     		moveq	r1, #1
 497 0136 0520     		movs	r0, #5
 498 0138 FFF7FEFF 		bl	_test_assert
 499 013c 68B1     		cbz	r0, .L13
 500              	.LBB117:
 501 013e 2B46     		mov	r3, r5
 502              	@ 204 "../../test/testqueues.c" 1
 503 0140 83F31188 		msr     BASEPRI, r3
 504              	@ 0 "" 2
 505              	.LVL56:
 506              		.thumb
ARM GAS  C:\Users\TAISIK~1\AppData\Local\Temp\ccZJTFka.s 			page 10


 507 0144 DBE7     		b	.L6
 508              	.LVL57:
 509              	.L23:
 510              	.LBE117:
 511              	.LBE132:
 512              	.LBE135:
 513              		.loc 1 181 0 discriminator 1
 514 0146 A968     		ldr	r1, [r5, #8]
 515 0148 0031     		adds	r1, r1, #0
 516 014a 18BF     		it	ne
 517 014c 0121     		movne	r1, #1
 518 014e 64E7     		b	.L7
 519              	.LVL58:
 520              	.L24:
 521              	.LBB136:
 522              	.LBB133:
 523              		.loc 1 181 0 is_stmt 0
 524 0150 A168     		ldr	r1, [r4, #8]
 525 0152 0031     		adds	r1, r1, #0
 526 0154 18BF     		it	ne
 527 0156 0121     		movne	r1, #1
 528 0158 CAE7     		b	.L11
 529              	.L13:
 530              	.LBB118:
 531              		.loc 1 204 0 is_stmt 1
 532 015a 0346     		mov	r3, r0
 533              	.LVL59:
 534              	@ 204 "../../test/testqueues.c" 1
 535 015c 83F31188 		msr     BASEPRI, r3
 536              	@ 0 "" 2
 537              	.LVL60:
 538              		.thumb
 539              	.LBE118:
 540              		.loc 1 207 0
 541 0160 594E     		ldr	r6, .L25+8
 542 0162 7568     		ldr	r5, [r6, #4]
 543 0164 0822     		movs	r2, #8
 544 0166 2946     		mov	r1, r5
 545 0168 2046     		mov	r0, r4
 546 016a FFF7FEFF 		bl	chOQWriteTimeout
 547              	.LVL61:
 548              		.loc 1 208 0
 549 016e A0F10402 		sub	r2, r0, #4
 550 0172 5042     		rsbs	r0, r2, #0
 551              	.LVL62:
 552 0174 40EB0201 		adc	r1, r0, r2
 553 0178 0620     		movs	r0, #6
 554 017a FFF7FEFF 		bl	_test_assert
 555              	.LVL63:
 556 017e 8046     		mov	r8, r0
 557 0180 0028     		cmp	r0, #0
 558 0182 BCD1     		bne	.L6
 559              	.LBB119:
 560              		.loc 1 209 0
 561 0184 2023     		movs	r3, #32
 562              	.LVL64:
 563              	@ 209 "../../test/testqueues.c" 1
ARM GAS  C:\Users\TAISIK~1\AppData\Local\Temp\ccZJTFka.s 			page 11


 564 0186 83F31188 		msr     BASEPRI, r3
 565              	@ 0 "" 2
 566              	.LVL65:
 567              		.thumb
 568              	.LBE119:
 569 018a A768     		ldr	r7, [r4, #8]
 570 018c D7F10101 		rsbs	r1, r7, #1
 571 0190 38BF     		it	cc
 572 0192 0021     		movcc	r1, #0
 573 0194 0720     		movs	r0, #7
 574 0196 FFF7FEFF 		bl	_test_assert
 575              	.LVL66:
 576 019a 0746     		mov	r7, r0
 577 019c 18B1     		cbz	r0, .L14
 578              	.LBB120:
 579 019e 4346     		mov	r3, r8
 580              	@ 209 "../../test/testqueues.c" 1
 581 01a0 83F31188 		msr     BASEPRI, r3
 582              	@ 0 "" 2
 583              	.LVL67:
 584              		.thumb
 585 01a4 ABE7     		b	.L6
 586              	.LVL68:
 587              	.L14:
 588              	.LBE120:
 589              	.LBB121:
 590 01a6 0346     		mov	r3, r0
 591              	.LVL69:
 592              	@ 209 "../../test/testqueues.c" 1
 593 01a8 83F31188 		msr     BASEPRI, r3
 594              	@ 0 "" 2
 595              	.LVL70:
 596              		.thumb
 597              	.LBE121:
 598              		.loc 1 210 0
 599 01ac 474B     		ldr	r3, .L25+12
 600              	.LVL71:
 601 01ae 3068     		ldr	r0, [r6, #0]
 602 01b0 9A69     		ldr	r2, [r3, #24]
 603 01b2 474B     		ldr	r3, .L25+16
 604 01b4 9668     		ldr	r6, [r2, #8]
 605 01b6 0097     		str	r7, [sp, #0]
 606 01b8 721C     		adds	r2, r6, #1
 607 01ba 4FF49871 		mov	r1, #304
 608 01be FFF7FEFF 		bl	chThdCreateStatic
 609 01c2 4449     		ldr	r1, .L25+20
 610              	.LBB122:
 611              		.loc 1 211 0
 612 01c4 2023     		movs	r3, #32
 613              	.LVL72:
 614              	.LBE122:
 615              		.loc 1 210 0
 616 01c6 0860     		str	r0, [r1, #0]
 617              	.LBB123:
 618              		.loc 1 211 0
 619              	@ 211 "../../test/testqueues.c" 1
 620 01c8 83F31188 		msr     BASEPRI, r3
ARM GAS  C:\Users\TAISIK~1\AppData\Local\Temp\ccZJTFka.s 			page 12


 621              	@ 0 "" 2
 622              	.LVL73:
 623              		.thumb
 624              	.LBE123:
 625 01cc 2669     		ldr	r6, [r4, #16]
 626 01ce E268     		ldr	r2, [r4, #12]
 627 01d0 A068     		ldr	r0, [r4, #8]
 628 01d2 B11A     		subs	r1, r6, r2
 629 01d4 C0EB010C 		rsb	ip, r0, r1
 630 01d8 ACF10403 		sub	r3, ip, #4
 631              	.LVL74:
 632 01dc 5E42     		rsbs	r6, r3, #0
 633 01de 46EB0301 		adc	r1, r6, r3
 634 01e2 0820     		movs	r0, #8
 635 01e4 FFF7FEFF 		bl	_test_assert
 636 01e8 0646     		mov	r6, r0
 637 01ea 18B1     		cbz	r0, .L15
 638              	.LBB124:
 639 01ec 3B46     		mov	r3, r7
 640              	@ 211 "../../test/testqueues.c" 1
 641 01ee 83F31188 		msr     BASEPRI, r3
 642              	@ 0 "" 2
 643              	.LVL75:
 644              		.thumb
 645 01f2 84E7     		b	.L6
 646              	.LVL76:
 647              	.L15:
 648              	.LBE124:
 649              	.LBB125:
 650 01f4 0346     		mov	r3, r0
 651              	.LVL77:
 652              	@ 211 "../../test/testqueues.c" 1
 653 01f6 83F31188 		msr     BASEPRI, r3
 654              	@ 0 "" 2
 655              	.LVL78:
 656              		.thumb
 657              	.LBE125:
 658              		.loc 1 212 0
 659 01fa FFF7FEFF 		bl	test_wait_threads
 660              	.LVL79:
 661              	.LBB126:
 662              		.loc 1 215 0
 663 01fe 2023     		movs	r3, #32
 664              	.LVL80:
 665              	@ 215 "../../test/testqueues.c" 1
 666 0200 83F31188 		msr     BASEPRI, r3
 667              	@ 0 "" 2
 668              	.LVL81:
 669              		.thumb
 670              	.LBE126:
 671              		.loc 1 216 0
 672 0204 2046     		mov	r0, r4
 673 0206 FFF7FEFF 		bl	chOQResetI
 674              	.LVL82:
 675              	.LBB127:
 676              		.loc 1 217 0
 677 020a 3346     		mov	r3, r6
ARM GAS  C:\Users\TAISIK~1\AppData\Local\Temp\ccZJTFka.s 			page 13


 678              	.LVL83:
 679              	@ 217 "../../test/testqueues.c" 1
 680 020c 83F31188 		msr     BASEPRI, r3
 681              	@ 0 "" 2
 682              	.LVL84:
 683              		.thumb
 684              	.LBE127:
 685              	.LBB128:
 686              		.loc 1 218 0
 687 0210 2023     		movs	r3, #32
 688              	.LVL85:
 689              	@ 218 "../../test/testqueues.c" 1
 690 0212 83F31188 		msr     BASEPRI, r3
 691              	@ 0 "" 2
 692              	.LVL86:
 693              		.thumb
 694              	.LBE128:
 695 0216 2069     		ldr	r0, [r4, #16]
 696 0218 E168     		ldr	r1, [r4, #12]
 697 021a A368     		ldr	r3, [r4, #8]
 698              	.LVL87:
 699 021c 421A     		subs	r2, r0, r1
 700 021e D11A     		subs	r1, r2, r3
 701 0220 4842     		rsbs	r0, r1, #0
 702 0222 40EB0101 		adc	r1, r0, r1
 703 0226 0920     		movs	r0, #9
 704 0228 FFF7FEFF 		bl	_test_assert
 705 022c 0028     		cmp	r0, #0
 706 022e 7FF469AF 		bne	.L21
 707              	.LBB129:
 708 0232 0346     		mov	r3, r0
 709              	.LVL88:
 710              	@ 218 "../../test/testqueues.c" 1
 711 0234 83F31188 		msr     BASEPRI, r3
 712              	@ 0 "" 2
 713              	.LVL89:
 714              		.thumb
 715              	.LBE129:
 716              		.loc 1 221 0
 717 0238 0222     		movs	r2, #2
 718 023a 2946     		mov	r1, r5
 719 023c 2046     		mov	r0, r4
 720 023e FFF7FEFF 		bl	chOQWriteTimeout
 721              	.LVL90:
 722              		.loc 1 222 0
 723 0242 A0F10203 		sub	r3, r0, #2
 724 0246 5A42     		rsbs	r2, r3, #0
 725 0248 42EB0301 		adc	r1, r2, r3
 726 024c 0A20     		movs	r0, #10
 727              	.LVL91:
 728 024e FFF7FEFF 		bl	_test_assert
 729              	.LVL92:
 730 0252 0346     		mov	r3, r0
 731 0254 0028     		cmp	r0, #0
 732 0256 7FF452AF 		bne	.L6
 733              		.loc 1 223 0
 734 025a 2946     		mov	r1, r5
ARM GAS  C:\Users\TAISIK~1\AppData\Local\Temp\ccZJTFka.s 			page 14


 735 025c 0222     		movs	r2, #2
 736 025e 2046     		mov	r0, r4
 737 0260 FFF7FEFF 		bl	chOQWriteTimeout
 738              	.LVL93:
 739              		.loc 1 224 0
 740 0264 A0F10201 		sub	r1, r0, #2
 741 0268 4842     		rsbs	r0, r1, #0
 742              	.LVL94:
 743 026a 40EB0101 		adc	r1, r0, r1
 744              	.LVL95:
 745 026e 0B20     		movs	r0, #11
 746 0270 FFF7FEFF 		bl	_test_assert
 747 0274 0028     		cmp	r0, #0
 748 0276 7FF442AF 		bne	.L6
 749              	.LBB130:
 750              		.loc 1 225 0
 751 027a 2023     		movs	r3, #32
 752              	.LVL96:
 753              	@ 225 "../../test/testqueues.c" 1
 754 027c 83F31188 		msr     BASEPRI, r3
 755              	@ 0 "" 2
 756              	.LVL97:
 757              		.thumb
 758              	.LBE130:
 759 0280 A268     		ldr	r2, [r4, #8]
 760 0282 D2F10101 		rsbs	r1, r2, #1
 761 0286 38BF     		it	cc
 762 0288 0021     		movcc	r1, #0
 763 028a 0C20     		movs	r0, #12
 764 028c FFF7FEFF 		bl	_test_assert
 765              	.LVL98:
 766              	.LBB131:
 767 0290 0023     		movs	r3, #0
 768              	@ 225 "../../test/testqueues.c" 1
 769 0292 83F31188 		msr     BASEPRI, r3
 770              	@ 0 "" 2
 771              	.LVL99:
 772              		.thumb
 773              	.LBE131:
 774 0296 0028     		cmp	r0, #0
 775 0298 7FF431AF 		bne	.L6
 776              		.loc 1 228 0
 777 029c 1946     		mov	r1, r3
 778              	.LVL100:
 779 029e 0A22     		movs	r2, #10
 780 02a0 0748     		ldr	r0, .L25
 781 02a2 FFF7FEFF 		bl	chOQPutTimeout
 782              	.LVL101:
 783 02a6 A0F1FF3C 		sub	ip, r0, #-1
 784 02aa DCF10000 		rsbs	r0, ip, #0
 785 02ae 40EB0C01 		adc	r1, r0, ip
 786 02b2 0D20     		movs	r0, #13
 787              	.LBE133:
 788              	.LBE136:
 789              		.loc 1 229 0
 790 02b4 02B0     		add	sp, sp, #8
 791 02b6 BDE8F041 		pop	{r4, r5, r6, r7, r8, lr}
ARM GAS  C:\Users\TAISIK~1\AppData\Local\Temp\ccZJTFka.s 			page 15


 792              	.LBB137:
 793              	.LBB134:
 794              		.loc 1 228 0
 795 02ba FFF7FEBF 		b	_test_assert
 796              	.L26:
 797 02be 00BF     		.align	2
 798              	.L25:
 799 02c0 00000000 		.word	.LANCHOR0
 800 02c4 00000000 		.word	.LC0
 801 02c8 00000000 		.word	wa
 802 02cc 00000000 		.word	rlist
 803 02d0 00000000 		.word	thread2
 804 02d4 00000000 		.word	threads
 805              	.LBE134:
 806              	.LBE137:
 807              		.cfi_endproc
 808              	.LFE13:
 809              		.size	queues2_execute, .-queues2_execute
 810 02d8 AFF30080 		.section	.text.queues1_execute,"ax",%progbits
 810      AFF30080 
 811              		.align	2
 812              		.p2align 4,,15
 813              		.thumb
 814              		.thumb_func
 815              		.type	queues1_execute, %function
 816              	queues1_execute:
 817              	.LFB10:
 818              		.loc 1 94 0
 819              		.cfi_startproc
 820              		@ args = 0, pretend = 0, frame = 0
 821              		@ frame_needed = 0, uses_anonymous_args = 0
 822 0000 2DE9F043 		push	{r4, r5, r6, r7, r8, r9, lr}
 823              	.LCFI8:
 824              		.cfi_def_cfa_offset 28
 825              		.cfi_offset 14, -4
 826              		.cfi_offset 9, -8
 827              		.cfi_offset 8, -12
 828              		.cfi_offset 7, -16
 829              		.cfi_offset 6, -20
 830              		.cfi_offset 5, -24
 831              		.cfi_offset 4, -28
 832              	.LBB174:
 833              		.loc 1 99 0
 834 0004 2023     		movs	r3, #32
 835              	.LVL102:
 836              	.LBE174:
 837              		.loc 1 94 0
 838 0006 83B0     		sub	sp, sp, #12
 839              	.LCFI9:
 840              		.cfi_def_cfa_offset 40
 841              	.LBB175:
 842              		.loc 1 99 0
 843              	@ 99 "../../test/testqueues.c" 1
 844 0008 83F31188 		msr     BASEPRI, r3
 845              	@ 0 "" 2
 846              	.LVL103:
 847              		.thumb
ARM GAS  C:\Users\TAISIK~1\AppData\Local\Temp\ccZJTFka.s 			page 16


 848              	.LBE175:
 849 000c AC4C     		ldr	r4, .L43
 850 000e A168     		ldr	r1, [r4, #8]
 851 0010 D1F10101 		rsbs	r1, r1, #1
 852 0014 38BF     		it	cc
 853 0016 0021     		movcc	r1, #0
 854 0018 0120     		movs	r0, #1
 855 001a FFF7FEFF 		bl	_test_assert
 856              	.LVL104:
 857 001e 0546     		mov	r5, r0
 858 0020 28BB     		cbnz	r0, .L39
 859              	.LBB176:
 860              	.LBB177:
 861              	.LBB178:
 862 0022 0346     		mov	r3, r0
 863              	.LVL105:
 864              	@ 99 "../../test/testqueues.c" 1
 865 0024 83F31188 		msr     BASEPRI, r3
 866              	@ 0 "" 2
 867              	.LVL106:
 868              		.thumb
 869              	.LBE178:
 870              	.LBB179:
 871              		.loc 1 102 0
 872 0028 2023     		movs	r3, #32
 873              	.LVL107:
 874              	@ 102 "../../test/testqueues.c" 1
 875 002a 83F31188 		msr     BASEPRI, r3
 876              	@ 0 "" 2
 877              	.LVL108:
 878              		.thumb
 879              	.LBE179:
 880              		.loc 1 104 0
 881 002e 4121     		movs	r1, #65
 882 0030 2046     		mov	r0, r4
 883 0032 FFF7FEFF 		bl	chIQPutI
 884              	.LVL109:
 885 0036 4221     		movs	r1, #66
 886 0038 2046     		mov	r0, r4
 887 003a FFF7FEFF 		bl	chIQPutI
 888              	.LVL110:
 889 003e 4321     		movs	r1, #67
 890 0040 2046     		mov	r0, r4
 891 0042 FFF7FEFF 		bl	chIQPutI
 892              	.LVL111:
 893 0046 2046     		mov	r0, r4
 894 0048 4421     		movs	r1, #68
 895 004a FFF7FEFF 		bl	chIQPutI
 896              	.LVL112:
 897              	.LBB180:
 898              		.loc 1 105 0
 899 004e 2B46     		mov	r3, r5
 900              	.LVL113:
 901              	@ 105 "../../test/testqueues.c" 1
 902 0050 83F31188 		msr     BASEPRI, r3
 903              	@ 0 "" 2
 904              	.LVL114:
ARM GAS  C:\Users\TAISIK~1\AppData\Local\Temp\ccZJTFka.s 			page 17


 905              		.thumb
 906              	.LBE180:
 907              	.LBB181:
 908              		.loc 1 106 0
 909 0054 2023     		movs	r3, #32
 910              	.LVL115:
 911              	@ 106 "../../test/testqueues.c" 1
 912 0056 83F31188 		msr     BASEPRI, r3
 913              	@ 0 "" 2
 914              	.LVL116:
 915              		.thumb
 916              	.LBE181:
 917 005a 6269     		ldr	r2, [r4, #20]
 918 005c A369     		ldr	r3, [r4, #24]
 919              	.LVL117:
 920 005e 9A42     		cmp	r2, r3
 921 0060 56D0     		beq	.L40
 922 0062 2946     		mov	r1, r5
 923              	.L30:
 924 0064 0220     		movs	r0, #2
 925 0066 FFF7FEFF 		bl	_test_assert
 926 006a 0646     		mov	r6, r0
 927 006c 28B1     		cbz	r0, .L31
 928              	.LVL118:
 929              	.L39:
 930              	.LBB182:
 931 006e 0023     		movs	r3, #0
 932              	.LVL119:
 933              	@ 106 "../../test/testqueues.c" 1
 934 0070 83F31188 		msr     BASEPRI, r3
 935              	@ 0 "" 2
 936              	.LVL120:
 937              		.thumb
 938              	.L27:
 939              	.LBE182:
 940              	.LBE177:
 941              	.LBE176:
 942              		.loc 1 151 0
 943 0074 03B0     		add	sp, sp, #12
 944 0076 BDE8F083 		pop	{r4, r5, r6, r7, r8, r9, pc}
 945              	.LVL121:
 946              	.L31:
 947              	.LBB210:
 948              	.LBB208:
 949              	.LBB183:
 950              		.loc 1 106 0
 951 007a 0346     		mov	r3, r0
 952              	.LVL122:
 953              	@ 106 "../../test/testqueues.c" 1
 954 007c 83F31188 		msr     BASEPRI, r3
 955              	@ 0 "" 2
 956              	.LVL123:
 957              		.thumb
 958              	.LBE183:
 959              	.LBB184:
 960              		.loc 1 107 0
 961 0080 2023     		movs	r3, #32
ARM GAS  C:\Users\TAISIK~1\AppData\Local\Temp\ccZJTFka.s 			page 18


 962              	.LVL124:
 963              	@ 107 "../../test/testqueues.c" 1
 964 0082 83F31188 		msr     BASEPRI, r3
 965              	@ 0 "" 2
 966              	.LVL125:
 967              		.thumb
 968              	.LBE184:
 969 0086 8E4D     		ldr	r5, .L43
 970 0088 0146     		mov	r1, r0
 971 008a 2846     		mov	r0, r5
 972 008c FFF7FEFF 		bl	chIQPutI
 973              	.LVL126:
 974 0090 0430     		adds	r0, r0, #4
 975 0092 14BF     		ite	ne
 976 0094 0021     		movne	r1, #0
 977 0096 0121     		moveq	r1, #1
 978 0098 0320     		movs	r0, #3
 979 009a FFF7FEFF 		bl	_test_assert
 980 009e 0746     		mov	r7, r0
 981 00a0 90BB     		cbnz	r0, .L41
 982              	.LBB185:
 983 00a2 0346     		mov	r3, r0
 984              	.LVL127:
 985              	@ 107 "../../test/testqueues.c" 1
 986 00a4 83F31188 		msr     BASEPRI, r3
 987              	@ 0 "" 2
 988              	.LVL128:
 989              		.thumb
 990              	.LBE185:
 991              		.loc 1 111 0
 992 00a8 4FF0FF31 		mov	r1, #-1
 993 00ac 2846     		mov	r0, r5
 994 00ae FFF7FEFF 		bl	chIQGetTimeout
 995              	.LVL129:
 996 00b2 C0B2     		uxtb	r0, r0
 997 00b4 FFF7FEFF 		bl	test_emit_token
 998              	.LVL130:
 999 00b8 4FF0FF31 		mov	r1, #-1
 1000 00bc 2846     		mov	r0, r5
 1001 00be FFF7FEFF 		bl	chIQGetTimeout
 1002 00c2 C0B2     		uxtb	r0, r0
 1003 00c4 FFF7FEFF 		bl	test_emit_token
 1004              	.LVL131:
 1005 00c8 4FF0FF31 		mov	r1, #-1
 1006 00cc 2846     		mov	r0, r5
 1007 00ce FFF7FEFF 		bl	chIQGetTimeout
 1008 00d2 C0B2     		uxtb	r0, r0
 1009 00d4 FFF7FEFF 		bl	test_emit_token
 1010              	.LVL132:
 1011 00d8 4FF0FF31 		mov	r1, #-1
 1012 00dc 2846     		mov	r0, r5
 1013 00de FFF7FEFF 		bl	chIQGetTimeout
 1014 00e2 C0B2     		uxtb	r0, r0
 1015 00e4 FFF7FEFF 		bl	test_emit_token
 1016              	.LVL133:
 1017              	.LBB186:
 1018              		.loc 1 112 0
ARM GAS  C:\Users\TAISIK~1\AppData\Local\Temp\ccZJTFka.s 			page 19


 1019 00e8 2023     		movs	r3, #32
 1020              	.LVL134:
 1021              	@ 112 "../../test/testqueues.c" 1
 1022 00ea 83F31188 		msr     BASEPRI, r3
 1023              	@ 0 "" 2
 1024              	.LVL135:
 1025              		.thumb
 1026              	.LBE186:
 1027 00ee A968     		ldr	r1, [r5, #8]
 1028 00f0 D1F10101 		rsbs	r1, r1, #1
 1029 00f4 38BF     		it	cc
 1030 00f6 0021     		movcc	r1, #0
 1031 00f8 0420     		movs	r0, #4
 1032 00fa FFF7FEFF 		bl	_test_assert
 1033              	.LVL136:
 1034 00fe 60B1     		cbz	r0, .L33
 1035              	.LBB187:
 1036 0100 3B46     		mov	r3, r7
 1037              	@ 112 "../../test/testqueues.c" 1
 1038 0102 83F31188 		msr     BASEPRI, r3
 1039              	@ 0 "" 2
 1040              	.LVL137:
 1041              		.thumb
 1042 0106 B5E7     		b	.L27
 1043              	.LVL138:
 1044              	.L41:
 1045              	.LBE187:
 1046              	.LBB188:
 1047              		.loc 1 107 0
 1048 0108 3346     		mov	r3, r6
 1049              	@ 107 "../../test/testqueues.c" 1
 1050 010a 83F31188 		msr     BASEPRI, r3
 1051              	@ 0 "" 2
 1052              	.LVL139:
 1053              		.thumb
 1054 010e B1E7     		b	.L27
 1055              	.LVL140:
 1056              	.L40:
 1057              	.LBE188:
 1058              		.loc 1 94 0
 1059 0110 A068     		ldr	r0, [r4, #8]
 1060 0112 011C     		adds	r1, r0, #0
 1061 0114 18BF     		it	ne
 1062 0116 0121     		movne	r1, #1
 1063 0118 A4E7     		b	.L30
 1064              	.L33:
 1065              	.LBB189:
 1066              		.loc 1 112 0
 1067 011a 0346     		mov	r3, r0
 1068              	.LVL141:
 1069              	@ 112 "../../test/testqueues.c" 1
 1070 011c 83F31188 		msr     BASEPRI, r3
 1071              	@ 0 "" 2
 1072              	.LVL142:
 1073              		.thumb
 1074              	.LBE189:
 1075              		.loc 1 113 0
ARM GAS  C:\Users\TAISIK~1\AppData\Local\Temp\ccZJTFka.s 			page 20


 1076 0120 0520     		movs	r0, #5
 1077 0122 6849     		ldr	r1, .L43+4
 1078 0124 FFF7FEFF 		bl	_test_assert_sequence
 1079              	.LVL143:
 1080 0128 0646     		mov	r6, r0
 1081 012a 0028     		cmp	r0, #0
 1082 012c A2D1     		bne	.L27
 1083              	.LBB190:
 1084              		.loc 1 116 0
 1085 012e 2023     		movs	r3, #32
 1086              	.LVL144:
 1087              	@ 116 "../../test/testqueues.c" 1
 1088 0130 83F31188 		msr     BASEPRI, r3
 1089              	@ 0 "" 2
 1090              	.LVL145:
 1091              		.thumb
 1092              	.LBE190:
 1093              		.loc 1 118 0
 1094 0134 4121     		movs	r1, #65
 1095 0136 2846     		mov	r0, r5
 1096 0138 FFF7FEFF 		bl	chIQPutI
 1097              	.LVL146:
 1098 013c 4221     		movs	r1, #66
 1099 013e 2846     		mov	r0, r5
 1100 0140 FFF7FEFF 		bl	chIQPutI
 1101              	.LVL147:
 1102 0144 4321     		movs	r1, #67
 1103 0146 2846     		mov	r0, r5
 1104 0148 FFF7FEFF 		bl	chIQPutI
 1105              	.LVL148:
 1106 014c 2846     		mov	r0, r5
 1107 014e 4421     		movs	r1, #68
 1108 0150 FFF7FEFF 		bl	chIQPutI
 1109              	.LVL149:
 1110              	.LBB191:
 1111              		.loc 1 119 0
 1112 0154 3346     		mov	r3, r6
 1113              	.LVL150:
 1114              	@ 119 "../../test/testqueues.c" 1
 1115 0156 83F31188 		msr     BASEPRI, r3
 1116              	@ 0 "" 2
 1117              	.LVL151:
 1118              		.thumb
 1119              	.LBE191:
 1120              		.loc 1 122 0
 1121 015a 5B4F     		ldr	r7, .L43+8
 1122 015c D7F80480 		ldr	r8, [r7, #4]
 1123 0160 0822     		movs	r2, #8
 1124 0162 4146     		mov	r1, r8
 1125 0164 2846     		mov	r0, r5
 1126 0166 FFF7FEFF 		bl	chIQReadTimeout
 1127              	.LVL152:
 1128              		.loc 1 123 0
 1129 016a A0F10403 		sub	r3, r0, #4
 1130 016e 5A42     		rsbs	r2, r3, #0
 1131 0170 42EB0301 		adc	r1, r2, r3
 1132 0174 0620     		movs	r0, #6
ARM GAS  C:\Users\TAISIK~1\AppData\Local\Temp\ccZJTFka.s 			page 21


 1133              	.LVL153:
 1134 0176 FFF7FEFF 		bl	_test_assert
 1135              	.LVL154:
 1136 017a 8146     		mov	r9, r0
 1137 017c 0028     		cmp	r0, #0
 1138 017e 7FF479AF 		bne	.L27
 1139              	.LBB192:
 1140              		.loc 1 124 0
 1141 0182 2023     		movs	r3, #32
 1142              	.LVL155:
 1143              	@ 124 "../../test/testqueues.c" 1
 1144 0184 83F31188 		msr     BASEPRI, r3
 1145              	@ 0 "" 2
 1146              	.LVL156:
 1147              		.thumb
 1148              	.LBE192:
 1149 0188 AE68     		ldr	r6, [r5, #8]
 1150 018a D6F10101 		rsbs	r1, r6, #1
 1151 018e 38BF     		it	cc
 1152 0190 0021     		movcc	r1, #0
 1153 0192 0720     		movs	r0, #7
 1154 0194 FFF7FEFF 		bl	_test_assert
 1155              	.LVL157:
 1156 0198 0646     		mov	r6, r0
 1157 019a 0028     		cmp	r0, #0
 1158 019c 4BD1     		bne	.L42
 1159              	.LBB193:
 1160 019e 0346     		mov	r3, r0
 1161              	.LVL158:
 1162              	@ 124 "../../test/testqueues.c" 1
 1163 01a0 83F31188 		msr     BASEPRI, r3
 1164              	@ 0 "" 2
 1165              	.LVL159:
 1166              		.thumb
 1167              	.LBE193:
 1168              	.LBB194:
 1169              		.loc 1 127 0
 1170 01a4 2023     		movs	r3, #32
 1171              	.LVL160:
 1172              	@ 127 "../../test/testqueues.c" 1
 1173 01a6 83F31188 		msr     BASEPRI, r3
 1174              	@ 0 "" 2
 1175              	.LVL161:
 1176              		.thumb
 1177              	.LBE194:
 1178              		.loc 1 129 0
 1179 01aa 4121     		movs	r1, #65
 1180 01ac 2846     		mov	r0, r5
 1181 01ae FFF7FEFF 		bl	chIQPutI
 1182              	.LVL162:
 1183 01b2 4221     		movs	r1, #66
 1184 01b4 2846     		mov	r0, r5
 1185 01b6 FFF7FEFF 		bl	chIQPutI
 1186              	.LVL163:
 1187 01ba 4321     		movs	r1, #67
 1188 01bc 2846     		mov	r0, r5
 1189 01be FFF7FEFF 		bl	chIQPutI
ARM GAS  C:\Users\TAISIK~1\AppData\Local\Temp\ccZJTFka.s 			page 22


 1190              	.LVL164:
 1191 01c2 2846     		mov	r0, r5
 1192 01c4 4421     		movs	r1, #68
 1193 01c6 FFF7FEFF 		bl	chIQPutI
 1194              	.LVL165:
 1195              	.LBB195:
 1196              		.loc 1 130 0
 1197 01ca 3346     		mov	r3, r6
 1198              	.LVL166:
 1199              	@ 130 "../../test/testqueues.c" 1
 1200 01cc 83F31188 		msr     BASEPRI, r3
 1201              	@ 0 "" 2
 1202              	.LVL167:
 1203              		.thumb
 1204              	.LBE195:
 1205              		.loc 1 133 0
 1206 01d0 0222     		movs	r2, #2
 1207 01d2 4146     		mov	r1, r8
 1208 01d4 2846     		mov	r0, r5
 1209 01d6 FFF7FEFF 		bl	chIQReadTimeout
 1210              	.LVL168:
 1211              		.loc 1 134 0
 1212 01da A0F10201 		sub	r1, r0, #2
 1213 01de 4842     		rsbs	r0, r1, #0
 1214              	.LVL169:
 1215 01e0 40EB0101 		adc	r1, r0, r1
 1216              	.LVL170:
 1217 01e4 0820     		movs	r0, #8
 1218 01e6 FFF7FEFF 		bl	_test_assert
 1219 01ea 0028     		cmp	r0, #0
 1220 01ec 7FF442AF 		bne	.L27
 1221              		.loc 1 135 0
 1222 01f0 4146     		mov	r1, r8
 1223 01f2 0346     		mov	r3, r0
 1224 01f4 0222     		movs	r2, #2
 1225 01f6 2846     		mov	r0, r5
 1226 01f8 FFF7FEFF 		bl	chIQReadTimeout
 1227              	.LVL171:
 1228              		.loc 1 136 0
 1229 01fc A0F10203 		sub	r3, r0, #2
 1230 0200 5A42     		rsbs	r2, r3, #0
 1231 0202 42EB0301 		adc	r1, r2, r3
 1232 0206 0920     		movs	r0, #9
 1233              	.LVL172:
 1234 0208 FFF7FEFF 		bl	_test_assert
 1235              	.LVL173:
 1236 020c 8046     		mov	r8, r0
 1237 020e 0028     		cmp	r0, #0
 1238 0210 7FF430AF 		bne	.L27
 1239              	.LBB196:
 1240              		.loc 1 137 0
 1241 0214 2023     		movs	r3, #32
 1242              	.LVL174:
 1243              	@ 137 "../../test/testqueues.c" 1
 1244 0216 83F31188 		msr     BASEPRI, r3
 1245              	@ 0 "" 2
 1246              	.LVL175:
ARM GAS  C:\Users\TAISIK~1\AppData\Local\Temp\ccZJTFka.s 			page 23


 1247              		.thumb
 1248              	.LBE196:
 1249 021a AE68     		ldr	r6, [r5, #8]
 1250 021c D6F10101 		rsbs	r1, r6, #1
 1251 0220 38BF     		it	cc
 1252 0222 0021     		movcc	r1, #0
 1253 0224 0A20     		movs	r0, #10
 1254 0226 FFF7FEFF 		bl	_test_assert
 1255              	.LVL176:
 1256 022a 0646     		mov	r6, r0
 1257 022c 38B1     		cbz	r0, .L35
 1258              	.LBB197:
 1259 022e 4346     		mov	r3, r8
 1260              	@ 137 "../../test/testqueues.c" 1
 1261 0230 83F31188 		msr     BASEPRI, r3
 1262              	@ 0 "" 2
 1263              	.LVL177:
 1264              		.thumb
 1265 0234 1EE7     		b	.L27
 1266              	.LVL178:
 1267              	.L42:
 1268              	.LBE197:
 1269              	.LBB198:
 1270              		.loc 1 124 0
 1271 0236 4B46     		mov	r3, r9
 1272              	@ 124 "../../test/testqueues.c" 1
 1273 0238 83F31188 		msr     BASEPRI, r3
 1274              	@ 0 "" 2
 1275              	.LVL179:
 1276              		.thumb
 1277 023c 1AE7     		b	.L27
 1278              	.LVL180:
 1279              	.L35:
 1280              	.LBE198:
 1281              	.LBB199:
 1282              		.loc 1 137 0
 1283 023e 0346     		mov	r3, r0
 1284              	.LVL181:
 1285              	@ 137 "../../test/testqueues.c" 1
 1286 0240 83F31188 		msr     BASEPRI, r3
 1287              	@ 0 "" 2
 1288              	.LVL182:
 1289              		.thumb
 1290              	.LBE199:
 1291              	.LBB200:
 1292              		.loc 1 140 0
 1293 0244 2023     		movs	r3, #32
 1294              	.LVL183:
 1295              	@ 140 "../../test/testqueues.c" 1
 1296 0246 83F31188 		msr     BASEPRI, r3
 1297              	@ 0 "" 2
 1298              	.LVL184:
 1299              		.thumb
 1300              	.LBE200:
 1301              		.loc 1 141 0
 1302 024a 0146     		mov	r1, r0
 1303 024c 2846     		mov	r0, r5
ARM GAS  C:\Users\TAISIK~1\AppData\Local\Temp\ccZJTFka.s 			page 24


 1304 024e FFF7FEFF 		bl	chIQPutI
 1305              	.LVL185:
 1306              		.loc 1 142 0
 1307 0252 2846     		mov	r0, r5
 1308 0254 FFF7FEFF 		bl	chIQResetI
 1309              	.LBB201:
 1310              		.loc 1 143 0
 1311 0258 3346     		mov	r3, r6
 1312              	.LVL186:
 1313              	@ 143 "../../test/testqueues.c" 1
 1314 025a 83F31188 		msr     BASEPRI, r3
 1315              	@ 0 "" 2
 1316              	.LVL187:
 1317              		.thumb
 1318              	.LBE201:
 1319              	.LBB202:
 1320              		.loc 1 144 0
 1321 025e 2023     		movs	r3, #32
 1322              	.LVL188:
 1323              	@ 144 "../../test/testqueues.c" 1
 1324 0260 83F31188 		msr     BASEPRI, r3
 1325              	@ 0 "" 2
 1326              	.LVL189:
 1327              		.thumb
 1328              	.LBE202:
 1329 0264 A868     		ldr	r0, [r5, #8]
 1330 0266 D0F10101 		rsbs	r1, r0, #1
 1331 026a 38BF     		it	cc
 1332 026c 0021     		movcc	r1, #0
 1333 026e 0B20     		movs	r0, #11
 1334 0270 FFF7FEFF 		bl	_test_assert
 1335              	.LVL190:
 1336              	.LBB203:
 1337 0274 0023     		movs	r3, #0
 1338              	@ 144 "../../test/testqueues.c" 1
 1339 0276 83F31188 		msr     BASEPRI, r3
 1340              	@ 0 "" 2
 1341              	.LVL191:
 1342              		.thumb
 1343              	.LBE203:
 1344 027a 0028     		cmp	r0, #0
 1345 027c 7FF4FAAE 		bne	.L27
 1346              		.loc 1 145 0
 1347 0280 124B     		ldr	r3, .L43+12
 1348              	.LVL192:
 1349 0282 3868     		ldr	r0, [r7, #0]
 1350 0284 9A69     		ldr	r2, [r3, #24]
 1351 0286 124B     		ldr	r3, .L43+16
 1352 0288 9568     		ldr	r5, [r2, #8]
 1353 028a 4FF49871 		mov	r1, #304
 1354 028e 6A1C     		adds	r2, r5, #1
 1355 0290 0025     		movs	r5, #0
 1356 0292 0095     		str	r5, [sp, #0]
 1357 0294 FFF7FEFF 		bl	chThdCreateStatic
 1358 0298 0E49     		ldr	r1, .L43+20
 1359              	.LBB204:
 1360              		.loc 1 146 0
ARM GAS  C:\Users\TAISIK~1\AppData\Local\Temp\ccZJTFka.s 			page 25


 1361 029a 2023     		movs	r3, #32
 1362              	.LVL193:
 1363              	.LBE204:
 1364              		.loc 1 145 0
 1365 029c 0860     		str	r0, [r1, #0]
 1366              	.LBB205:
 1367              		.loc 1 146 0
 1368              	@ 146 "../../test/testqueues.c" 1
 1369 029e 83F31188 		msr     BASEPRI, r3
 1370              	@ 0 "" 2
 1371              	.LVL194:
 1372              		.thumb
 1373              	.LBE205:
 1374 02a2 A268     		ldr	r2, [r4, #8]
 1375 02a4 511B     		subs	r1, r2, r5
 1376 02a6 D1F1000C 		rsbs	ip, r1, #0
 1377 02aa 4CEB0101 		adc	r1, ip, r1
 1378 02ae 0C20     		movs	r0, #12
 1379 02b0 FFF7FEFF 		bl	_test_assert
 1380              	.LVL195:
 1381 02b4 0346     		mov	r3, r0
 1382 02b6 78B1     		cbz	r0, .L37
 1383              	.LBB206:
 1384 02b8 2B46     		mov	r3, r5
 1385              	@ 146 "../../test/testqueues.c" 1
 1386 02ba 83F31188 		msr     BASEPRI, r3
 1387              	@ 0 "" 2
 1388              	.LVL196:
 1389              		.thumb
 1390 02be D9E6     		b	.L27
 1391              	.L44:
 1392              		.align	2
 1393              	.L43:
 1394 02c0 00000000 		.word	.LANCHOR1
 1395 02c4 00000000 		.word	.LC0
 1396 02c8 00000000 		.word	wa
 1397 02cc 00000000 		.word	rlist
 1398 02d0 00000000 		.word	thread1
 1399 02d4 00000000 		.word	threads
 1400              	.LVL197:
 1401              	.L37:
 1402              	.LBE206:
 1403              	.LBB207:
 1404              	@ 146 "../../test/testqueues.c" 1
 1405 02d8 83F31188 		msr     BASEPRI, r3
 1406              	@ 0 "" 2
 1407              	.LVL198:
 1408              		.thumb
 1409              	.LBE207:
 1410              		.loc 1 147 0
 1411 02dc FFF7FEFF 		bl	test_wait_threads
 1412              	.LVL199:
 1413              		.loc 1 150 0
 1414 02e0 0A21     		movs	r1, #10
 1415 02e2 0748     		ldr	r0, .L45
 1416 02e4 FFF7FEFF 		bl	chIQGetTimeout
 1417 02e8 A0F1FF31 		sub	r1, r0, #-1
ARM GAS  C:\Users\TAISIK~1\AppData\Local\Temp\ccZJTFka.s 			page 26


 1418 02ec 4842     		rsbs	r0, r1, #0
 1419 02ee 40EB0101 		adc	r1, r0, r1
 1420 02f2 0D20     		movs	r0, #13
 1421              	.LBE208:
 1422              	.LBE210:
 1423              		.loc 1 151 0
 1424 02f4 03B0     		add	sp, sp, #12
 1425 02f6 BDE8F043 		pop	{r4, r5, r6, r7, r8, r9, lr}
 1426              	.LBB211:
 1427              	.LBB209:
 1428              		.loc 1 150 0
 1429 02fa FFF7FEBF 		b	_test_assert
 1430              	.L46:
 1431 02fe 00BF     		.align	2
 1432              	.L45:
 1433 0300 00000000 		.word	.LANCHOR1
 1434              	.LBE209:
 1435              	.LBE211:
 1436              		.cfi_endproc
 1437              	.LFE10:
 1438              		.size	queues1_execute, .-queues1_execute
 1439              		.global	patternqueues
 1440              		.global	testqueues2
 1441              		.global	testqueues1
 1442 0304 AFF30080 		.section	.rodata.testqueues1,"a",%progbits
 1442      AFF30080 
 1442      AFF30080 
 1443              		.align	2
 1444              		.type	testqueues1, %object
 1445              		.size	testqueues1, 16
 1446              	testqueues1:
 1447 0000 20000000 		.word	.LC2
 1448 0004 00000000 		.word	queues1_setup
 1449 0008 00000000 		.word	0
 1450 000c 00000000 		.word	queues1_execute
 1451              		.section	.rodata.testqueues2,"a",%progbits
 1452              		.align	2
 1453              		.type	testqueues2, %object
 1454              		.size	testqueues2, 16
 1455              	testqueues2:
 1456 0000 08000000 		.word	.LC1
 1457 0004 00000000 		.word	queues2_setup
 1458 0008 00000000 		.word	0
 1459 000c 00000000 		.word	queues2_execute
 1460              		.section	.rodata.str1.4,"aMS",%progbits,1
 1461              		.align	2
 1462              	.LC0:
 1463 0000 41424344 		.ascii	"ABCD\000"
 1463      00
 1464 0005 000000   		.space	3
 1465              	.LC1:
 1466 0008 51756575 		.ascii	"Queues, output queues\000"
 1466      65732C20 
 1466      6F757470 
 1466      75742071 
 1466      75657565 
 1467 001e 0000     		.space	2
ARM GAS  C:\Users\TAISIK~1\AppData\Local\Temp\ccZJTFka.s 			page 27


 1468              	.LC2:
 1469 0020 51756575 		.ascii	"Queues, input queues\000"
 1469      65732C20 
 1469      696E7075 
 1469      74207175 
 1469      65756573 
 1470 0035 000000   		.section	.rodata.patternqueues,"a",%progbits
 1471              		.align	2
 1472              		.type	patternqueues, %object
 1473              		.size	patternqueues, 12
 1474              	patternqueues:
 1475 0000 00000000 		.word	testqueues1
 1476 0004 00000000 		.word	testqueues2
 1477 0008 00000000 		.word	0
 1478              		.section	.data.oq,"aw",%progbits
 1479              		.align	2
 1480              		.set	.LANCHOR0,. + 0
 1481              		.type	oq, %object
 1482              		.size	oq, 36
 1483              	oq:
 1484 0000 00000000 		.word	oq
 1485 0004 00000000 		.word	oq
 1486 0008 04000000 		.word	4
 1487 000c 30010000 		.word	test+304
 1488 0010 34010000 		.word	test+308
 1489 0014 30010000 		.word	test+304
 1490 0018 30010000 		.word	test+304
 1491 001c 00000000 		.word	notify
 1492 0020 00000000 		.word	0
 1493              		.section	.data.iq,"aw",%progbits
 1494              		.align	2
 1495              		.set	.LANCHOR1,. + 0
 1496              		.type	iq, %object
 1497              		.size	iq, 36
 1498              	iq:
 1499 0000 00000000 		.word	iq
 1500 0004 00000000 		.word	iq
 1501 0008 00000000 		.word	0
 1502 000c 00000000 		.word	test
 1503 0010 04000000 		.word	test+4
 1504 0014 00000000 		.word	test
 1505 0018 00000000 		.word	test
 1506 001c 00000000 		.word	notify
 1507 0020 00000000 		.word	0
 1508              		.text
 1509              	.Letext0:
 1510              		.file 2 "c:\\chibistudio\\tools\\gnu tools arm embedded\\4.6 2012q4\\bin\\../lib/gcc/arm-none-eabi
 1511              		.file 3 "c:\\chibistudio\\tools\\gnu tools arm embedded\\4.6 2012q4\\bin\\../lib/gcc/arm-none-eabi
 1512              		.file 4 "../../os/ports/GCC/ARMCMx/chtypes.h"
 1513              		.file 5 "../../os/kernel/include/chlists.h"
 1514              		.file 6 "../../os/kernel/include/chthreads.h"
 1515              		.file 7 "../../os/ports/GCC/ARMCMx/chcore_v7m.h"
 1516              		.file 8 "../../os/kernel/include/chschd.h"
 1517              		.file 9 "../../os/kernel/include/chmtx.h"
 1518              		.file 10 "../../os/kernel/include/chqueues.h"
 1519              		.file 11 "../../test/test.h"
 1520              		.section	.debug_info,"",%progbits
ARM GAS  C:\Users\TAISIK~1\AppData\Local\Temp\ccZJTFka.s 			page 28


 1521              	.Ldebug_info0:
 1522 0000 75110000 		.4byte	0x1175
 1523 0004 0200     		.2byte	0x2
 1524 0006 00000000 		.4byte	.Ldebug_abbrev0
 1525 000a 04       		.byte	0x4
 1526 000b 01       		.uleb128 0x1
 1527 000c 37000000 		.4byte	.LASF96
 1528 0010 01       		.byte	0x1
 1529 0011 F1020000 		.4byte	.LASF97
 1530 0015 BA000000 		.4byte	.LASF98
 1531 0019 00000000 		.4byte	0
 1532 001d 00000000 		.4byte	0
 1533 0021 40010000 		.4byte	.Ldebug_ranges0+0x140
 1534 0025 00000000 		.4byte	.Ldebug_line0
 1535 0029 02       		.uleb128 0x2
 1536 002a 04       		.byte	0x4
 1537 002b 05       		.byte	0x5
 1538 002c 696E7400 		.ascii	"int\000"
 1539 0030 03       		.uleb128 0x3
 1540 0031 06000000 		.4byte	.LASF2
 1541 0035 02       		.byte	0x2
 1542 0036 D4       		.byte	0xd4
 1543 0037 3B000000 		.4byte	0x3b
 1544 003b 04       		.uleb128 0x4
 1545 003c 04       		.byte	0x4
 1546 003d 07       		.byte	0x7
 1547 003e 73010000 		.4byte	.LASF0
 1548 0042 04       		.uleb128 0x4
 1549 0043 01       		.byte	0x1
 1550 0044 06       		.byte	0x6
 1551 0045 0A010000 		.4byte	.LASF1
 1552 0049 03       		.uleb128 0x3
 1553 004a F4030000 		.4byte	.LASF3
 1554 004e 03       		.byte	0x3
 1555 004f 2A       		.byte	0x2a
 1556 0050 54000000 		.4byte	0x54
 1557 0054 04       		.uleb128 0x4
 1558 0055 01       		.byte	0x1
 1559 0056 08       		.byte	0x8
 1560 0057 E3020000 		.4byte	.LASF4
 1561 005b 04       		.uleb128 0x4
 1562 005c 02       		.byte	0x2
 1563 005d 05       		.byte	0x5
 1564 005e 13030000 		.4byte	.LASF5
 1565 0062 04       		.uleb128 0x4
 1566 0063 02       		.byte	0x2
 1567 0064 07       		.byte	0x7
 1568 0065 A8010000 		.4byte	.LASF6
 1569 0069 03       		.uleb128 0x3
 1570 006a DB020000 		.4byte	.LASF7
 1571 006e 03       		.byte	0x3
 1572 006f 4F       		.byte	0x4f
 1573 0070 74000000 		.4byte	0x74
 1574 0074 04       		.uleb128 0x4
 1575 0075 04       		.byte	0x4
 1576 0076 05       		.byte	0x5
 1577 0077 37010000 		.4byte	.LASF8
ARM GAS  C:\Users\TAISIK~1\AppData\Local\Temp\ccZJTFka.s 			page 29


 1578 007b 03       		.uleb128 0x3
 1579 007c 6F030000 		.4byte	.LASF9
 1580 0080 03       		.byte	0x3
 1581 0081 50       		.byte	0x50
 1582 0082 86000000 		.4byte	0x86
 1583 0086 04       		.uleb128 0x4
 1584 0087 04       		.byte	0x4
 1585 0088 07       		.byte	0x7
 1586 0089 80010000 		.4byte	.LASF10
 1587 008d 04       		.uleb128 0x4
 1588 008e 08       		.byte	0x8
 1589 008f 05       		.byte	0x5
 1590 0090 FC000000 		.4byte	.LASF11
 1591 0094 03       		.uleb128 0x3
 1592 0095 14000000 		.4byte	.LASF12
 1593 0099 03       		.byte	0x3
 1594 009a 78       		.byte	0x78
 1595 009b 9F000000 		.4byte	0x9f
 1596 009f 04       		.uleb128 0x4
 1597 00a0 08       		.byte	0x8
 1598 00a1 07       		.byte	0x7
 1599 00a2 80000000 		.4byte	.LASF13
 1600 00a6 03       		.uleb128 0x3
 1601 00a7 1E010000 		.4byte	.LASF14
 1602 00ab 04       		.byte	0x4
 1603 00ac 24       		.byte	0x24
 1604 00ad B1000000 		.4byte	0xb1
 1605 00b1 04       		.uleb128 0x4
 1606 00b2 01       		.byte	0x1
 1607 00b3 02       		.byte	0x2
 1608 00b4 D5020000 		.4byte	.LASF15
 1609 00b8 03       		.uleb128 0x3
 1610 00b9 DD010000 		.4byte	.LASF16
 1611 00bd 04       		.byte	0x4
 1612 00be 25       		.byte	0x25
 1613 00bf 49000000 		.4byte	0x49
 1614 00c3 03       		.uleb128 0x3
 1615 00c4 40010000 		.4byte	.LASF17
 1616 00c8 04       		.byte	0x4
 1617 00c9 26       		.byte	0x26
 1618 00ca 49000000 		.4byte	0x49
 1619 00ce 03       		.uleb128 0x3
 1620 00cf A4020000 		.4byte	.LASF18
 1621 00d3 04       		.byte	0x4
 1622 00d4 27       		.byte	0x27
 1623 00d5 49000000 		.4byte	0x49
 1624 00d9 03       		.uleb128 0x3
 1625 00da 2D010000 		.4byte	.LASF19
 1626 00de 04       		.byte	0x4
 1627 00df 28       		.byte	0x28
 1628 00e0 49000000 		.4byte	0x49
 1629 00e4 03       		.uleb128 0x3
 1630 00e5 C5020000 		.4byte	.LASF20
 1631 00e9 04       		.byte	0x4
 1632 00ea 29       		.byte	0x29
 1633 00eb 7B000000 		.4byte	0x7b
 1634 00ef 03       		.uleb128 0x3
ARM GAS  C:\Users\TAISIK~1\AppData\Local\Temp\ccZJTFka.s 			page 30


 1635 00f0 D7010000 		.4byte	.LASF21
 1636 00f4 04       		.byte	0x4
 1637 00f5 2A       		.byte	0x2a
 1638 00f6 69000000 		.4byte	0x69
 1639 00fa 03       		.uleb128 0x3
 1640 00fb F1010000 		.4byte	.LASF22
 1641 00ff 04       		.byte	0x4
 1642 0100 2C       		.byte	0x2c
 1643 0101 7B000000 		.4byte	0x7b
 1644 0105 03       		.uleb128 0x3
 1645 0106 99030000 		.4byte	.LASF23
 1646 010a 04       		.byte	0x4
 1647 010b 2E       		.byte	0x2e
 1648 010c 7B000000 		.4byte	0x7b
 1649 0110 03       		.uleb128 0x3
 1650 0111 54030000 		.4byte	.LASF24
 1651 0115 05       		.byte	0x5
 1652 0116 23       		.byte	0x23
 1653 0117 1B010000 		.4byte	0x11b
 1654 011b 05       		.uleb128 0x5
 1655 011c 54030000 		.4byte	.LASF24
 1656 0120 48       		.byte	0x48
 1657 0121 06       		.byte	0x6
 1658 0122 57       		.byte	0x57
 1659 0123 40020000 		.4byte	0x240
 1660 0127 06       		.uleb128 0x6
 1661 0128 45030000 		.4byte	.LASF25
 1662 012c 06       		.byte	0x6
 1663 012d 58       		.byte	0x58
 1664 012e 65020000 		.4byte	0x265
 1665 0132 02       		.byte	0x2
 1666 0133 23       		.byte	0x23
 1667 0134 00       		.uleb128 0
 1668 0135 06       		.uleb128 0x6
 1669 0136 B6020000 		.4byte	.LASF26
 1670 013a 06       		.byte	0x6
 1671 013b 5A       		.byte	0x5a
 1672 013c 65020000 		.4byte	0x265
 1673 0140 02       		.byte	0x2
 1674 0141 23       		.byte	0x23
 1675 0142 04       		.uleb128 0x4
 1676 0143 06       		.uleb128 0x6
 1677 0144 B3000000 		.4byte	.LASF27
 1678 0148 06       		.byte	0x6
 1679 0149 5C       		.byte	0x5c
 1680 014a E4000000 		.4byte	0xe4
 1681 014e 02       		.byte	0x2
 1682 014f 23       		.byte	0x23
 1683 0150 08       		.uleb128 0x8
 1684 0151 06       		.uleb128 0x6
 1685 0152 19040000 		.4byte	.LASF28
 1686 0156 06       		.byte	0x6
 1687 0157 5D       		.byte	0x5d
 1688 0158 3E030000 		.4byte	0x33e
 1689 015c 02       		.byte	0x2
 1690 015d 23       		.byte	0x23
 1691 015e 0C       		.uleb128 0xc
ARM GAS  C:\Users\TAISIK~1\AppData\Local\Temp\ccZJTFka.s 			page 31


 1692 015f 06       		.uleb128 0x6
 1693 0160 5A010000 		.4byte	.LASF29
 1694 0164 06       		.byte	0x6
 1695 0165 5F       		.byte	0x5f
 1696 0166 65020000 		.4byte	0x265
 1697 016a 02       		.byte	0x2
 1698 016b 23       		.byte	0x23
 1699 016c 10       		.uleb128 0x10
 1700 016d 06       		.uleb128 0x6
 1701 016e 53020000 		.4byte	.LASF30
 1702 0172 06       		.byte	0x6
 1703 0173 60       		.byte	0x60
 1704 0174 65020000 		.4byte	0x265
 1705 0178 02       		.byte	0x2
 1706 0179 23       		.byte	0x23
 1707 017a 14       		.uleb128 0x14
 1708 017b 06       		.uleb128 0x6
 1709 017c 03040000 		.4byte	.LASF31
 1710 0180 06       		.byte	0x6
 1711 0181 67       		.byte	0x67
 1712 0182 4B040000 		.4byte	0x44b
 1713 0186 02       		.byte	0x2
 1714 0187 23       		.byte	0x23
 1715 0188 18       		.uleb128 0x18
 1716 0189 06       		.uleb128 0x6
 1717 018a 1D030000 		.4byte	.LASF32
 1718 018e 06       		.byte	0x6
 1719 018f 72       		.byte	0x72
 1720 0190 C3000000 		.4byte	0xc3
 1721 0194 02       		.byte	0x2
 1722 0195 23       		.byte	0x23
 1723 0196 1C       		.uleb128 0x1c
 1724 0197 06       		.uleb128 0x6
 1725 0198 4C030000 		.4byte	.LASF33
 1726 019c 06       		.byte	0x6
 1727 019d 76       		.byte	0x76
 1728 019e B8000000 		.4byte	0xb8
 1729 01a2 02       		.byte	0x2
 1730 01a3 23       		.byte	0x23
 1731 01a4 1D       		.uleb128 0x1d
 1732 01a5 06       		.uleb128 0x6
 1733 01a6 D4030000 		.4byte	.LASF34
 1734 01aa 06       		.byte	0x6
 1735 01ab 7B       		.byte	0x7b
 1736 01ac CE000000 		.4byte	0xce
 1737 01b0 02       		.byte	0x2
 1738 01b1 23       		.byte	0x23
 1739 01b2 1E       		.uleb128 0x1e
 1740 01b3 06       		.uleb128 0x6
 1741 01b4 25030000 		.4byte	.LASF35
 1742 01b8 06       		.byte	0x6
 1743 01b9 81       		.byte	0x81
 1744 01ba D9000000 		.4byte	0xd9
 1745 01be 02       		.byte	0x2
 1746 01bf 23       		.byte	0x23
 1747 01c0 1F       		.uleb128 0x1f
 1748 01c1 06       		.uleb128 0x6
ARM GAS  C:\Users\TAISIK~1\AppData\Local\Temp\ccZJTFka.s 			page 32


 1749 01c2 B5030000 		.4byte	.LASF36
 1750 01c6 06       		.byte	0x6
 1751 01c7 88       		.byte	0x88
 1752 01c8 61030000 		.4byte	0x361
 1753 01cc 02       		.byte	0x2
 1754 01cd 23       		.byte	0x23
 1755 01ce 20       		.uleb128 0x20
 1756 01cf 07       		.uleb128 0x7
 1757 01d0 705F7500 		.ascii	"p_u\000"
 1758 01d4 06       		.byte	0x6
 1759 01d5 AD       		.byte	0xad
 1760 01d6 16040000 		.4byte	0x416
 1761 01da 02       		.byte	0x2
 1762 01db 23       		.byte	0x23
 1763 01dc 24       		.uleb128 0x24
 1764 01dd 06       		.uleb128 0x6
 1765 01de 1F040000 		.4byte	.LASF37
 1766 01e2 06       		.byte	0x6
 1767 01e3 B2       		.byte	0xb2
 1768 01e4 8D020000 		.4byte	0x28d
 1769 01e8 02       		.byte	0x2
 1770 01e9 23       		.byte	0x23
 1771 01ea 28       		.uleb128 0x28
 1772 01eb 06       		.uleb128 0x6
 1773 01ec C3030000 		.4byte	.LASF38
 1774 01f0 06       		.byte	0x6
 1775 01f1 B8       		.byte	0xb8
 1776 01f2 6B020000 		.4byte	0x26b
 1777 01f6 02       		.byte	0x2
 1778 01f7 23       		.byte	0x23
 1779 01f8 2C       		.uleb128 0x2c
 1780 01f9 06       		.uleb128 0x6
 1781 01fa 00000000 		.4byte	.LASF39
 1782 01fe 06       		.byte	0x6
 1783 01ff BC       		.byte	0xbc
 1784 0200 EF000000 		.4byte	0xef
 1785 0204 02       		.byte	0x2
 1786 0205 23       		.byte	0x23
 1787 0206 34       		.uleb128 0x34
 1788 0207 06       		.uleb128 0x6
 1789 0208 64030000 		.4byte	.LASF40
 1790 020c 06       		.byte	0x6
 1791 020d C2       		.byte	0xc2
 1792 020e FA000000 		.4byte	0xfa
 1793 0212 02       		.byte	0x2
 1794 0213 23       		.byte	0x23
 1795 0214 38       		.uleb128 0x38
 1796 0215 06       		.uleb128 0x6
 1797 0216 09030000 		.4byte	.LASF41
 1798 021a 06       		.byte	0x6
 1799 021b C9       		.byte	0xc9
 1800 021c 5D040000 		.4byte	0x45d
 1801 0220 02       		.byte	0x2
 1802 0221 23       		.byte	0x23
 1803 0222 3C       		.uleb128 0x3c
 1804 0223 06       		.uleb128 0x6
 1805 0224 A3030000 		.4byte	.LASF42
ARM GAS  C:\Users\TAISIK~1\AppData\Local\Temp\ccZJTFka.s 			page 33


 1806 0228 06       		.byte	0x6
 1807 0229 CD       		.byte	0xcd
 1808 022a E4000000 		.4byte	0xe4
 1809 022e 02       		.byte	0x2
 1810 022f 23       		.byte	0x23
 1811 0230 40       		.uleb128 0x40
 1812 0231 06       		.uleb128 0x6
 1813 0232 16010000 		.4byte	.LASF43
 1814 0236 06       		.byte	0x6
 1815 0237 D3       		.byte	0xd3
 1816 0238 A3020000 		.4byte	0x2a3
 1817 023c 02       		.byte	0x2
 1818 023d 23       		.byte	0x23
 1819 023e 44       		.uleb128 0x44
 1820 023f 00       		.byte	0
 1821 0240 08       		.uleb128 0x8
 1822 0241 08       		.byte	0x8
 1823 0242 05       		.byte	0x5
 1824 0243 5A       		.byte	0x5a
 1825 0244 65020000 		.4byte	0x265
 1826 0248 06       		.uleb128 0x6
 1827 0249 45030000 		.4byte	.LASF25
 1828 024d 05       		.byte	0x5
 1829 024e 5B       		.byte	0x5b
 1830 024f 65020000 		.4byte	0x265
 1831 0253 02       		.byte	0x2
 1832 0254 23       		.byte	0x23
 1833 0255 00       		.uleb128 0
 1834 0256 06       		.uleb128 0x6
 1835 0257 B6020000 		.4byte	.LASF26
 1836 025b 05       		.byte	0x5
 1837 025c 5D       		.byte	0x5d
 1838 025d 65020000 		.4byte	0x265
 1839 0261 02       		.byte	0x2
 1840 0262 23       		.byte	0x23
 1841 0263 04       		.uleb128 0x4
 1842 0264 00       		.byte	0
 1843 0265 09       		.uleb128 0x9
 1844 0266 04       		.byte	0x4
 1845 0267 10010000 		.4byte	0x110
 1846 026b 03       		.uleb128 0x3
 1847 026c 71020000 		.4byte	.LASF44
 1848 0270 05       		.byte	0x5
 1849 0271 5F       		.byte	0x5f
 1850 0272 40020000 		.4byte	0x240
 1851 0276 08       		.uleb128 0x8
 1852 0277 04       		.byte	0x4
 1853 0278 05       		.byte	0x5
 1854 0279 64       		.byte	0x64
 1855 027a 8D020000 		.4byte	0x28d
 1856 027e 06       		.uleb128 0x6
 1857 027f 45030000 		.4byte	.LASF25
 1858 0283 05       		.byte	0x5
 1859 0284 66       		.byte	0x66
 1860 0285 65020000 		.4byte	0x265
 1861 0289 02       		.byte	0x2
 1862 028a 23       		.byte	0x23
ARM GAS  C:\Users\TAISIK~1\AppData\Local\Temp\ccZJTFka.s 			page 34


 1863 028b 00       		.uleb128 0
 1864 028c 00       		.byte	0
 1865 028d 03       		.uleb128 0x3
 1866 028e E5010000 		.4byte	.LASF45
 1867 0292 05       		.byte	0x5
 1868 0293 69       		.byte	0x69
 1869 0294 76020000 		.4byte	0x276
 1870 0298 03       		.uleb128 0x3
 1871 0299 6A010000 		.4byte	.LASF46
 1872 029d 07       		.byte	0x7
 1873 029e DE       		.byte	0xde
 1874 029f A3020000 		.4byte	0x2a3
 1875 02a3 0A       		.uleb128 0xa
 1876 02a4 04       		.byte	0x4
 1877 02a5 03       		.uleb128 0x3
 1878 02a6 1B020000 		.4byte	.LASF47
 1879 02aa 07       		.byte	0x7
 1880 02ab E4       		.byte	0xe4
 1881 02ac 94000000 		.4byte	0x94
 1882 02b0 0B       		.uleb128 0xb
 1883 02b1 BC030000 		.4byte	.LASF48
 1884 02b5 24       		.byte	0x24
 1885 02b6 07       		.byte	0x7
 1886 02b7 0501     		.2byte	0x105
 1887 02b9 3E030000 		.4byte	0x33e
 1888 02bd 0C       		.uleb128 0xc
 1889 02be 723400   		.ascii	"r4\000"
 1890 02c1 07       		.byte	0x7
 1891 02c2 1801     		.2byte	0x118
 1892 02c4 98020000 		.4byte	0x298
 1893 02c8 02       		.byte	0x2
 1894 02c9 23       		.byte	0x23
 1895 02ca 00       		.uleb128 0
 1896 02cb 0C       		.uleb128 0xc
 1897 02cc 723500   		.ascii	"r5\000"
 1898 02cf 07       		.byte	0x7
 1899 02d0 1901     		.2byte	0x119
 1900 02d2 98020000 		.4byte	0x298
 1901 02d6 02       		.byte	0x2
 1902 02d7 23       		.byte	0x23
 1903 02d8 04       		.uleb128 0x4
 1904 02d9 0C       		.uleb128 0xc
 1905 02da 723600   		.ascii	"r6\000"
 1906 02dd 07       		.byte	0x7
 1907 02de 1A01     		.2byte	0x11a
 1908 02e0 98020000 		.4byte	0x298
 1909 02e4 02       		.byte	0x2
 1910 02e5 23       		.byte	0x23
 1911 02e6 08       		.uleb128 0x8
 1912 02e7 0C       		.uleb128 0xc
 1913 02e8 723700   		.ascii	"r7\000"
 1914 02eb 07       		.byte	0x7
 1915 02ec 1B01     		.2byte	0x11b
 1916 02ee 98020000 		.4byte	0x298
 1917 02f2 02       		.byte	0x2
 1918 02f3 23       		.byte	0x23
 1919 02f4 0C       		.uleb128 0xc
ARM GAS  C:\Users\TAISIK~1\AppData\Local\Temp\ccZJTFka.s 			page 35


 1920 02f5 0C       		.uleb128 0xc
 1921 02f6 723800   		.ascii	"r8\000"
 1922 02f9 07       		.byte	0x7
 1923 02fa 1C01     		.2byte	0x11c
 1924 02fc 98020000 		.4byte	0x298
 1925 0300 02       		.byte	0x2
 1926 0301 23       		.byte	0x23
 1927 0302 10       		.uleb128 0x10
 1928 0303 0C       		.uleb128 0xc
 1929 0304 723900   		.ascii	"r9\000"
 1930 0307 07       		.byte	0x7
 1931 0308 1D01     		.2byte	0x11d
 1932 030a 98020000 		.4byte	0x298
 1933 030e 02       		.byte	0x2
 1934 030f 23       		.byte	0x23
 1935 0310 14       		.uleb128 0x14
 1936 0311 0C       		.uleb128 0xc
 1937 0312 72313000 		.ascii	"r10\000"
 1938 0316 07       		.byte	0x7
 1939 0317 1E01     		.2byte	0x11e
 1940 0319 98020000 		.4byte	0x298
 1941 031d 02       		.byte	0x2
 1942 031e 23       		.byte	0x23
 1943 031f 18       		.uleb128 0x18
 1944 0320 0C       		.uleb128 0xc
 1945 0321 72313100 		.ascii	"r11\000"
 1946 0325 07       		.byte	0x7
 1947 0326 1F01     		.2byte	0x11f
 1948 0328 98020000 		.4byte	0x298
 1949 032c 02       		.byte	0x2
 1950 032d 23       		.byte	0x23
 1951 032e 1C       		.uleb128 0x1c
 1952 032f 0C       		.uleb128 0xc
 1953 0330 6C7200   		.ascii	"lr\000"
 1954 0333 07       		.byte	0x7
 1955 0334 2001     		.2byte	0x120
 1956 0336 98020000 		.4byte	0x298
 1957 033a 02       		.byte	0x2
 1958 033b 23       		.byte	0x23
 1959 033c 20       		.uleb128 0x20
 1960 033d 00       		.byte	0
 1961 033e 0B       		.uleb128 0xb
 1962 033f A0010000 		.4byte	.LASF49
 1963 0343 04       		.byte	0x4
 1964 0344 07       		.byte	0x7
 1965 0345 2A01     		.2byte	0x12a
 1966 0347 5B030000 		.4byte	0x35b
 1967 034b 0C       		.uleb128 0xc
 1968 034c 72313300 		.ascii	"r13\000"
 1969 0350 07       		.byte	0x7
 1970 0351 2B01     		.2byte	0x12b
 1971 0353 5B030000 		.4byte	0x35b
 1972 0357 02       		.byte	0x2
 1973 0358 23       		.byte	0x23
 1974 0359 00       		.uleb128 0
 1975 035a 00       		.byte	0
 1976 035b 09       		.uleb128 0x9
ARM GAS  C:\Users\TAISIK~1\AppData\Local\Temp\ccZJTFka.s 			page 36


 1977 035c 04       		.byte	0x4
 1978 035d B0020000 		.4byte	0x2b0
 1979 0361 0D       		.uleb128 0xd
 1980 0362 05010000 		.4byte	0x105
 1981 0366 08       		.uleb128 0x8
 1982 0367 1C       		.byte	0x1c
 1983 0368 08       		.byte	0x8
 1984 0369 57       		.byte	0x57
 1985 036a C3030000 		.4byte	0x3c3
 1986 036e 06       		.uleb128 0x6
 1987 036f 78030000 		.4byte	.LASF50
 1988 0373 08       		.byte	0x8
 1989 0374 58       		.byte	0x58
 1990 0375 6B020000 		.4byte	0x26b
 1991 0379 02       		.byte	0x2
 1992 037a 23       		.byte	0x23
 1993 037b 00       		.uleb128 0
 1994 037c 06       		.uleb128 0x6
 1995 037d 37030000 		.4byte	.LASF51
 1996 0381 08       		.byte	0x8
 1997 0382 59       		.byte	0x59
 1998 0383 E4000000 		.4byte	0xe4
 1999 0387 02       		.byte	0x2
 2000 0388 23       		.byte	0x23
 2001 0389 08       		.uleb128 0x8
 2002 038a 06       		.uleb128 0x6
 2003 038b 6B020000 		.4byte	.LASF52
 2004 038f 08       		.byte	0x8
 2005 0390 5B       		.byte	0x5b
 2006 0391 3E030000 		.4byte	0x33e
 2007 0395 02       		.byte	0x2
 2008 0396 23       		.byte	0x23
 2009 0397 0C       		.uleb128 0xc
 2010 0398 06       		.uleb128 0x6
 2011 0399 62010000 		.4byte	.LASF53
 2012 039d 08       		.byte	0x8
 2013 039e 5E       		.byte	0x5e
 2014 039f 65020000 		.4byte	0x265
 2015 03a3 02       		.byte	0x2
 2016 03a4 23       		.byte	0x23
 2017 03a5 10       		.uleb128 0x10
 2018 03a6 06       		.uleb128 0x6
 2019 03a7 8E020000 		.4byte	.LASF54
 2020 03ab 08       		.byte	0x8
 2021 03ac 5F       		.byte	0x5f
 2022 03ad 65020000 		.4byte	0x265
 2023 03b1 02       		.byte	0x2
 2024 03b2 23       		.byte	0x23
 2025 03b3 14       		.uleb128 0x14
 2026 03b4 06       		.uleb128 0x6
 2027 03b5 84020000 		.4byte	.LASF55
 2028 03b9 08       		.byte	0x8
 2029 03ba 62       		.byte	0x62
 2030 03bb 65020000 		.4byte	0x265
 2031 03bf 02       		.byte	0x2
 2032 03c0 23       		.byte	0x23
 2033 03c1 18       		.uleb128 0x18
ARM GAS  C:\Users\TAISIK~1\AppData\Local\Temp\ccZJTFka.s 			page 37


 2034 03c2 00       		.byte	0
 2035 03c3 03       		.uleb128 0x3
 2036 03c4 DB030000 		.4byte	.LASF56
 2037 03c8 08       		.byte	0x8
 2038 03c9 64       		.byte	0x64
 2039 03ca 66030000 		.4byte	0x366
 2040 03ce 05       		.uleb128 0x5
 2041 03cf 08020000 		.4byte	.LASF57
 2042 03d3 10       		.byte	0x10
 2043 03d4 09       		.byte	0x9
 2044 03d5 25       		.byte	0x25
 2045 03d6 05040000 		.4byte	0x405
 2046 03da 06       		.uleb128 0x6
 2047 03db 25010000 		.4byte	.LASF58
 2048 03df 09       		.byte	0x9
 2049 03e0 26       		.byte	0x26
 2050 03e1 6B020000 		.4byte	0x26b
 2051 03e5 02       		.byte	0x2
 2052 03e6 23       		.byte	0x23
 2053 03e7 00       		.uleb128 0
 2054 03e8 06       		.uleb128 0x6
 2055 03e9 11040000 		.4byte	.LASF59
 2056 03ed 09       		.byte	0x9
 2057 03ee 28       		.byte	0x28
 2058 03ef 65020000 		.4byte	0x265
 2059 03f3 02       		.byte	0x2
 2060 03f4 23       		.byte	0x23
 2061 03f5 08       		.uleb128 0x8
 2062 03f6 06       		.uleb128 0x6
 2063 03f7 92030000 		.4byte	.LASF60
 2064 03fb 09       		.byte	0x9
 2065 03fc 2A       		.byte	0x2a
 2066 03fd 05040000 		.4byte	0x405
 2067 0401 02       		.byte	0x2
 2068 0402 23       		.byte	0x23
 2069 0403 0C       		.uleb128 0xc
 2070 0404 00       		.byte	0
 2071 0405 09       		.uleb128 0x9
 2072 0406 04       		.byte	0x4
 2073 0407 CE030000 		.4byte	0x3ce
 2074 040b 03       		.uleb128 0x3
 2075 040c 08020000 		.4byte	.LASF57
 2076 0410 09       		.byte	0x9
 2077 0411 2C       		.byte	0x2c
 2078 0412 CE030000 		.4byte	0x3ce
 2079 0416 0E       		.uleb128 0xe
 2080 0417 04       		.byte	0x4
 2081 0418 06       		.byte	0x6
 2082 0419 8F       		.byte	0x8f
 2083 041a 4B040000 		.4byte	0x44b
 2084 041e 0F       		.uleb128 0xf
 2085 041f 0D000000 		.4byte	.LASF61
 2086 0423 06       		.byte	0x6
 2087 0424 96       		.byte	0x96
 2088 0425 EF000000 		.4byte	0xef
 2089 0429 0F       		.uleb128 0xf
 2090 042a 97000000 		.4byte	.LASF62
ARM GAS  C:\Users\TAISIK~1\AppData\Local\Temp\ccZJTFka.s 			page 38


 2091 042e 06       		.byte	0x6
 2092 042f 9D       		.byte	0x9d
 2093 0430 EF000000 		.4byte	0xef
 2094 0434 0F       		.uleb128 0xf
 2095 0435 FC030000 		.4byte	.LASF63
 2096 0439 06       		.byte	0x6
 2097 043a A4       		.byte	0xa4
 2098 043b A3020000 		.4byte	0x2a3
 2099 043f 0F       		.uleb128 0xf
 2100 0440 3E030000 		.4byte	.LASF64
 2101 0444 06       		.byte	0x6
 2102 0445 AB       		.byte	0xab
 2103 0446 FA000000 		.4byte	0xfa
 2104 044a 00       		.byte	0
 2105 044b 09       		.uleb128 0x9
 2106 044c 04       		.byte	0x4
 2107 044d 51040000 		.4byte	0x451
 2108 0451 10       		.uleb128 0x10
 2109 0452 56040000 		.4byte	0x456
 2110 0456 04       		.uleb128 0x4
 2111 0457 01       		.byte	0x1
 2112 0458 08       		.byte	0x8
 2113 0459 80030000 		.4byte	.LASF65
 2114 045d 09       		.uleb128 0x9
 2115 045e 04       		.byte	0x4
 2116 045f 0B040000 		.4byte	0x40b
 2117 0463 03       		.uleb128 0x3
 2118 0464 0E020000 		.4byte	.LASF66
 2119 0468 0A       		.byte	0xa
 2120 0469 30       		.byte	0x30
 2121 046a 6E040000 		.4byte	0x46e
 2122 046e 05       		.uleb128 0x5
 2123 046f 0E020000 		.4byte	.LASF66
 2124 0473 24       		.byte	0x24
 2125 0474 0A       		.byte	0xa
 2126 0475 3E       		.byte	0x3e
 2127 0476 EB040000 		.4byte	0x4eb
 2128 047a 06       		.uleb128 0x6
 2129 047b F2000000 		.4byte	.LASF67
 2130 047f 0A       		.byte	0xa
 2131 0480 3F       		.byte	0x3f
 2132 0481 6B020000 		.4byte	0x26b
 2133 0485 02       		.byte	0x2
 2134 0486 23       		.byte	0x23
 2135 0487 00       		.uleb128 0
 2136 0488 06       		.uleb128 0x6
 2137 0489 3D020000 		.4byte	.LASF68
 2138 048d 0A       		.byte	0xa
 2139 048e 40       		.byte	0x40
 2140 048f 30000000 		.4byte	0x30
 2141 0493 02       		.byte	0x2
 2142 0494 23       		.byte	0x23
 2143 0495 08       		.uleb128 0x8
 2144 0496 06       		.uleb128 0x6
 2145 0497 49010000 		.4byte	.LASF69
 2146 049b 0A       		.byte	0xa
 2147 049c 41       		.byte	0x41
ARM GAS  C:\Users\TAISIK~1\AppData\Local\Temp\ccZJTFka.s 			page 39


 2148 049d 0E050000 		.4byte	0x50e
 2149 04a1 02       		.byte	0x2
 2150 04a2 23       		.byte	0x23
 2151 04a3 0C       		.uleb128 0xc
 2152 04a4 06       		.uleb128 0x6
 2153 04a5 CE030000 		.4byte	.LASF70
 2154 04a9 0A       		.byte	0xa
 2155 04aa 42       		.byte	0x42
 2156 04ab 0E050000 		.4byte	0x50e
 2157 04af 02       		.byte	0x2
 2158 04b0 23       		.byte	0x23
 2159 04b1 10       		.uleb128 0x10
 2160 04b2 06       		.uleb128 0x6
 2161 04b3 52010000 		.4byte	.LASF71
 2162 04b7 0A       		.byte	0xa
 2163 04b8 44       		.byte	0x44
 2164 04b9 0E050000 		.4byte	0x50e
 2165 04bd 02       		.byte	0x2
 2166 04be 23       		.byte	0x23
 2167 04bf 14       		.uleb128 0x14
 2168 04c0 06       		.uleb128 0x6
 2169 04c1 CD020000 		.4byte	.LASF72
 2170 04c5 0A       		.byte	0xa
 2171 04c6 45       		.byte	0x45
 2172 04c7 0E050000 		.4byte	0x50e
 2173 04cb 02       		.byte	0x2
 2174 04cc 23       		.byte	0x23
 2175 04cd 18       		.uleb128 0x18
 2176 04ce 06       		.uleb128 0x6
 2177 04cf E5030000 		.4byte	.LASF73
 2178 04d3 0A       		.byte	0xa
 2179 04d4 46       		.byte	0x46
 2180 04d5 EB040000 		.4byte	0x4eb
 2181 04d9 02       		.byte	0x2
 2182 04da 23       		.byte	0x23
 2183 04db 1C       		.uleb128 0x1c
 2184 04dc 06       		.uleb128 0x6
 2185 04dd 0A040000 		.4byte	.LASF74
 2186 04e1 0A       		.byte	0xa
 2187 04e2 47       		.byte	0x47
 2188 04e3 A3020000 		.4byte	0x2a3
 2189 04e7 02       		.byte	0x2
 2190 04e8 23       		.byte	0x23
 2191 04e9 20       		.uleb128 0x20
 2192 04ea 00       		.byte	0
 2193 04eb 03       		.uleb128 0x3
 2194 04ec AC020000 		.4byte	.LASF75
 2195 04f0 0A       		.byte	0xa
 2196 04f1 33       		.byte	0x33
 2197 04f2 F6040000 		.4byte	0x4f6
 2198 04f6 09       		.uleb128 0x9
 2199 04f7 04       		.byte	0x4
 2200 04f8 FC040000 		.4byte	0x4fc
 2201 04fc 11       		.uleb128 0x11
 2202 04fd 01       		.byte	0x1
 2203 04fe 08050000 		.4byte	0x508
 2204 0502 12       		.uleb128 0x12
ARM GAS  C:\Users\TAISIK~1\AppData\Local\Temp\ccZJTFka.s 			page 40


 2205 0503 08050000 		.4byte	0x508
 2206 0507 00       		.byte	0
 2207 0508 09       		.uleb128 0x9
 2208 0509 04       		.byte	0x4
 2209 050a 63040000 		.4byte	0x463
 2210 050e 09       		.uleb128 0x9
 2211 050f 04       		.byte	0x4
 2212 0510 49000000 		.4byte	0x49
 2213 0514 03       		.uleb128 0x3
 2214 0515 FD010000 		.4byte	.LASF76
 2215 0519 0A       		.byte	0xa
 2216 051a 7B       		.byte	0x7b
 2217 051b 63040000 		.4byte	0x463
 2218 051f 03       		.uleb128 0x3
 2219 0520 1D000000 		.4byte	.LASF77
 2220 0524 0A       		.byte	0xa
 2221 0525 EE       		.byte	0xee
 2222 0526 63040000 		.4byte	0x463
 2223 052a 05       		.uleb128 0x5
 2224 052b 5B030000 		.4byte	.LASF78
 2225 052f 10       		.byte	0x10
 2226 0530 0B       		.byte	0xb
 2227 0531 3F       		.byte	0x3f
 2228 0532 6F050000 		.4byte	0x56f
 2229 0536 06       		.uleb128 0x6
 2230 0537 9B010000 		.4byte	.LASF79
 2231 053b 0B       		.byte	0xb
 2232 053c 40       		.byte	0x40
 2233 053d 4B040000 		.4byte	0x44b
 2234 0541 02       		.byte	0x2
 2235 0542 23       		.byte	0x23
 2236 0543 00       		.uleb128 0
 2237 0544 06       		.uleb128 0x6
 2238 0545 7E020000 		.4byte	.LASF80
 2239 0549 0B       		.byte	0xb
 2240 054a 41       		.byte	0x41
 2241 054b 71050000 		.4byte	0x571
 2242 054f 02       		.byte	0x2
 2243 0550 23       		.byte	0x23
 2244 0551 04       		.uleb128 0x4
 2245 0552 06       		.uleb128 0x6
 2246 0553 92010000 		.4byte	.LASF81
 2247 0557 0B       		.byte	0xb
 2248 0558 42       		.byte	0x42
 2249 0559 71050000 		.4byte	0x571
 2250 055d 02       		.byte	0x2
 2251 055e 23       		.byte	0x23
 2252 055f 08       		.uleb128 0x8
 2253 0560 06       		.uleb128 0x6
 2254 0561 BD020000 		.4byte	.LASF82
 2255 0565 0B       		.byte	0xb
 2256 0566 43       		.byte	0x43
 2257 0567 71050000 		.4byte	0x571
 2258 056b 02       		.byte	0x2
 2259 056c 23       		.byte	0x23
 2260 056d 0C       		.uleb128 0xc
 2261 056e 00       		.byte	0
ARM GAS  C:\Users\TAISIK~1\AppData\Local\Temp\ccZJTFka.s 			page 41


 2262 056f 13       		.uleb128 0x13
 2263 0570 01       		.byte	0x1
 2264 0571 09       		.uleb128 0x9
 2265 0572 04       		.byte	0x4
 2266 0573 6F050000 		.4byte	0x56f
 2267 0577 14       		.uleb128 0x14
 2268 0578 F005     		.2byte	0x5f0
 2269 057a 0B       		.byte	0xb
 2270 057b 48       		.byte	0x48
 2271 057c C6050000 		.4byte	0x5c6
 2272 0580 07       		.uleb128 0x7
 2273 0581 543000   		.ascii	"T0\000"
 2274 0584 0B       		.byte	0xb
 2275 0585 49       		.byte	0x49
 2276 0586 C6050000 		.4byte	0x5c6
 2277 058a 02       		.byte	0x2
 2278 058b 23       		.byte	0x23
 2279 058c 00       		.uleb128 0
 2280 058d 07       		.uleb128 0x7
 2281 058e 543100   		.ascii	"T1\000"
 2282 0591 0B       		.byte	0xb
 2283 0592 4A       		.byte	0x4a
 2284 0593 C6050000 		.4byte	0x5c6
 2285 0597 03       		.byte	0x3
 2286 0598 23       		.byte	0x23
 2287 0599 B002     		.uleb128 0x130
 2288 059b 07       		.uleb128 0x7
 2289 059c 543200   		.ascii	"T2\000"
 2290 059f 0B       		.byte	0xb
 2291 05a0 4B       		.byte	0x4b
 2292 05a1 C6050000 		.4byte	0x5c6
 2293 05a5 03       		.byte	0x3
 2294 05a6 23       		.byte	0x23
 2295 05a7 E004     		.uleb128 0x260
 2296 05a9 07       		.uleb128 0x7
 2297 05aa 543300   		.ascii	"T3\000"
 2298 05ad 0B       		.byte	0xb
 2299 05ae 4C       		.byte	0x4c
 2300 05af C6050000 		.4byte	0x5c6
 2301 05b3 03       		.byte	0x3
 2302 05b4 23       		.byte	0x23
 2303 05b5 9007     		.uleb128 0x390
 2304 05b7 07       		.uleb128 0x7
 2305 05b8 543400   		.ascii	"T4\000"
 2306 05bb 0B       		.byte	0xb
 2307 05bc 4D       		.byte	0x4d
 2308 05bd C6050000 		.4byte	0x5c6
 2309 05c1 03       		.byte	0x3
 2310 05c2 23       		.byte	0x23
 2311 05c3 C009     		.uleb128 0x4c0
 2312 05c5 00       		.byte	0
 2313 05c6 15       		.uleb128 0x15
 2314 05c7 A5020000 		.4byte	0x2a5
 2315 05cb D6050000 		.4byte	0x5d6
 2316 05cf 16       		.uleb128 0x16
 2317 05d0 3B000000 		.4byte	0x3b
 2318 05d4 25       		.byte	0x25
ARM GAS  C:\Users\TAISIK~1\AppData\Local\Temp\ccZJTFka.s 			page 42


 2319 05d5 00       		.byte	0
 2320 05d6 17       		.uleb128 0x17
 2321 05d7 85030000 		.4byte	.LASF99
 2322 05db F005     		.2byte	0x5f0
 2323 05dd 0B       		.byte	0xb
 2324 05de 47       		.byte	0x47
 2325 05df F9050000 		.4byte	0x5f9
 2326 05e3 18       		.uleb128 0x18
 2327 05e4 776100   		.ascii	"wa\000"
 2328 05e7 0B       		.byte	0xb
 2329 05e8 4E       		.byte	0x4e
 2330 05e9 77050000 		.4byte	0x577
 2331 05ed 0F       		.uleb128 0xf
 2332 05ee AE030000 		.4byte	.LASF83
 2333 05f2 0B       		.byte	0xb
 2334 05f3 4F       		.byte	0x4f
 2335 05f4 F9050000 		.4byte	0x5f9
 2336 05f8 00       		.byte	0
 2337 05f9 15       		.uleb128 0x15
 2338 05fa 49000000 		.4byte	0x49
 2339 05fe 0A060000 		.4byte	0x60a
 2340 0602 19       		.uleb128 0x19
 2341 0603 3B000000 		.4byte	0x3b
 2342 0607 EF05     		.2byte	0x5ef
 2343 0609 00       		.byte	0
 2344 060a 1A       		.uleb128 0x1a
 2345 060b 2D020000 		.4byte	.LASF84
 2346 060f 01       		.byte	0x1
 2347 0610 B5       		.byte	0xb5
 2348 0611 01       		.byte	0x1
 2349 0612 01       		.byte	0x1
 2350 0613 0D080000 		.4byte	0x80d
 2351 0617 1B       		.uleb128 0x1b
 2352 0618 6900     		.ascii	"i\000"
 2353 061a 01       		.byte	0x1
 2354 061b B6       		.byte	0xb6
 2355 061c 3B000000 		.4byte	0x3b
 2356 0620 1B       		.uleb128 0x1b
 2357 0621 6E00     		.ascii	"n\000"
 2358 0623 01       		.byte	0x1
 2359 0624 B7       		.byte	0xb7
 2360 0625 30000000 		.4byte	0x30
 2361 0629 1C       		.uleb128 0x1c
 2362 062a 3A060000 		.4byte	0x63a
 2363 062e 1B       		.uleb128 0x1b
 2364 062f 746D7000 		.ascii	"tmp\000"
 2365 0633 01       		.byte	0x1
 2366 0634 BA       		.byte	0xba
 2367 0635 7B000000 		.4byte	0x7b
 2368 0639 00       		.byte	0
 2369 063a 1C       		.uleb128 0x1c
 2370 063b 4B060000 		.4byte	0x64b
 2371 063f 1B       		.uleb128 0x1b
 2372 0640 746D7000 		.ascii	"tmp\000"
 2373 0644 01       		.byte	0x1
 2374 0645 BA       		.byte	0xba
 2375 0646 7B000000 		.4byte	0x7b
ARM GAS  C:\Users\TAISIK~1\AppData\Local\Temp\ccZJTFka.s 			page 43


 2376 064a 00       		.byte	0
 2377 064b 1C       		.uleb128 0x1c
 2378 064c 5C060000 		.4byte	0x65c
 2379 0650 1B       		.uleb128 0x1b
 2380 0651 746D7000 		.ascii	"tmp\000"
 2381 0655 01       		.byte	0x1
 2382 0656 BA       		.byte	0xba
 2383 0657 7B000000 		.4byte	0x7b
 2384 065b 00       		.byte	0
 2385 065c 1C       		.uleb128 0x1c
 2386 065d 6D060000 		.4byte	0x66d
 2387 0661 1B       		.uleb128 0x1b
 2388 0662 746D7000 		.ascii	"tmp\000"
 2389 0666 01       		.byte	0x1
 2390 0667 BF       		.byte	0xbf
 2391 0668 7B000000 		.4byte	0x7b
 2392 066c 00       		.byte	0
 2393 066d 1C       		.uleb128 0x1c
 2394 066e 7E060000 		.4byte	0x67e
 2395 0672 1B       		.uleb128 0x1b
 2396 0673 746D7000 		.ascii	"tmp\000"
 2397 0677 01       		.byte	0x1
 2398 0678 BF       		.byte	0xbf
 2399 0679 7B000000 		.4byte	0x7b
 2400 067d 00       		.byte	0
 2401 067e 1C       		.uleb128 0x1c
 2402 067f 8F060000 		.4byte	0x68f
 2403 0683 1B       		.uleb128 0x1b
 2404 0684 746D7000 		.ascii	"tmp\000"
 2405 0688 01       		.byte	0x1
 2406 0689 BF       		.byte	0xbf
 2407 068a 7B000000 		.4byte	0x7b
 2408 068e 00       		.byte	0
 2409 068f 1C       		.uleb128 0x1c
 2410 0690 BC060000 		.4byte	0x6bc
 2411 0694 1B       		.uleb128 0x1b
 2412 0695 6300     		.ascii	"c\000"
 2413 0697 01       		.byte	0x1
 2414 0698 C3       		.byte	0xc3
 2415 0699 56040000 		.4byte	0x456
 2416 069d 1C       		.uleb128 0x1c
 2417 069e AE060000 		.4byte	0x6ae
 2418 06a2 1B       		.uleb128 0x1b
 2419 06a3 746D7000 		.ascii	"tmp\000"
 2420 06a7 01       		.byte	0x1
 2421 06a8 C5       		.byte	0xc5
 2422 06a9 7B000000 		.4byte	0x7b
 2423 06ad 00       		.byte	0
 2424 06ae 1D       		.uleb128 0x1d
 2425 06af 1B       		.uleb128 0x1b
 2426 06b0 746D7000 		.ascii	"tmp\000"
 2427 06b4 01       		.byte	0x1
 2428 06b5 C7       		.byte	0xc7
 2429 06b6 7B000000 		.4byte	0x7b
 2430 06ba 00       		.byte	0
 2431 06bb 00       		.byte	0
 2432 06bc 1C       		.uleb128 0x1c
ARM GAS  C:\Users\TAISIK~1\AppData\Local\Temp\ccZJTFka.s 			page 44


 2433 06bd CD060000 		.4byte	0x6cd
 2434 06c1 1B       		.uleb128 0x1b
 2435 06c2 746D7000 		.ascii	"tmp\000"
 2436 06c6 01       		.byte	0x1
 2437 06c7 CA       		.byte	0xca
 2438 06c8 7B000000 		.4byte	0x7b
 2439 06cc 00       		.byte	0
 2440 06cd 1C       		.uleb128 0x1c
 2441 06ce DE060000 		.4byte	0x6de
 2442 06d2 1B       		.uleb128 0x1b
 2443 06d3 746D7000 		.ascii	"tmp\000"
 2444 06d7 01       		.byte	0x1
 2445 06d8 CA       		.byte	0xca
 2446 06d9 7B000000 		.4byte	0x7b
 2447 06dd 00       		.byte	0
 2448 06de 1C       		.uleb128 0x1c
 2449 06df EF060000 		.4byte	0x6ef
 2450 06e3 1B       		.uleb128 0x1b
 2451 06e4 746D7000 		.ascii	"tmp\000"
 2452 06e8 01       		.byte	0x1
 2453 06e9 CA       		.byte	0xca
 2454 06ea 7B000000 		.4byte	0x7b
 2455 06ee 00       		.byte	0
 2456 06ef 1C       		.uleb128 0x1c
 2457 06f0 00070000 		.4byte	0x700
 2458 06f4 1B       		.uleb128 0x1b
 2459 06f5 746D7000 		.ascii	"tmp\000"
 2460 06f9 01       		.byte	0x1
 2461 06fa CC       		.byte	0xcc
 2462 06fb 7B000000 		.4byte	0x7b
 2463 06ff 00       		.byte	0
 2464 0700 1C       		.uleb128 0x1c
 2465 0701 11070000 		.4byte	0x711
 2466 0705 1B       		.uleb128 0x1b
 2467 0706 746D7000 		.ascii	"tmp\000"
 2468 070a 01       		.byte	0x1
 2469 070b CC       		.byte	0xcc
 2470 070c 7B000000 		.4byte	0x7b
 2471 0710 00       		.byte	0
 2472 0711 1C       		.uleb128 0x1c
 2473 0712 22070000 		.4byte	0x722
 2474 0716 1B       		.uleb128 0x1b
 2475 0717 746D7000 		.ascii	"tmp\000"
 2476 071b 01       		.byte	0x1
 2477 071c CC       		.byte	0xcc
 2478 071d 7B000000 		.4byte	0x7b
 2479 0721 00       		.byte	0
 2480 0722 1C       		.uleb128 0x1c
 2481 0723 33070000 		.4byte	0x733
 2482 0727 1B       		.uleb128 0x1b
 2483 0728 746D7000 		.ascii	"tmp\000"
 2484 072c 01       		.byte	0x1
 2485 072d D1       		.byte	0xd1
 2486 072e 7B000000 		.4byte	0x7b
 2487 0732 00       		.byte	0
 2488 0733 1C       		.uleb128 0x1c
 2489 0734 44070000 		.4byte	0x744
ARM GAS  C:\Users\TAISIK~1\AppData\Local\Temp\ccZJTFka.s 			page 45


 2490 0738 1B       		.uleb128 0x1b
 2491 0739 746D7000 		.ascii	"tmp\000"
 2492 073d 01       		.byte	0x1
 2493 073e D1       		.byte	0xd1
 2494 073f 7B000000 		.4byte	0x7b
 2495 0743 00       		.byte	0
 2496 0744 1C       		.uleb128 0x1c
 2497 0745 55070000 		.4byte	0x755
 2498 0749 1B       		.uleb128 0x1b
 2499 074a 746D7000 		.ascii	"tmp\000"
 2500 074e 01       		.byte	0x1
 2501 074f D1       		.byte	0xd1
 2502 0750 7B000000 		.4byte	0x7b
 2503 0754 00       		.byte	0
 2504 0755 1C       		.uleb128 0x1c
 2505 0756 66070000 		.4byte	0x766
 2506 075a 1B       		.uleb128 0x1b
 2507 075b 746D7000 		.ascii	"tmp\000"
 2508 075f 01       		.byte	0x1
 2509 0760 D3       		.byte	0xd3
 2510 0761 7B000000 		.4byte	0x7b
 2511 0765 00       		.byte	0
 2512 0766 1C       		.uleb128 0x1c
 2513 0767 77070000 		.4byte	0x777
 2514 076b 1B       		.uleb128 0x1b
 2515 076c 746D7000 		.ascii	"tmp\000"
 2516 0770 01       		.byte	0x1
 2517 0771 D3       		.byte	0xd3
 2518 0772 7B000000 		.4byte	0x7b
 2519 0776 00       		.byte	0
 2520 0777 1C       		.uleb128 0x1c
 2521 0778 88070000 		.4byte	0x788
 2522 077c 1B       		.uleb128 0x1b
 2523 077d 746D7000 		.ascii	"tmp\000"
 2524 0781 01       		.byte	0x1
 2525 0782 D3       		.byte	0xd3
 2526 0783 7B000000 		.4byte	0x7b
 2527 0787 00       		.byte	0
 2528 0788 1C       		.uleb128 0x1c
 2529 0789 99070000 		.4byte	0x799
 2530 078d 1B       		.uleb128 0x1b
 2531 078e 746D7000 		.ascii	"tmp\000"
 2532 0792 01       		.byte	0x1
 2533 0793 D7       		.byte	0xd7
 2534 0794 7B000000 		.4byte	0x7b
 2535 0798 00       		.byte	0
 2536 0799 1C       		.uleb128 0x1c
 2537 079a AA070000 		.4byte	0x7aa
 2538 079e 1B       		.uleb128 0x1b
 2539 079f 746D7000 		.ascii	"tmp\000"
 2540 07a3 01       		.byte	0x1
 2541 07a4 D9       		.byte	0xd9
 2542 07a5 7B000000 		.4byte	0x7b
 2543 07a9 00       		.byte	0
 2544 07aa 1C       		.uleb128 0x1c
 2545 07ab BB070000 		.4byte	0x7bb
 2546 07af 1B       		.uleb128 0x1b
ARM GAS  C:\Users\TAISIK~1\AppData\Local\Temp\ccZJTFka.s 			page 46


 2547 07b0 746D7000 		.ascii	"tmp\000"
 2548 07b4 01       		.byte	0x1
 2549 07b5 DA       		.byte	0xda
 2550 07b6 7B000000 		.4byte	0x7b
 2551 07ba 00       		.byte	0
 2552 07bb 1C       		.uleb128 0x1c
 2553 07bc CC070000 		.4byte	0x7cc
 2554 07c0 1B       		.uleb128 0x1b
 2555 07c1 746D7000 		.ascii	"tmp\000"
 2556 07c5 01       		.byte	0x1
 2557 07c6 DA       		.byte	0xda
 2558 07c7 7B000000 		.4byte	0x7b
 2559 07cb 00       		.byte	0
 2560 07cc 1C       		.uleb128 0x1c
 2561 07cd DD070000 		.4byte	0x7dd
 2562 07d1 1B       		.uleb128 0x1b
 2563 07d2 746D7000 		.ascii	"tmp\000"
 2564 07d6 01       		.byte	0x1
 2565 07d7 DA       		.byte	0xda
 2566 07d8 7B000000 		.4byte	0x7b
 2567 07dc 00       		.byte	0
 2568 07dd 1C       		.uleb128 0x1c
 2569 07de EE070000 		.4byte	0x7ee
 2570 07e2 1B       		.uleb128 0x1b
 2571 07e3 746D7000 		.ascii	"tmp\000"
 2572 07e7 01       		.byte	0x1
 2573 07e8 E1       		.byte	0xe1
 2574 07e9 7B000000 		.4byte	0x7b
 2575 07ed 00       		.byte	0
 2576 07ee 1C       		.uleb128 0x1c
 2577 07ef FF070000 		.4byte	0x7ff
 2578 07f3 1B       		.uleb128 0x1b
 2579 07f4 746D7000 		.ascii	"tmp\000"
 2580 07f8 01       		.byte	0x1
 2581 07f9 E1       		.byte	0xe1
 2582 07fa 7B000000 		.4byte	0x7b
 2583 07fe 00       		.byte	0
 2584 07ff 1D       		.uleb128 0x1d
 2585 0800 1B       		.uleb128 0x1b
 2586 0801 746D7000 		.ascii	"tmp\000"
 2587 0805 01       		.byte	0x1
 2588 0806 E1       		.byte	0xe1
 2589 0807 7B000000 		.4byte	0x7b
 2590 080b 00       		.byte	0
 2591 080c 00       		.byte	0
 2592 080d 1A       		.uleb128 0x1a
 2593 080e BB010000 		.4byte	.LASF85
 2594 0812 01       		.byte	0x1
 2595 0813 5E       		.byte	0x5e
 2596 0814 01       		.byte	0x1
 2597 0815 01       		.byte	0x1
 2598 0816 490A0000 		.4byte	0xa49
 2599 081a 1B       		.uleb128 0x1b
 2600 081b 6900     		.ascii	"i\000"
 2601 081d 01       		.byte	0x1
 2602 081e 5F       		.byte	0x5f
 2603 081f 3B000000 		.4byte	0x3b
ARM GAS  C:\Users\TAISIK~1\AppData\Local\Temp\ccZJTFka.s 			page 47


 2604 0823 1B       		.uleb128 0x1b
 2605 0824 6E00     		.ascii	"n\000"
 2606 0826 01       		.byte	0x1
 2607 0827 60       		.byte	0x60
 2608 0828 30000000 		.4byte	0x30
 2609 082c 1C       		.uleb128 0x1c
 2610 082d 3D080000 		.4byte	0x83d
 2611 0831 1B       		.uleb128 0x1b
 2612 0832 746D7000 		.ascii	"tmp\000"
 2613 0836 01       		.byte	0x1
 2614 0837 63       		.byte	0x63
 2615 0838 7B000000 		.4byte	0x7b
 2616 083c 00       		.byte	0
 2617 083d 1C       		.uleb128 0x1c
 2618 083e 4E080000 		.4byte	0x84e
 2619 0842 1B       		.uleb128 0x1b
 2620 0843 746D7000 		.ascii	"tmp\000"
 2621 0847 01       		.byte	0x1
 2622 0848 63       		.byte	0x63
 2623 0849 7B000000 		.4byte	0x7b
 2624 084d 00       		.byte	0
 2625 084e 1C       		.uleb128 0x1c
 2626 084f 5F080000 		.4byte	0x85f
 2627 0853 1B       		.uleb128 0x1b
 2628 0854 746D7000 		.ascii	"tmp\000"
 2629 0858 01       		.byte	0x1
 2630 0859 63       		.byte	0x63
 2631 085a 7B000000 		.4byte	0x7b
 2632 085e 00       		.byte	0
 2633 085f 1C       		.uleb128 0x1c
 2634 0860 70080000 		.4byte	0x870
 2635 0864 1B       		.uleb128 0x1b
 2636 0865 746D7000 		.ascii	"tmp\000"
 2637 0869 01       		.byte	0x1
 2638 086a 66       		.byte	0x66
 2639 086b 7B000000 		.4byte	0x7b
 2640 086f 00       		.byte	0
 2641 0870 1C       		.uleb128 0x1c
 2642 0871 81080000 		.4byte	0x881
 2643 0875 1B       		.uleb128 0x1b
 2644 0876 746D7000 		.ascii	"tmp\000"
 2645 087a 01       		.byte	0x1
 2646 087b 69       		.byte	0x69
 2647 087c 7B000000 		.4byte	0x7b
 2648 0880 00       		.byte	0
 2649 0881 1C       		.uleb128 0x1c
 2650 0882 92080000 		.4byte	0x892
 2651 0886 1B       		.uleb128 0x1b
 2652 0887 746D7000 		.ascii	"tmp\000"
 2653 088b 01       		.byte	0x1
 2654 088c 6A       		.byte	0x6a
 2655 088d 7B000000 		.4byte	0x7b
 2656 0891 00       		.byte	0
 2657 0892 1C       		.uleb128 0x1c
 2658 0893 A3080000 		.4byte	0x8a3
 2659 0897 1B       		.uleb128 0x1b
 2660 0898 746D7000 		.ascii	"tmp\000"
ARM GAS  C:\Users\TAISIK~1\AppData\Local\Temp\ccZJTFka.s 			page 48


 2661 089c 01       		.byte	0x1
 2662 089d 6A       		.byte	0x6a
 2663 089e 7B000000 		.4byte	0x7b
 2664 08a2 00       		.byte	0
 2665 08a3 1C       		.uleb128 0x1c
 2666 08a4 B4080000 		.4byte	0x8b4
 2667 08a8 1B       		.uleb128 0x1b
 2668 08a9 746D7000 		.ascii	"tmp\000"
 2669 08ad 01       		.byte	0x1
 2670 08ae 6A       		.byte	0x6a
 2671 08af 7B000000 		.4byte	0x7b
 2672 08b3 00       		.byte	0
 2673 08b4 1C       		.uleb128 0x1c
 2674 08b5 C5080000 		.4byte	0x8c5
 2675 08b9 1B       		.uleb128 0x1b
 2676 08ba 746D7000 		.ascii	"tmp\000"
 2677 08be 01       		.byte	0x1
 2678 08bf 6B       		.byte	0x6b
 2679 08c0 7B000000 		.4byte	0x7b
 2680 08c4 00       		.byte	0
 2681 08c5 1C       		.uleb128 0x1c
 2682 08c6 D6080000 		.4byte	0x8d6
 2683 08ca 1B       		.uleb128 0x1b
 2684 08cb 746D7000 		.ascii	"tmp\000"
 2685 08cf 01       		.byte	0x1
 2686 08d0 6B       		.byte	0x6b
 2687 08d1 7B000000 		.4byte	0x7b
 2688 08d5 00       		.byte	0
 2689 08d6 1C       		.uleb128 0x1c
 2690 08d7 E7080000 		.4byte	0x8e7
 2691 08db 1B       		.uleb128 0x1b
 2692 08dc 746D7000 		.ascii	"tmp\000"
 2693 08e0 01       		.byte	0x1
 2694 08e1 6B       		.byte	0x6b
 2695 08e2 7B000000 		.4byte	0x7b
 2696 08e6 00       		.byte	0
 2697 08e7 1C       		.uleb128 0x1c
 2698 08e8 F8080000 		.4byte	0x8f8
 2699 08ec 1B       		.uleb128 0x1b
 2700 08ed 746D7000 		.ascii	"tmp\000"
 2701 08f1 01       		.byte	0x1
 2702 08f2 70       		.byte	0x70
 2703 08f3 7B000000 		.4byte	0x7b
 2704 08f7 00       		.byte	0
 2705 08f8 1C       		.uleb128 0x1c
 2706 08f9 09090000 		.4byte	0x909
 2707 08fd 1B       		.uleb128 0x1b
 2708 08fe 746D7000 		.ascii	"tmp\000"
 2709 0902 01       		.byte	0x1
 2710 0903 70       		.byte	0x70
 2711 0904 7B000000 		.4byte	0x7b
 2712 0908 00       		.byte	0
 2713 0909 1C       		.uleb128 0x1c
 2714 090a 1A090000 		.4byte	0x91a
 2715 090e 1B       		.uleb128 0x1b
 2716 090f 746D7000 		.ascii	"tmp\000"
 2717 0913 01       		.byte	0x1
ARM GAS  C:\Users\TAISIK~1\AppData\Local\Temp\ccZJTFka.s 			page 49


 2718 0914 70       		.byte	0x70
 2719 0915 7B000000 		.4byte	0x7b
 2720 0919 00       		.byte	0
 2721 091a 1C       		.uleb128 0x1c
 2722 091b 2B090000 		.4byte	0x92b
 2723 091f 1B       		.uleb128 0x1b
 2724 0920 746D7000 		.ascii	"tmp\000"
 2725 0924 01       		.byte	0x1
 2726 0925 74       		.byte	0x74
 2727 0926 7B000000 		.4byte	0x7b
 2728 092a 00       		.byte	0
 2729 092b 1C       		.uleb128 0x1c
 2730 092c 3C090000 		.4byte	0x93c
 2731 0930 1B       		.uleb128 0x1b
 2732 0931 746D7000 		.ascii	"tmp\000"
 2733 0935 01       		.byte	0x1
 2734 0936 77       		.byte	0x77
 2735 0937 7B000000 		.4byte	0x7b
 2736 093b 00       		.byte	0
 2737 093c 1C       		.uleb128 0x1c
 2738 093d 4D090000 		.4byte	0x94d
 2739 0941 1B       		.uleb128 0x1b
 2740 0942 746D7000 		.ascii	"tmp\000"
 2741 0946 01       		.byte	0x1
 2742 0947 7C       		.byte	0x7c
 2743 0948 7B000000 		.4byte	0x7b
 2744 094c 00       		.byte	0
 2745 094d 1C       		.uleb128 0x1c
 2746 094e 5E090000 		.4byte	0x95e
 2747 0952 1B       		.uleb128 0x1b
 2748 0953 746D7000 		.ascii	"tmp\000"
 2749 0957 01       		.byte	0x1
 2750 0958 7C       		.byte	0x7c
 2751 0959 7B000000 		.4byte	0x7b
 2752 095d 00       		.byte	0
 2753 095e 1C       		.uleb128 0x1c
 2754 095f 6F090000 		.4byte	0x96f
 2755 0963 1B       		.uleb128 0x1b
 2756 0964 746D7000 		.ascii	"tmp\000"
 2757 0968 01       		.byte	0x1
 2758 0969 7C       		.byte	0x7c
 2759 096a 7B000000 		.4byte	0x7b
 2760 096e 00       		.byte	0
 2761 096f 1C       		.uleb128 0x1c
 2762 0970 80090000 		.4byte	0x980
 2763 0974 1B       		.uleb128 0x1b
 2764 0975 746D7000 		.ascii	"tmp\000"
 2765 0979 01       		.byte	0x1
 2766 097a 7F       		.byte	0x7f
 2767 097b 7B000000 		.4byte	0x7b
 2768 097f 00       		.byte	0
 2769 0980 1C       		.uleb128 0x1c
 2770 0981 91090000 		.4byte	0x991
 2771 0985 1B       		.uleb128 0x1b
 2772 0986 746D7000 		.ascii	"tmp\000"
 2773 098a 01       		.byte	0x1
 2774 098b 82       		.byte	0x82
ARM GAS  C:\Users\TAISIK~1\AppData\Local\Temp\ccZJTFka.s 			page 50


 2775 098c 7B000000 		.4byte	0x7b
 2776 0990 00       		.byte	0
 2777 0991 1C       		.uleb128 0x1c
 2778 0992 A2090000 		.4byte	0x9a2
 2779 0996 1B       		.uleb128 0x1b
 2780 0997 746D7000 		.ascii	"tmp\000"
 2781 099b 01       		.byte	0x1
 2782 099c 89       		.byte	0x89
 2783 099d 7B000000 		.4byte	0x7b
 2784 09a1 00       		.byte	0
 2785 09a2 1C       		.uleb128 0x1c
 2786 09a3 B3090000 		.4byte	0x9b3
 2787 09a7 1B       		.uleb128 0x1b
 2788 09a8 746D7000 		.ascii	"tmp\000"
 2789 09ac 01       		.byte	0x1
 2790 09ad 89       		.byte	0x89
 2791 09ae 7B000000 		.4byte	0x7b
 2792 09b2 00       		.byte	0
 2793 09b3 1C       		.uleb128 0x1c
 2794 09b4 C4090000 		.4byte	0x9c4
 2795 09b8 1B       		.uleb128 0x1b
 2796 09b9 746D7000 		.ascii	"tmp\000"
 2797 09bd 01       		.byte	0x1
 2798 09be 89       		.byte	0x89
 2799 09bf 7B000000 		.4byte	0x7b
 2800 09c3 00       		.byte	0
 2801 09c4 1C       		.uleb128 0x1c
 2802 09c5 D5090000 		.4byte	0x9d5
 2803 09c9 1B       		.uleb128 0x1b
 2804 09ca 746D7000 		.ascii	"tmp\000"
 2805 09ce 01       		.byte	0x1
 2806 09cf 8C       		.byte	0x8c
 2807 09d0 7B000000 		.4byte	0x7b
 2808 09d4 00       		.byte	0
 2809 09d5 1C       		.uleb128 0x1c
 2810 09d6 E6090000 		.4byte	0x9e6
 2811 09da 1B       		.uleb128 0x1b
 2812 09db 746D7000 		.ascii	"tmp\000"
 2813 09df 01       		.byte	0x1
 2814 09e0 8F       		.byte	0x8f
 2815 09e1 7B000000 		.4byte	0x7b
 2816 09e5 00       		.byte	0
 2817 09e6 1C       		.uleb128 0x1c
 2818 09e7 F7090000 		.4byte	0x9f7
 2819 09eb 1B       		.uleb128 0x1b
 2820 09ec 746D7000 		.ascii	"tmp\000"
 2821 09f0 01       		.byte	0x1
 2822 09f1 90       		.byte	0x90
 2823 09f2 7B000000 		.4byte	0x7b
 2824 09f6 00       		.byte	0
 2825 09f7 1C       		.uleb128 0x1c
 2826 09f8 080A0000 		.4byte	0xa08
 2827 09fc 1B       		.uleb128 0x1b
 2828 09fd 746D7000 		.ascii	"tmp\000"
 2829 0a01 01       		.byte	0x1
 2830 0a02 90       		.byte	0x90
 2831 0a03 7B000000 		.4byte	0x7b
ARM GAS  C:\Users\TAISIK~1\AppData\Local\Temp\ccZJTFka.s 			page 51


 2832 0a07 00       		.byte	0
 2833 0a08 1C       		.uleb128 0x1c
 2834 0a09 190A0000 		.4byte	0xa19
 2835 0a0d 1B       		.uleb128 0x1b
 2836 0a0e 746D7000 		.ascii	"tmp\000"
 2837 0a12 01       		.byte	0x1
 2838 0a13 90       		.byte	0x90
 2839 0a14 7B000000 		.4byte	0x7b
 2840 0a18 00       		.byte	0
 2841 0a19 1C       		.uleb128 0x1c
 2842 0a1a 2A0A0000 		.4byte	0xa2a
 2843 0a1e 1B       		.uleb128 0x1b
 2844 0a1f 746D7000 		.ascii	"tmp\000"
 2845 0a23 01       		.byte	0x1
 2846 0a24 92       		.byte	0x92
 2847 0a25 7B000000 		.4byte	0x7b
 2848 0a29 00       		.byte	0
 2849 0a2a 1C       		.uleb128 0x1c
 2850 0a2b 3B0A0000 		.4byte	0xa3b
 2851 0a2f 1B       		.uleb128 0x1b
 2852 0a30 746D7000 		.ascii	"tmp\000"
 2853 0a34 01       		.byte	0x1
 2854 0a35 92       		.byte	0x92
 2855 0a36 7B000000 		.4byte	0x7b
 2856 0a3a 00       		.byte	0
 2857 0a3b 1D       		.uleb128 0x1d
 2858 0a3c 1B       		.uleb128 0x1b
 2859 0a3d 746D7000 		.ascii	"tmp\000"
 2860 0a41 01       		.byte	0x1
 2861 0a42 92       		.byte	0x92
 2862 0a43 7B000000 		.4byte	0x7b
 2863 0a47 00       		.byte	0
 2864 0a48 00       		.byte	0
 2865 0a49 1E       		.uleb128 0x1e
 2866 0a4a 26020000 		.4byte	.LASF100
 2867 0a4e 01       		.byte	0x1
 2868 0a4f 3D       		.byte	0x3d
 2869 0a50 01       		.byte	0x1
 2870 0a51 00000000 		.4byte	.LFB7
 2871 0a55 02000000 		.4byte	.LFE7
 2872 0a59 02       		.byte	0x2
 2873 0a5a 7D       		.byte	0x7d
 2874 0a5b 00       		.sleb128 0
 2875 0a5c 6D0A0000 		.4byte	0xa6d
 2876 0a60 1F       		.uleb128 0x1f
 2877 0a61 717000   		.ascii	"qp\000"
 2878 0a64 01       		.byte	0x1
 2879 0a65 3D       		.byte	0x3d
 2880 0a66 08050000 		.4byte	0x508
 2881 0a6a 01       		.byte	0x1
 2882 0a6b 50       		.byte	0x50
 2883 0a6c 00       		.byte	0
 2884 0a6d 20       		.uleb128 0x20
 2885 0a6e 63020000 		.4byte	.LASF86
 2886 0a72 01       		.byte	0x1
 2887 0a73 AE       		.byte	0xae
 2888 0a74 01       		.byte	0x1
ARM GAS  C:\Users\TAISIK~1\AppData\Local\Temp\ccZJTFka.s 			page 52


 2889 0a75 EF000000 		.4byte	0xef
 2890 0a79 00000000 		.4byte	.LFB12
 2891 0a7d 16000000 		.4byte	.LFE12
 2892 0a81 00000000 		.4byte	.LLST0
 2893 0a85 970A0000 		.4byte	0xa97
 2894 0a89 21       		.uleb128 0x21
 2895 0a8a 7000     		.ascii	"p\000"
 2896 0a8c 01       		.byte	0x1
 2897 0a8d AE       		.byte	0xae
 2898 0a8e A3020000 		.4byte	0x2a3
 2899 0a92 20000000 		.4byte	.LLST1
 2900 0a96 00       		.byte	0
 2901 0a97 22       		.uleb128 0x22
 2902 0a98 A0000000 		.4byte	.LASF88
 2903 0a9c 01       		.byte	0x1
 2904 0a9d A9       		.byte	0xa9
 2905 0a9e 01       		.byte	0x1
 2906 0a9f 00000000 		.4byte	.LFB11
 2907 0aa3 2C000000 		.4byte	.LFE11
 2908 0aa7 33000000 		.4byte	.LLST2
 2909 0aab 20       		.uleb128 0x20
 2910 0aac 5B020000 		.4byte	.LASF87
 2911 0ab0 01       		.byte	0x1
 2912 0ab1 57       		.byte	0x57
 2913 0ab2 01       		.byte	0x1
 2914 0ab3 EF000000 		.4byte	0xef
 2915 0ab7 00000000 		.4byte	.LFB9
 2916 0abb 14000000 		.4byte	.LFE9
 2917 0abf 5F000000 		.4byte	.LLST3
 2918 0ac3 D50A0000 		.4byte	0xad5
 2919 0ac7 21       		.uleb128 0x21
 2920 0ac8 7000     		.ascii	"p\000"
 2921 0aca 01       		.byte	0x1
 2922 0acb 57       		.byte	0x57
 2923 0acc A3020000 		.4byte	0x2a3
 2924 0ad0 7F000000 		.4byte	.LLST4
 2925 0ad4 00       		.byte	0
 2926 0ad5 22       		.uleb128 0x22
 2927 0ad6 96020000 		.4byte	.LASF89
 2928 0ada 01       		.byte	0x1
 2929 0adb 52       		.byte	0x52
 2930 0adc 01       		.byte	0x1
 2931 0add 00000000 		.4byte	.LFB8
 2932 0ae1 2C000000 		.4byte	.LFE8
 2933 0ae5 92000000 		.4byte	.LLST5
 2934 0ae9 23       		.uleb128 0x23
 2935 0aea 0A060000 		.4byte	0x60a
 2936 0aee 00000000 		.4byte	.LFB13
 2937 0af2 D8020000 		.4byte	.LFE13
 2938 0af6 BE000000 		.4byte	.LLST6
 2939 0afa 6F0D0000 		.4byte	0xd6f
 2940 0afe 24       		.uleb128 0x24
 2941 0aff 17060000 		.4byte	0x617
 2942 0b03 24       		.uleb128 0x24
 2943 0b04 20060000 		.4byte	0x620
 2944 0b08 25       		.uleb128 0x25
 2945 0b09 00000000 		.4byte	.Ldebug_ranges0+0
ARM GAS  C:\Users\TAISIK~1\AppData\Local\Temp\ccZJTFka.s 			page 53


 2946 0b0d 1B0B0000 		.4byte	0xb1b
 2947 0b11 26       		.uleb128 0x26
 2948 0b12 2E060000 		.4byte	0x62e
 2949 0b16 EA000000 		.4byte	.LLST7
 2950 0b1a 00       		.byte	0
 2951 0b1b 27       		.uleb128 0x27
 2952 0b1c 0A060000 		.4byte	0x60a
 2953 0b20 26000000 		.4byte	.LBB98
 2954 0b24 18000000 		.4byte	.Ldebug_ranges0+0x18
 2955 0b28 01       		.byte	0x1
 2956 0b29 B5       		.byte	0xb5
 2957 0b2a 28       		.uleb128 0x28
 2958 0b2b 40000000 		.4byte	.Ldebug_ranges0+0x40
 2959 0b2f 26       		.uleb128 0x26
 2960 0b30 17060000 		.4byte	0x617
 2961 0b34 FD000000 		.4byte	.LLST8
 2962 0b38 26       		.uleb128 0x26
 2963 0b39 20060000 		.4byte	0x620
 2964 0b3d 95010000 		.4byte	.LLST9
 2965 0b41 29       		.uleb128 0x29
 2966 0b42 26000000 		.4byte	.LBB100
 2967 0b46 2C000000 		.4byte	.LBE100
 2968 0b4a 580B0000 		.4byte	0xb58
 2969 0b4e 26       		.uleb128 0x26
 2970 0b4f 50060000 		.4byte	0x650
 2971 0b53 E5010000 		.4byte	.LLST10
 2972 0b57 00       		.byte	0
 2973 0b58 29       		.uleb128 0x29
 2974 0b59 5E000000 		.4byte	.LBB101
 2975 0b5d 64000000 		.4byte	.LBE101
 2976 0b61 6F0B0000 		.4byte	0xb6f
 2977 0b65 26       		.uleb128 0x26
 2978 0b66 61060000 		.4byte	0x661
 2979 0b6a F8010000 		.4byte	.LLST11
 2980 0b6e 00       		.byte	0
 2981 0b6f 29       		.uleb128 0x29
 2982 0b70 7A000000 		.4byte	.LBB102
 2983 0b74 80000000 		.4byte	.LBE102
 2984 0b78 860B0000 		.4byte	0xb86
 2985 0b7c 26       		.uleb128 0x26
 2986 0b7d 83060000 		.4byte	0x683
 2987 0b81 0B020000 		.4byte	.LLST12
 2988 0b85 00       		.byte	0
 2989 0b86 29       		.uleb128 0x29
 2990 0b87 80000000 		.4byte	.LBB103
 2991 0b8b E0000000 		.4byte	.LBE103
 2992 0b8f BF0B0000 		.4byte	0xbbf
 2993 0b93 26       		.uleb128 0x26
 2994 0b94 94060000 		.4byte	0x694
 2995 0b98 1E020000 		.4byte	.LLST13
 2996 0b9c 25       		.uleb128 0x25
 2997 0b9d 68000000 		.4byte	.Ldebug_ranges0+0x68
 2998 0ba1 AF0B0000 		.4byte	0xbaf
 2999 0ba5 26       		.uleb128 0x26
 3000 0ba6 A2060000 		.4byte	0x6a2
 3001 0baa 52020000 		.4byte	.LLST14
 3002 0bae 00       		.byte	0
ARM GAS  C:\Users\TAISIK~1\AppData\Local\Temp\ccZJTFka.s 			page 54


 3003 0baf 28       		.uleb128 0x28
 3004 0bb0 90000000 		.4byte	.Ldebug_ranges0+0x90
 3005 0bb4 26       		.uleb128 0x26
 3006 0bb5 AF060000 		.4byte	0x6af
 3007 0bb9 86020000 		.4byte	.LLST15
 3008 0bbd 00       		.byte	0
 3009 0bbe 00       		.byte	0
 3010 0bbf 29       		.uleb128 0x29
 3011 0bc0 E0000000 		.4byte	.LBB112
 3012 0bc4 E6000000 		.4byte	.LBE112
 3013 0bc8 D60B0000 		.4byte	0xbd6
 3014 0bcc 26       		.uleb128 0x26
 3015 0bcd C1060000 		.4byte	0x6c1
 3016 0bd1 BA020000 		.4byte	.LLST16
 3017 0bd5 00       		.byte	0
 3018 0bd6 29       		.uleb128 0x29
 3019 0bd7 F8000000 		.4byte	.LBB113
 3020 0bdb FE000000 		.4byte	.LBE113
 3021 0bdf ED0B0000 		.4byte	0xbed
 3022 0be3 26       		.uleb128 0x26
 3023 0be4 D2060000 		.4byte	0x6d2
 3024 0be8 CD020000 		.4byte	.LLST17
 3025 0bec 00       		.byte	0
 3026 0bed 29       		.uleb128 0x29
 3027 0bee 04010000 		.4byte	.LBB114
 3028 0bf2 0C010000 		.4byte	.LBE114
 3029 0bf6 040C0000 		.4byte	0xc04
 3030 0bfa 26       		.uleb128 0x26
 3031 0bfb C0070000 		.4byte	0x7c0
 3032 0bff E0020000 		.4byte	.LLST18
 3033 0c03 00       		.byte	0
 3034 0c04 29       		.uleb128 0x29
 3035 0c05 0C010000 		.4byte	.LBB115
 3036 0c09 12010000 		.4byte	.LBE115
 3037 0c0d 1B0C0000 		.4byte	0xc1b
 3038 0c11 26       		.uleb128 0x26
 3039 0c12 E3060000 		.4byte	0x6e3
 3040 0c16 FE020000 		.4byte	.LLST19
 3041 0c1a 00       		.byte	0
 3042 0c1b 29       		.uleb128 0x29
 3043 0c1c 20010000 		.4byte	.LBB116
 3044 0c20 26010000 		.4byte	.LBE116
 3045 0c24 320C0000 		.4byte	0xc32
 3046 0c28 26       		.uleb128 0x26
 3047 0c29 F4060000 		.4byte	0x6f4
 3048 0c2d 11030000 		.4byte	.LLST20
 3049 0c31 00       		.byte	0
 3050 0c32 29       		.uleb128 0x29
 3051 0c33 3E010000 		.4byte	.LBB117
 3052 0c37 46010000 		.4byte	.LBE117
 3053 0c3b 490C0000 		.4byte	0xc49
 3054 0c3f 26       		.uleb128 0x26
 3055 0c40 05070000 		.4byte	0x705
 3056 0c44 24030000 		.4byte	.LLST21
 3057 0c48 00       		.byte	0
 3058 0c49 29       		.uleb128 0x29
 3059 0c4a 5A010000 		.4byte	.LBB118
ARM GAS  C:\Users\TAISIK~1\AppData\Local\Temp\ccZJTFka.s 			page 55


 3060 0c4e 60010000 		.4byte	.LBE118
 3061 0c52 600C0000 		.4byte	0xc60
 3062 0c56 26       		.uleb128 0x26
 3063 0c57 16070000 		.4byte	0x716
 3064 0c5b 42030000 		.4byte	.LLST22
 3065 0c5f 00       		.byte	0
 3066 0c60 29       		.uleb128 0x29
 3067 0c61 84010000 		.4byte	.LBB119
 3068 0c65 8A010000 		.4byte	.LBE119
 3069 0c69 770C0000 		.4byte	0xc77
 3070 0c6d 26       		.uleb128 0x26
 3071 0c6e 27070000 		.4byte	0x727
 3072 0c72 55030000 		.4byte	.LLST23
 3073 0c76 00       		.byte	0
 3074 0c77 29       		.uleb128 0x29
 3075 0c78 9E010000 		.4byte	.LBB120
 3076 0c7c A6010000 		.4byte	.LBE120
 3077 0c80 8E0C0000 		.4byte	0xc8e
 3078 0c84 26       		.uleb128 0x26
 3079 0c85 38070000 		.4byte	0x738
 3080 0c89 68030000 		.4byte	.LLST24
 3081 0c8d 00       		.byte	0
 3082 0c8e 29       		.uleb128 0x29
 3083 0c8f A6010000 		.4byte	.LBB121
 3084 0c93 AC010000 		.4byte	.LBE121
 3085 0c97 A50C0000 		.4byte	0xca5
 3086 0c9b 26       		.uleb128 0x26
 3087 0c9c 49070000 		.4byte	0x749
 3088 0ca0 86030000 		.4byte	.LLST25
 3089 0ca4 00       		.byte	0
 3090 0ca5 25       		.uleb128 0x25
 3091 0ca6 B8000000 		.4byte	.Ldebug_ranges0+0xb8
 3092 0caa B80C0000 		.4byte	0xcb8
 3093 0cae 26       		.uleb128 0x26
 3094 0caf 5A070000 		.4byte	0x75a
 3095 0cb3 99030000 		.4byte	.LLST26
 3096 0cb7 00       		.byte	0
 3097 0cb8 29       		.uleb128 0x29
 3098 0cb9 EC010000 		.4byte	.LBB124
 3099 0cbd F4010000 		.4byte	.LBE124
 3100 0cc1 CF0C0000 		.4byte	0xccf
 3101 0cc5 26       		.uleb128 0x26
 3102 0cc6 6B070000 		.4byte	0x76b
 3103 0cca AC030000 		.4byte	.LLST27
 3104 0cce 00       		.byte	0
 3105 0ccf 29       		.uleb128 0x29
 3106 0cd0 F4010000 		.4byte	.LBB125
 3107 0cd4 FA010000 		.4byte	.LBE125
 3108 0cd8 E60C0000 		.4byte	0xce6
 3109 0cdc 26       		.uleb128 0x26
 3110 0cdd 7C070000 		.4byte	0x77c
 3111 0ce1 CA030000 		.4byte	.LLST28
 3112 0ce5 00       		.byte	0
 3113 0ce6 29       		.uleb128 0x29
 3114 0ce7 FE010000 		.4byte	.LBB126
 3115 0ceb 04020000 		.4byte	.LBE126
 3116 0cef FD0C0000 		.4byte	0xcfd
ARM GAS  C:\Users\TAISIK~1\AppData\Local\Temp\ccZJTFka.s 			page 56


 3117 0cf3 26       		.uleb128 0x26
 3118 0cf4 8D070000 		.4byte	0x78d
 3119 0cf8 DD030000 		.4byte	.LLST29
 3120 0cfc 00       		.byte	0
 3121 0cfd 29       		.uleb128 0x29
 3122 0cfe 0A020000 		.4byte	.LBB127
 3123 0d02 10020000 		.4byte	.LBE127
 3124 0d06 140D0000 		.4byte	0xd14
 3125 0d0a 26       		.uleb128 0x26
 3126 0d0b 9E070000 		.4byte	0x79e
 3127 0d0f F0030000 		.4byte	.LLST30
 3128 0d13 00       		.byte	0
 3129 0d14 29       		.uleb128 0x29
 3130 0d15 10020000 		.4byte	.LBB128
 3131 0d19 16020000 		.4byte	.LBE128
 3132 0d1d 2B0D0000 		.4byte	0xd2b
 3133 0d21 26       		.uleb128 0x26
 3134 0d22 AF070000 		.4byte	0x7af
 3135 0d26 03040000 		.4byte	.LLST31
 3136 0d2a 00       		.byte	0
 3137 0d2b 29       		.uleb128 0x29
 3138 0d2c 32020000 		.4byte	.LBB129
 3139 0d30 38020000 		.4byte	.LBE129
 3140 0d34 420D0000 		.4byte	0xd42
 3141 0d38 26       		.uleb128 0x26
 3142 0d39 D1070000 		.4byte	0x7d1
 3143 0d3d 16040000 		.4byte	.LLST32
 3144 0d41 00       		.byte	0
 3145 0d42 29       		.uleb128 0x29
 3146 0d43 7A020000 		.4byte	.LBB130
 3147 0d47 80020000 		.4byte	.LBE130
 3148 0d4b 590D0000 		.4byte	0xd59
 3149 0d4f 26       		.uleb128 0x26
 3150 0d50 E2070000 		.4byte	0x7e2
 3151 0d54 29040000 		.4byte	.LLST33
 3152 0d58 00       		.byte	0
 3153 0d59 2A       		.uleb128 0x2a
 3154 0d5a 90020000 		.4byte	.LBB131
 3155 0d5e 96020000 		.4byte	.LBE131
 3156 0d62 26       		.uleb128 0x26
 3157 0d63 F3070000 		.4byte	0x7f3
 3158 0d67 3C040000 		.4byte	.LLST34
 3159 0d6b 00       		.byte	0
 3160 0d6c 00       		.byte	0
 3161 0d6d 00       		.byte	0
 3162 0d6e 00       		.byte	0
 3163 0d6f 23       		.uleb128 0x23
 3164 0d70 0D080000 		.4byte	0x80d
 3165 0d74 00000000 		.4byte	.LFB10
 3166 0d78 04030000 		.4byte	.LFE10
 3167 0d7c 5A040000 		.4byte	.LLST35
 3168 0d80 5D100000 		.4byte	0x105d
 3169 0d84 24       		.uleb128 0x24
 3170 0d85 1A080000 		.4byte	0x81a
 3171 0d89 24       		.uleb128 0x24
 3172 0d8a 23080000 		.4byte	0x823
 3173 0d8e 25       		.uleb128 0x25
ARM GAS  C:\Users\TAISIK~1\AppData\Local\Temp\ccZJTFka.s 			page 57


 3174 0d8f D0000000 		.4byte	.Ldebug_ranges0+0xd0
 3175 0d93 A10D0000 		.4byte	0xda1
 3176 0d97 26       		.uleb128 0x26
 3177 0d98 31080000 		.4byte	0x831
 3178 0d9c 86040000 		.4byte	.LLST36
 3179 0da0 00       		.byte	0
 3180 0da1 27       		.uleb128 0x27
 3181 0da2 0D080000 		.4byte	0x80d
 3182 0da6 22000000 		.4byte	.LBB176
 3183 0daa E8000000 		.4byte	.Ldebug_ranges0+0xe8
 3184 0dae 01       		.byte	0x1
 3185 0daf 5E       		.byte	0x5e
 3186 0db0 28       		.uleb128 0x28
 3187 0db1 08010000 		.4byte	.Ldebug_ranges0+0x108
 3188 0db5 26       		.uleb128 0x26
 3189 0db6 1A080000 		.4byte	0x81a
 3190 0dba 99040000 		.4byte	.LLST37
 3191 0dbe 26       		.uleb128 0x26
 3192 0dbf 23080000 		.4byte	0x823
 3193 0dc3 9D050000 		.4byte	.LLST38
 3194 0dc7 29       		.uleb128 0x29
 3195 0dc8 22000000 		.4byte	.LBB178
 3196 0dcc 28000000 		.4byte	.LBE178
 3197 0dd0 DE0D0000 		.4byte	0xdde
 3198 0dd4 26       		.uleb128 0x26
 3199 0dd5 53080000 		.4byte	0x853
 3200 0dd9 ED050000 		.4byte	.LLST39
 3201 0ddd 00       		.byte	0
 3202 0dde 29       		.uleb128 0x29
 3203 0ddf 28000000 		.4byte	.LBB179
 3204 0de3 2E000000 		.4byte	.LBE179
 3205 0de7 F50D0000 		.4byte	0xdf5
 3206 0deb 26       		.uleb128 0x26
 3207 0dec 64080000 		.4byte	0x864
 3208 0df0 00060000 		.4byte	.LLST40
 3209 0df4 00       		.byte	0
 3210 0df5 29       		.uleb128 0x29
 3211 0df6 4E000000 		.4byte	.LBB180
 3212 0dfa 54000000 		.4byte	.LBE180
 3213 0dfe 0C0E0000 		.4byte	0xe0c
 3214 0e02 26       		.uleb128 0x26
 3215 0e03 75080000 		.4byte	0x875
 3216 0e07 13060000 		.4byte	.LLST41
 3217 0e0b 00       		.byte	0
 3218 0e0c 29       		.uleb128 0x29
 3219 0e0d 54000000 		.4byte	.LBB181
 3220 0e11 5A000000 		.4byte	.LBE181
 3221 0e15 230E0000 		.4byte	0xe23
 3222 0e19 26       		.uleb128 0x26
 3223 0e1a 86080000 		.4byte	0x886
 3224 0e1e 26060000 		.4byte	.LLST42
 3225 0e22 00       		.byte	0
 3226 0e23 29       		.uleb128 0x29
 3227 0e24 6E000000 		.4byte	.LBB182
 3228 0e28 74000000 		.4byte	.LBE182
 3229 0e2c 3A0E0000 		.4byte	0xe3a
 3230 0e30 26       		.uleb128 0x26
ARM GAS  C:\Users\TAISIK~1\AppData\Local\Temp\ccZJTFka.s 			page 58


 3231 0e31 97080000 		.4byte	0x897
 3232 0e35 39060000 		.4byte	.LLST43
 3233 0e39 00       		.byte	0
 3234 0e3a 29       		.uleb128 0x29
 3235 0e3b 7A000000 		.4byte	.LBB183
 3236 0e3f 80000000 		.4byte	.LBE183
 3237 0e43 510E0000 		.4byte	0xe51
 3238 0e47 26       		.uleb128 0x26
 3239 0e48 A8080000 		.4byte	0x8a8
 3240 0e4c 4C060000 		.4byte	.LLST44
 3241 0e50 00       		.byte	0
 3242 0e51 29       		.uleb128 0x29
 3243 0e52 80000000 		.4byte	.LBB184
 3244 0e56 86000000 		.4byte	.LBE184
 3245 0e5a 680E0000 		.4byte	0xe68
 3246 0e5e 26       		.uleb128 0x26
 3247 0e5f B9080000 		.4byte	0x8b9
 3248 0e63 5F060000 		.4byte	.LLST45
 3249 0e67 00       		.byte	0
 3250 0e68 29       		.uleb128 0x29
 3251 0e69 A2000000 		.4byte	.LBB185
 3252 0e6d A8000000 		.4byte	.LBE185
 3253 0e71 7F0E0000 		.4byte	0xe7f
 3254 0e75 26       		.uleb128 0x26
 3255 0e76 DB080000 		.4byte	0x8db
 3256 0e7a 72060000 		.4byte	.LLST46
 3257 0e7e 00       		.byte	0
 3258 0e7f 29       		.uleb128 0x29
 3259 0e80 E8000000 		.4byte	.LBB186
 3260 0e84 EE000000 		.4byte	.LBE186
 3261 0e88 960E0000 		.4byte	0xe96
 3262 0e8c 26       		.uleb128 0x26
 3263 0e8d EC080000 		.4byte	0x8ec
 3264 0e91 85060000 		.4byte	.LLST47
 3265 0e95 00       		.byte	0
 3266 0e96 29       		.uleb128 0x29
 3267 0e97 00010000 		.4byte	.LBB187
 3268 0e9b 08010000 		.4byte	.LBE187
 3269 0e9f AD0E0000 		.4byte	0xead
 3270 0ea3 26       		.uleb128 0x26
 3271 0ea4 FD080000 		.4byte	0x8fd
 3272 0ea8 98060000 		.4byte	.LLST48
 3273 0eac 00       		.byte	0
 3274 0ead 29       		.uleb128 0x29
 3275 0eae 08010000 		.4byte	.LBB188
 3276 0eb2 10010000 		.4byte	.LBE188
 3277 0eb6 C40E0000 		.4byte	0xec4
 3278 0eba 26       		.uleb128 0x26
 3279 0ebb CA080000 		.4byte	0x8ca
 3280 0ebf B6060000 		.4byte	.LLST49
 3281 0ec3 00       		.byte	0
 3282 0ec4 29       		.uleb128 0x29
 3283 0ec5 1A010000 		.4byte	.LBB189
 3284 0ec9 20010000 		.4byte	.LBE189
 3285 0ecd DB0E0000 		.4byte	0xedb
 3286 0ed1 26       		.uleb128 0x26
 3287 0ed2 0E090000 		.4byte	0x90e
ARM GAS  C:\Users\TAISIK~1\AppData\Local\Temp\ccZJTFka.s 			page 59


 3288 0ed6 D4060000 		.4byte	.LLST50
 3289 0eda 00       		.byte	0
 3290 0edb 29       		.uleb128 0x29
 3291 0edc 2E010000 		.4byte	.LBB190
 3292 0ee0 34010000 		.4byte	.LBE190
 3293 0ee4 F20E0000 		.4byte	0xef2
 3294 0ee8 26       		.uleb128 0x26
 3295 0ee9 1F090000 		.4byte	0x91f
 3296 0eed E7060000 		.4byte	.LLST51
 3297 0ef1 00       		.byte	0
 3298 0ef2 29       		.uleb128 0x29
 3299 0ef3 54010000 		.4byte	.LBB191
 3300 0ef7 5A010000 		.4byte	.LBE191
 3301 0efb 090F0000 		.4byte	0xf09
 3302 0eff 26       		.uleb128 0x26
 3303 0f00 30090000 		.4byte	0x930
 3304 0f04 FA060000 		.4byte	.LLST52
 3305 0f08 00       		.byte	0
 3306 0f09 29       		.uleb128 0x29
 3307 0f0a 82010000 		.4byte	.LBB192
 3308 0f0e 88010000 		.4byte	.LBE192
 3309 0f12 200F0000 		.4byte	0xf20
 3310 0f16 26       		.uleb128 0x26
 3311 0f17 41090000 		.4byte	0x941
 3312 0f1b 0D070000 		.4byte	.LLST53
 3313 0f1f 00       		.byte	0
 3314 0f20 29       		.uleb128 0x29
 3315 0f21 9E010000 		.4byte	.LBB193
 3316 0f25 A4010000 		.4byte	.LBE193
 3317 0f29 370F0000 		.4byte	0xf37
 3318 0f2d 26       		.uleb128 0x26
 3319 0f2e 63090000 		.4byte	0x963
 3320 0f32 20070000 		.4byte	.LLST54
 3321 0f36 00       		.byte	0
 3322 0f37 29       		.uleb128 0x29
 3323 0f38 A4010000 		.4byte	.LBB194
 3324 0f3c AA010000 		.4byte	.LBE194
 3325 0f40 4E0F0000 		.4byte	0xf4e
 3326 0f44 26       		.uleb128 0x26
 3327 0f45 74090000 		.4byte	0x974
 3328 0f49 33070000 		.4byte	.LLST55
 3329 0f4d 00       		.byte	0
 3330 0f4e 29       		.uleb128 0x29
 3331 0f4f CA010000 		.4byte	.LBB195
 3332 0f53 D0010000 		.4byte	.LBE195
 3333 0f57 650F0000 		.4byte	0xf65
 3334 0f5b 26       		.uleb128 0x26
 3335 0f5c 85090000 		.4byte	0x985
 3336 0f60 46070000 		.4byte	.LLST56
 3337 0f64 00       		.byte	0
 3338 0f65 29       		.uleb128 0x29
 3339 0f66 14020000 		.4byte	.LBB196
 3340 0f6a 1A020000 		.4byte	.LBE196
 3341 0f6e 7C0F0000 		.4byte	0xf7c
 3342 0f72 26       		.uleb128 0x26
 3343 0f73 96090000 		.4byte	0x996
 3344 0f77 59070000 		.4byte	.LLST57
ARM GAS  C:\Users\TAISIK~1\AppData\Local\Temp\ccZJTFka.s 			page 60


 3345 0f7b 00       		.byte	0
 3346 0f7c 29       		.uleb128 0x29
 3347 0f7d 2E020000 		.4byte	.LBB197
 3348 0f81 36020000 		.4byte	.LBE197
 3349 0f85 930F0000 		.4byte	0xf93
 3350 0f89 26       		.uleb128 0x26
 3351 0f8a A7090000 		.4byte	0x9a7
 3352 0f8e 6C070000 		.4byte	.LLST58
 3353 0f92 00       		.byte	0
 3354 0f93 29       		.uleb128 0x29
 3355 0f94 36020000 		.4byte	.LBB198
 3356 0f98 3E020000 		.4byte	.LBE198
 3357 0f9c AA0F0000 		.4byte	0xfaa
 3358 0fa0 26       		.uleb128 0x26
 3359 0fa1 52090000 		.4byte	0x952
 3360 0fa5 8A070000 		.4byte	.LLST59
 3361 0fa9 00       		.byte	0
 3362 0faa 29       		.uleb128 0x29
 3363 0fab 3E020000 		.4byte	.LBB199
 3364 0faf 44020000 		.4byte	.LBE199
 3365 0fb3 C10F0000 		.4byte	0xfc1
 3366 0fb7 26       		.uleb128 0x26
 3367 0fb8 B8090000 		.4byte	0x9b8
 3368 0fbc A8070000 		.4byte	.LLST60
 3369 0fc0 00       		.byte	0
 3370 0fc1 29       		.uleb128 0x29
 3371 0fc2 44020000 		.4byte	.LBB200
 3372 0fc6 4A020000 		.4byte	.LBE200
 3373 0fca D80F0000 		.4byte	0xfd8
 3374 0fce 26       		.uleb128 0x26
 3375 0fcf C9090000 		.4byte	0x9c9
 3376 0fd3 BB070000 		.4byte	.LLST61
 3377 0fd7 00       		.byte	0
 3378 0fd8 29       		.uleb128 0x29
 3379 0fd9 58020000 		.4byte	.LBB201
 3380 0fdd 5E020000 		.4byte	.LBE201
 3381 0fe1 EF0F0000 		.4byte	0xfef
 3382 0fe5 26       		.uleb128 0x26
 3383 0fe6 DA090000 		.4byte	0x9da
 3384 0fea CE070000 		.4byte	.LLST62
 3385 0fee 00       		.byte	0
 3386 0fef 29       		.uleb128 0x29
 3387 0ff0 5E020000 		.4byte	.LBB202
 3388 0ff4 64020000 		.4byte	.LBE202
 3389 0ff8 06100000 		.4byte	0x1006
 3390 0ffc 26       		.uleb128 0x26
 3391 0ffd EB090000 		.4byte	0x9eb
 3392 1001 E1070000 		.4byte	.LLST63
 3393 1005 00       		.byte	0
 3394 1006 29       		.uleb128 0x29
 3395 1007 74020000 		.4byte	.LBB203
 3396 100b 7A020000 		.4byte	.LBE203
 3397 100f 1D100000 		.4byte	0x101d
 3398 1013 26       		.uleb128 0x26
 3399 1014 FC090000 		.4byte	0x9fc
 3400 1018 F4070000 		.4byte	.LLST64
 3401 101c 00       		.byte	0
ARM GAS  C:\Users\TAISIK~1\AppData\Local\Temp\ccZJTFka.s 			page 61


 3402 101d 25       		.uleb128 0x25
 3403 101e 28010000 		.4byte	.Ldebug_ranges0+0x128
 3404 1022 30100000 		.4byte	0x1030
 3405 1026 26       		.uleb128 0x26
 3406 1027 1E0A0000 		.4byte	0xa1e
 3407 102b 12080000 		.4byte	.LLST65
 3408 102f 00       		.byte	0
 3409 1030 29       		.uleb128 0x29
 3410 1031 B8020000 		.4byte	.LBB206
 3411 1035 D8020000 		.4byte	.LBE206
 3412 1039 47100000 		.4byte	0x1047
 3413 103d 26       		.uleb128 0x26
 3414 103e 2F0A0000 		.4byte	0xa2f
 3415 1042 25080000 		.4byte	.LLST66
 3416 1046 00       		.byte	0
 3417 1047 2A       		.uleb128 0x2a
 3418 1048 D8020000 		.4byte	.LBB207
 3419 104c DC020000 		.4byte	.LBE207
 3420 1050 26       		.uleb128 0x26
 3421 1051 3C0A0000 		.4byte	0xa3c
 3422 1055 43080000 		.4byte	.LLST67
 3423 1059 00       		.byte	0
 3424 105a 00       		.byte	0
 3425 105b 00       		.byte	0
 3426 105c 00       		.byte	0
 3427 105d 2B       		.uleb128 0x2b
 3428 105e EE030000 		.4byte	.LASF90
 3429 1062 08       		.byte	0x8
 3430 1063 68       		.byte	0x68
 3431 1064 C3030000 		.4byte	0x3c3
 3432 1068 01       		.byte	0x1
 3433 1069 01       		.byte	0x1
 3434 106a 15       		.uleb128 0x15
 3435 106b 65020000 		.4byte	0x265
 3436 106f 7A100000 		.4byte	0x107a
 3437 1073 16       		.uleb128 0x16
 3438 1074 3B000000 		.4byte	0x3b
 3439 1078 04       		.byte	0x4
 3440 1079 00       		.byte	0
 3441 107a 2B       		.uleb128 0x2b
 3442 107b 2F030000 		.4byte	.LASF91
 3443 107f 0B       		.byte	0xb
 3444 1080 A9       		.byte	0xa9
 3445 1081 6A100000 		.4byte	0x106a
 3446 1085 01       		.byte	0x1
 3447 1086 01       		.byte	0x1
 3448 1087 2B       		.uleb128 0x2b
 3449 1088 AE000000 		.4byte	.LASF92
 3450 108c 0B       		.byte	0xb
 3451 108d AA       		.byte	0xaa
 3452 108e D6050000 		.4byte	0x5d6
 3453 1092 01       		.byte	0x1
 3454 1093 01       		.byte	0x1
 3455 1094 15       		.uleb128 0x15
 3456 1095 A3020000 		.4byte	0x2a3
 3457 1099 9F100000 		.4byte	0x109f
 3458 109d 2C       		.uleb128 0x2c
ARM GAS  C:\Users\TAISIK~1\AppData\Local\Temp\ccZJTFka.s 			page 62


 3459 109e 00       		.byte	0
 3460 109f 2D       		.uleb128 0x2d
 3461 10a0 776100   		.ascii	"wa\000"
 3462 10a3 0B       		.byte	0xb
 3463 10a4 AB       		.byte	0xab
 3464 10a5 AB100000 		.4byte	0x10ab
 3465 10a9 01       		.byte	0x1
 3466 10aa 01       		.byte	0x1
 3467 10ab 10       		.uleb128 0x10
 3468 10ac 94100000 		.4byte	0x1094
 3469 10b0 2E       		.uleb128 0x2e
 3470 10b1 697100   		.ascii	"iq\000"
 3471 10b4 01       		.byte	0x1
 3472 10b5 46       		.byte	0x46
 3473 10b6 14050000 		.4byte	0x514
 3474 10ba 05       		.byte	0x5
 3475 10bb 03       		.byte	0x3
 3476 10bc 00000000 		.4byte	iq
 3477 10c0 2E       		.uleb128 0x2e
 3478 10c1 6F7100   		.ascii	"oq\000"
 3479 10c4 01       		.byte	0x1
 3480 10c5 47       		.byte	0x47
 3481 10c6 1F050000 		.4byte	0x51f
 3482 10ca 05       		.byte	0x5
 3483 10cb 03       		.byte	0x3
 3484 10cc 00000000 		.4byte	oq
 3485 10d0 2B       		.uleb128 0x2b
 3486 10d1 CB010000 		.4byte	.LASF93
 3487 10d5 01       		.byte	0x1
 3488 10d6 99       		.byte	0x99
 3489 10d7 DD100000 		.4byte	0x10dd
 3490 10db 01       		.byte	0x1
 3491 10dc 01       		.byte	0x1
 3492 10dd 10       		.uleb128 0x10
 3493 10de 2A050000 		.4byte	0x52a
 3494 10e2 2B       		.uleb128 0x2b
 3495 10e3 47020000 		.4byte	.LASF94
 3496 10e7 01       		.byte	0x1
 3497 10e8 E7       		.byte	0xe7
 3498 10e9 DD100000 		.4byte	0x10dd
 3499 10ed 01       		.byte	0x1
 3500 10ee 01       		.byte	0x1
 3501 10ef 2B       		.uleb128 0x2b
 3502 10f0 EE030000 		.4byte	.LASF90
 3503 10f4 08       		.byte	0x8
 3504 10f5 68       		.byte	0x68
 3505 10f6 C3030000 		.4byte	0x3c3
 3506 10fa 01       		.byte	0x1
 3507 10fb 01       		.byte	0x1
 3508 10fc 2B       		.uleb128 0x2b
 3509 10fd 2F030000 		.4byte	.LASF91
 3510 1101 0B       		.byte	0xb
 3511 1102 A9       		.byte	0xa9
 3512 1103 6A100000 		.4byte	0x106a
 3513 1107 01       		.byte	0x1
 3514 1108 01       		.byte	0x1
 3515 1109 2B       		.uleb128 0x2b
ARM GAS  C:\Users\TAISIK~1\AppData\Local\Temp\ccZJTFka.s 			page 63


 3516 110a AE000000 		.4byte	.LASF92
 3517 110e 0B       		.byte	0xb
 3518 110f AA       		.byte	0xaa
 3519 1110 D6050000 		.4byte	0x5d6
 3520 1114 01       		.byte	0x1
 3521 1115 01       		.byte	0x1
 3522 1116 2D       		.uleb128 0x2d
 3523 1117 776100   		.ascii	"wa\000"
 3524 111a 0B       		.byte	0xb
 3525 111b AB       		.byte	0xab
 3526 111c 22110000 		.4byte	0x1122
 3527 1120 01       		.byte	0x1
 3528 1121 01       		.byte	0x1
 3529 1122 10       		.uleb128 0x10
 3530 1123 94100000 		.4byte	0x1094
 3531 1127 2F       		.uleb128 0x2f
 3532 1128 CB010000 		.4byte	.LASF93
 3533 112c 01       		.byte	0x1
 3534 112d 99       		.byte	0x99
 3535 112e DD100000 		.4byte	0x10dd
 3536 1132 01       		.byte	0x1
 3537 1133 05       		.byte	0x5
 3538 1134 03       		.byte	0x3
 3539 1135 00000000 		.4byte	testqueues1
 3540 1139 2F       		.uleb128 0x2f
 3541 113a 47020000 		.4byte	.LASF94
 3542 113e 01       		.byte	0x1
 3543 113f E7       		.byte	0xe7
 3544 1140 DD100000 		.4byte	0x10dd
 3545 1144 01       		.byte	0x1
 3546 1145 05       		.byte	0x5
 3547 1146 03       		.byte	0x3
 3548 1147 00000000 		.4byte	testqueues2
 3549 114b 15       		.uleb128 0x15
 3550 114c 5B110000 		.4byte	0x115b
 3551 1150 5B110000 		.4byte	0x115b
 3552 1154 16       		.uleb128 0x16
 3553 1155 3B000000 		.4byte	0x3b
 3554 1159 02       		.byte	0x2
 3555 115a 00       		.byte	0
 3556 115b 09       		.uleb128 0x9
 3557 115c 04       		.byte	0x4
 3558 115d DD100000 		.4byte	0x10dd
 3559 1161 2F       		.uleb128 0x2f
 3560 1162 29000000 		.4byte	.LASF95
 3561 1166 01       		.byte	0x1
 3562 1167 F2       		.byte	0xf2
 3563 1168 73110000 		.4byte	0x1173
 3564 116c 01       		.byte	0x1
 3565 116d 05       		.byte	0x5
 3566 116e 03       		.byte	0x3
 3567 116f 00000000 		.4byte	patternqueues
 3568 1173 10       		.uleb128 0x10
 3569 1174 4B110000 		.4byte	0x114b
 3570 1178 00       		.byte	0
 3571              		.section	.debug_abbrev,"",%progbits
 3572              	.Ldebug_abbrev0:
ARM GAS  C:\Users\TAISIK~1\AppData\Local\Temp\ccZJTFka.s 			page 64


 3573 0000 01       		.uleb128 0x1
 3574 0001 11       		.uleb128 0x11
 3575 0002 01       		.byte	0x1
 3576 0003 25       		.uleb128 0x25
 3577 0004 0E       		.uleb128 0xe
 3578 0005 13       		.uleb128 0x13
 3579 0006 0B       		.uleb128 0xb
 3580 0007 03       		.uleb128 0x3
 3581 0008 0E       		.uleb128 0xe
 3582 0009 1B       		.uleb128 0x1b
 3583 000a 0E       		.uleb128 0xe
 3584 000b 11       		.uleb128 0x11
 3585 000c 01       		.uleb128 0x1
 3586 000d 52       		.uleb128 0x52
 3587 000e 01       		.uleb128 0x1
 3588 000f 55       		.uleb128 0x55
 3589 0010 06       		.uleb128 0x6
 3590 0011 10       		.uleb128 0x10
 3591 0012 06       		.uleb128 0x6
 3592 0013 00       		.byte	0
 3593 0014 00       		.byte	0
 3594 0015 02       		.uleb128 0x2
 3595 0016 24       		.uleb128 0x24
 3596 0017 00       		.byte	0
 3597 0018 0B       		.uleb128 0xb
 3598 0019 0B       		.uleb128 0xb
 3599 001a 3E       		.uleb128 0x3e
 3600 001b 0B       		.uleb128 0xb
 3601 001c 03       		.uleb128 0x3
 3602 001d 08       		.uleb128 0x8
 3603 001e 00       		.byte	0
 3604 001f 00       		.byte	0
 3605 0020 03       		.uleb128 0x3
 3606 0021 16       		.uleb128 0x16
 3607 0022 00       		.byte	0
 3608 0023 03       		.uleb128 0x3
 3609 0024 0E       		.uleb128 0xe
 3610 0025 3A       		.uleb128 0x3a
 3611 0026 0B       		.uleb128 0xb
 3612 0027 3B       		.uleb128 0x3b
 3613 0028 0B       		.uleb128 0xb
 3614 0029 49       		.uleb128 0x49
 3615 002a 13       		.uleb128 0x13
 3616 002b 00       		.byte	0
 3617 002c 00       		.byte	0
 3618 002d 04       		.uleb128 0x4
 3619 002e 24       		.uleb128 0x24
 3620 002f 00       		.byte	0
 3621 0030 0B       		.uleb128 0xb
 3622 0031 0B       		.uleb128 0xb
 3623 0032 3E       		.uleb128 0x3e
 3624 0033 0B       		.uleb128 0xb
 3625 0034 03       		.uleb128 0x3
 3626 0035 0E       		.uleb128 0xe
 3627 0036 00       		.byte	0
 3628 0037 00       		.byte	0
 3629 0038 05       		.uleb128 0x5
ARM GAS  C:\Users\TAISIK~1\AppData\Local\Temp\ccZJTFka.s 			page 65


 3630 0039 13       		.uleb128 0x13
 3631 003a 01       		.byte	0x1
 3632 003b 03       		.uleb128 0x3
 3633 003c 0E       		.uleb128 0xe
 3634 003d 0B       		.uleb128 0xb
 3635 003e 0B       		.uleb128 0xb
 3636 003f 3A       		.uleb128 0x3a
 3637 0040 0B       		.uleb128 0xb
 3638 0041 3B       		.uleb128 0x3b
 3639 0042 0B       		.uleb128 0xb
 3640 0043 01       		.uleb128 0x1
 3641 0044 13       		.uleb128 0x13
 3642 0045 00       		.byte	0
 3643 0046 00       		.byte	0
 3644 0047 06       		.uleb128 0x6
 3645 0048 0D       		.uleb128 0xd
 3646 0049 00       		.byte	0
 3647 004a 03       		.uleb128 0x3
 3648 004b 0E       		.uleb128 0xe
 3649 004c 3A       		.uleb128 0x3a
 3650 004d 0B       		.uleb128 0xb
 3651 004e 3B       		.uleb128 0x3b
 3652 004f 0B       		.uleb128 0xb
 3653 0050 49       		.uleb128 0x49
 3654 0051 13       		.uleb128 0x13
 3655 0052 38       		.uleb128 0x38
 3656 0053 0A       		.uleb128 0xa
 3657 0054 00       		.byte	0
 3658 0055 00       		.byte	0
 3659 0056 07       		.uleb128 0x7
 3660 0057 0D       		.uleb128 0xd
 3661 0058 00       		.byte	0
 3662 0059 03       		.uleb128 0x3
 3663 005a 08       		.uleb128 0x8
 3664 005b 3A       		.uleb128 0x3a
 3665 005c 0B       		.uleb128 0xb
 3666 005d 3B       		.uleb128 0x3b
 3667 005e 0B       		.uleb128 0xb
 3668 005f 49       		.uleb128 0x49
 3669 0060 13       		.uleb128 0x13
 3670 0061 38       		.uleb128 0x38
 3671 0062 0A       		.uleb128 0xa
 3672 0063 00       		.byte	0
 3673 0064 00       		.byte	0
 3674 0065 08       		.uleb128 0x8
 3675 0066 13       		.uleb128 0x13
 3676 0067 01       		.byte	0x1
 3677 0068 0B       		.uleb128 0xb
 3678 0069 0B       		.uleb128 0xb
 3679 006a 3A       		.uleb128 0x3a
 3680 006b 0B       		.uleb128 0xb
 3681 006c 3B       		.uleb128 0x3b
 3682 006d 0B       		.uleb128 0xb
 3683 006e 01       		.uleb128 0x1
 3684 006f 13       		.uleb128 0x13
 3685 0070 00       		.byte	0
 3686 0071 00       		.byte	0
ARM GAS  C:\Users\TAISIK~1\AppData\Local\Temp\ccZJTFka.s 			page 66


 3687 0072 09       		.uleb128 0x9
 3688 0073 0F       		.uleb128 0xf
 3689 0074 00       		.byte	0
 3690 0075 0B       		.uleb128 0xb
 3691 0076 0B       		.uleb128 0xb
 3692 0077 49       		.uleb128 0x49
 3693 0078 13       		.uleb128 0x13
 3694 0079 00       		.byte	0
 3695 007a 00       		.byte	0
 3696 007b 0A       		.uleb128 0xa
 3697 007c 0F       		.uleb128 0xf
 3698 007d 00       		.byte	0
 3699 007e 0B       		.uleb128 0xb
 3700 007f 0B       		.uleb128 0xb
 3701 0080 00       		.byte	0
 3702 0081 00       		.byte	0
 3703 0082 0B       		.uleb128 0xb
 3704 0083 13       		.uleb128 0x13
 3705 0084 01       		.byte	0x1
 3706 0085 03       		.uleb128 0x3
 3707 0086 0E       		.uleb128 0xe
 3708 0087 0B       		.uleb128 0xb
 3709 0088 0B       		.uleb128 0xb
 3710 0089 3A       		.uleb128 0x3a
 3711 008a 0B       		.uleb128 0xb
 3712 008b 3B       		.uleb128 0x3b
 3713 008c 05       		.uleb128 0x5
 3714 008d 01       		.uleb128 0x1
 3715 008e 13       		.uleb128 0x13
 3716 008f 00       		.byte	0
 3717 0090 00       		.byte	0
 3718 0091 0C       		.uleb128 0xc
 3719 0092 0D       		.uleb128 0xd
 3720 0093 00       		.byte	0
 3721 0094 03       		.uleb128 0x3
 3722 0095 08       		.uleb128 0x8
 3723 0096 3A       		.uleb128 0x3a
 3724 0097 0B       		.uleb128 0xb
 3725 0098 3B       		.uleb128 0x3b
 3726 0099 05       		.uleb128 0x5
 3727 009a 49       		.uleb128 0x49
 3728 009b 13       		.uleb128 0x13
 3729 009c 38       		.uleb128 0x38
 3730 009d 0A       		.uleb128 0xa
 3731 009e 00       		.byte	0
 3732 009f 00       		.byte	0
 3733 00a0 0D       		.uleb128 0xd
 3734 00a1 35       		.uleb128 0x35
 3735 00a2 00       		.byte	0
 3736 00a3 49       		.uleb128 0x49
 3737 00a4 13       		.uleb128 0x13
 3738 00a5 00       		.byte	0
 3739 00a6 00       		.byte	0
 3740 00a7 0E       		.uleb128 0xe
 3741 00a8 17       		.uleb128 0x17
 3742 00a9 01       		.byte	0x1
 3743 00aa 0B       		.uleb128 0xb
ARM GAS  C:\Users\TAISIK~1\AppData\Local\Temp\ccZJTFka.s 			page 67


 3744 00ab 0B       		.uleb128 0xb
 3745 00ac 3A       		.uleb128 0x3a
 3746 00ad 0B       		.uleb128 0xb
 3747 00ae 3B       		.uleb128 0x3b
 3748 00af 0B       		.uleb128 0xb
 3749 00b0 01       		.uleb128 0x1
 3750 00b1 13       		.uleb128 0x13
 3751 00b2 00       		.byte	0
 3752 00b3 00       		.byte	0
 3753 00b4 0F       		.uleb128 0xf
 3754 00b5 0D       		.uleb128 0xd
 3755 00b6 00       		.byte	0
 3756 00b7 03       		.uleb128 0x3
 3757 00b8 0E       		.uleb128 0xe
 3758 00b9 3A       		.uleb128 0x3a
 3759 00ba 0B       		.uleb128 0xb
 3760 00bb 3B       		.uleb128 0x3b
 3761 00bc 0B       		.uleb128 0xb
 3762 00bd 49       		.uleb128 0x49
 3763 00be 13       		.uleb128 0x13
 3764 00bf 00       		.byte	0
 3765 00c0 00       		.byte	0
 3766 00c1 10       		.uleb128 0x10
 3767 00c2 26       		.uleb128 0x26
 3768 00c3 00       		.byte	0
 3769 00c4 49       		.uleb128 0x49
 3770 00c5 13       		.uleb128 0x13
 3771 00c6 00       		.byte	0
 3772 00c7 00       		.byte	0
 3773 00c8 11       		.uleb128 0x11
 3774 00c9 15       		.uleb128 0x15
 3775 00ca 01       		.byte	0x1
 3776 00cb 27       		.uleb128 0x27
 3777 00cc 0C       		.uleb128 0xc
 3778 00cd 01       		.uleb128 0x1
 3779 00ce 13       		.uleb128 0x13
 3780 00cf 00       		.byte	0
 3781 00d0 00       		.byte	0
 3782 00d1 12       		.uleb128 0x12
 3783 00d2 05       		.uleb128 0x5
 3784 00d3 00       		.byte	0
 3785 00d4 49       		.uleb128 0x49
 3786 00d5 13       		.uleb128 0x13
 3787 00d6 00       		.byte	0
 3788 00d7 00       		.byte	0
 3789 00d8 13       		.uleb128 0x13
 3790 00d9 15       		.uleb128 0x15
 3791 00da 00       		.byte	0
 3792 00db 27       		.uleb128 0x27
 3793 00dc 0C       		.uleb128 0xc
 3794 00dd 00       		.byte	0
 3795 00de 00       		.byte	0
 3796 00df 14       		.uleb128 0x14
 3797 00e0 13       		.uleb128 0x13
 3798 00e1 01       		.byte	0x1
 3799 00e2 0B       		.uleb128 0xb
 3800 00e3 05       		.uleb128 0x5
ARM GAS  C:\Users\TAISIK~1\AppData\Local\Temp\ccZJTFka.s 			page 68


 3801 00e4 3A       		.uleb128 0x3a
 3802 00e5 0B       		.uleb128 0xb
 3803 00e6 3B       		.uleb128 0x3b
 3804 00e7 0B       		.uleb128 0xb
 3805 00e8 01       		.uleb128 0x1
 3806 00e9 13       		.uleb128 0x13
 3807 00ea 00       		.byte	0
 3808 00eb 00       		.byte	0
 3809 00ec 15       		.uleb128 0x15
 3810 00ed 01       		.uleb128 0x1
 3811 00ee 01       		.byte	0x1
 3812 00ef 49       		.uleb128 0x49
 3813 00f0 13       		.uleb128 0x13
 3814 00f1 01       		.uleb128 0x1
 3815 00f2 13       		.uleb128 0x13
 3816 00f3 00       		.byte	0
 3817 00f4 00       		.byte	0
 3818 00f5 16       		.uleb128 0x16
 3819 00f6 21       		.uleb128 0x21
 3820 00f7 00       		.byte	0
 3821 00f8 49       		.uleb128 0x49
 3822 00f9 13       		.uleb128 0x13
 3823 00fa 2F       		.uleb128 0x2f
 3824 00fb 0B       		.uleb128 0xb
 3825 00fc 00       		.byte	0
 3826 00fd 00       		.byte	0
 3827 00fe 17       		.uleb128 0x17
 3828 00ff 17       		.uleb128 0x17
 3829 0100 01       		.byte	0x1
 3830 0101 03       		.uleb128 0x3
 3831 0102 0E       		.uleb128 0xe
 3832 0103 0B       		.uleb128 0xb
 3833 0104 05       		.uleb128 0x5
 3834 0105 3A       		.uleb128 0x3a
 3835 0106 0B       		.uleb128 0xb
 3836 0107 3B       		.uleb128 0x3b
 3837 0108 0B       		.uleb128 0xb
 3838 0109 01       		.uleb128 0x1
 3839 010a 13       		.uleb128 0x13
 3840 010b 00       		.byte	0
 3841 010c 00       		.byte	0
 3842 010d 18       		.uleb128 0x18
 3843 010e 0D       		.uleb128 0xd
 3844 010f 00       		.byte	0
 3845 0110 03       		.uleb128 0x3
 3846 0111 08       		.uleb128 0x8
 3847 0112 3A       		.uleb128 0x3a
 3848 0113 0B       		.uleb128 0xb
 3849 0114 3B       		.uleb128 0x3b
 3850 0115 0B       		.uleb128 0xb
 3851 0116 49       		.uleb128 0x49
 3852 0117 13       		.uleb128 0x13
 3853 0118 00       		.byte	0
 3854 0119 00       		.byte	0
 3855 011a 19       		.uleb128 0x19
 3856 011b 21       		.uleb128 0x21
 3857 011c 00       		.byte	0
ARM GAS  C:\Users\TAISIK~1\AppData\Local\Temp\ccZJTFka.s 			page 69


 3858 011d 49       		.uleb128 0x49
 3859 011e 13       		.uleb128 0x13
 3860 011f 2F       		.uleb128 0x2f
 3861 0120 05       		.uleb128 0x5
 3862 0121 00       		.byte	0
 3863 0122 00       		.byte	0
 3864 0123 1A       		.uleb128 0x1a
 3865 0124 2E       		.uleb128 0x2e
 3866 0125 01       		.byte	0x1
 3867 0126 03       		.uleb128 0x3
 3868 0127 0E       		.uleb128 0xe
 3869 0128 3A       		.uleb128 0x3a
 3870 0129 0B       		.uleb128 0xb
 3871 012a 3B       		.uleb128 0x3b
 3872 012b 0B       		.uleb128 0xb
 3873 012c 27       		.uleb128 0x27
 3874 012d 0C       		.uleb128 0xc
 3875 012e 20       		.uleb128 0x20
 3876 012f 0B       		.uleb128 0xb
 3877 0130 01       		.uleb128 0x1
 3878 0131 13       		.uleb128 0x13
 3879 0132 00       		.byte	0
 3880 0133 00       		.byte	0
 3881 0134 1B       		.uleb128 0x1b
 3882 0135 34       		.uleb128 0x34
 3883 0136 00       		.byte	0
 3884 0137 03       		.uleb128 0x3
 3885 0138 08       		.uleb128 0x8
 3886 0139 3A       		.uleb128 0x3a
 3887 013a 0B       		.uleb128 0xb
 3888 013b 3B       		.uleb128 0x3b
 3889 013c 0B       		.uleb128 0xb
 3890 013d 49       		.uleb128 0x49
 3891 013e 13       		.uleb128 0x13
 3892 013f 00       		.byte	0
 3893 0140 00       		.byte	0
 3894 0141 1C       		.uleb128 0x1c
 3895 0142 0B       		.uleb128 0xb
 3896 0143 01       		.byte	0x1
 3897 0144 01       		.uleb128 0x1
 3898 0145 13       		.uleb128 0x13
 3899 0146 00       		.byte	0
 3900 0147 00       		.byte	0
 3901 0148 1D       		.uleb128 0x1d
 3902 0149 0B       		.uleb128 0xb
 3903 014a 01       		.byte	0x1
 3904 014b 00       		.byte	0
 3905 014c 00       		.byte	0
 3906 014d 1E       		.uleb128 0x1e
 3907 014e 2E       		.uleb128 0x2e
 3908 014f 01       		.byte	0x1
 3909 0150 03       		.uleb128 0x3
 3910 0151 0E       		.uleb128 0xe
 3911 0152 3A       		.uleb128 0x3a
 3912 0153 0B       		.uleb128 0xb
 3913 0154 3B       		.uleb128 0x3b
 3914 0155 0B       		.uleb128 0xb
ARM GAS  C:\Users\TAISIK~1\AppData\Local\Temp\ccZJTFka.s 			page 70


 3915 0156 27       		.uleb128 0x27
 3916 0157 0C       		.uleb128 0xc
 3917 0158 11       		.uleb128 0x11
 3918 0159 01       		.uleb128 0x1
 3919 015a 12       		.uleb128 0x12
 3920 015b 01       		.uleb128 0x1
 3921 015c 40       		.uleb128 0x40
 3922 015d 0A       		.uleb128 0xa
 3923 015e 01       		.uleb128 0x1
 3924 015f 13       		.uleb128 0x13
 3925 0160 00       		.byte	0
 3926 0161 00       		.byte	0
 3927 0162 1F       		.uleb128 0x1f
 3928 0163 05       		.uleb128 0x5
 3929 0164 00       		.byte	0
 3930 0165 03       		.uleb128 0x3
 3931 0166 08       		.uleb128 0x8
 3932 0167 3A       		.uleb128 0x3a
 3933 0168 0B       		.uleb128 0xb
 3934 0169 3B       		.uleb128 0x3b
 3935 016a 0B       		.uleb128 0xb
 3936 016b 49       		.uleb128 0x49
 3937 016c 13       		.uleb128 0x13
 3938 016d 02       		.uleb128 0x2
 3939 016e 0A       		.uleb128 0xa
 3940 016f 00       		.byte	0
 3941 0170 00       		.byte	0
 3942 0171 20       		.uleb128 0x20
 3943 0172 2E       		.uleb128 0x2e
 3944 0173 01       		.byte	0x1
 3945 0174 03       		.uleb128 0x3
 3946 0175 0E       		.uleb128 0xe
 3947 0176 3A       		.uleb128 0x3a
 3948 0177 0B       		.uleb128 0xb
 3949 0178 3B       		.uleb128 0x3b
 3950 0179 0B       		.uleb128 0xb
 3951 017a 27       		.uleb128 0x27
 3952 017b 0C       		.uleb128 0xc
 3953 017c 49       		.uleb128 0x49
 3954 017d 13       		.uleb128 0x13
 3955 017e 11       		.uleb128 0x11
 3956 017f 01       		.uleb128 0x1
 3957 0180 12       		.uleb128 0x12
 3958 0181 01       		.uleb128 0x1
 3959 0182 40       		.uleb128 0x40
 3960 0183 06       		.uleb128 0x6
 3961 0184 01       		.uleb128 0x1
 3962 0185 13       		.uleb128 0x13
 3963 0186 00       		.byte	0
 3964 0187 00       		.byte	0
 3965 0188 21       		.uleb128 0x21
 3966 0189 05       		.uleb128 0x5
 3967 018a 00       		.byte	0
 3968 018b 03       		.uleb128 0x3
 3969 018c 08       		.uleb128 0x8
 3970 018d 3A       		.uleb128 0x3a
 3971 018e 0B       		.uleb128 0xb
ARM GAS  C:\Users\TAISIK~1\AppData\Local\Temp\ccZJTFka.s 			page 71


 3972 018f 3B       		.uleb128 0x3b
 3973 0190 0B       		.uleb128 0xb
 3974 0191 49       		.uleb128 0x49
 3975 0192 13       		.uleb128 0x13
 3976 0193 02       		.uleb128 0x2
 3977 0194 06       		.uleb128 0x6
 3978 0195 00       		.byte	0
 3979 0196 00       		.byte	0
 3980 0197 22       		.uleb128 0x22
 3981 0198 2E       		.uleb128 0x2e
 3982 0199 00       		.byte	0
 3983 019a 03       		.uleb128 0x3
 3984 019b 0E       		.uleb128 0xe
 3985 019c 3A       		.uleb128 0x3a
 3986 019d 0B       		.uleb128 0xb
 3987 019e 3B       		.uleb128 0x3b
 3988 019f 0B       		.uleb128 0xb
 3989 01a0 27       		.uleb128 0x27
 3990 01a1 0C       		.uleb128 0xc
 3991 01a2 11       		.uleb128 0x11
 3992 01a3 01       		.uleb128 0x1
 3993 01a4 12       		.uleb128 0x12
 3994 01a5 01       		.uleb128 0x1
 3995 01a6 40       		.uleb128 0x40
 3996 01a7 06       		.uleb128 0x6
 3997 01a8 00       		.byte	0
 3998 01a9 00       		.byte	0
 3999 01aa 23       		.uleb128 0x23
 4000 01ab 2E       		.uleb128 0x2e
 4001 01ac 01       		.byte	0x1
 4002 01ad 31       		.uleb128 0x31
 4003 01ae 13       		.uleb128 0x13
 4004 01af 11       		.uleb128 0x11
 4005 01b0 01       		.uleb128 0x1
 4006 01b1 12       		.uleb128 0x12
 4007 01b2 01       		.uleb128 0x1
 4008 01b3 40       		.uleb128 0x40
 4009 01b4 06       		.uleb128 0x6
 4010 01b5 01       		.uleb128 0x1
 4011 01b6 13       		.uleb128 0x13
 4012 01b7 00       		.byte	0
 4013 01b8 00       		.byte	0
 4014 01b9 24       		.uleb128 0x24
 4015 01ba 34       		.uleb128 0x34
 4016 01bb 00       		.byte	0
 4017 01bc 31       		.uleb128 0x31
 4018 01bd 13       		.uleb128 0x13
 4019 01be 00       		.byte	0
 4020 01bf 00       		.byte	0
 4021 01c0 25       		.uleb128 0x25
 4022 01c1 0B       		.uleb128 0xb
 4023 01c2 01       		.byte	0x1
 4024 01c3 55       		.uleb128 0x55
 4025 01c4 06       		.uleb128 0x6
 4026 01c5 01       		.uleb128 0x1
 4027 01c6 13       		.uleb128 0x13
 4028 01c7 00       		.byte	0
ARM GAS  C:\Users\TAISIK~1\AppData\Local\Temp\ccZJTFka.s 			page 72


 4029 01c8 00       		.byte	0
 4030 01c9 26       		.uleb128 0x26
 4031 01ca 34       		.uleb128 0x34
 4032 01cb 00       		.byte	0
 4033 01cc 31       		.uleb128 0x31
 4034 01cd 13       		.uleb128 0x13
 4035 01ce 02       		.uleb128 0x2
 4036 01cf 06       		.uleb128 0x6
 4037 01d0 00       		.byte	0
 4038 01d1 00       		.byte	0
 4039 01d2 27       		.uleb128 0x27
 4040 01d3 1D       		.uleb128 0x1d
 4041 01d4 01       		.byte	0x1
 4042 01d5 31       		.uleb128 0x31
 4043 01d6 13       		.uleb128 0x13
 4044 01d7 52       		.uleb128 0x52
 4045 01d8 01       		.uleb128 0x1
 4046 01d9 55       		.uleb128 0x55
 4047 01da 06       		.uleb128 0x6
 4048 01db 58       		.uleb128 0x58
 4049 01dc 0B       		.uleb128 0xb
 4050 01dd 59       		.uleb128 0x59
 4051 01de 0B       		.uleb128 0xb
 4052 01df 00       		.byte	0
 4053 01e0 00       		.byte	0
 4054 01e1 28       		.uleb128 0x28
 4055 01e2 0B       		.uleb128 0xb
 4056 01e3 01       		.byte	0x1
 4057 01e4 55       		.uleb128 0x55
 4058 01e5 06       		.uleb128 0x6
 4059 01e6 00       		.byte	0
 4060 01e7 00       		.byte	0
 4061 01e8 29       		.uleb128 0x29
 4062 01e9 0B       		.uleb128 0xb
 4063 01ea 01       		.byte	0x1
 4064 01eb 11       		.uleb128 0x11
 4065 01ec 01       		.uleb128 0x1
 4066 01ed 12       		.uleb128 0x12
 4067 01ee 01       		.uleb128 0x1
 4068 01ef 01       		.uleb128 0x1
 4069 01f0 13       		.uleb128 0x13
 4070 01f1 00       		.byte	0
 4071 01f2 00       		.byte	0
 4072 01f3 2A       		.uleb128 0x2a
 4073 01f4 0B       		.uleb128 0xb
 4074 01f5 01       		.byte	0x1
 4075 01f6 11       		.uleb128 0x11
 4076 01f7 01       		.uleb128 0x1
 4077 01f8 12       		.uleb128 0x12
 4078 01f9 01       		.uleb128 0x1
 4079 01fa 00       		.byte	0
 4080 01fb 00       		.byte	0
 4081 01fc 2B       		.uleb128 0x2b
 4082 01fd 34       		.uleb128 0x34
 4083 01fe 00       		.byte	0
 4084 01ff 03       		.uleb128 0x3
 4085 0200 0E       		.uleb128 0xe
ARM GAS  C:\Users\TAISIK~1\AppData\Local\Temp\ccZJTFka.s 			page 73


 4086 0201 3A       		.uleb128 0x3a
 4087 0202 0B       		.uleb128 0xb
 4088 0203 3B       		.uleb128 0x3b
 4089 0204 0B       		.uleb128 0xb
 4090 0205 49       		.uleb128 0x49
 4091 0206 13       		.uleb128 0x13
 4092 0207 3F       		.uleb128 0x3f
 4093 0208 0C       		.uleb128 0xc
 4094 0209 3C       		.uleb128 0x3c
 4095 020a 0C       		.uleb128 0xc
 4096 020b 00       		.byte	0
 4097 020c 00       		.byte	0
 4098 020d 2C       		.uleb128 0x2c
 4099 020e 21       		.uleb128 0x21
 4100 020f 00       		.byte	0
 4101 0210 00       		.byte	0
 4102 0211 00       		.byte	0
 4103 0212 2D       		.uleb128 0x2d
 4104 0213 34       		.uleb128 0x34
 4105 0214 00       		.byte	0
 4106 0215 03       		.uleb128 0x3
 4107 0216 08       		.uleb128 0x8
 4108 0217 3A       		.uleb128 0x3a
 4109 0218 0B       		.uleb128 0xb
 4110 0219 3B       		.uleb128 0x3b
 4111 021a 0B       		.uleb128 0xb
 4112 021b 49       		.uleb128 0x49
 4113 021c 13       		.uleb128 0x13
 4114 021d 3F       		.uleb128 0x3f
 4115 021e 0C       		.uleb128 0xc
 4116 021f 3C       		.uleb128 0x3c
 4117 0220 0C       		.uleb128 0xc
 4118 0221 00       		.byte	0
 4119 0222 00       		.byte	0
 4120 0223 2E       		.uleb128 0x2e
 4121 0224 34       		.uleb128 0x34
 4122 0225 00       		.byte	0
 4123 0226 03       		.uleb128 0x3
 4124 0227 08       		.uleb128 0x8
 4125 0228 3A       		.uleb128 0x3a
 4126 0229 0B       		.uleb128 0xb
 4127 022a 3B       		.uleb128 0x3b
 4128 022b 0B       		.uleb128 0xb
 4129 022c 49       		.uleb128 0x49
 4130 022d 13       		.uleb128 0x13
 4131 022e 02       		.uleb128 0x2
 4132 022f 0A       		.uleb128 0xa
 4133 0230 00       		.byte	0
 4134 0231 00       		.byte	0
 4135 0232 2F       		.uleb128 0x2f
 4136 0233 34       		.uleb128 0x34
 4137 0234 00       		.byte	0
 4138 0235 03       		.uleb128 0x3
 4139 0236 0E       		.uleb128 0xe
 4140 0237 3A       		.uleb128 0x3a
 4141 0238 0B       		.uleb128 0xb
 4142 0239 3B       		.uleb128 0x3b
ARM GAS  C:\Users\TAISIK~1\AppData\Local\Temp\ccZJTFka.s 			page 74


 4143 023a 0B       		.uleb128 0xb
 4144 023b 49       		.uleb128 0x49
 4145 023c 13       		.uleb128 0x13
 4146 023d 3F       		.uleb128 0x3f
 4147 023e 0C       		.uleb128 0xc
 4148 023f 02       		.uleb128 0x2
 4149 0240 0A       		.uleb128 0xa
 4150 0241 00       		.byte	0
 4151 0242 00       		.byte	0
 4152 0243 00       		.byte	0
 4153              		.section	.debug_loc,"",%progbits
 4154              	.Ldebug_loc0:
 4155              	.LLST0:
 4156 0000 00000000 		.4byte	.LFB12
 4157 0004 06000000 		.4byte	.LCFI0
 4158 0008 0200     		.2byte	0x2
 4159 000a 7D       		.byte	0x7d
 4160 000b 00       		.sleb128 0
 4161 000c 06000000 		.4byte	.LCFI0
 4162 0010 16000000 		.4byte	.LFE12
 4163 0014 0200     		.2byte	0x2
 4164 0016 7D       		.byte	0x7d
 4165 0017 08       		.sleb128 8
 4166 0018 00000000 		.4byte	0
 4167 001c 00000000 		.4byte	0
 4168              	.LLST1:
 4169 0020 00000000 		.4byte	.LVL1
 4170 0024 04000000 		.4byte	.LVL2
 4171 0028 0100     		.2byte	0x1
 4172 002a 50       		.byte	0x50
 4173 002b 00000000 		.4byte	0
 4174 002f 00000000 		.4byte	0
 4175              	.LLST2:
 4176 0033 00000000 		.4byte	.LFB11
 4177 0037 02000000 		.4byte	.LCFI1
 4178 003b 0200     		.2byte	0x2
 4179 003d 7D       		.byte	0x7d
 4180 003e 00       		.sleb128 0
 4181 003f 02000000 		.4byte	.LCFI1
 4182 0043 0C000000 		.4byte	.LCFI2
 4183 0047 0200     		.2byte	0x2
 4184 0049 7D       		.byte	0x7d
 4185 004a 04       		.sleb128 4
 4186 004b 0C000000 		.4byte	.LCFI2
 4187 004f 2C000000 		.4byte	.LFE11
 4188 0053 0200     		.2byte	0x2
 4189 0055 7D       		.byte	0x7d
 4190 0056 10       		.sleb128 16
 4191 0057 00000000 		.4byte	0
 4192 005b 00000000 		.4byte	0
 4193              	.LLST3:
 4194 005f 00000000 		.4byte	.LFB9
 4195 0063 06000000 		.4byte	.LCFI3
 4196 0067 0200     		.2byte	0x2
 4197 0069 7D       		.byte	0x7d
 4198 006a 00       		.sleb128 0
 4199 006b 06000000 		.4byte	.LCFI3
ARM GAS  C:\Users\TAISIK~1\AppData\Local\Temp\ccZJTFka.s 			page 75


 4200 006f 14000000 		.4byte	.LFE9
 4201 0073 0200     		.2byte	0x2
 4202 0075 7D       		.byte	0x7d
 4203 0076 08       		.sleb128 8
 4204 0077 00000000 		.4byte	0
 4205 007b 00000000 		.4byte	0
 4206              	.LLST4:
 4207 007f 00000000 		.4byte	.LVL3
 4208 0083 04000000 		.4byte	.LVL4
 4209 0087 0100     		.2byte	0x1
 4210 0089 50       		.byte	0x50
 4211 008a 00000000 		.4byte	0
 4212 008e 00000000 		.4byte	0
 4213              	.LLST5:
 4214 0092 00000000 		.4byte	.LFB8
 4215 0096 02000000 		.4byte	.LCFI4
 4216 009a 0200     		.2byte	0x2
 4217 009c 7D       		.byte	0x7d
 4218 009d 00       		.sleb128 0
 4219 009e 02000000 		.4byte	.LCFI4
 4220 00a2 0C000000 		.4byte	.LCFI5
 4221 00a6 0200     		.2byte	0x2
 4222 00a8 7D       		.byte	0x7d
 4223 00a9 04       		.sleb128 4
 4224 00aa 0C000000 		.4byte	.LCFI5
 4225 00ae 2C000000 		.4byte	.LFE8
 4226 00b2 0200     		.2byte	0x2
 4227 00b4 7D       		.byte	0x7d
 4228 00b5 10       		.sleb128 16
 4229 00b6 00000000 		.4byte	0
 4230 00ba 00000000 		.4byte	0
 4231              	.LLST6:
 4232 00be 00000000 		.4byte	.LFB13
 4233 00c2 04000000 		.4byte	.LCFI6
 4234 00c6 0200     		.2byte	0x2
 4235 00c8 7D       		.byte	0x7d
 4236 00c9 00       		.sleb128 0
 4237 00ca 04000000 		.4byte	.LCFI6
 4238 00ce 08000000 		.4byte	.LCFI7
 4239 00d2 0200     		.2byte	0x2
 4240 00d4 7D       		.byte	0x7d
 4241 00d5 18       		.sleb128 24
 4242 00d6 08000000 		.4byte	.LCFI7
 4243 00da D8020000 		.4byte	.LFE13
 4244 00de 0200     		.2byte	0x2
 4245 00e0 7D       		.byte	0x7d
 4246 00e1 20       		.sleb128 32
 4247 00e2 00000000 		.4byte	0
 4248 00e6 00000000 		.4byte	0
 4249              	.LLST7:
 4250 00ea 0C000000 		.4byte	.LVL6
 4251 00ee 12000000 		.4byte	.LVL7
 4252 00f2 0100     		.2byte	0x1
 4253 00f4 53       		.byte	0x53
 4254 00f5 00000000 		.4byte	0
 4255 00f9 00000000 		.4byte	0
 4256              	.LLST8:
ARM GAS  C:\Users\TAISIK~1\AppData\Local\Temp\ccZJTFka.s 			page 76


 4257 00fd 2C000000 		.4byte	.LVL9
 4258 0101 3A000000 		.4byte	.LVL10
 4259 0105 0200     		.2byte	0x2
 4260 0107 30       		.byte	0x30
 4261 0108 9F       		.byte	0x9f
 4262 0109 3A000000 		.4byte	.LVL10
 4263 010d 46000000 		.4byte	.LVL11
 4264 0111 0200     		.2byte	0x2
 4265 0113 31       		.byte	0x31
 4266 0114 9F       		.byte	0x9f
 4267 0115 46000000 		.4byte	.LVL11
 4268 0119 52000000 		.4byte	.LVL12
 4269 011d 0200     		.2byte	0x2
 4270 011f 32       		.byte	0x32
 4271 0120 9F       		.byte	0x9f
 4272 0121 52000000 		.4byte	.LVL12
 4273 0125 5E000000 		.4byte	.LVL13
 4274 0129 0200     		.2byte	0x2
 4275 012b 33       		.byte	0x33
 4276 012c 9F       		.byte	0x9f
 4277 012d 5E000000 		.4byte	.LVL13
 4278 0131 80000000 		.4byte	.LVL18
 4279 0135 0200     		.2byte	0x2
 4280 0137 34       		.byte	0x34
 4281 0138 9F       		.byte	0x9f
 4282 0139 80000000 		.4byte	.LVL18
 4283 013d 98000000 		.4byte	.LVL25
 4284 0141 0200     		.2byte	0x2
 4285 0143 30       		.byte	0x30
 4286 0144 9F       		.byte	0x9f
 4287 0145 98000000 		.4byte	.LVL25
 4288 0149 B0000000 		.4byte	.LVL30
 4289 014d 0200     		.2byte	0x2
 4290 014f 31       		.byte	0x31
 4291 0150 9F       		.byte	0x9f
 4292 0151 B0000000 		.4byte	.LVL30
 4293 0155 C8000000 		.4byte	.LVL35
 4294 0159 0200     		.2byte	0x2
 4295 015b 32       		.byte	0x32
 4296 015c 9F       		.byte	0x9f
 4297 015d C8000000 		.4byte	.LVL35
 4298 0161 E0000000 		.4byte	.LVL40
 4299 0165 0200     		.2byte	0x2
 4300 0167 33       		.byte	0x33
 4301 0168 9F       		.byte	0x9f
 4302 0169 E0000000 		.4byte	.LVL40
 4303 016d F8000000 		.4byte	.LVL44
 4304 0171 0200     		.2byte	0x2
 4305 0173 34       		.byte	0x34
 4306 0174 9F       		.byte	0x9f
 4307 0175 04010000 		.4byte	.LVL47
 4308 0179 46010000 		.4byte	.LVL57
 4309 017d 0200     		.2byte	0x2
 4310 017f 34       		.byte	0x34
 4311 0180 9F       		.byte	0x9f
 4312 0181 50010000 		.4byte	.LVL58
 4313 0185 D8020000 		.4byte	.LFE13
ARM GAS  C:\Users\TAISIK~1\AppData\Local\Temp\ccZJTFka.s 			page 77


 4314 0189 0200     		.2byte	0x2
 4315 018b 34       		.byte	0x34
 4316 018c 9F       		.byte	0x9f
 4317 018d 00000000 		.4byte	0
 4318 0191 00000000 		.4byte	0
 4319              	.LLST9:
 4320 0195 6E010000 		.4byte	.LVL61
 4321 0199 74010000 		.4byte	.LVL62
 4322 019d 0100     		.2byte	0x1
 4323 019f 50       		.byte	0x50
 4324 01a0 74010000 		.4byte	.LVL62
 4325 01a4 7D010000 		.4byte	.LVL63-1
 4326 01a8 0300     		.2byte	0x3
 4327 01aa 72       		.byte	0x72
 4328 01ab 04       		.sleb128 4
 4329 01ac 9F       		.byte	0x9f
 4330 01ad 42020000 		.4byte	.LVL90
 4331 01b1 4E020000 		.4byte	.LVL91
 4332 01b5 0100     		.2byte	0x1
 4333 01b7 50       		.byte	0x50
 4334 01b8 4E020000 		.4byte	.LVL91
 4335 01bc 51020000 		.4byte	.LVL92-1
 4336 01c0 0300     		.2byte	0x3
 4337 01c2 73       		.byte	0x73
 4338 01c3 02       		.sleb128 2
 4339 01c4 9F       		.byte	0x9f
 4340 01c5 64020000 		.4byte	.LVL93
 4341 01c9 6A020000 		.4byte	.LVL94
 4342 01cd 0100     		.2byte	0x1
 4343 01cf 50       		.byte	0x50
 4344 01d0 6A020000 		.4byte	.LVL94
 4345 01d4 6E020000 		.4byte	.LVL95
 4346 01d8 0300     		.2byte	0x3
 4347 01da 71       		.byte	0x71
 4348 01db 02       		.sleb128 2
 4349 01dc 9F       		.byte	0x9f
 4350 01dd 00000000 		.4byte	0
 4351 01e1 00000000 		.4byte	0
 4352              	.LLST10:
 4353 01e5 2C000000 		.4byte	.LVL9
 4354 01e9 39000000 		.4byte	.LVL10-1
 4355 01ed 0100     		.2byte	0x1
 4356 01ef 53       		.byte	0x53
 4357 01f0 00000000 		.4byte	0
 4358 01f4 00000000 		.4byte	0
 4359              	.LLST11:
 4360 01f8 64000000 		.4byte	.LVL15
 4361 01fc 73000000 		.4byte	.LVL16-1
 4362 0200 0100     		.2byte	0x1
 4363 0202 53       		.byte	0x53
 4364 0203 00000000 		.4byte	0
 4365 0207 00000000 		.4byte	0
 4366              	.LLST12:
 4367 020b 80000000 		.4byte	.LVL18
 4368 020f 82000000 		.4byte	.LVL19
 4369 0213 0100     		.2byte	0x1
 4370 0215 53       		.byte	0x53
ARM GAS  C:\Users\TAISIK~1\AppData\Local\Temp\ccZJTFka.s 			page 78


 4371 0216 00000000 		.4byte	0
 4372 021a 00000000 		.4byte	0
 4373              	.LLST13:
 4374 021e 8C000000 		.4byte	.LVL21
 4375 0222 94000000 		.4byte	.LVL24
 4376 0226 0100     		.2byte	0x1
 4377 0228 50       		.byte	0x50
 4378 0229 A4000000 		.4byte	.LVL27
 4379 022d AC000000 		.4byte	.LVL29
 4380 0231 0100     		.2byte	0x1
 4381 0233 50       		.byte	0x50
 4382 0234 BC000000 		.4byte	.LVL32
 4383 0238 C4000000 		.4byte	.LVL34
 4384 023c 0100     		.2byte	0x1
 4385 023e 50       		.byte	0x50
 4386 023f D4000000 		.4byte	.LVL37
 4387 0243 DC000000 		.4byte	.LVL39
 4388 0247 0100     		.2byte	0x1
 4389 0249 50       		.byte	0x50
 4390 024a 00000000 		.4byte	0
 4391 024e 00000000 		.4byte	0
 4392              	.LLST14:
 4393 0252 86000000 		.4byte	.LVL20
 4394 0256 8B000000 		.4byte	.LVL21-1
 4395 025a 0100     		.2byte	0x1
 4396 025c 53       		.byte	0x53
 4397 025d 9E000000 		.4byte	.LVL26
 4398 0261 A3000000 		.4byte	.LVL27-1
 4399 0265 0100     		.2byte	0x1
 4400 0267 53       		.byte	0x53
 4401 0268 B6000000 		.4byte	.LVL31
 4402 026c BB000000 		.4byte	.LVL32-1
 4403 0270 0100     		.2byte	0x1
 4404 0272 53       		.byte	0x53
 4405 0273 CE000000 		.4byte	.LVL36
 4406 0277 D3000000 		.4byte	.LVL37-1
 4407 027b 0100     		.2byte	0x1
 4408 027d 53       		.byte	0x53
 4409 027e 00000000 		.4byte	0
 4410 0282 00000000 		.4byte	0
 4411              	.LLST15:
 4412 0286 92000000 		.4byte	.LVL23
 4413 028a 97000000 		.4byte	.LVL25-1
 4414 028e 0100     		.2byte	0x1
 4415 0290 53       		.byte	0x53
 4416 0291 AA000000 		.4byte	.LVL28
 4417 0295 AF000000 		.4byte	.LVL30-1
 4418 0299 0100     		.2byte	0x1
 4419 029b 53       		.byte	0x53
 4420 029c C2000000 		.4byte	.LVL33
 4421 02a0 C7000000 		.4byte	.LVL35-1
 4422 02a4 0100     		.2byte	0x1
 4423 02a6 53       		.byte	0x53
 4424 02a7 DA000000 		.4byte	.LVL38
 4425 02ab DF000000 		.4byte	.LVL40-1
 4426 02af 0100     		.2byte	0x1
 4427 02b1 53       		.byte	0x53
ARM GAS  C:\Users\TAISIK~1\AppData\Local\Temp\ccZJTFka.s 			page 79


 4428 02b2 00000000 		.4byte	0
 4429 02b6 00000000 		.4byte	0
 4430              	.LLST16:
 4431 02ba E6000000 		.4byte	.LVL42
 4432 02be EA000000 		.4byte	.LVL43
 4433 02c2 0100     		.2byte	0x1
 4434 02c4 53       		.byte	0x53
 4435 02c5 00000000 		.4byte	0
 4436 02c9 00000000 		.4byte	0
 4437              	.LLST17:
 4438 02cd FE000000 		.4byte	.LVL46
 4439 02d1 04010000 		.4byte	.LVL47
 4440 02d5 0100     		.2byte	0x1
 4441 02d7 53       		.byte	0x53
 4442 02d8 00000000 		.4byte	0
 4443 02dc 00000000 		.4byte	0
 4444              	.LLST18:
 4445 02e0 FE000000 		.4byte	.LVL46
 4446 02e4 04010000 		.4byte	.LVL47
 4447 02e8 0100     		.2byte	0x1
 4448 02ea 53       		.byte	0x53
 4449 02eb 0A010000 		.4byte	.LVL48
 4450 02ef 0C010000 		.4byte	.LVL49
 4451 02f3 0100     		.2byte	0x1
 4452 02f5 53       		.byte	0x53
 4453 02f6 00000000 		.4byte	0
 4454 02fa 00000000 		.4byte	0
 4455              	.LLST19:
 4456 02fe 12010000 		.4byte	.LVL51
 4457 0302 19010000 		.4byte	.LVL52-1
 4458 0306 0100     		.2byte	0x1
 4459 0308 53       		.byte	0x53
 4460 0309 00000000 		.4byte	0
 4461 030d 00000000 		.4byte	0
 4462              	.LLST20:
 4463 0311 26010000 		.4byte	.LVL54
 4464 0315 2D010000 		.4byte	.LVL55-1
 4465 0319 0100     		.2byte	0x1
 4466 031b 53       		.byte	0x53
 4467 031c 00000000 		.4byte	0
 4468 0320 00000000 		.4byte	0
 4469              	.LLST21:
 4470 0324 FE000000 		.4byte	.LVL46
 4471 0328 04010000 		.4byte	.LVL47
 4472 032c 0100     		.2byte	0x1
 4473 032e 53       		.byte	0x53
 4474 032f 44010000 		.4byte	.LVL56
 4475 0333 46010000 		.4byte	.LVL57
 4476 0337 0100     		.2byte	0x1
 4477 0339 53       		.byte	0x53
 4478 033a 00000000 		.4byte	0
 4479 033e 00000000 		.4byte	0
 4480              	.LLST22:
 4481 0342 60010000 		.4byte	.LVL60
 4482 0346 6D010000 		.4byte	.LVL61-1
 4483 034a 0100     		.2byte	0x1
 4484 034c 53       		.byte	0x53
ARM GAS  C:\Users\TAISIK~1\AppData\Local\Temp\ccZJTFka.s 			page 80


 4485 034d 00000000 		.4byte	0
 4486 0351 00000000 		.4byte	0
 4487              	.LLST23:
 4488 0355 8A010000 		.4byte	.LVL65
 4489 0359 99010000 		.4byte	.LVL66-1
 4490 035d 0100     		.2byte	0x1
 4491 035f 53       		.byte	0x53
 4492 0360 00000000 		.4byte	0
 4493 0364 00000000 		.4byte	0
 4494              	.LLST24:
 4495 0368 FE000000 		.4byte	.LVL46
 4496 036c 04010000 		.4byte	.LVL47
 4497 0370 0100     		.2byte	0x1
 4498 0372 53       		.byte	0x53
 4499 0373 A4010000 		.4byte	.LVL67
 4500 0377 A6010000 		.4byte	.LVL68
 4501 037b 0100     		.2byte	0x1
 4502 037d 53       		.byte	0x53
 4503 037e 00000000 		.4byte	0
 4504 0382 00000000 		.4byte	0
 4505              	.LLST25:
 4506 0386 AC010000 		.4byte	.LVL70
 4507 038a AE010000 		.4byte	.LVL71
 4508 038e 0100     		.2byte	0x1
 4509 0390 53       		.byte	0x53
 4510 0391 00000000 		.4byte	0
 4511 0395 00000000 		.4byte	0
 4512              	.LLST26:
 4513 0399 CC010000 		.4byte	.LVL73
 4514 039d DC010000 		.4byte	.LVL74
 4515 03a1 0100     		.2byte	0x1
 4516 03a3 53       		.byte	0x53
 4517 03a4 00000000 		.4byte	0
 4518 03a8 00000000 		.4byte	0
 4519              	.LLST27:
 4520 03ac FE000000 		.4byte	.LVL46
 4521 03b0 04010000 		.4byte	.LVL47
 4522 03b4 0100     		.2byte	0x1
 4523 03b6 53       		.byte	0x53
 4524 03b7 F2010000 		.4byte	.LVL75
 4525 03bb F4010000 		.4byte	.LVL76
 4526 03bf 0100     		.2byte	0x1
 4527 03c1 53       		.byte	0x53
 4528 03c2 00000000 		.4byte	0
 4529 03c6 00000000 		.4byte	0
 4530              	.LLST28:
 4531 03ca FA010000 		.4byte	.LVL78
 4532 03ce FD010000 		.4byte	.LVL79-1
 4533 03d2 0100     		.2byte	0x1
 4534 03d4 53       		.byte	0x53
 4535 03d5 00000000 		.4byte	0
 4536 03d9 00000000 		.4byte	0
 4537              	.LLST29:
 4538 03dd 04020000 		.4byte	.LVL81
 4539 03e1 09020000 		.4byte	.LVL82-1
 4540 03e5 0100     		.2byte	0x1
 4541 03e7 53       		.byte	0x53
ARM GAS  C:\Users\TAISIK~1\AppData\Local\Temp\ccZJTFka.s 			page 81


 4542 03e8 00000000 		.4byte	0
 4543 03ec 00000000 		.4byte	0
 4544              	.LLST30:
 4545 03f0 10020000 		.4byte	.LVL84
 4546 03f4 12020000 		.4byte	.LVL85
 4547 03f8 0100     		.2byte	0x1
 4548 03fa 53       		.byte	0x53
 4549 03fb 00000000 		.4byte	0
 4550 03ff 00000000 		.4byte	0
 4551              	.LLST31:
 4552 0403 16020000 		.4byte	.LVL86
 4553 0407 1C020000 		.4byte	.LVL87
 4554 040b 0100     		.2byte	0x1
 4555 040d 53       		.byte	0x53
 4556 040e 00000000 		.4byte	0
 4557 0412 00000000 		.4byte	0
 4558              	.LLST32:
 4559 0416 38020000 		.4byte	.LVL89
 4560 041a 41020000 		.4byte	.LVL90-1
 4561 041e 0100     		.2byte	0x1
 4562 0420 53       		.byte	0x53
 4563 0421 00000000 		.4byte	0
 4564 0425 00000000 		.4byte	0
 4565              	.LLST33:
 4566 0429 80020000 		.4byte	.LVL97
 4567 042d 8F020000 		.4byte	.LVL98-1
 4568 0431 0100     		.2byte	0x1
 4569 0433 53       		.byte	0x53
 4570 0434 00000000 		.4byte	0
 4571 0438 00000000 		.4byte	0
 4572              	.LLST34:
 4573 043c FE000000 		.4byte	.LVL46
 4574 0440 04010000 		.4byte	.LVL47
 4575 0444 0100     		.2byte	0x1
 4576 0446 53       		.byte	0x53
 4577 0447 96020000 		.4byte	.LVL99
 4578 044b A5020000 		.4byte	.LVL101-1
 4579 044f 0100     		.2byte	0x1
 4580 0451 53       		.byte	0x53
 4581 0452 00000000 		.4byte	0
 4582 0456 00000000 		.4byte	0
 4583              	.LLST35:
 4584 045a 00000000 		.4byte	.LFB10
 4585 045e 04000000 		.4byte	.LCFI8
 4586 0462 0200     		.2byte	0x2
 4587 0464 7D       		.byte	0x7d
 4588 0465 00       		.sleb128 0
 4589 0466 04000000 		.4byte	.LCFI8
 4590 046a 08000000 		.4byte	.LCFI9
 4591 046e 0200     		.2byte	0x2
 4592 0470 7D       		.byte	0x7d
 4593 0471 1C       		.sleb128 28
 4594 0472 08000000 		.4byte	.LCFI9
 4595 0476 04030000 		.4byte	.LFE10
 4596 047a 0200     		.2byte	0x2
 4597 047c 7D       		.byte	0x7d
 4598 047d 28       		.sleb128 40
ARM GAS  C:\Users\TAISIK~1\AppData\Local\Temp\ccZJTFka.s 			page 82


 4599 047e 00000000 		.4byte	0
 4600 0482 00000000 		.4byte	0
 4601              	.LLST36:
 4602 0486 0C000000 		.4byte	.LVL103
 4603 048a 1D000000 		.4byte	.LVL104-1
 4604 048e 0100     		.2byte	0x1
 4605 0490 53       		.byte	0x53
 4606 0491 00000000 		.4byte	0
 4607 0495 00000000 		.4byte	0
 4608              	.LLST37:
 4609 0499 2E000000 		.4byte	.LVL108
 4610 049d 36000000 		.4byte	.LVL109
 4611 04a1 0200     		.2byte	0x2
 4612 04a3 30       		.byte	0x30
 4613 04a4 9F       		.byte	0x9f
 4614 04a5 36000000 		.4byte	.LVL109
 4615 04a9 3E000000 		.4byte	.LVL110
 4616 04ad 0200     		.2byte	0x2
 4617 04af 31       		.byte	0x31
 4618 04b0 9F       		.byte	0x9f
 4619 04b1 3E000000 		.4byte	.LVL110
 4620 04b5 46000000 		.4byte	.LVL111
 4621 04b9 0200     		.2byte	0x2
 4622 04bb 32       		.byte	0x32
 4623 04bc 9F       		.byte	0x9f
 4624 04bd 46000000 		.4byte	.LVL111
 4625 04c1 4E000000 		.4byte	.LVL112
 4626 04c5 0200     		.2byte	0x2
 4627 04c7 33       		.byte	0x33
 4628 04c8 9F       		.byte	0x9f
 4629 04c9 4E000000 		.4byte	.LVL112
 4630 04cd 6E000000 		.4byte	.LVL118
 4631 04d1 0200     		.2byte	0x2
 4632 04d3 34       		.byte	0x34
 4633 04d4 9F       		.byte	0x9f
 4634 04d5 7A000000 		.4byte	.LVL121
 4635 04d9 A8000000 		.4byte	.LVL128
 4636 04dd 0200     		.2byte	0x2
 4637 04df 34       		.byte	0x34
 4638 04e0 9F       		.byte	0x9f
 4639 04e1 A8000000 		.4byte	.LVL128
 4640 04e5 B8000000 		.4byte	.LVL130
 4641 04e9 0200     		.2byte	0x2
 4642 04eb 30       		.byte	0x30
 4643 04ec 9F       		.byte	0x9f
 4644 04ed B8000000 		.4byte	.LVL130
 4645 04f1 C8000000 		.4byte	.LVL131
 4646 04f5 0200     		.2byte	0x2
 4647 04f7 31       		.byte	0x31
 4648 04f8 9F       		.byte	0x9f
 4649 04f9 C8000000 		.4byte	.LVL131
 4650 04fd D8000000 		.4byte	.LVL132
 4651 0501 0200     		.2byte	0x2
 4652 0503 32       		.byte	0x32
 4653 0504 9F       		.byte	0x9f
 4654 0505 D8000000 		.4byte	.LVL132
 4655 0509 E8000000 		.4byte	.LVL133
ARM GAS  C:\Users\TAISIK~1\AppData\Local\Temp\ccZJTFka.s 			page 83


 4656 050d 0200     		.2byte	0x2
 4657 050f 33       		.byte	0x33
 4658 0510 9F       		.byte	0x9f
 4659 0511 E8000000 		.4byte	.LVL133
 4660 0515 34010000 		.4byte	.LVL145
 4661 0519 0200     		.2byte	0x2
 4662 051b 34       		.byte	0x34
 4663 051c 9F       		.byte	0x9f
 4664 051d 34010000 		.4byte	.LVL145
 4665 0521 3C010000 		.4byte	.LVL146
 4666 0525 0200     		.2byte	0x2
 4667 0527 30       		.byte	0x30
 4668 0528 9F       		.byte	0x9f
 4669 0529 3C010000 		.4byte	.LVL146
 4670 052d 44010000 		.4byte	.LVL147
 4671 0531 0200     		.2byte	0x2
 4672 0533 31       		.byte	0x31
 4673 0534 9F       		.byte	0x9f
 4674 0535 44010000 		.4byte	.LVL147
 4675 0539 4C010000 		.4byte	.LVL148
 4676 053d 0200     		.2byte	0x2
 4677 053f 32       		.byte	0x32
 4678 0540 9F       		.byte	0x9f
 4679 0541 4C010000 		.4byte	.LVL148
 4680 0545 54010000 		.4byte	.LVL149
 4681 0549 0200     		.2byte	0x2
 4682 054b 33       		.byte	0x33
 4683 054c 9F       		.byte	0x9f
 4684 054d 54010000 		.4byte	.LVL149
 4685 0551 AA010000 		.4byte	.LVL161
 4686 0555 0200     		.2byte	0x2
 4687 0557 34       		.byte	0x34
 4688 0558 9F       		.byte	0x9f
 4689 0559 AA010000 		.4byte	.LVL161
 4690 055d B2010000 		.4byte	.LVL162
 4691 0561 0200     		.2byte	0x2
 4692 0563 30       		.byte	0x30
 4693 0564 9F       		.byte	0x9f
 4694 0565 B2010000 		.4byte	.LVL162
 4695 0569 BA010000 		.4byte	.LVL163
 4696 056d 0200     		.2byte	0x2
 4697 056f 31       		.byte	0x31
 4698 0570 9F       		.byte	0x9f
 4699 0571 BA010000 		.4byte	.LVL163
 4700 0575 C2010000 		.4byte	.LVL164
 4701 0579 0200     		.2byte	0x2
 4702 057b 32       		.byte	0x32
 4703 057c 9F       		.byte	0x9f
 4704 057d C2010000 		.4byte	.LVL164
 4705 0581 CA010000 		.4byte	.LVL165
 4706 0585 0200     		.2byte	0x2
 4707 0587 33       		.byte	0x33
 4708 0588 9F       		.byte	0x9f
 4709 0589 CA010000 		.4byte	.LVL165
 4710 058d 04030000 		.4byte	.LFE10
 4711 0591 0200     		.2byte	0x2
 4712 0593 34       		.byte	0x34
ARM GAS  C:\Users\TAISIK~1\AppData\Local\Temp\ccZJTFka.s 			page 84


 4713 0594 9F       		.byte	0x9f
 4714 0595 00000000 		.4byte	0
 4715 0599 00000000 		.4byte	0
 4716              	.LLST38:
 4717 059d 6A010000 		.4byte	.LVL152
 4718 05a1 76010000 		.4byte	.LVL153
 4719 05a5 0100     		.2byte	0x1
 4720 05a7 50       		.byte	0x50
 4721 05a8 76010000 		.4byte	.LVL153
 4722 05ac 79010000 		.4byte	.LVL154-1
 4723 05b0 0300     		.2byte	0x3
 4724 05b2 73       		.byte	0x73
 4725 05b3 04       		.sleb128 4
 4726 05b4 9F       		.byte	0x9f
 4727 05b5 DA010000 		.4byte	.LVL168
 4728 05b9 E0010000 		.4byte	.LVL169
 4729 05bd 0100     		.2byte	0x1
 4730 05bf 50       		.byte	0x50
 4731 05c0 E0010000 		.4byte	.LVL169
 4732 05c4 E4010000 		.4byte	.LVL170
 4733 05c8 0300     		.2byte	0x3
 4734 05ca 71       		.byte	0x71
 4735 05cb 02       		.sleb128 2
 4736 05cc 9F       		.byte	0x9f
 4737 05cd FC010000 		.4byte	.LVL171
 4738 05d1 08020000 		.4byte	.LVL172
 4739 05d5 0100     		.2byte	0x1
 4740 05d7 50       		.byte	0x50
 4741 05d8 08020000 		.4byte	.LVL172
 4742 05dc 0B020000 		.4byte	.LVL173-1
 4743 05e0 0300     		.2byte	0x3
 4744 05e2 73       		.byte	0x73
 4745 05e3 02       		.sleb128 2
 4746 05e4 9F       		.byte	0x9f
 4747 05e5 00000000 		.4byte	0
 4748 05e9 00000000 		.4byte	0
 4749              	.LLST39:
 4750 05ed 28000000 		.4byte	.LVL106
 4751 05f1 2A000000 		.4byte	.LVL107
 4752 05f5 0100     		.2byte	0x1
 4753 05f7 53       		.byte	0x53
 4754 05f8 00000000 		.4byte	0
 4755 05fc 00000000 		.4byte	0
 4756              	.LLST40:
 4757 0600 2E000000 		.4byte	.LVL108
 4758 0604 35000000 		.4byte	.LVL109-1
 4759 0608 0100     		.2byte	0x1
 4760 060a 53       		.byte	0x53
 4761 060b 00000000 		.4byte	0
 4762 060f 00000000 		.4byte	0
 4763              	.LLST41:
 4764 0613 54000000 		.4byte	.LVL114
 4765 0617 56000000 		.4byte	.LVL115
 4766 061b 0100     		.2byte	0x1
 4767 061d 53       		.byte	0x53
 4768 061e 00000000 		.4byte	0
 4769 0622 00000000 		.4byte	0
ARM GAS  C:\Users\TAISIK~1\AppData\Local\Temp\ccZJTFka.s 			page 85


 4770              	.LLST42:
 4771 0626 5A000000 		.4byte	.LVL116
 4772 062a 5E000000 		.4byte	.LVL117
 4773 062e 0100     		.2byte	0x1
 4774 0630 53       		.byte	0x53
 4775 0631 00000000 		.4byte	0
 4776 0635 00000000 		.4byte	0
 4777              	.LLST43:
 4778 0639 74000000 		.4byte	.LVL120
 4779 063d 7A000000 		.4byte	.LVL121
 4780 0641 0100     		.2byte	0x1
 4781 0643 53       		.byte	0x53
 4782 0644 00000000 		.4byte	0
 4783 0648 00000000 		.4byte	0
 4784              	.LLST44:
 4785 064c 80000000 		.4byte	.LVL123
 4786 0650 82000000 		.4byte	.LVL124
 4787 0654 0100     		.2byte	0x1
 4788 0656 53       		.byte	0x53
 4789 0657 00000000 		.4byte	0
 4790 065b 00000000 		.4byte	0
 4791              	.LLST45:
 4792 065f 86000000 		.4byte	.LVL125
 4793 0663 8F000000 		.4byte	.LVL126-1
 4794 0667 0100     		.2byte	0x1
 4795 0669 53       		.byte	0x53
 4796 066a 00000000 		.4byte	0
 4797 066e 00000000 		.4byte	0
 4798              	.LLST46:
 4799 0672 A8000000 		.4byte	.LVL128
 4800 0676 B1000000 		.4byte	.LVL129-1
 4801 067a 0100     		.2byte	0x1
 4802 067c 53       		.byte	0x53
 4803 067d 00000000 		.4byte	0
 4804 0681 00000000 		.4byte	0
 4805              	.LLST47:
 4806 0685 EE000000 		.4byte	.LVL135
 4807 0689 FD000000 		.4byte	.LVL136-1
 4808 068d 0100     		.2byte	0x1
 4809 068f 53       		.byte	0x53
 4810 0690 00000000 		.4byte	0
 4811 0694 00000000 		.4byte	0
 4812              	.LLST48:
 4813 0698 74000000 		.4byte	.LVL120
 4814 069c 7A000000 		.4byte	.LVL121
 4815 06a0 0100     		.2byte	0x1
 4816 06a2 53       		.byte	0x53
 4817 06a3 06010000 		.4byte	.LVL137
 4818 06a7 08010000 		.4byte	.LVL138
 4819 06ab 0100     		.2byte	0x1
 4820 06ad 53       		.byte	0x53
 4821 06ae 00000000 		.4byte	0
 4822 06b2 00000000 		.4byte	0
 4823              	.LLST49:
 4824 06b6 74000000 		.4byte	.LVL120
 4825 06ba 7A000000 		.4byte	.LVL121
 4826 06be 0100     		.2byte	0x1
ARM GAS  C:\Users\TAISIK~1\AppData\Local\Temp\ccZJTFka.s 			page 86


 4827 06c0 53       		.byte	0x53
 4828 06c1 0E010000 		.4byte	.LVL139
 4829 06c5 10010000 		.4byte	.LVL140
 4830 06c9 0100     		.2byte	0x1
 4831 06cb 53       		.byte	0x53
 4832 06cc 00000000 		.4byte	0
 4833 06d0 00000000 		.4byte	0
 4834              	.LLST50:
 4835 06d4 20010000 		.4byte	.LVL142
 4836 06d8 27010000 		.4byte	.LVL143-1
 4837 06dc 0100     		.2byte	0x1
 4838 06de 53       		.byte	0x53
 4839 06df 00000000 		.4byte	0
 4840 06e3 00000000 		.4byte	0
 4841              	.LLST51:
 4842 06e7 34010000 		.4byte	.LVL145
 4843 06eb 3B010000 		.4byte	.LVL146-1
 4844 06ef 0100     		.2byte	0x1
 4845 06f1 53       		.byte	0x53
 4846 06f2 00000000 		.4byte	0
 4847 06f6 00000000 		.4byte	0
 4848              	.LLST52:
 4849 06fa 5A010000 		.4byte	.LVL151
 4850 06fe 69010000 		.4byte	.LVL152-1
 4851 0702 0100     		.2byte	0x1
 4852 0704 53       		.byte	0x53
 4853 0705 00000000 		.4byte	0
 4854 0709 00000000 		.4byte	0
 4855              	.LLST53:
 4856 070d 88010000 		.4byte	.LVL156
 4857 0711 97010000 		.4byte	.LVL157-1
 4858 0715 0100     		.2byte	0x1
 4859 0717 53       		.byte	0x53
 4860 0718 00000000 		.4byte	0
 4861 071c 00000000 		.4byte	0
 4862              	.LLST54:
 4863 0720 A4010000 		.4byte	.LVL159
 4864 0724 A6010000 		.4byte	.LVL160
 4865 0728 0100     		.2byte	0x1
 4866 072a 53       		.byte	0x53
 4867 072b 00000000 		.4byte	0
 4868 072f 00000000 		.4byte	0
 4869              	.LLST55:
 4870 0733 AA010000 		.4byte	.LVL161
 4871 0737 B1010000 		.4byte	.LVL162-1
 4872 073b 0100     		.2byte	0x1
 4873 073d 53       		.byte	0x53
 4874 073e 00000000 		.4byte	0
 4875 0742 00000000 		.4byte	0
 4876              	.LLST56:
 4877 0746 D0010000 		.4byte	.LVL167
 4878 074a D9010000 		.4byte	.LVL168-1
 4879 074e 0100     		.2byte	0x1
 4880 0750 53       		.byte	0x53
 4881 0751 00000000 		.4byte	0
 4882 0755 00000000 		.4byte	0
 4883              	.LLST57:
ARM GAS  C:\Users\TAISIK~1\AppData\Local\Temp\ccZJTFka.s 			page 87


 4884 0759 1A020000 		.4byte	.LVL175
 4885 075d 29020000 		.4byte	.LVL176-1
 4886 0761 0100     		.2byte	0x1
 4887 0763 53       		.byte	0x53
 4888 0764 00000000 		.4byte	0
 4889 0768 00000000 		.4byte	0
 4890              	.LLST58:
 4891 076c 74000000 		.4byte	.LVL120
 4892 0770 7A000000 		.4byte	.LVL121
 4893 0774 0100     		.2byte	0x1
 4894 0776 53       		.byte	0x53
 4895 0777 34020000 		.4byte	.LVL177
 4896 077b 36020000 		.4byte	.LVL178
 4897 077f 0100     		.2byte	0x1
 4898 0781 53       		.byte	0x53
 4899 0782 00000000 		.4byte	0
 4900 0786 00000000 		.4byte	0
 4901              	.LLST59:
 4902 078a 74000000 		.4byte	.LVL120
 4903 078e 7A000000 		.4byte	.LVL121
 4904 0792 0100     		.2byte	0x1
 4905 0794 53       		.byte	0x53
 4906 0795 3C020000 		.4byte	.LVL179
 4907 0799 3E020000 		.4byte	.LVL180
 4908 079d 0100     		.2byte	0x1
 4909 079f 53       		.byte	0x53
 4910 07a0 00000000 		.4byte	0
 4911 07a4 00000000 		.4byte	0
 4912              	.LLST60:
 4913 07a8 44020000 		.4byte	.LVL182
 4914 07ac 46020000 		.4byte	.LVL183
 4915 07b0 0100     		.2byte	0x1
 4916 07b2 53       		.byte	0x53
 4917 07b3 00000000 		.4byte	0
 4918 07b7 00000000 		.4byte	0
 4919              	.LLST61:
 4920 07bb 4A020000 		.4byte	.LVL184
 4921 07bf 51020000 		.4byte	.LVL185-1
 4922 07c3 0100     		.2byte	0x1
 4923 07c5 53       		.byte	0x53
 4924 07c6 00000000 		.4byte	0
 4925 07ca 00000000 		.4byte	0
 4926              	.LLST62:
 4927 07ce 5E020000 		.4byte	.LVL187
 4928 07d2 60020000 		.4byte	.LVL188
 4929 07d6 0100     		.2byte	0x1
 4930 07d8 53       		.byte	0x53
 4931 07d9 00000000 		.4byte	0
 4932 07dd 00000000 		.4byte	0
 4933              	.LLST63:
 4934 07e1 64020000 		.4byte	.LVL189
 4935 07e5 73020000 		.4byte	.LVL190-1
 4936 07e9 0100     		.2byte	0x1
 4937 07eb 53       		.byte	0x53
 4938 07ec 00000000 		.4byte	0
 4939 07f0 00000000 		.4byte	0
 4940              	.LLST64:
ARM GAS  C:\Users\TAISIK~1\AppData\Local\Temp\ccZJTFka.s 			page 88


 4941 07f4 74000000 		.4byte	.LVL120
 4942 07f8 7A000000 		.4byte	.LVL121
 4943 07fc 0100     		.2byte	0x1
 4944 07fe 53       		.byte	0x53
 4945 07ff 7A020000 		.4byte	.LVL191
 4946 0803 82020000 		.4byte	.LVL192
 4947 0807 0100     		.2byte	0x1
 4948 0809 53       		.byte	0x53
 4949 080a 00000000 		.4byte	0
 4950 080e 00000000 		.4byte	0
 4951              	.LLST65:
 4952 0812 A2020000 		.4byte	.LVL194
 4953 0816 B3020000 		.4byte	.LVL195-1
 4954 081a 0100     		.2byte	0x1
 4955 081c 53       		.byte	0x53
 4956 081d 00000000 		.4byte	0
 4957 0821 00000000 		.4byte	0
 4958              	.LLST66:
 4959 0825 74000000 		.4byte	.LVL120
 4960 0829 7A000000 		.4byte	.LVL121
 4961 082d 0100     		.2byte	0x1
 4962 082f 53       		.byte	0x53
 4963 0830 BE020000 		.4byte	.LVL196
 4964 0834 D8020000 		.4byte	.LVL197
 4965 0838 0100     		.2byte	0x1
 4966 083a 53       		.byte	0x53
 4967 083b 00000000 		.4byte	0
 4968 083f 00000000 		.4byte	0
 4969              	.LLST67:
 4970 0843 DC020000 		.4byte	.LVL198
 4971 0847 DF020000 		.4byte	.LVL199-1
 4972 084b 0100     		.2byte	0x1
 4973 084d 53       		.byte	0x53
 4974 084e 00000000 		.4byte	0
 4975 0852 00000000 		.4byte	0
 4976              		.section	.debug_aranges,"",%progbits
 4977 0000 4C000000 		.4byte	0x4c
 4978 0004 0200     		.2byte	0x2
 4979 0006 00000000 		.4byte	.Ldebug_info0
 4980 000a 04       		.byte	0x4
 4981 000b 00       		.byte	0
 4982 000c 0000     		.2byte	0
 4983 000e 0000     		.2byte	0
 4984 0010 00000000 		.4byte	.LFB7
 4985 0014 02000000 		.4byte	.LFE7-.LFB7
 4986 0018 00000000 		.4byte	.LFB12
 4987 001c 16000000 		.4byte	.LFE12-.LFB12
 4988 0020 00000000 		.4byte	.LFB11
 4989 0024 2C000000 		.4byte	.LFE11-.LFB11
 4990 0028 00000000 		.4byte	.LFB9
 4991 002c 14000000 		.4byte	.LFE9-.LFB9
 4992 0030 00000000 		.4byte	.LFB8
 4993 0034 2C000000 		.4byte	.LFE8-.LFB8
 4994 0038 00000000 		.4byte	.LFB13
 4995 003c D8020000 		.4byte	.LFE13-.LFB13
 4996 0040 00000000 		.4byte	.LFB10
 4997 0044 04030000 		.4byte	.LFE10-.LFB10
ARM GAS  C:\Users\TAISIK~1\AppData\Local\Temp\ccZJTFka.s 			page 89


 4998 0048 00000000 		.4byte	0
 4999 004c 00000000 		.4byte	0
 5000              		.section	.debug_ranges,"",%progbits
 5001              	.Ldebug_ranges0:
 5002 0000 04000000 		.4byte	.LBB96
 5003 0004 06000000 		.4byte	.LBE96
 5004 0008 08000000 		.4byte	.LBB97
 5005 000c 0C000000 		.4byte	.LBE97
 5006 0010 00000000 		.4byte	0
 5007 0014 00000000 		.4byte	0
 5008 0018 26000000 		.4byte	.LBB98
 5009 001c FE000000 		.4byte	.LBE98
 5010 0020 04010000 		.4byte	.LBB135
 5011 0024 46010000 		.4byte	.LBE135
 5012 0028 50010000 		.4byte	.LBB136
 5013 002c B4020000 		.4byte	.LBE136
 5014 0030 BA020000 		.4byte	.LBB137
 5015 0034 D8020000 		.4byte	.LBE137
 5016 0038 00000000 		.4byte	0
 5017 003c 00000000 		.4byte	0
 5018 0040 26000000 		.4byte	.LBB99
 5019 0044 FE000000 		.4byte	.LBE99
 5020 0048 04010000 		.4byte	.LBB132
 5021 004c 46010000 		.4byte	.LBE132
 5022 0050 50010000 		.4byte	.LBB133
 5023 0054 B4020000 		.4byte	.LBE133
 5024 0058 BA020000 		.4byte	.LBB134
 5025 005c D8020000 		.4byte	.LBE134
 5026 0060 00000000 		.4byte	0
 5027 0064 00000000 		.4byte	0
 5028 0068 80000000 		.4byte	.LBB104
 5029 006c 86000000 		.4byte	.LBE104
 5030 0070 98000000 		.4byte	.LBB106
 5031 0074 9E000000 		.4byte	.LBE106
 5032 0078 B0000000 		.4byte	.LBB108
 5033 007c B6000000 		.4byte	.LBE108
 5034 0080 C8000000 		.4byte	.LBB110
 5035 0084 CE000000 		.4byte	.LBE110
 5036 0088 00000000 		.4byte	0
 5037 008c 00000000 		.4byte	0
 5038 0090 8C000000 		.4byte	.LBB105
 5039 0094 92000000 		.4byte	.LBE105
 5040 0098 A4000000 		.4byte	.LBB107
 5041 009c AA000000 		.4byte	.LBE107
 5042 00a0 BC000000 		.4byte	.LBB109
 5043 00a4 C2000000 		.4byte	.LBE109
 5044 00a8 D4000000 		.4byte	.LBB111
 5045 00ac DA000000 		.4byte	.LBE111
 5046 00b0 00000000 		.4byte	0
 5047 00b4 00000000 		.4byte	0
 5048 00b8 C4010000 		.4byte	.LBB122
 5049 00bc C6010000 		.4byte	.LBE122
 5050 00c0 C8010000 		.4byte	.LBB123
 5051 00c4 CC010000 		.4byte	.LBE123
 5052 00c8 00000000 		.4byte	0
 5053 00cc 00000000 		.4byte	0
 5054 00d0 04000000 		.4byte	.LBB174
ARM GAS  C:\Users\TAISIK~1\AppData\Local\Temp\ccZJTFka.s 			page 90


 5055 00d4 06000000 		.4byte	.LBE174
 5056 00d8 08000000 		.4byte	.LBB175
 5057 00dc 0C000000 		.4byte	.LBE175
 5058 00e0 00000000 		.4byte	0
 5059 00e4 00000000 		.4byte	0
 5060 00e8 22000000 		.4byte	.LBB176
 5061 00ec 74000000 		.4byte	.LBE176
 5062 00f0 7A000000 		.4byte	.LBB210
 5063 00f4 F4020000 		.4byte	.LBE210
 5064 00f8 FA020000 		.4byte	.LBB211
 5065 00fc 04030000 		.4byte	.LBE211
 5066 0100 00000000 		.4byte	0
 5067 0104 00000000 		.4byte	0
 5068 0108 22000000 		.4byte	.LBB177
 5069 010c 74000000 		.4byte	.LBE177
 5070 0110 7A000000 		.4byte	.LBB208
 5071 0114 F4020000 		.4byte	.LBE208
 5072 0118 FA020000 		.4byte	.LBB209
 5073 011c 04030000 		.4byte	.LBE209
 5074 0120 00000000 		.4byte	0
 5075 0124 00000000 		.4byte	0
 5076 0128 9A020000 		.4byte	.LBB204
 5077 012c 9C020000 		.4byte	.LBE204
 5078 0130 9E020000 		.4byte	.LBB205
 5079 0134 A2020000 		.4byte	.LBE205
 5080 0138 00000000 		.4byte	0
 5081 013c 00000000 		.4byte	0
 5082 0140 00000000 		.4byte	.LFB7
 5083 0144 02000000 		.4byte	.LFE7
 5084 0148 00000000 		.4byte	.LFB12
 5085 014c 16000000 		.4byte	.LFE12
 5086 0150 00000000 		.4byte	.LFB11
 5087 0154 2C000000 		.4byte	.LFE11
 5088 0158 00000000 		.4byte	.LFB9
 5089 015c 14000000 		.4byte	.LFE9
 5090 0160 00000000 		.4byte	.LFB8
 5091 0164 2C000000 		.4byte	.LFE8
 5092 0168 00000000 		.4byte	.LFB13
 5093 016c D8020000 		.4byte	.LFE13
 5094 0170 00000000 		.4byte	.LFB10
 5095 0174 04030000 		.4byte	.LFE10
 5096 0178 00000000 		.4byte	0
 5097 017c 00000000 		.4byte	0
 5098              		.section	.debug_line,"",%progbits
 5099              	.Ldebug_line0:
 5100 0000 D4020000 		.section	.debug_str,"MS",%progbits,1
 5100      0200BE01 
 5100      00000201 
 5100      FB0E0D00 
 5100      01010101 
 5101              	.LASF39:
 5102 0000 705F6D73 		.ascii	"p_msg\000"
 5102      6700
 5103              	.LASF2:
 5104 0006 73697A65 		.ascii	"size_t\000"
 5104      5F7400
 5105              	.LASF61:
ARM GAS  C:\Users\TAISIK~1\AppData\Local\Temp\ccZJTFka.s 			page 91


 5106 000d 7264796D 		.ascii	"rdymsg\000"
 5106      736700
 5107              	.LASF12:
 5108 0014 75696E74 		.ascii	"uint64_t\000"
 5108      36345F74 
 5108      00
 5109              	.LASF77:
 5110 001d 4F757470 		.ascii	"OutputQueue\000"
 5110      75745175 
 5110      65756500 
 5111              	.LASF95:
 5112 0029 70617474 		.ascii	"patternqueues\000"
 5112      65726E71 
 5112      75657565 
 5112      7300
 5113              	.LASF96:
 5114 0037 474E5520 		.ascii	"GNU C 4.6.2 20121016 (release) [ARM/embedded-4_6-br"
 5114      4320342E 
 5114      362E3220 
 5114      32303132 
 5114      31303136 
 5115 006a 616E6368 		.ascii	"anch revision 192487]\000"
 5115      20726576 
 5115      6973696F 
 5115      6E203139 
 5115      32343837 
 5116              	.LASF13:
 5117 0080 6C6F6E67 		.ascii	"long long unsigned int\000"
 5117      206C6F6E 
 5117      6720756E 
 5117      7369676E 
 5117      65642069 
 5118              	.LASF62:
 5119 0097 65786974 		.ascii	"exitcode\000"
 5119      636F6465 
 5119      00
 5120              	.LASF88:
 5121 00a0 71756575 		.ascii	"queues2_setup\000"
 5121      6573325F 
 5121      73657475 
 5121      7000
 5122              	.LASF92:
 5123 00ae 74657374 		.ascii	"test\000"
 5123      00
 5124              	.LASF27:
 5125 00b3 705F7072 		.ascii	"p_prio\000"
 5125      696F00
 5126              	.LASF98:
 5127 00ba 433A5C43 		.ascii	"C:\\ChibiStudio\\chibios\\demos\\ARMCM4-STM32F303-D"
 5127      68696269 
 5127      53747564 
 5127      696F5C63 
 5127      68696269 
 5128 00e9 4953434F 		.ascii	"ISCOVERY\000"
 5128      56455259 
 5128      00
 5129              	.LASF67:
ARM GAS  C:\Users\TAISIK~1\AppData\Local\Temp\ccZJTFka.s 			page 92


 5130 00f2 715F7761 		.ascii	"q_waiting\000"
 5130      6974696E 
 5130      6700
 5131              	.LASF11:
 5132 00fc 6C6F6E67 		.ascii	"long long int\000"
 5132      206C6F6E 
 5132      6720696E 
 5132      7400
 5133              	.LASF1:
 5134 010a 7369676E 		.ascii	"signed char\000"
 5134      65642063 
 5134      68617200 
 5135              	.LASF43:
 5136 0116 705F6D70 		.ascii	"p_mpool\000"
 5136      6F6F6C00 
 5137              	.LASF14:
 5138 011e 626F6F6C 		.ascii	"bool_t\000"
 5138      5F7400
 5139              	.LASF58:
 5140 0125 6D5F7175 		.ascii	"m_queue\000"
 5140      65756500 
 5141              	.LASF19:
 5142 012d 74736C69 		.ascii	"tslices_t\000"
 5142      6365735F 
 5142      7400
 5143              	.LASF8:
 5144 0137 6C6F6E67 		.ascii	"long int\000"
 5144      20696E74 
 5144      00
 5145              	.LASF17:
 5146 0140 74737461 		.ascii	"tstate_t\000"
 5146      74655F74 
 5146      00
 5147              	.LASF69:
 5148 0149 715F6275 		.ascii	"q_buffer\000"
 5148      66666572 
 5148      00
 5149              	.LASF71:
 5150 0152 715F7772 		.ascii	"q_wrptr\000"
 5150      70747200 
 5151              	.LASF29:
 5152 015a 705F6E65 		.ascii	"p_newer\000"
 5152      77657200 
 5153              	.LASF53:
 5154 0162 725F6E65 		.ascii	"r_newer\000"
 5154      77657200 
 5155              	.LASF46:
 5156 016a 72656761 		.ascii	"regarm_t\000"
 5156      726D5F74 
 5156      00
 5157              	.LASF0:
 5158 0173 756E7369 		.ascii	"unsigned int\000"
 5158      676E6564 
 5158      20696E74 
 5158      00
 5159              	.LASF10:
 5160 0180 6C6F6E67 		.ascii	"long unsigned int\000"
ARM GAS  C:\Users\TAISIK~1\AppData\Local\Temp\ccZJTFka.s 			page 93


 5160      20756E73 
 5160      69676E65 
 5160      6420696E 
 5160      7400
 5161              	.LASF81:
 5162 0192 74656172 		.ascii	"teardown\000"
 5162      646F776E 
 5162      00
 5163              	.LASF79:
 5164 019b 6E616D65 		.ascii	"name\000"
 5164      00
 5165              	.LASF49:
 5166 01a0 636F6E74 		.ascii	"context\000"
 5166      65787400 
 5167              	.LASF6:
 5168 01a8 73686F72 		.ascii	"short unsigned int\000"
 5168      7420756E 
 5168      7369676E 
 5168      65642069 
 5168      6E7400
 5169              	.LASF85:
 5170 01bb 71756575 		.ascii	"queues1_execute\000"
 5170      6573315F 
 5170      65786563 
 5170      75746500 
 5171              	.LASF93:
 5172 01cb 74657374 		.ascii	"testqueues1\000"
 5172      71756575 
 5172      65733100 
 5173              	.LASF21:
 5174 01d7 6D73675F 		.ascii	"msg_t\000"
 5174      7400
 5175              	.LASF16:
 5176 01dd 746D6F64 		.ascii	"tmode_t\000"
 5176      655F7400 
 5177              	.LASF45:
 5178 01e5 54687265 		.ascii	"ThreadsList\000"
 5178      6164734C 
 5178      69737400 
 5179              	.LASF22:
 5180 01f1 6576656E 		.ascii	"eventmask_t\000"
 5180      746D6173 
 5180      6B5F7400 
 5181              	.LASF76:
 5182 01fd 496E7075 		.ascii	"InputQueue\000"
 5182      74517565 
 5182      756500
 5183              	.LASF57:
 5184 0208 4D757465 		.ascii	"Mutex\000"
 5184      7800
 5185              	.LASF66:
 5186 020e 47656E65 		.ascii	"GenericQueue\000"
 5186      72696351 
 5186      75657565 
 5186      00
 5187              	.LASF47:
 5188 021b 73746B61 		.ascii	"stkalign_t\000"
ARM GAS  C:\Users\TAISIK~1\AppData\Local\Temp\ccZJTFka.s 			page 94


 5188      6C69676E 
 5188      5F7400
 5189              	.LASF100:
 5190 0226 6E6F7469 		.ascii	"notify\000"
 5190      667900
 5191              	.LASF84:
 5192 022d 71756575 		.ascii	"queues2_execute\000"
 5192      6573325F 
 5192      65786563 
 5192      75746500 
 5193              	.LASF68:
 5194 023d 715F636F 		.ascii	"q_counter\000"
 5194      756E7465 
 5194      7200
 5195              	.LASF94:
 5196 0247 74657374 		.ascii	"testqueues2\000"
 5196      71756575 
 5196      65733200 
 5197              	.LASF30:
 5198 0253 705F6F6C 		.ascii	"p_older\000"
 5198      64657200 
 5199              	.LASF87:
 5200 025b 74687265 		.ascii	"thread1\000"
 5200      61643100 
 5201              	.LASF86:
 5202 0263 74687265 		.ascii	"thread2\000"
 5202      61643200 
 5203              	.LASF52:
 5204 026b 725F6374 		.ascii	"r_ctx\000"
 5204      7800
 5205              	.LASF44:
 5206 0271 54687265 		.ascii	"ThreadsQueue\000"
 5206      61647351 
 5206      75657565 
 5206      00
 5207              	.LASF80:
 5208 027e 73657475 		.ascii	"setup\000"
 5208      7000
 5209              	.LASF55:
 5210 0284 725F6375 		.ascii	"r_current\000"
 5210      7272656E 
 5210      7400
 5211              	.LASF54:
 5212 028e 725F6F6C 		.ascii	"r_older\000"
 5212      64657200 
 5213              	.LASF89:
 5214 0296 71756575 		.ascii	"queues1_setup\000"
 5214      6573315F 
 5214      73657475 
 5214      7000
 5215              	.LASF18:
 5216 02a4 74726566 		.ascii	"trefs_t\000"
 5216      735F7400 
 5217              	.LASF75:
 5218 02ac 716E6F74 		.ascii	"qnotify_t\000"
 5218      6966795F 
 5218      7400
ARM GAS  C:\Users\TAISIK~1\AppData\Local\Temp\ccZJTFka.s 			page 95


 5219              	.LASF26:
 5220 02b6 705F7072 		.ascii	"p_prev\000"
 5220      657600
 5221              	.LASF82:
 5222 02bd 65786563 		.ascii	"execute\000"
 5222      75746500 
 5223              	.LASF20:
 5224 02c5 74707269 		.ascii	"tprio_t\000"
 5224      6F5F7400 
 5225              	.LASF72:
 5226 02cd 715F7264 		.ascii	"q_rdptr\000"
 5226      70747200 
 5227              	.LASF15:
 5228 02d5 5F426F6F 		.ascii	"_Bool\000"
 5228      6C00
 5229              	.LASF7:
 5230 02db 696E7433 		.ascii	"int32_t\000"
 5230      325F7400 
 5231              	.LASF4:
 5232 02e3 756E7369 		.ascii	"unsigned char\000"
 5232      676E6564 
 5232      20636861 
 5232      7200
 5233              	.LASF97:
 5234 02f1 2E2E2F2E 		.ascii	"../../test/testqueues.c\000"
 5234      2E2F7465 
 5234      73742F74 
 5234      65737471 
 5234      75657565 
 5235              	.LASF41:
 5236 0309 705F6D74 		.ascii	"p_mtxlist\000"
 5236      786C6973 
 5236      7400
 5237              	.LASF5:
 5238 0313 73686F72 		.ascii	"short int\000"
 5238      7420696E 
 5238      7400
 5239              	.LASF32:
 5240 031d 705F7374 		.ascii	"p_state\000"
 5240      61746500 
 5241              	.LASF35:
 5242 0325 705F7072 		.ascii	"p_preempt\000"
 5242      65656D70 
 5242      7400
 5243              	.LASF91:
 5244 032f 74687265 		.ascii	"threads\000"
 5244      61647300 
 5245              	.LASF51:
 5246 0337 725F7072 		.ascii	"r_prio\000"
 5246      696F00
 5247              	.LASF64:
 5248 033e 65776D61 		.ascii	"ewmask\000"
 5248      736B00
 5249              	.LASF25:
 5250 0345 705F6E65 		.ascii	"p_next\000"
 5250      787400
 5251              	.LASF33:
ARM GAS  C:\Users\TAISIK~1\AppData\Local\Temp\ccZJTFka.s 			page 96


 5252 034c 705F666C 		.ascii	"p_flags\000"
 5252      61677300 
 5253              	.LASF24:
 5254 0354 54687265 		.ascii	"Thread\000"
 5254      616400
 5255              	.LASF78:
 5256 035b 74657374 		.ascii	"testcase\000"
 5256      63617365 
 5256      00
 5257              	.LASF40:
 5258 0364 705F6570 		.ascii	"p_epending\000"
 5258      656E6469 
 5258      6E6700
 5259              	.LASF9:
 5260 036f 75696E74 		.ascii	"uint32_t\000"
 5260      33325F74 
 5260      00
 5261              	.LASF50:
 5262 0378 725F7175 		.ascii	"r_queue\000"
 5262      65756500 
 5263              	.LASF65:
 5264 0380 63686172 		.ascii	"char\000"
 5264      00
 5265              	.LASF99:
 5266 0385 74657374 		.ascii	"test_buffers\000"
 5266      5F627566 
 5266      66657273 
 5266      00
 5267              	.LASF60:
 5268 0392 6D5F6E65 		.ascii	"m_next\000"
 5268      787400
 5269              	.LASF23:
 5270 0399 73797374 		.ascii	"systime_t\000"
 5270      696D655F 
 5270      7400
 5271              	.LASF42:
 5272 03a3 705F7265 		.ascii	"p_realprio\000"
 5272      616C7072 
 5272      696F00
 5273              	.LASF83:
 5274 03ae 62756666 		.ascii	"buffer\000"
 5274      657200
 5275              	.LASF36:
 5276 03b5 705F7469 		.ascii	"p_time\000"
 5276      6D6500
 5277              	.LASF48:
 5278 03bc 696E7463 		.ascii	"intctx\000"
 5278      747800
 5279              	.LASF38:
 5280 03c3 705F6D73 		.ascii	"p_msgqueue\000"
 5280      67717565 
 5280      756500
 5281              	.LASF70:
 5282 03ce 715F746F 		.ascii	"q_top\000"
 5282      7000
 5283              	.LASF34:
 5284 03d4 705F7265 		.ascii	"p_refs\000"
ARM GAS  C:\Users\TAISIK~1\AppData\Local\Temp\ccZJTFka.s 			page 97


 5284      667300
 5285              	.LASF56:
 5286 03db 52656164 		.ascii	"ReadyList\000"
 5286      794C6973 
 5286      7400
 5287              	.LASF73:
 5288 03e5 715F6E6F 		.ascii	"q_notify\000"
 5288      74696679 
 5288      00
 5289              	.LASF90:
 5290 03ee 726C6973 		.ascii	"rlist\000"
 5290      7400
 5291              	.LASF3:
 5292 03f4 75696E74 		.ascii	"uint8_t\000"
 5292      385F7400 
 5293              	.LASF63:
 5294 03fc 77746F62 		.ascii	"wtobjp\000"
 5294      6A7000
 5295              	.LASF31:
 5296 0403 705F6E61 		.ascii	"p_name\000"
 5296      6D6500
 5297              	.LASF74:
 5298 040a 715F6C69 		.ascii	"q_link\000"
 5298      6E6B00
 5299              	.LASF59:
 5300 0411 6D5F6F77 		.ascii	"m_owner\000"
 5300      6E657200 
 5301              	.LASF28:
 5302 0419 705F6374 		.ascii	"p_ctx\000"
 5302      7800
 5303              	.LASF37:
 5304 041f 705F7761 		.ascii	"p_waiting\000"
 5304      6974696E 
 5304      6700
 5305              		.ident	"GCC: (GNU Tools for ARM Embedded Processors) 4.6.2 20121016 (release) [ARM/embedded-4_6-br
ARM GAS  C:\Users\TAISIK~1\AppData\Local\Temp\ccZJTFka.s 			page 98


DEFINED SYMBOLS
                            *ABS*:00000000 testqueues.c
C:\Users\TAISIK~1\AppData\Local\Temp\ccZJTFka.s:19     .text.notify:00000000 $t
C:\Users\TAISIK~1\AppData\Local\Temp\ccZJTFka.s:24     .text.notify:00000000 notify
C:\Users\TAISIK~1\AppData\Local\Temp\ccZJTFka.s:39     .text.thread2:00000000 $t
C:\Users\TAISIK~1\AppData\Local\Temp\ccZJTFka.s:44     .text.thread2:00000000 thread2
C:\Users\TAISIK~1\AppData\Local\Temp\ccZJTFka.s:1480   .data.oq:00000000 .LANCHOR0
C:\Users\TAISIK~1\AppData\Local\Temp\ccZJTFka.s:72     .text.queues2_setup:00000000 $t
C:\Users\TAISIK~1\AppData\Local\Temp\ccZJTFka.s:77     .text.queues2_setup:00000000 queues2_setup
C:\Users\TAISIK~1\AppData\Local\Temp\ccZJTFka.s:111    .text.thread1:00000000 $t
C:\Users\TAISIK~1\AppData\Local\Temp\ccZJTFka.s:116    .text.thread1:00000000 thread1
C:\Users\TAISIK~1\AppData\Local\Temp\ccZJTFka.s:1495   .data.iq:00000000 .LANCHOR1
C:\Users\TAISIK~1\AppData\Local\Temp\ccZJTFka.s:143    .text.queues1_setup:00000000 $t
C:\Users\TAISIK~1\AppData\Local\Temp\ccZJTFka.s:148    .text.queues1_setup:00000000 queues1_setup
C:\Users\TAISIK~1\AppData\Local\Temp\ccZJTFka.s:182    .text.queues2_execute:00000000 $t
C:\Users\TAISIK~1\AppData\Local\Temp\ccZJTFka.s:187    .text.queues2_execute:00000000 queues2_execute
C:\Users\TAISIK~1\AppData\Local\Temp\ccZJTFka.s:799    .text.queues2_execute:000002c0 $d
C:\Users\TAISIK~1\AppData\Local\Temp\ccZJTFka.s:811    .text.queues1_execute:00000000 $t
C:\Users\TAISIK~1\AppData\Local\Temp\ccZJTFka.s:816    .text.queues1_execute:00000000 queues1_execute
C:\Users\TAISIK~1\AppData\Local\Temp\ccZJTFka.s:1394   .text.queues1_execute:000002c0 $d
C:\Users\TAISIK~1\AppData\Local\Temp\ccZJTFka.s:1405   .text.queues1_execute:000002d8 $t
C:\Users\TAISIK~1\AppData\Local\Temp\ccZJTFka.s:1433   .text.queues1_execute:00000300 $d
C:\Users\TAISIK~1\AppData\Local\Temp\ccZJTFka.s:1474   .rodata.patternqueues:00000000 patternqueues
C:\Users\TAISIK~1\AppData\Local\Temp\ccZJTFka.s:1455   .rodata.testqueues2:00000000 testqueues2
C:\Users\TAISIK~1\AppData\Local\Temp\ccZJTFka.s:1446   .rodata.testqueues1:00000000 testqueues1
C:\Users\TAISIK~1\AppData\Local\Temp\ccZJTFka.s:1443   .rodata.testqueues1:00000000 $d
C:\Users\TAISIK~1\AppData\Local\Temp\ccZJTFka.s:1452   .rodata.testqueues2:00000000 $d
C:\Users\TAISIK~1\AppData\Local\Temp\ccZJTFka.s:1461   .rodata.str1.4:00000000 $d
C:\Users\TAISIK~1\AppData\Local\Temp\ccZJTFka.s:1471   .rodata.patternqueues:00000000 $d
C:\Users\TAISIK~1\AppData\Local\Temp\ccZJTFka.s:1479   .data.oq:00000000 $d
C:\Users\TAISIK~1\AppData\Local\Temp\ccZJTFka.s:1483   .data.oq:00000000 oq
C:\Users\TAISIK~1\AppData\Local\Temp\ccZJTFka.s:1494   .data.iq:00000000 $d
C:\Users\TAISIK~1\AppData\Local\Temp\ccZJTFka.s:1498   .data.iq:00000000 iq
                     .debug_frame:00000010 $d
C:\Users\TAISIK~1\AppData\Local\Temp\ccZJTFka.s:810    .text.queues2_execute:000002d8 $t
C:\Users\TAISIK~1\AppData\Local\Temp\ccZJTFka.s:1442   .text.queues1_execute:00000304 $t

UNDEFINED SYMBOLS
chOQPutTimeout
wa
chOQInit
chIQGetTimeout
chIQInit
_test_assert
chOQGetI
test_emit_token
_test_assert_sequence
chOQWriteTimeout
chThdCreateStatic
test_wait_threads
chOQResetI
rlist
threads
chIQPutI
chIQReadTimeout
chIQResetI
test
ARM GAS  C:\Users\TAISIK~1\AppData\Local\Temp\ccZJTFka.s 			page 99


