GAS LISTING C:\cygwin\tmp\ccewKIPh.s 			page 1


   1              		.file	"chdynamic.c"
   2              	 # GNU C (GCC) version 4.6.2 (mingw32)
   3              	 #	compiled by GNU C version 4.6.2, GMP version 5.0.1, MPFR version 2.4.1, MPC version 0.8.1
   4              	 # GGC heuristics: --param ggc-min-expand=100 --param ggc-min-heapsize=131072
   5              	 # options passed:  -I . -I ../../os/ports/GCC/SIMIA32
   6              	 # -I ../../os/kernel/include -I ../../test -I ../../os/hal/include
   7              	 # -I ../../os/hal/platforms/Win32 -I ../../boards/simulator
   8              	 # -I ../../os/various -iprefix c:\mingw\bin\../lib/gcc/mingw32/4.6.2/
   9              	 # -MD ../../os/kernel/src/chdynamic.d -MF .dep/chdynamic.o.d -MP
  10              	 # -MQ ../../os/kernel/src/chdynamic.o -D SIMULATOR
  11              	 # ../../os/kernel/src/chdynamic.c -mtune=i386 -march=i386
  12              	 # -auxbase-strip ../../os/kernel/src/chdynamic.o -ggdb -O0 -Wall -Wextra
  13              	 # -Wstrict-prototypes -fomit-frame-pointer -fprofile-arcs -ftest-coverage
  14              	 # -fverbose-asm
  15              	 # options enabled:  -fasynchronous-unwind-tables -fauto-inc-dec
  16              	 # -fbranch-count-reg -fcommon -fdelete-null-pointer-checks
  17              	 # -fdwarf2-cfi-asm -fearly-inlining -feliminate-unused-debug-types
  18              	 # -ffunction-cse -fgcse-lm -fident -finline-functions-called-once
  19              	 # -fira-share-save-slots -fira-share-spill-slots -fivopts
  20              	 # -fkeep-inline-dllexport -fkeep-static-consts -fleading-underscore
  21              	 # -fmath-errno -fmerge-debug-strings -fmove-loop-invariants
  22              	 # -fomit-frame-pointer -fpeephole -fprefetch-loop-arrays -fprofile-arcs
  23              	 # -freg-struct-return -fsched-critical-path-heuristic
  24              	 # -fsched-dep-count-heuristic -fsched-group-heuristic -fsched-interblock
  25              	 # -fsched-last-insn-heuristic -fsched-rank-heuristic -fsched-spec
  26              	 # -fsched-spec-insn-heuristic -fsched-stalled-insns-dep
  27              	 # -fset-stack-executable -fshow-column -fsigned-zeros
  28              	 # -fsplit-ivs-in-unroller -fstrict-volatile-bitfields -ftest-coverage
  29              	 # -ftrapping-math -ftree-cselim -ftree-forwprop -ftree-loop-if-convert
  30              	 # -ftree-loop-im -ftree-loop-ivcanon -ftree-loop-optimize
  31              	 # -ftree-parallelize-loops= -ftree-phiprop -ftree-pta -ftree-reassoc
  32              	 # -ftree-scev-cprop -ftree-slp-vectorize -ftree-vect-loop-version
  33              	 # -funit-at-a-time -funwind-tables -fvect-cost-model -fverbose-asm
  34              	 # -fzero-initialized-in-bss -m32 -m80387 -m96bit-long-double
  35              	 # -maccumulate-outgoing-args -malign-double -malign-stringops
  36              	 # -mfancy-math-387 -mfp-ret-in-387 -mieee-fp -mno-red-zone -mno-sse4
  37              	 # -mpush-args -msahf -mstack-arg-probe
  38              	
  39              		.text
  40              	Ltext0:
  41              	 # Compiler executable checksum: c20aed7c018482d7b62efcd5dcab2a9d
  42              	
  43              		.globl	_chThdAddRef
  44              		.def	_chThdAddRef;	.scl	2;	.type	32;	.endef
  45              	_chThdAddRef:
  46              	LFB0:
  47              		.file 1 "../../os/kernel/src/chdynamic.c"
  48              		.loc 1 45 0
  49              		.cfi_startproc
  50 0000 83EC04   		subl	$4, %esp	 #,
  51              	LCFI0:
  52              		.cfi_def_cfa_offset 8
  53              		.loc 1 45 0
  54 0003 A1D80000 		movl	LPBX1+216, %eax	 # *LPBX1, PROF_edge_counter.3
  54      00
  55 0008 8B15DC00 		movl	LPBX1+220, %edx	 # *LPBX1, PROF_edge_counter.3
  55      0000
GAS LISTING C:\cygwin\tmp\ccewKIPh.s 			page 2


  56 000e 83C001   		addl	$1, %eax	 #, PROF_edge_counter.3
  57 0011 83D200   		adcl	$0, %edx	 #, PROF_edge_counter.3
  58 0014 A3D80000 		movl	%eax, LPBX1+216	 # PROF_edge_counter.3, *LPBX1
  58      00
  59 0019 8915DC00 		movl	%edx, LPBX1+220	 # PROF_edge_counter.3, *LPBX1
  59      0000
  60              		.loc 1 47 0
  61              	/APP
  62              	 # 47 "../../os/kernel/src/chdynamic.c" 1
  63 001f 90       		nop
  64              	 # 0 "" 2
  65              	/NO_APP
  66 0020 A1E00000 		movl	LPBX1+224, %eax	 # *LPBX1, PROF_edge_counter.3
  66      00
  67 0025 8B15E400 		movl	LPBX1+228, %edx	 # *LPBX1, PROF_edge_counter.3
  67      0000
  68 002b 83C001   		addl	$1, %eax	 #, PROF_edge_counter.3
  69 002e 83D200   		adcl	$0, %edx	 #, PROF_edge_counter.3
  70 0031 A3E00000 		movl	%eax, LPBX1+224	 # PROF_edge_counter.3, *LPBX1
  70      00
  71 0036 8915E400 		movl	%edx, LPBX1+228	 # PROF_edge_counter.3, *LPBX1
  71      0000
  72              		.loc 1 49 0
  73 003c 8B442408 		movl	8(%esp), %eax	 # tp, tmp71
  74 0040 8A401E   		movb	30(%eax), %al	 # tp_1(D)->p_refs, D.2788
  75 0043 8D5001   		leal	1(%eax), %edx	 #, D.2789
  76 0046 8B442408 		movl	8(%esp), %eax	 # tp, tmp72
  77 004a 88501E   		movb	%dl, 30(%eax)	 # D.2789, tp_1(D)->p_refs
  78              		.loc 1 50 0
  79              	/APP
  80              	 # 50 "../../os/kernel/src/chdynamic.c" 1
  81 004d 90       		nop
  82              	 # 0 "" 2
  83              	/NO_APP
  84 004e A1E80000 		movl	LPBX1+232, %eax	 # *LPBX1, PROF_edge_counter.3
  84      00
  85 0053 8B15EC00 		movl	LPBX1+236, %edx	 # *LPBX1, PROF_edge_counter.3
  85      0000
  86 0059 83C001   		addl	$1, %eax	 #, PROF_edge_counter.3
  87 005c 83D200   		adcl	$0, %edx	 #, PROF_edge_counter.3
  88 005f A3E80000 		movl	%eax, LPBX1+232	 # PROF_edge_counter.3, *LPBX1
  88      00
  89 0064 8915EC00 		movl	%edx, LPBX1+236	 # PROF_edge_counter.3, *LPBX1
  89      0000
  90              		.loc 1 51 0
  91 006a 8B442408 		movl	8(%esp), %eax	 # tp, D.2790
  92              		.loc 1 52 0
  93 006e 83C404   		addl	$4, %esp	 #,
  94              	LCFI1:
  95              		.cfi_def_cfa_offset 4
  96 0071 C3       		ret
  97              		.cfi_endproc
  98              	LFE0:
  99              		.globl	_chThdRelease
 100              		.def	_chThdRelease;	.scl	2;	.type	32;	.endef
 101              	_chThdRelease:
 102              	LFB1:
GAS LISTING C:\cygwin\tmp\ccewKIPh.s 			page 3


 103              		.loc 1 67 0
 104              		.cfi_startproc
 105 0072 83EC2C   		subl	$44, %esp	 #,
 106              	LCFI2:
 107              		.cfi_def_cfa_offset 48
 108              		.loc 1 67 0
 109 0075 A1900000 		movl	LPBX1+144, %eax	 # *LPBX1, PROF_edge_counter.2
 109      00
 110 007a 8B159400 		movl	LPBX1+148, %edx	 # *LPBX1, PROF_edge_counter.2
 110      0000
 111 0080 83C001   		addl	$1, %eax	 #, PROF_edge_counter.2
 112 0083 83D200   		adcl	$0, %edx	 #, PROF_edge_counter.2
 113 0086 A3900000 		movl	%eax, LPBX1+144	 # PROF_edge_counter.2, *LPBX1
 113      00
 114 008b 89159400 		movl	%edx, LPBX1+148	 # PROF_edge_counter.2, *LPBX1
 114      0000
 115              		.loc 1 70 0
 116              	/APP
 117              	 # 70 "../../os/kernel/src/chdynamic.c" 1
 118 0091 90       		nop
 119              	 # 0 "" 2
 120              	/NO_APP
 121 0092 A1980000 		movl	LPBX1+152, %eax	 # *LPBX1, PROF_edge_counter.2
 121      00
 122 0097 8B159C00 		movl	LPBX1+156, %edx	 # *LPBX1, PROF_edge_counter.2
 122      0000
 123 009d 83C001   		addl	$1, %eax	 #, PROF_edge_counter.2
 124 00a0 83D200   		adcl	$0, %edx	 #, PROF_edge_counter.2
 125 00a3 A3980000 		movl	%eax, LPBX1+152	 # PROF_edge_counter.2, *LPBX1
 125      00
 126 00a8 89159C00 		movl	%edx, LPBX1+156	 # PROF_edge_counter.2, *LPBX1
 126      0000
 127              		.loc 1 72 0
 128 00ae 8B442430 		movl	48(%esp), %eax	 # tp, tmp94
 129 00b2 8A401E   		movb	30(%eax), %al	 # tp_1(D)->p_refs, D.2764
 130 00b5 8D50FF   		leal	-1(%eax), %edx	 #, D.2765
 131 00b8 8B442430 		movl	48(%esp), %eax	 # tp, tmp95
 132 00bc 88501E   		movb	%dl, 30(%eax)	 # D.2765, tp_1(D)->p_refs
 133 00bf 8B442430 		movl	48(%esp), %eax	 # tp, tmp96
 134 00c3 8A401E   		movb	30(%eax), %al	 # tp_1(D)->p_refs, tmp97
 135 00c6 8844241F 		movb	%al, 31(%esp)	 # tmp97, refs
 136              		.loc 1 73 0
 137              	/APP
 138              	 # 73 "../../os/kernel/src/chdynamic.c" 1
 139 00ca 90       		nop
 140              	 # 0 "" 2
 141              	/NO_APP
 142 00cb A1A00000 		movl	LPBX1+160, %eax	 # *LPBX1, PROF_edge_counter.2
 142      00
 143 00d0 8B15A400 		movl	LPBX1+164, %edx	 # *LPBX1, PROF_edge_counter.2
 143      0000
 144 00d6 83C001   		addl	$1, %eax	 #, PROF_edge_counter.2
 145 00d9 83D200   		adcl	$0, %edx	 #, PROF_edge_counter.2
 146 00dc A3A00000 		movl	%eax, LPBX1+160	 # PROF_edge_counter.2, *LPBX1
 146      00
 147 00e1 8915A400 		movl	%edx, LPBX1+164	 # PROF_edge_counter.2, *LPBX1
 147      0000
GAS LISTING C:\cygwin\tmp\ccewKIPh.s 			page 4


 148              		.loc 1 78 0
 149 00e7 807C241F 		cmpb	$0, 31(%esp)	 #, refs
 149      00
 150 00ec 0F853C01 		jne	L2	 #,
 150      0000
 151              		.loc 1 78 0 is_stmt 0 discriminator 1
 152 00f2 A1A80000 		movl	LPBX1+168, %eax	 # *LPBX1, PROF_edge_counter.2
 152      00
 153 00f7 8B15AC00 		movl	LPBX1+172, %edx	 # *LPBX1, PROF_edge_counter.2
 153      0000
 154 00fd 83C001   		addl	$1, %eax	 #, PROF_edge_counter.2
 155 0100 83D200   		adcl	$0, %edx	 #, PROF_edge_counter.2
 156 0103 A3A80000 		movl	%eax, LPBX1+168	 # PROF_edge_counter.2, *LPBX1
 156      00
 157 0108 8915AC00 		movl	%edx, LPBX1+172	 # PROF_edge_counter.2, *LPBX1
 157      0000
 158 010e 8B442430 		movl	48(%esp), %eax	 # tp, tmp98
 159 0112 8A401C   		movb	28(%eax), %al	 # tp_1(D)->p_state, D.2768
 160 0115 3C0E     		cmpb	$14, %al	 #, D.2768
 161 0117 0F851101 		jne	L2	 #,
 161      0000
 162              		.loc 1 78 0
 163 011d A1B00000 		movl	LPBX1+176, %eax	 # *LPBX1, PROF_edge_counter.2
 163      00
 164 0122 8B15B400 		movl	LPBX1+180, %edx	 # *LPBX1, PROF_edge_counter.2
 164      0000
 165 0128 83C001   		addl	$1, %eax	 #, PROF_edge_counter.2
 166 012b 83D200   		adcl	$0, %edx	 #, PROF_edge_counter.2
 167 012e A3B00000 		movl	%eax, LPBX1+176	 # PROF_edge_counter.2, *LPBX1
 167      00
 168 0133 8915B400 		movl	%edx, LPBX1+180	 # PROF_edge_counter.2, *LPBX1
 168      0000
 169              		.loc 1 79 0 is_stmt 1
 170 0139 8B442430 		movl	48(%esp), %eax	 # tp, tmp99
 171 013d 8A401D   		movb	29(%eax), %al	 # tp_1(D)->p_flags, D.2771
 172 0140 0FB6C0   		movzbl	%al, %eax	 # D.2771, D.2772
 173 0143 83E003   		andl	$3, %eax	 #, D.2773
 174 0146 83F801   		cmpl	$1, %eax	 #, D.2773
 175 0149 740A     		je	L4	 #,
 176 014b 83F802   		cmpl	$2, %eax	 #, D.2773
 177 014e 746D     		je	L5	 #,
 178 0150 E9D90000 		jmp	L2	 #
 178      00
 179              	L4:
 180 0155 A1B80000 		movl	LPBX1+184, %eax	 # *LPBX1, PROF_edge_counter.2
 180      00
 181 015a 8B15BC00 		movl	LPBX1+188, %edx	 # *LPBX1, PROF_edge_counter.2
 181      0000
 182 0160 83C001   		addl	$1, %eax	 #, PROF_edge_counter.2
 183 0163 83D200   		adcl	$0, %edx	 #, PROF_edge_counter.2
 184 0166 A3B80000 		movl	%eax, LPBX1+184	 # PROF_edge_counter.2, *LPBX1
 184      00
 185 016b 8915BC00 		movl	%edx, LPBX1+188	 # PROF_edge_counter.2, *LPBX1
 185      0000
 186              		.loc 1 83 0
 187 0171 8B442430 		movl	48(%esp), %eax	 # tp, tmp100
 188 0175 8B4014   		movl	20(%eax), %eax	 # tp_1(D)->p_older, D.2774
GAS LISTING C:\cygwin\tmp\ccewKIPh.s 			page 5


 189 0178 8B542430 		movl	48(%esp), %edx	 # tp, tmp101
 190 017c 8B5210   		movl	16(%edx), %edx	 # tp_1(D)->p_newer, D.2775
 191 017f 895010   		movl	%edx, 16(%eax)	 # D.2775, D.2774_10->p_newer
 192 0182 8B442430 		movl	48(%esp), %eax	 # tp, tmp102
 193 0186 8B4010   		movl	16(%eax), %eax	 # tp_1(D)->p_newer, D.2776
 194 0189 8B542430 		movl	48(%esp), %edx	 # tp, tmp103
 195 018d 8B5214   		movl	20(%edx), %edx	 # tp_1(D)->p_older, D.2777
 196 0190 895014   		movl	%edx, 20(%eax)	 # D.2777, D.2776_12->p_older
 197              		.loc 1 85 0
 198 0193 8B442430 		movl	48(%esp), %eax	 # tp, tmp104
 199 0197 890424   		movl	%eax, (%esp)	 # tmp104,
 200 019a E8000000 		call	_chHeapFree	 #
 200      00
 201              		.loc 1 86 0
 202 019f A1C80000 		movl	LPBX1+200, %eax	 # *LPBX1, PROF_edge_counter.2
 202      00
 203 01a4 8B15CC00 		movl	LPBX1+204, %edx	 # *LPBX1, PROF_edge_counter.2
 203      0000
 204 01aa 83C001   		addl	$1, %eax	 #, PROF_edge_counter.2
 205 01ad 83D200   		adcl	$0, %edx	 #, PROF_edge_counter.2
 206 01b0 A3C80000 		movl	%eax, LPBX1+200	 # PROF_edge_counter.2, *LPBX1
 206      00
 207 01b5 8915CC00 		movl	%edx, LPBX1+204	 # PROF_edge_counter.2, *LPBX1
 207      0000
 208 01bb EB71     		jmp	L2	 #
 209              	L5:
 210 01bd A1C00000 		movl	LPBX1+192, %eax	 # *LPBX1, PROF_edge_counter.2
 210      00
 211 01c2 8B15C400 		movl	LPBX1+196, %edx	 # *LPBX1, PROF_edge_counter.2
 211      0000
 212 01c8 83C001   		addl	$1, %eax	 #, PROF_edge_counter.2
 213 01cb 83D200   		adcl	$0, %edx	 #, PROF_edge_counter.2
 214 01ce A3C00000 		movl	%eax, LPBX1+192	 # PROF_edge_counter.2, *LPBX1
 214      00
 215 01d3 8915C400 		movl	%edx, LPBX1+196	 # PROF_edge_counter.2, *LPBX1
 215      0000
 216              		.loc 1 91 0
 217 01d9 8B442430 		movl	48(%esp), %eax	 # tp, tmp105
 218 01dd 8B4014   		movl	20(%eax), %eax	 # tp_1(D)->p_older, D.2778
 219 01e0 8B542430 		movl	48(%esp), %edx	 # tp, tmp106
 220 01e4 8B5210   		movl	16(%edx), %edx	 # tp_1(D)->p_newer, D.2779
 221 01e7 895010   		movl	%edx, 16(%eax)	 # D.2779, D.2778_14->p_newer
 222 01ea 8B442430 		movl	48(%esp), %eax	 # tp, tmp107
 223 01ee 8B4010   		movl	16(%eax), %eax	 # tp_1(D)->p_newer, D.2780
 224 01f1 8B542430 		movl	48(%esp), %edx	 # tp, tmp108
 225 01f5 8B5214   		movl	20(%edx), %edx	 # tp_1(D)->p_older, D.2781
 226 01f8 895014   		movl	%edx, 20(%eax)	 # D.2781, D.2780_16->p_older
 227              		.loc 1 93 0
 228 01fb 8B442430 		movl	48(%esp), %eax	 # tp, tmp109
 229 01ff 8B4044   		movl	68(%eax), %eax	 # tp_1(D)->p_mpool, D.2782
 230 0202 8B542430 		movl	48(%esp), %edx	 # tp, tmp110
 231 0206 89542404 		movl	%edx, 4(%esp)	 # tmp110,
 232 020a 890424   		movl	%eax, (%esp)	 # D.2782,
 233 020d E8000000 		call	_chPoolFree	 #
 233      00
 234              		.loc 1 94 0
 235 0212 A1D00000 		movl	LPBX1+208, %eax	 # *LPBX1, PROF_edge_counter.2
GAS LISTING C:\cygwin\tmp\ccewKIPh.s 			page 6


 235      00
 236 0217 8B15D400 		movl	LPBX1+212, %edx	 # *LPBX1, PROF_edge_counter.2
 236      0000
 237 021d 83C001   		addl	$1, %eax	 #, PROF_edge_counter.2
 238 0220 83D200   		adcl	$0, %edx	 #, PROF_edge_counter.2
 239 0223 A3D00000 		movl	%eax, LPBX1+208	 # PROF_edge_counter.2, *LPBX1
 239      00
 240 0228 8915D400 		movl	%edx, LPBX1+212	 # PROF_edge_counter.2, *LPBX1
 240      0000
 241              	L2:
 242              		.loc 1 98 0
 243 022e 83C42C   		addl	$44, %esp	 #,
 244              	LCFI3:
 245              		.cfi_def_cfa_offset 4
 246 0231 C3       		ret
 247              		.cfi_endproc
 248              	LFE1:
 249              		.globl	_chThdCreateFromHeap
 250              		.def	_chThdCreateFromHeap;	.scl	2;	.type	32;	.endef
 251              	_chThdCreateFromHeap:
 252              	LFB2:
 253              		.loc 1 124 0
 254              		.cfi_startproc
 255 0232 83EC3C   		subl	$60, %esp	 #,
 256              	LCFI4:
 257              		.cfi_def_cfa_offset 64
 258              		.loc 1 124 0
 259 0235 A1480000 		movl	LPBX1+72, %eax	 # *LPBX1, PROF_edge_counter.1
 259      00
 260 023a 8B154C00 		movl	LPBX1+76, %edx	 # *LPBX1, PROF_edge_counter.1
 260      0000
 261 0240 83C001   		addl	$1, %eax	 #, PROF_edge_counter.1
 262 0243 83D200   		adcl	$0, %edx	 #, PROF_edge_counter.1
 263 0246 A3480000 		movl	%eax, LPBX1+72	 # PROF_edge_counter.1, *LPBX1
 263      00
 264 024b 89154C00 		movl	%edx, LPBX1+76	 # PROF_edge_counter.1, *LPBX1
 264      0000
 265              		.loc 1 128 0
 266 0251 8B442444 		movl	68(%esp), %eax	 # size, tmp82
 267 0255 89442404 		movl	%eax, 4(%esp)	 # tmp82,
 268 0259 8B442440 		movl	64(%esp), %eax	 # heapp, tmp83
 269 025d 890424   		movl	%eax, (%esp)	 # tmp83,
 270 0260 E8000000 		call	_chHeapAlloc	 #
 270      00
 271 0265 8944242C 		movl	%eax, 44(%esp)	 # tmp84, wsp
 272              		.loc 1 129 0
 273 0269 837C242C 		cmpl	$0, 44(%esp)	 #, wsp
 273      00
 274 026e 7526     		jne	L7	 #,
 275              		.loc 1 130 0
 276 0270 B9000000 		movl	$0, %ecx	 #, D.2755
 276      00
 277 0275 A1580000 		movl	LPBX1+88, %eax	 # *LPBX1, PROF_edge_counter.1
 277      00
 278 027a 8B155C00 		movl	LPBX1+92, %edx	 # *LPBX1, PROF_edge_counter.1
 278      0000
 279 0280 83C001   		addl	$1, %eax	 #, PROF_edge_counter.1
GAS LISTING C:\cygwin\tmp\ccewKIPh.s 			page 7


 280 0283 83D200   		adcl	$0, %edx	 #, PROF_edge_counter.1
 281 0286 A3580000 		movl	%eax, LPBX1+88	 # PROF_edge_counter.1, *LPBX1
 281      00
 282 028b 89155C00 		movl	%edx, LPBX1+92	 # PROF_edge_counter.1, *LPBX1
 282      0000
 283 0291 E95A0100 		jmp	L8	 #
 283      00
 284              	L7:
 285 0296 A1500000 		movl	LPBX1+80, %eax	 # *LPBX1, PROF_edge_counter.1
 285      00
 286 029b 8B155400 		movl	LPBX1+84, %edx	 # *LPBX1, PROF_edge_counter.1
 286      0000
 287 02a1 83C001   		addl	$1, %eax	 #, PROF_edge_counter.1
 288 02a4 83D200   		adcl	$0, %edx	 #, PROF_edge_counter.1
 289 02a7 A3500000 		movl	%eax, LPBX1+80	 # PROF_edge_counter.1, *LPBX1
 289      00
 290 02ac 89155400 		movl	%edx, LPBX1+84	 # PROF_edge_counter.1, *LPBX1
 290      0000
 291              		.loc 1 133 0
 292 02b2 8B44242C 		movl	44(%esp), %eax	 # wsp, tmp85
 293 02b6 83C048   		addl	$72, %eax	 #, D.2756
 294 02b9 C7442408 		movl	$255, 8(%esp)	 #,
 294      FF000000 
 295 02c1 89442404 		movl	%eax, 4(%esp)	 # D.2756,
 296 02c5 8B44242C 		movl	44(%esp), %eax	 # wsp, tmp86
 297 02c9 890424   		movl	%eax, (%esp)	 # tmp86,
 298 02cc E8000000 		call	__thread_memfill	 #
 298      00
 299 02d1 A1600000 		movl	LPBX1+96, %eax	 # *LPBX1, PROF_edge_counter.1
 299      00
 300 02d6 8B156400 		movl	LPBX1+100, %edx	 # *LPBX1, PROF_edge_counter.1
 300      0000
 301 02dc 83C001   		addl	$1, %eax	 #, PROF_edge_counter.1
 302 02df 83D200   		adcl	$0, %edx	 #, PROF_edge_counter.1
 303 02e2 A3600000 		movl	%eax, LPBX1+96	 # PROF_edge_counter.1, *LPBX1
 303      00
 304 02e7 89156400 		movl	%edx, LPBX1+100	 # PROF_edge_counter.1, *LPBX1
 304      0000
 305              		.loc 1 136 0
 306 02ed 8B442444 		movl	68(%esp), %eax	 # size, tmp87
 307 02f1 8B54242C 		movl	44(%esp), %edx	 # wsp, tmp88
 308 02f5 01C2     		addl	%eax, %edx	 # tmp87, D.2757
 309 02f7 8B44242C 		movl	44(%esp), %eax	 # wsp, tmp89
 310 02fb 83C048   		addl	$72, %eax	 #, D.2758
 311 02fe C7442408 		movl	$85, 8(%esp)	 #,
 311      55000000 
 312 0306 89542404 		movl	%edx, 4(%esp)	 # D.2757,
 313 030a 890424   		movl	%eax, (%esp)	 # D.2758,
 314 030d E8000000 		call	__thread_memfill	 #
 314      00
 315 0312 A1680000 		movl	LPBX1+104, %eax	 # *LPBX1, PROF_edge_counter.1
 315      00
 316 0317 8B156C00 		movl	LPBX1+108, %edx	 # *LPBX1, PROF_edge_counter.1
 316      0000
 317 031d 83C001   		addl	$1, %eax	 #, PROF_edge_counter.1
 318 0320 83D200   		adcl	$0, %edx	 #, PROF_edge_counter.1
 319 0323 A3680000 		movl	%eax, LPBX1+104	 # PROF_edge_counter.1, *LPBX1
GAS LISTING C:\cygwin\tmp\ccewKIPh.s 			page 8


 319      00
 320 0328 89156C00 		movl	%edx, LPBX1+108	 # PROF_edge_counter.1, *LPBX1
 320      0000
 321              		.loc 1 141 0
 322              	/APP
 323              	 # 141 "../../os/kernel/src/chdynamic.c" 1
 324 032e 90       		nop
 325              	 # 0 "" 2
 326              	/NO_APP
 327 032f A1700000 		movl	LPBX1+112, %eax	 # *LPBX1, PROF_edge_counter.1
 327      00
 328 0334 8B157400 		movl	LPBX1+116, %edx	 # *LPBX1, PROF_edge_counter.1
 328      0000
 329 033a 83C001   		addl	$1, %eax	 #, PROF_edge_counter.1
 330 033d 83D200   		adcl	$0, %edx	 #, PROF_edge_counter.1
 331 0340 A3700000 		movl	%eax, LPBX1+112	 # PROF_edge_counter.1, *LPBX1
 331      00
 332 0345 89157400 		movl	%edx, LPBX1+116	 # PROF_edge_counter.1, *LPBX1
 332      0000
 333              		.loc 1 142 0
 334 034b 8B442450 		movl	80(%esp), %eax	 # arg, tmp90
 335 034f 89442410 		movl	%eax, 16(%esp)	 # tmp90,
 336 0353 8B44244C 		movl	76(%esp), %eax	 # pf, tmp91
 337 0357 8944240C 		movl	%eax, 12(%esp)	 # tmp91,
 338 035b 8B442448 		movl	72(%esp), %eax	 # prio, tmp92
 339 035f 89442408 		movl	%eax, 8(%esp)	 # tmp92,
 340 0363 8B442444 		movl	68(%esp), %eax	 # size, tmp93
 341 0367 89442404 		movl	%eax, 4(%esp)	 # tmp93,
 342 036b 8B44242C 		movl	44(%esp), %eax	 # wsp, tmp94
 343 036f 890424   		movl	%eax, (%esp)	 # tmp94,
 344 0372 E8000000 		call	_chThdCreateI	 #
 344      00
 345 0377 89442428 		movl	%eax, 40(%esp)	 # tmp95, tp
 346 037b A1780000 		movl	LPBX1+120, %eax	 # *LPBX1, PROF_edge_counter.1
 346      00
 347 0380 8B157C00 		movl	LPBX1+124, %edx	 # *LPBX1, PROF_edge_counter.1
 347      0000
 348 0386 83C001   		addl	$1, %eax	 #, PROF_edge_counter.1
 349 0389 83D200   		adcl	$0, %edx	 #, PROF_edge_counter.1
 350 038c A3780000 		movl	%eax, LPBX1+120	 # PROF_edge_counter.1, *LPBX1
 350      00
 351 0391 89157C00 		movl	%edx, LPBX1+124	 # PROF_edge_counter.1, *LPBX1
 351      0000
 352              		.loc 1 143 0
 353 0397 8B442428 		movl	40(%esp), %eax	 # tp, tmp96
 354 039b C6401D01 		movb	$1, 29(%eax)	 #, tp_12->p_flags
 355              		.loc 1 144 0
 356 039f C7442404 		movl	$0, 4(%esp)	 #,
 356      00000000 
 357 03a7 8B442428 		movl	40(%esp), %eax	 # tp, tmp97
 358 03ab 890424   		movl	%eax, (%esp)	 # tmp97,
 359 03ae E8000000 		call	_chSchWakeupS	 #
 359      00
 360 03b3 A1800000 		movl	LPBX1+128, %eax	 # *LPBX1, PROF_edge_counter.1
 360      00
 361 03b8 8B158400 		movl	LPBX1+132, %edx	 # *LPBX1, PROF_edge_counter.1
 361      0000
GAS LISTING C:\cygwin\tmp\ccewKIPh.s 			page 9


 362 03be 83C001   		addl	$1, %eax	 #, PROF_edge_counter.1
 363 03c1 83D200   		adcl	$0, %edx	 #, PROF_edge_counter.1
 364 03c4 A3800000 		movl	%eax, LPBX1+128	 # PROF_edge_counter.1, *LPBX1
 364      00
 365 03c9 89158400 		movl	%edx, LPBX1+132	 # PROF_edge_counter.1, *LPBX1
 365      0000
 366              		.loc 1 145 0
 367              	/APP
 368              	 # 145 "../../os/kernel/src/chdynamic.c" 1
 369 03cf 90       		nop
 370              	 # 0 "" 2
 371              		.loc 1 146 0
 372              	/NO_APP
 373 03d0 8B4C2428 		movl	40(%esp), %ecx	 # tp, D.2755
 374 03d4 A1880000 		movl	LPBX1+136, %eax	 # *LPBX1, PROF_edge_counter.1
 374      00
 375 03d9 8B158C00 		movl	LPBX1+140, %edx	 # *LPBX1, PROF_edge_counter.1
 375      0000
 376 03df 83C001   		addl	$1, %eax	 #, PROF_edge_counter.1
 377 03e2 83D200   		adcl	$0, %edx	 #, PROF_edge_counter.1
 378 03e5 A3880000 		movl	%eax, LPBX1+136	 # PROF_edge_counter.1, *LPBX1
 378      00
 379 03ea 89158C00 		movl	%edx, LPBX1+140	 # PROF_edge_counter.1, *LPBX1
 379      0000
 380              	L8:
 381 03f0 89C8     		movl	%ecx, %eax	 # D.2755, <retval>
 382              		.loc 1 147 0
 383 03f2 83C43C   		addl	$60, %esp	 #,
 384              	LCFI5:
 385              		.cfi_def_cfa_offset 4
 386 03f5 C3       		ret
 387              		.cfi_endproc
 388              	LFE2:
 389              		.globl	_chThdCreateFromMemoryPool
 390              		.def	_chThdCreateFromMemoryPool;	.scl	2;	.type	32;	.endef
 391              	_chThdCreateFromMemoryPool:
 392              	LFB3:
 393              		.loc 1 173 0
 394              		.cfi_startproc
 395 03f6 83EC3C   		subl	$60, %esp	 #,
 396              	LCFI6:
 397              		.cfi_def_cfa_offset 64
 398              		.loc 1 173 0
 399 03f9 A1000000 		movl	LPBX1, %eax	 # *LPBX1, PROF_edge_counter.0
 399      00
 400 03fe 8B150400 		movl	LPBX1+4, %edx	 # *LPBX1, PROF_edge_counter.0
 400      0000
 401 0404 83C001   		addl	$1, %eax	 #, PROF_edge_counter.0
 402 0407 83D200   		adcl	$0, %edx	 #, PROF_edge_counter.0
 403 040a A3000000 		movl	%eax, LPBX1	 # PROF_edge_counter.0, *LPBX1
 403      00
 404 040f 89150400 		movl	%edx, LPBX1+4	 # PROF_edge_counter.0, *LPBX1
 404      0000
 405              		.loc 1 179 0
 406 0415 8B442440 		movl	64(%esp), %eax	 # mp, tmp84
 407 0419 890424   		movl	%eax, (%esp)	 # tmp84,
 408 041c E8000000 		call	_chPoolAlloc	 #
GAS LISTING C:\cygwin\tmp\ccewKIPh.s 			page 10


 408      00
 409 0421 8944242C 		movl	%eax, 44(%esp)	 # tmp85, wsp
 410              		.loc 1 180 0
 411 0425 837C242C 		cmpl	$0, 44(%esp)	 #, wsp
 411      00
 412 042a 7526     		jne	L10	 #,
 413              		.loc 1 181 0
 414 042c B9000000 		movl	$0, %ecx	 #, D.2746
 414      00
 415 0431 A1100000 		movl	LPBX1+16, %eax	 # *LPBX1, PROF_edge_counter.0
 415      00
 416 0436 8B151400 		movl	LPBX1+20, %edx	 # *LPBX1, PROF_edge_counter.0
 416      0000
 417 043c 83C001   		addl	$1, %eax	 #, PROF_edge_counter.0
 418 043f 83D200   		adcl	$0, %edx	 #, PROF_edge_counter.0
 419 0442 A3100000 		movl	%eax, LPBX1+16	 # PROF_edge_counter.0, *LPBX1
 419      00
 420 0447 89151400 		movl	%edx, LPBX1+20	 # PROF_edge_counter.0, *LPBX1
 420      0000
 421 044d E9690100 		jmp	L11	 #
 421      00
 422              	L10:
 423 0452 A1080000 		movl	LPBX1+8, %eax	 # *LPBX1, PROF_edge_counter.0
 423      00
 424 0457 8B150C00 		movl	LPBX1+12, %edx	 # *LPBX1, PROF_edge_counter.0
 424      0000
 425 045d 83C001   		addl	$1, %eax	 #, PROF_edge_counter.0
 426 0460 83D200   		adcl	$0, %edx	 #, PROF_edge_counter.0
 427 0463 A3080000 		movl	%eax, LPBX1+8	 # PROF_edge_counter.0, *LPBX1
 427      00
 428 0468 89150C00 		movl	%edx, LPBX1+12	 # PROF_edge_counter.0, *LPBX1
 428      0000
 429              		.loc 1 184 0
 430 046e 8B44242C 		movl	44(%esp), %eax	 # wsp, tmp86
 431 0472 83C048   		addl	$72, %eax	 #, D.2747
 432 0475 C7442408 		movl	$255, 8(%esp)	 #,
 432      FF000000 
 433 047d 89442404 		movl	%eax, 4(%esp)	 # D.2747,
 434 0481 8B44242C 		movl	44(%esp), %eax	 # wsp, tmp87
 435 0485 890424   		movl	%eax, (%esp)	 # tmp87,
 436 0488 E8000000 		call	__thread_memfill	 #
 436      00
 437 048d A1180000 		movl	LPBX1+24, %eax	 # *LPBX1, PROF_edge_counter.0
 437      00
 438 0492 8B151C00 		movl	LPBX1+28, %edx	 # *LPBX1, PROF_edge_counter.0
 438      0000
 439 0498 83C001   		addl	$1, %eax	 #, PROF_edge_counter.0
 440 049b 83D200   		adcl	$0, %edx	 #, PROF_edge_counter.0
 441 049e A3180000 		movl	%eax, LPBX1+24	 # PROF_edge_counter.0, *LPBX1
 441      00
 442 04a3 89151C00 		movl	%edx, LPBX1+28	 # PROF_edge_counter.0, *LPBX1
 442      0000
 443              		.loc 1 188 0
 444 04a9 8B442440 		movl	64(%esp), %eax	 # mp, tmp88
 445 04ad 8B4004   		movl	4(%eax), %eax	 # mp_2(D)->mp_object_size, D.2748
 446              		.loc 1 187 0
 447 04b0 0344242C 		addl	44(%esp), %eax	 # wsp, D.2749
GAS LISTING C:\cygwin\tmp\ccewKIPh.s 			page 11


 448 04b4 8B54242C 		movl	44(%esp), %edx	 # wsp, tmp89
 449 04b8 83C248   		addl	$72, %edx	 #, D.2750
 450 04bb C7442408 		movl	$85, 8(%esp)	 #,
 450      55000000 
 451 04c3 89442404 		movl	%eax, 4(%esp)	 # D.2749,
 452 04c7 891424   		movl	%edx, (%esp)	 # D.2750,
 453 04ca E8000000 		call	__thread_memfill	 #
 453      00
 454 04cf A1200000 		movl	LPBX1+32, %eax	 # *LPBX1, PROF_edge_counter.0
 454      00
 455 04d4 8B152400 		movl	LPBX1+36, %edx	 # *LPBX1, PROF_edge_counter.0
 455      0000
 456 04da 83C001   		addl	$1, %eax	 #, PROF_edge_counter.0
 457 04dd 83D200   		adcl	$0, %edx	 #, PROF_edge_counter.0
 458 04e0 A3200000 		movl	%eax, LPBX1+32	 # PROF_edge_counter.0, *LPBX1
 458      00
 459 04e5 89152400 		movl	%edx, LPBX1+36	 # PROF_edge_counter.0, *LPBX1
 459      0000
 460              		.loc 1 192 0
 461              	/APP
 462              	 # 192 "../../os/kernel/src/chdynamic.c" 1
 463 04eb 90       		nop
 464              	 # 0 "" 2
 465              	/NO_APP
 466 04ec A1280000 		movl	LPBX1+40, %eax	 # *LPBX1, PROF_edge_counter.0
 466      00
 467 04f1 8B152C00 		movl	LPBX1+44, %edx	 # *LPBX1, PROF_edge_counter.0
 467      0000
 468 04f7 83C001   		addl	$1, %eax	 #, PROF_edge_counter.0
 469 04fa 83D200   		adcl	$0, %edx	 #, PROF_edge_counter.0
 470 04fd A3280000 		movl	%eax, LPBX1+40	 # PROF_edge_counter.0, *LPBX1
 470      00
 471 0502 89152C00 		movl	%edx, LPBX1+44	 # PROF_edge_counter.0, *LPBX1
 471      0000
 472              		.loc 1 193 0
 473 0508 8B442440 		movl	64(%esp), %eax	 # mp, tmp90
 474 050c 8B4004   		movl	4(%eax), %eax	 # mp_2(D)->mp_object_size, D.2751
 475 050f 8B54244C 		movl	76(%esp), %edx	 # arg, tmp91
 476 0513 89542410 		movl	%edx, 16(%esp)	 # tmp91,
 477 0517 8B542448 		movl	72(%esp), %edx	 # pf, tmp92
 478 051b 8954240C 		movl	%edx, 12(%esp)	 # tmp92,
 479 051f 8B542444 		movl	68(%esp), %edx	 # prio, tmp93
 480 0523 89542408 		movl	%edx, 8(%esp)	 # tmp93,
 481 0527 89442404 		movl	%eax, 4(%esp)	 # D.2751,
 482 052b 8B44242C 		movl	44(%esp), %eax	 # wsp, tmp94
 483 052f 890424   		movl	%eax, (%esp)	 # tmp94,
 484 0532 E8000000 		call	_chThdCreateI	 #
 484      00
 485 0537 89442428 		movl	%eax, 40(%esp)	 # tmp95, tp
 486 053b A1300000 		movl	LPBX1+48, %eax	 # *LPBX1, PROF_edge_counter.0
 486      00
 487 0540 8B153400 		movl	LPBX1+52, %edx	 # *LPBX1, PROF_edge_counter.0
 487      0000
 488 0546 83C001   		addl	$1, %eax	 #, PROF_edge_counter.0
 489 0549 83D200   		adcl	$0, %edx	 #, PROF_edge_counter.0
 490 054c A3300000 		movl	%eax, LPBX1+48	 # PROF_edge_counter.0, *LPBX1
 490      00
GAS LISTING C:\cygwin\tmp\ccewKIPh.s 			page 12


 491 0551 89153400 		movl	%edx, LPBX1+52	 # PROF_edge_counter.0, *LPBX1
 491      0000
 492              		.loc 1 194 0
 493 0557 8B442428 		movl	40(%esp), %eax	 # tp, tmp96
 494 055b C6401D02 		movb	$2, 29(%eax)	 #, tp_13->p_flags
 495              		.loc 1 195 0
 496 055f 8B442428 		movl	40(%esp), %eax	 # tp, tmp97
 497 0563 8B542440 		movl	64(%esp), %edx	 # mp, tmp98
 498 0567 895044   		movl	%edx, 68(%eax)	 # tmp98, tp_13->p_mpool
 499              		.loc 1 196 0
 500 056a C7442404 		movl	$0, 4(%esp)	 #,
 500      00000000 
 501 0572 8B442428 		movl	40(%esp), %eax	 # tp, tmp99
 502 0576 890424   		movl	%eax, (%esp)	 # tmp99,
 503 0579 E8000000 		call	_chSchWakeupS	 #
 503      00
 504 057e A1380000 		movl	LPBX1+56, %eax	 # *LPBX1, PROF_edge_counter.0
 504      00
 505 0583 8B153C00 		movl	LPBX1+60, %edx	 # *LPBX1, PROF_edge_counter.0
 505      0000
 506 0589 83C001   		addl	$1, %eax	 #, PROF_edge_counter.0
 507 058c 83D200   		adcl	$0, %edx	 #, PROF_edge_counter.0
 508 058f A3380000 		movl	%eax, LPBX1+56	 # PROF_edge_counter.0, *LPBX1
 508      00
 509 0594 89153C00 		movl	%edx, LPBX1+60	 # PROF_edge_counter.0, *LPBX1
 509      0000
 510              		.loc 1 197 0
 511              	/APP
 512              	 # 197 "../../os/kernel/src/chdynamic.c" 1
 513 059a 90       		nop
 514              	 # 0 "" 2
 515              		.loc 1 198 0
 516              	/NO_APP
 517 059b 8B4C2428 		movl	40(%esp), %ecx	 # tp, D.2746
 518 059f A1400000 		movl	LPBX1+64, %eax	 # *LPBX1, PROF_edge_counter.0
 518      00
 519 05a4 8B154400 		movl	LPBX1+68, %edx	 # *LPBX1, PROF_edge_counter.0
 519      0000
 520 05aa 83C001   		addl	$1, %eax	 #, PROF_edge_counter.0
 521 05ad 83D200   		adcl	$0, %edx	 #, PROF_edge_counter.0
 522 05b0 A3400000 		movl	%eax, LPBX1+64	 # PROF_edge_counter.0, *LPBX1
 522      00
 523 05b5 89154400 		movl	%edx, LPBX1+68	 # PROF_edge_counter.0, *LPBX1
 523      0000
 524              	L11:
 525 05bb 89C8     		movl	%ecx, %eax	 # D.2746, <retval>
 526              		.loc 1 199 0
 527 05bd 83C43C   		addl	$60, %esp	 #,
 528              	LCFI7:
 529              		.cfi_def_cfa_offset 4
 530 05c0 C3       		ret
 531              		.cfi_endproc
 532              	LFE3:
 533              	.lcomm LPBX1,240,32
 534              		.section .rdata,"dr"
 535              		.align 4
 536              	LC0:
GAS LISTING C:\cygwin\tmp\ccewKIPh.s 			page 13


 537 0000 433A5C64 		.ascii "C:\\develop\\gyro\\ChibiOS\\test\\coverage/../../os/kernel/src/chdynamic.gcda\0"
 537      6576656C 
 537      6F705C67 
 537      79726F5C 
 537      43686962 
 538 0049 000000   		.data
 539              		.align 32
 540              	LC1:
 541              	 # <anonymous>:
 542 0000 04000000 		.long	4
 543              	 # <anonymous>:
 544 0004 138C5A49 		.long	1230670867
 545              	 # <anonymous>:
 546 0008 09000000 		.long	9
 547              	 # <anonymous>:
 548 000c 03000000 		.long	3
 549              	 # <anonymous>:
 550 0010 3F59811A 		.long	444684607
 551              	 # <anonymous>:
 552 0014 09000000 		.long	9
 553              	 # <anonymous>:
 554 0018 02000000 		.long	2
 555              	 # <anonymous>:
 556 001c 767BB79F 		.long	-1615365258
 557              	 # <anonymous>:
 558 0020 09000000 		.long	9
 559              	 # <anonymous>:
 560 0024 01000000 		.long	1
 561              	 # <anonymous>:
 562 0028 D141C08E 		.long	-1900002863
 563              	 # <anonymous>:
 564 002c 03000000 		.long	3
 565 0030 00000000 		.align 32
 565      00000000 
 565      00000000 
 565      00000000 
 566              	LPBX0:
 567              	 # <anonymous>:
 568 0040 2A363034 		.long	875574826
 569              	 # <anonymous>:
 570 0044 00000000 		.long	0
 571              	 # <anonymous>:
 572 0048 A5197060 		.long	1617959333
 573              	 # <anonymous>:
 574 004c 00000000 		.long	LC0
 575              	 # <anonymous>:
 576 0050 04000000 		.long	4
 577              	 # <anonymous>:
 578 0054 00000000 		.long	LC1
 579              	 # <anonymous>:
 580 0058 01000000 		.long	1
 581              	 # <anonymous>:
 582              	 # <anonymous>:
 583 005c 1E000000 		.long	30
 584              	 # <anonymous>:
 585 0060 00000000 		.long	LPBX1
 586              	 # <anonymous>:
GAS LISTING C:\cygwin\tmp\ccewKIPh.s 			page 14


 587 0064 00000000 		.long	___gcov_merge_add
 588 0068 00000000 		.space 12
 588      00000000 
 588      00000000 
 589 0074 00000000 		.text
 589      00000000 
 589      00000000 
 590              		.def	__GLOBAL__sub_I_65535_0_chThdAddRef;	.scl	3;	.type	32;	.endef
 591              	__GLOBAL__sub_I_65535_0_chThdAddRef:
 592              	LFB4:
 593              		.loc 1 199 0
 594              		.cfi_startproc
 595 05c1 83EC1C   		subl	$28, %esp	 #,
 596              	LCFI8:
 597              		.cfi_def_cfa_offset 32
 598              		.loc 1 199 0
 599 05c4 C7042440 		movl	$LPBX0, (%esp)	 #,
 599      000000
 600 05cb E8000000 		call	___gcov_init	 #
 600      00
 601 05d0 83C41C   		addl	$28, %esp	 #,
 602              	LCFI9:
 603              		.cfi_def_cfa_offset 4
 604 05d3 C3       		ret
 605              		.cfi_endproc
 606              	LFE4:
 607              		.section	.ctors,"w"
 608              		.align 4
 609 0000 C1050000 		.long	__GLOBAL__sub_I_65535_0_chThdAddRef
 610              		.text
 611              	Letext0:
 612              		.file 2 "c:/mingw/bin/../lib/gcc/mingw32/4.6.2/include/stddef.h"
 613              		.file 3 "c:/mingw/bin/../lib/gcc/mingw32/4.6.2/../../../../include/stdint.h"
 614              		.file 4 "../../os/ports/GCC/SIMIA32/chtypes.h"
 615              		.file 5 "../../os/kernel/include/chlists.h"
 616              		.file 6 "../../os/kernel/include/chthreads.h"
 617              		.file 7 "../../os/ports/GCC/SIMIA32/chcore.h"
 618              		.file 8 "../../os/kernel/include/chmtx.h"
 619              		.file 9 "../../os/kernel/include/chmemcore.h"
 620              		.file 10 "../../os/kernel/include/chheap.h"
 621              		.file 11 "../../os/kernel/include/chmempools.h"