GAS LISTING C:\cygwin\tmp\ccRh0JUa.s 			page 1


   1              		.file	"chevents.c"
   2              	 # GNU C (GCC) version 4.6.2 (mingw32)
   3              	 #	compiled by GNU C version 4.6.2, GMP version 5.0.1, MPFR version 2.4.1, MPC version 0.8.1
   4              	 # GGC heuristics: --param ggc-min-expand=100 --param ggc-min-heapsize=131072
   5              	 # options passed:  -I . -I ../../os/ports/GCC/SIMIA32
   6              	 # -I ../../os/kernel/include -I ../../test -I ../../os/hal/include
   7              	 # -I ../../os/hal/platforms/Win32 -I ../../boards/simulator
   8              	 # -I ../../os/various -iprefix c:\mingw\bin\../lib/gcc/mingw32/4.6.2/
   9              	 # -MD ../../os/kernel/src/chevents.d -MF .dep/chevents.o.d -MP
  10              	 # -MQ ../../os/kernel/src/chevents.o -D SIMULATOR
  11              	 # ../../os/kernel/src/chevents.c -mtune=i386 -march=i386
  12              	 # -auxbase-strip ../../os/kernel/src/chevents.o -ggdb -O0 -Wall -Wextra
  13              	 # -Wstrict-prototypes -fomit-frame-pointer -fprofile-arcs -ftest-coverage
  14              	 # -fverbose-asm
  15              	 # options enabled:  -fasynchronous-unwind-tables -fauto-inc-dec
  16              	 # -fbranch-count-reg -fcommon -fdelete-null-pointer-checks
  17              	 # -fdwarf2-cfi-asm -fearly-inlining -feliminate-unused-debug-types
  18              	 # -ffunction-cse -fgcse-lm -fident -finline-functions-called-once
  19              	 # -fira-share-save-slots -fira-share-spill-slots -fivopts
  20              	 # -fkeep-inline-dllexport -fkeep-static-consts -fleading-underscore
  21              	 # -fmath-errno -fmerge-debug-strings -fmove-loop-invariants
  22              	 # -fomit-frame-pointer -fpeephole -fprefetch-loop-arrays -fprofile-arcs
  23              	 # -freg-struct-return -fsched-critical-path-heuristic
  24              	 # -fsched-dep-count-heuristic -fsched-group-heuristic -fsched-interblock
  25              	 # -fsched-last-insn-heuristic -fsched-rank-heuristic -fsched-spec
  26              	 # -fsched-spec-insn-heuristic -fsched-stalled-insns-dep
  27              	 # -fset-stack-executable -fshow-column -fsigned-zeros
  28              	 # -fsplit-ivs-in-unroller -fstrict-volatile-bitfields -ftest-coverage
  29              	 # -ftrapping-math -ftree-cselim -ftree-forwprop -ftree-loop-if-convert
  30              	 # -ftree-loop-im -ftree-loop-ivcanon -ftree-loop-optimize
  31              	 # -ftree-parallelize-loops= -ftree-phiprop -ftree-pta -ftree-reassoc
  32              	 # -ftree-scev-cprop -ftree-slp-vectorize -ftree-vect-loop-version
  33              	 # -funit-at-a-time -funwind-tables -fvect-cost-model -fverbose-asm
  34              	 # -fzero-initialized-in-bss -m32 -m80387 -m96bit-long-double
  35              	 # -maccumulate-outgoing-args -malign-double -malign-stringops
  36              	 # -mfancy-math-387 -mfp-ret-in-387 -mieee-fp -mno-red-zone -mno-sse4
  37              	 # -mpush-args -msahf -mstack-arg-probe
  38              	
  39              		.text
  40              	Ltext0:
  41              	 # Compiler executable checksum: c20aed7c018482d7b62efcd5dcab2a9d
  42              	
  43              		.globl	_chEvtRegisterMask
  44              		.def	_chEvtRegisterMask;	.scl	2;	.type	32;	.endef
  45              	_chEvtRegisterMask:
  46              	LFB0:
  47              		.file 1 "../../os/kernel/src/chevents.c"
  48              		.loc 1 78 0
  49              		.cfi_startproc
  50 0000 83EC04   		subl	$4, %esp	 #,
  51              	LCFI0:
  52              		.cfi_def_cfa_offset 8
  53              		.loc 1 80 0
  54 0003 837C2408 		cmpl	$0, 8(%esp)	 #, esp
  54      00
  55 0008 7441     		je	L2	 #,
  56              		.loc 1 80 0 is_stmt 0 discriminator 1
GAS LISTING C:\cygwin\tmp\ccRh0JUa.s 			page 2


  57 000a A1180200 		movl	LPBX1+536, %eax	 # *LPBX1, PROF_edge_counter.17
  57      00
  58 000f 8B151C02 		movl	LPBX1+540, %edx	 # *LPBX1, PROF_edge_counter.17
  58      0000
  59 0015 83C001   		addl	$1, %eax	 #, PROF_edge_counter.17
  60 0018 83D200   		adcl	$0, %edx	 #, PROF_edge_counter.17
  61 001b A3180200 		movl	%eax, LPBX1+536	 # PROF_edge_counter.17, *LPBX1
  61      00
  62 0020 89151C02 		movl	%edx, LPBX1+540	 # PROF_edge_counter.17, *LPBX1
  62      0000
  63 0026 837C240C 		cmpl	$0, 12(%esp)	 #, elp
  63      00
  64 002b 741E     		je	L2	 #,
  65              		.loc 1 80 0 discriminator 3
  66 002d A1200200 		movl	LPBX1+544, %eax	 # *LPBX1, PROF_edge_counter.17
  66      00
  67 0032 8B152402 		movl	LPBX1+548, %edx	 # *LPBX1, PROF_edge_counter.17
  67      0000
  68 0038 83C001   		addl	$1, %eax	 #, PROF_edge_counter.17
  69 003b 83D200   		adcl	$0, %edx	 #, PROF_edge_counter.17
  70 003e A3200200 		movl	%eax, LPBX1+544	 # PROF_edge_counter.17, *LPBX1
  70      00
  71 0043 89152402 		movl	%edx, LPBX1+548	 # PROF_edge_counter.17, *LPBX1
  71      0000
  72 0049 EB1C     		jmp	L3	 #
  73              	L2:
  74              		.loc 1 80 0 discriminator 2
  75 004b A1280200 		movl	LPBX1+552, %eax	 # *LPBX1, PROF_edge_counter.17
  75      00
  76 0050 8B152C02 		movl	LPBX1+556, %edx	 # *LPBX1, PROF_edge_counter.17
  76      0000
  77 0056 83C001   		addl	$1, %eax	 #, PROF_edge_counter.17
  78 0059 83D200   		adcl	$0, %edx	 #, PROF_edge_counter.17
  79 005c A3280200 		movl	%eax, LPBX1+552	 # PROF_edge_counter.17, *LPBX1
  79      00
  80 0061 89152C02 		movl	%edx, LPBX1+556	 # PROF_edge_counter.17, *LPBX1
  80      0000
  81              	L3:
  82              		.loc 1 82 0 is_stmt 1
  83              	/APP
  84              	 # 82 "../../os/kernel/src/chevents.c" 1
  85 0067 90       		nop
  86              	 # 0 "" 2
  87              	/NO_APP
  88 0068 A1300200 		movl	LPBX1+560, %eax	 # *LPBX1, PROF_edge_counter.17
  88      00
  89 006d 8B153402 		movl	LPBX1+564, %edx	 # *LPBX1, PROF_edge_counter.17
  89      0000
  90 0073 83C001   		addl	$1, %eax	 #, PROF_edge_counter.17
  91 0076 83D200   		adcl	$0, %edx	 #, PROF_edge_counter.17
  92 0079 A3300200 		movl	%eax, LPBX1+560	 # PROF_edge_counter.17, *LPBX1
  92      00
  93 007e 89153402 		movl	%edx, LPBX1+564	 # PROF_edge_counter.17, *LPBX1
  93      0000
  94              		.loc 1 83 0
  95 0084 8B442408 		movl	8(%esp), %eax	 # esp, tmp73
  96 0088 8B10     		movl	(%eax), %edx	 # esp_1(D)->es_next, D.2916
GAS LISTING C:\cygwin\tmp\ccRh0JUa.s 			page 3


  97 008a 8B44240C 		movl	12(%esp), %eax	 # elp, tmp74
  98 008e 8910     		movl	%edx, (%eax)	 # D.2916, elp_2(D)->el_next
  99              		.loc 1 84 0
 100 0090 8B442408 		movl	8(%esp), %eax	 # esp, tmp75
 101 0094 8B54240C 		movl	12(%esp), %edx	 # elp, tmp76
 102 0098 8910     		movl	%edx, (%eax)	 # tmp76, esp_1(D)->es_next
 103              		.loc 1 85 0
 104 009a 8B151800 		movl	_rlist+24, %edx	 # rlist.r_current, D.2917
 104      0000
 105 00a0 8B44240C 		movl	12(%esp), %eax	 # elp, tmp77
 106 00a4 895004   		movl	%edx, 4(%eax)	 # D.2917, elp_2(D)->el_listener
 107              		.loc 1 86 0
 108 00a7 8B44240C 		movl	12(%esp), %eax	 # elp, tmp78
 109 00ab 8B542410 		movl	16(%esp), %edx	 # mask, tmp79
 110 00af 895008   		movl	%edx, 8(%eax)	 # tmp79, elp_2(D)->el_mask
 111              		.loc 1 87 0
 112 00b2 8B44240C 		movl	12(%esp), %eax	 # elp, tmp80
 113 00b6 C7400C00 		movl	$0, 12(%eax)	 #, elp_2(D)->el_flags
 113      000000
 114              		.loc 1 88 0
 115              	/APP
 116              	 # 88 "../../os/kernel/src/chevents.c" 1
 117 00bd 90       		nop
 118              	 # 0 "" 2
 119              	/NO_APP
 120 00be A1380200 		movl	LPBX1+568, %eax	 # *LPBX1, PROF_edge_counter.17
 120      00
 121 00c3 8B153C02 		movl	LPBX1+572, %edx	 # *LPBX1, PROF_edge_counter.17
 121      0000
 122 00c9 83C001   		addl	$1, %eax	 #, PROF_edge_counter.17
 123 00cc 83D200   		adcl	$0, %edx	 #, PROF_edge_counter.17
 124 00cf A3380200 		movl	%eax, LPBX1+568	 # PROF_edge_counter.17, *LPBX1
 124      00
 125 00d4 89153C02 		movl	%edx, LPBX1+572	 # PROF_edge_counter.17, *LPBX1
 125      0000
 126              		.loc 1 89 0
 127 00da 83C404   		addl	$4, %esp	 #,
 128              	LCFI1:
 129              		.cfi_def_cfa_offset 4
 130 00dd C3       		ret
 131              		.cfi_endproc
 132              	LFE0:
 133              		.globl	_chEvtUnregister
 134              		.def	_chEvtUnregister;	.scl	2;	.type	32;	.endef
 135              	_chEvtUnregister:
 136              	LFB1:
 137              		.loc 1 104 0
 138              		.cfi_startproc
 139 00de 83EC14   		subl	$20, %esp	 #,
 140              	LCFI2:
 141              		.cfi_def_cfa_offset 24
 142              		.loc 1 107 0
 143 00e1 837C2418 		cmpl	$0, 24(%esp)	 #, esp
 143      00
 144 00e6 7441     		je	L5	 #,
 145              		.loc 1 107 0 is_stmt 0 discriminator 1
 146 00e8 A1E00100 		movl	LPBX1+480, %eax	 # *LPBX1, PROF_edge_counter.16
GAS LISTING C:\cygwin\tmp\ccRh0JUa.s 			page 4


 146      00
 147 00ed 8B15E401 		movl	LPBX1+484, %edx	 # *LPBX1, PROF_edge_counter.16
 147      0000
 148 00f3 83C001   		addl	$1, %eax	 #, PROF_edge_counter.16
 149 00f6 83D200   		adcl	$0, %edx	 #, PROF_edge_counter.16
 150 00f9 A3E00100 		movl	%eax, LPBX1+480	 # PROF_edge_counter.16, *LPBX1
 150      00
 151 00fe 8915E401 		movl	%edx, LPBX1+484	 # PROF_edge_counter.16, *LPBX1
 151      0000
 152 0104 837C241C 		cmpl	$0, 28(%esp)	 #, elp
 152      00
 153 0109 741E     		je	L5	 #,
 154              		.loc 1 107 0 discriminator 3
 155 010b A1E80100 		movl	LPBX1+488, %eax	 # *LPBX1, PROF_edge_counter.16
 155      00
 156 0110 8B15EC01 		movl	LPBX1+492, %edx	 # *LPBX1, PROF_edge_counter.16
 156      0000
 157 0116 83C001   		addl	$1, %eax	 #, PROF_edge_counter.16
 158 0119 83D200   		adcl	$0, %edx	 #, PROF_edge_counter.16
 159 011c A3E80100 		movl	%eax, LPBX1+488	 # PROF_edge_counter.16, *LPBX1
 159      00
 160 0121 8915EC01 		movl	%edx, LPBX1+492	 # PROF_edge_counter.16, *LPBX1
 160      0000
 161 0127 EB1C     		jmp	L6	 #
 162              	L5:
 163              		.loc 1 107 0 discriminator 2
 164 0129 A1F00100 		movl	LPBX1+496, %eax	 # *LPBX1, PROF_edge_counter.16
 164      00
 165 012e 8B15F401 		movl	LPBX1+500, %edx	 # *LPBX1, PROF_edge_counter.16
 165      0000
 166 0134 83C001   		addl	$1, %eax	 #, PROF_edge_counter.16
 167 0137 83D200   		adcl	$0, %edx	 #, PROF_edge_counter.16
 168 013a A3F00100 		movl	%eax, LPBX1+496	 # PROF_edge_counter.16, *LPBX1
 168      00
 169 013f 8915F401 		movl	%edx, LPBX1+500	 # PROF_edge_counter.16, *LPBX1
 169      0000
 170              	L6:
 171              		.loc 1 109 0 is_stmt 1
 172 0145 8B442418 		movl	24(%esp), %eax	 # esp, tmp78
 173 0149 8944240C 		movl	%eax, 12(%esp)	 # tmp78, p
 174              		.loc 1 110 0
 175              	/APP
 176              	 # 110 "../../os/kernel/src/chevents.c" 1
 177 014d 90       		nop
 178              	 # 0 "" 2
 179              		.loc 1 111 0
 180              	/NO_APP
 181 014e A1F80100 		movl	LPBX1+504, %eax	 # *LPBX1, PROF_edge_counter.16
 181      00
 182 0153 8B15FC01 		movl	LPBX1+508, %edx	 # *LPBX1, PROF_edge_counter.16
 182      0000
 183 0159 83C001   		addl	$1, %eax	 #, PROF_edge_counter.16
 184 015c 83D200   		adcl	$0, %edx	 #, PROF_edge_counter.16
 185 015f A3F80100 		movl	%eax, LPBX1+504	 # PROF_edge_counter.16, *LPBX1
 185      00
 186 0164 8915FC01 		movl	%edx, LPBX1+508	 # PROF_edge_counter.16, *LPBX1
 186      0000
GAS LISTING C:\cygwin\tmp\ccRh0JUa.s 			page 5


 187 016a EB5C     		jmp	L7	 #
 188              	L10:
 189 016c A1080200 		movl	LPBX1+520, %eax	 # *LPBX1, PROF_edge_counter.16
 189      00
 190 0171 8B150C02 		movl	LPBX1+524, %edx	 # *LPBX1, PROF_edge_counter.16
 190      0000
 191 0177 83C001   		addl	$1, %eax	 #, PROF_edge_counter.16
 192 017a 83D200   		adcl	$0, %edx	 #, PROF_edge_counter.16
 193 017d A3080200 		movl	%eax, LPBX1+520	 # PROF_edge_counter.16, *LPBX1
 193      00
 194 0182 89150C02 		movl	%edx, LPBX1+524	 # PROF_edge_counter.16, *LPBX1
 194      0000
 195              		.loc 1 112 0
 196 0188 8B44240C 		movl	12(%esp), %eax	 # p, tmp79
 197 018c 8B00     		movl	(%eax), %eax	 # p_1->el_next, D.2906
 198 018e 3B44241C 		cmpl	28(%esp), %eax	 # elp, D.2906
 199 0192 750E     		jne	L8	 #,
 200              		.loc 1 113 0
 201 0194 8B44241C 		movl	28(%esp), %eax	 # elp, tmp80
 202 0198 8B10     		movl	(%eax), %edx	 # elp_3(D)->el_next, D.2909
 203 019a 8B44240C 		movl	12(%esp), %eax	 # p, tmp81
 204 019e 8910     		movl	%edx, (%eax)	 # D.2909, p_1->el_next
 205              		.loc 1 114 0
 206 01a0 EB32     		jmp	L9	 #
 207              	L8:
 208              		.loc 1 116 0
 209 01a2 8B44240C 		movl	12(%esp), %eax	 # p, tmp82
 210 01a6 8B00     		movl	(%eax), %eax	 # p_1->el_next, tmp83
 211 01a8 8944240C 		movl	%eax, 12(%esp)	 # tmp83, p
 212 01ac A1000200 		movl	LPBX1+512, %eax	 # *LPBX1, PROF_edge_counter.16
 212      00
 213 01b1 8B150402 		movl	LPBX1+516, %edx	 # *LPBX1, PROF_edge_counter.16
 213      0000
 214 01b7 83C001   		addl	$1, %eax	 #, PROF_edge_counter.16
 215 01ba 83D200   		adcl	$0, %edx	 #, PROF_edge_counter.16
 216 01bd A3000200 		movl	%eax, LPBX1+512	 # PROF_edge_counter.16, *LPBX1
 216      00
 217 01c2 89150402 		movl	%edx, LPBX1+516	 # PROF_edge_counter.16, *LPBX1
 217      0000
 218              	L7:
 219              		.loc 1 111 0 discriminator 1
 220 01c8 8B44240C 		movl	12(%esp), %eax	 # p, tmp84
 221 01cc 8B00     		movl	(%eax), %eax	 # p_1->el_next, D.2910
 222 01ce 3B442418 		cmpl	24(%esp), %eax	 # esp, D.2910
 223 01d2 7598     		jne	L10	 #,
 224              	L9:
 225              		.loc 1 118 0
 226              	/APP
 227              	 # 118 "../../os/kernel/src/chevents.c" 1
 228 01d4 90       		nop
 229              	 # 0 "" 2
 230              	/NO_APP
 231 01d5 A1100200 		movl	LPBX1+528, %eax	 # *LPBX1, PROF_edge_counter.16
 231      00
 232 01da 8B151402 		movl	LPBX1+532, %edx	 # *LPBX1, PROF_edge_counter.16
 232      0000
 233 01e0 83C001   		addl	$1, %eax	 #, PROF_edge_counter.16
GAS LISTING C:\cygwin\tmp\ccRh0JUa.s 			page 6


 234 01e3 83D200   		adcl	$0, %edx	 #, PROF_edge_counter.16
 235 01e6 A3100200 		movl	%eax, LPBX1+528	 # PROF_edge_counter.16, *LPBX1
 235      00
 236 01eb 89151402 		movl	%edx, LPBX1+532	 # PROF_edge_counter.16, *LPBX1
 236      0000
 237              		.loc 1 119 0
 238 01f1 83C414   		addl	$20, %esp	 #,
 239              	LCFI3:
 240              		.cfi_def_cfa_offset 4
 241 01f4 C3       		ret
 242              		.cfi_endproc
 243              	LFE1:
 244              		.globl	_chEvtGetAndClearEvents
 245              		.def	_chEvtGetAndClearEvents;	.scl	2;	.type	32;	.endef
 246              	_chEvtGetAndClearEvents:
 247              	LFB2:
 248              		.loc 1 129 0
 249              		.cfi_startproc
 250 01f5 83EC14   		subl	$20, %esp	 #,
 251              	LCFI4:
 252              		.cfi_def_cfa_offset 24
 253              		.loc 1 129 0
 254 01f8 A1C80100 		movl	LPBX1+456, %eax	 # *LPBX1, PROF_edge_counter.15
 254      00
 255 01fd 8B15CC01 		movl	LPBX1+460, %edx	 # *LPBX1, PROF_edge_counter.15
 255      0000
 256 0203 83C001   		addl	$1, %eax	 #, PROF_edge_counter.15
 257 0206 83D200   		adcl	$0, %edx	 #, PROF_edge_counter.15
 258 0209 A3C80100 		movl	%eax, LPBX1+456	 # PROF_edge_counter.15, *LPBX1
 258      00
 259 020e 8915CC01 		movl	%edx, LPBX1+460	 # PROF_edge_counter.15, *LPBX1
 259      0000
 260              		.loc 1 132 0
 261              	/APP
 262              	 # 132 "../../os/kernel/src/chevents.c" 1
 263 0214 90       		nop
 264              	 # 0 "" 2
 265              	/NO_APP
 266 0215 A1D00100 		movl	LPBX1+464, %eax	 # *LPBX1, PROF_edge_counter.15
 266      00
 267 021a 8B15D401 		movl	LPBX1+468, %edx	 # *LPBX1, PROF_edge_counter.15
 267      0000
 268 0220 83C001   		addl	$1, %eax	 #, PROF_edge_counter.15
 269 0223 83D200   		adcl	$0, %edx	 #, PROF_edge_counter.15
 270 0226 A3D00100 		movl	%eax, LPBX1+464	 # PROF_edge_counter.15, *LPBX1
 270      00
 271 022b 8915D401 		movl	%edx, LPBX1+468	 # PROF_edge_counter.15, *LPBX1
 271      0000
 272              		.loc 1 134 0
 273 0231 A1180000 		movl	_rlist+24, %eax	 # rlist.r_current, D.2892
 273      00
 274 0236 8B4038   		movl	56(%eax), %eax	 # D.2892_1->p_epending, D.2893
 275 0239 23442418 		andl	24(%esp), %eax	 # mask, tmp74
 276 023d 8944240C 		movl	%eax, 12(%esp)	 # tmp74, m
 277              		.loc 1 135 0
 278 0241 A1180000 		movl	_rlist+24, %eax	 # rlist.r_current, D.2894
 278      00
GAS LISTING C:\cygwin\tmp\ccRh0JUa.s 			page 7


 279 0246 8B151800 		movl	_rlist+24, %edx	 # rlist.r_current, D.2895
 279      0000
 280 024c 8B5238   		movl	56(%edx), %edx	 # D.2895_6->p_epending, D.2896
 281 024f 8B4C2418 		movl	24(%esp), %ecx	 # mask, tmp75
 282 0253 F7D1     		notl	%ecx	 # D.2897
 283 0255 21CA     		andl	%ecx, %edx	 # D.2897, D.2898
 284 0257 895038   		movl	%edx, 56(%eax)	 # D.2898, D.2894_5->p_epending
 285              		.loc 1 137 0
 286              	/APP
 287              	 # 137 "../../os/kernel/src/chevents.c" 1
 288 025a 90       		nop
 289              	 # 0 "" 2
 290              	/NO_APP
 291 025b A1D80100 		movl	LPBX1+472, %eax	 # *LPBX1, PROF_edge_counter.15
 291      00
 292 0260 8B15DC01 		movl	LPBX1+476, %edx	 # *LPBX1, PROF_edge_counter.15
 292      0000
 293 0266 83C001   		addl	$1, %eax	 #, PROF_edge_counter.15
 294 0269 83D200   		adcl	$0, %edx	 #, PROF_edge_counter.15
 295 026c A3D80100 		movl	%eax, LPBX1+472	 # PROF_edge_counter.15, *LPBX1
 295      00
 296 0271 8915DC01 		movl	%edx, LPBX1+476	 # PROF_edge_counter.15, *LPBX1
 296      0000
 297              		.loc 1 138 0
 298 0277 8B44240C 		movl	12(%esp), %eax	 # m, D.2899
 299              		.loc 1 139 0
 300 027b 83C414   		addl	$20, %esp	 #,
 301              	LCFI5:
 302              		.cfi_def_cfa_offset 4
 303 027e C3       		ret
 304              		.cfi_endproc
 305              	LFE2:
 306              		.globl	_chEvtAddEvents
 307              		.def	_chEvtAddEvents;	.scl	2;	.type	32;	.endef
 308              	_chEvtAddEvents:
 309              	LFB3:
 310              		.loc 1 150 0
 311              		.cfi_startproc
 312 027f 83EC04   		subl	$4, %esp	 #,
 313              	LCFI6:
 314              		.cfi_def_cfa_offset 8
 315              		.loc 1 150 0
 316 0282 A1B00100 		movl	LPBX1+432, %eax	 # *LPBX1, PROF_edge_counter.14
 316      00
 317 0287 8B15B401 		movl	LPBX1+436, %edx	 # *LPBX1, PROF_edge_counter.14
 317      0000
 318 028d 83C001   		addl	$1, %eax	 #, PROF_edge_counter.14
 319 0290 83D200   		adcl	$0, %edx	 #, PROF_edge_counter.14
 320 0293 A3B00100 		movl	%eax, LPBX1+432	 # PROF_edge_counter.14, *LPBX1
 320      00
 321 0298 8915B401 		movl	%edx, LPBX1+436	 # PROF_edge_counter.14, *LPBX1
 321      0000
 322              		.loc 1 152 0
 323              	/APP
 324              	 # 152 "../../os/kernel/src/chevents.c" 1
 325 029e 90       		nop
 326              	 # 0 "" 2
GAS LISTING C:\cygwin\tmp\ccRh0JUa.s 			page 8


 327              	/NO_APP
 328 029f A1B80100 		movl	LPBX1+440, %eax	 # *LPBX1, PROF_edge_counter.14
 328      00
 329 02a4 8B15BC01 		movl	LPBX1+444, %edx	 # *LPBX1, PROF_edge_counter.14
 329      0000
 330 02aa 83C001   		addl	$1, %eax	 #, PROF_edge_counter.14
 331 02ad 83D200   		adcl	$0, %edx	 #, PROF_edge_counter.14
 332 02b0 A3B80100 		movl	%eax, LPBX1+440	 # PROF_edge_counter.14, *LPBX1
 332      00
 333 02b5 8915BC01 		movl	%edx, LPBX1+444	 # PROF_edge_counter.14, *LPBX1
 333      0000
 334              		.loc 1 154 0
 335 02bb A1180000 		movl	_rlist+24, %eax	 # rlist.r_current, D.2886
 335      00
 336 02c0 8B151800 		movl	_rlist+24, %edx	 # rlist.r_current, D.2887
 336      0000
 337 02c6 8B5238   		movl	56(%edx), %edx	 # D.2887_2->p_epending, D.2888
 338 02c9 0B542408 		orl	8(%esp), %edx	 # mask, D.2889
 339 02cd 895038   		movl	%edx, 56(%eax)	 # D.2889, D.2886_1->p_epending
 340 02d0 8B4038   		movl	56(%eax), %eax	 # D.2886_1->p_epending, tmp71
 341 02d3 89442408 		movl	%eax, 8(%esp)	 # tmp71, mask
 342              		.loc 1 156 0
 343              	/APP
 344              	 # 156 "../../os/kernel/src/chevents.c" 1
 345 02d7 90       		nop
 346              	 # 0 "" 2
 347              	/NO_APP
 348 02d8 A1C00100 		movl	LPBX1+448, %eax	 # *LPBX1, PROF_edge_counter.14
 348      00
 349 02dd 8B15C401 		movl	LPBX1+452, %edx	 # *LPBX1, PROF_edge_counter.14
 349      0000
 350 02e3 83C001   		addl	$1, %eax	 #, PROF_edge_counter.14
 351 02e6 83D200   		adcl	$0, %edx	 #, PROF_edge_counter.14
 352 02e9 A3C00100 		movl	%eax, LPBX1+448	 # PROF_edge_counter.14, *LPBX1
 352      00
 353 02ee 8915C401 		movl	%edx, LPBX1+452	 # PROF_edge_counter.14, *LPBX1
 353      0000
 354              		.loc 1 157 0
 355 02f4 8B442408 		movl	8(%esp), %eax	 # mask, D.2890
 356              		.loc 1 158 0
 357 02f8 83C404   		addl	$4, %esp	 #,
 358              	LCFI7:
 359              		.cfi_def_cfa_offset 4
 360 02fb C3       		ret
 361              		.cfi_endproc
 362              	LFE3:
 363              		.globl	_chEvtBroadcastFlagsI
 364              		.def	_chEvtBroadcastFlagsI;	.scl	2;	.type	32;	.endef
 365              	_chEvtBroadcastFlagsI:
 366              	LFB4:
 367              		.loc 1 177 0
 368              		.cfi_startproc
 369 02fc 83EC2C   		subl	$44, %esp	 #,
 370              	LCFI8:
 371              		.cfi_def_cfa_offset 48
 372              		.loc 1 183 0
 373 02ff 8B442430 		movl	48(%esp), %eax	 # esp, tmp69
GAS LISTING C:\cygwin\tmp\ccRh0JUa.s 			page 9


 374 0303 8B00     		movl	(%eax), %eax	 # esp_2(D)->es_next, tmp70
 375 0305 8944241C 		movl	%eax, 28(%esp)	 # tmp70, elp
 376              		.loc 1 184 0
 377 0309 EB70     		jmp	L14	 #
 378              	L15:
 379 030b A1A00100 		movl	LPBX1+416, %eax	 # *LPBX1, PROF_edge_counter.13
 379      00
 380 0310 8B15A401 		movl	LPBX1+420, %edx	 # *LPBX1, PROF_edge_counter.13
 380      0000
 381 0316 83C001   		addl	$1, %eax	 #, PROF_edge_counter.13
 382 0319 83D200   		adcl	$0, %edx	 #, PROF_edge_counter.13
 383 031c A3A00100 		movl	%eax, LPBX1+416	 # PROF_edge_counter.13, *LPBX1
 383      00
 384 0321 8915A401 		movl	%edx, LPBX1+420	 # PROF_edge_counter.13, *LPBX1
 384      0000
 385              		.loc 1 185 0
 386 0327 8B44241C 		movl	28(%esp), %eax	 # elp, tmp71
 387 032b 8B400C   		movl	12(%eax), %eax	 # elp_1->el_flags, D.2882
 388 032e 89C2     		movl	%eax, %edx	 # D.2882, D.2883
 389 0330 0B542434 		orl	52(%esp), %edx	 # flags, D.2883
 390 0334 8B44241C 		movl	28(%esp), %eax	 # elp, tmp72
 391 0338 89500C   		movl	%edx, 12(%eax)	 # D.2883, elp_1->el_flags
 392              		.loc 1 186 0
 393 033b 8B44241C 		movl	28(%esp), %eax	 # elp, tmp73
 394 033f 8B5008   		movl	8(%eax), %edx	 # elp_1->el_mask, D.2884
 395 0342 8B44241C 		movl	28(%esp), %eax	 # elp, tmp74
 396 0346 8B4004   		movl	4(%eax), %eax	 # elp_1->el_listener, D.2885
 397 0349 89542404 		movl	%edx, 4(%esp)	 # D.2884,
 398 034d 890424   		movl	%eax, (%esp)	 # D.2885,
 399 0350 E8750100 		call	_chEvtSignalI	 #
 399      00
 400              		.loc 1 187 0
 401 0355 8B44241C 		movl	28(%esp), %eax	 # elp, tmp75
 402 0359 8B00     		movl	(%eax), %eax	 # elp_1->el_next, tmp76
 403 035b 8944241C 		movl	%eax, 28(%esp)	 # tmp76, elp
 404 035f A1980100 		movl	LPBX1+408, %eax	 # *LPBX1, PROF_edge_counter.13
 404      00
 405 0364 8B159C01 		movl	LPBX1+412, %edx	 # *LPBX1, PROF_edge_counter.13
 405      0000
 406 036a 83C001   		addl	$1, %eax	 #, PROF_edge_counter.13
 407 036d 83D200   		adcl	$0, %edx	 #, PROF_edge_counter.13
 408 0370 A3980100 		movl	%eax, LPBX1+408	 # PROF_edge_counter.13, *LPBX1
 408      00
 409 0375 89159C01 		movl	%edx, LPBX1+412	 # PROF_edge_counter.13, *LPBX1
 409      0000
 410              	L14:
 411              		.loc 1 184 0 discriminator 1
 412 037b 8B44241C 		movl	28(%esp), %eax	 # elp, tmp77
 413 037f 3B442430 		cmpl	48(%esp), %eax	 # esp, tmp77
 414 0383 7586     		jne	L15	 #,
 415              		.loc 1 184 0 is_stmt 0
 416 0385 A1A80100 		movl	LPBX1+424, %eax	 # *LPBX1, PROF_edge_counter.13
 416      00
 417 038a 8B15AC01 		movl	LPBX1+428, %edx	 # *LPBX1, PROF_edge_counter.13
 417      0000
 418 0390 83C001   		addl	$1, %eax	 #, PROF_edge_counter.13
 419 0393 83D200   		adcl	$0, %edx	 #, PROF_edge_counter.13
GAS LISTING C:\cygwin\tmp\ccRh0JUa.s 			page 10


 420 0396 A3A80100 		movl	%eax, LPBX1+424	 # PROF_edge_counter.13, *LPBX1
 420      00
 421 039b 8915AC01 		movl	%edx, LPBX1+428	 # PROF_edge_counter.13, *LPBX1
 421      0000
 422              		.loc 1 189 0 is_stmt 1
 423 03a1 83C42C   		addl	$44, %esp	 #,
 424              	LCFI9:
 425              		.cfi_def_cfa_offset 4
 426 03a4 C3       		ret
 427              		.cfi_endproc
 428              	LFE4:
 429              		.globl	_chEvtGetAndClearFlags
 430              		.def	_chEvtGetAndClearFlags;	.scl	2;	.type	32;	.endef
 431              	_chEvtGetAndClearFlags:
 432              	LFB5:
 433              		.loc 1 202 0
 434              		.cfi_startproc
 435 03a5 83EC14   		subl	$20, %esp	 #,
 436              	LCFI10:
 437              		.cfi_def_cfa_offset 24
 438              		.loc 1 202 0
 439 03a8 A1800100 		movl	LPBX1+384, %eax	 # *LPBX1, PROF_edge_counter.12
 439      00
 440 03ad 8B158401 		movl	LPBX1+388, %edx	 # *LPBX1, PROF_edge_counter.12
 440      0000
 441 03b3 83C001   		addl	$1, %eax	 #, PROF_edge_counter.12
 442 03b6 83D200   		adcl	$0, %edx	 #, PROF_edge_counter.12
 443 03b9 A3800100 		movl	%eax, LPBX1+384	 # PROF_edge_counter.12, *LPBX1
 443      00
 444 03be 89158401 		movl	%edx, LPBX1+388	 # PROF_edge_counter.12, *LPBX1
 444      0000
 445              		.loc 1 205 0
 446              	/APP
 447              	 # 205 "../../os/kernel/src/chevents.c" 1
 448 03c4 90       		nop
 449              	 # 0 "" 2
 450              	/NO_APP
 451 03c5 A1880100 		movl	LPBX1+392, %eax	 # *LPBX1, PROF_edge_counter.12
 451      00
 452 03ca 8B158C01 		movl	LPBX1+396, %edx	 # *LPBX1, PROF_edge_counter.12
 452      0000
 453 03d0 83C001   		addl	$1, %eax	 #, PROF_edge_counter.12
 454 03d3 83D200   		adcl	$0, %edx	 #, PROF_edge_counter.12
 455 03d6 A3880100 		movl	%eax, LPBX1+392	 # PROF_edge_counter.12, *LPBX1
 455      00
 456 03db 89158C01 		movl	%edx, LPBX1+396	 # PROF_edge_counter.12, *LPBX1
 456      0000
 457              		.loc 1 207 0
 458 03e1 8B442418 		movl	24(%esp), %eax	 # elp, tmp67
 459 03e5 8B400C   		movl	12(%eax), %eax	 # elp_1(D)->el_flags, tmp68
 460 03e8 8944240C 		movl	%eax, 12(%esp)	 # tmp68, flags
 461              		.loc 1 208 0
 462 03ec 8B442418 		movl	24(%esp), %eax	 # elp, tmp69
 463 03f0 C7400C00 		movl	$0, 12(%eax)	 #, elp_1(D)->el_flags
 463      000000
 464              		.loc 1 210 0
 465              	/APP
GAS LISTING C:\cygwin\tmp\ccRh0JUa.s 			page 11


 466              	 # 210 "../../os/kernel/src/chevents.c" 1
 467 03f7 90       		nop
 468              	 # 0 "" 2
 469              	/NO_APP
 470 03f8 A1900100 		movl	LPBX1+400, %eax	 # *LPBX1, PROF_edge_counter.12
 470      00
 471 03fd 8B159401 		movl	LPBX1+404, %edx	 # *LPBX1, PROF_edge_counter.12
 471      0000
 472 0403 83C001   		addl	$1, %eax	 #, PROF_edge_counter.12
 473 0406 83D200   		adcl	$0, %edx	 #, PROF_edge_counter.12
 474 0409 A3900100 		movl	%eax, LPBX1+400	 # PROF_edge_counter.12, *LPBX1
 474      00
 475 040e 89159401 		movl	%edx, LPBX1+404	 # PROF_edge_counter.12, *LPBX1
 475      0000
 476              		.loc 1 211 0
 477 0414 8B44240C 		movl	12(%esp), %eax	 # flags, D.2877
 478              		.loc 1 212 0
 479 0418 83C414   		addl	$20, %esp	 #,
 480              	LCFI11:
 481              		.cfi_def_cfa_offset 4
 482 041b C3       		ret
 483              		.cfi_endproc
 484              	LFE5:
 485              		.globl	_chEvtSignal
 486              		.def	_chEvtSignal;	.scl	2;	.type	32;	.endef
 487              	_chEvtSignal:
 488              	LFB6:
 489              		.loc 1 222 0
 490              		.cfi_startproc
 491 041c 83EC1C   		subl	$28, %esp	 #,
 492              	LCFI12:
 493              		.cfi_def_cfa_offset 32
 494              		.loc 1 222 0
 495 041f A1580100 		movl	LPBX1+344, %eax	 # *LPBX1, PROF_edge_counter.11
 495      00
 496 0424 8B155C01 		movl	LPBX1+348, %edx	 # *LPBX1, PROF_edge_counter.11
 496      0000
 497 042a 83C001   		addl	$1, %eax	 #, PROF_edge_counter.11
 498 042d 83D200   		adcl	$0, %edx	 #, PROF_edge_counter.11
 499 0430 A3580100 		movl	%eax, LPBX1+344	 # PROF_edge_counter.11, *LPBX1
 499      00
 500 0435 89155C01 		movl	%edx, LPBX1+348	 # PROF_edge_counter.11, *LPBX1
 500      0000
 501              		.loc 1 226 0
 502              	/APP
 503              	 # 226 "../../os/kernel/src/chevents.c" 1
 504 043b 90       		nop
 505              	 # 0 "" 2
 506              	/NO_APP
 507 043c A1600100 		movl	LPBX1+352, %eax	 # *LPBX1, PROF_edge_counter.11
 507      00
 508 0441 8B156401 		movl	LPBX1+356, %edx	 # *LPBX1, PROF_edge_counter.11
 508      0000
 509 0447 83C001   		addl	$1, %eax	 #, PROF_edge_counter.11
 510 044a 83D200   		adcl	$0, %edx	 #, PROF_edge_counter.11
 511 044d A3600100 		movl	%eax, LPBX1+352	 # PROF_edge_counter.11, *LPBX1
 511      00
GAS LISTING C:\cygwin\tmp\ccRh0JUa.s 			page 12


 512 0452 89156401 		movl	%edx, LPBX1+356	 # PROF_edge_counter.11, *LPBX1
 512      0000
 513              		.loc 1 227 0
 514 0458 8B442424 		movl	36(%esp), %eax	 # mask, tmp69
 515 045c 89442404 		movl	%eax, 4(%esp)	 # tmp69,
 516 0460 8B442420 		movl	32(%esp), %eax	 # tp, tmp70
 517 0464 890424   		movl	%eax, (%esp)	 # tmp70,
 518 0467 E85E0000 		call	_chEvtSignalI	 #
 518      00
 519 046c A1680100 		movl	LPBX1+360, %eax	 # *LPBX1, PROF_edge_counter.11
 519      00
 520 0471 8B156C01 		movl	LPBX1+364, %edx	 # *LPBX1, PROF_edge_counter.11
 520      0000
 521 0477 83C001   		addl	$1, %eax	 #, PROF_edge_counter.11
 522 047a 83D200   		adcl	$0, %edx	 #, PROF_edge_counter.11
 523 047d A3680100 		movl	%eax, LPBX1+360	 # PROF_edge_counter.11, *LPBX1
 523      00
 524 0482 89156C01 		movl	%edx, LPBX1+364	 # PROF_edge_counter.11, *LPBX1
 524      0000
 525              		.loc 1 228 0
 526 0488 E8000000 		call	_chSchRescheduleS	 #
 526      00
 527 048d A1700100 		movl	LPBX1+368, %eax	 # *LPBX1, PROF_edge_counter.11
 527      00
 528 0492 8B157401 		movl	LPBX1+372, %edx	 # *LPBX1, PROF_edge_counter.11
 528      0000
 529 0498 83C001   		addl	$1, %eax	 #, PROF_edge_counter.11
 530 049b 83D200   		adcl	$0, %edx	 #, PROF_edge_counter.11
 531 049e A3700100 		movl	%eax, LPBX1+368	 # PROF_edge_counter.11, *LPBX1
 531      00
 532 04a3 89157401 		movl	%edx, LPBX1+372	 # PROF_edge_counter.11, *LPBX1
 532      0000
 533              		.loc 1 229 0
 534              	/APP
 535              	 # 229 "../../os/kernel/src/chevents.c" 1
 536 04a9 90       		nop
 537              	 # 0 "" 2
 538              	/NO_APP
 539 04aa A1780100 		movl	LPBX1+376, %eax	 # *LPBX1, PROF_edge_counter.11
 539      00
 540 04af 8B157C01 		movl	LPBX1+380, %edx	 # *LPBX1, PROF_edge_counter.11
 540      0000
 541 04b5 83C001   		addl	$1, %eax	 #, PROF_edge_counter.11
 542 04b8 83D200   		adcl	$0, %edx	 #, PROF_edge_counter.11
 543 04bb A3780100 		movl	%eax, LPBX1+376	 # PROF_edge_counter.11, *LPBX1
 543      00
 544 04c0 89157C01 		movl	%edx, LPBX1+380	 # PROF_edge_counter.11, *LPBX1
 544      0000
 545              		.loc 1 230 0
 546 04c6 83C41C   		addl	$28, %esp	 #,
 547              	LCFI13:
 548              		.cfi_def_cfa_offset 4
 549 04c9 C3       		ret
 550              		.cfi_endproc
 551              	LFE6:
 552              		.globl	_chEvtSignalI
 553              		.def	_chEvtSignalI;	.scl	2;	.type	32;	.endef
GAS LISTING C:\cygwin\tmp\ccRh0JUa.s 			page 13


 554              	_chEvtSignalI:
 555              	LFB7:
 556              		.loc 1 244 0
 557              		.cfi_startproc
 558 04ca 83EC1C   		subl	$28, %esp	 #,
 559              	LCFI14:
 560              		.cfi_def_cfa_offset 32
 561              		.loc 1 244 0
 562 04cd A1280100 		movl	LPBX1+296, %eax	 # *LPBX1, PROF_edge_counter.10
 562      00
 563 04d2 8B152C01 		movl	LPBX1+300, %edx	 # *LPBX1, PROF_edge_counter.10
 563      0000
 564 04d8 83C001   		addl	$1, %eax	 #, PROF_edge_counter.10
 565 04db 83D200   		adcl	$0, %edx	 #, PROF_edge_counter.10
 566 04de A3280100 		movl	%eax, LPBX1+296	 # PROF_edge_counter.10, *LPBX1
 566      00
 567 04e3 89152C01 		movl	%edx, LPBX1+300	 # PROF_edge_counter.10, *LPBX1
 567      0000
 568              		.loc 1 249 0
 569 04e9 8B442420 		movl	32(%esp), %eax	 # tp, tmp83
 570 04ed 8B4038   		movl	56(%eax), %eax	 # tp_1(D)->p_epending, D.2857
 571 04f0 89C2     		movl	%eax, %edx	 # D.2857, D.2858
 572 04f2 0B542424 		orl	36(%esp), %edx	 # mask, D.2858
 573 04f6 8B442420 		movl	32(%esp), %eax	 # tp, tmp84
 574 04fa 895038   		movl	%edx, 56(%eax)	 # D.2858, tp_1(D)->p_epending
 575              		.loc 1 251 0
 576 04fd 8B442420 		movl	32(%esp), %eax	 # tp, tmp85
 577 0501 8A401C   		movb	28(%eax), %al	 # tp_1(D)->p_state, D.2862
 578 0504 3C08     		cmpb	$8, %al	 #, D.2862
 579 0506 7534     		jne	L19	 #,
 580              		.loc 1 251 0 is_stmt 0 discriminator 1
 581 0508 A1300100 		movl	LPBX1+304, %eax	 # *LPBX1, PROF_edge_counter.10
 581      00
 582 050d 8B153401 		movl	LPBX1+308, %edx	 # *LPBX1, PROF_edge_counter.10
 582      0000
 583 0513 83C001   		addl	$1, %eax	 #, PROF_edge_counter.10
 584 0516 83D200   		adcl	$0, %edx	 #, PROF_edge_counter.10
 585 0519 A3300100 		movl	%eax, LPBX1+304	 # PROF_edge_counter.10, *LPBX1
 585      00
 586 051e 89153401 		movl	%edx, LPBX1+308	 # PROF_edge_counter.10, *LPBX1
 586      0000
 587              		.loc 1 252 0 is_stmt 1 discriminator 1
 588 0524 8B442420 		movl	32(%esp), %eax	 # tp, tmp86
 589 0528 8B5038   		movl	56(%eax), %edx	 # tp_1(D)->p_epending, D.2864
 590 052b 8B442420 		movl	32(%esp), %eax	 # tp, tmp87
 591 052f 8B4024   		movl	36(%eax), %eax	 # tp_1(D)->p_u.ewmask, D.2865
 592 0532 21D0     		andl	%edx, %eax	 # D.2864, D.2866
 593              		.loc 1 251 0 discriminator 1
 594 0534 85C0     		testl	%eax, %eax	 # D.2866
 595 0536 0F858100 		jne	L20	 #,
 595      0000
 596              	L19:
 597              		.loc 1 253 0
 598 053c 8B442420 		movl	32(%esp), %eax	 # tp, tmp88
 599 0540 8A401C   		movb	28(%eax), %al	 # tp_1(D)->p_state, D.2867
 600              		.loc 1 252 0
 601 0543 3C09     		cmpb	$9, %al	 #, D.2867
GAS LISTING C:\cygwin\tmp\ccRh0JUa.s 			page 14


 602 0545 7421     		je	L21	 #,
 603 0547 A1400100 		movl	LPBX1+320, %eax	 # *LPBX1, PROF_edge_counter.10
 603      00
 604 054c 8B154401 		movl	LPBX1+324, %edx	 # *LPBX1, PROF_edge_counter.10
 604      0000
 605 0552 83C001   		addl	$1, %eax	 #, PROF_edge_counter.10
 606 0555 83D200   		adcl	$0, %edx	 #, PROF_edge_counter.10
 607 0558 A3400100 		movl	%eax, LPBX1+320	 # PROF_edge_counter.10, *LPBX1
 607      00
 608 055d 89154401 		movl	%edx, LPBX1+324	 # PROF_edge_counter.10, *LPBX1
 608      0000
 609 0563 E9840000 		jmp	L18	 #
 609      00
 610              	L21:
 611 0568 A1380100 		movl	LPBX1+312, %eax	 # *LPBX1, PROF_edge_counter.10
 611      00
 612 056d 8B153C01 		movl	LPBX1+316, %edx	 # *LPBX1, PROF_edge_counter.10
 612      0000
 613 0573 83C001   		addl	$1, %eax	 #, PROF_edge_counter.10
 614 0576 83D200   		adcl	$0, %edx	 #, PROF_edge_counter.10
 615 0579 A3380100 		movl	%eax, LPBX1+312	 # PROF_edge_counter.10, *LPBX1
 615      00
 616 057e 89153C01 		movl	%edx, LPBX1+316	 # PROF_edge_counter.10, *LPBX1
 616      0000
 617              		.loc 1 254 0
 618 0584 8B442420 		movl	32(%esp), %eax	 # tp, tmp89
 619 0588 8B5038   		movl	56(%eax), %edx	 # tp_1(D)->p_epending, D.2869
 620 058b 8B442420 		movl	32(%esp), %eax	 # tp, tmp90
 621 058f 8B4024   		movl	36(%eax), %eax	 # tp_1(D)->p_u.ewmask, D.2870
 622 0592 21C2     		andl	%eax, %edx	 # D.2870, D.2871
 623 0594 8B442420 		movl	32(%esp), %eax	 # tp, tmp91
 624 0598 8B4024   		movl	36(%eax), %eax	 # tp_1(D)->p_u.ewmask, D.2872
 625              		.loc 1 253 0
 626 059b 39C2     		cmpl	%eax, %edx	 # D.2872, D.2871
 627 059d 741E     		je	L20	 #,
 628 059f A1480100 		movl	LPBX1+328, %eax	 # *LPBX1, PROF_edge_counter.10
 628      00
 629 05a4 8B154C01 		movl	LPBX1+332, %edx	 # *LPBX1, PROF_edge_counter.10
 629      0000
 630 05aa 83C001   		addl	$1, %eax	 #, PROF_edge_counter.10
 631 05ad 83D200   		adcl	$0, %edx	 #, PROF_edge_counter.10
 632 05b0 A3480100 		movl	%eax, LPBX1+328	 # PROF_edge_counter.10, *LPBX1
 632      00
 633 05b5 89154C01 		movl	%edx, LPBX1+332	 # PROF_edge_counter.10, *LPBX1
 633      0000
 634 05bb EB2F     		jmp	L18	 #
 635              	L20:
 636              		.loc 1 255 0
 637 05bd 8B442420 		movl	32(%esp), %eax	 # tp, tmp92
 638 05c1 890424   		movl	%eax, (%esp)	 # tmp92,
 639 05c4 E8000000 		call	_chSchReadyI	 #
 639      00
 640 05c9 C7402400 		movl	$0, 36(%eax)	 #, D.2873_14->p_u.rdymsg
 640      000000
 641 05d0 A1500100 		movl	LPBX1+336, %eax	 # *LPBX1, PROF_edge_counter.10
 641      00
 642 05d5 8B155401 		movl	LPBX1+340, %edx	 # *LPBX1, PROF_edge_counter.10
GAS LISTING C:\cygwin\tmp\ccRh0JUa.s 			page 15


 642      0000
 643 05db 83C001   		addl	$1, %eax	 #, PROF_edge_counter.10
 644 05de 83D200   		adcl	$0, %edx	 #, PROF_edge_counter.10
 645 05e1 A3500100 		movl	%eax, LPBX1+336	 # PROF_edge_counter.10, *LPBX1
 645      00
 646 05e6 89155401 		movl	%edx, LPBX1+340	 # PROF_edge_counter.10, *LPBX1
 646      0000
 647              	L18:
 648              		.loc 1 256 0
 649 05ec 83C41C   		addl	$28, %esp	 #,
 650              	LCFI15:
 651              		.cfi_def_cfa_offset 4
 652 05ef C3       		ret
 653              		.cfi_endproc
 654              	LFE7:
 655              		.globl	_chEvtBroadcastFlags
 656              		.def	_chEvtBroadcastFlags;	.scl	2;	.type	32;	.endef
 657              	_chEvtBroadcastFlags:
 658              	LFB8:
 659              		.loc 1 271 0
 660              		.cfi_startproc
 661 05f0 83EC1C   		subl	$28, %esp	 #,
 662              	LCFI16:
 663              		.cfi_def_cfa_offset 32
 664              		.loc 1 271 0
 665 05f3 A1000100 		movl	LPBX1+256, %eax	 # *LPBX1, PROF_edge_counter.9
 665      00
 666 05f8 8B150401 		movl	LPBX1+260, %edx	 # *LPBX1, PROF_edge_counter.9
 666      0000
 667 05fe 83C001   		addl	$1, %eax	 #, PROF_edge_counter.9
 668 0601 83D200   		adcl	$0, %edx	 #, PROF_edge_counter.9
 669 0604 A3000100 		movl	%eax, LPBX1+256	 # PROF_edge_counter.9, *LPBX1
 669      00
 670 0609 89150401 		movl	%edx, LPBX1+260	 # PROF_edge_counter.9, *LPBX1
 670      0000
 671              		.loc 1 273 0
 672              	/APP
 673              	 # 273 "../../os/kernel/src/chevents.c" 1
 674 060f 90       		nop
 675              	 # 0 "" 2
 676              	/NO_APP
 677 0610 A1080100 		movl	LPBX1+264, %eax	 # *LPBX1, PROF_edge_counter.9
 677      00
 678 0615 8B150C01 		movl	LPBX1+268, %edx	 # *LPBX1, PROF_edge_counter.9
 678      0000
 679 061b 83C001   		addl	$1, %eax	 #, PROF_edge_counter.9
 680 061e 83D200   		adcl	$0, %edx	 #, PROF_edge_counter.9
 681 0621 A3080100 		movl	%eax, LPBX1+264	 # PROF_edge_counter.9, *LPBX1
 681      00
 682 0626 89150C01 		movl	%edx, LPBX1+268	 # PROF_edge_counter.9, *LPBX1
 682      0000
 683              		.loc 1 274 0
 684 062c 8B442424 		movl	36(%esp), %eax	 # flags, tmp69
 685 0630 89442404 		movl	%eax, 4(%esp)	 # tmp69,
 686 0634 8B442420 		movl	32(%esp), %eax	 # esp, tmp70
 687 0638 890424   		movl	%eax, (%esp)	 # tmp70,
 688 063b E8BCFCFF 		call	_chEvtBroadcastFlagsI	 #
GAS LISTING C:\cygwin\tmp\ccRh0JUa.s 			page 16


 688      FF
 689 0640 A1100100 		movl	LPBX1+272, %eax	 # *LPBX1, PROF_edge_counter.9
 689      00
 690 0645 8B151401 		movl	LPBX1+276, %edx	 # *LPBX1, PROF_edge_counter.9
 690      0000
 691 064b 83C001   		addl	$1, %eax	 #, PROF_edge_counter.9
 692 064e 83D200   		adcl	$0, %edx	 #, PROF_edge_counter.9
 693 0651 A3100100 		movl	%eax, LPBX1+272	 # PROF_edge_counter.9, *LPBX1
 693      00
 694 0656 89151401 		movl	%edx, LPBX1+276	 # PROF_edge_counter.9, *LPBX1
 694      0000
 695              		.loc 1 275 0
 696 065c E8000000 		call	_chSchRescheduleS	 #
 696      00
 697 0661 A1180100 		movl	LPBX1+280, %eax	 # *LPBX1, PROF_edge_counter.9
 697      00
 698 0666 8B151C01 		movl	LPBX1+284, %edx	 # *LPBX1, PROF_edge_counter.9
 698      0000
 699 066c 83C001   		addl	$1, %eax	 #, PROF_edge_counter.9
 700 066f 83D200   		adcl	$0, %edx	 #, PROF_edge_counter.9
 701 0672 A3180100 		movl	%eax, LPBX1+280	 # PROF_edge_counter.9, *LPBX1
 701      00
 702 0677 89151C01 		movl	%edx, LPBX1+284	 # PROF_edge_counter.9, *LPBX1
 702      0000
 703              		.loc 1 276 0
 704              	/APP
 705              	 # 276 "../../os/kernel/src/chevents.c" 1
 706 067d 90       		nop
 707              	 # 0 "" 2
 708              	/NO_APP
 709 067e A1200100 		movl	LPBX1+288, %eax	 # *LPBX1, PROF_edge_counter.9
 709      00
 710 0683 8B152401 		movl	LPBX1+292, %edx	 # *LPBX1, PROF_edge_counter.9
 710      0000
 711 0689 83C001   		addl	$1, %eax	 #, PROF_edge_counter.9
 712 068c 83D200   		adcl	$0, %edx	 #, PROF_edge_counter.9
 713 068f A3200100 		movl	%eax, LPBX1+288	 # PROF_edge_counter.9, *LPBX1
 713      00
 714 0694 89152401 		movl	%edx, LPBX1+292	 # PROF_edge_counter.9, *LPBX1
 714      0000
 715              		.loc 1 277 0
 716 069a 83C41C   		addl	$28, %esp	 #,
 717              	LCFI17:
 718              		.cfi_def_cfa_offset 4
 719 069d C3       		ret
 720              		.cfi_endproc
 721              	LFE8:
 722              		.globl	_chEvtGetAndClearFlagsI
 723              		.def	_chEvtGetAndClearFlagsI;	.scl	2;	.type	32;	.endef
 724              	_chEvtGetAndClearFlagsI:
 725              	LFB9:
 726              		.loc 1 290 0
 727              		.cfi_startproc
 728 069e 83EC14   		subl	$20, %esp	 #,
 729              	LCFI18:
 730              		.cfi_def_cfa_offset 24
 731              		.loc 1 290 0
GAS LISTING C:\cygwin\tmp\ccRh0JUa.s 			page 17


 732 06a1 A1F80000 		movl	LPBX1+248, %eax	 # *LPBX1, PROF_edge_counter.8
 732      00
 733 06a6 8B15FC00 		movl	LPBX1+252, %edx	 # *LPBX1, PROF_edge_counter.8
 733      0000
 734 06ac 83C001   		addl	$1, %eax	 #, PROF_edge_counter.8
 735 06af 83D200   		adcl	$0, %edx	 #, PROF_edge_counter.8
 736 06b2 A3F80000 		movl	%eax, LPBX1+248	 # PROF_edge_counter.8, *LPBX1
 736      00
 737 06b7 8915FC00 		movl	%edx, LPBX1+252	 # PROF_edge_counter.8, *LPBX1
 737      0000
 738              		.loc 1 293 0
 739 06bd 8B442418 		movl	24(%esp), %eax	 # elp, tmp63
 740 06c1 8B400C   		movl	12(%eax), %eax	 # elp_1(D)->el_flags, tmp64
 741 06c4 8944240C 		movl	%eax, 12(%esp)	 # tmp64, flags
 742              		.loc 1 294 0
 743 06c8 8B442418 		movl	24(%esp), %eax	 # elp, tmp65
 744 06cc C7400C00 		movl	$0, 12(%eax)	 #, elp_1(D)->el_flags
 744      000000
 745              		.loc 1 296 0
 746 06d3 8B44240C 		movl	12(%esp), %eax	 # flags, D.2852
 747              		.loc 1 297 0
 748 06d7 83C414   		addl	$20, %esp	 #,
 749              	LCFI19:
 750              		.cfi_def_cfa_offset 4
 751 06da C3       		ret
 752              		.cfi_endproc
 753              	LFE9:
 754              		.globl	_chEvtDispatch
 755              		.def	_chEvtDispatch;	.scl	2;	.type	32;	.endef
 756              	_chEvtDispatch:
 757              	LFB10:
 758              		.loc 1 308 0
 759              		.cfi_startproc
 760 06db 53       		pushl	%ebx	 #
 761              	LCFI20:
 762              		.cfi_def_cfa_offset 8
 763              		.cfi_offset 3, -8
 764 06dc 83EC28   		subl	$40, %esp	 #,
 765              	LCFI21:
 766              		.cfi_def_cfa_offset 48
 767              		.loc 1 313 0
 768 06df C744241C 		movl	$0, 28(%esp)	 #, eid
 768      00000000 
 769              		.loc 1 314 0
 770 06e7 E99E0000 		jmp	L26	 #
 770      00
 771              	L28:
 772 06ec A1E80000 		movl	LPBX1+232, %eax	 # *LPBX1, PROF_edge_counter.7
 772      00
 773 06f1 8B15EC00 		movl	LPBX1+236, %edx	 # *LPBX1, PROF_edge_counter.7
 773      0000
 774 06f7 83C001   		addl	$1, %eax	 #, PROF_edge_counter.7
 775 06fa 83D200   		adcl	$0, %edx	 #, PROF_edge_counter.7
 776 06fd A3E80000 		movl	%eax, LPBX1+232	 # PROF_edge_counter.7, *LPBX1
 776      00
 777 0702 8915EC00 		movl	%edx, LPBX1+236	 # PROF_edge_counter.7, *LPBX1
 777      0000
GAS LISTING C:\cygwin\tmp\ccRh0JUa.s 			page 18


 778              		.loc 1 315 0
 779 0708 8B44241C 		movl	28(%esp), %eax	 # eid, tmp81
 780 070c BA010000 		movl	$1, %edx	 #, tmp82
 780      00
 781 0711 89D3     		movl	%edx, %ebx	 # tmp82,
 782 0713 88C1     		movb	%al, %cl	 #,
 783 0715 D3E3     		sall	%cl, %ebx	 #,
 784 0717 89D8     		movl	%ebx, %eax	 #, D.2833
 785 0719 23442434 		andl	52(%esp), %eax	 # mask, D.2835
 786 071d 85C0     		testl	%eax, %eax	 # D.2835
 787 071f 7449     		je	L27	 #,
 788 0721 A1D80000 		movl	LPBX1+216, %eax	 # *LPBX1, PROF_edge_counter.7
 788      00
 789 0726 8B15DC00 		movl	LPBX1+220, %edx	 # *LPBX1, PROF_edge_counter.7
 789      0000
 790 072c 83C001   		addl	$1, %eax	 #, PROF_edge_counter.7
 791 072f 83D200   		adcl	$0, %edx	 #, PROF_edge_counter.7
 792 0732 A3D80000 		movl	%eax, LPBX1+216	 # PROF_edge_counter.7, *LPBX1
 792      00
 793 0737 8915DC00 		movl	%edx, LPBX1+220	 # PROF_edge_counter.7, *LPBX1
 793      0000
 794              		.loc 1 319 0
 795 073d 8B44241C 		movl	28(%esp), %eax	 # eid, tmp83
 796 0741 BA010000 		movl	$1, %edx	 #, tmp84
 796      00
 797 0746 89D3     		movl	%edx, %ebx	 # tmp84,
 798 0748 88C1     		movb	%al, %cl	 #,
 799 074a D3E3     		sall	%cl, %ebx	 #,
 800 074c 89D8     		movl	%ebx, %eax	 #, D.2845
 801 074e F7D0     		notl	%eax	 # D.2847
 802 0750 21442434 		andl	%eax, 52(%esp)	 # D.2847, mask
 803              		.loc 1 320 0
 804 0754 8B44241C 		movl	28(%esp), %eax	 # eid, eid.1
 805 0758 C1E002   		sall	$2, %eax	 #, D.2849
 806 075b 03442430 		addl	48(%esp), %eax	 # handlers, D.2850
 807 075f 8B10     		movl	(%eax), %edx	 # *D.2850_20, D.2851
 808 0761 8B44241C 		movl	28(%esp), %eax	 # eid, tmp85
 809 0765 890424   		movl	%eax, (%esp)	 # tmp85,
 810 0768 FFD2     		call	*%edx	 # D.2851
 811              	L27:
 812              		.loc 1 322 0
 813 076a FF44241C 		incl	28(%esp)	 # eid
 814 076e A1E00000 		movl	LPBX1+224, %eax	 # *LPBX1, PROF_edge_counter.7
 814      00
 815 0773 8B15E400 		movl	LPBX1+228, %edx	 # *LPBX1, PROF_edge_counter.7
 815      0000
 816 0779 83C001   		addl	$1, %eax	 #, PROF_edge_counter.7
 817 077c 83D200   		adcl	$0, %edx	 #, PROF_edge_counter.7
 818 077f A3E00000 		movl	%eax, LPBX1+224	 # PROF_edge_counter.7, *LPBX1
 818      00
 819 0784 8915E400 		movl	%edx, LPBX1+228	 # PROF_edge_counter.7, *LPBX1
 819      0000
 820              	L26:
 821              		.loc 1 314 0 discriminator 1
 822 078a 837C2434 		cmpl	$0, 52(%esp)	 #, mask
 822      00
 823 078f 0F8557FF 		jne	L28	 #,
GAS LISTING C:\cygwin\tmp\ccRh0JUa.s 			page 19


 823      FFFF
 824              		.loc 1 314 0 is_stmt 0
 825 0795 A1F00000 		movl	LPBX1+240, %eax	 # *LPBX1, PROF_edge_counter.7
 825      00
 826 079a 8B15F400 		movl	LPBX1+244, %edx	 # *LPBX1, PROF_edge_counter.7
 826      0000
 827 07a0 83C001   		addl	$1, %eax	 #, PROF_edge_counter.7
 828 07a3 83D200   		adcl	$0, %edx	 #, PROF_edge_counter.7
 829 07a6 A3F00000 		movl	%eax, LPBX1+240	 # PROF_edge_counter.7, *LPBX1
 829      00
 830 07ab 8915F400 		movl	%edx, LPBX1+244	 # PROF_edge_counter.7, *LPBX1
 830      0000
 831              		.loc 1 324 0 is_stmt 1
 832 07b1 83C428   		addl	$40, %esp	 #,
 833              	LCFI22:
 834              		.cfi_def_cfa_offset 8
 835 07b4 5B       		popl	%ebx	 #
 836              	LCFI23:
 837              		.cfi_def_cfa_offset 4
 838              		.cfi_restore 3
 839 07b5 C3       		ret
 840              		.cfi_endproc
 841              	LFE10:
 842              		.globl	_chEvtWaitOneTimeout
 843              		.def	_chEvtWaitOneTimeout;	.scl	2;	.type	32;	.endef
 844              	_chEvtWaitOneTimeout:
 845              	LFB11:
 846              		.loc 1 439 0
 847              		.cfi_startproc
 848 07b6 83EC2C   		subl	$44, %esp	 #,
 849              	LCFI24:
 850              		.cfi_def_cfa_offset 48
 851              		.loc 1 439 0
 852 07b9 A1900000 		movl	LPBX1+144, %eax	 # *LPBX1, PROF_edge_counter.6
 852      00
 853 07be 8B159400 		movl	LPBX1+148, %edx	 # *LPBX1, PROF_edge_counter.6
 853      0000
 854 07c4 83C001   		addl	$1, %eax	 #, PROF_edge_counter.6
 855 07c7 83D200   		adcl	$0, %edx	 #, PROF_edge_counter.6
 856 07ca A3900000 		movl	%eax, LPBX1+144	 # PROF_edge_counter.6, *LPBX1
 856      00
 857 07cf 89159400 		movl	%edx, LPBX1+148	 # PROF_edge_counter.6, *LPBX1
 857      0000
 858              		.loc 1 440 0
 859 07d5 A1180000 		movl	_rlist+24, %eax	 # rlist.r_current, tmp86
 859      00
 860 07da 89442418 		movl	%eax, 24(%esp)	 # tmp86, ctp
 861              		.loc 1 443 0
 862              	/APP
 863              	 # 443 "../../os/kernel/src/chevents.c" 1
 864 07de 90       		nop
 865              	 # 0 "" 2
 866              	/NO_APP
 867 07df A1980000 		movl	LPBX1+152, %eax	 # *LPBX1, PROF_edge_counter.6
 867      00
 868 07e4 8B159C00 		movl	LPBX1+156, %edx	 # *LPBX1, PROF_edge_counter.6
 868      0000
GAS LISTING C:\cygwin\tmp\ccRh0JUa.s 			page 20


 869 07ea 83C001   		addl	$1, %eax	 #, PROF_edge_counter.6
 870 07ed 83D200   		adcl	$0, %edx	 #, PROF_edge_counter.6
 871 07f0 A3980000 		movl	%eax, LPBX1+152	 # PROF_edge_counter.6, *LPBX1
 871      00
 872 07f5 89159C00 		movl	%edx, LPBX1+156	 # PROF_edge_counter.6, *LPBX1
 872      0000
 873              		.loc 1 445 0
 874 07fb 8B442418 		movl	24(%esp), %eax	 # ctp, tmp87
 875 07ff 8B4038   		movl	56(%eax), %eax	 # ctp_3->p_epending, D.2815
 876 0802 23442430 		andl	48(%esp), %eax	 # mask, tmp88
 877 0806 8944241C 		movl	%eax, 28(%esp)	 # tmp88, m
 878 080a 837C241C 		cmpl	$0, 28(%esp)	 #, m
 878      00
 879 080f 0F85F400 		jne	L30	 #,
 879      0000
 880              		.loc 1 446 0
 881 0815 837C2434 		cmpl	$0, 52(%esp)	 #, time
 881      00
 882 081a 7543     		jne	L31	 #,
 883 081c A1A00000 		movl	LPBX1+160, %eax	 # *LPBX1, PROF_edge_counter.6
 883      00
 884 0821 8B15A400 		movl	LPBX1+164, %edx	 # *LPBX1, PROF_edge_counter.6
 884      0000
 885 0827 83C001   		addl	$1, %eax	 #, PROF_edge_counter.6
 886 082a 83D200   		adcl	$0, %edx	 #, PROF_edge_counter.6
 887 082d A3A00000 		movl	%eax, LPBX1+160	 # PROF_edge_counter.6, *LPBX1
 887      00
 888 0832 8915A400 		movl	%edx, LPBX1+164	 # PROF_edge_counter.6, *LPBX1
 888      0000
 889              		.loc 1 447 0
 890              	/APP
 891              	 # 447 "../../os/kernel/src/chevents.c" 1
 892 0838 90       		nop
 893              	 # 0 "" 2
 894              		.loc 1 448 0
 895              	/NO_APP
 896 0839 B9000000 		movl	$0, %ecx	 #, D.2820
 896      00
 897 083e A1B00000 		movl	LPBX1+176, %eax	 # *LPBX1, PROF_edge_counter.6
 897      00
 898 0843 8B15B400 		movl	LPBX1+180, %edx	 # *LPBX1, PROF_edge_counter.6
 898      0000
 899 0849 83C001   		addl	$1, %eax	 #, PROF_edge_counter.6
 900 084c 83D200   		adcl	$0, %edx	 #, PROF_edge_counter.6
 901 084f A3B00000 		movl	%eax, LPBX1+176	 # PROF_edge_counter.6, *LPBX1
 901      00
 902 0854 8915B400 		movl	%edx, LPBX1+180	 # PROF_edge_counter.6, *LPBX1
 902      0000
 903 085a E9EB0000 		jmp	L32	 #
 903      00
 904              	L31:
 905 085f A1A80000 		movl	LPBX1+168, %eax	 # *LPBX1, PROF_edge_counter.6
 905      00
 906 0864 8B15AC00 		movl	LPBX1+172, %edx	 # *LPBX1, PROF_edge_counter.6
 906      0000
 907 086a 83C001   		addl	$1, %eax	 #, PROF_edge_counter.6
 908 086d 83D200   		adcl	$0, %edx	 #, PROF_edge_counter.6
GAS LISTING C:\cygwin\tmp\ccRh0JUa.s 			page 21


 909 0870 A3A80000 		movl	%eax, LPBX1+168	 # PROF_edge_counter.6, *LPBX1
 909      00
 910 0875 8915AC00 		movl	%edx, LPBX1+172	 # PROF_edge_counter.6, *LPBX1
 910      0000
 911              		.loc 1 450 0
 912 087b 8B442418 		movl	24(%esp), %eax	 # ctp, tmp89
 913 087f 8B542430 		movl	48(%esp), %edx	 # mask, tmp90
 914 0883 895024   		movl	%edx, 36(%eax)	 # tmp90, ctp_3->p_u.ewmask
 915              		.loc 1 451 0
 916 0886 8B442434 		movl	52(%esp), %eax	 # time, tmp91
 917 088a 89442404 		movl	%eax, 4(%esp)	 # tmp91,
 918 088e C7042408 		movl	$8, (%esp)	 #,
 918      000000
 919 0895 E8000000 		call	_chSchGoSleepTimeoutS	 #
 919      00
 920 089a 85C0     		testl	%eax, %eax	 # D.2821
 921 089c 7940     		jns	L33	 #,
 922 089e A1B80000 		movl	LPBX1+184, %eax	 # *LPBX1, PROF_edge_counter.6
 922      00
 923 08a3 8B15BC00 		movl	LPBX1+188, %edx	 # *LPBX1, PROF_edge_counter.6
 923      0000
 924 08a9 83C001   		addl	$1, %eax	 #, PROF_edge_counter.6
 925 08ac 83D200   		adcl	$0, %edx	 #, PROF_edge_counter.6
 926 08af A3B80000 		movl	%eax, LPBX1+184	 # PROF_edge_counter.6, *LPBX1
 926      00
 927 08b4 8915BC00 		movl	%edx, LPBX1+188	 # PROF_edge_counter.6, *LPBX1
 927      0000
 928              		.loc 1 452 0
 929              	/APP
 930              	 # 452 "../../os/kernel/src/chevents.c" 1
 931 08ba 90       		nop
 932              	 # 0 "" 2
 933              		.loc 1 453 0
 934              	/NO_APP
 935 08bb B9000000 		movl	$0, %ecx	 #, D.2820
 935      00
 936 08c0 A1C00000 		movl	LPBX1+192, %eax	 # *LPBX1, PROF_edge_counter.6
 936      00
 937 08c5 8B15C400 		movl	LPBX1+196, %edx	 # *LPBX1, PROF_edge_counter.6
 937      0000
 938 08cb 83C001   		addl	$1, %eax	 #, PROF_edge_counter.6
 939 08ce 83D200   		adcl	$0, %edx	 #, PROF_edge_counter.6
 940 08d1 A3C00000 		movl	%eax, LPBX1+192	 # PROF_edge_counter.6, *LPBX1
 940      00
 941 08d6 8915C400 		movl	%edx, LPBX1+196	 # PROF_edge_counter.6, *LPBX1
 941      0000
 942 08dc EB6C     		jmp	L32	 #
 943              	L33:
 944              		.loc 1 455 0
 945 08de 8B442418 		movl	24(%esp), %eax	 # ctp, tmp92
 946 08e2 8B4038   		movl	56(%eax), %eax	 # ctp_3->p_epending, D.2824
 947 08e5 23442430 		andl	48(%esp), %eax	 # mask, tmp93
 948 08e9 8944241C 		movl	%eax, 28(%esp)	 # tmp93, m
 949 08ed A1C80000 		movl	LPBX1+200, %eax	 # *LPBX1, PROF_edge_counter.6
 949      00
 950 08f2 8B15CC00 		movl	LPBX1+204, %edx	 # *LPBX1, PROF_edge_counter.6
 950      0000
GAS LISTING C:\cygwin\tmp\ccRh0JUa.s 			page 22


 951 08f8 83C001   		addl	$1, %eax	 #, PROF_edge_counter.6
 952 08fb 83D200   		adcl	$0, %edx	 #, PROF_edge_counter.6
 953 08fe A3C80000 		movl	%eax, LPBX1+200	 # PROF_edge_counter.6, *LPBX1
 953      00
 954 0903 8915CC00 		movl	%edx, LPBX1+204	 # PROF_edge_counter.6, *LPBX1
 954      0000
 955              	L30:
 956              		.loc 1 457 0
 957 0909 8B44241C 		movl	28(%esp), %eax	 # m, tmp94
 958 090d F7D8     		negl	%eax	 # D.2825
 959 090f 2144241C 		andl	%eax, 28(%esp)	 # D.2825, m
 960              		.loc 1 458 0
 961 0913 8B442418 		movl	24(%esp), %eax	 # ctp, tmp95
 962 0917 8B4038   		movl	56(%eax), %eax	 # ctp_3->p_epending, D.2826
 963 091a 8B54241C 		movl	28(%esp), %edx	 # m, tmp96
 964 091e F7D2     		notl	%edx	 # D.2827
 965 0920 21C2     		andl	%eax, %edx	 # D.2826, D.2828
 966 0922 8B442418 		movl	24(%esp), %eax	 # ctp, tmp97
 967 0926 895038   		movl	%edx, 56(%eax)	 # D.2828, ctp_3->p_epending
 968              		.loc 1 460 0
 969              	/APP
 970              	 # 460 "../../os/kernel/src/chevents.c" 1
 971 0929 90       		nop
 972              	 # 0 "" 2
 973              		.loc 1 461 0
 974              	/NO_APP
 975 092a 8B4C241C 		movl	28(%esp), %ecx	 # m, D.2820
 976 092e A1D00000 		movl	LPBX1+208, %eax	 # *LPBX1, PROF_edge_counter.6
 976      00
 977 0933 8B15D400 		movl	LPBX1+212, %edx	 # *LPBX1, PROF_edge_counter.6
 977      0000
 978 0939 83C001   		addl	$1, %eax	 #, PROF_edge_counter.6
 979 093c 83D200   		adcl	$0, %edx	 #, PROF_edge_counter.6
 980 093f A3D00000 		movl	%eax, LPBX1+208	 # PROF_edge_counter.6, *LPBX1
 980      00
 981 0944 8915D400 		movl	%edx, LPBX1+212	 # PROF_edge_counter.6, *LPBX1
 981      0000
 982              	L32:
 983 094a 89C8     		movl	%ecx, %eax	 # D.2820, <retval>
 984              		.loc 1 462 0
 985 094c 83C42C   		addl	$44, %esp	 #,
 986              	LCFI25:
 987              		.cfi_def_cfa_offset 4
 988 094f C3       		ret
 989              		.cfi_endproc
 990              	LFE11:
 991              		.globl	_chEvtWaitAnyTimeout
 992              		.def	_chEvtWaitAnyTimeout;	.scl	2;	.type	32;	.endef
 993              	_chEvtWaitAnyTimeout:
 994              	LFB12:
 995              		.loc 1 482 0
 996              		.cfi_startproc
 997 0950 83EC2C   		subl	$44, %esp	 #,
 998              	LCFI26:
 999              		.cfi_def_cfa_offset 48
 1000              		.loc 1 482 0
 1001 0953 A1480000 		movl	LPBX1+72, %eax	 # *LPBX1, PROF_edge_counter.5
GAS LISTING C:\cygwin\tmp\ccRh0JUa.s 			page 23


 1001      00
 1002 0958 8B154C00 		movl	LPBX1+76, %edx	 # *LPBX1, PROF_edge_counter.5
 1002      0000
 1003 095e 83C001   		addl	$1, %eax	 #, PROF_edge_counter.5
 1004 0961 83D200   		adcl	$0, %edx	 #, PROF_edge_counter.5
 1005 0964 A3480000 		movl	%eax, LPBX1+72	 # PROF_edge_counter.5, *LPBX1
 1005      00
 1006 0969 89154C00 		movl	%edx, LPBX1+76	 # PROF_edge_counter.5, *LPBX1
 1006      0000
 1007              		.loc 1 483 0
 1008 096f A1180000 		movl	_rlist+24, %eax	 # rlist.r_current, tmp85
 1008      00
 1009 0974 89442418 		movl	%eax, 24(%esp)	 # tmp85, ctp
 1010              		.loc 1 486 0
 1011              	/APP
 1012              	 # 486 "../../os/kernel/src/chevents.c" 1
 1013 0978 90       		nop
 1014              	 # 0 "" 2
 1015              	/NO_APP
 1016 0979 A1500000 		movl	LPBX1+80, %eax	 # *LPBX1, PROF_edge_counter.5
 1016      00
 1017 097e 8B155400 		movl	LPBX1+84, %edx	 # *LPBX1, PROF_edge_counter.5
 1017      0000
 1018 0984 83C001   		addl	$1, %eax	 #, PROF_edge_counter.5
 1019 0987 83D200   		adcl	$0, %edx	 #, PROF_edge_counter.5
 1020 098a A3500000 		movl	%eax, LPBX1+80	 # PROF_edge_counter.5, *LPBX1
 1020      00
 1021 098f 89155400 		movl	%edx, LPBX1+84	 # PROF_edge_counter.5, *LPBX1
 1021      0000
 1022              		.loc 1 488 0
 1023 0995 8B442418 		movl	24(%esp), %eax	 # ctp, tmp86
 1024 0999 8B4038   		movl	56(%eax), %eax	 # ctp_3->p_epending, D.2801
 1025 099c 23442430 		andl	48(%esp), %eax	 # mask, tmp87
 1026 09a0 8944241C 		movl	%eax, 28(%esp)	 # tmp87, m
 1027 09a4 837C241C 		cmpl	$0, 28(%esp)	 #, m
 1027      00
 1028 09a9 0F85F400 		jne	L35	 #,
 1028      0000
 1029              		.loc 1 489 0
 1030 09af 837C2434 		cmpl	$0, 52(%esp)	 #, time
 1030      00
 1031 09b4 7543     		jne	L36	 #,
 1032 09b6 A1580000 		movl	LPBX1+88, %eax	 # *LPBX1, PROF_edge_counter.5
 1032      00
 1033 09bb 8B155C00 		movl	LPBX1+92, %edx	 # *LPBX1, PROF_edge_counter.5
 1033      0000
 1034 09c1 83C001   		addl	$1, %eax	 #, PROF_edge_counter.5
 1035 09c4 83D200   		adcl	$0, %edx	 #, PROF_edge_counter.5
 1036 09c7 A3580000 		movl	%eax, LPBX1+88	 # PROF_edge_counter.5, *LPBX1
 1036      00
 1037 09cc 89155C00 		movl	%edx, LPBX1+92	 # PROF_edge_counter.5, *LPBX1
 1037      0000
 1038              		.loc 1 490 0
 1039              	/APP
 1040              	 # 490 "../../os/kernel/src/chevents.c" 1
 1041 09d2 90       		nop
 1042              	 # 0 "" 2
GAS LISTING C:\cygwin\tmp\ccRh0JUa.s 			page 24


 1043              		.loc 1 491 0
 1044              	/NO_APP
 1045 09d3 B9000000 		movl	$0, %ecx	 #, D.2806
 1045      00
 1046 09d8 A1680000 		movl	LPBX1+104, %eax	 # *LPBX1, PROF_edge_counter.5
 1046      00
 1047 09dd 8B156C00 		movl	LPBX1+108, %edx	 # *LPBX1, PROF_edge_counter.5
 1047      0000
 1048 09e3 83C001   		addl	$1, %eax	 #, PROF_edge_counter.5
 1049 09e6 83D200   		adcl	$0, %edx	 #, PROF_edge_counter.5
 1050 09e9 A3680000 		movl	%eax, LPBX1+104	 # PROF_edge_counter.5, *LPBX1
 1050      00
 1051 09ee 89156C00 		movl	%edx, LPBX1+108	 # PROF_edge_counter.5, *LPBX1
 1051      0000
 1052 09f4 E9E10000 		jmp	L37	 #
 1052      00
 1053              	L36:
 1054 09f9 A1600000 		movl	LPBX1+96, %eax	 # *LPBX1, PROF_edge_counter.5
 1054      00
 1055 09fe 8B156400 		movl	LPBX1+100, %edx	 # *LPBX1, PROF_edge_counter.5
 1055      0000
 1056 0a04 83C001   		addl	$1, %eax	 #, PROF_edge_counter.5
 1057 0a07 83D200   		adcl	$0, %edx	 #, PROF_edge_counter.5
 1058 0a0a A3600000 		movl	%eax, LPBX1+96	 # PROF_edge_counter.5, *LPBX1
 1058      00
 1059 0a0f 89156400 		movl	%edx, LPBX1+100	 # PROF_edge_counter.5, *LPBX1
 1059      0000
 1060              		.loc 1 493 0
 1061 0a15 8B442418 		movl	24(%esp), %eax	 # ctp, tmp88
 1062 0a19 8B542430 		movl	48(%esp), %edx	 # mask, tmp89
 1063 0a1d 895024   		movl	%edx, 36(%eax)	 # tmp89, ctp_3->p_u.ewmask
 1064              		.loc 1 494 0
 1065 0a20 8B442434 		movl	52(%esp), %eax	 # time, tmp90
 1066 0a24 89442404 		movl	%eax, 4(%esp)	 # tmp90,
 1067 0a28 C7042408 		movl	$8, (%esp)	 #,
 1067      000000
 1068 0a2f E8000000 		call	_chSchGoSleepTimeoutS	 #
 1068      00
 1069 0a34 85C0     		testl	%eax, %eax	 # D.2807
 1070 0a36 7940     		jns	L38	 #,
 1071 0a38 A1700000 		movl	LPBX1+112, %eax	 # *LPBX1, PROF_edge_counter.5
 1071      00
 1072 0a3d 8B157400 		movl	LPBX1+116, %edx	 # *LPBX1, PROF_edge_counter.5
 1072      0000
 1073 0a43 83C001   		addl	$1, %eax	 #, PROF_edge_counter.5
 1074 0a46 83D200   		adcl	$0, %edx	 #, PROF_edge_counter.5
 1075 0a49 A3700000 		movl	%eax, LPBX1+112	 # PROF_edge_counter.5, *LPBX1
 1075      00
 1076 0a4e 89157400 		movl	%edx, LPBX1+116	 # PROF_edge_counter.5, *LPBX1
 1076      0000
 1077              		.loc 1 495 0
 1078              	/APP
 1079              	 # 495 "../../os/kernel/src/chevents.c" 1
 1080 0a54 90       		nop
 1081              	 # 0 "" 2
 1082              		.loc 1 496 0
 1083              	/NO_APP
GAS LISTING C:\cygwin\tmp\ccRh0JUa.s 			page 25


 1084 0a55 B9000000 		movl	$0, %ecx	 #, D.2806
 1084      00
 1085 0a5a A1780000 		movl	LPBX1+120, %eax	 # *LPBX1, PROF_edge_counter.5
 1085      00
 1086 0a5f 8B157C00 		movl	LPBX1+124, %edx	 # *LPBX1, PROF_edge_counter.5
 1086      0000
 1087 0a65 83C001   		addl	$1, %eax	 #, PROF_edge_counter.5
 1088 0a68 83D200   		adcl	$0, %edx	 #, PROF_edge_counter.5
 1089 0a6b A3780000 		movl	%eax, LPBX1+120	 # PROF_edge_counter.5, *LPBX1
 1089      00
 1090 0a70 89157C00 		movl	%edx, LPBX1+124	 # PROF_edge_counter.5, *LPBX1
 1090      0000
 1091 0a76 EB62     		jmp	L37	 #
 1092              	L38:
 1093              		.loc 1 498 0
 1094 0a78 8B442418 		movl	24(%esp), %eax	 # ctp, tmp91
 1095 0a7c 8B4038   		movl	56(%eax), %eax	 # ctp_3->p_epending, D.2810
 1096 0a7f 23442430 		andl	48(%esp), %eax	 # mask, tmp92
 1097 0a83 8944241C 		movl	%eax, 28(%esp)	 # tmp92, m
 1098 0a87 A1800000 		movl	LPBX1+128, %eax	 # *LPBX1, PROF_edge_counter.5
 1098      00
 1099 0a8c 8B158400 		movl	LPBX1+132, %edx	 # *LPBX1, PROF_edge_counter.5
 1099      0000
 1100 0a92 83C001   		addl	$1, %eax	 #, PROF_edge_counter.5
 1101 0a95 83D200   		adcl	$0, %edx	 #, PROF_edge_counter.5
 1102 0a98 A3800000 		movl	%eax, LPBX1+128	 # PROF_edge_counter.5, *LPBX1
 1102      00
 1103 0a9d 89158400 		movl	%edx, LPBX1+132	 # PROF_edge_counter.5, *LPBX1
 1103      0000
 1104              	L35:
 1105              		.loc 1 500 0
 1106 0aa3 8B442418 		movl	24(%esp), %eax	 # ctp, tmp93
 1107 0aa7 8B4038   		movl	56(%eax), %eax	 # ctp_3->p_epending, D.2811
 1108 0aaa 8B54241C 		movl	28(%esp), %edx	 # m, tmp94
 1109 0aae F7D2     		notl	%edx	 # D.2812
 1110 0ab0 21C2     		andl	%eax, %edx	 # D.2811, D.2813
 1111 0ab2 8B442418 		movl	24(%esp), %eax	 # ctp, tmp95
 1112 0ab6 895038   		movl	%edx, 56(%eax)	 # D.2813, ctp_3->p_epending
 1113              		.loc 1 502 0
 1114              	/APP
 1115              	 # 502 "../../os/kernel/src/chevents.c" 1
 1116 0ab9 90       		nop
 1117              	 # 0 "" 2
 1118              		.loc 1 503 0
 1119              	/NO_APP
 1120 0aba 8B4C241C 		movl	28(%esp), %ecx	 # m, D.2806
 1121 0abe A1880000 		movl	LPBX1+136, %eax	 # *LPBX1, PROF_edge_counter.5
 1121      00
 1122 0ac3 8B158C00 		movl	LPBX1+140, %edx	 # *LPBX1, PROF_edge_counter.5
 1122      0000
 1123 0ac9 83C001   		addl	$1, %eax	 #, PROF_edge_counter.5
 1124 0acc 83D200   		adcl	$0, %edx	 #, PROF_edge_counter.5
 1125 0acf A3880000 		movl	%eax, LPBX1+136	 # PROF_edge_counter.5, *LPBX1
 1125      00
 1126 0ad4 89158C00 		movl	%edx, LPBX1+140	 # PROF_edge_counter.5, *LPBX1
 1126      0000
 1127              	L37:
GAS LISTING C:\cygwin\tmp\ccRh0JUa.s 			page 26


 1128 0ada 89C8     		movl	%ecx, %eax	 # D.2806, <retval>
 1129              		.loc 1 504 0
 1130 0adc 83C42C   		addl	$44, %esp	 #,
 1131              	LCFI27:
 1132              		.cfi_def_cfa_offset 4
 1133 0adf C3       		ret
 1134              		.cfi_endproc
 1135              	LFE12:
 1136              		.globl	_chEvtWaitAllTimeout
 1137              		.def	_chEvtWaitAllTimeout;	.scl	2;	.type	32;	.endef
 1138              	_chEvtWaitAllTimeout:
 1139              	LFB13:
 1140              		.loc 1 523 0
 1141              		.cfi_startproc
 1142 0ae0 83EC2C   		subl	$44, %esp	 #,
 1143              	LCFI28:
 1144              		.cfi_def_cfa_offset 48
 1145              		.loc 1 523 0
 1146 0ae3 A1000000 		movl	LPBX1, %eax	 # *LPBX1, PROF_edge_counter.4
 1146      00
 1147 0ae8 8B150400 		movl	LPBX1+4, %edx	 # *LPBX1, PROF_edge_counter.4
 1147      0000
 1148 0aee 83C001   		addl	$1, %eax	 #, PROF_edge_counter.4
 1149 0af1 83D200   		adcl	$0, %edx	 #, PROF_edge_counter.4
 1150 0af4 A3000000 		movl	%eax, LPBX1	 # PROF_edge_counter.4, *LPBX1
 1150      00
 1151 0af9 89150400 		movl	%edx, LPBX1+4	 # PROF_edge_counter.4, *LPBX1
 1151      0000
 1152              		.loc 1 524 0
 1153 0aff A1180000 		movl	_rlist+24, %eax	 # rlist.r_current, tmp85
 1153      00
 1154 0b04 8944241C 		movl	%eax, 28(%esp)	 # tmp85, ctp
 1155              		.loc 1 526 0
 1156              	/APP
 1157              	 # 526 "../../os/kernel/src/chevents.c" 1
 1158 0b08 90       		nop
 1159              	 # 0 "" 2
 1160              	/NO_APP
 1161 0b09 A1080000 		movl	LPBX1+8, %eax	 # *LPBX1, PROF_edge_counter.4
 1161      00
 1162 0b0e 8B150C00 		movl	LPBX1+12, %edx	 # *LPBX1, PROF_edge_counter.4
 1162      0000
 1163 0b14 83C001   		addl	$1, %eax	 #, PROF_edge_counter.4
 1164 0b17 83D200   		adcl	$0, %edx	 #, PROF_edge_counter.4
 1165 0b1a A3080000 		movl	%eax, LPBX1+8	 # PROF_edge_counter.4, *LPBX1
 1165      00
 1166 0b1f 89150C00 		movl	%edx, LPBX1+12	 # PROF_edge_counter.4, *LPBX1
 1166      0000
 1167              		.loc 1 528 0
 1168 0b25 8B44241C 		movl	28(%esp), %eax	 # ctp, tmp86
 1169 0b29 8B4038   		movl	56(%eax), %eax	 # ctp_2->p_epending, D.2787
 1170 0b2c 23442430 		andl	48(%esp), %eax	 # mask, D.2788
 1171 0b30 3B442430 		cmpl	48(%esp), %eax	 # mask, D.2788
 1172 0b34 0F84E700 		je	L40	 #,
 1172      0000
 1173              		.loc 1 529 0
 1174 0b3a 837C2434 		cmpl	$0, 52(%esp)	 #, time
GAS LISTING C:\cygwin\tmp\ccRh0JUa.s 			page 27


 1174      00
 1175 0b3f 7543     		jne	L41	 #,
 1176 0b41 A1100000 		movl	LPBX1+16, %eax	 # *LPBX1, PROF_edge_counter.4
 1176      00
 1177 0b46 8B151400 		movl	LPBX1+20, %edx	 # *LPBX1, PROF_edge_counter.4
 1177      0000
 1178 0b4c 83C001   		addl	$1, %eax	 #, PROF_edge_counter.4
 1179 0b4f 83D200   		adcl	$0, %edx	 #, PROF_edge_counter.4
 1180 0b52 A3100000 		movl	%eax, LPBX1+16	 # PROF_edge_counter.4, *LPBX1
 1180      00
 1181 0b57 89151400 		movl	%edx, LPBX1+20	 # PROF_edge_counter.4, *LPBX1
 1181      0000
 1182              		.loc 1 530 0
 1183              	/APP
 1184              	 # 530 "../../os/kernel/src/chevents.c" 1
 1185 0b5d 90       		nop
 1186              	 # 0 "" 2
 1187              		.loc 1 531 0
 1188              	/NO_APP
 1189 0b5e B9000000 		movl	$0, %ecx	 #, D.2793
 1189      00
 1190 0b63 A1200000 		movl	LPBX1+32, %eax	 # *LPBX1, PROF_edge_counter.4
 1190      00
 1191 0b68 8B152400 		movl	LPBX1+36, %edx	 # *LPBX1, PROF_edge_counter.4
 1191      0000
 1192 0b6e 83C001   		addl	$1, %eax	 #, PROF_edge_counter.4
 1193 0b71 83D200   		adcl	$0, %edx	 #, PROF_edge_counter.4
 1194 0b74 A3200000 		movl	%eax, LPBX1+32	 # PROF_edge_counter.4, *LPBX1
 1194      00
 1195 0b79 89152400 		movl	%edx, LPBX1+36	 # PROF_edge_counter.4, *LPBX1
 1195      0000
 1196 0b7f E9D40000 		jmp	L42	 #
 1196      00
 1197              	L41:
 1198 0b84 A1180000 		movl	LPBX1+24, %eax	 # *LPBX1, PROF_edge_counter.4
 1198      00
 1199 0b89 8B151C00 		movl	LPBX1+28, %edx	 # *LPBX1, PROF_edge_counter.4
 1199      0000
 1200 0b8f 83C001   		addl	$1, %eax	 #, PROF_edge_counter.4
 1201 0b92 83D200   		adcl	$0, %edx	 #, PROF_edge_counter.4
 1202 0b95 A3180000 		movl	%eax, LPBX1+24	 # PROF_edge_counter.4, *LPBX1
 1202      00
 1203 0b9a 89151C00 		movl	%edx, LPBX1+28	 # PROF_edge_counter.4, *LPBX1
 1203      0000
 1204              		.loc 1 533 0
 1205 0ba0 8B44241C 		movl	28(%esp), %eax	 # ctp, tmp87
 1206 0ba4 8B542430 		movl	48(%esp), %edx	 # mask, tmp88
 1207 0ba8 895024   		movl	%edx, 36(%eax)	 # tmp88, ctp_2->p_u.ewmask
 1208              		.loc 1 534 0
 1209 0bab 8B442434 		movl	52(%esp), %eax	 # time, tmp89
 1210 0baf 89442404 		movl	%eax, 4(%esp)	 # tmp89,
 1211 0bb3 C7042409 		movl	$9, (%esp)	 #,
 1211      000000
 1212 0bba E8000000 		call	_chSchGoSleepTimeoutS	 #
 1212      00
 1213 0bbf 89C1     		movl	%eax, %ecx	 #, D.2794
 1214 0bc1 A1280000 		movl	LPBX1+40, %eax	 # *LPBX1, PROF_edge_counter.4
GAS LISTING C:\cygwin\tmp\ccRh0JUa.s 			page 28


 1214      00
 1215 0bc6 8B152C00 		movl	LPBX1+44, %edx	 # *LPBX1, PROF_edge_counter.4
 1215      0000
 1216 0bcc 83C001   		addl	$1, %eax	 #, PROF_edge_counter.4
 1217 0bcf 83D200   		adcl	$0, %edx	 #, PROF_edge_counter.4
 1218 0bd2 A3280000 		movl	%eax, LPBX1+40	 # PROF_edge_counter.4, *LPBX1
 1218      00
 1219 0bd7 89152C00 		movl	%edx, LPBX1+44	 # PROF_edge_counter.4, *LPBX1
 1219      0000
 1220 0bdd 85C9     		testl	%ecx, %ecx	 # D.2794
 1221 0bdf 7940     		jns	L40	 #,
 1222 0be1 A1300000 		movl	LPBX1+48, %eax	 # *LPBX1, PROF_edge_counter.4
 1222      00
 1223 0be6 8B153400 		movl	LPBX1+52, %edx	 # *LPBX1, PROF_edge_counter.4
 1223      0000
 1224 0bec 83C001   		addl	$1, %eax	 #, PROF_edge_counter.4
 1225 0bef 83D200   		adcl	$0, %edx	 #, PROF_edge_counter.4
 1226 0bf2 A3300000 		movl	%eax, LPBX1+48	 # PROF_edge_counter.4, *LPBX1
 1226      00
 1227 0bf7 89153400 		movl	%edx, LPBX1+52	 # PROF_edge_counter.4, *LPBX1
 1227      0000
 1228              		.loc 1 535 0
 1229              	/APP
 1230              	 # 535 "../../os/kernel/src/chevents.c" 1
 1231 0bfd 90       		nop
 1232              	 # 0 "" 2
 1233              		.loc 1 536 0
 1234              	/NO_APP
 1235 0bfe B9000000 		movl	$0, %ecx	 #, D.2793
 1235      00
 1236 0c03 A1380000 		movl	LPBX1+56, %eax	 # *LPBX1, PROF_edge_counter.4
 1236      00
 1237 0c08 8B153C00 		movl	LPBX1+60, %edx	 # *LPBX1, PROF_edge_counter.4
 1237      0000
 1238 0c0e 83C001   		addl	$1, %eax	 #, PROF_edge_counter.4
 1239 0c11 83D200   		adcl	$0, %edx	 #, PROF_edge_counter.4
 1240 0c14 A3380000 		movl	%eax, LPBX1+56	 # PROF_edge_counter.4, *LPBX1
 1240      00
 1241 0c19 89153C00 		movl	%edx, LPBX1+60	 # PROF_edge_counter.4, *LPBX1
 1241      0000
 1242 0c1f EB37     		jmp	L42	 #
 1243              	L40:
 1244              		.loc 1 539 0
 1245 0c21 8B44241C 		movl	28(%esp), %eax	 # ctp, tmp90
 1246 0c25 8B4038   		movl	56(%eax), %eax	 # ctp_2->p_epending, D.2797
 1247 0c28 8B542430 		movl	48(%esp), %edx	 # mask, tmp91
 1248 0c2c F7D2     		notl	%edx	 # D.2798
 1249 0c2e 21C2     		andl	%eax, %edx	 # D.2797, D.2799
 1250 0c30 8B44241C 		movl	28(%esp), %eax	 # ctp, tmp92
 1251 0c34 895038   		movl	%edx, 56(%eax)	 # D.2799, ctp_2->p_epending
 1252              		.loc 1 541 0
 1253              	/APP
 1254              	 # 541 "../../os/kernel/src/chevents.c" 1
 1255 0c37 90       		nop
 1256              	 # 0 "" 2
 1257              		.loc 1 542 0
 1258              	/NO_APP
GAS LISTING C:\cygwin\tmp\ccRh0JUa.s 			page 29


 1259 0c38 8B4C2430 		movl	48(%esp), %ecx	 # mask, D.2793
 1260 0c3c A1400000 		movl	LPBX1+64, %eax	 # *LPBX1, PROF_edge_counter.4
 1260      00
 1261 0c41 8B154400 		movl	LPBX1+68, %edx	 # *LPBX1, PROF_edge_counter.4
 1261      0000
 1262 0c47 83C001   		addl	$1, %eax	 #, PROF_edge_counter.4
 1263 0c4a 83D200   		adcl	$0, %edx	 #, PROF_edge_counter.4
 1264 0c4d A3400000 		movl	%eax, LPBX1+64	 # PROF_edge_counter.4, *LPBX1
 1264      00
 1265 0c52 89154400 		movl	%edx, LPBX1+68	 # PROF_edge_counter.4, *LPBX1
 1265      0000
 1266              	L42:
 1267 0c58 89C8     		movl	%ecx, %eax	 # D.2793, <retval>
 1268              		.loc 1 543 0
 1269 0c5a 83C42C   		addl	$44, %esp	 #,
 1270              	LCFI29:
 1271              		.cfi_def_cfa_offset 4
 1272 0c5d C3       		ret
 1273              		.cfi_endproc
 1274              	LFE13:
 1275              	.lcomm LPBX1,576,32
 1276              		.section .rdata,"dr"
 1277              		.align 4
 1278              	LC0:
 1279 0000 433A5C64 		.ascii "C:\\develop\\gyro\\ChibiOS\\test\\coverage/../../os/kernel/src/chevents.gcda\0"
 1279      6576656C 
 1279      6F705C67 
 1279      79726F5C 
 1279      43686962 
 1280              		.data
 1281              		.align 32
 1282              	LC1:
 1283              	 # <anonymous>:
 1284 0000 0E000000 		.long	14
 1285              	 # <anonymous>:
 1286 0004 D08FB11F 		.long	531730384
 1287              	 # <anonymous>:
 1288 0008 09000000 		.long	9
 1289              	 # <anonymous>:
 1290 000c 0D000000 		.long	13
 1291              	 # <anonymous>:
 1292 0010 FB76668C 		.long	-1939441925
 1293              	 # <anonymous>:
 1294 0014 09000000 		.long	9
 1295              	 # <anonymous>:
 1296 0018 0C000000 		.long	12
 1297              	 # <anonymous>:
 1298 001c DFA3D6E0 		.long	-522804257
 1299              	 # <anonymous>:
 1300 0020 09000000 		.long	9
 1301              	 # <anonymous>:
 1302 0024 0B000000 		.long	11
 1303              	 # <anonymous>:
 1304 0028 37B48743 		.long	1132966967
 1305              	 # <anonymous>:
 1306 002c 04000000 		.long	4
 1307              	 # <anonymous>:
GAS LISTING C:\cygwin\tmp\ccRh0JUa.s 			page 30


 1308 0030 0A000000 		.long	10
 1309              	 # <anonymous>:
 1310 0034 7446EAF1 		.long	-236304780
 1311              	 # <anonymous>:
 1312 0038 01000000 		.long	1
 1313              	 # <anonymous>:
 1314 003c 09000000 		.long	9
 1315              	 # <anonymous>:
 1316 0040 EA00E395 		.long	-1780285206
 1317              	 # <anonymous>:
 1318 0044 05000000 		.long	5
 1319              	 # <anonymous>:
 1320 0048 08000000 		.long	8
 1321              	 # <anonymous>:
 1322 004c 7EEDABDA 		.long	-626266754
 1323              	 # <anonymous>:
 1324 0050 06000000 		.long	6
 1325              	 # <anonymous>:
 1326 0054 07000000 		.long	7
 1327              	 # <anonymous>:
 1328 0058 9A0DEA7C 		.long	2095713690
 1329              	 # <anonymous>:
 1330 005c 05000000 		.long	5
 1331              	 # <anonymous>:
 1332 0060 06000000 		.long	6
 1333              	 # <anonymous>:
 1334 0064 C64500A3 		.long	-1560263226
 1335              	 # <anonymous>:
 1336 0068 03000000 		.long	3
 1337              	 # <anonymous>:
 1338 006c 05000000 		.long	5
 1339              	 # <anonymous>:
 1340 0070 A2F55193 		.long	-1823345246
 1341              	 # <anonymous>:
 1342 0074 03000000 		.long	3
 1343              	 # <anonymous>:
 1344 0078 04000000 		.long	4
 1345              	 # <anonymous>:
 1346 007c 6B390884 		.long	-2079835797
 1347              	 # <anonymous>:
 1348 0080 03000000 		.long	3
 1349              	 # <anonymous>:
 1350 0084 03000000 		.long	3
 1351              	 # <anonymous>:
 1352 0088 A7FCB162 		.long	1655831719
 1353              	 # <anonymous>:
 1354 008c 03000000 		.long	3
 1355              	 # <anonymous>:
 1356 0090 02000000 		.long	2
 1357              	 # <anonymous>:
 1358 0094 82E0899C 		.long	-1668685694
 1359              	 # <anonymous>:
 1360 0098 07000000 		.long	7
 1361              	 # <anonymous>:
 1362 009c 01000000 		.long	1
 1363              	 # <anonymous>:
 1364 00a0 D2836883 		.long	-2090302510
GAS LISTING C:\cygwin\tmp\ccRh0JUa.s 			page 31


 1365              	 # <anonymous>:
 1366 00a4 05000000 		.long	5
 1367 00a8 00000000 		.align 32
 1367      00000000 
 1367      00000000 
 1367      00000000 
 1367      00000000 
 1368              	LPBX0:
 1369              	 # <anonymous>:
 1370 00c0 2A363034 		.long	875574826
 1371              	 # <anonymous>:
 1372 00c4 00000000 		.long	0
 1373              	 # <anonymous>:
 1374 00c8 77207060 		.long	1617961079
 1375              	 # <anonymous>:
 1376 00cc 00000000 		.long	LC0
 1377              	 # <anonymous>:
 1378 00d0 0E000000 		.long	14
 1379              	 # <anonymous>:
 1380 00d4 00000000 		.long	LC1
 1381              	 # <anonymous>:
 1382 00d8 01000000 		.long	1
 1383              	 # <anonymous>:
 1384              	 # <anonymous>:
 1385 00dc 48000000 		.long	72
 1386              	 # <anonymous>:
 1387 00e0 00000000 		.long	LPBX1
 1388              	 # <anonymous>:
 1389 00e4 00000000 		.long	___gcov_merge_add
 1390 00e8 00000000 		.space 12
 1390      00000000 
 1390      00000000 
 1391 00f4 00000000 		.text
 1391      00000000 
 1391      00000000 
 1392              		.def	__GLOBAL__sub_I_65535_0_chEvtRegisterMask;	.scl	3;	.type	32;	.endef
 1393              	__GLOBAL__sub_I_65535_0_chEvtRegisterMask:
 1394              	LFB14:
 1395              		.loc 1 543 0
 1396              		.cfi_startproc
 1397 0c5e 83EC1C   		subl	$28, %esp	 #,
 1398              	LCFI30:
 1399              		.cfi_def_cfa_offset 32
 1400              		.loc 1 543 0
 1401 0c61 C70424C0 		movl	$LPBX0, (%esp)	 #,
 1401      000000
 1402 0c68 E8000000 		call	___gcov_init	 #
 1402      00
 1403 0c6d 83C41C   		addl	$28, %esp	 #,
 1404              	LCFI31:
 1405              		.cfi_def_cfa_offset 4
 1406 0c70 C3       		ret
 1407              		.cfi_endproc
 1408              	LFE14:
 1409              		.section	.ctors,"w"
 1410              		.align 4
 1411 0000 5E0C0000 		.long	__GLOBAL__sub_I_65535_0_chEvtRegisterMask
GAS LISTING C:\cygwin\tmp\ccRh0JUa.s 			page 32


 1412              		.text
 1413              	Letext0:
 1414              		.file 2 "c:/mingw/bin/../lib/gcc/mingw32/4.6.2/../../../../include/stdint.h"
 1415              		.file 3 "../../os/ports/GCC/SIMIA32/chtypes.h"
 1416              		.file 4 "../../os/kernel/include/chlists.h"
 1417              		.file 5 "../../os/kernel/include/chthreads.h"
 1418              		.file 6 "../../os/ports/GCC/SIMIA32/chcore.h"
 1419              		.file 7 "../../os/kernel/include/chschd.h"
 1420              		.file 8 "../../os/kernel/include/chmtx.h"
 1421              		.file 9 "../../os/kernel/include/chevents.h"
 1422 0c71 909090   		.section	.debug_info,"dr"
 1423              	Ldebug_info0:
 1424 0000 030B0000 		.long	0xb03
 1425 0004 0200     		.word	0x2
 1426 0006 00000000 		.secrel32	Ldebug_abbrev0
 1427 000a 04       		.byte	0x4
 1428 000b 01       		.uleb128 0x1
 1429 000c 474E5520 		.ascii "GNU C 4.6.2\0"
 1429      4320342E 
 1429      362E3200 
 1430 0018 01       		.byte	0x1
 1431 0019 2E2E2F2E 		.ascii "../../os/kernel/src/chevents.c\0"
 1431      2E2F6F73 
 1431      2F6B6572 
 1431      6E656C2F 
 1431      7372632F 
 1432 0038 433A5C64 		.ascii "C:\\develop\\gyro\\ChibiOS\\test\\coverage\0"
 1432      6576656C 
 1432      6F705C67 
 1432      79726F5C 
 1432      43686962 
 1433 005e 00000000 		.long	Ltext0
 1434 0062 710C0000 		.long	Letext0
 1435 0066 00000000 		.secrel32	Ldebug_line0
 1436 006a 02       		.uleb128 0x2
 1437 006b 04       		.byte	0x4
 1438 006c 05       		.byte	0x5
 1439 006d 696E7400 		.ascii "int\0"
 1440 0071 02       		.uleb128 0x2
 1441 0072 04       		.byte	0x4
 1442 0073 07       		.byte	0x7
 1443 0074 756E7369 		.ascii "unsigned int\0"
 1443      676E6564 
 1443      20696E74 
 1443      00
 1444 0081 02       		.uleb128 0x2
 1445 0082 02       		.byte	0x2
 1446 0083 07       		.byte	0x7
 1447 0084 73686F72 		.ascii "short unsigned int\0"
 1447      7420756E 
 1447      7369676E 
 1447      65642069 
 1447      6E7400
 1448 0097 02       		.uleb128 0x2
 1449 0098 01       		.byte	0x1
 1450 0099 06       		.byte	0x6
 1451 009a 7369676E 		.ascii "signed char\0"
GAS LISTING C:\cygwin\tmp\ccRh0JUa.s 			page 33


 1451      65642063 
 1451      68617200 
 1452 00a6 03       		.uleb128 0x3
 1453 00a7 75696E74 		.ascii "uint8_t\0"
 1453      385F7400 
 1454 00af 02       		.byte	0x2
 1455 00b0 1C       		.byte	0x1c
 1456 00b1 B5000000 		.long	0xb5
 1457 00b5 02       		.uleb128 0x2
 1458 00b6 01       		.byte	0x1
 1459 00b7 08       		.byte	0x8
 1460 00b8 756E7369 		.ascii "unsigned char\0"
 1460      676E6564 
 1460      20636861 
 1460      7200
 1461 00c6 02       		.uleb128 0x2
 1462 00c7 02       		.byte	0x2
 1463 00c8 05       		.byte	0x5
 1464 00c9 73686F72 		.ascii "short int\0"
 1464      7420696E 
 1464      7400
 1465 00d3 03       		.uleb128 0x3
 1466 00d4 696E7433 		.ascii "int32_t\0"
 1466      325F7400 
 1467 00dc 02       		.byte	0x2
 1468 00dd 1F       		.byte	0x1f
 1469 00de 6A000000 		.long	0x6a
 1470 00e2 03       		.uleb128 0x3
 1471 00e3 75696E74 		.ascii "uint32_t\0"
 1471      33325F74 
 1471      00
 1472 00ec 02       		.byte	0x2
 1473 00ed 20       		.byte	0x20
 1474 00ee 71000000 		.long	0x71
 1475 00f2 02       		.uleb128 0x2
 1476 00f3 08       		.byte	0x8
 1477 00f4 05       		.byte	0x5
 1478 00f5 6C6F6E67 		.ascii "long long int\0"
 1478      206C6F6E 
 1478      6720696E 
 1478      7400
 1479 0103 02       		.uleb128 0x2
 1480 0104 08       		.byte	0x8
 1481 0105 07       		.byte	0x7
 1482 0106 6C6F6E67 		.ascii "long long unsigned int\0"
 1482      206C6F6E 
 1482      6720756E 
 1482      7369676E 
 1482      65642069 
 1483 011d 02       		.uleb128 0x2
 1484 011e 01       		.byte	0x1
 1485 011f 02       		.byte	0x2
 1486 0120 5F426F6F 		.ascii "_Bool\0"
 1486      6C00
 1487 0126 03       		.uleb128 0x3
 1488 0127 746D6F64 		.ascii "tmode_t\0"
 1488      655F7400 
GAS LISTING C:\cygwin\tmp\ccRh0JUa.s 			page 34


 1489 012f 03       		.byte	0x3
 1490 0130 1D       		.byte	0x1d
 1491 0131 A6000000 		.long	0xa6
 1492 0135 03       		.uleb128 0x3
 1493 0136 74737461 		.ascii "tstate_t\0"
 1493      74655F74 
 1493      00
 1494 013f 03       		.byte	0x3
 1495 0140 1E       		.byte	0x1e
 1496 0141 A6000000 		.long	0xa6
 1497 0145 03       		.uleb128 0x3
 1498 0146 74726566 		.ascii "trefs_t\0"
 1498      735F7400 
 1499 014e 03       		.byte	0x3
 1500 014f 1F       		.byte	0x1f
 1501 0150 A6000000 		.long	0xa6
 1502 0154 03       		.uleb128 0x3
 1503 0155 74736C69 		.ascii "tslices_t\0"
 1503      6365735F 
 1503      7400
 1504 015f 03       		.byte	0x3
 1505 0160 20       		.byte	0x20
 1506 0161 A6000000 		.long	0xa6
 1507 0165 03       		.uleb128 0x3
 1508 0166 74707269 		.ascii "tprio_t\0"
 1508      6F5F7400 
 1509 016e 03       		.byte	0x3
 1510 016f 21       		.byte	0x21
 1511 0170 E2000000 		.long	0xe2
 1512 0174 03       		.uleb128 0x3
 1513 0175 6D73675F 		.ascii "msg_t\0"
 1513      7400
 1514 017b 03       		.byte	0x3
 1515 017c 22       		.byte	0x22
 1516 017d D3000000 		.long	0xd3
 1517 0181 03       		.uleb128 0x3
 1518 0182 6576656E 		.ascii "eventid_t\0"
 1518      7469645F 
 1518      7400
 1519 018c 03       		.byte	0x3
 1520 018d 23       		.byte	0x23
 1521 018e D3000000 		.long	0xd3
 1522 0192 03       		.uleb128 0x3
 1523 0193 6576656E 		.ascii "eventmask_t\0"
 1523      746D6173 
 1523      6B5F7400 
 1524 019f 03       		.byte	0x3
 1525 01a0 24       		.byte	0x24
 1526 01a1 E2000000 		.long	0xe2
 1527 01a5 03       		.uleb128 0x3
 1528 01a6 666C6167 		.ascii "flagsmask_t\0"
 1528      736D6173 
 1528      6B5F7400 
 1529 01b2 03       		.byte	0x3
 1530 01b3 25       		.byte	0x25
 1531 01b4 E2000000 		.long	0xe2
 1532 01b8 03       		.uleb128 0x3
GAS LISTING C:\cygwin\tmp\ccRh0JUa.s 			page 35


 1533 01b9 73797374 		.ascii "systime_t\0"
 1533      696D655F 
 1533      7400
 1534 01c3 03       		.byte	0x3
 1535 01c4 26       		.byte	0x26
 1536 01c5 E2000000 		.long	0xe2
 1537 01c9 03       		.uleb128 0x3
 1538 01ca 54687265 		.ascii "Thread\0"
 1538      616400
 1539 01d1 04       		.byte	0x4
 1540 01d2 23       		.byte	0x23
 1541 01d3 D7010000 		.long	0x1d7
 1542 01d7 04       		.uleb128 0x4
 1543 01d8 54687265 		.ascii "Thread\0"
 1543      616400
 1544 01df 48       		.byte	0x48
 1545 01e0 05       		.byte	0x5
 1546 01e1 57       		.byte	0x57
 1547 01e2 4D030000 		.long	0x34d
 1548 01e6 05       		.uleb128 0x5
 1549 01e7 25000000 		.secrel32	LASF0
 1550 01eb 05       		.byte	0x5
 1551 01ec 58       		.byte	0x58
 1552 01ed 75030000 		.long	0x375
 1553 01f1 02       		.byte	0x2
 1554 01f2 23       		.byte	0x23
 1555 01f3 00       		.uleb128 0
 1556 01f4 06       		.uleb128 0x6
 1557 01f5 705F7072 		.ascii "p_prev\0"
 1557      657600
 1558 01fc 05       		.byte	0x5
 1559 01fd 5A       		.byte	0x5a
 1560 01fe 75030000 		.long	0x375
 1561 0202 02       		.byte	0x2
 1562 0203 23       		.byte	0x23
 1563 0204 04       		.uleb128 0x4
 1564 0205 06       		.uleb128 0x6
 1565 0206 705F7072 		.ascii "p_prio\0"
 1565      696F00
 1566 020d 05       		.byte	0x5
 1567 020e 5C       		.byte	0x5c
 1568 020f 65010000 		.long	0x165
 1569 0213 02       		.byte	0x2
 1570 0214 23       		.byte	0x23
 1571 0215 08       		.uleb128 0x8
 1572 0216 06       		.uleb128 0x6
 1573 0217 705F6374 		.ascii "p_ctx\0"
 1573      7800
 1574 021d 05       		.byte	0x5
 1575 021e 5D       		.byte	0x5d
 1576 021f 1F040000 		.long	0x41f
 1577 0223 02       		.byte	0x2
 1578 0224 23       		.byte	0x23
 1579 0225 0C       		.uleb128 0xc
 1580 0226 06       		.uleb128 0x6
 1581 0227 705F6E65 		.ascii "p_newer\0"
 1581      77657200 
GAS LISTING C:\cygwin\tmp\ccRh0JUa.s 			page 36


 1582 022f 05       		.byte	0x5
 1583 0230 5F       		.byte	0x5f
 1584 0231 75030000 		.long	0x375
 1585 0235 02       		.byte	0x2
 1586 0236 23       		.byte	0x23
 1587 0237 10       		.uleb128 0x10
 1588 0238 06       		.uleb128 0x6
 1589 0239 705F6F6C 		.ascii "p_older\0"
 1589      64657200 
 1590 0241 05       		.byte	0x5
 1591 0242 60       		.byte	0x60
 1592 0243 75030000 		.long	0x375
 1593 0247 02       		.byte	0x2
 1594 0248 23       		.byte	0x23
 1595 0249 14       		.uleb128 0x14
 1596 024a 06       		.uleb128 0x6
 1597 024b 705F6E61 		.ascii "p_name\0"
 1597      6D6500
 1598 0252 05       		.byte	0x5
 1599 0253 67       		.byte	0x67
 1600 0254 27060000 		.long	0x627
 1601 0258 02       		.byte	0x2
 1602 0259 23       		.byte	0x23
 1603 025a 18       		.uleb128 0x18
 1604 025b 06       		.uleb128 0x6
 1605 025c 705F7374 		.ascii "p_state\0"
 1605      61746500 
 1606 0264 05       		.byte	0x5
 1607 0265 72       		.byte	0x72
 1608 0266 35010000 		.long	0x135
 1609 026a 02       		.byte	0x2
 1610 026b 23       		.byte	0x23
 1611 026c 1C       		.uleb128 0x1c
 1612 026d 06       		.uleb128 0x6
 1613 026e 705F666C 		.ascii "p_flags\0"
 1613      61677300 
 1614 0276 05       		.byte	0x5
 1615 0277 76       		.byte	0x76
 1616 0278 26010000 		.long	0x126
 1617 027c 02       		.byte	0x2
 1618 027d 23       		.byte	0x23
 1619 027e 1D       		.uleb128 0x1d
 1620 027f 06       		.uleb128 0x6
 1621 0280 705F7265 		.ascii "p_refs\0"
 1621      667300
 1622 0287 05       		.byte	0x5
 1623 0288 7B       		.byte	0x7b
 1624 0289 45010000 		.long	0x145
 1625 028d 02       		.byte	0x2
 1626 028e 23       		.byte	0x23
 1627 028f 1E       		.uleb128 0x1e
 1628 0290 06       		.uleb128 0x6
 1629 0291 705F7072 		.ascii "p_preempt\0"
 1629      65656D70 
 1629      7400
 1630 029b 05       		.byte	0x5
 1631 029c 81       		.byte	0x81
GAS LISTING C:\cygwin\tmp\ccRh0JUa.s 			page 37


 1632 029d 54010000 		.long	0x154
 1633 02a1 02       		.byte	0x2
 1634 02a2 23       		.byte	0x23
 1635 02a3 1F       		.uleb128 0x1f
 1636 02a4 06       		.uleb128 0x6
 1637 02a5 705F7469 		.ascii "p_time\0"
 1637      6D6500
 1638 02ac 05       		.byte	0x5
 1639 02ad 88       		.byte	0x88
 1640 02ae 49040000 		.long	0x449
 1641 02b2 02       		.byte	0x2
 1642 02b3 23       		.byte	0x23
 1643 02b4 20       		.uleb128 0x20
 1644 02b5 06       		.uleb128 0x6
 1645 02b6 705F7500 		.ascii "p_u\0"
 1646 02ba 05       		.byte	0x5
 1647 02bb AD       		.byte	0xad
 1648 02bc E4050000 		.long	0x5e4
 1649 02c0 02       		.byte	0x2
 1650 02c1 23       		.byte	0x23
 1651 02c2 24       		.uleb128 0x24
 1652 02c3 06       		.uleb128 0x6
 1653 02c4 705F7761 		.ascii "p_waiting\0"
 1653      6974696E 
 1653      6700
 1654 02ce 05       		.byte	0x5
 1655 02cf B2       		.byte	0xb2
 1656 02d0 A6030000 		.long	0x3a6
 1657 02d4 02       		.byte	0x2
 1658 02d5 23       		.byte	0x23
 1659 02d6 28       		.uleb128 0x28
 1660 02d7 06       		.uleb128 0x6
 1661 02d8 705F6D73 		.ascii "p_msgqueue\0"
 1661      67717565 
 1661      756500
 1662 02e3 05       		.byte	0x5
 1663 02e4 B8       		.byte	0xb8
 1664 02e5 7B030000 		.long	0x37b
 1665 02e9 02       		.byte	0x2
 1666 02ea 23       		.byte	0x23
 1667 02eb 2C       		.uleb128 0x2c
 1668 02ec 06       		.uleb128 0x6
 1669 02ed 705F6D73 		.ascii "p_msg\0"
 1669      6700
 1670 02f3 05       		.byte	0x5
 1671 02f4 BC       		.byte	0xbc
 1672 02f5 74010000 		.long	0x174
 1673 02f9 02       		.byte	0x2
 1674 02fa 23       		.byte	0x23
 1675 02fb 34       		.uleb128 0x34
 1676 02fc 06       		.uleb128 0x6
 1677 02fd 705F6570 		.ascii "p_epending\0"
 1677      656E6469 
 1677      6E6700
 1678 0308 05       		.byte	0x5
 1679 0309 C2       		.byte	0xc2
 1680 030a 92010000 		.long	0x192
GAS LISTING C:\cygwin\tmp\ccRh0JUa.s 			page 38


 1681 030e 02       		.byte	0x2
 1682 030f 23       		.byte	0x23
 1683 0310 38       		.uleb128 0x38
 1684 0311 06       		.uleb128 0x6
 1685 0312 705F6D74 		.ascii "p_mtxlist\0"
 1685      786C6973 
 1685      7400
 1686 031c 05       		.byte	0x5
 1687 031d C9       		.byte	0xc9
 1688 031e 3A060000 		.long	0x63a
 1689 0322 02       		.byte	0x2
 1690 0323 23       		.byte	0x23
 1691 0324 3C       		.uleb128 0x3c
 1692 0325 06       		.uleb128 0x6
 1693 0326 705F7265 		.ascii "p_realprio\0"
 1693      616C7072 
 1693      696F00
 1694 0331 05       		.byte	0x5
 1695 0332 CD       		.byte	0xcd
 1696 0333 65010000 		.long	0x165
 1697 0337 02       		.byte	0x2
 1698 0338 23       		.byte	0x23
 1699 0339 40       		.uleb128 0x40
 1700 033a 06       		.uleb128 0x6
 1701 033b 705F6D70 		.ascii "p_mpool\0"
 1701      6F6F6C00 
 1702 0343 05       		.byte	0x5
 1703 0344 D3       		.byte	0xd3
 1704 0345 C7030000 		.long	0x3c7
 1705 0349 02       		.byte	0x2
 1706 034a 23       		.byte	0x23
 1707 034b 44       		.uleb128 0x44
 1708 034c 00       		.byte	0
 1709 034d 07       		.uleb128 0x7
 1710 034e 08       		.byte	0x8
 1711 034f 04       		.byte	0x4
 1712 0350 5A       		.byte	0x5a
 1713 0351 75030000 		.long	0x375
 1714 0355 05       		.uleb128 0x5
 1715 0356 25000000 		.secrel32	LASF0
 1716 035a 04       		.byte	0x4
 1717 035b 5B       		.byte	0x5b
 1718 035c 75030000 		.long	0x375
 1719 0360 02       		.byte	0x2
 1720 0361 23       		.byte	0x23
 1721 0362 00       		.uleb128 0
 1722 0363 06       		.uleb128 0x6
 1723 0364 705F7072 		.ascii "p_prev\0"
 1723      657600
 1724 036b 04       		.byte	0x4
 1725 036c 5D       		.byte	0x5d
 1726 036d 75030000 		.long	0x375
 1727 0371 02       		.byte	0x2
 1728 0372 23       		.byte	0x23
 1729 0373 04       		.uleb128 0x4
 1730 0374 00       		.byte	0
 1731 0375 08       		.uleb128 0x8
GAS LISTING C:\cygwin\tmp\ccRh0JUa.s 			page 39


 1732 0376 04       		.byte	0x4
 1733 0377 C9010000 		.long	0x1c9
 1734 037b 03       		.uleb128 0x3
 1735 037c 54687265 		.ascii "ThreadsQueue\0"
 1735      61647351 
 1735      75657565 
 1735      00
 1736 0389 04       		.byte	0x4
 1737 038a 5F       		.byte	0x5f
 1738 038b 4D030000 		.long	0x34d
 1739 038f 07       		.uleb128 0x7
 1740 0390 04       		.byte	0x4
 1741 0391 04       		.byte	0x4
 1742 0392 64       		.byte	0x64
 1743 0393 A6030000 		.long	0x3a6
 1744 0397 05       		.uleb128 0x5
 1745 0398 25000000 		.secrel32	LASF0
 1746 039c 04       		.byte	0x4
 1747 039d 66       		.byte	0x66
 1748 039e 75030000 		.long	0x375
 1749 03a2 02       		.byte	0x2
 1750 03a3 23       		.byte	0x23
 1751 03a4 00       		.uleb128 0
 1752 03a5 00       		.byte	0
 1753 03a6 03       		.uleb128 0x3
 1754 03a7 54687265 		.ascii "ThreadsList\0"
 1754      6164734C 
 1754      69737400 
 1755 03b3 04       		.byte	0x4
 1756 03b4 69       		.byte	0x69
 1757 03b5 8F030000 		.long	0x38f
 1758 03b9 03       		.uleb128 0x3
 1759 03ba 72656778 		.ascii "regx86\0"
 1759      383600
 1760 03c1 06       		.byte	0x6
 1761 03c2 44       		.byte	0x44
 1762 03c3 C7030000 		.long	0x3c7
 1763 03c7 09       		.uleb128 0x9
 1764 03c8 04       		.byte	0x4
 1765 03c9 04       		.uleb128 0x4
 1766 03ca 696E7463 		.ascii "intctx\0"
 1766      747800
 1767 03d1 14       		.byte	0x14
 1768 03d2 06       		.byte	0x6
 1769 03d3 52       		.byte	0x52
 1770 03d4 1F040000 		.long	0x41f
 1771 03d8 06       		.uleb128 0x6
 1772 03d9 65627800 		.ascii "ebx\0"
 1773 03dd 06       		.byte	0x6
 1774 03de 53       		.byte	0x53
 1775 03df B9030000 		.long	0x3b9
 1776 03e3 02       		.byte	0x2
 1777 03e4 23       		.byte	0x23
 1778 03e5 00       		.uleb128 0
 1779 03e6 06       		.uleb128 0x6
 1780 03e7 65646900 		.ascii "edi\0"
 1781 03eb 06       		.byte	0x6
GAS LISTING C:\cygwin\tmp\ccRh0JUa.s 			page 40


 1782 03ec 54       		.byte	0x54
 1783 03ed B9030000 		.long	0x3b9
 1784 03f1 02       		.byte	0x2
 1785 03f2 23       		.byte	0x23
 1786 03f3 04       		.uleb128 0x4
 1787 03f4 06       		.uleb128 0x6
 1788 03f5 65736900 		.ascii "esi\0"
 1789 03f9 06       		.byte	0x6
 1790 03fa 55       		.byte	0x55
 1791 03fb B9030000 		.long	0x3b9
 1792 03ff 02       		.byte	0x2
 1793 0400 23       		.byte	0x23
 1794 0401 08       		.uleb128 0x8
 1795 0402 06       		.uleb128 0x6
 1796 0403 65627000 		.ascii "ebp\0"
 1797 0407 06       		.byte	0x6
 1798 0408 56       		.byte	0x56
 1799 0409 B9030000 		.long	0x3b9
 1800 040d 02       		.byte	0x2
 1801 040e 23       		.byte	0x23
 1802 040f 0C       		.uleb128 0xc
 1803 0410 06       		.uleb128 0x6
 1804 0411 65697000 		.ascii "eip\0"
 1805 0415 06       		.byte	0x6
 1806 0416 57       		.byte	0x57
 1807 0417 B9030000 		.long	0x3b9
 1808 041b 02       		.byte	0x2
 1809 041c 23       		.byte	0x23
 1810 041d 10       		.uleb128 0x10
 1811 041e 00       		.byte	0
 1812 041f 04       		.uleb128 0x4
 1813 0420 636F6E74 		.ascii "context\0"
 1813      65787400 
 1814 0428 04       		.byte	0x4
 1815 0429 06       		.byte	0x6
 1816 042a 5F       		.byte	0x5f
 1817 042b 3E040000 		.long	0x43e
 1818 042f 06       		.uleb128 0x6
 1819 0430 65737000 		.ascii "esp\0"
 1820 0434 06       		.byte	0x6
 1821 0435 60       		.byte	0x60
 1822 0436 3E040000 		.long	0x43e
 1823 043a 02       		.byte	0x2
 1824 043b 23       		.byte	0x23
 1825 043c 00       		.uleb128 0
 1826 043d 00       		.byte	0
 1827 043e 08       		.uleb128 0x8
 1828 043f 04       		.byte	0x4
 1829 0440 44040000 		.long	0x444
 1830 0444 0A       		.uleb128 0xa
 1831 0445 C9030000 		.long	0x3c9
 1832 0449 0A       		.uleb128 0xa
 1833 044a B8010000 		.long	0x1b8
 1834 044e 07       		.uleb128 0x7
 1835 044f 1C       		.byte	0x1c
 1836 0450 07       		.byte	0x7
 1837 0451 57       		.byte	0x57
GAS LISTING C:\cygwin\tmp\ccRh0JUa.s 			page 41


 1838 0452 C2040000 		.long	0x4c2
 1839 0456 06       		.uleb128 0x6
 1840 0457 725F7175 		.ascii "r_queue\0"
 1840      65756500 
 1841 045f 07       		.byte	0x7
 1842 0460 58       		.byte	0x58
 1843 0461 7B030000 		.long	0x37b
 1844 0465 02       		.byte	0x2
 1845 0466 23       		.byte	0x23
 1846 0467 00       		.uleb128 0
 1847 0468 06       		.uleb128 0x6
 1848 0469 725F7072 		.ascii "r_prio\0"
 1848      696F00
 1849 0470 07       		.byte	0x7
 1850 0471 59       		.byte	0x59
 1851 0472 65010000 		.long	0x165
 1852 0476 02       		.byte	0x2
 1853 0477 23       		.byte	0x23
 1854 0478 08       		.uleb128 0x8
 1855 0479 06       		.uleb128 0x6
 1856 047a 725F6374 		.ascii "r_ctx\0"
 1856      7800
 1857 0480 07       		.byte	0x7
 1858 0481 5B       		.byte	0x5b
 1859 0482 1F040000 		.long	0x41f
 1860 0486 02       		.byte	0x2
 1861 0487 23       		.byte	0x23
 1862 0488 0C       		.uleb128 0xc
 1863 0489 06       		.uleb128 0x6
 1864 048a 725F6E65 		.ascii "r_newer\0"
 1864      77657200 
 1865 0492 07       		.byte	0x7
 1866 0493 5E       		.byte	0x5e
 1867 0494 75030000 		.long	0x375
 1868 0498 02       		.byte	0x2
 1869 0499 23       		.byte	0x23
 1870 049a 10       		.uleb128 0x10
 1871 049b 06       		.uleb128 0x6
 1872 049c 725F6F6C 		.ascii "r_older\0"
 1872      64657200 
 1873 04a4 07       		.byte	0x7
 1874 04a5 5F       		.byte	0x5f
 1875 04a6 75030000 		.long	0x375
 1876 04aa 02       		.byte	0x2
 1877 04ab 23       		.byte	0x23
 1878 04ac 14       		.uleb128 0x14
 1879 04ad 06       		.uleb128 0x6
 1880 04ae 725F6375 		.ascii "r_current\0"
 1880      7272656E 
 1880      7400
 1881 04b8 07       		.byte	0x7
 1882 04b9 62       		.byte	0x62
 1883 04ba 75030000 		.long	0x375
 1884 04be 02       		.byte	0x2
 1885 04bf 23       		.byte	0x23
 1886 04c0 18       		.uleb128 0x18
 1887 04c1 00       		.byte	0
GAS LISTING C:\cygwin\tmp\ccRh0JUa.s 			page 42


 1888 04c2 03       		.uleb128 0x3
 1889 04c3 52656164 		.ascii "ReadyList\0"
 1889      794C6973 
 1889      7400
 1890 04cd 07       		.byte	0x7
 1891 04ce 64       		.byte	0x64
 1892 04cf 4E040000 		.long	0x44e
 1893 04d3 04       		.uleb128 0x4
 1894 04d4 4D757465 		.ascii "Mutex\0"
 1894      7800
 1895 04da 10       		.byte	0x10
 1896 04db 08       		.byte	0x8
 1897 04dc 25       		.byte	0x25
 1898 04dd 17050000 		.long	0x517
 1899 04e1 06       		.uleb128 0x6
 1900 04e2 6D5F7175 		.ascii "m_queue\0"
 1900      65756500 
 1901 04ea 08       		.byte	0x8
 1902 04eb 26       		.byte	0x26
 1903 04ec 7B030000 		.long	0x37b
 1904 04f0 02       		.byte	0x2
 1905 04f1 23       		.byte	0x23
 1906 04f2 00       		.uleb128 0
 1907 04f3 06       		.uleb128 0x6
 1908 04f4 6D5F6F77 		.ascii "m_owner\0"
 1908      6E657200 
 1909 04fc 08       		.byte	0x8
 1910 04fd 28       		.byte	0x28
 1911 04fe 75030000 		.long	0x375
 1912 0502 02       		.byte	0x2
 1913 0503 23       		.byte	0x23
 1914 0504 08       		.uleb128 0x8
 1915 0505 06       		.uleb128 0x6
 1916 0506 6D5F6E65 		.ascii "m_next\0"
 1916      787400
 1917 050d 08       		.byte	0x8
 1918 050e 2A       		.byte	0x2a
 1919 050f 17050000 		.long	0x517
 1920 0513 02       		.byte	0x2
 1921 0514 23       		.byte	0x23
 1922 0515 0C       		.uleb128 0xc
 1923 0516 00       		.byte	0
 1924 0517 08       		.uleb128 0x8
 1925 0518 04       		.byte	0x4
 1926 0519 D3040000 		.long	0x4d3
 1927 051d 03       		.uleb128 0x3
 1928 051e 4D757465 		.ascii "Mutex\0"
 1928      7800
 1929 0524 08       		.byte	0x8
 1930 0525 2C       		.byte	0x2c
 1931 0526 D3040000 		.long	0x4d3
 1932 052a 0B       		.uleb128 0xb
 1933 052b 17000000 		.secrel32	LASF1
 1934 052f 09       		.byte	0x9
 1935 0530 25       		.byte	0x25
 1936 0531 35050000 		.long	0x535
 1937 0535 0C       		.uleb128 0xc
GAS LISTING C:\cygwin\tmp\ccRh0JUa.s 			page 43


 1938 0536 17000000 		.secrel32	LASF1
 1939 053a 10       		.byte	0x10
 1940 053b 09       		.byte	0x9
 1941 053c 2A       		.byte	0x2a
 1942 053d 8F050000 		.long	0x58f
 1943 0541 06       		.uleb128 0x6
 1944 0542 656C5F6E 		.ascii "el_next\0"
 1944      65787400 
 1945 054a 09       		.byte	0x9
 1946 054b 2B       		.byte	0x2b
 1947 054c 8F050000 		.long	0x58f
 1948 0550 02       		.byte	0x2
 1949 0551 23       		.byte	0x23
 1950 0552 00       		.uleb128 0
 1951 0553 06       		.uleb128 0x6
 1952 0554 656C5F6C 		.ascii "el_listener\0"
 1952      69737465 
 1952      6E657200 
 1953 0560 09       		.byte	0x9
 1954 0561 2E       		.byte	0x2e
 1955 0562 75030000 		.long	0x375
 1956 0566 02       		.byte	0x2
 1957 0567 23       		.byte	0x23
 1958 0568 04       		.uleb128 0x4
 1959 0569 06       		.uleb128 0x6
 1960 056a 656C5F6D 		.ascii "el_mask\0"
 1960      61736B00 
 1961 0572 09       		.byte	0x9
 1962 0573 30       		.byte	0x30
 1963 0574 92010000 		.long	0x192
 1964 0578 02       		.byte	0x2
 1965 0579 23       		.byte	0x23
 1966 057a 08       		.uleb128 0x8
 1967 057b 06       		.uleb128 0x6
 1968 057c 656C5F66 		.ascii "el_flags\0"
 1968      6C616773 
 1968      00
 1969 0585 09       		.byte	0x9
 1970 0586 33       		.byte	0x33
 1971 0587 A5010000 		.long	0x1a5
 1972 058b 02       		.byte	0x2
 1973 058c 23       		.byte	0x23
 1974 058d 0C       		.uleb128 0xc
 1975 058e 00       		.byte	0
 1976 058f 08       		.uleb128 0x8
 1977 0590 04       		.byte	0x4
 1978 0591 2A050000 		.long	0x52a
 1979 0595 0C       		.uleb128 0xc
 1980 0596 05000000 		.secrel32	LASF2
 1981 059a 04       		.byte	0x4
 1982 059b 09       		.byte	0x9
 1983 059c 3A       		.byte	0x3a
 1984 059d B4050000 		.long	0x5b4
 1985 05a1 06       		.uleb128 0x6
 1986 05a2 65735F6E 		.ascii "es_next\0"
 1986      65787400 
 1987 05aa 09       		.byte	0x9
GAS LISTING C:\cygwin\tmp\ccRh0JUa.s 			page 44


 1988 05ab 3B       		.byte	0x3b
 1989 05ac 8F050000 		.long	0x58f
 1990 05b0 02       		.byte	0x2
 1991 05b1 23       		.byte	0x23
 1992 05b2 00       		.uleb128 0
 1993 05b3 00       		.byte	0
 1994 05b4 0B       		.uleb128 0xb
 1995 05b5 05000000 		.secrel32	LASF2
 1996 05b9 09       		.byte	0x9
 1997 05ba 3E       		.byte	0x3e
 1998 05bb 95050000 		.long	0x595
 1999 05bf 03       		.uleb128 0x3
 2000 05c0 65766861 		.ascii "evhandler_t\0"
 2000      6E646C65 
 2000      725F7400 
 2001 05cc 09       		.byte	0x9
 2002 05cd 43       		.byte	0x43
 2003 05ce D2050000 		.long	0x5d2
 2004 05d2 08       		.uleb128 0x8
 2005 05d3 04       		.byte	0x4
 2006 05d4 D8050000 		.long	0x5d8
 2007 05d8 0D       		.uleb128 0xd
 2008 05d9 01       		.byte	0x1
 2009 05da E4050000 		.long	0x5e4
 2010 05de 0E       		.uleb128 0xe
 2011 05df 81010000 		.long	0x181
 2012 05e3 00       		.byte	0
 2013 05e4 0F       		.uleb128 0xf
 2014 05e5 04       		.byte	0x4
 2015 05e6 05       		.byte	0x5
 2016 05e7 8F       		.byte	0x8f
 2017 05e8 27060000 		.long	0x627
 2018 05ec 10       		.uleb128 0x10
 2019 05ed 7264796D 		.ascii "rdymsg\0"
 2019      736700
 2020 05f4 05       		.byte	0x5
 2021 05f5 96       		.byte	0x96
 2022 05f6 74010000 		.long	0x174
 2023 05fa 10       		.uleb128 0x10
 2024 05fb 65786974 		.ascii "exitcode\0"
 2024      636F6465 
 2024      00
 2025 0604 05       		.byte	0x5
 2026 0605 9D       		.byte	0x9d
 2027 0606 74010000 		.long	0x174
 2028 060a 10       		.uleb128 0x10
 2029 060b 77746F62 		.ascii "wtobjp\0"
 2029      6A7000
 2030 0612 05       		.byte	0x5
 2031 0613 A4       		.byte	0xa4
 2032 0614 C7030000 		.long	0x3c7
 2033 0618 10       		.uleb128 0x10
 2034 0619 65776D61 		.ascii "ewmask\0"
 2034      736B00
 2035 0620 05       		.byte	0x5
 2036 0621 AB       		.byte	0xab
 2037 0622 92010000 		.long	0x192
GAS LISTING C:\cygwin\tmp\ccRh0JUa.s 			page 45


 2038 0626 00       		.byte	0
 2039 0627 08       		.uleb128 0x8
 2040 0628 04       		.byte	0x4
 2041 0629 2D060000 		.long	0x62d
 2042 062d 11       		.uleb128 0x11
 2043 062e 32060000 		.long	0x632
 2044 0632 02       		.uleb128 0x2
 2045 0633 01       		.byte	0x1
 2046 0634 06       		.byte	0x6
 2047 0635 63686172 		.ascii "char\0"
 2047      00
 2048 063a 08       		.uleb128 0x8
 2049 063b 04       		.byte	0x4
 2050 063c 1D050000 		.long	0x51d
 2051 0640 12       		.uleb128 0x12
 2052 0641 01       		.byte	0x1
 2053 0642 63684576 		.ascii "chEvtRegisterMask\0"
 2053      74526567 
 2053      69737465 
 2053      724D6173 
 2053      6B00
 2054 0654 01       		.byte	0x1
 2055 0655 4E       		.byte	0x4e
 2056 0656 01       		.byte	0x1
 2057 0657 00000000 		.long	LFB0
 2058 065b DE000000 		.long	LFE0
 2059 065f 00000000 		.secrel32	LLST0
 2060 0663 92060000 		.long	0x692
 2061 0667 13       		.uleb128 0x13
 2062 0668 65737000 		.ascii "esp\0"
 2063 066c 01       		.byte	0x1
 2064 066d 4E       		.byte	0x4e
 2065 066e 92060000 		.long	0x692
 2066 0672 02       		.byte	0x2
 2067 0673 91       		.byte	0x91
 2068 0674 00       		.sleb128 0
 2069 0675 13       		.uleb128 0x13
 2070 0676 656C7000 		.ascii "elp\0"
 2071 067a 01       		.byte	0x1
 2072 067b 4E       		.byte	0x4e
 2073 067c 8F050000 		.long	0x58f
 2074 0680 02       		.byte	0x2
 2075 0681 91       		.byte	0x91
 2076 0682 04       		.sleb128 4
 2077 0683 14       		.uleb128 0x14
 2078 0684 00000000 		.secrel32	LASF3
 2079 0688 01       		.byte	0x1
 2080 0689 4E       		.byte	0x4e
 2081 068a 92010000 		.long	0x192
 2082 068e 02       		.byte	0x2
 2083 068f 91       		.byte	0x91
 2084 0690 08       		.sleb128 8
 2085 0691 00       		.byte	0
 2086 0692 08       		.uleb128 0x8
 2087 0693 04       		.byte	0x4
 2088 0694 B4050000 		.long	0x5b4
 2089 0698 12       		.uleb128 0x12
GAS LISTING C:\cygwin\tmp\ccRh0JUa.s 			page 46


 2090 0699 01       		.byte	0x1
 2091 069a 63684576 		.ascii "chEvtUnregister\0"
 2091      74556E72 
 2091      65676973 
 2091      74657200 
 2092 06aa 01       		.byte	0x1
 2093 06ab 68       		.byte	0x68
 2094 06ac 01       		.byte	0x1
 2095 06ad DE000000 		.long	LFB1
 2096 06b1 F5010000 		.long	LFE1
 2097 06b5 2C000000 		.secrel32	LLST1
 2098 06b9 E6060000 		.long	0x6e6
 2099 06bd 13       		.uleb128 0x13
 2100 06be 65737000 		.ascii "esp\0"
 2101 06c2 01       		.byte	0x1
 2102 06c3 68       		.byte	0x68
 2103 06c4 92060000 		.long	0x692
 2104 06c8 02       		.byte	0x2
 2105 06c9 91       		.byte	0x91
 2106 06ca 00       		.sleb128 0
 2107 06cb 13       		.uleb128 0x13
 2108 06cc 656C7000 		.ascii "elp\0"
 2109 06d0 01       		.byte	0x1
 2110 06d1 68       		.byte	0x68
 2111 06d2 8F050000 		.long	0x58f
 2112 06d6 02       		.byte	0x2
 2113 06d7 91       		.byte	0x91
 2114 06d8 04       		.sleb128 4
 2115 06d9 15       		.uleb128 0x15
 2116 06da 7000     		.ascii "p\0"
 2117 06dc 01       		.byte	0x1
 2118 06dd 69       		.byte	0x69
 2119 06de 8F050000 		.long	0x58f
 2120 06e2 02       		.byte	0x2
 2121 06e3 91       		.byte	0x91
 2122 06e4 74       		.sleb128 -12
 2123 06e5 00       		.byte	0
 2124 06e6 16       		.uleb128 0x16
 2125 06e7 01       		.byte	0x1
 2126 06e8 63684576 		.ascii "chEvtGetAndClearEvents\0"
 2126      74476574 
 2126      416E6443 
 2126      6C656172 
 2126      4576656E 
 2127 06ff 01       		.byte	0x1
 2128 0700 81       		.byte	0x81
 2129 0701 01       		.byte	0x1
 2130 0702 92010000 		.long	0x192
 2131 0706 F5010000 		.long	LFB2
 2132 070a 7F020000 		.long	LFE2
 2133 070e 58000000 		.secrel32	LLST2
 2134 0712 31070000 		.long	0x731
 2135 0716 14       		.uleb128 0x14
 2136 0717 00000000 		.secrel32	LASF3
 2137 071b 01       		.byte	0x1
 2138 071c 81       		.byte	0x81
 2139 071d 92010000 		.long	0x192
GAS LISTING C:\cygwin\tmp\ccRh0JUa.s 			page 47


 2140 0721 02       		.byte	0x2
 2141 0722 91       		.byte	0x91
 2142 0723 00       		.sleb128 0
 2143 0724 15       		.uleb128 0x15
 2144 0725 6D00     		.ascii "m\0"
 2145 0727 01       		.byte	0x1
 2146 0728 82       		.byte	0x82
 2147 0729 92010000 		.long	0x192
 2148 072d 02       		.byte	0x2
 2149 072e 91       		.byte	0x91
 2150 072f 74       		.sleb128 -12
 2151 0730 00       		.byte	0
 2152 0731 16       		.uleb128 0x16
 2153 0732 01       		.byte	0x1
 2154 0733 63684576 		.ascii "chEvtAddEvents\0"
 2154      74416464 
 2154      4576656E 
 2154      747300
 2155 0742 01       		.byte	0x1
 2156 0743 96       		.byte	0x96
 2157 0744 01       		.byte	0x1
 2158 0745 92010000 		.long	0x192
 2159 0749 7F020000 		.long	LFB3
 2160 074d FC020000 		.long	LFE3
 2161 0751 84000000 		.secrel32	LLST3
 2162 0755 68070000 		.long	0x768
 2163 0759 14       		.uleb128 0x14
 2164 075a 00000000 		.secrel32	LASF3
 2165 075e 01       		.byte	0x1
 2166 075f 96       		.byte	0x96
 2167 0760 92010000 		.long	0x192
 2168 0764 02       		.byte	0x2
 2169 0765 91       		.byte	0x91
 2170 0766 00       		.sleb128 0
 2171 0767 00       		.byte	0
 2172 0768 12       		.uleb128 0x12
 2173 0769 01       		.byte	0x1
 2174 076a 63684576 		.ascii "chEvtBroadcastFlagsI\0"
 2174      7442726F 
 2174      61646361 
 2174      7374466C 
 2174      61677349 
 2175 077f 01       		.byte	0x1
 2176 0780 B1       		.byte	0xb1
 2177 0781 01       		.byte	0x1
 2178 0782 FC020000 		.long	LFB4
 2179 0786 A5030000 		.long	LFE4
 2180 078a B0000000 		.secrel32	LLST4
 2181 078e BD070000 		.long	0x7bd
 2182 0792 13       		.uleb128 0x13
 2183 0793 65737000 		.ascii "esp\0"
 2184 0797 01       		.byte	0x1
 2185 0798 B1       		.byte	0xb1
 2186 0799 92060000 		.long	0x692
 2187 079d 02       		.byte	0x2
 2188 079e 91       		.byte	0x91
 2189 079f 00       		.sleb128 0
GAS LISTING C:\cygwin\tmp\ccRh0JUa.s 			page 48


 2190 07a0 14       		.uleb128 0x14
 2191 07a1 11000000 		.secrel32	LASF4
 2192 07a5 01       		.byte	0x1
 2193 07a6 B1       		.byte	0xb1
 2194 07a7 A5010000 		.long	0x1a5
 2195 07ab 02       		.byte	0x2
 2196 07ac 91       		.byte	0x91
 2197 07ad 04       		.sleb128 4
 2198 07ae 15       		.uleb128 0x15
 2199 07af 656C7000 		.ascii "elp\0"
 2200 07b3 01       		.byte	0x1
 2201 07b4 B2       		.byte	0xb2
 2202 07b5 8F050000 		.long	0x58f
 2203 07b9 02       		.byte	0x2
 2204 07ba 91       		.byte	0x91
 2205 07bb 6C       		.sleb128 -20
 2206 07bc 00       		.byte	0
 2207 07bd 16       		.uleb128 0x16
 2208 07be 01       		.byte	0x1
 2209 07bf 63684576 		.ascii "chEvtGetAndClearFlags\0"
 2209      74476574 
 2209      416E6443 
 2209      6C656172 
 2209      466C6167 
 2210 07d5 01       		.byte	0x1
 2211 07d6 CA       		.byte	0xca
 2212 07d7 01       		.byte	0x1
 2213 07d8 A5010000 		.long	0x1a5
 2214 07dc A5030000 		.long	LFB5
 2215 07e0 1C040000 		.long	LFE5
 2216 07e4 DC000000 		.secrel32	LLST5
 2217 07e8 09080000 		.long	0x809
 2218 07ec 13       		.uleb128 0x13
 2219 07ed 656C7000 		.ascii "elp\0"
 2220 07f1 01       		.byte	0x1
 2221 07f2 CA       		.byte	0xca
 2222 07f3 8F050000 		.long	0x58f
 2223 07f7 02       		.byte	0x2
 2224 07f8 91       		.byte	0x91
 2225 07f9 00       		.sleb128 0
 2226 07fa 17       		.uleb128 0x17
 2227 07fb 11000000 		.secrel32	LASF4
 2228 07ff 01       		.byte	0x1
 2229 0800 CB       		.byte	0xcb
 2230 0801 A5010000 		.long	0x1a5
 2231 0805 02       		.byte	0x2
 2232 0806 91       		.byte	0x91
 2233 0807 74       		.sleb128 -12
 2234 0808 00       		.byte	0
 2235 0809 12       		.uleb128 0x12
 2236 080a 01       		.byte	0x1
 2237 080b 63684576 		.ascii "chEvtSignal\0"
 2237      74536967 
 2237      6E616C00 
 2238 0817 01       		.byte	0x1
 2239 0818 DE       		.byte	0xde
 2240 0819 01       		.byte	0x1
GAS LISTING C:\cygwin\tmp\ccRh0JUa.s 			page 49


 2241 081a 1C040000 		.long	LFB6
 2242 081e CA040000 		.long	LFE6
 2243 0822 08010000 		.secrel32	LLST6
 2244 0826 46080000 		.long	0x846
 2245 082a 13       		.uleb128 0x13
 2246 082b 747000   		.ascii "tp\0"
 2247 082e 01       		.byte	0x1
 2248 082f DE       		.byte	0xde
 2249 0830 75030000 		.long	0x375
 2250 0834 02       		.byte	0x2
 2251 0835 91       		.byte	0x91
 2252 0836 00       		.sleb128 0
 2253 0837 14       		.uleb128 0x14
 2254 0838 00000000 		.secrel32	LASF3
 2255 083c 01       		.byte	0x1
 2256 083d DE       		.byte	0xde
 2257 083e 92010000 		.long	0x192
 2258 0842 02       		.byte	0x2
 2259 0843 91       		.byte	0x91
 2260 0844 04       		.sleb128 4
 2261 0845 00       		.byte	0
 2262 0846 12       		.uleb128 0x12
 2263 0847 01       		.byte	0x1
 2264 0848 63684576 		.ascii "chEvtSignalI\0"
 2264      74536967 
 2264      6E616C49 
 2264      00
 2265 0855 01       		.byte	0x1
 2266 0856 F4       		.byte	0xf4
 2267 0857 01       		.byte	0x1
 2268 0858 CA040000 		.long	LFB7
 2269 085c F0050000 		.long	LFE7
 2270 0860 34010000 		.secrel32	LLST7
 2271 0864 84080000 		.long	0x884
 2272 0868 13       		.uleb128 0x13
 2273 0869 747000   		.ascii "tp\0"
 2274 086c 01       		.byte	0x1
 2275 086d F4       		.byte	0xf4
 2276 086e 75030000 		.long	0x375
 2277 0872 02       		.byte	0x2
 2278 0873 91       		.byte	0x91
 2279 0874 00       		.sleb128 0
 2280 0875 14       		.uleb128 0x14
 2281 0876 00000000 		.secrel32	LASF3
 2282 087a 01       		.byte	0x1
 2283 087b F4       		.byte	0xf4
 2284 087c 92010000 		.long	0x192
 2285 0880 02       		.byte	0x2
 2286 0881 91       		.byte	0x91
 2287 0882 04       		.sleb128 4
 2288 0883 00       		.byte	0
 2289 0884 18       		.uleb128 0x18
 2290 0885 01       		.byte	0x1
 2291 0886 63684576 		.ascii "chEvtBroadcastFlags\0"
 2291      7442726F 
 2291      61646361 
 2291      7374466C 
GAS LISTING C:\cygwin\tmp\ccRh0JUa.s 			page 50


 2291      61677300 
 2292 089a 01       		.byte	0x1
 2293 089b 0F01     		.word	0x10f
 2294 089d 01       		.byte	0x1
 2295 089e F0050000 		.long	LFB8
 2296 08a2 9E060000 		.long	LFE8
 2297 08a6 60010000 		.secrel32	LLST8
 2298 08aa CD080000 		.long	0x8cd
 2299 08ae 19       		.uleb128 0x19
 2300 08af 65737000 		.ascii "esp\0"
 2301 08b3 01       		.byte	0x1
 2302 08b4 0F01     		.word	0x10f
 2303 08b6 92060000 		.long	0x692
 2304 08ba 02       		.byte	0x2
 2305 08bb 91       		.byte	0x91
 2306 08bc 00       		.sleb128 0
 2307 08bd 1A       		.uleb128 0x1a
 2308 08be 11000000 		.secrel32	LASF4
 2309 08c2 01       		.byte	0x1
 2310 08c3 0F01     		.word	0x10f
 2311 08c5 A5010000 		.long	0x1a5
 2312 08c9 02       		.byte	0x2
 2313 08ca 91       		.byte	0x91
 2314 08cb 04       		.sleb128 4
 2315 08cc 00       		.byte	0
 2316 08cd 1B       		.uleb128 0x1b
 2317 08ce 01       		.byte	0x1
 2318 08cf 63684576 		.ascii "chEvtGetAndClearFlagsI\0"
 2318      74476574 
 2318      416E6443 
 2318      6C656172 
 2318      466C6167 
 2319 08e6 01       		.byte	0x1
 2320 08e7 2201     		.word	0x122
 2321 08e9 01       		.byte	0x1
 2322 08ea A5010000 		.long	0x1a5
 2323 08ee 9E060000 		.long	LFB9
 2324 08f2 DB060000 		.long	LFE9
 2325 08f6 8C010000 		.secrel32	LLST9
 2326 08fa 1D090000 		.long	0x91d
 2327 08fe 19       		.uleb128 0x19
 2328 08ff 656C7000 		.ascii "elp\0"
 2329 0903 01       		.byte	0x1
 2330 0904 2201     		.word	0x122
 2331 0906 8F050000 		.long	0x58f
 2332 090a 02       		.byte	0x2
 2333 090b 91       		.byte	0x91
 2334 090c 00       		.sleb128 0
 2335 090d 1C       		.uleb128 0x1c
 2336 090e 11000000 		.secrel32	LASF4
 2337 0912 01       		.byte	0x1
 2338 0913 2301     		.word	0x123
 2339 0915 A5010000 		.long	0x1a5
 2340 0919 02       		.byte	0x2
 2341 091a 91       		.byte	0x91
 2342 091b 74       		.sleb128 -12
 2343 091c 00       		.byte	0
GAS LISTING C:\cygwin\tmp\ccRh0JUa.s 			page 51


 2344 091d 18       		.uleb128 0x18
 2345 091e 01       		.byte	0x1
 2346 091f 63684576 		.ascii "chEvtDispatch\0"
 2346      74446973 
 2346      70617463 
 2346      6800
 2347 092d 01       		.byte	0x1
 2348 092e 3401     		.word	0x134
 2349 0930 01       		.byte	0x1
 2350 0931 DB060000 		.long	LFB10
 2351 0935 B6070000 		.long	LFE10
 2352 0939 B8010000 		.secrel32	LLST10
 2353 093d 74090000 		.long	0x974
 2354 0941 19       		.uleb128 0x19
 2355 0942 68616E64 		.ascii "handlers\0"
 2355      6C657273 
 2355      00
 2356 094b 01       		.byte	0x1
 2357 094c 3401     		.word	0x134
 2358 094e 74090000 		.long	0x974
 2359 0952 02       		.byte	0x2
 2360 0953 91       		.byte	0x91
 2361 0954 00       		.sleb128 0
 2362 0955 1A       		.uleb128 0x1a
 2363 0956 00000000 		.secrel32	LASF3
 2364 095a 01       		.byte	0x1
 2365 095b 3401     		.word	0x134
 2366 095d 92010000 		.long	0x192
 2367 0961 02       		.byte	0x2
 2368 0962 91       		.byte	0x91
 2369 0963 04       		.sleb128 4
 2370 0964 1D       		.uleb128 0x1d
 2371 0965 65696400 		.ascii "eid\0"
 2372 0969 01       		.byte	0x1
 2373 096a 3501     		.word	0x135
 2374 096c 81010000 		.long	0x181
 2375 0970 02       		.byte	0x2
 2376 0971 91       		.byte	0x91
 2377 0972 6C       		.sleb128 -20
 2378 0973 00       		.byte	0
 2379 0974 08       		.uleb128 0x8
 2380 0975 04       		.byte	0x4
 2381 0976 7A090000 		.long	0x97a
 2382 097a 11       		.uleb128 0x11
 2383 097b BF050000 		.long	0x5bf
 2384 097f 1B       		.uleb128 0x1b
 2385 0980 01       		.byte	0x1
 2386 0981 63684576 		.ascii "chEvtWaitOneTimeout\0"
 2386      74576169 
 2386      744F6E65 
 2386      54696D65 
 2386      6F757400 
 2387 0995 01       		.byte	0x1
 2388 0996 B701     		.word	0x1b7
 2389 0998 01       		.byte	0x1
 2390 0999 92010000 		.long	0x192
 2391 099d B6070000 		.long	LFB11
GAS LISTING C:\cygwin\tmp\ccRh0JUa.s 			page 52


 2392 09a1 50090000 		.long	LFE11
 2393 09a5 FC010000 		.secrel32	LLST11
 2394 09a9 E9090000 		.long	0x9e9
 2395 09ad 1A       		.uleb128 0x1a
 2396 09ae 00000000 		.secrel32	LASF3
 2397 09b2 01       		.byte	0x1
 2398 09b3 B701     		.word	0x1b7
 2399 09b5 92010000 		.long	0x192
 2400 09b9 02       		.byte	0x2
 2401 09ba 91       		.byte	0x91
 2402 09bb 00       		.sleb128 0
 2403 09bc 19       		.uleb128 0x19
 2404 09bd 74696D65 		.ascii "time\0"
 2404      00
 2405 09c2 01       		.byte	0x1
 2406 09c3 B701     		.word	0x1b7
 2407 09c5 B8010000 		.long	0x1b8
 2408 09c9 02       		.byte	0x2
 2409 09ca 91       		.byte	0x91
 2410 09cb 04       		.sleb128 4
 2411 09cc 1D       		.uleb128 0x1d
 2412 09cd 63747000 		.ascii "ctp\0"
 2413 09d1 01       		.byte	0x1
 2414 09d2 B801     		.word	0x1b8
 2415 09d4 75030000 		.long	0x375
 2416 09d8 02       		.byte	0x2
 2417 09d9 91       		.byte	0x91
 2418 09da 68       		.sleb128 -24
 2419 09db 1D       		.uleb128 0x1d
 2420 09dc 6D00     		.ascii "m\0"
 2421 09de 01       		.byte	0x1
 2422 09df B901     		.word	0x1b9
 2423 09e1 92010000 		.long	0x192
 2424 09e5 02       		.byte	0x2
 2425 09e6 91       		.byte	0x91
 2426 09e7 6C       		.sleb128 -20
 2427 09e8 00       		.byte	0
 2428 09e9 1B       		.uleb128 0x1b
 2429 09ea 01       		.byte	0x1
 2430 09eb 63684576 		.ascii "chEvtWaitAnyTimeout\0"
 2430      74576169 
 2430      74416E79 
 2430      54696D65 
 2430      6F757400 
 2431 09ff 01       		.byte	0x1
 2432 0a00 E201     		.word	0x1e2
 2433 0a02 01       		.byte	0x1
 2434 0a03 92010000 		.long	0x192
 2435 0a07 50090000 		.long	LFB12
 2436 0a0b E00A0000 		.long	LFE12
 2437 0a0f 28020000 		.secrel32	LLST12
 2438 0a13 530A0000 		.long	0xa53
 2439 0a17 1A       		.uleb128 0x1a
 2440 0a18 00000000 		.secrel32	LASF3
 2441 0a1c 01       		.byte	0x1
 2442 0a1d E201     		.word	0x1e2
 2443 0a1f 92010000 		.long	0x192
GAS LISTING C:\cygwin\tmp\ccRh0JUa.s 			page 53


 2444 0a23 02       		.byte	0x2
 2445 0a24 91       		.byte	0x91
 2446 0a25 00       		.sleb128 0
 2447 0a26 19       		.uleb128 0x19
 2448 0a27 74696D65 		.ascii "time\0"
 2448      00
 2449 0a2c 01       		.byte	0x1
 2450 0a2d E201     		.word	0x1e2
 2451 0a2f B8010000 		.long	0x1b8
 2452 0a33 02       		.byte	0x2
 2453 0a34 91       		.byte	0x91
 2454 0a35 04       		.sleb128 4
 2455 0a36 1D       		.uleb128 0x1d
 2456 0a37 63747000 		.ascii "ctp\0"
 2457 0a3b 01       		.byte	0x1
 2458 0a3c E301     		.word	0x1e3
 2459 0a3e 75030000 		.long	0x375
 2460 0a42 02       		.byte	0x2
 2461 0a43 91       		.byte	0x91
 2462 0a44 68       		.sleb128 -24
 2463 0a45 1D       		.uleb128 0x1d
 2464 0a46 6D00     		.ascii "m\0"
 2465 0a48 01       		.byte	0x1
 2466 0a49 E401     		.word	0x1e4
 2467 0a4b 92010000 		.long	0x192
 2468 0a4f 02       		.byte	0x2
 2469 0a50 91       		.byte	0x91
 2470 0a51 6C       		.sleb128 -20
 2471 0a52 00       		.byte	0
 2472 0a53 1B       		.uleb128 0x1b
 2473 0a54 01       		.byte	0x1
 2474 0a55 63684576 		.ascii "chEvtWaitAllTimeout\0"
 2474      74576169 
 2474      74416C6C 
 2474      54696D65 
 2474      6F757400 
 2475 0a69 01       		.byte	0x1
 2476 0a6a 0B02     		.word	0x20b
 2477 0a6c 01       		.byte	0x1
 2478 0a6d 92010000 		.long	0x192
 2479 0a71 E00A0000 		.long	LFB13
 2480 0a75 5E0C0000 		.long	LFE13
 2481 0a79 54020000 		.secrel32	LLST13
 2482 0a7d B00A0000 		.long	0xab0
 2483 0a81 1A       		.uleb128 0x1a
 2484 0a82 00000000 		.secrel32	LASF3
 2485 0a86 01       		.byte	0x1
 2486 0a87 0B02     		.word	0x20b
 2487 0a89 92010000 		.long	0x192
 2488 0a8d 02       		.byte	0x2
 2489 0a8e 91       		.byte	0x91
 2490 0a8f 00       		.sleb128 0
 2491 0a90 19       		.uleb128 0x19
 2492 0a91 74696D65 		.ascii "time\0"
 2492      00
 2493 0a96 01       		.byte	0x1
 2494 0a97 0B02     		.word	0x20b
GAS LISTING C:\cygwin\tmp\ccRh0JUa.s 			page 54


 2495 0a99 B8010000 		.long	0x1b8
 2496 0a9d 02       		.byte	0x2
 2497 0a9e 91       		.byte	0x91
 2498 0a9f 04       		.sleb128 4
 2499 0aa0 1D       		.uleb128 0x1d
 2500 0aa1 63747000 		.ascii "ctp\0"
 2501 0aa5 01       		.byte	0x1
 2502 0aa6 0C02     		.word	0x20c
 2503 0aa8 75030000 		.long	0x375
 2504 0aac 02       		.byte	0x2
 2505 0aad 91       		.byte	0x91
 2506 0aae 6C       		.sleb128 -20
 2507 0aaf 00       		.byte	0
 2508 0ab0 1E       		.uleb128 0x1e
 2509 0ab1 5F474C4F 		.ascii "_GLOBAL__sub_I_65535_0_chEvtRegisterMask\0"
 2509      42414C5F 
 2509      5F737562 
 2509      5F495F36 
 2509      35353335 
 2510 0ada 01       		.byte	0x1
 2511 0adb 01       		.byte	0x1
 2512 0adc 5E0C0000 		.long	LFB14
 2513 0ae0 710C0000 		.long	LFE14
 2514 0ae4 80020000 		.secrel32	LLST14
 2515 0ae8 1F       		.uleb128 0x1f
 2516 0ae9 726C6973 		.ascii "rlist\0"
 2516      7400
 2517 0aef 07       		.byte	0x7
 2518 0af0 68       		.byte	0x68
 2519 0af1 C2040000 		.long	0x4c2
 2520 0af5 01       		.byte	0x1
 2521 0af6 01       		.byte	0x1
 2522 0af7 1F       		.uleb128 0x1f
 2523 0af8 726C6973 		.ascii "rlist\0"
 2523      7400
 2524 0afe 07       		.byte	0x7
 2525 0aff 68       		.byte	0x68
 2526 0b00 C2040000 		.long	0x4c2
 2527 0b04 01       		.byte	0x1
 2528 0b05 01       		.byte	0x1
 2529 0b06 00       		.byte	0
 2530              		.section	.debug_abbrev,"dr"
 2531              	Ldebug_abbrev0:
 2532 0000 01       		.uleb128 0x1
 2533 0001 11       		.uleb128 0x11
 2534 0002 01       		.byte	0x1
 2535 0003 25       		.uleb128 0x25
 2536 0004 08       		.uleb128 0x8
 2537 0005 13       		.uleb128 0x13
 2538 0006 0B       		.uleb128 0xb
 2539 0007 03       		.uleb128 0x3
 2540 0008 08       		.uleb128 0x8
 2541 0009 1B       		.uleb128 0x1b
 2542 000a 08       		.uleb128 0x8
 2543 000b 11       		.uleb128 0x11
 2544 000c 01       		.uleb128 0x1
 2545 000d 12       		.uleb128 0x12
GAS LISTING C:\cygwin\tmp\ccRh0JUa.s 			page 55


 2546 000e 01       		.uleb128 0x1
 2547 000f 10       		.uleb128 0x10
 2548 0010 06       		.uleb128 0x6
 2549 0011 00       		.byte	0
 2550 0012 00       		.byte	0
 2551 0013 02       		.uleb128 0x2
 2552 0014 24       		.uleb128 0x24
 2553 0015 00       		.byte	0
 2554 0016 0B       		.uleb128 0xb
 2555 0017 0B       		.uleb128 0xb
 2556 0018 3E       		.uleb128 0x3e
 2557 0019 0B       		.uleb128 0xb
 2558 001a 03       		.uleb128 0x3
 2559 001b 08       		.uleb128 0x8
 2560 001c 00       		.byte	0
 2561 001d 00       		.byte	0
 2562 001e 03       		.uleb128 0x3
 2563 001f 16       		.uleb128 0x16
 2564 0020 00       		.byte	0
 2565 0021 03       		.uleb128 0x3
 2566 0022 08       		.uleb128 0x8
 2567 0023 3A       		.uleb128 0x3a
 2568 0024 0B       		.uleb128 0xb
 2569 0025 3B       		.uleb128 0x3b
 2570 0026 0B       		.uleb128 0xb
 2571 0027 49       		.uleb128 0x49
 2572 0028 13       		.uleb128 0x13
 2573 0029 00       		.byte	0
 2574 002a 00       		.byte	0
 2575 002b 04       		.uleb128 0x4
 2576 002c 13       		.uleb128 0x13
 2577 002d 01       		.byte	0x1
 2578 002e 03       		.uleb128 0x3
 2579 002f 08       		.uleb128 0x8
 2580 0030 0B       		.uleb128 0xb
 2581 0031 0B       		.uleb128 0xb
 2582 0032 3A       		.uleb128 0x3a
 2583 0033 0B       		.uleb128 0xb
 2584 0034 3B       		.uleb128 0x3b
 2585 0035 0B       		.uleb128 0xb
 2586 0036 01       		.uleb128 0x1
 2587 0037 13       		.uleb128 0x13
 2588 0038 00       		.byte	0
 2589 0039 00       		.byte	0
 2590 003a 05       		.uleb128 0x5
 2591 003b 0D       		.uleb128 0xd
 2592 003c 00       		.byte	0
 2593 003d 03       		.uleb128 0x3
 2594 003e 0E       		.uleb128 0xe
 2595 003f 3A       		.uleb128 0x3a
 2596 0040 0B       		.uleb128 0xb
 2597 0041 3B       		.uleb128 0x3b
 2598 0042 0B       		.uleb128 0xb
 2599 0043 49       		.uleb128 0x49
 2600 0044 13       		.uleb128 0x13
 2601 0045 38       		.uleb128 0x38
 2602 0046 0A       		.uleb128 0xa
GAS LISTING C:\cygwin\tmp\ccRh0JUa.s 			page 56


 2603 0047 00       		.byte	0
 2604 0048 00       		.byte	0
 2605 0049 06       		.uleb128 0x6
 2606 004a 0D       		.uleb128 0xd
 2607 004b 00       		.byte	0
 2608 004c 03       		.uleb128 0x3
 2609 004d 08       		.uleb128 0x8
 2610 004e 3A       		.uleb128 0x3a
 2611 004f 0B       		.uleb128 0xb
 2612 0050 3B       		.uleb128 0x3b
 2613 0051 0B       		.uleb128 0xb
 2614 0052 49       		.uleb128 0x49
 2615 0053 13       		.uleb128 0x13
 2616 0054 38       		.uleb128 0x38
 2617 0055 0A       		.uleb128 0xa
 2618 0056 00       		.byte	0
 2619 0057 00       		.byte	0
 2620 0058 07       		.uleb128 0x7
 2621 0059 13       		.uleb128 0x13
 2622 005a 01       		.byte	0x1
 2623 005b 0B       		.uleb128 0xb
 2624 005c 0B       		.uleb128 0xb
 2625 005d 3A       		.uleb128 0x3a
 2626 005e 0B       		.uleb128 0xb
 2627 005f 3B       		.uleb128 0x3b
 2628 0060 0B       		.uleb128 0xb
 2629 0061 01       		.uleb128 0x1
 2630 0062 13       		.uleb128 0x13
 2631 0063 00       		.byte	0
 2632 0064 00       		.byte	0
 2633 0065 08       		.uleb128 0x8
 2634 0066 0F       		.uleb128 0xf
 2635 0067 00       		.byte	0
 2636 0068 0B       		.uleb128 0xb
 2637 0069 0B       		.uleb128 0xb
 2638 006a 49       		.uleb128 0x49
 2639 006b 13       		.uleb128 0x13
 2640 006c 00       		.byte	0
 2641 006d 00       		.byte	0
 2642 006e 09       		.uleb128 0x9
 2643 006f 0F       		.uleb128 0xf
 2644 0070 00       		.byte	0
 2645 0071 0B       		.uleb128 0xb
 2646 0072 0B       		.uleb128 0xb
 2647 0073 00       		.byte	0
 2648 0074 00       		.byte	0
 2649 0075 0A       		.uleb128 0xa
 2650 0076 35       		.uleb128 0x35
 2651 0077 00       		.byte	0
 2652 0078 49       		.uleb128 0x49
 2653 0079 13       		.uleb128 0x13
 2654 007a 00       		.byte	0
 2655 007b 00       		.byte	0
 2656 007c 0B       		.uleb128 0xb
 2657 007d 16       		.uleb128 0x16
 2658 007e 00       		.byte	0
 2659 007f 03       		.uleb128 0x3
GAS LISTING C:\cygwin\tmp\ccRh0JUa.s 			page 57


 2660 0080 0E       		.uleb128 0xe
 2661 0081 3A       		.uleb128 0x3a
 2662 0082 0B       		.uleb128 0xb
 2663 0083 3B       		.uleb128 0x3b
 2664 0084 0B       		.uleb128 0xb
 2665 0085 49       		.uleb128 0x49
 2666 0086 13       		.uleb128 0x13
 2667 0087 00       		.byte	0
 2668 0088 00       		.byte	0
 2669 0089 0C       		.uleb128 0xc
 2670 008a 13       		.uleb128 0x13
 2671 008b 01       		.byte	0x1
 2672 008c 03       		.uleb128 0x3
 2673 008d 0E       		.uleb128 0xe
 2674 008e 0B       		.uleb128 0xb
 2675 008f 0B       		.uleb128 0xb
 2676 0090 3A       		.uleb128 0x3a
 2677 0091 0B       		.uleb128 0xb
 2678 0092 3B       		.uleb128 0x3b
 2679 0093 0B       		.uleb128 0xb
 2680 0094 01       		.uleb128 0x1
 2681 0095 13       		.uleb128 0x13
 2682 0096 00       		.byte	0
 2683 0097 00       		.byte	0
 2684 0098 0D       		.uleb128 0xd
 2685 0099 15       		.uleb128 0x15
 2686 009a 01       		.byte	0x1
 2687 009b 27       		.uleb128 0x27
 2688 009c 0C       		.uleb128 0xc
 2689 009d 01       		.uleb128 0x1
 2690 009e 13       		.uleb128 0x13
 2691 009f 00       		.byte	0
 2692 00a0 00       		.byte	0
 2693 00a1 0E       		.uleb128 0xe
 2694 00a2 05       		.uleb128 0x5
 2695 00a3 00       		.byte	0
 2696 00a4 49       		.uleb128 0x49
 2697 00a5 13       		.uleb128 0x13
 2698 00a6 00       		.byte	0
 2699 00a7 00       		.byte	0
 2700 00a8 0F       		.uleb128 0xf
 2701 00a9 17       		.uleb128 0x17
 2702 00aa 01       		.byte	0x1
 2703 00ab 0B       		.uleb128 0xb
 2704 00ac 0B       		.uleb128 0xb
 2705 00ad 3A       		.uleb128 0x3a
 2706 00ae 0B       		.uleb128 0xb
 2707 00af 3B       		.uleb128 0x3b
 2708 00b0 0B       		.uleb128 0xb
 2709 00b1 01       		.uleb128 0x1
 2710 00b2 13       		.uleb128 0x13
 2711 00b3 00       		.byte	0
 2712 00b4 00       		.byte	0
 2713 00b5 10       		.uleb128 0x10
 2714 00b6 0D       		.uleb128 0xd
 2715 00b7 00       		.byte	0
 2716 00b8 03       		.uleb128 0x3
GAS LISTING C:\cygwin\tmp\ccRh0JUa.s 			page 58


 2717 00b9 08       		.uleb128 0x8
 2718 00ba 3A       		.uleb128 0x3a
 2719 00bb 0B       		.uleb128 0xb
 2720 00bc 3B       		.uleb128 0x3b
 2721 00bd 0B       		.uleb128 0xb
 2722 00be 49       		.uleb128 0x49
 2723 00bf 13       		.uleb128 0x13
 2724 00c0 00       		.byte	0
 2725 00c1 00       		.byte	0
 2726 00c2 11       		.uleb128 0x11
 2727 00c3 26       		.uleb128 0x26
 2728 00c4 00       		.byte	0
 2729 00c5 49       		.uleb128 0x49
 2730 00c6 13       		.uleb128 0x13
 2731 00c7 00       		.byte	0
 2732 00c8 00       		.byte	0
 2733 00c9 12       		.uleb128 0x12
 2734 00ca 2E       		.uleb128 0x2e
 2735 00cb 01       		.byte	0x1
 2736 00cc 3F       		.uleb128 0x3f
 2737 00cd 0C       		.uleb128 0xc
 2738 00ce 03       		.uleb128 0x3
 2739 00cf 08       		.uleb128 0x8
 2740 00d0 3A       		.uleb128 0x3a
 2741 00d1 0B       		.uleb128 0xb
 2742 00d2 3B       		.uleb128 0x3b
 2743 00d3 0B       		.uleb128 0xb
 2744 00d4 27       		.uleb128 0x27
 2745 00d5 0C       		.uleb128 0xc
 2746 00d6 11       		.uleb128 0x11
 2747 00d7 01       		.uleb128 0x1
 2748 00d8 12       		.uleb128 0x12
 2749 00d9 01       		.uleb128 0x1
 2750 00da 40       		.uleb128 0x40
 2751 00db 06       		.uleb128 0x6
 2752 00dc 01       		.uleb128 0x1
 2753 00dd 13       		.uleb128 0x13
 2754 00de 00       		.byte	0
 2755 00df 00       		.byte	0
 2756 00e0 13       		.uleb128 0x13
 2757 00e1 05       		.uleb128 0x5
 2758 00e2 00       		.byte	0
 2759 00e3 03       		.uleb128 0x3
 2760 00e4 08       		.uleb128 0x8
 2761 00e5 3A       		.uleb128 0x3a
 2762 00e6 0B       		.uleb128 0xb
 2763 00e7 3B       		.uleb128 0x3b
 2764 00e8 0B       		.uleb128 0xb
 2765 00e9 49       		.uleb128 0x49
 2766 00ea 13       		.uleb128 0x13
 2767 00eb 02       		.uleb128 0x2
 2768 00ec 0A       		.uleb128 0xa
 2769 00ed 00       		.byte	0
 2770 00ee 00       		.byte	0
 2771 00ef 14       		.uleb128 0x14
 2772 00f0 05       		.uleb128 0x5
 2773 00f1 00       		.byte	0
GAS LISTING C:\cygwin\tmp\ccRh0JUa.s 			page 59


 2774 00f2 03       		.uleb128 0x3
 2775 00f3 0E       		.uleb128 0xe
 2776 00f4 3A       		.uleb128 0x3a
 2777 00f5 0B       		.uleb128 0xb
 2778 00f6 3B       		.uleb128 0x3b
 2779 00f7 0B       		.uleb128 0xb
 2780 00f8 49       		.uleb128 0x49
 2781 00f9 13       		.uleb128 0x13
 2782 00fa 02       		.uleb128 0x2
 2783 00fb 0A       		.uleb128 0xa
 2784 00fc 00       		.byte	0
 2785 00fd 00       		.byte	0
 2786 00fe 15       		.uleb128 0x15
 2787 00ff 34       		.uleb128 0x34
 2788 0100 00       		.byte	0
 2789 0101 03       		.uleb128 0x3
 2790 0102 08       		.uleb128 0x8
 2791 0103 3A       		.uleb128 0x3a
 2792 0104 0B       		.uleb128 0xb
 2793 0105 3B       		.uleb128 0x3b
 2794 0106 0B       		.uleb128 0xb
 2795 0107 49       		.uleb128 0x49
 2796 0108 13       		.uleb128 0x13
 2797 0109 02       		.uleb128 0x2
 2798 010a 0A       		.uleb128 0xa
 2799 010b 00       		.byte	0
 2800 010c 00       		.byte	0
 2801 010d 16       		.uleb128 0x16
 2802 010e 2E       		.uleb128 0x2e
 2803 010f 01       		.byte	0x1
 2804 0110 3F       		.uleb128 0x3f
 2805 0111 0C       		.uleb128 0xc
 2806 0112 03       		.uleb128 0x3
 2807 0113 08       		.uleb128 0x8
 2808 0114 3A       		.uleb128 0x3a
 2809 0115 0B       		.uleb128 0xb
 2810 0116 3B       		.uleb128 0x3b
 2811 0117 0B       		.uleb128 0xb
 2812 0118 27       		.uleb128 0x27
 2813 0119 0C       		.uleb128 0xc
 2814 011a 49       		.uleb128 0x49
 2815 011b 13       		.uleb128 0x13
 2816 011c 11       		.uleb128 0x11
 2817 011d 01       		.uleb128 0x1
 2818 011e 12       		.uleb128 0x12
 2819 011f 01       		.uleb128 0x1
 2820 0120 40       		.uleb128 0x40
 2821 0121 06       		.uleb128 0x6
 2822 0122 01       		.uleb128 0x1
 2823 0123 13       		.uleb128 0x13
 2824 0124 00       		.byte	0
 2825 0125 00       		.byte	0
 2826 0126 17       		.uleb128 0x17
 2827 0127 34       		.uleb128 0x34
 2828 0128 00       		.byte	0
 2829 0129 03       		.uleb128 0x3
 2830 012a 0E       		.uleb128 0xe
GAS LISTING C:\cygwin\tmp\ccRh0JUa.s 			page 60


 2831 012b 3A       		.uleb128 0x3a
 2832 012c 0B       		.uleb128 0xb
 2833 012d 3B       		.uleb128 0x3b
 2834 012e 0B       		.uleb128 0xb
 2835 012f 49       		.uleb128 0x49
 2836 0130 13       		.uleb128 0x13
 2837 0131 02       		.uleb128 0x2
 2838 0132 0A       		.uleb128 0xa
 2839 0133 00       		.byte	0
 2840 0134 00       		.byte	0
 2841 0135 18       		.uleb128 0x18
 2842 0136 2E       		.uleb128 0x2e
 2843 0137 01       		.byte	0x1
 2844 0138 3F       		.uleb128 0x3f
 2845 0139 0C       		.uleb128 0xc
 2846 013a 03       		.uleb128 0x3
 2847 013b 08       		.uleb128 0x8
 2848 013c 3A       		.uleb128 0x3a
 2849 013d 0B       		.uleb128 0xb
 2850 013e 3B       		.uleb128 0x3b
 2851 013f 05       		.uleb128 0x5
 2852 0140 27       		.uleb128 0x27
 2853 0141 0C       		.uleb128 0xc
 2854 0142 11       		.uleb128 0x11
 2855 0143 01       		.uleb128 0x1
 2856 0144 12       		.uleb128 0x12
 2857 0145 01       		.uleb128 0x1
 2858 0146 40       		.uleb128 0x40
 2859 0147 06       		.uleb128 0x6
 2860 0148 01       		.uleb128 0x1
 2861 0149 13       		.uleb128 0x13
 2862 014a 00       		.byte	0
 2863 014b 00       		.byte	0
 2864 014c 19       		.uleb128 0x19
 2865 014d 05       		.uleb128 0x5
 2866 014e 00       		.byte	0
 2867 014f 03       		.uleb128 0x3
 2868 0150 08       		.uleb128 0x8
 2869 0151 3A       		.uleb128 0x3a
 2870 0152 0B       		.uleb128 0xb
 2871 0153 3B       		.uleb128 0x3b
 2872 0154 05       		.uleb128 0x5
 2873 0155 49       		.uleb128 0x49
 2874 0156 13       		.uleb128 0x13
 2875 0157 02       		.uleb128 0x2
 2876 0158 0A       		.uleb128 0xa
 2877 0159 00       		.byte	0
 2878 015a 00       		.byte	0
 2879 015b 1A       		.uleb128 0x1a
 2880 015c 05       		.uleb128 0x5
 2881 015d 00       		.byte	0
 2882 015e 03       		.uleb128 0x3
 2883 015f 0E       		.uleb128 0xe
 2884 0160 3A       		.uleb128 0x3a
 2885 0161 0B       		.uleb128 0xb
 2886 0162 3B       		.uleb128 0x3b
 2887 0163 05       		.uleb128 0x5
GAS LISTING C:\cygwin\tmp\ccRh0JUa.s 			page 61


 2888 0164 49       		.uleb128 0x49
 2889 0165 13       		.uleb128 0x13
 2890 0166 02       		.uleb128 0x2
 2891 0167 0A       		.uleb128 0xa
 2892 0168 00       		.byte	0
 2893 0169 00       		.byte	0
 2894 016a 1B       		.uleb128 0x1b
 2895 016b 2E       		.uleb128 0x2e
 2896 016c 01       		.byte	0x1
 2897 016d 3F       		.uleb128 0x3f
 2898 016e 0C       		.uleb128 0xc
 2899 016f 03       		.uleb128 0x3
 2900 0170 08       		.uleb128 0x8
 2901 0171 3A       		.uleb128 0x3a
 2902 0172 0B       		.uleb128 0xb
 2903 0173 3B       		.uleb128 0x3b
 2904 0174 05       		.uleb128 0x5
 2905 0175 27       		.uleb128 0x27
 2906 0176 0C       		.uleb128 0xc
 2907 0177 49       		.uleb128 0x49
 2908 0178 13       		.uleb128 0x13
 2909 0179 11       		.uleb128 0x11
 2910 017a 01       		.uleb128 0x1
 2911 017b 12       		.uleb128 0x12
 2912 017c 01       		.uleb128 0x1
 2913 017d 40       		.uleb128 0x40
 2914 017e 06       		.uleb128 0x6
 2915 017f 01       		.uleb128 0x1
 2916 0180 13       		.uleb128 0x13
 2917 0181 00       		.byte	0
 2918 0182 00       		.byte	0
 2919 0183 1C       		.uleb128 0x1c
 2920 0184 34       		.uleb128 0x34
 2921 0185 00       		.byte	0
 2922 0186 03       		.uleb128 0x3
 2923 0187 0E       		.uleb128 0xe
 2924 0188 3A       		.uleb128 0x3a
 2925 0189 0B       		.uleb128 0xb
 2926 018a 3B       		.uleb128 0x3b
 2927 018b 05       		.uleb128 0x5
 2928 018c 49       		.uleb128 0x49
 2929 018d 13       		.uleb128 0x13
 2930 018e 02       		.uleb128 0x2
 2931 018f 0A       		.uleb128 0xa
 2932 0190 00       		.byte	0
 2933 0191 00       		.byte	0
 2934 0192 1D       		.uleb128 0x1d
 2935 0193 34       		.uleb128 0x34
 2936 0194 00       		.byte	0
 2937 0195 03       		.uleb128 0x3
 2938 0196 08       		.uleb128 0x8
 2939 0197 3A       		.uleb128 0x3a
 2940 0198 0B       		.uleb128 0xb
 2941 0199 3B       		.uleb128 0x3b
 2942 019a 05       		.uleb128 0x5
 2943 019b 49       		.uleb128 0x49
 2944 019c 13       		.uleb128 0x13
GAS LISTING C:\cygwin\tmp\ccRh0JUa.s 			page 62


 2945 019d 02       		.uleb128 0x2
 2946 019e 0A       		.uleb128 0xa
 2947 019f 00       		.byte	0
 2948 01a0 00       		.byte	0
 2949 01a1 1E       		.uleb128 0x1e
 2950 01a2 2E       		.uleb128 0x2e
 2951 01a3 00       		.byte	0
 2952 01a4 03       		.uleb128 0x3
 2953 01a5 08       		.uleb128 0x8
 2954 01a6 27       		.uleb128 0x27
 2955 01a7 0C       		.uleb128 0xc
 2956 01a8 34       		.uleb128 0x34
 2957 01a9 0C       		.uleb128 0xc
 2958 01aa 11       		.uleb128 0x11
 2959 01ab 01       		.uleb128 0x1
 2960 01ac 12       		.uleb128 0x12
 2961 01ad 01       		.uleb128 0x1
 2962 01ae 40       		.uleb128 0x40
 2963 01af 06       		.uleb128 0x6
 2964 01b0 00       		.byte	0
 2965 01b1 00       		.byte	0
 2966 01b2 1F       		.uleb128 0x1f
 2967 01b3 34       		.uleb128 0x34
 2968 01b4 00       		.byte	0
 2969 01b5 03       		.uleb128 0x3
 2970 01b6 08       		.uleb128 0x8
 2971 01b7 3A       		.uleb128 0x3a
 2972 01b8 0B       		.uleb128 0xb
 2973 01b9 3B       		.uleb128 0x3b
 2974 01ba 0B       		.uleb128 0xb
 2975 01bb 49       		.uleb128 0x49
 2976 01bc 13       		.uleb128 0x13
 2977 01bd 3F       		.uleb128 0x3f
 2978 01be 0C       		.uleb128 0xc
 2979 01bf 3C       		.uleb128 0x3c
 2980 01c0 0C       		.uleb128 0xc
 2981 01c1 00       		.byte	0
 2982 01c2 00       		.byte	0
 2983 01c3 00       		.byte	0
 2984              		.section	.debug_loc,"dr"
 2985              	Ldebug_loc0:
 2986              	LLST0:
 2987 0000 00000000 		.long	LFB0-Ltext0
 2988 0004 03000000 		.long	LCFI0-Ltext0
 2989 0008 0200     		.word	0x2
 2990 000a 74       		.byte	0x74
 2991 000b 04       		.sleb128 4
 2992 000c 03000000 		.long	LCFI0-Ltext0
 2993 0010 DD000000 		.long	LCFI1-Ltext0
 2994 0014 0200     		.word	0x2
 2995 0016 74       		.byte	0x74
 2996 0017 08       		.sleb128 8
 2997 0018 DD000000 		.long	LCFI1-Ltext0
 2998 001c DE000000 		.long	LFE0-Ltext0
 2999 0020 0200     		.word	0x2
 3000 0022 74       		.byte	0x74
 3001 0023 04       		.sleb128 4
GAS LISTING C:\cygwin\tmp\ccRh0JUa.s 			page 63


 3002 0024 00000000 		.long	0
 3003 0028 00000000 		.long	0
 3004              	LLST1:
 3005 002c DE000000 		.long	LFB1-Ltext0
 3006 0030 E1000000 		.long	LCFI2-Ltext0
 3007 0034 0200     		.word	0x2
 3008 0036 74       		.byte	0x74
 3009 0037 04       		.sleb128 4
 3010 0038 E1000000 		.long	LCFI2-Ltext0
 3011 003c F4010000 		.long	LCFI3-Ltext0
 3012 0040 0200     		.word	0x2
 3013 0042 74       		.byte	0x74
 3014 0043 18       		.sleb128 24
 3015 0044 F4010000 		.long	LCFI3-Ltext0
 3016 0048 F5010000 		.long	LFE1-Ltext0
 3017 004c 0200     		.word	0x2
 3018 004e 74       		.byte	0x74
 3019 004f 04       		.sleb128 4
 3020 0050 00000000 		.long	0
 3021 0054 00000000 		.long	0
 3022              	LLST2:
 3023 0058 F5010000 		.long	LFB2-Ltext0
 3024 005c F8010000 		.long	LCFI4-Ltext0
 3025 0060 0200     		.word	0x2
 3026 0062 74       		.byte	0x74
 3027 0063 04       		.sleb128 4
 3028 0064 F8010000 		.long	LCFI4-Ltext0
 3029 0068 7E020000 		.long	LCFI5-Ltext0
 3030 006c 0200     		.word	0x2
 3031 006e 74       		.byte	0x74
 3032 006f 18       		.sleb128 24
 3033 0070 7E020000 		.long	LCFI5-Ltext0
 3034 0074 7F020000 		.long	LFE2-Ltext0
 3035 0078 0200     		.word	0x2
 3036 007a 74       		.byte	0x74
 3037 007b 04       		.sleb128 4
 3038 007c 00000000 		.long	0
 3039 0080 00000000 		.long	0
 3040              	LLST3:
 3041 0084 7F020000 		.long	LFB3-Ltext0
 3042 0088 82020000 		.long	LCFI6-Ltext0
 3043 008c 0200     		.word	0x2
 3044 008e 74       		.byte	0x74
 3045 008f 04       		.sleb128 4
 3046 0090 82020000 		.long	LCFI6-Ltext0
 3047 0094 FB020000 		.long	LCFI7-Ltext0
 3048 0098 0200     		.word	0x2
 3049 009a 74       		.byte	0x74
 3050 009b 08       		.sleb128 8
 3051 009c FB020000 		.long	LCFI7-Ltext0
 3052 00a0 FC020000 		.long	LFE3-Ltext0
 3053 00a4 0200     		.word	0x2
 3054 00a6 74       		.byte	0x74
 3055 00a7 04       		.sleb128 4
 3056 00a8 00000000 		.long	0
 3057 00ac 00000000 		.long	0
 3058              	LLST4:
GAS LISTING C:\cygwin\tmp\ccRh0JUa.s 			page 64


 3059 00b0 FC020000 		.long	LFB4-Ltext0
 3060 00b4 FF020000 		.long	LCFI8-Ltext0
 3061 00b8 0200     		.word	0x2
 3062 00ba 74       		.byte	0x74
 3063 00bb 04       		.sleb128 4
 3064 00bc FF020000 		.long	LCFI8-Ltext0
 3065 00c0 A4030000 		.long	LCFI9-Ltext0
 3066 00c4 0200     		.word	0x2
 3067 00c6 74       		.byte	0x74
 3068 00c7 30       		.sleb128 48
 3069 00c8 A4030000 		.long	LCFI9-Ltext0
 3070 00cc A5030000 		.long	LFE4-Ltext0
 3071 00d0 0200     		.word	0x2
 3072 00d2 74       		.byte	0x74
 3073 00d3 04       		.sleb128 4
 3074 00d4 00000000 		.long	0
 3075 00d8 00000000 		.long	0
 3076              	LLST5:
 3077 00dc A5030000 		.long	LFB5-Ltext0
 3078 00e0 A8030000 		.long	LCFI10-Ltext0
 3079 00e4 0200     		.word	0x2
 3080 00e6 74       		.byte	0x74
 3081 00e7 04       		.sleb128 4
 3082 00e8 A8030000 		.long	LCFI10-Ltext0
 3083 00ec 1B040000 		.long	LCFI11-Ltext0
 3084 00f0 0200     		.word	0x2
 3085 00f2 74       		.byte	0x74
 3086 00f3 18       		.sleb128 24
 3087 00f4 1B040000 		.long	LCFI11-Ltext0
 3088 00f8 1C040000 		.long	LFE5-Ltext0
 3089 00fc 0200     		.word	0x2
 3090 00fe 74       		.byte	0x74
 3091 00ff 04       		.sleb128 4
 3092 0100 00000000 		.long	0
 3093 0104 00000000 		.long	0
 3094              	LLST6:
 3095 0108 1C040000 		.long	LFB6-Ltext0
 3096 010c 1F040000 		.long	LCFI12-Ltext0
 3097 0110 0200     		.word	0x2
 3098 0112 74       		.byte	0x74
 3099 0113 04       		.sleb128 4
 3100 0114 1F040000 		.long	LCFI12-Ltext0
 3101 0118 C9040000 		.long	LCFI13-Ltext0
 3102 011c 0200     		.word	0x2
 3103 011e 74       		.byte	0x74
 3104 011f 20       		.sleb128 32
 3105 0120 C9040000 		.long	LCFI13-Ltext0
 3106 0124 CA040000 		.long	LFE6-Ltext0
 3107 0128 0200     		.word	0x2
 3108 012a 74       		.byte	0x74
 3109 012b 04       		.sleb128 4
 3110 012c 00000000 		.long	0
 3111 0130 00000000 		.long	0
 3112              	LLST7:
 3113 0134 CA040000 		.long	LFB7-Ltext0
 3114 0138 CD040000 		.long	LCFI14-Ltext0
 3115 013c 0200     		.word	0x2
GAS LISTING C:\cygwin\tmp\ccRh0JUa.s 			page 65


 3116 013e 74       		.byte	0x74
 3117 013f 04       		.sleb128 4
 3118 0140 CD040000 		.long	LCFI14-Ltext0
 3119 0144 EF050000 		.long	LCFI15-Ltext0
 3120 0148 0200     		.word	0x2
 3121 014a 74       		.byte	0x74
 3122 014b 20       		.sleb128 32
 3123 014c EF050000 		.long	LCFI15-Ltext0
 3124 0150 F0050000 		.long	LFE7-Ltext0
 3125 0154 0200     		.word	0x2
 3126 0156 74       		.byte	0x74
 3127 0157 04       		.sleb128 4
 3128 0158 00000000 		.long	0
 3129 015c 00000000 		.long	0
 3130              	LLST8:
 3131 0160 F0050000 		.long	LFB8-Ltext0
 3132 0164 F3050000 		.long	LCFI16-Ltext0
 3133 0168 0200     		.word	0x2
 3134 016a 74       		.byte	0x74
 3135 016b 04       		.sleb128 4
 3136 016c F3050000 		.long	LCFI16-Ltext0
 3137 0170 9D060000 		.long	LCFI17-Ltext0
 3138 0174 0200     		.word	0x2
 3139 0176 74       		.byte	0x74
 3140 0177 20       		.sleb128 32
 3141 0178 9D060000 		.long	LCFI17-Ltext0
 3142 017c 9E060000 		.long	LFE8-Ltext0
 3143 0180 0200     		.word	0x2
 3144 0182 74       		.byte	0x74
 3145 0183 04       		.sleb128 4
 3146 0184 00000000 		.long	0
 3147 0188 00000000 		.long	0
 3148              	LLST9:
 3149 018c 9E060000 		.long	LFB9-Ltext0
 3150 0190 A1060000 		.long	LCFI18-Ltext0
 3151 0194 0200     		.word	0x2
 3152 0196 74       		.byte	0x74
 3153 0197 04       		.sleb128 4
 3154 0198 A1060000 		.long	LCFI18-Ltext0
 3155 019c DA060000 		.long	LCFI19-Ltext0
 3156 01a0 0200     		.word	0x2
 3157 01a2 74       		.byte	0x74
 3158 01a3 18       		.sleb128 24
 3159 01a4 DA060000 		.long	LCFI19-Ltext0
 3160 01a8 DB060000 		.long	LFE9-Ltext0
 3161 01ac 0200     		.word	0x2
 3162 01ae 74       		.byte	0x74
 3163 01af 04       		.sleb128 4
 3164 01b0 00000000 		.long	0
 3165 01b4 00000000 		.long	0
 3166              	LLST10:
 3167 01b8 DB060000 		.long	LFB10-Ltext0
 3168 01bc DC060000 		.long	LCFI20-Ltext0
 3169 01c0 0200     		.word	0x2
 3170 01c2 74       		.byte	0x74
 3171 01c3 04       		.sleb128 4
 3172 01c4 DC060000 		.long	LCFI20-Ltext0
GAS LISTING C:\cygwin\tmp\ccRh0JUa.s 			page 66


 3173 01c8 DF060000 		.long	LCFI21-Ltext0
 3174 01cc 0200     		.word	0x2
 3175 01ce 74       		.byte	0x74
 3176 01cf 08       		.sleb128 8
 3177 01d0 DF060000 		.long	LCFI21-Ltext0
 3178 01d4 B4070000 		.long	LCFI22-Ltext0
 3179 01d8 0200     		.word	0x2
 3180 01da 74       		.byte	0x74
 3181 01db 30       		.sleb128 48
 3182 01dc B4070000 		.long	LCFI22-Ltext0
 3183 01e0 B5070000 		.long	LCFI23-Ltext0
 3184 01e4 0200     		.word	0x2
 3185 01e6 74       		.byte	0x74
 3186 01e7 08       		.sleb128 8
 3187 01e8 B5070000 		.long	LCFI23-Ltext0
 3188 01ec B6070000 		.long	LFE10-Ltext0
 3189 01f0 0200     		.word	0x2
 3190 01f2 74       		.byte	0x74
 3191 01f3 04       		.sleb128 4
 3192 01f4 00000000 		.long	0
 3193 01f8 00000000 		.long	0
 3194              	LLST11:
 3195 01fc B6070000 		.long	LFB11-Ltext0
 3196 0200 B9070000 		.long	LCFI24-Ltext0
 3197 0204 0200     		.word	0x2
 3198 0206 74       		.byte	0x74
 3199 0207 04       		.sleb128 4
 3200 0208 B9070000 		.long	LCFI24-Ltext0
 3201 020c 4F090000 		.long	LCFI25-Ltext0
 3202 0210 0200     		.word	0x2
 3203 0212 74       		.byte	0x74
 3204 0213 30       		.sleb128 48
 3205 0214 4F090000 		.long	LCFI25-Ltext0
 3206 0218 50090000 		.long	LFE11-Ltext0
 3207 021c 0200     		.word	0x2
 3208 021e 74       		.byte	0x74
 3209 021f 04       		.sleb128 4
 3210 0220 00000000 		.long	0
 3211 0224 00000000 		.long	0
 3212              	LLST12:
 3213 0228 50090000 		.long	LFB12-Ltext0
 3214 022c 53090000 		.long	LCFI26-Ltext0
 3215 0230 0200     		.word	0x2
 3216 0232 74       		.byte	0x74
 3217 0233 04       		.sleb128 4
 3218 0234 53090000 		.long	LCFI26-Ltext0
 3219 0238 DF0A0000 		.long	LCFI27-Ltext0
 3220 023c 0200     		.word	0x2
 3221 023e 74       		.byte	0x74
 3222 023f 30       		.sleb128 48
 3223 0240 DF0A0000 		.long	LCFI27-Ltext0
 3224 0244 E00A0000 		.long	LFE12-Ltext0
 3225 0248 0200     		.word	0x2
 3226 024a 74       		.byte	0x74
 3227 024b 04       		.sleb128 4
 3228 024c 00000000 		.long	0
 3229 0250 00000000 		.long	0
GAS LISTING C:\cygwin\tmp\ccRh0JUa.s 			page 67


 3230              	LLST13:
 3231 0254 E00A0000 		.long	LFB13-Ltext0
 3232 0258 E30A0000 		.long	LCFI28-Ltext0
 3233 025c 0200     		.word	0x2
 3234 025e 74       		.byte	0x74
 3235 025f 04       		.sleb128 4
 3236 0260 E30A0000 		.long	LCFI28-Ltext0
 3237 0264 5D0C0000 		.long	LCFI29-Ltext0
 3238 0268 0200     		.word	0x2
 3239 026a 74       		.byte	0x74
 3240 026b 30       		.sleb128 48
 3241 026c 5D0C0000 		.long	LCFI29-Ltext0
 3242 0270 5E0C0000 		.long	LFE13-Ltext0
 3243 0274 0200     		.word	0x2
 3244 0276 74       		.byte	0x74
 3245 0277 04       		.sleb128 4
 3246 0278 00000000 		.long	0
 3247 027c 00000000 		.long	0
 3248              	LLST14:
 3249 0280 5E0C0000 		.long	LFB14-Ltext0
 3250 0284 610C0000 		.long	LCFI30-Ltext0
 3251 0288 0200     		.word	0x2
 3252 028a 74       		.byte	0x74
 3253 028b 04       		.sleb128 4
 3254 028c 610C0000 		.long	LCFI30-Ltext0
 3255 0290 700C0000 		.long	LCFI31-Ltext0
 3256 0294 0200     		.word	0x2
 3257 0296 74       		.byte	0x74
 3258 0297 20       		.sleb128 32
 3259 0298 700C0000 		.long	LCFI31-Ltext0
 3260 029c 710C0000 		.long	LFE14-Ltext0
 3261 02a0 0200     		.word	0x2
 3262 02a2 74       		.byte	0x74
 3263 02a3 04       		.sleb128 4
 3264 02a4 00000000 		.long	0
 3265 02a8 00000000 		.long	0
 3266              		.section	.debug_aranges,"dr"
 3267 0000 1C000000 		.long	0x1c
 3268 0004 0200     		.word	0x2
 3269 0006 00000000 		.secrel32	Ldebug_info0
 3270 000a 04       		.byte	0x4
 3271 000b 00       		.byte	0
 3272 000c 0000     		.word	0
 3273 000e 0000     		.word	0
 3274 0010 00000000 		.long	Ltext0
 3275 0014 710C0000 		.long	Letext0-Ltext0
 3276 0018 00000000 		.long	0
 3277 001c 00000000 		.long	0
 3278              		.section	.debug_line,"dr"
 3279              	Ldebug_line0:
 3280 0000 7E020000 		.section	.debug_str,"dr"
 3280      02000801 
 3280      00000101 
 3280      FB0E0D00 
 3280      01010101 
 3281              	LASF3:
 3282 0000 6D61736B 		.ascii "mask\0"
GAS LISTING C:\cygwin\tmp\ccRh0JUa.s 			page 68


 3282      00
 3283              	LASF2:
 3284 0005 4576656E 		.ascii "EventSource\0"
 3284      74536F75 
 3284      72636500 
 3285              	LASF4:
 3286 0011 666C6167 		.ascii "flags\0"
 3286      7300
 3287              	LASF1:
 3288 0017 4576656E 		.ascii "EventListener\0"
 3288      744C6973 
 3288      74656E65 
 3288      7200
 3289              	LASF0:
 3290 0025 705F6E65 		.ascii "p_next\0"
 3290      787400
 3291              		.def	_chSchRescheduleS;	.scl	2;	.type	32;	.endef
 3292              		.def	_chSchReadyI;	.scl	2;	.type	32;	.endef
 3293              		.def	_chSchGoSleepTimeoutS;	.scl	2;	.type	32;	.endef
 3294              		.def	___gcov_merge_add;	.scl	2;	.type	32;	.endef
 3295              		.def	___gcov_init;	.scl	2;	.type	32;	.endef
GAS LISTING C:\cygwin\tmp\ccRh0JUa.s 			page 69


DEFINED SYMBOLS
                            *ABS*:00000000 chevents.c
C:\cygwin\tmp\ccRh0JUa.s:45     .text:00000000 _chEvtRegisterMask
C:\cygwin\tmp\ccRh0JUa.s:135    .text:000000de _chEvtUnregister
C:\cygwin\tmp\ccRh0JUa.s:246    .text:000001f5 _chEvtGetAndClearEvents
C:\cygwin\tmp\ccRh0JUa.s:308    .text:0000027f _chEvtAddEvents
C:\cygwin\tmp\ccRh0JUa.s:365    .text:000002fc _chEvtBroadcastFlagsI
C:\cygwin\tmp\ccRh0JUa.s:431    .text:000003a5 _chEvtGetAndClearFlags
C:\cygwin\tmp\ccRh0JUa.s:487    .text:0000041c _chEvtSignal
C:\cygwin\tmp\ccRh0JUa.s:554    .text:000004ca _chEvtSignalI
C:\cygwin\tmp\ccRh0JUa.s:657    .text:000005f0 _chEvtBroadcastFlags
C:\cygwin\tmp\ccRh0JUa.s:724    .text:0000069e _chEvtGetAndClearFlagsI
C:\cygwin\tmp\ccRh0JUa.s:756    .text:000006db _chEvtDispatch
C:\cygwin\tmp\ccRh0JUa.s:844    .text:000007b6 _chEvtWaitOneTimeout
C:\cygwin\tmp\ccRh0JUa.s:993    .text:00000950 _chEvtWaitAnyTimeout
C:\cygwin\tmp\ccRh0JUa.s:1138   .text:00000ae0 _chEvtWaitAllTimeout
C:\cygwin\tmp\ccRh0JUa.s:1393   .text:00000c5e __GLOBAL__sub_I_65535_0_chEvtRegisterMask

UNDEFINED SYMBOLS
_rlist
_chSchRescheduleS
_chSchReadyI
_chSchGoSleepTimeoutS
___gcov_merge_add
___gcov_init
