GAS LISTING C:\cygwin\tmp\ccRh0JUa.s 			page 1


   1              		.file	"chevents.c"
   2              	 # GNU C (GCC) version 4.6.2 (mingw32)
   3              	 #	compiled by GNU C version 4.6.2, GMP version 5.0.1, MPFR version 2.4.1, MPC version 0.8.1
   4              	 # GGC heuristics: --param ggc-min-expand=100 --param ggc-min-heapsize=131072
   5              	 # options passed:  -I . -I ../../os/ports/GCC/SIMIA32
   6              	 # -I ../../os/kernel/include -I ../../test -I ../../os/hal/include
   7              	 # -I ../../os/hal/platforms/Win32 -I ../../boards/simulator
   8              	 # -I ../../os/various -iprefix c:\mingw\bin\../lib/gcc/mingw32/4.6.2/
   9              	 # -MD ../../os/kernel/src/chevents.d -MF .dep/chevents.o.d -MP
  10              	 # -MQ ../../os/kernel/src/chevents.o -D SIMULATOR
  11              	 # ../../os/kernel/src/chevents.c -mtune=i386 -march=i386
  12              	 # -auxbase-strip ../../os/kernel/src/chevents.o -ggdb -O0 -Wall -Wextra
  13              	 # -Wstrict-prototypes -fomit-frame-pointer -fprofile-arcs -ftest-coverage
  14              	 # -fverbose-asm
  15              	 # options enabled:  -fasynchronous-unwind-tables -fauto-inc-dec
  16              	 # -fbranch-count-reg -fcommon -fdelete-null-pointer-checks
  17              	 # -fdwarf2-cfi-asm -fearly-inlining -feliminate-unused-debug-types
  18              	 # -ffunction-cse -fgcse-lm -fident -finline-functions-called-once
  19              	 # -fira-share-save-slots -fira-share-spill-slots -fivopts
  20              	 # -fkeep-inline-dllexport -fkeep-static-consts -fleading-underscore
  21              	 # -fmath-errno -fmerge-debug-strings -fmove-loop-invariants
  22              	 # -fomit-frame-pointer -fpeephole -fprefetch-loop-arrays -fprofile-arcs
  23              	 # -freg-struct-return -fsched-critical-path-heuristic
  24              	 # -fsched-dep-count-heuristic -fsched-group-heuristic -fsched-interblock
  25              	 # -fsched-last-insn-heuristic -fsched-rank-heuristic -fsched-spec
  26              	 # -fsched-spec-insn-heuristic -fsched-stalled-insns-dep
  27              	 # -fset-stack-executable -fshow-column -fsigned-zeros
  28              	 # -fsplit-ivs-in-unroller -fstrict-volatile-bitfields -ftest-coverage
  29              	 # -ftrapping-math -ftree-cselim -ftree-forwprop -ftree-loop-if-convert
  30              	 # -ftree-loop-im -ftree-loop-ivcanon -ftree-loop-optimize
  31              	 # -ftree-parallelize-loops= -ftree-phiprop -ftree-pta -ftree-reassoc
  32              	 # -ftree-scev-cprop -ftree-slp-vectorize -ftree-vect-loop-version
  33              	 # -funit-at-a-time -funwind-tables -fvect-cost-model -fverbose-asm
  34              	 # -fzero-initialized-in-bss -m32 -m80387 -m96bit-long-double
  35              	 # -maccumulate-outgoing-args -malign-double -malign-stringops
  36              	 # -mfancy-math-387 -mfp-ret-in-387 -mieee-fp -mno-red-zone -mno-sse4
  37              	 # -mpush-args -msahf -mstack-arg-probe
  38              	
  39              		.text
  40              	Ltext0:
  41              	 # Compiler executable checksum: c20aed7c018482d7b62efcd5dcab2a9d
  42              	
  43              		.globl	_chEvtRegisterMask
  44              		.def	_chEvtRegisterMask;	.scl	2;	.type	32;	.endef
  45              	_chEvtRegisterMask:
  46              	LFB0:
  47              		.file 1 "../../os/kernel/src/chevents.c"
  48              		.loc 1 78 0
  49              		.cfi_startproc
  50 0000 83EC04   		subl	$4, %esp	 #,
  51              	LCFI0:
  52              		.cfi_def_cfa_offset 8
  53              		.loc 1 80 0
  54 0003 837C2408 		cmpl	$0, 8(%esp)	 #, esp
  54      00
  55 0008 7441     		je	L2	 #,
  56              		.loc 1 80 0 is_stmt 0 discriminator 1
GAS LISTING C:\cygwin\tmp\ccRh0JUa.s 			page 2


  57 000a A1180200 		movl	LPBX1+536, %eax	 # *LPBX1, PROF_edge_counter.17
  57      00
  58 000f 8B151C02 		movl	LPBX1+540, %edx	 # *LPBX1, PROF_edge_counter.17
  58      0000
  59 0015 83C001   		addl	$1, %eax	 #, PROF_edge_counter.17
  60 0018 83D200   		adcl	$0, %edx	 #, PROF_edge_counter.17
  61 001b A3180200 		movl	%eax, LPBX1+536	 # PROF_edge_counter.17, *LPBX1
  61      00
  62 0020 89151C02 		movl	%edx, LPBX1+540	 # PROF_edge_counter.17, *LPBX1
  62      0000
  63 0026 837C240C 		cmpl	$0, 12(%esp)	 #, elp
  63      00
  64 002b 741E     		je	L2	 #,
  65              		.loc 1 80 0 discriminator 3
  66 002d A1200200 		movl	LPBX1+544, %eax	 # *LPBX1, PROF_edge_counter.17
  66      00
  67 0032 8B152402 		movl	LPBX1+548, %edx	 # *LPBX1, PROF_edge_counter.17
  67      0000
  68 0038 83C001   		addl	$1, %eax	 #, PROF_edge_counter.17
  69 003b 83D200   		adcl	$0, %edx	 #, PROF_edge_counter.17
  70 003e A3200200 		movl	%eax, LPBX1+544	 # PROF_edge_counter.17, *LPBX1
  70      00
  71 0043 89152402 		movl	%edx, LPBX1+548	 # PROF_edge_counter.17, *LPBX1
  71      0000
  72 0049 EB1C     		jmp	L3	 #
  73              	L2:
  74              		.loc 1 80 0 discriminator 2
  75 004b A1280200 		movl	LPBX1+552, %eax	 # *LPBX1, PROF_edge_counter.17
  75      00
  76 0050 8B152C02 		movl	LPBX1+556, %edx	 # *LPBX1, PROF_edge_counter.17
  76      0000
  77 0056 83C001   		addl	$1, %eax	 #, PROF_edge_counter.17
  78 0059 83D200   		adcl	$0, %edx	 #, PROF_edge_counter.17
  79 005c A3280200 		movl	%eax, LPBX1+552	 # PROF_edge_counter.17, *LPBX1
  79      00
  80 0061 89152C02 		movl	%edx, LPBX1+556	 # PROF_edge_counter.17, *LPBX1
  80      0000
  81              	L3:
  82              		.loc 1 82 0 is_stmt 1
  83              	/APP
  84              	 # 82 "../../os/kernel/src/chevents.c" 1
  85 0067 90       		nop
  86              	 # 0 "" 2
  87              	/NO_APP
  88 0068 A1300200 		movl	LPBX1+560, %eax	 # *LPBX1, PROF_edge_counter.17
  88      00
  89 006d 8B153402 		movl	LPBX1+564, %edx	 # *LPBX1, PROF_edge_counter.17
  89      0000
  90 0073 83C001   		addl	$1, %eax	 #, PROF_edge_counter.17
  91 0076 83D200   		adcl	$0, %edx	 #, PROF_edge_counter.17
  92 0079 A3300200 		movl	%eax, LPBX1+560	 # PROF_edge_counter.17, *LPBX1
  92      00
  93 007e 89153402 		movl	%edx, LPBX1+564	 # PROF_edge_counter.17, *LPBX1
  93      0000
  94              		.loc 1 83 0
  95 0084 8B442408 		movl	8(%esp), %eax	 # esp, tmp73
  96 0088 8B10     		movl	(%eax), %edx	 # esp_1(D)->es_next, D.2916
GAS LISTING C:\cygwin\tmp\ccRh0JUa.s 			page 3


  97 008a 8B44240C 		movl	12(%esp), %eax	 # elp, tmp74
  98 008e 8910     		movl	%edx, (%eax)	 # D.2916, elp_2(D)->el_next
  99              		.loc 1 84 0
 100 0090 8B442408 		movl	8(%esp), %eax	 # esp, tmp75
 101 0094 8B54240C 		movl	12(%esp), %edx	 # elp, tmp76
 102 0098 8910     		movl	%edx, (%eax)	 # tmp76, esp_1(D)->es_next
 103              		.loc 1 85 0
 104 009a 8B151800 		movl	_rlist+24, %edx	 # rlist.r_current, D.2917
 104      0000
 105 00a0 8B44240C 		movl	12(%esp), %eax	 # elp, tmp77
 106 00a4 895004   		movl	%edx, 4(%eax)	 # D.2917, elp_2(D)->el_listener
 107              		.loc 1 86 0
 108 00a7 8B44240C 		movl	12(%esp), %eax	 # elp, tmp78
 109 00ab 8B542410 		movl	16(%esp), %edx	 # mask, tmp79
 110 00af 895008   		movl	%edx, 8(%eax)	 # tmp79, elp_2(D)->el_mask
 111              		.loc 1 87 0
 112 00b2 8B44240C 		movl	12(%esp), %eax	 # elp, tmp80
 113 00b6 C7400C00 		movl	$0, 12(%eax)	 #, elp_2(D)->el_flags
 113      000000
 114              		.loc 1 88 0
 115              	/APP
 116              	 # 88 "../../os/kernel/src/chevents.c" 1
 117 00bd 90       		nop
 118              	 # 0 "" 2
 119              	/NO_APP
 120 00be A1380200 		movl	LPBX1+568, %eax	 # *LPBX1, PROF_edge_counter.17
 120      00
 121 00c3 8B153C02 		movl	LPBX1+572, %edx	 # *LPBX1, PROF_edge_counter.17
 121      0000
 122 00c9 83C001   		addl	$1, %eax	 #, PROF_edge_counter.17
 123 00cc 83D200   		adcl	$0, %edx	 #, PROF_edge_counter.17
 124 00cf A3380200 		movl	%eax, LPBX1+568	 # PROF_edge_counter.17, *LPBX1
 124      00
 125 00d4 89153C02 		movl	%edx, LPBX1+572	 # PROF_edge_counter.17, *LPBX1
 125      0000
 126              		.loc 1 89 0
 127 00da 83C404   		addl	$4, %esp	 #,
 128              	LCFI1:
 129              		.cfi_def_cfa_offset 4
 130 00dd C3       		ret
 131              		.cfi_endproc
 132              	LFE0:
 133              		.globl	_chEvtUnregister
 134              		.def	_chEvtUnregister;	.scl	2;	.type	32;	.endef
 135              	_chEvtUnregister:
 136              	LFB1:
 137              		.loc 1 104 0
 138              		.cfi_startproc
 139 00de 83EC14   		subl	$20, %esp	 #,
 140              	LCFI2:
 141              		.cfi_def_cfa_offset 24
 142              		.loc 1 107 0
 143 00e1 837C2418 		cmpl	$0, 24(%esp)	 #, esp
 143      00
 144 00e6 7441     		je	L5	 #,
 145              		.loc 1 107 0 is_stmt 0 discriminator 1
 146 00e8 A1E00100 		movl	LPBX1+480, %eax	 # *LPBX1, PROF_edge_counter.16
GAS LISTING C:\cygwin\tmp\ccRh0JUa.s 			page 4


 146      00
 147 00ed 8B15E401 		movl	LPBX1+484, %edx	 # *LPBX1, PROF_edge_counter.16
 147      0000
 148 00f3 83C001   		addl	$1, %eax	 #, PROF_edge_counter.16
 149 00f6 83D200   		adcl	$0, %edx	 #, PROF_edge_counter.16
 150 00f9 A3E00100 		movl	%eax, LPBX1+480	 # PROF_edge_counter.16, *LPBX1
 150      00
 151 00fe 8915E401 		movl	%edx, LPBX1+484	 # PROF_edge_counter.16, *LPBX1
 151      0000
 152 0104 837C241C 		cmpl	$0, 28(%esp)	 #, elp
 152      00
 153 0109 741E     		je	L5	 #,
 154              		.loc 1 107 0 discriminator 3
 155 010b A1E80100 		movl	LPBX1+488, %eax	 # *LPBX1, PROF_edge_counter.16
 155      00
 156 0110 8B15EC01 		movl	LPBX1+492, %edx	 # *LPBX1, PROF_edge_counter.16
 156      0000
 157 0116 83C001   		addl	$1, %eax	 #, PROF_edge_counter.16
 158 0119 83D200   		adcl	$0, %edx	 #, PROF_edge_counter.16
 159 011c A3E80100 		movl	%eax, LPBX1+488	 # PROF_edge_counter.16, *LPBX1
 159      00
 160 0121 8915EC01 		movl	%edx, LPBX1+492	 # PROF_edge_counter.16, *LPBX1
 160      0000
 161 0127 EB1C     		jmp	L6	 #
 162              	L5:
 163              		.loc 1 107 0 discriminator 2
 164 0129 A1F00100 		movl	LPBX1+496, %eax	 # *LPBX1, PROF_edge_counter.16
 164      00
 165 012e 8B15F401 		movl	LPBX1+500, %edx	 # *LPBX1, PROF_edge_counter.16
 165      0000
 166 0134 83C001   		addl	$1, %eax	 #, PROF_edge_counter.16
 167 0137 83D200   		adcl	$0, %edx	 #, PROF_edge_counter.16
 168 013a A3F00100 		movl	%eax, LPBX1+496	 # PROF_edge_counter.16, *LPBX1
 168      00
 169 013f 8915F401 		movl	%edx, LPBX1+500	 # PROF_edge_counter.16, *LPBX1
 169      0000
 170              	L6:
 171              		.loc 1 109 0 is_stmt 1
 172 0145 8B442418 		movl	24(%esp), %eax	 # esp, tmp78
 173 0149 8944240C 		movl	%eax, 12(%esp)	 # tmp78, p
 174              		.loc 1 110 0
 175              	/APP
 176              	 # 110 "../../os/kernel/src/chevents.c" 1
 177 014d 90       		nop
 178              	 # 0 "" 2
 179              		.loc 1 111 0
 180              	/NO_APP
 181 014e A1F80100 		movl	LPBX1+504, %eax	 # *LPBX1, PROF_edge_counter.16
 181      00
 182 0153 8B15FC01 		movl	LPBX1+508, %edx	 # *LPBX1, PROF_edge_counter.16
 182      0000
 183 0159 83C001   		addl	$1, %eax	 #, PROF_edge_counter.16
 184 015c 83D200   		adcl	$0, %edx	 #, PROF_edge_counter.16
 185 015f A3F80100 		movl	%eax, LPBX1+504	 # PROF_edge_counter.16, *LPBX1
 185      00
 186 0164 8915FC01 		movl	%edx, LPBX1+508	 # PROF_edge_counter.16, *LPBX1
 186      0000
GAS LISTING C:\cygwin\tmp\ccRh0JUa.s 			page 5


 187 016a EB5C     		jmp	L7	 #
 188              	L10:
 189 016c A1080200 		movl	LPBX1+520, %eax	 # *LPBX1, PROF_edge_counter.16
 189      00
 190 0171 8B150C02 		movl	LPBX1+524, %edx	 # *LPBX1, PROF_edge_counter.16
 190      0000
 191 0177 83C001   		addl	$1, %eax	 #, PROF_edge_counter.16
 192 017a 83D200   		adcl	$0, %edx	 #, PROF_edge_counter.16
 193 017d A3080200 		movl	%eax, LPBX1+520	 # PROF_edge_counter.16, *LPBX1
 193      00
 194 0182 89150C02 		movl	%edx, LPBX1+524	 # PROF_edge_counter.16, *LPBX1
 194      0000
 195              		.loc 1 112 0
 196 0188 8B44240C 		movl	12(%esp), %eax	 # p, tmp79
 197 018c 8B00     		movl	(%eax), %eax	 # p_1->el_next, D.2906
 198 018e 3B44241C 		cmpl	28(%esp), %eax	 # elp, D.2906
 199 0192 750E     		jne	L8	 #,
 200              		.loc 1 113 0
 201 0194 8B44241C 		movl	28(%esp), %eax	 # elp, tmp80
 202 0198 8B10     		movl	(%eax), %edx	 # elp_3(D)->el_next, D.2909
 203 019a 8B44240C 		movl	12(%esp), %eax	 # p, tmp81
 204 019e 8910     		movl	%edx, (%eax)	 # D.2909, p_1->el_next
 205              		.loc 1 114 0
 206 01a0 EB32     		jmp	L9	 #
 207              	L8:
 208              		.loc 1 116 0
 209 01a2 8B44240C 		movl	12(%esp), %eax	 # p, tmp82
 210 01a6 8B00     		movl	(%eax), %eax	 # p_1->el_next, tmp83
 211 01a8 8944240C 		movl	%eax, 12(%esp)	 # tmp83, p
 212 01ac A1000200 		movl	LPBX1+512, %eax	 # *LPBX1, PROF_edge_counter.16
 212      00
 213 01b1 8B150402 		movl	LPBX1+516, %edx	 # *LPBX1, PROF_edge_counter.16
 213      0000
 214 01b7 83C001   		addl	$1, %eax	 #, PROF_edge_counter.16
 215 01ba 83D200   		adcl	$0, %edx	 #, PROF_edge_counter.16
 216 01bd A3000200 		movl	%eax, LPBX1+512	 # PROF_edge_counter.16, *LPBX1
 216      00
 217 01c2 89150402 		movl	%edx, LPBX1+516	 # PROF_edge_counter.16, *LPBX1
 217      0000
 218              	L7:
 219              		.loc 1 111 0 discriminator 1
 220 01c8 8B44240C 		movl	12(%esp), %eax	 # p, tmp84
 221 01cc 8B00     		movl	(%eax), %eax	 # p_1->el_next, D.2910
 222 01ce 3B442418 		cmpl	24(%esp), %eax	 # esp, D.2910
 223 01d2 7598     		jne	L10	 #,
 224              	L9:
 225              		.loc 1 118 0
 226              	/APP
 227              	 # 118 "../../os/kernel/src/chevents.c" 1
 228 01d4 90       		nop
 229              	 # 0 "" 2
 230              	/NO_APP
 231 01d5 A1100200 		movl	LPBX1+528, %eax	 # *LPBX1, PROF_edge_counter.16
 231      00
 232 01da 8B151402 		movl	LPBX1+532, %edx	 # *LPBX1, PROF_edge_counter.16
 232      0000
 233 01e0 83C001   		addl	$1, %eax	 #, PROF_edge_counter.16
GAS LISTING C:\cygwin\tmp\ccRh0JUa.s 			page 6


 234 01e3 83D200   		adcl	$0, %edx	 #, PROF_edge_counter.16
 235 01e6 A3100200 		movl	%eax, LPBX1+528	 # PROF_edge_counter.16, *LPBX1
 235      00
 236 01eb 89151402 		movl	%edx, LPBX1+532	 # PROF_edge_counter.16, *LPBX1
 236      0000
 237              		.loc 1 119 0
 238 01f1 83C414   		addl	$20, %esp	 #,
 239              	LCFI3:
 240              		.cfi_def_cfa_offset 4
 241 01f4 C3       		ret
 242              		.cfi_endproc
 243              	LFE1:
 244              		.globl	_chEvtGetAndClearEvents
 245              		.def	_chEvtGetAndClearEvents;	.scl	2;	.type	32;	.endef
 246              	_chEvtGetAndClearEvents:
 247              	LFB2:
 248              		.loc 1 129 0
 249              		.cfi_startproc
 250 01f5 83EC14   		subl	$20, %esp	 #,
 251              	LCFI4:
 252              		.cfi_def_cfa_offset 24
 253              		.loc 1 129 0
 254 01f8 A1C80100 		movl	LPBX1+456, %eax	 # *LPBX1, PROF_edge_counter.15
 254      00
 255 01fd 8B15CC01 		movl	LPBX1+460, %edx	 # *LPBX1, PROF_edge_counter.15
 255      0000
 256 0203 83C001   		addl	$1, %eax	 #, PROF_edge_counter.15
 257 0206 83D200   		adcl	$0, %edx	 #, PROF_edge_counter.15
 258 0209 A3C80100 		movl	%eax, LPBX1+456	 # PROF_edge_counter.15, *LPBX1
 258      00
 259 020e 8915CC01 		movl	%edx, LPBX1+460	 # PROF_edge_counter.15, *LPBX1
 259      0000
 260              		.loc 1 132 0
 261              	/APP
 262              	 # 132 "../../os/kernel/src/chevents.c" 1
 263 0214 90       		nop
 264              	 # 0 "" 2
 265              	/NO_APP
 266 0215 A1D00100 		movl	LPBX1+464, %eax	 # *LPBX1, PROF_edge_counter.15
 266      00
 267 021a 8B15D401 		movl	LPBX1+468, %edx	 # *LPBX1, PROF_edge_counter.15
 267      0000
 268 0220 83C001   		addl	$1, %eax	 #, PROF_edge_counter.15
 269 0223 83D200   		adcl	$0, %edx	 #, PROF_edge_counter.15
 270 0226 A3D00100 		movl	%eax, LPBX1+464	 # PROF_edge_counter.15, *LPBX1
 270      00
 271 022b 8915D401 		movl	%edx, LPBX1+468	 # PROF_edge_counter.15, *LPBX1
 271      0000
 272              		.loc 1 134 0
 273 0231 A1180000 		movl	_rlist+24, %eax	 # rlist.r_current, D.2892
 273      00
 274 0236 8B4038   		movl	56(%eax), %eax	 # D.2892_1->p_epending, D.2893
 275 0239 23442418 		andl	24(%esp), %eax	 # mask, tmp74
 276 023d 8944240C 		movl	%eax, 12(%esp)	 # tmp74, m
 277              		.loc 1 135 0
 278 0241 A1180000 		movl	_rlist+24, %eax	 # rlist.r_current, D.2894
 278      00
GAS LISTING C:\cygwin\tmp\ccRh0JUa.s 			page 7


 279 0246 8B151800 		movl	_rlist+24, %edx	 # rlist.r_current, D.2895
 279      0000
 280 024c 8B5238   		movl	56(%edx), %edx	 # D.2895_6->p_epending, D.2896
 281 024f 8B4C2418 		movl	24(%esp), %ecx	 # mask, tmp75
 282 0253 F7D1     		notl	%ecx	 # D.2897
 283 0255 21CA     		andl	%ecx, %edx	 # D.2897, D.2898
 284 0257 895038   		movl	%edx, 56(%eax)	 # D.2898, D.2894_5->p_epending
 285              		.loc 1 137 0
 286              	/APP
 287              	 # 137 "../../os/kernel/src/chevents.c" 1
 288 025a 90       		nop
 289              	 # 0 "" 2
 290              	/NO_APP
 291 025b A1D80100 		movl	LPBX1+472, %eax	 # *LPBX1, PROF_edge_counter.15
 291      00
 292 0260 8B15DC01 		movl	LPBX1+476, %edx	 # *LPBX1, PROF_edge_counter.15
 292      0000
 293 0266 83C001   		addl	$1, %eax	 #, PROF_edge_counter.15
 294 0269 83D200   		adcl	$0, %edx	 #, PROF_edge_counter.15
 295 026c A3D80100 		movl	%eax, LPBX1+472	 # PROF_edge_counter.15, *LPBX1
 295      00
 296 0271 8915DC01 		movl	%edx, LPBX1+476	 # PROF_edge_counter.15, *LPBX1
 296      0000
 297              		.loc 1 138 0
 298 0277 8B44240C 		movl	12(%esp), %eax	 # m, D.2899
 299              		.loc 1 139 0
 300 027b 83C414   		addl	$20, %esp	 #,
 301              	LCFI5:
 302              		.cfi_def_cfa_offset 4
 303 027e C3       		ret
 304              		.cfi_endproc
 305              	LFE2:
 306              		.globl	_chEvtAddEvents
 307              		.def	_chEvtAddEvents;	.scl	2;	.type	32;	.endef
 308              	_chEvtAddEvents:
 309              	LFB3:
 310              		.loc 1 150 0
 311              		.cfi_startproc
 312 027f 83EC04   		subl	$4, %esp	 #,
 313              	LCFI6:
 314              		.cfi_def_cfa_offset 8
 315              		.loc 1 150 0
 316 0282 A1B00100 		movl	LPBX1+432, %eax	 # *LPBX1, PROF_edge_counter.14
 316      00
 317 0287 8B15B401 		movl	LPBX1+436, %edx	 # *LPBX1, PROF_edge_counter.14
 317      0000
 318 028d 83C001   		addl	$1, %eax	 #, PROF_edge_counter.14
 319 0290 83D200   		adcl	$0, %edx	 #, PROF_edge_counter.14
 320 0293 A3B00100 		movl	%eax, LPBX1+432	 # PROF_edge_counter.14, *LPBX1
 320      00
 321 0298 8915B401 		movl	%edx, LPBX1+436	 # PROF_edge_counter.14, *LPBX1
 321      0000
 322              		.loc 1 152 0
 323              	/APP
 324              	 # 152 "../../os/kernel/src/chevents.c" 1
 325 029e 90       		nop
 326              	 # 0 "" 2
GAS LISTING C:\cygwin\tmp\ccRh0JUa.s 			page 8


 327              	/NO_APP
 328 029f A1B80100 		movl	LPBX1+440, %eax	 # *LPBX1, PROF_edge_counter.14
 328      00
 329 02a4 8B15BC01 		movl	LPBX1+444, %edx	 # *LPBX1, PROF_edge_counter.14
 329      0000
 330 02aa 83C001   		addl	$1, %eax	 #, PROF_edge_counter.14
 331 02ad 83D200   		adcl	$0, %edx	 #, PROF_edge_counter.14
 332 02b0 A3B80100 		movl	%eax, LPBX1+440	 # PROF_edge_counter.14, *LPBX1
 332      00
 333 02b5 8915BC01 		movl	%edx, LPBX1+444	 # PROF_edge_counter.14, *LPBX1
 333      0000
 334              		.loc 1 154 0
 335 02bb A1180000 		movl	_rlist+24, %eax	 # rlist.r_current, D.2886
 335      00
 336 02c0 8B151800 		movl	_rlist+24, %edx	 # rlist.r_current, D.2887
 336      0000
 337 02c6 8B5238   		movl	56(%edx), %edx	 # D.2887_2->p_epending, D.2888
 338 02c9 0B542408 		orl	8(%esp), %edx	 # mask, D.2889
 339 02cd 895038   		movl	%edx, 56(%eax)	 # D.2889, D.2886_1->p_epending
 340 02d0 8B4038   		movl	56(%eax), %eax	 # D.2886_1->p_epending, tmp71
 341 02d3 89442408 		movl	%eax, 8(%esp)	 # tmp71, mask
 342              		.loc 1 156 0
 343              	/APP
 344              	 # 156 "../../os/kernel/src/chevents.c" 1
 345 02d7 90       		nop
 346              	 # 0 "" 2
 347              	/NO_APP
 348 02d8 A1C00100 		movl	LPBX1+448, %eax	 # *LPBX1, PROF_edge_counter.14
 348      00
 349 02dd 8B15C401 		movl	LPBX1+452, %edx	 # *LPBX1, PROF_edge_counter.14
 349      0000
 350 02e3 83C001   		addl	$1, %eax	 #, PROF_edge_counter.14
 351 02e6 83D200   		adcl	$0, %edx	 #, PROF_edge_counter.14
 352 02e9 A3C00100 		movl	%eax, LPBX1+448	 # PROF_edge_counter.14, *LPBX1
 352      00
 353 02ee 8915C401 		movl	%edx, LPBX1+452	 # PROF_edge_counter.14, *LPBX1
 353      0000
 354              		.loc 1 157 0
 355 02f4 8B442408 		movl	8(%esp), %eax	 # mask, D.2890
 356              		.loc 1 158 0
 357 02f8 83C404   		addl	$4, %esp	 #,
 358              	LCFI7:
 359              		.cfi_def_cfa_offset 4
 360 02fb C3       		ret
 361              		.cfi_endproc
 362              	LFE3:
 363              		.globl	_chEvtBroadcastFlagsI
 364              		.def	_chEvtBroadcastFlagsI;	.scl	2;	.type	32;	.endef
 365              	_chEvtBroadcastFlagsI:
 366              	LFB4:
 367              		.loc 1 177 0
 368              		.cfi_startproc
 369 02fc 83EC2C   		subl	$44, %esp	 #,
 370              	LCFI8:
 371              		.cfi_def_cfa_offset 48
 372              		.loc 1 183 0
 373 02ff 8B442430 		movl	48(%esp), %eax	 # esp, tmp69
GAS LISTING C:\cygwin\tmp\ccRh0JUa.s 			page 9


 374 0303 8B00     		movl	(%eax), %eax	 # esp_2(D)->es_next, tmp70
 375 0305 8944241C 		movl	%eax, 28(%esp)	 # tmp70, elp
 376              		.loc 1 184 0
 377 0309 EB70     		jmp	L14	 #
 378              	L15:
 379 030b A1A00100 		movl	LPBX1+416, %eax	 # *LPBX1, PROF_edge_counter.13
 379      00
 380 0310 8B15A401 		movl	LPBX1+420, %edx	 # *LPBX1, PROF_edge_counter.13
 380      0000
 381 0316 83C001   		addl	$1, %eax	 #, PROF_edge_counter.13
 382 0319 83D200   		adcl	$0, %edx	 #, PROF_edge_counter.13
 383 031c A3A00100 		movl	%eax, LPBX1+416	 # PROF_edge_counter.13, *LPBX1
 383      00
 384 0321 8915A401 		movl	%edx, LPBX1+420	 # PROF_edge_counter.13, *LPBX1
 384      0000
 385              		.loc 1 185 0
 386 0327 8B44241C 		movl	28(%esp), %eax	 # elp, tmp71
 387 032b 8B400C   		movl	12(%eax), %eax	 # elp_1->el_flags, D.2882
 388 032e 89C2     		movl	%eax, %edx	 # D.2882, D.2883
 389 0330 0B542434 		orl	52(%esp), %edx	 # flags, D.2883
 390 0334 8B44241C 		movl	28(%esp), %eax	 # elp, tmp72
 391 0338 89500C   		movl	%edx, 12(%eax)	 # D.2883, elp_1->el_flags
 392              		.loc 1 186 0
 393 033b 8B44241C 		movl	28(%esp), %eax	 # elp, tmp73
 394 033f 8B5008   		movl	8(%eax), %edx	 # elp_1->el_mask, D.2884
 395 0342 8B44241C 		movl	28(%esp), %eax	 # elp, tmp74
 396 0346 8B4004   		movl	4(%eax), %eax	 # elp_1->el_listener, D.2885
 397 0349 89542404 		movl	%edx, 4(%esp)	 # D.2884,
 398 034d 890424   		movl	%eax, (%esp)	 # D.2885,
 399 0350 E8750100 		call	_chEvtSignalI	 #
 399      00
 400              		.loc 1 187 0
 401 0355 8B44241C 		movl	28(%esp), %eax	 # elp, tmp75
 402 0359 8B00     		movl	(%eax), %eax	 # elp_1->el_next, tmp76
 403 035b 8944241C 		movl	%eax, 28(%esp)	 # tmp76, elp
 404 035f A1980100 		movl	LPBX1+408, %eax	 # *LPBX1, PROF_edge_counter.13
 404      00
 405 0364 8B159C01 		movl	LPBX1+412, %edx	 # *LPBX1, PROF_edge_counter.13
 405      0000
 406 036a 83C001   		addl	$1, %eax	 #, PROF_edge_counter.13
 407 036d 83D200   		adcl	$0, %edx	 #, PROF_edge_counter.13
 408 0370 A3980100 		movl	%eax, LPBX1+408	 # PROF_edge_counter.13, *LPBX1
 408      00
 409 0375 89159C01 		movl	%edx, LPBX1+412	 # PROF_edge_counter.13, *LPBX1
 409      0000
 410              	L14:
 411              		.loc 1 184 0 discriminator 1
 412 037b 8B44241C 		movl	28(%esp), %eax	 # elp, tmp77
 413 037f 3B442430 		cmpl	48(%esp), %eax	 # esp, tmp77
 414 0383 7586     		jne	L15	 #,
 415              		.loc 1 184 0 is_stmt 0
 416 0385 A1A80100 		movl	LPBX1+424, %eax	 # *LPBX1, PROF_edge_counter.13
 416      00
 417 038a 8B15AC01 		movl	LPBX1+428, %edx	 # *LPBX1, PROF_edge_counter.13
 417      0000
 418 0390 83C001   		addl	$1, %eax	 #, PROF_edge_counter.13
 419 0393 83D200   		adcl	$0, %edx	 #, PROF_edge_counter.13
GAS LISTING C:\cygwin\tmp\ccRh0JUa.s 			page 10


 420 0396 A3A80100 		movl	%eax, LPBX1+424	 # PROF_edge_counter.13, *LPBX1
 420      00
 421 039b 8915AC01 		movl	%edx, LPBX1+428	 # PROF_edge_counter.13, *LPBX1
 421      0000
 422              		.loc 1 189 0 is_stmt 1
 423 03a1 83C42C   		addl	$44, %esp	 #,
 424              	LCFI9:
 425              		.cfi_def_cfa_offset 4
 426 03a4 C3       		ret
 427              		.cfi_endproc
 428              	LFE4:
 429              		.globl	_chEvtGetAndClearFlags
 430              		.def	_chEvtGetAndClearFlags;	.scl	2;	.type	32;	.endef
 431              	_chEvtGetAndClearFlags:
 432              	LFB5:
 433              		.loc 1 202 0
 434              		.cfi_startproc
 435 03a5 83EC14   		subl	$20, %esp	 #,
 436              	LCFI10:
 437              		.cfi_def_cfa_offset 24
 438              		.loc 1 202 0
 439 03a8 A1800100 		movl	LPBX1+384, %eax	 # *LPBX1, PROF_edge_counter.12
 439      00
 440 03ad 8B158401 		movl	LPBX1+388, %edx	 # *LPBX1, PROF_edge_counter.12
 440      0000
 441 03b3 83C001   		addl	$1, %eax	 #, PROF_edge_counter.12
 442 03b6 83D200   		adcl	$0, %edx	 #, PROF_edge_counter.12
 443 03b9 A3800100 		movl	%eax, LPBX1+384	 # PROF_edge_counter.12, *LPBX1
 443      00
 444 03be 89158401 		movl	%edx, LPBX1+388	 # PROF_edge_counter.12, *LPBX1
 444      0000
 445              		.loc 1 205 0
 446              	/APP
 447              	 # 205 "../../os/kernel/src/chevents.c" 1
 448 03c4 90       		nop
 449              	 # 0 "" 2
 450              	/NO_APP
 451 03c5 A1880100 		movl	LPBX1+392, %eax	 # *LPBX1, PROF_edge_counter.12
 451      00
 452 03ca 8B158C01 		movl	LPBX1+396, %edx	 # *LPBX1, PROF_edge_counter.12
 452      0000
 453 03d0 83C001   		addl	$1, %eax	 #, PROF_edge_counter.12
 454 03d3 83D200   		adcl	$0, %edx	 #, PROF_edge_counter.12
 455 03d6 A3880100 		movl	%eax, LPBX1+392	 # PROF_edge_counter.12, *LPBX1
 455      00
 456 03db 89158C01 		movl	%edx, LPBX1+396	 # PROF_edge_counter.12, *LPBX1
 456      0000
 457              		.loc 1 207 0
 458 03e1 8B442418 		movl	24(%esp), %eax	 # elp, tmp67
 459 03e5 8B400C   		movl	12(%eax), %eax	 # elp_1(D)->el_flags, tmp68
 460 03e8 8944240C 		movl	%eax, 12(%esp)	 # tmp68, flags
 461              		.loc 1 208 0
 462 03ec 8B442418 		movl	24(%esp), %eax	 # elp, tmp69
 463 03f0 C7400C00 		movl	$0, 12(%eax)	 #, elp_1(D)->el_flags
 463      000000
 464              		.loc 1 210 0
 465              	/APP
GAS LISTING C:\cygwin\tmp\ccRh0JUa.s 			page 11


 466              	 # 210 "../../os/kernel/src/chevents.c" 1
 467 03f7 90       		nop
 468              	 # 0 "" 2
 469              	/NO_APP
 470 03f8 A1900100 		movl	LPBX1+400, %eax	 # *LPBX1, PROF_edge_counter.12
 470      00
 471 03fd 8B159401 		movl	LPBX1+404, %edx	 # *LPBX1, PROF_edge_counter.12
 471      0000
 472 0403 83C001   		addl	$1, %eax	 #, PROF_edge_counter.12
 473 0406 83D200   		adcl	$0, %edx	 #, PROF_edge_counter.12
 474 0409 A3900100 		movl	%eax, LPBX1+400	 # PROF_edge_counter.12, *LPBX1
 474      00
 475 040e 89159401 		movl	%edx, LPBX1+404	 # PROF_edge_counter.12, *LPBX1
 475      0000
 476              		.loc 1 211 0
 477 0414 8B44240C 		movl	12(%esp), %eax	 # flags, D.2877
 478              		.loc 1 212 0
 479 0418 83C414   		addl	$20, %esp	 #,
 480              	LCFI11:
 481              		.cfi_def_cfa_offset 4
 482 041b C3       		ret
 483              		.cfi_endproc
 484              	LFE5:
 485              		.globl	_chEvtSignal
 486              		.def	_chEvtSignal;	.scl	2;	.type	32;	.endef
 487              	_chEvtSignal:
 488              	LFB6:
 489              		.loc 1 222 0
 490              		.cfi_startproc
 491 041c 83EC1C   		subl	$28, %esp	 #,
 492              	LCFI12:
 493              		.cfi_def_cfa_offset 32
 494              		.loc 1 222 0
 495 041f A1580100 		movl	LPBX1+344, %eax	 # *LPBX1, PROF_edge_counter.11
 495      00
 496 0424 8B155C01 		movl	LPBX1+348, %edx	 # *LPBX1, PROF_edge_counter.11
 496      0000
 497 042a 83C001   		addl	$1, %eax	 #, PROF_edge_counter.11
 498 042d 83D200   		adcl	$0, %edx	 #, PROF_edge_counter.11
 499 0430 A3580100 		movl	%eax, LPBX1+344	 # PROF_edge_counter.11, *LPBX1
 499      00
 500 0435 89155C01 		movl	%edx, LPBX1+348	 # PROF_edge_counter.11, *LPBX1
 500      0000
 501              		.loc 1 226 0
 502              	/APP
 503              	 # 226 "../../os/kernel/src/chevents.c" 1
 504 043b 90       		nop
 505              	 # 0 "" 2
 506              	/NO_APP
 507 043c A1600100 		movl	LPBX1+352, %eax	 # *LPBX1, PROF_edge_counter.11
 507      00
 508 0441 8B156401 		movl	LPBX1+356, %edx	 # *LPBX1, PROF_edge_counter.11
 508      0000
 509 0447 83C001   		addl	$1, %eax	 #, PROF_edge_counter.11
 510 044a 83D200   		adcl	$0, %edx	 #, PROF_edge_counter.11
 511 044d A3600100 		movl	%eax, LPBX1+352	 # PROF_edge_counter.11, *LPBX1
 511      00
GAS LISTING C:\cygwin\tmp\ccRh0JUa.s 			page 12


 512 0452 89156401 		movl	%edx, LPBX1+356	 # PROF_edge_counter.11, *LPBX1
 512      0000
 513              		.loc 1 227 0
 514 0458 8B442424 		movl	36(%esp), %eax	 # mask, tmp69
 515 045c 89442404 		movl	%eax, 4(%esp)	 # tmp69,
 516 0460 8B442420 		movl	32(%esp), %eax	 # tp, tmp70
 517 0464 890424   		movl	%eax, (%esp)	 # tmp70,
 518 0467 E85E0000 		call	_chEvtSignalI	 #
 518      00
 519 046c A1680100 		movl	LPBX1+360, %eax	 # *LPBX1, PROF_edge_counter.11
 519      00
 520 0471 8B156C01 		movl	LPBX1+364, %edx	 # *LPBX1, PROF_edge_counter.11
 520      0000
 521 0477 83C001   		addl	$1, %eax	 #, PROF_edge_counter.11
 522 047a 83D200   		adcl	$0, %edx	 #, PROF_edge_counter.11
 523 047d A3680100 		movl	%eax, LPBX1+360	 # PROF_edge_counter.11, *LPBX1
 523      00
 524 0482 89156C01 		movl	%edx, LPBX1+364	 # PROF_edge_counter.11, *LPBX1
 524      0000
 525              		.loc 1 228 0
 526 0488 E8000000 		call	_chSchRescheduleS	 #
 526      00
 527 048d A1700100 		movl	LPBX1+368, %eax	 # *LPBX1, PROF_edge_counter.11
 527      00
 528 0492 8B157401 		movl	LPBX1+372, %edx	 # *LPBX1, PROF_edge_counter.11
 528      0000
 529 0498 83C001   		addl	$1, %eax	 #, PROF_edge_counter.11
 530 049b 83D200   		adcl	$0, %edx	 #, PROF_edge_counter.11
 531 049e A3700100 		movl	%eax, LPBX1+368	 # PROF_edge_counter.11, *LPBX1
 531      00
 532 04a3 89157401 		movl	%edx, LPBX1+372	 # PROF_edge_counter.11, *LPBX1
 532      0000
 533              		.loc 1 229 0
 534              	/APP
 535              	 # 229 "../../os/kernel/src/chevents.c" 1
 536 04a9 90       		nop
 537              	 # 0 "" 2
 538              	/NO_APP
 539 04aa A1780100 		movl	LPBX1+376, %eax	 # *LPBX1, PROF_edge_counter.11
 539      00
 540 04af 8B157C01 		movl	LPBX1+380, %edx	 # *LPBX1, PROF_edge_counter.11
 540      0000
 541 04b5 83C001   		addl	$1, %eax	 #, PROF_edge_counter.11
 542 04b8 83D200   		adcl	$0, %edx	 #, PROF_edge_counter.11
 543 04bb A3780100 		movl	%eax, LPBX1+376	 # PROF_edge_counter.11, *LPBX1
 543      00
 544 04c0 89157C01 		movl	%edx, LPBX1+380	 # PROF_edge_counter.11, *LPBX1
 544      0000
 545              		.loc 1 230 0
 546 04c6 83C41C   		addl	$28, %esp	 #,
 547              	LCFI13:
 548              		.cfi_def_cfa_offset 4
 549 04c9 C3       		ret
 550              		.cfi_endproc
 551              	LFE6:
 552              		.globl	_chEvtSignalI
 553              		.def	_chEvtSignalI;	.scl	2;	.type	32;	.endef
GAS LISTING C:\cygwin\tmp\ccRh0JUa.s 			page 13


 554              	_chEvtSignalI:
 555              	LFB7:
 556              		.loc 1 244 0
 557              		.cfi_startproc
 558 04ca 83EC1C   		subl	$28, %esp	 #,
 559              	LCFI14:
 560              		.cfi_def_cfa_offset 32
 561              		.loc 1 244 0
 562 04cd A1280100 		movl	LPBX1+296, %eax	 # *LPBX1, PROF_edge_counter.10
 562      00
 563 04d2 8B152C01 		movl	LPBX1+300, %edx	 # *LPBX1, PROF_edge_counter.10
 563      0000
 564 04d8 83C001   		addl	$1, %eax	 #, PROF_edge_counter.10
 565 04db 83D200   		adcl	$0, %edx	 #, PROF_edge_counter.10
 566 04de A3280100 		movl	%eax, LPBX1+296	 # PROF_edge_counter.10, *LPBX1
 566      00
 567 04e3 89152C01 		movl	%edx, LPBX1+300	 # PROF_edge_counter.10, *LPBX1
 567      0000
 568              		.loc 1 249 0
 569 04e9 8B442420 		movl	32(%esp), %eax	 # tp, tmp83
 570 04ed 8B4038   		movl	56(%eax), %eax	 # tp_1(D)->p_epending, D.2857
 571 04f0 89C2     		movl	%eax, %edx	 # D.2857, D.2858
 572 04f2 0B542424 		orl	36(%esp), %edx	 # mask, D.2858
 573 04f6 8B442420 		movl	32(%esp), %eax	 # tp, tmp84
 574 04fa 895038   		movl	%edx, 56(%eax)	 # D.2858, tp_1(D)->p_epending
 575              		.loc 1 251 0
 576 04fd 8B442420 		movl	32(%esp), %eax	 # tp, tmp85
 577 0501 8A401C   		movb	28(%eax), %al	 # tp_1(D)->p_state, D.2862
 578 0504 3C08     		cmpb	$8, %al	 #, D.2862
 579 0506 7534     		jne	L19	 #,
 580              		.loc 1 251 0 is_stmt 0 discriminator 1
 581 0508 A1300100 		movl	LPBX1+304, %eax	 # *LPBX1, PROF_edge_counter.10
 581      00
 582 050d 8B153401 		movl	LPBX1+308, %edx	 # *LPBX1, PROF_edge_counter.10
 582      0000
 583 0513 83C001   		addl	$1, %eax	 #, PROF_edge_counter.10
 584 0516 83D200   		adcl	$0, %edx	 #, PROF_edge_counter.10
 585 0519 A3300100 		movl	%eax, LPBX1+304	 # PROF_edge_counter.10, *LPBX1
 585      00
 586 051e 89153401 		movl	%edx, LPBX1+308	 # PROF_edge_counter.10, *LPBX1
 586      0000
 587              		.loc 1 252 0 is_stmt 1 discriminator 1
 588 0524 8B442420 		movl	32(%esp), %eax	 # tp, tmp86
 589 0528 8B5038   		movl	56(%eax), %edx	 # tp_1(D)->p_epending, D.2864
 590 052b 8B442420 		movl	32(%esp), %eax	 # tp, tmp87
 591 052f 8B4024   		movl	36(%eax), %eax	 # tp_1(D)->p_u.ewmask, D.2865
 592 0532 21D0     		andl	%edx, %eax	 # D.2864, D.2866
 593              		.loc 1 251 0 discriminator 1
 594 0534 85C0     		testl	%eax, %eax	 # D.2866
 595 0536 0F858100 		jne	L20	 #,
 595      0000
 596              	L19:
 597              		.loc 1 253 0
 598 053c 8B442420 		movl	32(%esp), %eax	 # tp, tmp88
 599 0540 8A401C   		movb	28(%eax), %al	 # tp_1(D)->p_state, D.2867
 600              		.loc 1 252 0
 601 0543 3C09     		cmpb	$9, %al	 #, D.2867
GAS LISTING C:\cygwin\tmp\ccRh0JUa.s 			page 14


 602 0545 7421     		je	L21	 #,
 603 0547 A1400100 		movl	LPBX1+320, %eax	 # *LPBX1, PROF_edge_counter.10
 603      00
 604 054c 8B154401 		movl	LPBX1+324, %edx	 # *LPBX1, PROF_edge_counter.10
 604      0000
 605 0552 83C001   		addl	$1, %eax	 #, PROF_edge_counter.10
 606 0555 83D200   		adcl	$0, %edx	 #, PROF_edge_counter.10
 607 0558 A3400100 		movl	%eax, LPBX1+320	 # PROF_edge_counter.10, *LPBX1
 607      00
 608 055d 89154401 		movl	%edx, LPBX1+324	 # PROF_edge_counter.10, *LPBX1
 608      0000
 609 0563 E9840000 		jmp	L18	 #
 609      00
 610              	L21:
 611 0568 A1380100 		movl	LPBX1+312, %eax	 # *LPBX1, PROF_edge_counter.10
 611      00
 612 056d 8B153C01 		movl	LPBX1+316, %edx	 # *LPBX1, PROF_edge_counter.10
 612      0000
 613 0573 83C001   		addl	$1, %eax	 #, PROF_edge_counter.10
 614 0576 83D200   		adcl	$0, %edx	 #, PROF_edge_counter.10
 615 0579 A3380100 		movl	%eax, LPBX1+312	 # PROF_edge_counter.10, *LPBX1
 615      00
 616 057e 89153C01 		movl	%edx, LPBX1+316	 # PROF_edge_counter.10, *LPBX1
 616      0000
 617              		.loc 1 254 0
 618 0584 8B442420 		movl	32(%esp), %eax	 # tp, tmp89
 619 0588 8B5038   		movl	56(%eax), %edx	 # tp_1(D)->p_epending, D.2869
 620 058b 8B442420 		movl	32(%esp), %eax	 # tp, tmp90
 621 058f 8B4024   		movl	36(%eax), %eax	 # tp_1(D)->p_u.ewmask, D.2870
 622 0592 21C2     		andl	%eax, %edx	 # D.2870, D.2871
 623 0594 8B442420 		movl	32(%esp), %eax	 # tp, tmp91
 624 0598 8B4024   		movl	36(%eax), %eax	 # tp_1(D)->p_u.ewmask, D.2872
 625              		.loc 1 253 0
 626 059b 39C2     		cmpl	%eax, %edx	 # D.2872, D.2871
 627 059d 741E     		je	L20	 #,
 628 059f A1480100 		movl	LPBX1+328, %eax	 # *LPBX1, PROF_edge_counter.10
 628      00
 629 05a4 8B154C01 		movl	LPBX1+332, %edx	 # *LPBX1, PROF_edge_counter.10
 629      0000
 630 05aa 83C001   		addl	$1, %eax	 #, PROF_edge_counter.10
 631 05ad 83D200   		adcl	$0, %edx	 #, PROF_edge_counter.10
 632 05b0 A3480100 		movl	%eax, LPBX1+328	 # PROF_edge_counter.10, *LPBX1
 632      00
 633 05b5 89154C01 		movl	%edx, LPBX1+332	 # PROF_edge_counter.10, *LPBX1
 633      0000
 634 05bb EB2F     		jmp	L18	 #
 635              	L20:
 636              		.loc 1 255 0
 637 05bd 8B442420 		movl	32(%esp), %eax	 # tp, tmp92
 638 05c1 890424   		movl	%eax, (%esp)	 # tmp92,
 639 05c4 E8000000 		call	_chSchReadyI	 #
 639      00
 640 05c9 C7402400 		movl	$0, 36(%eax)	 #, D.2873_14->p_u.rdymsg
 640      000000
 641 05d0 A1500100 		movl	LPBX1+336, %eax	 # *LPBX1, PROF_edge_counter.10
 641      00
 642 05d5 8B155401 		movl	LPBX1+340, %edx	 # *LPBX1, PROF_edge_counter.10
GAS LISTING C:\cygwin\tmp\ccRh0JUa.s 			page 15


 642      0000
 643 05db 83C001   		addl	$1, %eax	 #, PROF_edge_counter.10
 644 05de 83D200   		adcl	$0, %edx	 #, PROF_edge_counter.10
 645 05e1 A3500100 		movl	%eax, LPBX1+336	 # PROF_edge_counter.10, *LPBX1
 645      00
 646 05e6 89155401 		movl	%edx, LPBX1+340	 # PROF_edge_counter.10, *LPBX1
 646      0000
 647              	L18:
 648              		.loc 1 256 0
 649 05ec 83C41C   		addl	$28, %esp	 #,
 650              	LCFI15:
 651              		.cfi_def_cfa_offset 4
 652 05ef C3       		ret
 653              		.cfi_endproc
 654              	LFE7:
 655              		.globl	_chEvtBroadcastFlags
 656              		.def	_chEvtBroadcastFlags;	.scl	2;	.type	32;	.endef
 657              	_chEvtBroadcastFlags:
 658              	LFB8:
 659              		.loc 1 271 0
 660              		.cfi_startproc
 661 05f0 83EC1C   		subl	$28, %esp	 #,
 662              	LCFI16:
 663              		.cfi_def_cfa_offset 32
 664              		.loc 1 271 0
 665 05f3 A1000100 		movl	LPBX1+256, %eax	 # *LPBX1, PROF_edge_counter.9
 665      00
 666 05f8 8B150401 		movl	LPBX1+260, %edx	 # *LPBX1, PROF_edge_counter.9
 666      0000
 667 05fe 83C001   		addl	$1, %eax	 #, PROF_edge_counter.9
 668 0601 83D200   		adcl	$0, %edx	 #, PROF_edge_counter.9
 669 0604 A3000100 		movl	%eax, LPBX1+256	 # PROF_edge_counter.9, *LPBX1
 669      00
 670 0609 89150401 		movl	%edx, LPBX1+260	 # PROF_edge_counter.9, *LPBX1
 670      0000
 671              		.loc 1 273 0
 672              	/APP
 673              	 # 273 "../../os/kernel/src/chevents.c" 1
 674 060f 90       		nop
 675              	 # 0 "" 2
 676              	/NO_APP
 677 0610 A1080100 		movl	LPBX1+264, %eax	 # *LPBX1, PROF_edge_counter.9
 677      00
 678 0615 8B150C01 		movl	LPBX1+268, %edx	 # *LPBX1, PROF_edge_counter.9
 678      0000
 679 061b 83C001   		addl	$1, %eax	 #, PROF_edge_counter.9
 680 061e 83D200   		adcl	$0, %edx	 #, PROF_edge_counter.9
 681 0621 A3080100 		movl	%eax, LPBX1+264	 # PROF_edge_counter.9, *LPBX1
 681      00
 682 0626 89150C01 		movl	%edx, LPBX1+268	 # PROF_edge_counter.9, *LPBX1
 682      0000
 683              		.loc 1 274 0
 684 062c 8B442424 		movl	36(%esp), %eax	 # flags, tmp69
 685 0630 89442404 		movl	%eax, 4(%esp)	 # tmp69,
 686 0634 8B442420 		movl	32(%esp), %eax	 # esp, tmp70
 687 0638 890424   		movl	%eax, (%esp)	 # tmp70,
 688 063b E8BCFCFF 		call	_chEvtBroadcastFlagsI	 #
GAS LISTING C:\cygwin\tmp\ccRh0JUa.s 			page 16


 688      FF
 689 0640 A1100100 		movl	LPBX1+272, %eax	 # *LPBX1, PROF_edge_counter.9
 689      00
 690 0645 8B151401 		movl	LPBX1+276, %edx	 # *LPBX1, PROF_edge_counter.9
 690      0000
 691 064b 83C001   		addl	$1, %eax	 #, PROF_edge_counter.9
 692 064e 83D200   		adcl	$0, %edx	 #, PROF_edge_counter.9
 693 0651 A3100100 		movl	%eax, LPBX1+272	 # PROF_edge_counter.9, *LPBX1
 693      00
 694 0656 89151401 		movl	%edx, LPBX1+276	 # PROF_edge_counter.9, *LPBX1
 694      0000
 695              		.loc 1 275 0
 696 065c E8000000 		call	_chSchRescheduleS	 #
 696      00
 697 0661 A1180100 		movl	LPBX1+280, %eax	 # *LPBX1, PROF_edge_counter.9
 697      00
 698 0666 8B151C01 		movl	LPBX1+284, %edx	 # *LPBX1, PROF_edge_counter.9
 698      0000
 699 066c 83C001   		addl	$1, %eax	 #, PROF_edge_counter.9
 700 066f 83D200   		adcl	$0, %edx	 #, PROF_edge_counter.9
 701 0672 A3180100 		movl	%eax, LPBX1+280	 # PROF_edge_counter.9, *LPBX1
 701      00
 702 0677 89151C01 		movl	%edx, LPBX1+284	 # PROF_edge_counter.9, *LPBX1
 702      0000
 703              		.loc 1 276 0
 704              	/APP
 705              	 # 276 "../../os/kernel/src/chevents.c" 1
 706 067d 90       		nop
 707              	 # 0 "" 2
 708              	/NO_APP
 709 067e A1200100 		movl	LPBX1+288, %eax	 # *LPBX1, PROF_edge_counter.9
 709      00
 710 0683 8B152401 		movl	LPBX1+292, %edx	 # *LPBX1, PROF_edge_counter.9
 710      0000
 711 0689 83C001   		addl	$1, %eax	 #, PROF_edge_counter.9
 712 068c 83D200   		adcl	$0, %edx	 #, PROF_edge_counter.9
 713 068f A3200100 		movl	%eax, LPBX1+288	 # PROF_edge_counter.9, *LPBX1
 713      00
 714 0694 89152401 		movl	%edx, LPBX1+292	 # PROF_edge_counter.9, *LPBX1
 714      0000
 715              		.loc 1 277 0
 716 069a 83C41C   		addl	$28, %esp	 #,
 717              	LCFI17:
 718              		.cfi_def_cfa_offset 4
 719 069d C3       		ret
 720              		.cfi_endproc
 721              	LFE8:
 722              		.globl	_chEvtGetAndClearFlagsI
 723              		.def	_chEvtGetAndClearFlagsI;	.scl	2;	.type	32;	.endef
 724              	_chEvtGetAndClearFlagsI:
 725              	LFB9:
 726              		.loc 1 290 0
 727              		.cfi_startproc
 728 069e 83EC14   		subl	$20, %esp	 #,
 729              	LCFI18:
 730              		.cfi_def_cfa_offset 24
 731              		.loc 1 290 0
GAS LISTING C:\cygwin\tmp\ccRh0JUa.s 			page 17


 732 06a1 A1F80000 		movl	LPBX1+248, %eax	 # *LPBX1, PROF_edge_counter.8
 732      00
 733 06a6 8B15FC00 		movl	LPBX1+252, %edx	 # *LPBX1, PROF_edge_counter.8
 733      0000
 734 06ac 83C001   		addl	$1, %eax	 #, PROF_edge_counter.8
 735 06af 83D200   		adcl	$0, %edx	 #, PROF_edge_counter.8
 736 06b2 A3F80000 		movl	%eax, LPBX1+248	 # PROF_edge_counter.8, *LPBX1
 736      00
 737 06b7 8915FC00 		movl	%edx, LPBX1+252	 # PROF_edge_counter.8, *LPBX1
 737      0000
 738              		.loc 1 293 0
 739 06bd 8B442418 		movl	24(%esp), %eax	 # elp, tmp63
 740 06c1 8B400C   		movl	12(%eax), %eax	 # elp_1(D)->el_flags, tmp64
 741 06c4 8944240C 		movl	%eax, 12(%esp)	 # tmp64, flags
 742              		.loc 1 294 0
 743 06c8 8B442418 		movl	24(%esp), %eax	 # elp, tmp65
 744 06cc C7400C00 		movl	$0, 12(%eax)	 #, elp_1(D)->el_flags
 744      000000
 745              		.loc 1 296 0
 746 06d3 8B44240C 		movl	12(%esp), %eax	 # flags, D.2852
 747              		.loc 1 297 0
 748 06d7 83C414   		addl	$20, %esp	 #,
 749              	LCFI19:
 750              		.cfi_def_cfa_offset 4
 751 06da C3       		ret
 752              		.cfi_endproc
 753              	LFE9:
 754              		.globl	_chEvtDispatch
 755              		.def	_chEvtDispatch;	.scl	2;	.type	32;	.endef
 756              	_chEvtDispatch:
 757              	LFB10:
 758              		.loc 1 308 0
 759              		.cfi_startproc
 760 06db 53       		pushl	%ebx	 #
 761              	LCFI20:
 762              		.cfi_def_cfa_offset 8
 763              		.cfi_offset 3, -8
 764 06dc 83EC28   		subl	$40, %esp	 #,
 765              	LCFI21:
 766              		.cfi_def_cfa_offset 48
 767              		.loc 1 313 0
 768 06df C744241C 		movl	$0, 28(%esp)	 #, eid
 768      00000000 
 769              		.loc 1 314 0
 770 06e7 E99E0000 		jmp	L26	 #
 770      00
 771              	L28:
 772 06ec A1E80000 		movl	LPBX1+232, %eax	 # *LPBX1, PROF_edge_counter.7
 772      00
 773 06f1 8B15EC00 		movl	LPBX1+236, %edx	 # *LPBX1, PROF_edge_counter.7
 773      0000
 774 06f7 83C001   		addl	$1, %eax	 #, PROF_edge_counter.7
 775 06fa 83D200   		adcl	$0, %edx	 #, PROF_edge_counter.7
 776 06fd A3E80000 		movl	%eax, LPBX1+232	 # PROF_edge_counter.7, *LPBX1
 776      00
 777 0702 8915EC00 		movl	%edx, LPBX1+236	 # PROF_edge_counter.7, *LPBX1
 777      0000
GAS LISTING C:\cygwin\tmp\ccRh0JUa.s 			page 18


 778              		.loc 1 315 0
 779 0708 8B44241C 		movl	28(%esp), %eax	 # eid, tmp81
 780 070c BA010000 		movl	$1, %edx	 #, tmp82
 780      00
 781 0711 89D3     		movl	%edx, %ebx	 # tmp82,
 782 0713 88C1     		movb	%al, %cl	 #,
 783 0715 D3E3     		sall	%cl, %ebx	 #,
 784 0717 89D8     		movl	%ebx, %eax	 #, D.2833
 785 0719 23442434 		andl	52(%esp), %eax	 # mask, D.2835
 786 071d 85C0     		testl	%eax, %eax	 # D.2835
 787 071f 7449     		je	L27	 #,
 788 0721 A1D80000 		movl	LPBX1+216, %eax	 # *LPBX1, PROF_edge_counter.7
 788      00
 789 0726 8B15DC00 		movl	LPBX1+220, %edx	 # *LPBX1, PROF_edge_counter.7
 789      0000
 790 072c 83C001   		addl	$1, %eax	 #, PROF_edge_counter.7
 791 072f 83D200   		adcl	$0, %edx	 #, PROF_edge_counter.7
 792 0732 A3D80000 		movl	%eax, LPBX1+216	 # PROF_edge_counter.7, *LPBX1
 792      00
 793 0737 8915DC00 		movl	%edx, LPBX1+220	 # PROF_edge_counter.7, *LPBX1
 793      0000
 794              		.loc 1 319 0
 795 073d 8B44241C 		movl	28(%esp), %eax	 # eid, tmp83
 796 0741 BA010000 		movl	$1, %edx	 #, tmp84
 796      00
 797 0746 89D3     		movl	%edx, %ebx	 # tmp84,
 798 0748 88C1     		movb	%al, %cl	 #,
 799 074a D3E3     		sall	%cl, %ebx	 #,
 800 074c 89D8     		movl	%ebx, %eax	 #, D.2845
 801 074e F7D0     		notl	%eax	 # D.2847
 802 0750 21442434 		andl	%eax, 52(%esp)	 # D.2847, mask
 803              		.loc 1 320 0
 804 0754 8B44241C 		movl	28(%esp), %eax	 # eid, eid.1
 805 0758 C1E002   		sall	$2, %eax	 #, D.2849
 806 075b 03442430 		addl	48(%esp), %eax	 # handlers, D.2850
 807 075f 8B10     		movl	(%eax), %edx	 # *D.2850_20, D.2851
 808 0761 8B44241C 		movl	28(%esp), %eax	 # eid, tmp85
 809 0765 890424   		movl	%eax, (%esp)	 # tmp85,
 810 0768 FFD2     		call	*%edx	 # D.2851
 811              	L27:
 812              		.loc 1 322 0
 813 076a FF44241C 		incl	28(%esp)	 # eid
 814 076e A1E00000 		movl	LPBX1+224, %eax	 # *LPBX1, PROF_edge_counter.7
 814      00
 815 0773 8B15E400 		movl	LPBX1+228, %edx	 # *LPBX1, PROF_edge_counter.7
 815      0000
 816 0779 83C001   		addl	$1, %eax	 #, PROF_edge_counter.7
 817 077c 83D200   		adcl	$0, %edx	 #, PROF_edge_counter.7
 818 077f A3E00000 		movl	%eax, LPBX1+224	 # PROF_edge_counter.7, *LPBX1
 818      00
 819 0784 8915E400 		movl	%edx, LPBX1+228	 # PROF_edge_counter.7, *LPBX1
 819      0000
 820              	L26:
 821              		.loc 1 314 0 discriminator 1
 822 078a 837C2434 		cmpl	$0, 52(%esp)	 #, mask
 822      00
 823 078f 0F8557FF 		jne	L28	 #,
GAS LISTING C:\cygwin\tmp\ccRh0JUa.s 			page 19


 823      FFFF
 824              		.loc 1 314 0 is_stmt 0
 825 0795 A1F00000 		movl	LPBX1+240, %eax	 # *LPBX1, PROF_edge_counter.7
 825      00
 826 079a 8B15F400 		movl	LPBX1+244, %edx	 # *LPBX1, PROF_edge_counter.7
 826      0000
 827 07a0 83C001   		addl	$1, %eax	 #, PROF_edge_counter.7
 828 07a3 83D200   		adcl	$0, %edx	 #, PROF_edge_counter.7
 829 07a6 A3F00000 		movl	%eax, LPBX1+240	 # PROF_edge_counter.7, *LPBX1
 829      00
 830 07ab 8915F400 		movl	%edx, LPBX1+244	 # PROF_edge_counter.7, *LPBX1
 830      0000
 831              		.loc 1 324 0 is_stmt 1
 832 07b1 83C428   		addl	$40, %esp	 #,
 833              	LCFI22:
 834              		.cfi_def_cfa_offset 8
 835 07b4 5B       		popl	%ebx	 #
 836              	LCFI23:
 837              		.cfi_def_cfa_offset 4
 838              		.cfi_restore 3
 839 07b5 C3       		ret
 840              		.cfi_endproc
 841              	LFE10:
 842              		.globl	_chEvtWaitOneTimeout
 843              		.def	_chEvtWaitOneTimeout;	.scl	2;	.type	32;	.endef
 844              	_chEvtWaitOneTimeout:
 845              	LFB11:
 846              		.loc 1 439 0
 847              		.cfi_startproc
 848 07b6 83EC2C   		subl	$44, %esp	 #,
 849              	LCFI24:
 850              		.cfi_def_cfa_offset 48
 851              		.loc 1 439 0
 852 07b9 A1900000 		movl	LPBX1+144, %eax	 # *LPBX1, PROF_edge_counter.6
 852      00
 853 07be 8B159400 		movl	LPBX1+148, %edx	 # *LPBX1, PROF_edge_counter.6
 853      0000
 854 07c4 83C001   		addl	$1, %eax	 #, PROF_edge_counter.6
 855 07c7 83D200   		adcl	$0, %edx	 #, PROF_edge_counter.6
 856 07ca A3900000 		movl	%eax, LPBX1+144	 # PROF_edge_counter.6, *LPBX1
 856      00
 857 07cf 89159400 		movl	%edx, LPBX1+148	 # PROF_edge_counter.6, *LPBX1
 857      0000
 858              		.loc 1 440 0
 859 07d5 A1180000 		movl	_rlist+24, %eax	 # rlist.r_current, tmp86
 859      00
 860 07da 89442418 		movl	%eax, 24(%esp)	 # tmp86, ctp
 861              		.loc 1 443 0
 862              	/APP
 863              	 # 443 "../../os/kernel/src/chevents.c" 1
 864 07de 90       		nop
 865              	 # 0 "" 2
 866              	/NO_APP
 867 07df A1980000 		movl	LPBX1+152, %eax	 # *LPBX1, PROF_edge_counter.6
 867      00
 868 07e4 8B159C00 		movl	LPBX1+156, %edx	 # *LPBX1, PROF_edge_counter.6
 868      0000
GAS LISTING C:\cygwin\tmp\ccRh0JUa.s 			page 20


 869 07ea 83C001   		addl	$1, %eax	 #, PROF_edge_counter.6
 870 07ed 83D200   		adcl	$0, %edx	 #, PROF_edge_counter.6
 871 07f0 A3980000 		movl	%eax, LPBX1+152	 # PROF_edge_counter.6, *LPBX1
 871      00
 872 07f5 89159C00 		movl	%edx, LPBX1+156	 # PROF_edge_counter.6, *LPBX1
 872      0000
 873              		.loc 1 445 0
 874 07fb 8B442418 		movl	24(%esp), %eax	 # ctp, tmp87
 875 07ff 8B4038   		movl	56(%eax), %eax	 # ctp_3->p_epending, D.2815
 876 0802 23442430 		andl	48(%esp), %eax	 # mask, tmp88
 877 0806 8944241C 		movl	%eax, 28(%esp)	 # tmp88, m
 878 080a 837C241C 		cmpl	$0, 28(%esp)	 #, m
 878      00
 879 080f 0F85F400 		jne	L30	 #,
 879      0000
 880              		.loc 1 446 0
 881 0815 837C2434 		cmpl	$0, 52(%esp)	 #, time
 881      00
 882 081a 7543     		jne	L31	 #,
 883 081c A1A00000 		movl	LPBX1+160, %eax	 # *LPBX1, PROF_edge_counter.6
 883      00
 884 0821 8B15A400 		movl	LPBX1+164, %edx	 # *LPBX1, PROF_edge_counter.6
 884      0000
 885 0827 83C001   		addl	$1, %eax	 #, PROF_edge_counter.6
 886 082a 83D200   		adcl	$0, %edx	 #, PROF_edge_counter.6
 887 082d A3A00000 		movl	%eax, LPBX1+160	 # PROF_edge_counter.6, *LPBX1
 887      00
 888 0832 8915A400 		movl	%edx, LPBX1+164	 # PROF_edge_counter.6, *LPBX1
 888      0000
 889              		.loc 1 447 0
 890              	/APP
 891              	 # 447 "../../os/kernel/src/chevents.c" 1
 892 0838 90       		nop
 893              	 # 0 "" 2
 894              		.loc 1 448 0
 895              	/NO_APP
 896 0839 B9000000 		movl	$0, %ecx	 #, D.2820
 896      00
 897 083e A1B00000 		movl	LPBX1+176, %eax	 # *LPBX1, PROF_edge_counter.6
 897      00
 898 0843 8B15B400 		movl	LPBX1+180, %edx	 # *LPBX1, PROF_edge_counter.6
 898      0000
 899 0849 83C001   		addl	$1, %eax	 #, PROF_edge_counter.6
 900 084c 83D200   		adcl	$0, %edx	 #, PROF_edge_counter.6
 901 084f A3B00000 		movl	%eax, LPBX1+176	 # PROF_edge_counter.6, *LPBX1
 901      00
 902 0854 8915B400 		movl	%edx, LPBX1+180	 # PROF_edge_counter.6, *LPBX1
 902      0000
 903 085a E9EB0000 		jmp	L32	 #
 903      00
 904              	L31:
 905 085f A1A80000 		movl	LPBX1+168, %eax	 # *LPBX1, PROF_edge_counter.6
 905      00
 906 0864 8B15AC00 		movl	LPBX1+172, %edx	 # *LPBX1, PROF_edge_counter.6
 906      0000
 907 086a 83C001   		addl	$1, %eax	 #, PROF_edge_counter.6
 908 086d 83D200   		adcl	$0, %edx	 #, PROF_edge_counter.6
GAS LISTING C:\cygwin\tmp\ccRh0JUa.s 			page 21


 909 0870 A3A80000 		movl	%eax, LPBX1+168	 # PROF_edge_counter.6, *LPBX1
 909      00
 910 0875 8915AC00 		movl	%edx, LPBX1+172	 # PROF_edge_counter.6, *LPBX1
 910      0000
 911              		.loc 1 450 0
 912 087b 8B442418 		movl	24(%esp), %eax	 # ctp, tmp89
 913 087f 8B542430 		movl	48(%esp), %edx	 # mask, tmp90
 914 0883 895024   		movl	%edx, 36(%eax)	 # tmp90, ctp_3->p_u.ewmask
 915              		.loc 1 451 0
 916 0886 8B442434 		movl	52(%esp), %eax	 # time, tmp91
 917 088a 89442404 		movl	%eax, 4(%esp)	 # tmp91,
 918 088e C7042408 		movl	$8, (%esp)	 #,
 918      000000
 919 0895 E8000000 		call	_chSchGoSleepTimeoutS	 #
 919      00
 920 089a 85C0     		testl	%eax, %eax	 # D.2821
 921 089c 7940     		jns	L33	 #,
 922 089e A1B80000 		movl	LPBX1+184, %eax	 # *LPBX1, PROF_edge_counter.6
 922      00
 923 08a3 8B15BC00 		movl	LPBX1+188, %edx	 # *LPBX1, PROF_edge_counter.6
 923      0000
 924 08a9 83C001   		addl	$1, %eax	 #, PROF_edge_counter.6
 925 08ac 83D200   		adcl	$0, %edx	 #, PROF_edge_counter.6
 926 08af A3B80000 		movl	%eax, LPBX1+184	 # PROF_edge_counter.6, *LPBX1
 926      00
 927 08b4 8915BC00 		movl	%edx, LPBX1+188	 # PROF_edge_counter.6, *LPBX1
 927      0000
 928              		.loc 1 452 0
 929              	/APP
 930              	 # 452 "../../os/kernel/src/chevents.c" 1
 931 08ba 90       		nop
 932              	 # 0 "" 2
 933              		.loc 1 453 0
 934              	/NO_APP
 935 08bb B9000000 		movl	$0, %ecx	 #, D.2820
 935      00
 936 08c0 A1C00000 		movl	LPBX1+192, %eax	 # *LPBX1, PROF_edge_counter.6
 936      00
 937 08c5 8B15C400 		movl	LPBX1+196, %edx	 # *LPBX1, PROF_edge_counter.6
 937      0000
 938 08cb 83C001   		addl	$1, %eax	 #, PROF_edge_counter.6
 939 08ce 83D200   		adcl	$0, %edx	 #, PROF_edge_counter.6
 940 08d1 A3C00000 		movl	%eax, LPBX1+192	 # PROF_edge_counter.6, *LPBX1
 940      00
 941 08d6 8915C400 		movl	%edx, LPBX1+196	 # PROF_edge_counter.6, *LPBX1
 941      0000
 942 08dc EB6C     		jmp	L32	 #
 943              	L33:
 944              		.loc 1 455 0
 945 08de 8B442418 		movl	24(%esp), %eax	 # ctp, tmp92
 946 08e2 8B4038   		movl	56(%eax), %eax	 # ctp_3->p_epending, D.2824
 947 08e5 23442430 		andl	48(%esp), %eax	 # mask, tmp93
 948 08e9 8944241C 		movl	%eax, 28(%esp)	 # tmp93, m
 949 08ed A1C80000 		movl	LPBX1+200, %eax	 # *LPBX1, PROF_edge_counter.6
 949      00
 950 08f2 8B15CC00 		movl	LPBX1+204, %edx	 # *LPBX1, PROF_edge_counter.6
 950      0000
GAS LISTING C:\cygwin\tmp\ccRh0JUa.s 			page 22


 951 08f8 83C001   		addl	$1, %eax	 #, PROF_edge_counter.6
 952 08fb 83D200   		adcl	$0, %edx	 #, PROF_edge_counter.6
 953 08fe A3C80000 		movl	%eax, LPBX1+200	 # PROF_edge_counter.6, *LPBX1
 953      00
 954 0903 8915CC00 		movl	%edx, LPBX1+204	 # PROF_edge_counter.6, *LPBX1
 954      0000
 955              	L30:
 956              		.loc 1 457 0
 957 0909 8B44241C 		movl	28(%esp), %eax	 # m, tmp94
 958 090d F7D8     		negl	%eax	 # D.2825
 959 090f 2144241C 		andl	%eax, 28(%esp)	 # D.2825, m
 960              		.loc 1 458 0
 961 0913 8B442418 		movl	24(%esp), %eax	 # ctp, tmp95
 962 0917 8B4038   		movl	56(%eax), %eax	 # ctp_3->p_epending, D.2826
 963 091a 8B54241C 		movl	28(%esp), %edx	 # m, tmp96
 964 091e F7D2     		notl	%edx	 # D.2827
 965 0920 21C2     		andl	%eax, %edx	 # D.2826, D.2828
 966 0922 8B442418 		movl	24(%esp), %eax	 # ctp, tmp97
 967 0926 895038   		movl	%edx, 56(%eax)	 # D.2828, ctp_3->p_epending
 968              		.loc 1 460 0
 969              	/APP
 970              	 # 460 "../../os/kernel/src/chevents.c" 1
 971 0929 90       		nop
 972              	 # 0 "" 2
 973              		.loc 1 461 0
 974              	/NO_APP
 975 092a 8B4C241C 		movl	28(%esp), %ecx	 # m, D.2820
 976 092e A1D00000 		movl	LPBX1+208, %eax	 # *LPBX1, PROF_edge_counter.6
 976      00
 977 0933 8B15D400 		movl	LPBX1+212, %edx	 # *LPBX1, PROF_edge_counter.6
 977      0000
 978 0939 83C001   		addl	$1, %eax	 #, PROF_edge_counter.6
 979 093c 83D200   		adcl	$0, %edx	 #, PROF_edge_counter.6
 980 093f A3D00000 		movl	%eax, LPBX1+208	 # PROF_edge_counter.6, *LPBX1
 980      00
 981 0944 8915D400 		movl	%edx, LPBX1+212	 # PROF_edge_counter.6, *LPBX1
 981      0000
 982              	L32:
 983 094a 89C8     		movl	%ecx, %eax	 # D.2820, <retval>
 984              		.loc 1 462 0
 985 094c 83C42C   		addl	$44, %esp	 #,
 986              	LCFI25:
 987              		.cfi_def_cfa_offset 4
 988 094f C3       		ret
 989              		.cfi_endproc
 990              	LFE11:
 991              		.globl	_chEvtWaitAnyTimeout
 992              		.def	_chEvtWaitAnyTimeout;	.scl	2;	.type	32;	.endef
 993              	_chEvtWaitAnyTimeout:
 994              	LFB12:
 995              		.loc 1 482 0
 996              		.cfi_startproc
 997 0950 83EC2C   		subl	$44, %esp	 #,
 998              	LCFI26:
 999              		.cfi_def_cfa_offset 48
 1000              		.loc 1 482 0
 1001 0953 A1480000 		movl	LPBX1+72, %eax	 # *LPBX1, PROF_edge_counter.5
GAS LISTING C:\cygwin\tmp\ccRh0JUa.s 			page 23


 1001      00
 1002 0958 8B154C00 		movl	LPBX1+76, %edx	 # *LPBX1, PROF_edge_counter.5
 1002      0000
 1003 095e 83C001   		addl	$1, %eax	 #, PROF_edge_counter.5
 1004 0961 83D200   		adcl	$0, %edx	 #, PROF_edge_counter.5
 1005 0964 A3480000 		movl	%eax, LPBX1+72	 # PROF_edge_counter.5, *LPBX1
 1005      00
 1006 0969 89154C00 		movl	%edx, LPBX1+76	 # PROF_edge_counter.5, *LPBX1
 1006      0000
 1007              		.loc 1 483 0
 1008 096f A1180000 		movl	_rlist+24, %eax	 # rlist.r_current, tmp85
 1008      00
 1009 0974 89442418 		movl	%eax, 24(%esp)	 # tmp85, ctp
 1010              		.loc 1 486 0
 1011              	/APP
 1012              	 # 486 "../../os/kernel/src/chevents.c" 1
 1013 0978 90       		nop
 1014              	 # 0 "" 2
 1015              	/NO_APP
 1016 0979 A1500000 		movl	LPBX1+80, %eax	 # *LPBX1, PROF_edge_counter.5
 1016      00
 1017 097e 8B155400 		movl	LPBX1+84, %edx	 # *LPBX1, PROF_edge_counter.5
 1017      0000
 1018 0984 83C001   		addl	$1, %eax	 #, PROF_edge_counter.5
 1019 0987 83D200   		adcl	$0, %edx	 #, PROF_edge_counter.5
 1020 098a A3500000 		movl	%eax, LPBX1+80	 # PROF_edge_counter.5, *LPBX1
 1020      00
 1021 098f 89155400 		movl	%edx, LPBX1+84	 # PROF_edge_counter.5, *LPBX1
 1021      0000
 1022              		.loc 1 488 0
 1023 0995 8B442418 		movl	24(%esp), %eax	 # ctp, tmp86
 1024 0999 8B4038   		movl	56(%eax), %eax	 # ctp_3->p_epending, D.2801
 1025 099c 23442430 		andl	48(%esp), %eax	 # mask, tmp87
 1026 09a0 8944241C 		movl	%eax, 28(%esp)	 # tmp87, m
 1027 09a4 837C241C 		cmpl	$0, 28(%esp)	 #, m
 1027      00
 1028 09a9 0F85F400 		jne	L35	 #,
 1028      0000
 1029              		.loc 1 489 0
 1030 09af 837C2434 		cmpl	$0, 52(%esp)	 #, time
 1030      00
 1031 09b4 7543     		jne	L36	 #,
 1032 09b6 A1580000 		movl	LPBX1+88, %eax	 # *LPBX1, PROF_edge_counter.5
 1032      00
 1033 09bb 8B155C00 		movl	LPBX1+92, %edx	 # *LPBX1, PROF_edge_counter.5
 1033      0000
 1034 09c1 83C001   		addl	$1, %eax	 #, PROF_edge_counter.5
 1035 09c4 83D200   		adcl	$0, %edx	 #, PROF_edge_counter.5
 1036 09c7 A3580000 		movl	%eax, LPBX1+88	 # PROF_edge_counter.5, *LPBX1
 1036      00
 1037 09cc 89155C00 		movl	%edx, LPBX1+92	 # PROF_edge_counter.5, *LPBX1
 1037      0000
 1038              		.loc 1 490 0
 1039              	/APP
 1040              	 # 490 "../../os/kernel/src/chevents.c" 1
 1041 09d2 90       		nop
 1042              	 # 0 "" 2
GAS LISTING C:\cygwin\tmp\ccRh0JUa.s 			page 24


 1043              		.loc 1 491 0
 1044              	/NO_APP
 1045 09d3 B9000000 		movl	$0, %ecx	 #, D.2806
 1045      00
 1046 09d8 A1680000 		movl	LPBX1+104, %eax	 # *LPBX1, PROF_edge_counter.5
 1046      00
 1047 09dd 8B156C00 		movl	LPBX1+108, %edx	 # *LPBX1, PROF_edge_counter.5
 1047      0000
 1048 09e3 83C001   		addl	$1, %eax	 #, PROF_edge_counter.5
 1049 09e6 83D200   		adcl	$0, %edx	 #, PROF_edge_counter.5
 1050 09e9 A3680000 		movl	%eax, LPBX1+104	 # PROF_edge_counter.5, *LPBX1
 1050      00
 1051 09ee 89156C00 		movl	%edx, LPBX1+108	 # PROF_edge_counter.5, *LPBX1
 1051      0000
 1052 09f4 E9E10000 		jmp	L37	 #
 1052      00
 1053              	L36:
 1054 09f9 A1600000 		movl	LPBX1+96, %eax	 # *LPBX1, PROF_edge_counter.5
 1054      00
 1055 09fe 8B156400 		movl	LPBX1+100, %edx	 # *LPBX1, PROF_edge_counter.5
 1055      0000
 1056 0a04 83C001   		addl	$1, %eax	 #, PROF_edge_counter.5
 1057 0a07 83D200   		adcl	$0, %edx	 #, PROF_edge_counter.5
 1058 0a0a A3600000 		movl	%eax, LPBX1+96	 # PROF_edge_counter.5, *LPBX1
 1058      00
 1059 0a0f 89156400 		movl	%edx, LPBX1+100	 # PROF_edge_counter.5, *LPBX1
 1059      0000
 1060              		.loc 1 493 0
 1061 0a15 8B442418 		movl	24(%esp), %eax	 # ctp, tmp88
 1062 0a19 8B542430 		movl	48(%esp), %edx	 # mask, tmp89
 1063 0a1d 895024   		movl	%edx, 36(%eax)	 # tmp89, ctp_3->p_u.ewmask
 1064              		.loc 1 494 0
 1065 0a20 8B442434 		movl	52(%esp), %eax	 # time, tmp90
 1066 0a24 89442404 		movl	%eax, 4(%esp)	 # tmp90,
 1067 0a28 C7042408 		movl	$8, (%esp)	 #,
 1067      000000
 1068 0a2f E8000000 		call	_chSchGoSleepTimeoutS	 #
 1068      00
 1069 0a34 85C0     		testl	%eax, %eax	 # D.2807
 1070 0a36 7940     		jns	L38	 #,
 1071 0a38 A1700000 		movl	LPBX1+112, %eax	 # *LPBX1, PROF_edge_counter.5
 1071      00
 1072 0a3d 8B157400 		movl	LPBX1+116, %edx	 # *LPBX1, PROF_edge_counter.5
 1072      0000
 1073 0a43 83C001   		addl	$1, %eax	 #, PROF_edge_counter.5
 1074 0a46 83D200   		adcl	$0, %edx	 #, PROF_edge_counter.5
 1075 0a49 A3700000 		movl	%eax, LPBX1+112	 # PROF_edge_counter.5, *LPBX1
 1075      00
 1076 0a4e 89157400 		movl	%edx, LPBX1+116	 # PROF_edge_counter.5, *LPBX1
 1076      0000
 1077              		.loc 1 495 0
 1078              	/APP
 1079              	 # 495 "../../os/kernel/src/chevents.c" 1
 1080 0a54 90       		nop
 1081              	 # 0 "" 2
 1082              		.loc 1 496 0
 1083              	/NO_APP
GAS LISTING C:\cygwin\tmp\ccRh0JUa.s 			page 25


 1084 0a55 B9000000 		movl	$0, %ecx	 #, D.2806
 1084      00
 1085 0a5a A1780000 		movl	LPBX1+120, %eax	 # *LPBX1, PROF_edge_counter.5
 1085      00
 1086 0a5f 8B157C00 		movl	LPBX1+124, %edx	 # *LPBX1, PROF_edge_counter.5
 1086      0000
 1087 0a65 83C001   		addl	$1, %eax	 #, PROF_edge_counter.5
 1088 0a68 83D200   		adcl	$0, %edx	 #, PROF_edge_counter.5
 1089 0a6b A3780000 		movl	%eax, LPBX1+120	 # PROF_edge_counter.5, *LPBX1
 1089      00
 1090 0a70 89157C00 		movl	%edx, LPBX1+124	 # PROF_edge_counter.5, *LPBX1
 1090      0000
 1091 0a76 EB62     		jmp	L37	 #
 1092              	L38:
 1093              		.loc 1 498 0
 1094 0a78 8B442418 		movl	24(%esp), %eax	 # ctp, tmp91
 1095 0a7c 8B4038   		movl	56(%eax), %eax	 # ctp_3->p_epending, D.2810
 1096 0a7f 23442430 		andl	48(%esp), %eax	 # mask, tmp92
 1097 0a83 8944241C 		movl	%eax, 28(%esp)	 # tmp92, m
 1098 0a87 A1800000 		movl	LPBX1+128, %eax	 # *LPBX1, PROF_edge_counter.5
 1098      00
 1099 0a8c 8B158400 		movl	LPBX1+132, %edx	 # *LPBX1, PROF_edge_counter.5
 1099      0000
 1100 0a92 83C001   		addl	$1, %eax	 #, PROF_edge_counter.5
 1101 0a95 83D200   		adcl	$0, %edx	 #, PROF_edge_counter.5
 1102 0a98 A3800000 		movl	%eax, LPBX1+128	 # PROF_edge_counter.5, *LPBX1
 1102      00
 1103 0a9d 89158400 		movl	%edx, LPBX1+132	 # PROF_edge_counter.5, *LPBX1
 1103      0000
 1104              	L35:
 1105              		.loc 1 500 0
 1106 0aa3 8B442418 		movl	24(%esp), %eax	 # ctp, tmp93
 1107 0aa7 8B4038   		movl	56(%eax), %eax	 # ctp_3->p_epending, D.2811
 1108 0aaa 8B54241C 		movl	28(%esp), %edx	 # m, tmp94
 1109 0aae F7D2     		notl	%edx	 # D.2812
 1110 0ab0 21C2     		andl	%eax, %edx	 # D.2811, D.2813
 1111 0ab2 8B442418 		movl	24(%esp), %eax	 # ctp, tmp95
 1112 0ab6 895038   		movl	%edx, 56(%eax)	 # D.2813, ctp_3->p_epending
 1113              		.loc 1 502 0
 1114              	/APP
 1115              	 # 502 "../../os/kernel/src/chevents.c" 1
 1116 0ab9 90       		nop
 1117              	 # 0 "" 2
 1118              		.loc 1 503 0
 1119              	/NO_APP
 1120 0aba 8B4C241C 		movl	28(%esp), %ecx	 # m, D.2806
 1121 0abe A1880000 		movl	LPBX1+136, %eax	 # *LPBX1, PROF_edge_counter.5
 1121      00
 1122 0ac3 8B158C00 		movl	LPBX1+140, %edx	 # *LPBX1, PROF_edge_counter.5
 1122      0000
 1123 0ac9 83C001   		addl	$1, %eax	 #, PROF_edge_counter.5
 1124 0acc 83D200   		adcl	$0, %edx	 #, PROF_edge_counter.5
 1125 0acf A3880000 		movl	%eax, LPBX1+136	 # PROF_edge_counter.5, *LPBX1
 1125      00
 1126 0ad4 89158C00 		movl	%edx, LPBX1+140	 # PROF_edge_counter.5, *LPBX1
 1126      0000
 1127              	L37:
GAS LISTING C:\cygwin\tmp\ccRh0JUa.s 			page 26


 1128 0ada 89C8     		movl	%ecx, %eax	 # D.2806, <retval>
 1129              		.loc 1 504 0
 1130 0adc 83C42C   		addl	$44, %esp	 #,
 1131              	LCFI27:
 1132              		.cfi_def_cfa_offset 4
 1133 0adf C3       		ret
 1134              		.cfi_endproc
 1135              	LFE12:
 1136              		.globl	_chEvtWaitAllTimeout
 1137              		.def	_chEvtWaitAllTimeout;	.scl	2;	.type	32;	.endef
 1138              	_chEvtWaitAllTimeout:
 1139              	LFB13:
 1140              		.loc 1 523 0
 1141              		.cfi_startproc
 1142 0ae0 83EC2C   		subl	$44, %esp	 #,
 1143              	LCFI28:
 1144              		.cfi_def_cfa_offset 48
 1145              		.loc 1 523 0
 1146 0ae3 A1000000 		movl	LPBX1, %eax	 # *LPBX1, PROF_edge_counter.4
 1146      00
 1147 0ae8 8B150400 		movl	LPBX1+4, %edx	 # *LPBX1, PROF_edge_counter.4
 1147      0000
 1148 0aee 83C001   		addl	$1, %eax	 #, PROF_edge_counter.4
 1149 0af1 83D200   		adcl	$0, %edx	 #, PROF_edge_counter.4
 1150 0af4 A3000000 		movl	%eax, LPBX1	 # PROF_edge_counter.4, *LPBX1
 1150      00
 1151 0af9 89150400 		movl	%edx, LPBX1+4	 # PROF_edge_counter.4, *LPBX1
 1151      0000
 1152              		.loc 1 524 0
 1153 0aff A1180000 		movl	_rlist+24, %eax	 # rlist.r_current, tmp85
 1153      00
 1154 0b04 8944241C 		movl	%eax, 28(%esp)	 # tmp85, ctp
 1155              		.loc 1 526 0
 1156              	/APP
 1157              	 # 526 "../../os/kernel/src/chevents.c" 1
 1158 0b08 90       		nop
 1159              	 # 0 "" 2
 1160              	/NO_APP
 1161 0b09 A1080000 		movl	LPBX1+8, %eax	 # *LPBX1, PROF_edge_counter.4
 1161      00
 1162 0b0e 8B150C00 		movl	LPBX1+12, %edx	 # *LPBX1, PROF_edge_counter.4
 1162      0000
 1163 0b14 83C001   		addl	$1, %eax	 #, PROF_edge_counter.4
 1164 0b17 83D200   		adcl	$0, %edx	 #, PROF_edge_counter.4
 1165 0b1a A3080000 		movl	%eax, LPBX1+8	 # PROF_edge_counter.4, *LPBX1
 1165      00
 1166 0b1f 89150C00 		movl	%edx, LPBX1+12	 # PROF_edge_counter.4, *LPBX1
 1166      0000
 1167              		.loc 1 528 0
 1168 0b25 8B44241C 		movl	28(%esp), %eax	 # ctp, tmp86
 1169 0b29 8B4038   		movl	56(%eax), %eax	 # ctp_2->p_epending, D.2787
 1170 0b2c 23442430 		andl	48(%esp), %eax	 # mask, D.2788
 1171 0b30 3B442430 		cmpl	48(%esp), %eax	 # mask, D.2788
 1172 0b34 0F84E700 		je	L40	 #,
 1172      0000
 1173              		.loc 1 529 0
 1174 0b3a 837C2434 		cmpl	$0, 52(%esp)	 #, time
GAS LISTING C:\cygwin\tmp\ccRh0JUa.s 			page 27


 1174      00
 1175 0b3f 7543     		jne	L41	 #,
 1176 0b41 A1100000 		movl	LPBX1+16, %eax	 # *LPBX1, PROF_edge_counter.4
 1176      00
 1177 0b46 8B151400 		movl	LPBX1+20, %edx	 # *LPBX1, PROF_edge_counter.4
 1177      0000
 1178 0b4c 83C001   		addl	$1, %eax	 #, PROF_edge_counter.4
 1179 0b4f 83D200   		adcl	$0, %edx	 #, PROF_edge_counter.4
 1180 0b52 A3100000 		movl	%eax, LPBX1+16	 # PROF_edge_counter.4, *LPBX1
 1180      00
 1181 0b57 89151400 		movl	%edx, LPBX1+20	 # PROF_edge_counter.4, *LPBX1
 1181      0000
 1182              		.loc 1 530 0
 1183              	/APP
 1184              	 # 530 "../../os/kernel/src/chevents.c" 1
 1185 0b5d 90       		nop
 1186              	 # 0 "" 2
 1187              		.loc 1 531 0
 1188              	/NO_APP
 1189 0b5e B9000000 		movl	$0, %ecx	 #, D.2793
 1189      00
 1190 0b63 A1200000 		movl	LPBX1+32, %eax	 # *LPBX1, PROF_edge_counter.4
 1190      00
 1191 0b68 8B152400 		movl	LPBX1+36, %edx	 # *LPBX1, PROF_edge_counter.4
 1191      0000
 1192 0b6e 83C001   		addl	$1, %eax	 #, PROF_edge_counter.4
 1193 0b71 83D200   		adcl	$0, %edx	 #, PROF_edge_counter.4
 1194 0b74 A3200000 		movl	%eax, LPBX1+32	 # PROF_edge_counter.4, *LPBX1
 1194      00
 1195 0b79 89152400 		movl	%edx, LPBX1+36	 # PROF_edge_counter.4, *LPBX1
 1195      0000
 1196 0b7f E9D40000 		jmp	L42	 #
 1196      00
 1197              	L41:
 1198 0b84 A1180000 		movl	LPBX1+24, %eax	 # *LPBX1, PROF_edge_counter.4
 1198      00
 1199 0b89 8B151C00 		movl	LPBX1+28, %edx	 # *LPBX1, PROF_edge_counter.4
 1199      0000
 1200 0b8f 83C001   		addl	$1, %eax	 #, PROF_edge_counter.4
 1201 0b92 83D200   		adcl	$0, %edx	 #, PROF_edge_counter.4
 1202 0b95 A3180000 		movl	%eax, LPBX1+24	 # PROF_edge_counter.4, *LPBX1
 1202      00
 1203 0b9a 89151C00 		movl	%edx, LPBX1+28	 # PROF_edge_counter.4, *LPBX1
 1203      0000
 1204              		.loc 1 533 0
 1205 0ba0 8B44241C 		movl	28(%esp), %eax	 # ctp, tmp87
 1206 0ba4 8B542430 		movl	48(%esp), %edx	 # mask, tmp88
 1207 0ba8 895024   		movl	%edx, 36(%eax)	 # tmp88, ctp_2->p_u.ewmask
 1208              		.loc 1 534 0
 1209 0bab 8B442434 		movl	52(%esp), %eax	 # time, tmp89
 1210 0baf 89442404 		movl	%eax, 4(%esp)	 # tmp89,
 1211 0bb3 C7042409 		movl	$9, (%esp)	 #,
 1211      000000
 1212 0bba E8000000 		call	_chSchGoSleepTimeoutS	 #
 1212      00
 1213 0bbf 89C1     		movl	%eax, %ecx	 #, D.2794
 1214 0bc1 A1280000 		movl	LPBX1+40, %eax	 # *LPBX1, PROF_edge_counter.4
GAS LISTING C:\cygwin\tmp\ccRh0JUa.s 			page 28


 1214      00
 1215 0bc6 8B152C00 		movl	LPBX1+44, %edx	 # *LPBX1, PROF_edge_counter.4
 1215      0000
 1216 0bcc 83C001   		addl	$1, %eax	 #, PROF_edge_counter.4
 1217 0bcf 83D200   		adcl	$0, %edx	 #, PROF_edge_counter.4
 1218 0bd2 A3280000 		movl	%eax, LPBX1+40	 # PROF_edge_counter.4, *LPBX1
 1218      00
 1219 0bd7 89152C00 		movl	%edx, LPBX1+44	 # PROF_edge_counter.4, *LPBX1
 1219      0000
 1220 0bdd 85C9     		testl	%ecx, %ecx	 # D.2794
 1221 0bdf 7940     		jns	L40	 #,
 1222 0be1 A1300000 		movl	LPBX1+48, %eax	 # *LPBX1, PROF_edge_counter.4
 1222      00
 1223 0be6 8B153400 		movl	LPBX1+52, %edx	 # *LPBX1, PROF_edge_counter.4
 1223      0000
 1224 0bec 83C001   		addl	$1, %eax	 #, PROF_edge_counter.4
 1225 0bef 83D200   		adcl	$0, %edx	 #, PROF_edge_counter.4
 1226 0bf2 A3300000 		movl	%eax, LPBX1+48	 # PROF_edge_counter.4, *LPBX1
 1226      00
 1227 0bf7 89153400 		movl	%edx, LPBX1+52	 # PROF_edge_counter.4, *LPBX1
 1227      0000
 1228              		.loc 1 535 0
 1229              	/APP
 1230              	 # 535 "../../os/kernel/src/chevents.c" 1
 1231 0bfd 90       		nop
 1232              	 # 0 "" 2
 1233              		.loc 1 536 0
 1234              	/NO_APP
 1235 0bfe B9000000 		movl	$0, %ecx	 #, D.2793
 1235      00
 1236 0c03 A1380000 		movl	LPBX1+56, %eax	 # *LPBX1, PROF_edge_counter.4
 1236      00
 1237 0c08 8B153C00 		movl	LPBX1+60, %edx	 # *LPBX1, PROF_edge_counter.4
 1237      0000
 1238 0c0e 83C001   		addl	$1, %eax	 #, PROF_edge_counter.4
 1239 0c11 83D200   		adcl	$0, %edx	 #, PROF_edge_counter.4
 1240 0c14 A3380000 		movl	%eax, LPBX1+56	 # PROF_edge_counter.4, *LPBX1
 1240      00
 1241 0c19 89153C00 		movl	%edx, LPBX1+60	 # PROF_edge_counter.4, *LPBX1
 1241      0000
 1242 0c1f EB37     		jmp	L42	 #
 1243              	L40:
 1244              		.loc 1 539 0
 1245 0c21 8B44241C 		movl	28(%esp), %eax	 # ctp, tmp90
 1246 0c25 8B4038   		movl	56(%eax), %eax	 # ctp_2->p_epending, D.2797
 1247 0c28 8B542430 		movl	48(%esp), %edx	 # mask, tmp91
 1248 0c2c F7D2     		notl	%edx	 # D.2798
 1249 0c2e 21C2     		andl	%eax, %edx	 # D.2797, D.2799
 1250 0c30 8B44241C 		movl	28(%esp), %eax	 # ctp, tmp92
 1251 0c34 895038   		movl	%edx, 56(%eax)	 # D.2799, ctp_2->p_epending
 1252              		.loc 1 541 0
 1253              	/APP
 1254              	 # 541 "../../os/kernel/src/chevents.c" 1
 1255 0c37 90       		nop
 1256              	 # 0 "" 2
 1257              		.loc 1 542 0
 1258              	/NO_APP
GAS LISTING C:\cygwin\tmp\ccRh0JUa.s 			page 29


 1259 0c38 8B4C2430 		movl	48(%esp), %ecx	 # mask, D.2793
 1260 0c3c A1400000 		movl	LPBX1+64, %eax	 # *LPBX1, PROF_edge_counter.4
 1260      00
 1261 0c41 8B154400 		movl	LPBX1+68, %edx	 # *LPBX1, PROF_edge_counter.4
 1261      0000
 1262 0c47 83C001   		addl	$1, %eax	 #, PROF_edge_counter.4
 1263 0c4a 83D200   		adcl	$0, %edx	 #, PROF_edge_counter.4
 1264 0c4d A3400000 		movl	%eax, LPBX1+64	 # PROF_edge_counter.4, *LPBX1
 1264      00
 1265 0c52 89154400 		movl	%edx, LPBX1+68	 # PROF_edge_counter.4, *LPBX1
 1265      0000
 1266              	L42:
 1267 0c58 89C8     		movl	%ecx, %eax	 # D.2793, <retval>
 1268              		.loc 1 543 0
 1269 0c5a 83C42C   		addl	$44, %esp	 #,
 1270              	LCFI29:
 1271              		.cfi_def_cfa_offset 4
 1272 0c5d C3       		ret
 1273              		.cfi_endproc
 1274              	LFE13:
 1275              	.lcomm LPBX1,576,32
 1276              		.section .rdata,"dr"
 1277              		.align 4
 1278              	LC0:
 1279 0000 433A5C64 		.ascii "C:\\develop\\gyro\\ChibiOS\\test\\coverage/../../os/kernel/src/chevents.gcda\0"
 1279      6576656C 
 1279      6F705C67 
 1279      79726F5C 
 1279      43686962 
 1280              		.data
 1281              		.align 32
 1282              	LC1:
 1283              	 # <anonymous>:
 1284 0000 0E000000 		.long	14
 1285              	 # <anonymous>:
 1286 0004 D08FB11F 		.long	531730384
 1287              	 # <anonymous>:
 1288 0008 09000000 		.long	9
 1289              	 # <anonymous>:
 1290 000c 0D000000 		.long	13
 1291              	 # <anonymous>:
 1292 0010 FB76668C 		.long	-1939441925
 1293              	 # <anonymous>:
 1294 0014 09000000 		.long	9
 1295              	 # <anonymous>:
 1296 0018 0C000000 		.long	12
 1297              	 # <anonymous>:
 1298 001c DFA3D6E0 		.long	-522804257
 1299              	 # <anonymous>:
 1300 0020 09000000 		.long	9
 1301              	 # <anonymous>:
 1302 0024 0B000000 		.long	11
 1303              	 # <anonymous>:
 1304 0028 37B48743 		.long	1132966967
 1305              	 # <anonymous>:
 1306 002c 04000000 		.long	4
 1307              	 # <anonymous>:
GAS LISTING C:\cygwin\tmp\ccRh0JUa.s 			page 30


 1308 0030 0A000000 		.long	10
 1309              	 # <anonymous>:
 1310 0034 7446EAF1 		.long	-236304780
 1311              	 # <anonymous>:
 1312 0038 01000000 		.long	1
 1313              	 # <anonymous>:
 1314 003c 09000000 		.long	9
 1315              	 # <anonymous>:
 1316 0040 EA00E395 		.long	-1780285206
 1317              	 # <anonymous>:
 1318 0044 05000000 		.long	5
 1319              	 # <anonymous>:
 1320 0048 08000000 		.long	8
 1321              	 # <anonymous>:
 1322 004c 7EEDABDA 		.long	-626266754
 1323              	 # <anonymous>:
 1324 0050 06000000 		.long	6
 1325              	 # <anonymous>:
 1326 0054 07000000 		.long	7
 1327              	 # <anonymous>:
 1328 0058 9A0DEA7C 		.long	2095713690
 1329              	 # <anonymous>:
 1330 005c 05000000 		.long	5
 1331              	 # <anonymous>:
 1332 0060 06000000 		.long	6
 1333              	 # <anonymous>:
 1334 0064 C64500A3 		.long	-1560263226
 1335              	 # <anonymous>:
 1336 0068 03000000 		.long	3
 1337              	 # <anonymous>:
 1338 006c 05000000 		.long	5
 1339              	 # <anonymous>:
 1340 0070 A2F55193 		.long	-1823345246
 1341              	 # <anonymous>:
 1342 0074 03000000 		.long	3
 1343              	 # <anonymous>:
 1344 0078 04000000 		.long	4
 1345              	 # <anonymous>:
 1346 007c 6B390884 		.long	-2079835797
 1347              	 # <anonymous>:
 1348 0080 03000000 		.long	3
 1349              	 # <anonymous>:
 1350 0084 03000000 		.long	3
 1351              	 # <anonymous>:
 1352 0088 A7FCB162 		.long	1655831719
 1353              	 # <anonymous>:
 1354 008c 03000000 		.long	3
 1355              	 # <anonymous>:
 1356 0090 02000000 		.long	2
 1357              	 # <anonymous>:
 1358 0094 82E0899C 		.long	-1668685694
 1359              	 # <anonymous>:
 1360 0098 07000000 		.long	7
 1361              	 # <anonymous>:
 1362 009c 01000000 		.long	1
 1363              	 # <anonymous>:
 1364 00a0 D2836883 		.long	-2090302510
GAS LISTING C:\cygwin\tmp\ccRh0JUa.s 			page 31


 1365              	 # <anonymous>:
 1366 00a4 05000000 		.long	5
 1367 00a8 00000000 		.align 32
 1367      00000000 
 1367      00000000 
 1367      00000000 
 1367      00000000 
 1368              	LPBX0:
 1369              	 # <anonymous>:
 1370 00c0 2A363034 		.long	875574826
 1371              	 # <anonymous>:
 1372 00c4 00000000 		.long	0
 1373              	 # <anonymous>:
 1374 00c8 77207060 		.long	1617961079
 1375              	 # <anonymous>:
 1376 00cc 00000000 		.long	LC0
 1377              	 # <anonymous>:
 1378 00d0 0E000000 		.long	14
 1379              	 # <anonymous>:
 1380 00d4 00000000 		.long	LC1
 1381              	 # <anonymous>:
 1382 00d8 01000000 		.long	1
 1383              	 # <anonymous>:
 1384              	 # <anonymous>:
 1385 00dc 48000000 		.long	72
 1386              	 # <anonymous>:
 1387 00e0 00000000 		.long	LPBX1
 1388              	 # <anonymous>:
 1389 00e4 00000000 		.long	___gcov_merge_add
 1390 00e8 00000000 		.space 12
 1390      00000000 
 1390      00000000 
 1391 00f4 00000000 		.text
 1391      00000000 
 1391      00000000 
 1392              		.def	__GLOBAL__sub_I_65535_0_chEvtRegisterMask;	.scl	3;	.type	32;	.endef
 1393              	__GLOBAL__sub_I_65535_0_chEvtRegisterMask:
 1394              	LFB14:
 1395              		.loc 1 543 0
 1396              		.cfi_startproc
 1397 0c5e 83EC1C   		subl	$28, %esp	 #,
 1398              	LCFI30:
 1399              		.cfi_def_cfa_offset 32
 1400              		.loc 1 543 0
 1401 0c61 C70424C0 		movl	$LPBX0, (%esp)	 #,
 1401      000000
 1402 0c68 E8000000 		call	___gcov_init	 #
 1402      00
 1403 0c6d 83C41C   		addl	$28, %esp	 #,
 1404              	LCFI31:
 1405              		.cfi_def_cfa_offset 4
 1406 0c70 C3       		ret
 1407              		.cfi_endproc
 1408              	LFE14:
 1409              		.section	.ctors,"w"
 1410              		.align 4
 1411 0000 5E0C0000 		.long	__GLOBAL__sub_I_65535_0_chEvtRegisterMask
GAS LISTING C:\cygwin\tmp\ccRh0JUa.s 			page 32


 1412              		.text
 1413              	Letext0:
 1414              		.file 2 "c:/mingw/bin/../lib/gcc/mingw32/4.6.2/../../../../include/stdint.h"
 1415              		.file 3 "../../os/ports/GCC/SIMIA32/chtypes.h"
 1416              		.file 4 "../../os/kernel/include/chlists.h"
 1417              		.file 5 "../../os/kernel/include/chthreads.h"
 1418              		.file 6 "../../os/ports/GCC/SIMIA32/chcore.h"
 1419              		.file 7 "../../os/kernel/include/chschd.h"
 1420              		.file 8 "../../os/kernel/include/chmtx.h"
 1421              		.file 9 "../../os/kernel/include/chevents.h"