GAS LISTING C:\cygwin\tmp\ccFG3RbS.s 			page 1


   1              		.file	"chheap.c"
   2              	 # GNU C (GCC) version 4.6.2 (mingw32)
   3              	 #	compiled by GNU C version 4.6.2, GMP version 5.0.1, MPFR version 2.4.1, MPC version 0.8.1
   4              	 # GGC heuristics: --param ggc-min-expand=100 --param ggc-min-heapsize=131072
   5              	 # options passed:  -I . -I ../../os/ports/GCC/SIMIA32
   6              	 # -I ../../os/kernel/include -I ../../test -I ../../os/hal/include
   7              	 # -I ../../os/hal/platforms/Win32 -I ../../boards/simulator
   8              	 # -I ../../os/various -iprefix c:\mingw\bin\../lib/gcc/mingw32/4.6.2/
   9              	 # -MD ../../os/kernel/src/chheap.d -MF .dep/chheap.o.d -MP
  10              	 # -MQ ../../os/kernel/src/chheap.o -D SIMULATOR
  11              	 # ../../os/kernel/src/chheap.c -mtune=i386 -march=i386
  12              	 # -auxbase-strip ../../os/kernel/src/chheap.o -ggdb -O0 -Wall -Wextra
  13              	 # -Wstrict-prototypes -fomit-frame-pointer -fprofile-arcs -ftest-coverage
  14              	 # -fverbose-asm
  15              	 # options enabled:  -fasynchronous-unwind-tables -fauto-inc-dec
  16              	 # -fbranch-count-reg -fcommon -fdelete-null-pointer-checks
  17              	 # -fdwarf2-cfi-asm -fearly-inlining -feliminate-unused-debug-types
  18              	 # -ffunction-cse -fgcse-lm -fident -finline-functions-called-once
  19              	 # -fira-share-save-slots -fira-share-spill-slots -fivopts
  20              	 # -fkeep-inline-dllexport -fkeep-static-consts -fleading-underscore
  21              	 # -fmath-errno -fmerge-debug-strings -fmove-loop-invariants
  22              	 # -fomit-frame-pointer -fpeephole -fprefetch-loop-arrays -fprofile-arcs
  23              	 # -freg-struct-return -fsched-critical-path-heuristic
  24              	 # -fsched-dep-count-heuristic -fsched-group-heuristic -fsched-interblock
  25              	 # -fsched-last-insn-heuristic -fsched-rank-heuristic -fsched-spec
  26              	 # -fsched-spec-insn-heuristic -fsched-stalled-insns-dep
  27              	 # -fset-stack-executable -fshow-column -fsigned-zeros
  28              	 # -fsplit-ivs-in-unroller -fstrict-volatile-bitfields -ftest-coverage
  29              	 # -ftrapping-math -ftree-cselim -ftree-forwprop -ftree-loop-if-convert
  30              	 # -ftree-loop-im -ftree-loop-ivcanon -ftree-loop-optimize
  31              	 # -ftree-parallelize-loops= -ftree-phiprop -ftree-pta -ftree-reassoc
  32              	 # -ftree-scev-cprop -ftree-slp-vectorize -ftree-vect-loop-version
  33              	 # -funit-at-a-time -funwind-tables -fvect-cost-model -fverbose-asm
  34              	 # -fzero-initialized-in-bss -m32 -m80387 -m96bit-long-double
  35              	 # -maccumulate-outgoing-args -malign-double -malign-stringops
  36              	 # -mfancy-math-387 -mfp-ret-in-387 -mieee-fp -mno-red-zone -mno-sse4
  37              	 # -mpush-args -msahf -mstack-arg-probe
  38              	
  39              		.text
  40              	Ltext0:
  41              	 # Compiler executable checksum: c20aed7c018482d7b62efcd5dcab2a9d
  42              	
  43              	.lcomm _default_heap,48,32
  44              		.globl	__heap_init
  45              		.def	__heap_init;	.scl	2;	.type	32;	.endef
  46              	__heap_init:
  47              	LFB0:
  48              		.file 1 "../../os/kernel/src/chheap.c"
  49              		.loc 1 68 0
  50              		.cfi_startproc
  51 0000 83EC1C   		subl	$28, %esp	 #,
  52              	LCFI0:
  53              		.cfi_def_cfa_offset 32
  54              		.loc 1 68 0
  55 0003 A1400100 		movl	LPBX1+256, %eax	 # *LPBX1, PROF_edge_counter.7
  55      00
  56 0008 8B154401 		movl	LPBX1+260, %edx	 # *LPBX1, PROF_edge_counter.7
GAS LISTING C:\cygwin\tmp\ccFG3RbS.s 			page 2


  56      0000
  57 000e 83C001   		addl	$1, %eax	 #, PROF_edge_counter.7
  58 0011 83D200   		adcl	$0, %edx	 #, PROF_edge_counter.7
  59 0014 A3400100 		movl	%eax, LPBX1+256	 # PROF_edge_counter.7, *LPBX1
  59      00
  60 0019 89154401 		movl	%edx, LPBX1+260	 # PROF_edge_counter.7, *LPBX1
  60      0000
  61              		.loc 1 69 0
  62 001f C7050000 		movl	$_chCoreAlloc, _default_heap	 #, default_heap.h_provider
  62      00000000 
  62      0000
  63              		.loc 1 70 0
  64 0029 C7051000 		movl	$0, _default_heap+16	 #, default_heap.h_free.h.u.next
  64      00000000 
  64      0000
  65              		.loc 1 71 0
  66 0033 C7051400 		movl	$0, _default_heap+20	 #, default_heap.h_free.h.size
  66      00000000 
  66      0000
  67              		.loc 1 73 0
  68 003d C7042420 		movl	$_default_heap+32, (%esp)	 #,
  68      000000
  69 0044 E8000000 		call	_chMtxInit	 #
  69      00
  70 0049 A1480100 		movl	LPBX1+264, %eax	 # *LPBX1, PROF_edge_counter.7
  70      00
  71 004e 8B154C01 		movl	LPBX1+268, %edx	 # *LPBX1, PROF_edge_counter.7
  71      0000
  72 0054 83C001   		addl	$1, %eax	 #, PROF_edge_counter.7
  73 0057 83D200   		adcl	$0, %edx	 #, PROF_edge_counter.7
  74 005a A3480100 		movl	%eax, LPBX1+264	 # PROF_edge_counter.7, *LPBX1
  74      00
  75 005f 89154C01 		movl	%edx, LPBX1+268	 # PROF_edge_counter.7, *LPBX1
  75      0000
  76              		.loc 1 77 0
  77 0065 83C41C   		addl	$28, %esp	 #,
  78              	LCFI1:
  79              		.cfi_def_cfa_offset 4
  80 0068 C3       		ret
  81              		.cfi_endproc
  82              	LFE0:
  83              		.globl	_chHeapInit
  84              		.def	_chHeapInit;	.scl	2;	.type	32;	.endef
  85              	_chHeapInit:
  86              	LFB1:
  87              		.loc 1 92 0
  88              		.cfi_startproc
  89 0069 83EC2C   		subl	$44, %esp	 #,
  90              	LCFI2:
  91              		.cfi_def_cfa_offset 48
  92              		.loc 1 95 0
  93 006c 8B442434 		movl	52(%esp), %eax	 # buf, buf.2
  94 0070 83E00F   		andl	$15, %eax	 #, D.2839
  95 0073 85C0     		testl	%eax, %eax	 # D.2839
  96 0075 7545     		jne	L3	 #,
  97              		.loc 1 95 0 is_stmt 0 discriminator 1
  98 0077 A1200100 		movl	LPBX1+224, %eax	 # *LPBX1, PROF_edge_counter.6
GAS LISTING C:\cygwin\tmp\ccFG3RbS.s 			page 3


  98      00
  99 007c 8B152401 		movl	LPBX1+228, %edx	 # *LPBX1, PROF_edge_counter.6
  99      0000
 100 0082 83C001   		addl	$1, %eax	 #, PROF_edge_counter.6
 101 0085 83D200   		adcl	$0, %edx	 #, PROF_edge_counter.6
 102 0088 A3200100 		movl	%eax, LPBX1+224	 # PROF_edge_counter.6, *LPBX1
 102      00
 103 008d 89152401 		movl	%edx, LPBX1+228	 # PROF_edge_counter.6, *LPBX1
 103      0000
 104 0093 8B442438 		movl	56(%esp), %eax	 # size, tmp74
 105 0097 83E00F   		andl	$15, %eax	 #, D.2841
 106 009a 85C0     		testl	%eax, %eax	 # D.2841
 107 009c 751E     		jne	L3	 #,
 108              		.loc 1 95 0 discriminator 3
 109 009e A1280100 		movl	LPBX1+232, %eax	 # *LPBX1, PROF_edge_counter.6
 109      00
 110 00a3 8B152C01 		movl	LPBX1+236, %edx	 # *LPBX1, PROF_edge_counter.6
 110      0000
 111 00a9 83C001   		addl	$1, %eax	 #, PROF_edge_counter.6
 112 00ac 83D200   		adcl	$0, %edx	 #, PROF_edge_counter.6
 113 00af A3280100 		movl	%eax, LPBX1+232	 # PROF_edge_counter.6, *LPBX1
 113      00
 114 00b4 89152C01 		movl	%edx, LPBX1+236	 # PROF_edge_counter.6, *LPBX1
 114      0000
 115 00ba EB1C     		jmp	L4	 #
 116              	L3:
 117              		.loc 1 95 0 discriminator 2
 118 00bc A1300100 		movl	LPBX1+240, %eax	 # *LPBX1, PROF_edge_counter.6
 118      00
 119 00c1 8B153401 		movl	LPBX1+244, %edx	 # *LPBX1, PROF_edge_counter.6
 119      0000
 120 00c7 83C001   		addl	$1, %eax	 #, PROF_edge_counter.6
 121 00ca 83D200   		adcl	$0, %edx	 #, PROF_edge_counter.6
 122 00cd A3300100 		movl	%eax, LPBX1+240	 # PROF_edge_counter.6, *LPBX1
 122      00
 123 00d2 89153401 		movl	%edx, LPBX1+244	 # PROF_edge_counter.6, *LPBX1
 123      0000
 124              	L4:
 125              		.loc 1 97 0 is_stmt 1
 126 00d8 8B442430 		movl	48(%esp), %eax	 # heapp, tmp75
 127 00dc C7000000 		movl	$0, (%eax)	 #, heapp_8(D)->h_provider
 127      0000
 128              		.loc 1 98 0
 129 00e2 8B442434 		movl	52(%esp), %eax	 # buf, tmp76
 130 00e6 8944241C 		movl	%eax, 28(%esp)	 # tmp76, hp
 131 00ea 8B442430 		movl	48(%esp), %eax	 # heapp, tmp77
 132 00ee 8B54241C 		movl	28(%esp), %edx	 # hp, tmp78
 133 00f2 895010   		movl	%edx, 16(%eax)	 # tmp78, heapp_8(D)->h_free.h.u.next
 134              		.loc 1 99 0
 135 00f5 8B442430 		movl	48(%esp), %eax	 # heapp, tmp79
 136 00f9 C7401400 		movl	$0, 20(%eax)	 #, heapp_8(D)->h_free.h.size
 136      000000
 137              		.loc 1 100 0
 138 0100 8B44241C 		movl	28(%esp), %eax	 # hp, tmp80
 139 0104 C7000000 		movl	$0, (%eax)	 #, hp_9->h.u.next
 139      0000
 140              		.loc 1 101 0
GAS LISTING C:\cygwin\tmp\ccFG3RbS.s 			page 4


 141 010a 8B442438 		movl	56(%esp), %eax	 # size, tmp81
 142 010e 8D50F0   		leal	-16(%eax), %edx	 #, D.2843
 143 0111 8B44241C 		movl	28(%esp), %eax	 # hp, tmp82
 144 0115 895004   		movl	%edx, 4(%eax)	 # D.2843, hp_9->h.size
 145              		.loc 1 103 0
 146 0118 8B442430 		movl	48(%esp), %eax	 # heapp, tmp83
 147 011c 83C020   		addl	$32, %eax	 #, D.2844
 148 011f 890424   		movl	%eax, (%esp)	 # D.2844,
 149 0122 E8000000 		call	_chMtxInit	 #
 149      00
 150 0127 A1380100 		movl	LPBX1+248, %eax	 # *LPBX1, PROF_edge_counter.6
 150      00
 151 012c 8B153C01 		movl	LPBX1+252, %edx	 # *LPBX1, PROF_edge_counter.6
 151      0000
 152 0132 83C001   		addl	$1, %eax	 #, PROF_edge_counter.6
 153 0135 83D200   		adcl	$0, %edx	 #, PROF_edge_counter.6
 154 0138 A3380100 		movl	%eax, LPBX1+248	 # PROF_edge_counter.6, *LPBX1
 154      00
 155 013d 89153C01 		movl	%edx, LPBX1+252	 # PROF_edge_counter.6, *LPBX1
 155      0000
 156              		.loc 1 107 0
 157 0143 83C42C   		addl	$44, %esp	 #,
 158              	LCFI3:
 159              		.cfi_def_cfa_offset 4
 160 0146 C3       		ret
 161              		.cfi_endproc
 162              	LFE1:
 163              		.globl	_chHeapAlloc
 164              		.def	_chHeapAlloc;	.scl	2;	.type	32;	.endef
 165              	_chHeapAlloc:
 166              	LFB2:
 167              		.loc 1 125 0
 168              		.cfi_startproc
 169 0147 83EC2C   		subl	$44, %esp	 #,
 170              	LCFI4:
 171              		.cfi_def_cfa_offset 48
 172              		.loc 1 125 0
 173 014a A1C80000 		movl	LPBX1+136, %eax	 # *LPBX1, PROF_edge_counter.5
 173      00
 174 014f 8B15CC00 		movl	LPBX1+140, %edx	 # *LPBX1, PROF_edge_counter.5
 174      0000
 175 0155 83C001   		addl	$1, %eax	 #, PROF_edge_counter.5
 176 0158 83D200   		adcl	$0, %edx	 #, PROF_edge_counter.5
 177 015b A3C80000 		movl	%eax, LPBX1+136	 # PROF_edge_counter.5, *LPBX1
 177      00
 178 0160 8915CC00 		movl	%edx, LPBX1+140	 # PROF_edge_counter.5, *LPBX1
 178      0000
 179              		.loc 1 128 0
 180 0166 837C2430 		cmpl	$0, 48(%esp)	 #, heapp
 180      00
 181 016b 7524     		jne	L6	 #,
 182              		.loc 1 129 0
 183 016d C7442430 		movl	$_default_heap, 48(%esp)	 #, heapp
 183      00000000 
 184 0175 A1D00000 		movl	LPBX1+144, %eax	 # *LPBX1, PROF_edge_counter.5
 184      00
 185 017a 8B15D400 		movl	LPBX1+148, %edx	 # *LPBX1, PROF_edge_counter.5
GAS LISTING C:\cygwin\tmp\ccFG3RbS.s 			page 5


 185      0000
 186 0180 83C001   		addl	$1, %eax	 #, PROF_edge_counter.5
 187 0183 83D200   		adcl	$0, %edx	 #, PROF_edge_counter.5
 188 0186 A3D00000 		movl	%eax, LPBX1+144	 # PROF_edge_counter.5, *LPBX1
 188      00
 189 018b 8915D400 		movl	%edx, LPBX1+148	 # PROF_edge_counter.5, *LPBX1
 189      0000
 190              	L6:
 191              		.loc 1 131 0
 192 0191 8B442434 		movl	52(%esp), %eax	 # size, tmp98
 193 0195 83C00F   		addl	$15, %eax	 #, D.2809
 194 0198 83E0F0   		andl	$-16, %eax	 #, tmp99
 195 019b 89442434 		movl	%eax, 52(%esp)	 # tmp99, size
 196              		.loc 1 132 0
 197 019f 8B442430 		movl	48(%esp), %eax	 # heapp, tmp101
 198 01a3 83C010   		addl	$16, %eax	 #, tmp100
 199 01a6 8944241C 		movl	%eax, 28(%esp)	 # tmp100, qp
 200              		.loc 1 133 0
 201 01aa 8B442430 		movl	48(%esp), %eax	 # heapp, tmp102
 202 01ae 83C020   		addl	$32, %eax	 #, D.2810
 203 01b1 890424   		movl	%eax, (%esp)	 # D.2810,
 204 01b4 E8000000 		call	_chMtxLock	 #
 204      00
 205              		.loc 1 135 0
 206 01b9 E9130100 		jmp	L7	 #
 206      00
 207              	L12:
 208 01be A1F00000 		movl	LPBX1+176, %eax	 # *LPBX1, PROF_edge_counter.5
 208      00
 209 01c3 8B15F400 		movl	LPBX1+180, %edx	 # *LPBX1, PROF_edge_counter.5
 209      0000
 210 01c9 83C001   		addl	$1, %eax	 #, PROF_edge_counter.5
 211 01cc 83D200   		adcl	$0, %edx	 #, PROF_edge_counter.5
 212 01cf A3F00000 		movl	%eax, LPBX1+176	 # PROF_edge_counter.5, *LPBX1
 212      00
 213 01d4 8915F400 		movl	%edx, LPBX1+180	 # PROF_edge_counter.5, *LPBX1
 213      0000
 214              		.loc 1 136 0
 215 01da 8B44241C 		movl	28(%esp), %eax	 # qp, tmp103
 216 01de 8B00     		movl	(%eax), %eax	 # qp_2->h.u.next, tmp104
 217 01e0 89442418 		movl	%eax, 24(%esp)	 # tmp104, hp
 218              		.loc 1 137 0
 219 01e4 8B442418 		movl	24(%esp), %eax	 # hp, tmp105
 220 01e8 8B4004   		movl	4(%eax), %eax	 # hp_12->h.size, D.2811
 221 01eb 3B442434 		cmpl	52(%esp), %eax	 # size, D.2811
 222 01ef 0F82B800 		jb	L8	 #,
 222      0000
 223              		.loc 1 138 0
 224 01f5 8B442418 		movl	24(%esp), %eax	 # hp, tmp106
 225 01f9 8B4004   		movl	4(%eax), %eax	 # hp_12->h.size, D.2814
 226 01fc 8B542434 		movl	52(%esp), %edx	 # size, tmp107
 227 0200 83C210   		addl	$16, %edx	 #, D.2815
 228 0203 39D0     		cmpl	%edx, %eax	 # D.2815, D.2814
 229 0205 730E     		jae	L9	 #,
 230              		.loc 1 142 0
 231 0207 8B442418 		movl	24(%esp), %eax	 # hp, tmp108
 232 020b 8B10     		movl	(%eax), %edx	 # hp_12->h.u.next, D.2818
GAS LISTING C:\cygwin\tmp\ccFG3RbS.s 			page 6


 233 020d 8B44241C 		movl	28(%esp), %eax	 # qp, tmp109
 234 0211 8910     		movl	%edx, (%eax)	 # D.2818, qp_2->h.u.next
 235 0213 EB61     		jmp	L10	 #
 236              	L9:
 237              		.loc 1 146 0
 238 0215 8B442434 		movl	52(%esp), %eax	 # size, tmp110
 239 0219 83C010   		addl	$16, %eax	 #, D.2820
 240 021c 03442418 		addl	24(%esp), %eax	 # hp, tmp111
 241 0220 89442414 		movl	%eax, 20(%esp)	 # tmp111, fp
 242              		.loc 1 147 0
 243 0224 8B442418 		movl	24(%esp), %eax	 # hp, tmp112
 244 0228 8B10     		movl	(%eax), %edx	 # hp_12->h.u.next, D.2821
 245 022a 8B442414 		movl	20(%esp), %eax	 # fp, tmp113
 246 022e 8910     		movl	%edx, (%eax)	 # D.2821, fp_18->h.u.next
 247              		.loc 1 148 0
 248 0230 8B442418 		movl	24(%esp), %eax	 # hp, tmp114
 249 0234 8B4004   		movl	4(%eax), %eax	 # hp_12->h.size, D.2822
 250 0237 2B442434 		subl	52(%esp), %eax	 # size, D.2823
 251 023b 8D50F0   		leal	-16(%eax), %edx	 #, D.2824
 252 023e 8B442414 		movl	20(%esp), %eax	 # fp, tmp115
 253 0242 895004   		movl	%edx, 4(%eax)	 # D.2824, fp_18->h.size
 254              		.loc 1 149 0
 255 0245 8B44241C 		movl	28(%esp), %eax	 # qp, tmp116
 256 0249 8B542414 		movl	20(%esp), %edx	 # fp, tmp117
 257 024d 8910     		movl	%edx, (%eax)	 # tmp117, qp_2->h.u.next
 258              		.loc 1 150 0
 259 024f 8B442418 		movl	24(%esp), %eax	 # hp, tmp118
 260 0253 8B542434 		movl	52(%esp), %edx	 # size, tmp119
 261 0257 895004   		movl	%edx, 4(%eax)	 # tmp119, hp_12->h.size
 262 025a A1D80000 		movl	LPBX1+152, %eax	 # *LPBX1, PROF_edge_counter.5
 262      00
 263 025f 8B15DC00 		movl	LPBX1+156, %edx	 # *LPBX1, PROF_edge_counter.5
 263      0000
 264 0265 83C001   		addl	$1, %eax	 #, PROF_edge_counter.5
 265 0268 83D200   		adcl	$0, %edx	 #, PROF_edge_counter.5
 266 026b A3D80000 		movl	%eax, LPBX1+152	 # PROF_edge_counter.5, *LPBX1
 266      00
 267 0270 8915DC00 		movl	%edx, LPBX1+156	 # PROF_edge_counter.5, *LPBX1
 267      0000
 268              	L10:
 269              		.loc 1 152 0
 270 0276 8B442418 		movl	24(%esp), %eax	 # hp, tmp120
 271 027a 8B542430 		movl	48(%esp), %edx	 # heapp, tmp121
 272 027e 8910     		movl	%edx, (%eax)	 # tmp121, hp_12->h.u.heap
 273              		.loc 1 154 0
 274 0280 E8000000 		call	_chMtxUnlock	 #
 274      00
 275              		.loc 1 155 0
 276 0285 8B442418 		movl	24(%esp), %eax	 # hp, tmp122
 277 0289 8D4810   		leal	16(%eax), %ecx	 #, D.2825
 278 028c A1E00000 		movl	LPBX1+160, %eax	 # *LPBX1, PROF_edge_counter.5
 278      00
 279 0291 8B15E400 		movl	LPBX1+164, %edx	 # *LPBX1, PROF_edge_counter.5
 279      0000
 280 0297 83C001   		addl	$1, %eax	 #, PROF_edge_counter.5
 281 029a 83D200   		adcl	$0, %edx	 #, PROF_edge_counter.5
 282 029d A3E00000 		movl	%eax, LPBX1+160	 # PROF_edge_counter.5, *LPBX1
GAS LISTING C:\cygwin\tmp\ccFG3RbS.s 			page 7


 282      00
 283 02a2 8915E400 		movl	%edx, LPBX1+164	 # PROF_edge_counter.5, *LPBX1
 283      0000
 284 02a8 E9130100 		jmp	L11	 #
 284      00
 285              	L8:
 286              		.loc 1 157 0
 287 02ad 8B442418 		movl	24(%esp), %eax	 # hp, tmp123
 288 02b1 8944241C 		movl	%eax, 28(%esp)	 # tmp123, qp
 289 02b5 A1E80000 		movl	LPBX1+168, %eax	 # *LPBX1, PROF_edge_counter.5
 289      00
 290 02ba 8B15EC00 		movl	LPBX1+172, %edx	 # *LPBX1, PROF_edge_counter.5
 290      0000
 291 02c0 83C001   		addl	$1, %eax	 #, PROF_edge_counter.5
 292 02c3 83D200   		adcl	$0, %edx	 #, PROF_edge_counter.5
 293 02c6 A3E80000 		movl	%eax, LPBX1+168	 # PROF_edge_counter.5, *LPBX1
 293      00
 294 02cb 8915EC00 		movl	%edx, LPBX1+172	 # PROF_edge_counter.5, *LPBX1
 294      0000
 295              	L7:
 296              		.loc 1 135 0 discriminator 1
 297 02d1 8B44241C 		movl	28(%esp), %eax	 # qp, tmp124
 298 02d5 8B00     		movl	(%eax), %eax	 # qp_2->h.u.next, D.2826
 299 02d7 85C0     		testl	%eax, %eax	 # D.2826
 300 02d9 0F85DFFE 		jne	L12	 #,
 300      FFFF
 301              		.loc 1 135 0 is_stmt 0
 302 02df A1F80000 		movl	LPBX1+184, %eax	 # *LPBX1, PROF_edge_counter.5
 302      00
 303 02e4 8B15FC00 		movl	LPBX1+188, %edx	 # *LPBX1, PROF_edge_counter.5
 303      0000
 304 02ea 83C001   		addl	$1, %eax	 #, PROF_edge_counter.5
 305 02ed 83D200   		adcl	$0, %edx	 #, PROF_edge_counter.5
 306 02f0 A3F80000 		movl	%eax, LPBX1+184	 # PROF_edge_counter.5, *LPBX1
 306      00
 307 02f5 8915FC00 		movl	%edx, LPBX1+188	 # PROF_edge_counter.5, *LPBX1
 307      0000
 308              		.loc 1 160 0 is_stmt 1
 309 02fb E8000000 		call	_chMtxUnlock	 #
 309      00
 310              		.loc 1 164 0
 311 0300 8B442430 		movl	48(%esp), %eax	 # heapp, tmp125
 312 0304 8B00     		movl	(%eax), %eax	 # heapp_1->h_provider, D.2827
 313 0306 85C0     		testl	%eax, %eax	 # D.2827
 314 0308 0F849100 		je	L13	 #,
 314      0000
 315 030e A1000100 		movl	LPBX1+192, %eax	 # *LPBX1, PROF_edge_counter.5
 315      00
 316 0313 8B150401 		movl	LPBX1+196, %edx	 # *LPBX1, PROF_edge_counter.5
 316      0000
 317 0319 83C001   		addl	$1, %eax	 #, PROF_edge_counter.5
 318 031c 83D200   		adcl	$0, %edx	 #, PROF_edge_counter.5
 319 031f A3000100 		movl	%eax, LPBX1+192	 # PROF_edge_counter.5, *LPBX1
 319      00
 320 0324 89150401 		movl	%edx, LPBX1+196	 # PROF_edge_counter.5, *LPBX1
 320      0000
 321              		.loc 1 165 0
GAS LISTING C:\cygwin\tmp\ccFG3RbS.s 			page 8


 322 032a 8B442430 		movl	48(%esp), %eax	 # heapp, tmp126
 323 032e 8B00     		movl	(%eax), %eax	 # heapp_1->h_provider, D.2830
 324 0330 8B542434 		movl	52(%esp), %edx	 # size, tmp127
 325 0334 83C210   		addl	$16, %edx	 #, D.2831
 326 0337 891424   		movl	%edx, (%esp)	 # D.2831,
 327 033a FFD0     		call	*%eax	 # D.2830
 328 033c 89442418 		movl	%eax, 24(%esp)	 # tmp128, hp
 329 0340 A1080100 		movl	LPBX1+200, %eax	 # *LPBX1, PROF_edge_counter.5
 329      00
 330 0345 8B150C01 		movl	LPBX1+204, %edx	 # *LPBX1, PROF_edge_counter.5
 330      0000
 331 034b 83C001   		addl	$1, %eax	 #, PROF_edge_counter.5
 332 034e 83D200   		adcl	$0, %edx	 #, PROF_edge_counter.5
 333 0351 A3080100 		movl	%eax, LPBX1+200	 # PROF_edge_counter.5, *LPBX1
 333      00
 334 0356 89150C01 		movl	%edx, LPBX1+204	 # PROF_edge_counter.5, *LPBX1
 334      0000
 335              		.loc 1 166 0
 336 035c 837C2418 		cmpl	$0, 24(%esp)	 #, hp
 336      00
 337 0361 743C     		je	L13	 #,
 338              		.loc 1 167 0
 339 0363 8B442418 		movl	24(%esp), %eax	 # hp, tmp129
 340 0367 8B542430 		movl	48(%esp), %edx	 # heapp, tmp130
 341 036b 8910     		movl	%edx, (%eax)	 # tmp130, hp_28->h.u.heap
 342              		.loc 1 168 0
 343 036d 8B442418 		movl	24(%esp), %eax	 # hp, tmp131
 344 0371 8B542434 		movl	52(%esp), %edx	 # size, tmp132
 345 0375 895004   		movl	%edx, 4(%eax)	 # tmp132, hp_28->h.size
 346              		.loc 1 169 0
 347 0378 83442418 		addl	$16, 24(%esp)	 #, hp
 347      10
 348              		.loc 1 170 0
 349 037d 8B4C2418 		movl	24(%esp), %ecx	 # hp, D.2825
 350 0381 A1100100 		movl	LPBX1+208, %eax	 # *LPBX1, PROF_edge_counter.5
 350      00
 351 0386 8B151401 		movl	LPBX1+212, %edx	 # *LPBX1, PROF_edge_counter.5
 351      0000
 352 038c 83C001   		addl	$1, %eax	 #, PROF_edge_counter.5
 353 038f 83D200   		adcl	$0, %edx	 #, PROF_edge_counter.5
 354 0392 A3100100 		movl	%eax, LPBX1+208	 # PROF_edge_counter.5, *LPBX1
 354      00
 355 0397 89151401 		movl	%edx, LPBX1+212	 # PROF_edge_counter.5, *LPBX1
 355      0000
 356 039d EB21     		jmp	L11	 #
 357              	L13:
 358              		.loc 1 173 0
 359 039f B9000000 		movl	$0, %ecx	 #, D.2825
 359      00
 360 03a4 A1180100 		movl	LPBX1+216, %eax	 # *LPBX1, PROF_edge_counter.5
 360      00
 361 03a9 8B151C01 		movl	LPBX1+220, %edx	 # *LPBX1, PROF_edge_counter.5
 361      0000
 362 03af 83C001   		addl	$1, %eax	 #, PROF_edge_counter.5
 363 03b2 83D200   		adcl	$0, %edx	 #, PROF_edge_counter.5
 364 03b5 A3180100 		movl	%eax, LPBX1+216	 # PROF_edge_counter.5, *LPBX1
 364      00
GAS LISTING C:\cygwin\tmp\ccFG3RbS.s 			page 9


 365 03ba 89151C01 		movl	%edx, LPBX1+220	 # PROF_edge_counter.5, *LPBX1
 365      0000
 366              	L11:
 367 03c0 89C8     		movl	%ecx, %eax	 # D.2825, <retval>
 368              		.loc 1 174 0
 369 03c2 83C42C   		addl	$44, %esp	 #,
 370              	LCFI5:
 371              		.cfi_def_cfa_offset 4
 372 03c5 C3       		ret
 373              		.cfi_endproc
 374              	LFE2:
 375              		.globl	_chHeapFree
 376              		.def	_chHeapFree;	.scl	2;	.type	32;	.endef
 377              	_chHeapFree:
 378              	LFB3:
 379              		.loc 1 187 0
 380              		.cfi_startproc
 381 03c6 83EC2C   		subl	$44, %esp	 #,
 382              	LCFI6:
 383              		.cfi_def_cfa_offset 48
 384              		.loc 1 187 0
 385 03c9 A1700000 		movl	LPBX1+48, %eax	 # *LPBX1, PROF_edge_counter.4
 385      00
 386 03ce 8B157400 		movl	LPBX1+52, %edx	 # *LPBX1, PROF_edge_counter.4
 386      0000
 387 03d4 83C001   		addl	$1, %eax	 #, PROF_edge_counter.4
 388 03d7 83D200   		adcl	$0, %edx	 #, PROF_edge_counter.4
 389 03da A3700000 		movl	%eax, LPBX1+48	 # PROF_edge_counter.4, *LPBX1
 389      00
 390 03df 89157400 		movl	%edx, LPBX1+52	 # PROF_edge_counter.4, *LPBX1
 390      0000
 391              		.loc 1 193 0
 392 03e5 8B442430 		movl	48(%esp), %eax	 # p, tmp111
 393 03e9 83E810   		subl	$16, %eax	 #, tmp110
 394 03ec 89442418 		movl	%eax, 24(%esp)	 # tmp110, hp
 395              		.loc 1 194 0
 396 03f0 8B442418 		movl	24(%esp), %eax	 # hp, tmp112
 397 03f4 8B00     		movl	(%eax), %eax	 # hp_3->h.u.heap, tmp113
 398 03f6 89442414 		movl	%eax, 20(%esp)	 # tmp113, heapp
 399              		.loc 1 195 0
 400 03fa 8B442414 		movl	20(%esp), %eax	 # heapp, tmp115
 401 03fe 83C010   		addl	$16, %eax	 #, tmp114
 402 0401 8944241C 		movl	%eax, 28(%esp)	 # tmp114, qp
 403              		.loc 1 196 0
 404 0405 8B442414 		movl	20(%esp), %eax	 # heapp, tmp116
 405 0409 83C020   		addl	$32, %eax	 #, D.2765
 406 040c 890424   		movl	%eax, (%esp)	 # D.2765,
 407 040f E8000000 		call	_chMtxLock	 #
 407      00
 408              	L25:
 409              		.loc 1 187 0
 410 0414 8B442418 		movl	24(%esp), %eax	 # hp, tmp117
 411 0418 3B44241C 		cmpl	28(%esp), %eax	 # qp, tmp117
 412 041c 724E     		jb	L26	 #,
 413 041e A1780000 		movl	LPBX1+56, %eax	 # *LPBX1, PROF_edge_counter.4
 413      00
 414 0423 8B157C00 		movl	LPBX1+60, %edx	 # *LPBX1, PROF_edge_counter.4
GAS LISTING C:\cygwin\tmp\ccFG3RbS.s 			page 10


 414      0000
 415 0429 83C001   		addl	$1, %eax	 #, PROF_edge_counter.4
 416 042c 83D200   		adcl	$0, %edx	 #, PROF_edge_counter.4
 417 042f A3780000 		movl	%eax, LPBX1+56	 # PROF_edge_counter.4, *LPBX1
 417      00
 418 0434 89157C00 		movl	%edx, LPBX1+60	 # PROF_edge_counter.4, *LPBX1
 418      0000
 419              		.loc 1 199 0
 420 043a 8B44241C 		movl	28(%esp), %eax	 # qp, tmp118
 421 043e 8B4004   		movl	4(%eax), %eax	 # qp_1->h.size, D.2771
 422 0441 83C010   		addl	$16, %eax	 #, D.2772
 423 0444 0344241C 		addl	28(%esp), %eax	 # qp, D.2773
 424 0448 3B442418 		cmpl	24(%esp), %eax	 # hp, D.2773
 425 044c 761E     		jbe	L26	 #,
 426              	L16:
 427              		.loc 1 187 0
 428 044e A1800000 		movl	LPBX1+64, %eax	 # *LPBX1, PROF_edge_counter.4
 428      00
 429 0453 8B158400 		movl	LPBX1+68, %edx	 # *LPBX1, PROF_edge_counter.4
 429      0000
 430 0459 83C001   		addl	$1, %eax	 #, PROF_edge_counter.4
 431 045c 83D200   		adcl	$0, %edx	 #, PROF_edge_counter.4
 432 045f A3800000 		movl	%eax, LPBX1+64	 # PROF_edge_counter.4, *LPBX1
 432      00
 433 0464 89158400 		movl	%edx, LPBX1+68	 # PROF_edge_counter.4, *LPBX1
 433      0000
 434 046a EB01     		jmp	L17	 #
 435              	L26:
 436 046c 90       		nop
 437              	L17:
 438              		.loc 1 203 0
 439 046d 8B442414 		movl	20(%esp), %eax	 # heapp, tmp119
 440 0471 83C010   		addl	$16, %eax	 #, D.2777
 441 0474 3B44241C 		cmpl	28(%esp), %eax	 # qp, D.2777
 442 0478 742A     		je	L18	 #,
 443              		.loc 1 203 0 is_stmt 0 discriminator 2
 444 047a A1880000 		movl	LPBX1+72, %eax	 # *LPBX1, PROF_edge_counter.4
 444      00
 445 047f 8B158C00 		movl	LPBX1+76, %edx	 # *LPBX1, PROF_edge_counter.4
 445      0000
 446 0485 83C001   		addl	$1, %eax	 #, PROF_edge_counter.4
 447 0488 83D200   		adcl	$0, %edx	 #, PROF_edge_counter.4
 448 048b A3880000 		movl	%eax, LPBX1+72	 # PROF_edge_counter.4, *LPBX1
 448      00
 449 0490 89158C00 		movl	%edx, LPBX1+76	 # PROF_edge_counter.4, *LPBX1
 449      0000
 450 0496 8B442418 		movl	24(%esp), %eax	 # hp, tmp120
 451 049a 3B44241C 		cmpl	28(%esp), %eax	 # qp, tmp120
 452 049e 0F862401 		jbe	L19	 #,
 452      0000
 453              	L18:
 454              		.loc 1 204 0 is_stmt 1 discriminator 1
 455 04a4 8B44241C 		movl	28(%esp), %eax	 # qp, tmp121
 456 04a8 8B00     		movl	(%eax), %eax	 # qp_1->h.u.next, D.2779
 457              		.loc 1 203 0 discriminator 1
 458 04aa 85C0     		testl	%eax, %eax	 # D.2779
 459 04ac 742C     		je	L20	 #,
GAS LISTING C:\cygwin\tmp\ccFG3RbS.s 			page 11


 460              		.loc 1 203 0 is_stmt 0
 461 04ae A1900000 		movl	LPBX1+80, %eax	 # *LPBX1, PROF_edge_counter.4
 461      00
 462 04b3 8B159400 		movl	LPBX1+84, %edx	 # *LPBX1, PROF_edge_counter.4
 462      0000
 463 04b9 83C001   		addl	$1, %eax	 #, PROF_edge_counter.4
 464 04bc 83D200   		adcl	$0, %edx	 #, PROF_edge_counter.4
 465 04bf A3900000 		movl	%eax, LPBX1+80	 # PROF_edge_counter.4, *LPBX1
 465      00
 466 04c4 89159400 		movl	%edx, LPBX1+84	 # PROF_edge_counter.4, *LPBX1
 466      0000
 467              		.loc 1 204 0 is_stmt 1
 468 04ca 8B44241C 		movl	28(%esp), %eax	 # qp, tmp122
 469 04ce 8B00     		movl	(%eax), %eax	 # qp_1->h.u.next, D.2781
 470 04d0 3B442418 		cmpl	24(%esp), %eax	 # hp, D.2781
 471 04d4 0F86D200 		jbe	L21	 #,
 471      0000
 472              	L20:
 473              		.loc 1 206 0
 474 04da 8B44241C 		movl	28(%esp), %eax	 # qp, tmp123
 475 04de 8B10     		movl	(%eax), %edx	 # qp_1->h.u.next, D.2782
 476 04e0 8B442418 		movl	24(%esp), %eax	 # hp, tmp124
 477 04e4 8910     		movl	%edx, (%eax)	 # D.2782, hp_3->h.u.next
 478              		.loc 1 207 0
 479 04e6 8B44241C 		movl	28(%esp), %eax	 # qp, tmp125
 480 04ea 8B542418 		movl	24(%esp), %edx	 # hp, tmp126
 481 04ee 8910     		movl	%edx, (%eax)	 # tmp126, qp_1->h.u.next
 482              		.loc 1 209 0
 483 04f0 8B442418 		movl	24(%esp), %eax	 # hp, tmp127
 484 04f4 8B4004   		movl	4(%eax), %eax	 # hp_3->h.size, D.2783
 485 04f7 83C010   		addl	$16, %eax	 #, D.2784
 486 04fa 89C2     		movl	%eax, %edx	 # D.2784, D.2785
 487 04fc 03542418 		addl	24(%esp), %edx	 # hp, D.2785
 488 0500 8B442418 		movl	24(%esp), %eax	 # hp, tmp128
 489 0504 8B00     		movl	(%eax), %eax	 # hp_3->h.u.next, D.2786
 490 0506 39C2     		cmpl	%eax, %edx	 # D.2786, D.2785
 491 0508 7546     		jne	L22	 #,
 492              		.loc 1 211 0
 493 050a 8B442418 		movl	24(%esp), %eax	 # hp, tmp129
 494 050e 8B5004   		movl	4(%eax), %edx	 # hp_3->h.size, D.2789
 495 0511 8B442418 		movl	24(%esp), %eax	 # hp, tmp130
 496 0515 8B00     		movl	(%eax), %eax	 # hp_3->h.u.next, D.2790
 497 0517 8B4004   		movl	4(%eax), %eax	 # D.2790_21->h.size, D.2791
 498 051a 01D0     		addl	%edx, %eax	 # D.2789, D.2792
 499 051c 8D5010   		leal	16(%eax), %edx	 #, D.2793
 500 051f 8B442418 		movl	24(%esp), %eax	 # hp, tmp131
 501 0523 895004   		movl	%edx, 4(%eax)	 # D.2793, hp_3->h.size
 502              		.loc 1 212 0
 503 0526 8B442418 		movl	24(%esp), %eax	 # hp, tmp132
 504 052a 8B00     		movl	(%eax), %eax	 # hp_3->h.u.next, D.2794
 505 052c 8B10     		movl	(%eax), %edx	 # D.2794_25->h.u.next, D.2795
 506 052e 8B442418 		movl	24(%esp), %eax	 # hp, tmp133
 507 0532 8910     		movl	%edx, (%eax)	 # D.2795, hp_3->h.u.next
 508 0534 A1A00000 		movl	LPBX1+96, %eax	 # *LPBX1, PROF_edge_counter.4
 508      00
 509 0539 8B15A400 		movl	LPBX1+100, %edx	 # *LPBX1, PROF_edge_counter.4
 509      0000
GAS LISTING C:\cygwin\tmp\ccFG3RbS.s 			page 12


 510 053f 83C001   		addl	$1, %eax	 #, PROF_edge_counter.4
 511 0542 83D200   		adcl	$0, %edx	 #, PROF_edge_counter.4
 512 0545 A3A00000 		movl	%eax, LPBX1+96	 # PROF_edge_counter.4, *LPBX1
 512      00
 513 054a 8915A400 		movl	%edx, LPBX1+100	 # PROF_edge_counter.4, *LPBX1
 513      0000
 514              	L22:
 515              		.loc 1 214 0
 516 0550 8B44241C 		movl	28(%esp), %eax	 # qp, tmp134
 517 0554 8B4004   		movl	4(%eax), %eax	 # qp_1->h.size, D.2796
 518 0557 83C010   		addl	$16, %eax	 #, D.2797
 519 055a 0344241C 		addl	28(%esp), %eax	 # qp, D.2798
 520 055e 3B442418 		cmpl	24(%esp), %eax	 # hp, D.2798
 521 0562 0F858B00 		jne	L27	 #,
 521      0000
 522              		.loc 1 216 0
 523 0568 8B44241C 		movl	28(%esp), %eax	 # qp, tmp135
 524 056c 8B5004   		movl	4(%eax), %edx	 # qp_1->h.size, D.2801
 525 056f 8B442418 		movl	24(%esp), %eax	 # hp, tmp136
 526 0573 8B4004   		movl	4(%eax), %eax	 # hp_3->h.size, D.2802
 527 0576 01D0     		addl	%edx, %eax	 # D.2801, D.2803
 528 0578 8D5010   		leal	16(%eax), %edx	 #, D.2804
 529 057b 8B44241C 		movl	28(%esp), %eax	 # qp, tmp137
 530 057f 895004   		movl	%edx, 4(%eax)	 # D.2804, qp_1->h.size
 531              		.loc 1 217 0
 532 0582 8B442418 		movl	24(%esp), %eax	 # hp, tmp138
 533 0586 8B10     		movl	(%eax), %edx	 # hp_3->h.u.next, D.2805
 534 0588 8B44241C 		movl	28(%esp), %eax	 # qp, tmp139
 535 058c 8910     		movl	%edx, (%eax)	 # D.2805, qp_1->h.u.next
 536 058e A1A80000 		movl	LPBX1+104, %eax	 # *LPBX1, PROF_edge_counter.4
 536      00
 537 0593 8B15AC00 		movl	LPBX1+108, %edx	 # *LPBX1, PROF_edge_counter.4
 537      0000
 538 0599 83C001   		addl	$1, %eax	 #, PROF_edge_counter.4
 539 059c 83D200   		adcl	$0, %edx	 #, PROF_edge_counter.4
 540 059f A3A80000 		movl	%eax, LPBX1+104	 # PROF_edge_counter.4, *LPBX1
 540      00
 541 05a4 8915AC00 		movl	%edx, LPBX1+108	 # PROF_edge_counter.4, *LPBX1
 541      0000
 542              		.loc 1 219 0
 543 05aa EB47     		jmp	L27	 #
 544              	L21:
 545 05ac A1980000 		movl	LPBX1+88, %eax	 # *LPBX1, PROF_edge_counter.4
 545      00
 546 05b1 8B159C00 		movl	LPBX1+92, %edx	 # *LPBX1, PROF_edge_counter.4
 546      0000
 547 05b7 83C001   		addl	$1, %eax	 #, PROF_edge_counter.4
 548 05ba 83D200   		adcl	$0, %edx	 #, PROF_edge_counter.4
 549 05bd A3980000 		movl	%eax, LPBX1+88	 # PROF_edge_counter.4, *LPBX1
 549      00
 550 05c2 89159C00 		movl	%edx, LPBX1+92	 # PROF_edge_counter.4, *LPBX1
 550      0000
 551              	L19:
 552              		.loc 1 221 0
 553 05c8 8B44241C 		movl	28(%esp), %eax	 # qp, tmp140
 554 05cc 8B00     		movl	(%eax), %eax	 # qp_1->h.u.next, tmp141
 555 05ce 8944241C 		movl	%eax, 28(%esp)	 # tmp141, qp
GAS LISTING C:\cygwin\tmp\ccFG3RbS.s 			page 13


 556 05d2 A1B80000 		movl	LPBX1+120, %eax	 # *LPBX1, PROF_edge_counter.4
 556      00
 557 05d7 8B15BC00 		movl	LPBX1+124, %edx	 # *LPBX1, PROF_edge_counter.4
 557      0000
 558 05dd 83C001   		addl	$1, %eax	 #, PROF_edge_counter.4
 559 05e0 83D200   		adcl	$0, %edx	 #, PROF_edge_counter.4
 560 05e3 A3B80000 		movl	%eax, LPBX1+120	 # PROF_edge_counter.4, *LPBX1
 560      00
 561 05e8 8915BC00 		movl	%edx, LPBX1+124	 # PROF_edge_counter.4, *LPBX1
 561      0000
 562              		.loc 1 222 0
 563 05ee E921FEFF 		jmp	L25	 #
 563      FF
 564              	L27:
 565              		.loc 1 219 0
 566 05f3 90       		nop
 567              	L24:
 568              		.loc 1 222 0
 569 05f4 A1B00000 		movl	LPBX1+112, %eax	 # *LPBX1, PROF_edge_counter.4
 569      00
 570 05f9 8B15B400 		movl	LPBX1+116, %edx	 # *LPBX1, PROF_edge_counter.4
 570      0000
 571 05ff 83C001   		addl	$1, %eax	 #, PROF_edge_counter.4
 572 0602 83D200   		adcl	$0, %edx	 #, PROF_edge_counter.4
 573 0605 A3B00000 		movl	%eax, LPBX1+112	 # PROF_edge_counter.4, *LPBX1
 573      00
 574 060a 8915B400 		movl	%edx, LPBX1+116	 # PROF_edge_counter.4, *LPBX1
 574      0000
 575              		.loc 1 224 0
 576 0610 E8000000 		call	_chMtxUnlock	 #
 576      00
 577 0615 A1C00000 		movl	LPBX1+128, %eax	 # *LPBX1, PROF_edge_counter.4
 577      00
 578 061a 8B15C400 		movl	LPBX1+132, %edx	 # *LPBX1, PROF_edge_counter.4
 578      0000
 579 0620 83C001   		addl	$1, %eax	 #, PROF_edge_counter.4
 580 0623 83D200   		adcl	$0, %edx	 #, PROF_edge_counter.4
 581 0626 A3C00000 		movl	%eax, LPBX1+128	 # PROF_edge_counter.4, *LPBX1
 581      00
 582 062b 8915C400 		movl	%edx, LPBX1+132	 # PROF_edge_counter.4, *LPBX1
 582      0000
 583              		.loc 1 226 0
 584 0631 83C42C   		addl	$44, %esp	 #,
 585              	LCFI7:
 586              		.cfi_def_cfa_offset 4
 587 0634 C3       		ret
 588              		.cfi_endproc
 589              	LFE3:
 590              		.globl	_chHeapStatus
 591              		.def	_chHeapStatus;	.scl	2;	.type	32;	.endef
 592              	_chHeapStatus:
 593              	LFB4:
 594              		.loc 1 243 0
 595              		.cfi_startproc
 596 0635 83EC2C   		subl	$44, %esp	 #,
 597              	LCFI8:
 598              		.cfi_def_cfa_offset 48
GAS LISTING C:\cygwin\tmp\ccFG3RbS.s 			page 14


 599              		.loc 1 243 0
 600 0638 A1400000 		movl	LPBX1, %eax	 # *LPBX1, PROF_edge_counter.3
 600      00
 601 063d 8B154400 		movl	LPBX1+4, %edx	 # *LPBX1, PROF_edge_counter.3
 601      0000
 602 0643 83C001   		addl	$1, %eax	 #, PROF_edge_counter.3
 603 0646 83D200   		adcl	$0, %edx	 #, PROF_edge_counter.3
 604 0649 A3400000 		movl	%eax, LPBX1	 # PROF_edge_counter.3, *LPBX1
 604      00
 605 064e 89154400 		movl	%edx, LPBX1+4	 # PROF_edge_counter.3, *LPBX1
 605      0000
 606              		.loc 1 247 0
 607 0654 837C2430 		cmpl	$0, 48(%esp)	 #, heapp
 607      00
 608 0659 7524     		jne	L29	 #,
 609              		.loc 1 248 0
 610 065b C7442430 		movl	$_default_heap, 48(%esp)	 #, heapp
 610      00000000 
 611 0663 A1480000 		movl	LPBX1+8, %eax	 # *LPBX1, PROF_edge_counter.3
 611      00
 612 0668 8B154C00 		movl	LPBX1+12, %edx	 # *LPBX1, PROF_edge_counter.3
 612      0000
 613 066e 83C001   		addl	$1, %eax	 #, PROF_edge_counter.3
 614 0671 83D200   		adcl	$0, %edx	 #, PROF_edge_counter.3
 615 0674 A3480000 		movl	%eax, LPBX1+8	 # PROF_edge_counter.3, *LPBX1
 615      00
 616 0679 89154C00 		movl	%edx, LPBX1+12	 # PROF_edge_counter.3, *LPBX1
 616      0000
 617              	L29:
 618              		.loc 1 250 0
 619 067f 8B442430 		movl	48(%esp), %eax	 # heapp, tmp77
 620 0683 83C020   		addl	$32, %eax	 #, D.2754
 621 0686 890424   		movl	%eax, (%esp)	 # D.2754,
 622 0689 E8000000 		call	_chMtxLock	 #
 622      00
 623              		.loc 1 252 0
 624 068e C7442414 		movl	$0, 20(%esp)	 #, sz
 624      00000000 
 625              		.loc 1 253 0
 626 0696 C7442418 		movl	$0, 24(%esp)	 #, n
 626      00000000 
 627 069e 8B442430 		movl	48(%esp), %eax	 # heapp, tmp79
 628 06a2 83C010   		addl	$16, %eax	 #, tmp78
 629 06a5 8944241C 		movl	%eax, 28(%esp)	 # tmp78, qp
 630 06a9 EB37     		jmp	L30	 #
 631              	L31:
 632              		.loc 1 253 0 is_stmt 0 discriminator 2
 633 06ab A1500000 		movl	LPBX1+16, %eax	 # *LPBX1, PROF_edge_counter.3
 633      00
 634 06b0 8B155400 		movl	LPBX1+20, %edx	 # *LPBX1, PROF_edge_counter.3
 634      0000
 635 06b6 83C001   		addl	$1, %eax	 #, PROF_edge_counter.3
 636 06b9 83D200   		adcl	$0, %edx	 #, PROF_edge_counter.3
 637 06bc A3500000 		movl	%eax, LPBX1+16	 # PROF_edge_counter.3, *LPBX1
 637      00
 638 06c1 89155400 		movl	%edx, LPBX1+20	 # PROF_edge_counter.3, *LPBX1
 638      0000
GAS LISTING C:\cygwin\tmp\ccFG3RbS.s 			page 15


 639              		.loc 1 254 0 is_stmt 1 discriminator 2
 640 06c7 8B44241C 		movl	28(%esp), %eax	 # qp, tmp80
 641 06cb 8B00     		movl	(%eax), %eax	 # qp_2->h.u.next, D.2755
 642 06cd 8B4004   		movl	4(%eax), %eax	 # D.2755_12->h.size, D.2756
 643 06d0 01442414 		addl	%eax, 20(%esp)	 # D.2756, sz
 644              		.loc 1 253 0 discriminator 2
 645 06d4 FF442418 		incl	24(%esp)	 # n
 646 06d8 8B44241C 		movl	28(%esp), %eax	 # qp, tmp81
 647 06dc 8B00     		movl	(%eax), %eax	 # qp_2->h.u.next, tmp82
 648 06de 8944241C 		movl	%eax, 28(%esp)	 # tmp82, qp
 649              	L30:
 650              		.loc 1 253 0 is_stmt 0 discriminator 1
 651 06e2 8B44241C 		movl	28(%esp), %eax	 # qp, tmp83
 652 06e6 8B00     		movl	(%eax), %eax	 # qp_2->h.u.next, D.2757
 653 06e8 85C0     		testl	%eax, %eax	 # D.2757
 654 06ea 75BF     		jne	L31	 #,
 655              		.loc 1 253 0
 656 06ec A1580000 		movl	LPBX1+24, %eax	 # *LPBX1, PROF_edge_counter.3
 656      00
 657 06f1 8B155C00 		movl	LPBX1+28, %edx	 # *LPBX1, PROF_edge_counter.3
 657      0000
 658 06f7 83C001   		addl	$1, %eax	 #, PROF_edge_counter.3
 659 06fa 83D200   		adcl	$0, %edx	 #, PROF_edge_counter.3
 660 06fd A3580000 		movl	%eax, LPBX1+24	 # PROF_edge_counter.3, *LPBX1
 660      00
 661 0702 89155C00 		movl	%edx, LPBX1+28	 # PROF_edge_counter.3, *LPBX1
 661      0000
 662              		.loc 1 255 0 is_stmt 1
 663 0708 837C2434 		cmpl	$0, 52(%esp)	 #, sizep
 663      00
 664 070d 7426     		je	L32	 #,
 665              		.loc 1 256 0
 666 070f 8B442434 		movl	52(%esp), %eax	 # sizep, tmp84
 667 0713 8B542414 		movl	20(%esp), %edx	 # sz, tmp85
 668 0717 8910     		movl	%edx, (%eax)	 # tmp85, *sizep_17(D)
 669 0719 A1600000 		movl	LPBX1+32, %eax	 # *LPBX1, PROF_edge_counter.3
 669      00
 670 071e 8B156400 		movl	LPBX1+36, %edx	 # *LPBX1, PROF_edge_counter.3
 670      0000
 671 0724 83C001   		addl	$1, %eax	 #, PROF_edge_counter.3
 672 0727 83D200   		adcl	$0, %edx	 #, PROF_edge_counter.3
 673 072a A3600000 		movl	%eax, LPBX1+32	 # PROF_edge_counter.3, *LPBX1
 673      00
 674 072f 89156400 		movl	%edx, LPBX1+36	 # PROF_edge_counter.3, *LPBX1
 674      0000
 675              	L32:
 676              		.loc 1 258 0
 677 0735 E8000000 		call	_chMtxUnlock	 #
 677      00
 678 073a A1680000 		movl	LPBX1+40, %eax	 # *LPBX1, PROF_edge_counter.3
 678      00
 679 073f 8B156C00 		movl	LPBX1+44, %edx	 # *LPBX1, PROF_edge_counter.3
 679      0000
 680 0745 83C001   		addl	$1, %eax	 #, PROF_edge_counter.3
 681 0748 83D200   		adcl	$0, %edx	 #, PROF_edge_counter.3
 682 074b A3680000 		movl	%eax, LPBX1+40	 # PROF_edge_counter.3, *LPBX1
 682      00
GAS LISTING C:\cygwin\tmp\ccFG3RbS.s 			page 16


 683 0750 89156C00 		movl	%edx, LPBX1+44	 # PROF_edge_counter.3, *LPBX1
 683      0000
 684              		.loc 1 259 0
 685 0756 8B442418 		movl	24(%esp), %eax	 # n, D.2760
 686              		.loc 1 260 0
 687 075a 83C42C   		addl	$44, %esp	 #,
 688              	LCFI9:
 689              		.cfi_def_cfa_offset 4
 690 075d C3       		ret
 691              		.cfi_endproc
 692              	LFE4:
 693              	.lcomm LPBX1,272,32
 694              		.section .rdata,"dr"
 695              		.align 4
 696              	LC0:
 697 0000 433A5C64 		.ascii "C:\\develop\\gyro\\ChibiOS\\test\\coverage/../../os/kernel/src/chheap.gcda\0"
 697      6576656C 
 697      6F705C67 
 697      79726F5C 
 697      43686962 
 698 0046 0000     		.data
 699              		.align 32
 700              	LC1:
 701              	 # <anonymous>:
 702 0000 05000000 		.long	5
 703              	 # <anonymous>:
 704 0004 06884C70 		.long	1884063750
 705              	 # <anonymous>:
 706 0008 06000000 		.long	6
 707              	 # <anonymous>:
 708 000c 04000000 		.long	4
 709              	 # <anonymous>:
 710 0010 2AB736AD 		.long	-1388923094
 711              	 # <anonymous>:
 712 0014 0B000000 		.long	11
 713              	 # <anonymous>:
 714 0018 03000000 		.long	3
 715              	 # <anonymous>:
 716 001c 7682412D 		.long	759267958
 717              	 # <anonymous>:
 718 0020 0B000000 		.long	11
 719              	 # <anonymous>:
 720 0024 02000000 		.long	2
 721              	 # <anonymous>:
 722 0028 5FBD6AF0 		.long	-261440161
 723              	 # <anonymous>:
 724 002c 04000000 		.long	4
 725              	 # <anonymous>:
 726 0030 01000000 		.long	1
 727              	 # <anonymous>:
 728 0034 52CB2B51 		.long	1361824594
 729              	 # <anonymous>:
 730 0038 02000000 		.long	2
 731 003c 00000000 		.align 32
 732              	LPBX0:
 733              	 # <anonymous>:
 734 0040 2A363034 		.long	875574826
GAS LISTING C:\cygwin\tmp\ccFG3RbS.s 			page 17


 735              	 # <anonymous>:
 736 0044 00000000 		.long	0
 737              	 # <anonymous>:
 738 0048 38277060 		.long	1617962808
 739              	 # <anonymous>:
 740 004c 00000000 		.long	LC0
 741              	 # <anonymous>:
 742 0050 05000000 		.long	5
 743              	 # <anonymous>:
 744 0054 00000000 		.long	LC1
 745              	 # <anonymous>:
 746 0058 01000000 		.long	1
 747              	 # <anonymous>:
 748              	 # <anonymous>:
 749 005c 22000000 		.long	34
 750              	 # <anonymous>:
 751 0060 40000000 		.long	LPBX1
 752              	 # <anonymous>:
 753 0064 00000000 		.long	___gcov_merge_add
 754 0068 00000000 		.space 12
 754      00000000 
 754      00000000 
 755 0074 00000000 		.text
 755      00000000 
 755      00000000 
 756              		.def	__GLOBAL__sub_I_65535_0__heap_init;	.scl	3;	.type	32;	.endef
 757              	__GLOBAL__sub_I_65535_0__heap_init:
 758              	LFB5:
 759              		.loc 1 260 0
 760              		.cfi_startproc
 761 075e 83EC1C   		subl	$28, %esp	 #,
 762              	LCFI10:
 763              		.cfi_def_cfa_offset 32
 764              		.loc 1 260 0
 765 0761 C7042440 		movl	$LPBX0, (%esp)	 #,
 765      000000
 766 0768 E8000000 		call	___gcov_init	 #
 766      00
 767 076d 83C41C   		addl	$28, %esp	 #,
 768              	LCFI11:
 769              		.cfi_def_cfa_offset 4
 770 0770 C3       		ret
 771              		.cfi_endproc
 772              	LFE5:
 773              		.section	.ctors,"w"
 774              		.align 4
 775 0000 5E070000 		.long	__GLOBAL__sub_I_65535_0__heap_init
 776              		.text
 777              	Letext0:
 778              		.file 2 "c:/mingw/bin/../lib/gcc/mingw32/4.6.2/include/stddef.h"
 779              		.file 3 "c:/mingw/bin/../lib/gcc/mingw32/4.6.2/../../../../include/stdint.h"
 780              		.file 4 "../../os/ports/GCC/SIMIA32/chtypes.h"
 781              		.file 5 "../../os/kernel/include/chlists.h"
 782              		.file 6 "../../os/kernel/include/chthreads.h"
 783              		.file 7 "../../os/ports/GCC/SIMIA32/chcore.h"
 784              		.file 8 "../../os/kernel/include/chmtx.h"
 785              		.file 9 "../../os/kernel/include/chmemcore.h"
GAS LISTING C:\cygwin\tmp\ccFG3RbS.s 			page 18


 786              		.file 10 "../../os/kernel/include/chheap.h"