GAS LISTING C:\cygwin\tmp\ccwc2FA5.s 			page 1


   1              		.file	"chlists.c"
   2              	 # GNU C (GCC) version 4.6.2 (mingw32)
   3              	 #	compiled by GNU C version 4.6.2, GMP version 5.0.1, MPFR version 2.4.1, MPC version 0.8.1
   4              	 # GGC heuristics: --param ggc-min-expand=100 --param ggc-min-heapsize=131072
   5              	 # options passed:  -I . -I ../../os/ports/GCC/SIMIA32
   6              	 # -I ../../os/kernel/include -I ../../test -I ../../os/hal/include
   7              	 # -I ../../os/hal/platforms/Win32 -I ../../boards/simulator
   8              	 # -I ../../os/various -iprefix c:\mingw\bin\../lib/gcc/mingw32/4.6.2/
   9              	 # -MD ../../os/kernel/src/chlists.d -MF .dep/chlists.o.d -MP
  10              	 # -MQ ../../os/kernel/src/chlists.o -D SIMULATOR
  11              	 # ../../os/kernel/src/chlists.c -mtune=i386 -march=i386
  12              	 # -auxbase-strip ../../os/kernel/src/chlists.o -ggdb -O0 -Wall -Wextra
  13              	 # -Wstrict-prototypes -fomit-frame-pointer -fprofile-arcs -ftest-coverage
  14              	 # -fverbose-asm
  15              	 # options enabled:  -fasynchronous-unwind-tables -fauto-inc-dec
  16              	 # -fbranch-count-reg -fcommon -fdelete-null-pointer-checks
  17              	 # -fdwarf2-cfi-asm -fearly-inlining -feliminate-unused-debug-types
  18              	 # -ffunction-cse -fgcse-lm -fident -finline-functions-called-once
  19              	 # -fira-share-save-slots -fira-share-spill-slots -fivopts
  20              	 # -fkeep-inline-dllexport -fkeep-static-consts -fleading-underscore
  21              	 # -fmath-errno -fmerge-debug-strings -fmove-loop-invariants
  22              	 # -fomit-frame-pointer -fpeephole -fprefetch-loop-arrays -fprofile-arcs
  23              	 # -freg-struct-return -fsched-critical-path-heuristic
  24              	 # -fsched-dep-count-heuristic -fsched-group-heuristic -fsched-interblock
  25              	 # -fsched-last-insn-heuristic -fsched-rank-heuristic -fsched-spec
  26              	 # -fsched-spec-insn-heuristic -fsched-stalled-insns-dep
  27              	 # -fset-stack-executable -fshow-column -fsigned-zeros
  28              	 # -fsplit-ivs-in-unroller -fstrict-volatile-bitfields -ftest-coverage
  29              	 # -ftrapping-math -ftree-cselim -ftree-forwprop -ftree-loop-if-convert
  30              	 # -ftree-loop-im -ftree-loop-ivcanon -ftree-loop-optimize
  31              	 # -ftree-parallelize-loops= -ftree-phiprop -ftree-pta -ftree-reassoc
  32              	 # -ftree-scev-cprop -ftree-slp-vectorize -ftree-vect-loop-version
  33              	 # -funit-at-a-time -funwind-tables -fvect-cost-model -fverbose-asm
  34              	 # -fzero-initialized-in-bss -m32 -m80387 -m96bit-long-double
  35              	 # -maccumulate-outgoing-args -malign-double -malign-stringops
  36              	 # -mfancy-math-387 -mfp-ret-in-387 -mieee-fp -mno-red-zone -mno-sse4
  37              	 # -mpush-args -msahf -mstack-arg-probe
  38              	
  39              		.text
  40              	Ltext0:
  41              	 # Compiler executable checksum: c20aed7c018482d7b62efcd5dcab2a9d
  42              	
  43              		.globl	_prio_insert
  44              		.def	_prio_insert;	.scl	2;	.type	32;	.endef
  45              	_prio_insert:
  46              	LFB0:
  47              		.file 1 "../../os/kernel/src/chlists.c"
  48              		.loc 1 44 0
  49              		.cfi_startproc
  50 0000 83EC14   		subl	$20, %esp	 #,
  51              	LCFI0:
  52              		.cfi_def_cfa_offset 24
  53              		.loc 1 47 0
  54 0003 8B44241C 		movl	28(%esp), %eax	 # tqp, tmp70
  55 0007 8944240C 		movl	%eax, 12(%esp)	 # tmp70, cp
  56 000b A1300000 		movl	LPBX1+48, %eax	 # *LPBX1, PROF_edge_counter.6
  56      00
GAS LISTING C:\cygwin\tmp\ccwc2FA5.s 			page 2


  57 0010 8B153400 		movl	LPBX1+52, %edx	 # *LPBX1, PROF_edge_counter.6
  57      0000
  58 0016 83C001   		addl	$1, %eax	 #, PROF_edge_counter.6
  59 0019 83D200   		adcl	$0, %edx	 #, PROF_edge_counter.6
  60 001c A3300000 		movl	%eax, LPBX1+48	 # PROF_edge_counter.6, *LPBX1
  60      00
  61 0021 89153400 		movl	%edx, LPBX1+52	 # PROF_edge_counter.6, *LPBX1
  61      0000
  62              	L3:
  63              		.loc 1 50 0 discriminator 1
  64 0027 8B44240C 		movl	12(%esp), %eax	 # cp, tmp71
  65 002b 8B00     		movl	(%eax), %eax	 # cp_1->p_next, tmp72
  66 002d 8944240C 		movl	%eax, 12(%esp)	 # tmp72, cp
  67              		.loc 1 52 0 discriminator 1
  68 0031 8B44240C 		movl	12(%esp), %eax	 # cp, tmp73
  69 0035 3B44241C 		cmpl	28(%esp), %eax	 # tqp, tmp73
  70 0039 744A     		je	L2	 #,
  71 003b A1380000 		movl	LPBX1+56, %eax	 # *LPBX1, PROF_edge_counter.6
  71      00
  72 0040 8B153C00 		movl	LPBX1+60, %edx	 # *LPBX1, PROF_edge_counter.6
  72      0000
  73 0046 83C001   		addl	$1, %eax	 #, PROF_edge_counter.6
  74 0049 83D200   		adcl	$0, %edx	 #, PROF_edge_counter.6
  75 004c A3380000 		movl	%eax, LPBX1+56	 # PROF_edge_counter.6, *LPBX1
  75      00
  76 0051 89153C00 		movl	%edx, LPBX1+60	 # PROF_edge_counter.6, *LPBX1
  76      0000
  77 0057 8B44240C 		movl	12(%esp), %eax	 # cp, tmp74
  78 005b 8B5008   		movl	8(%eax), %edx	 # cp_4->p_prio, D.2766
  79 005e 8B442418 		movl	24(%esp), %eax	 # tp, tmp75
  80 0062 8B4008   		movl	8(%eax), %eax	 # tp_6(D)->p_prio, D.2767
  81 0065 39C2     		cmpl	%eax, %edx	 # D.2767, D.2766
  82 0067 73BE     		jae	L3	 #,
  83              		.loc 1 52 0 is_stmt 0
  84 0069 A1400000 		movl	LPBX1+64, %eax	 # *LPBX1, PROF_edge_counter.6
  84      00
  85 006e 8B154400 		movl	LPBX1+68, %edx	 # *LPBX1, PROF_edge_counter.6
  85      0000
  86 0074 83C001   		addl	$1, %eax	 #, PROF_edge_counter.6
  87 0077 83D200   		adcl	$0, %edx	 #, PROF_edge_counter.6
  88 007a A3400000 		movl	%eax, LPBX1+64	 # PROF_edge_counter.6, *LPBX1
  88      00
  89 007f 89154400 		movl	%edx, LPBX1+68	 # PROF_edge_counter.6, *LPBX1
  89      0000
  90              	L2:
  91              		.loc 1 54 0 is_stmt 1
  92 0085 8B442418 		movl	24(%esp), %eax	 # tp, tmp76
  93 0089 8B54240C 		movl	12(%esp), %edx	 # cp, tmp77
  94 008d 8910     		movl	%edx, (%eax)	 # tmp77, tp_6(D)->p_next
  95              		.loc 1 55 0
  96 008f 8B44240C 		movl	12(%esp), %eax	 # cp, tmp78
  97 0093 8B5004   		movl	4(%eax), %edx	 # cp_4->p_prev, D.2768
  98 0096 8B442418 		movl	24(%esp), %eax	 # tp, tmp79
  99 009a 895004   		movl	%edx, 4(%eax)	 # D.2768, tp_6(D)->p_prev
 100              		.loc 1 56 0
 101 009d 8B442418 		movl	24(%esp), %eax	 # tp, tmp80
 102 00a1 8B4004   		movl	4(%eax), %eax	 # tp_6(D)->p_prev, D.2769
GAS LISTING C:\cygwin\tmp\ccwc2FA5.s 			page 3


 103 00a4 8B54240C 		movl	12(%esp), %edx	 # cp, tmp81
 104 00a8 8B4C2418 		movl	24(%esp), %ecx	 # tp, tmp82
 105 00ac 894A04   		movl	%ecx, 4(%edx)	 # tmp82, cp_4->p_prev
 106 00af 8B54240C 		movl	12(%esp), %edx	 # cp, tmp83
 107 00b3 8B5204   		movl	4(%edx), %edx	 # cp_4->p_prev, D.2770
 108 00b6 8910     		movl	%edx, (%eax)	 # D.2770, D.2769_9->p_next
 109              		.loc 1 57 0
 110 00b8 83C414   		addl	$20, %esp	 #,
 111              	LCFI1:
 112              		.cfi_def_cfa_offset 4
 113 00bb C3       		ret
 114              		.cfi_endproc
 115              	LFE0:
 116              		.globl	_queue_insert
 117              		.def	_queue_insert;	.scl	2;	.type	32;	.endef
 118              	_queue_insert:
 119              	LFB1:
 120              		.loc 1 67 0
 121              		.cfi_startproc
 122 00bc 83EC04   		subl	$4, %esp	 #,
 123              	LCFI2:
 124              		.cfi_def_cfa_offset 8
 125              		.loc 1 67 0
 126 00bf A1280000 		movl	LPBX1+40, %eax	 # *LPBX1, PROF_edge_counter.5
 126      00
 127 00c4 8B152C00 		movl	LPBX1+44, %edx	 # *LPBX1, PROF_edge_counter.5
 127      0000
 128 00ca 83C001   		addl	$1, %eax	 #, PROF_edge_counter.5
 129 00cd 83D200   		adcl	$0, %edx	 #, PROF_edge_counter.5
 130 00d0 A3280000 		movl	%eax, LPBX1+40	 # PROF_edge_counter.5, *LPBX1
 130      00
 131 00d5 89152C00 		movl	%edx, LPBX1+44	 # PROF_edge_counter.5, *LPBX1
 131      0000
 132              		.loc 1 69 0
 133 00db 8B442408 		movl	8(%esp), %eax	 # tp, tmp64
 134 00df 8B54240C 		movl	12(%esp), %edx	 # tqp, tmp65
 135 00e3 8910     		movl	%edx, (%eax)	 # tmp65, tp_1(D)->p_next
 136              		.loc 1 70 0
 137 00e5 8B44240C 		movl	12(%esp), %eax	 # tqp, tmp66
 138 00e9 8B5004   		movl	4(%eax), %edx	 # tqp_2(D)->p_prev, D.2762
 139 00ec 8B442408 		movl	8(%esp), %eax	 # tp, tmp67
 140 00f0 895004   		movl	%edx, 4(%eax)	 # D.2762, tp_1(D)->p_prev
 141              		.loc 1 71 0
 142 00f3 8B442408 		movl	8(%esp), %eax	 # tp, tmp68
 143 00f7 8B4004   		movl	4(%eax), %eax	 # tp_1(D)->p_prev, D.2763
 144 00fa 8B54240C 		movl	12(%esp), %edx	 # tqp, tmp69
 145 00fe 8B4C2408 		movl	8(%esp), %ecx	 # tp, tmp70
 146 0102 894A04   		movl	%ecx, 4(%edx)	 # tmp70, tqp_2(D)->p_prev
 147 0105 8B54240C 		movl	12(%esp), %edx	 # tqp, tmp71
 148 0109 8B5204   		movl	4(%edx), %edx	 # tqp_2(D)->p_prev, D.2764
 149 010c 8910     		movl	%edx, (%eax)	 # D.2764, D.2763_4->p_next
 150              		.loc 1 72 0
 151 010e 83C404   		addl	$4, %esp	 #,
 152              	LCFI3:
 153              		.cfi_def_cfa_offset 4
 154 0111 C3       		ret
 155              		.cfi_endproc
GAS LISTING C:\cygwin\tmp\ccwc2FA5.s 			page 4


 156              	LFE1:
 157              		.globl	_fifo_remove
 158              		.def	_fifo_remove;	.scl	2;	.type	32;	.endef
 159              	_fifo_remove:
 160              	LFB2:
 161              		.loc 1 84 0
 162              		.cfi_startproc
 163 0112 83EC14   		subl	$20, %esp	 #,
 164              	LCFI4:
 165              		.cfi_def_cfa_offset 24
 166              		.loc 1 84 0
 167 0115 A1200000 		movl	LPBX1+32, %eax	 # *LPBX1, PROF_edge_counter.4
 167      00
 168 011a 8B152400 		movl	LPBX1+36, %edx	 # *LPBX1, PROF_edge_counter.4
 168      0000
 169 0120 83C001   		addl	$1, %eax	 #, PROF_edge_counter.4
 170 0123 83D200   		adcl	$0, %edx	 #, PROF_edge_counter.4
 171 0126 A3200000 		movl	%eax, LPBX1+32	 # PROF_edge_counter.4, *LPBX1
 171      00
 172 012b 89152400 		movl	%edx, LPBX1+36	 # PROF_edge_counter.4, *LPBX1
 172      0000
 173              		.loc 1 85 0
 174 0131 8B442418 		movl	24(%esp), %eax	 # tqp, tmp65
 175 0135 8B00     		movl	(%eax), %eax	 # tqp_1(D)->p_next, tmp66
 176 0137 8944240C 		movl	%eax, 12(%esp)	 # tmp66, tp
 177              		.loc 1 87 0
 178 013b 8B44240C 		movl	12(%esp), %eax	 # tp, tmp67
 179 013f 8B10     		movl	(%eax), %edx	 # tp_2->p_next, D.2758
 180 0141 8B442418 		movl	24(%esp), %eax	 # tqp, tmp68
 181 0145 8910     		movl	%edx, (%eax)	 # D.2758, tqp_1(D)->p_next
 182 0147 8B442418 		movl	24(%esp), %eax	 # tqp, tmp69
 183 014b 8B00     		movl	(%eax), %eax	 # tqp_1(D)->p_next, D.2759
 184 014d 8B542418 		movl	24(%esp), %edx	 # tqp, tmp70
 185 0151 895004   		movl	%edx, 4(%eax)	 # tmp70, D.2759_4->p_prev
 186              		.loc 1 88 0
 187 0154 8B44240C 		movl	12(%esp), %eax	 # tp, D.2760
 188              		.loc 1 89 0
 189 0158 83C414   		addl	$20, %esp	 #,
 190              	LCFI5:
 191              		.cfi_def_cfa_offset 4
 192 015b C3       		ret
 193              		.cfi_endproc
 194              	LFE2:
 195              		.globl	_lifo_remove
 196              		.def	_lifo_remove;	.scl	2;	.type	32;	.endef
 197              	_lifo_remove:
 198              	LFB3:
 199              		.loc 1 101 0
 200              		.cfi_startproc
 201 015c 83EC14   		subl	$20, %esp	 #,
 202              	LCFI6:
 203              		.cfi_def_cfa_offset 24
 204              		.loc 1 101 0
 205 015f A1180000 		movl	LPBX1+24, %eax	 # *LPBX1, PROF_edge_counter.3
 205      00
 206 0164 8B151C00 		movl	LPBX1+28, %edx	 # *LPBX1, PROF_edge_counter.3
 206      0000
GAS LISTING C:\cygwin\tmp\ccwc2FA5.s 			page 5


 207 016a 83C001   		addl	$1, %eax	 #, PROF_edge_counter.3
 208 016d 83D200   		adcl	$0, %edx	 #, PROF_edge_counter.3
 209 0170 A3180000 		movl	%eax, LPBX1+24	 # PROF_edge_counter.3, *LPBX1
 209      00
 210 0175 89151C00 		movl	%edx, LPBX1+28	 # PROF_edge_counter.3, *LPBX1
 210      0000
 211              		.loc 1 102 0
 212 017b 8B442418 		movl	24(%esp), %eax	 # tqp, tmp65
 213 017f 8B4004   		movl	4(%eax), %eax	 # tqp_1(D)->p_prev, tmp66
 214 0182 8944240C 		movl	%eax, 12(%esp)	 # tmp66, tp
 215              		.loc 1 104 0
 216 0186 8B44240C 		movl	12(%esp), %eax	 # tp, tmp67
 217 018a 8B5004   		movl	4(%eax), %edx	 # tp_2->p_prev, D.2754
 218 018d 8B442418 		movl	24(%esp), %eax	 # tqp, tmp68
 219 0191 895004   		movl	%edx, 4(%eax)	 # D.2754, tqp_1(D)->p_prev
 220 0194 8B442418 		movl	24(%esp), %eax	 # tqp, tmp69
 221 0198 8B4004   		movl	4(%eax), %eax	 # tqp_1(D)->p_prev, D.2755
 222 019b 8B542418 		movl	24(%esp), %edx	 # tqp, tmp70
 223 019f 8910     		movl	%edx, (%eax)	 # tmp70, D.2755_4->p_next
 224              		.loc 1 105 0
 225 01a1 8B44240C 		movl	12(%esp), %eax	 # tp, D.2756
 226              		.loc 1 106 0
 227 01a5 83C414   		addl	$20, %esp	 #,
 228              	LCFI7:
 229              		.cfi_def_cfa_offset 4
 230 01a8 C3       		ret
 231              		.cfi_endproc
 232              	LFE3:
 233              		.globl	_dequeue
 234              		.def	_dequeue;	.scl	2;	.type	32;	.endef
 235              	_dequeue:
 236              	LFB4:
 237              		.loc 1 118 0
 238              		.cfi_startproc
 239 01a9 83EC04   		subl	$4, %esp	 #,
 240              	LCFI8:
 241              		.cfi_def_cfa_offset 8
 242              		.loc 1 118 0
 243 01ac A1100000 		movl	LPBX1+16, %eax	 # *LPBX1, PROF_edge_counter.2
 243      00
 244 01b1 8B151400 		movl	LPBX1+20, %edx	 # *LPBX1, PROF_edge_counter.2
 244      0000
 245 01b7 83C001   		addl	$1, %eax	 #, PROF_edge_counter.2
 246 01ba 83D200   		adcl	$0, %edx	 #, PROF_edge_counter.2
 247 01bd A3100000 		movl	%eax, LPBX1+16	 # PROF_edge_counter.2, *LPBX1
 247      00
 248 01c2 89151400 		movl	%edx, LPBX1+20	 # PROF_edge_counter.2, *LPBX1
 248      0000
 249              		.loc 1 120 0
 250 01c8 8B442408 		movl	8(%esp), %eax	 # tp, tmp67
 251 01cc 8B4004   		movl	4(%eax), %eax	 # tp_1(D)->p_prev, D.2748
 252 01cf 8B542408 		movl	8(%esp), %edx	 # tp, tmp68
 253 01d3 8B12     		movl	(%edx), %edx	 # tp_1(D)->p_next, D.2749
 254 01d5 8910     		movl	%edx, (%eax)	 # D.2749, D.2748_2->p_next
 255              		.loc 1 121 0
 256 01d7 8B442408 		movl	8(%esp), %eax	 # tp, tmp69
 257 01db 8B00     		movl	(%eax), %eax	 # tp_1(D)->p_next, D.2750
GAS LISTING C:\cygwin\tmp\ccwc2FA5.s 			page 6


 258 01dd 8B542408 		movl	8(%esp), %edx	 # tp, tmp70
 259 01e1 8B5204   		movl	4(%edx), %edx	 # tp_1(D)->p_prev, D.2751
 260 01e4 895004   		movl	%edx, 4(%eax)	 # D.2751, D.2750_4->p_prev
 261              		.loc 1 122 0
 262 01e7 8B442408 		movl	8(%esp), %eax	 # tp, D.2752
 263              		.loc 1 123 0
 264 01eb 83C404   		addl	$4, %esp	 #,
 265              	LCFI9:
 266              		.cfi_def_cfa_offset 4
 267 01ee C3       		ret
 268              		.cfi_endproc
 269              	LFE4:
 270              		.globl	_list_insert
 271              		.def	_list_insert;	.scl	2;	.type	32;	.endef
 272              	_list_insert:
 273              	LFB5:
 274              		.loc 1 133 0
 275              		.cfi_startproc
 276 01ef 83EC04   		subl	$4, %esp	 #,
 277              	LCFI10:
 278              		.cfi_def_cfa_offset 8
 279              		.loc 1 133 0
 280 01f2 A1080000 		movl	LPBX1+8, %eax	 # *LPBX1, PROF_edge_counter.1
 280      00
 281 01f7 8B150C00 		movl	LPBX1+12, %edx	 # *LPBX1, PROF_edge_counter.1
 281      0000
 282 01fd 83C001   		addl	$1, %eax	 #, PROF_edge_counter.1
 283 0200 83D200   		adcl	$0, %edx	 #, PROF_edge_counter.1
 284 0203 A3080000 		movl	%eax, LPBX1+8	 # PROF_edge_counter.1, *LPBX1
 284      00
 285 0208 89150C00 		movl	%edx, LPBX1+12	 # PROF_edge_counter.1, *LPBX1
 285      0000
 286              		.loc 1 135 0
 287 020e 8B44240C 		movl	12(%esp), %eax	 # tlp, tmp62
 288 0212 8B10     		movl	(%eax), %edx	 # tlp_1(D)->p_next, D.2747
 289 0214 8B442408 		movl	8(%esp), %eax	 # tp, tmp63
 290 0218 8910     		movl	%edx, (%eax)	 # D.2747, tp_3(D)->p_next
 291              		.loc 1 136 0
 292 021a 8B44240C 		movl	12(%esp), %eax	 # tlp, tmp64
 293 021e 8B542408 		movl	8(%esp), %edx	 # tp, tmp65
 294 0222 8910     		movl	%edx, (%eax)	 # tmp65, tlp_1(D)->p_next
 295              		.loc 1 137 0
 296 0224 83C404   		addl	$4, %esp	 #,
 297              	LCFI11:
 298              		.cfi_def_cfa_offset 4
 299 0227 C3       		ret
 300              		.cfi_endproc
 301              	LFE5:
 302              		.globl	_list_remove
 303              		.def	_list_remove;	.scl	2;	.type	32;	.endef
 304              	_list_remove:
 305              	LFB6:
 306              		.loc 1 148 0
 307              		.cfi_startproc
 308 0228 83EC14   		subl	$20, %esp	 #,
 309              	LCFI12:
 310              		.cfi_def_cfa_offset 24
GAS LISTING C:\cygwin\tmp\ccwc2FA5.s 			page 7


 311              		.loc 1 148 0
 312 022b A1000000 		movl	LPBX1, %eax	 # *LPBX1, PROF_edge_counter.0
 312      00
 313 0230 8B150400 		movl	LPBX1+4, %edx	 # *LPBX1, PROF_edge_counter.0
 313      0000
 314 0236 83C001   		addl	$1, %eax	 #, PROF_edge_counter.0
 315 0239 83D200   		adcl	$0, %edx	 #, PROF_edge_counter.0
 316 023c A3000000 		movl	%eax, LPBX1	 # PROF_edge_counter.0, *LPBX1
 316      00
 317 0241 89150400 		movl	%edx, LPBX1+4	 # PROF_edge_counter.0, *LPBX1
 317      0000
 318              		.loc 1 150 0
 319 0247 8B442418 		movl	24(%esp), %eax	 # tlp, tmp64
 320 024b 8B00     		movl	(%eax), %eax	 # tlp_1(D)->p_next, tmp65
 321 024d 8944240C 		movl	%eax, 12(%esp)	 # tmp65, tp
 322              		.loc 1 151 0
 323 0251 8B44240C 		movl	12(%esp), %eax	 # tp, tmp66
 324 0255 8B10     		movl	(%eax), %edx	 # tp_2->p_next, D.2744
 325 0257 8B442418 		movl	24(%esp), %eax	 # tlp, tmp67
 326 025b 8910     		movl	%edx, (%eax)	 # D.2744, tlp_1(D)->p_next
 327              		.loc 1 152 0
 328 025d 8B44240C 		movl	12(%esp), %eax	 # tp, D.2745
 329              		.loc 1 153 0
 330 0261 83C414   		addl	$20, %esp	 #,
 331              	LCFI13:
 332              		.cfi_def_cfa_offset 4
 333 0264 C3       		ret
 334              		.cfi_endproc
 335              	LFE6:
 336              	.lcomm LPBX1,72,32
 337              		.section .rdata,"dr"
 338              		.align 4
 339              	LC0:
 340 0000 433A5C64 		.ascii "C:\\develop\\gyro\\ChibiOS\\test\\coverage/../../os/kernel/src/chlists.gcda\0"
 340      6576656C 
 340      6F705C67 
 340      79726F5C 
 340      43686962 
 341 0047 00       		.data
 342              		.align 32
 343              	LC1:
 344              	 # <anonymous>:
 345 0000 07000000 		.long	7
 346              	 # <anonymous>:
 347 0004 4670F2AB 		.long	-1410174906
 348              	 # <anonymous>:
 349 0008 01000000 		.long	1
 350              	 # <anonymous>:
 351 000c 06000000 		.long	6
 352              	 # <anonymous>:
 353 0010 7EDDE3B5 		.long	-1243357826
 354              	 # <anonymous>:
 355 0014 01000000 		.long	1
 356              	 # <anonymous>:
 357 0018 05000000 		.long	5
 358              	 # <anonymous>:
 359 001c 7D199C72 		.long	1922832765
GAS LISTING C:\cygwin\tmp\ccwc2FA5.s 			page 8


 360              	 # <anonymous>:
 361 0020 01000000 		.long	1
 362              	 # <anonymous>:
 363 0024 04000000 		.long	4
 364              	 # <anonymous>:
 365 0028 58F1DFAD 		.long	-1377832616
 366              	 # <anonymous>:
 367 002c 01000000 		.long	1
 368              	 # <anonymous>:
 369 0030 03000000 		.long	3
 370              	 # <anonymous>:
 371 0034 197D0564 		.long	1678081305
 372              	 # <anonymous>:
 373 0038 01000000 		.long	1
 374              	 # <anonymous>:
 375 003c 02000000 		.long	2
 376              	 # <anonymous>:
 377 0040 94802A03 		.long	53117076
 378              	 # <anonymous>:
 379 0044 01000000 		.long	1
 380              	 # <anonymous>:
 381 0048 01000000 		.long	1
 382              	 # <anonymous>:
 383 004c 600D9AF9 		.long	-107344544
 384              	 # <anonymous>:
 385 0050 03000000 		.long	3
 386 0054 00000000 		.align 32
 386      00000000 
 386      00000000 
 387              	LPBX0:
 388              	 # <anonymous>:
 389 0060 2A363034 		.long	875574826
 390              	 # <anonymous>:
 391 0064 00000000 		.long	0
 392              	 # <anonymous>:
 393 0068 85147060 		.long	1617958021
 394              	 # <anonymous>:
 395 006c 00000000 		.long	LC0
 396              	 # <anonymous>:
 397 0070 07000000 		.long	7
 398              	 # <anonymous>:
 399 0074 00000000 		.long	LC1
 400              	 # <anonymous>:
 401 0078 01000000 		.long	1
 402              	 # <anonymous>:
 403              	 # <anonymous>:
 404 007c 09000000 		.long	9
 405              	 # <anonymous>:
 406 0080 00000000 		.long	LPBX1
 407              	 # <anonymous>:
 408 0084 00000000 		.long	___gcov_merge_add
 409 0088 00000000 		.space 12
 409      00000000 
 409      00000000 
 410 0094 00000000 		.text
 410      00000000 
 410      00000000 
GAS LISTING C:\cygwin\tmp\ccwc2FA5.s 			page 9


 411              		.def	__GLOBAL__sub_I_65535_0_prio_insert;	.scl	3;	.type	32;	.endef
 412              	__GLOBAL__sub_I_65535_0_prio_insert:
 413              	LFB7:
 414              		.loc 1 153 0
 415              		.cfi_startproc
 416 0265 83EC1C   		subl	$28, %esp	 #,
 417              	LCFI14:
 418              		.cfi_def_cfa_offset 32
 419              		.loc 1 153 0
 420 0268 C7042460 		movl	$LPBX0, (%esp)	 #,
 420      000000
 421 026f E8000000 		call	___gcov_init	 #
 421      00
 422 0274 83C41C   		addl	$28, %esp	 #,
 423              	LCFI15:
 424              		.cfi_def_cfa_offset 4
 425 0277 C3       		ret
 426              		.cfi_endproc
 427              	LFE7:
 428              		.section	.ctors,"w"
 429              		.align 4
 430 0000 65020000 		.long	__GLOBAL__sub_I_65535_0_prio_insert
 431              		.text
 432              	Letext0:
 433              		.file 2 "c:/mingw/bin/../lib/gcc/mingw32/4.6.2/../../../../include/stdint.h"
 434              		.file 3 "../../os/ports/GCC/SIMIA32/chtypes.h"
 435              		.file 4 "../../os/kernel/include/chlists.h"
 436              		.file 5 "../../os/kernel/include/chthreads.h"
 437              		.file 6 "../../os/ports/GCC/SIMIA32/chcore.h"
 438              		.file 7 "../../os/kernel/include/chmtx.h"