GAS LISTING C:\cygwin\tmp\ccZMxCCf.s 			page 1


   1              		.file	"chmempools.c"
   2              	 # GNU C (GCC) version 4.6.2 (mingw32)
   3              	 #	compiled by GNU C version 4.6.2, GMP version 5.0.1, MPFR version 2.4.1, MPC version 0.8.1
   4              	 # GGC heuristics: --param ggc-min-expand=100 --param ggc-min-heapsize=131072
   5              	 # options passed:  -I . -I ../../os/ports/GCC/SIMIA32
   6              	 # -I ../../os/kernel/include -I ../../test -I ../../os/hal/include
   7              	 # -I ../../os/hal/platforms/Win32 -I ../../boards/simulator
   8              	 # -I ../../os/various -iprefix c:\mingw\bin\../lib/gcc/mingw32/4.6.2/
   9              	 # -MD ../../os/kernel/src/chmempools.d -MF .dep/chmempools.o.d -MP
  10              	 # -MQ ../../os/kernel/src/chmempools.o -D SIMULATOR
  11              	 # ../../os/kernel/src/chmempools.c -mtune=i386 -march=i386
  12              	 # -auxbase-strip ../../os/kernel/src/chmempools.o -ggdb -O0 -Wall -Wextra
  13              	 # -Wstrict-prototypes -fomit-frame-pointer -fprofile-arcs -ftest-coverage
  14              	 # -fverbose-asm
  15              	 # options enabled:  -fasynchronous-unwind-tables -fauto-inc-dec
  16              	 # -fbranch-count-reg -fcommon -fdelete-null-pointer-checks
  17              	 # -fdwarf2-cfi-asm -fearly-inlining -feliminate-unused-debug-types
  18              	 # -ffunction-cse -fgcse-lm -fident -finline-functions-called-once
  19              	 # -fira-share-save-slots -fira-share-spill-slots -fivopts
  20              	 # -fkeep-inline-dllexport -fkeep-static-consts -fleading-underscore
  21              	 # -fmath-errno -fmerge-debug-strings -fmove-loop-invariants
  22              	 # -fomit-frame-pointer -fpeephole -fprefetch-loop-arrays -fprofile-arcs
  23              	 # -freg-struct-return -fsched-critical-path-heuristic
  24              	 # -fsched-dep-count-heuristic -fsched-group-heuristic -fsched-interblock
  25              	 # -fsched-last-insn-heuristic -fsched-rank-heuristic -fsched-spec
  26              	 # -fsched-spec-insn-heuristic -fsched-stalled-insns-dep
  27              	 # -fset-stack-executable -fshow-column -fsigned-zeros
  28              	 # -fsplit-ivs-in-unroller -fstrict-volatile-bitfields -ftest-coverage
  29              	 # -ftrapping-math -ftree-cselim -ftree-forwprop -ftree-loop-if-convert
  30              	 # -ftree-loop-im -ftree-loop-ivcanon -ftree-loop-optimize
  31              	 # -ftree-parallelize-loops= -ftree-phiprop -ftree-pta -ftree-reassoc
  32              	 # -ftree-scev-cprop -ftree-slp-vectorize -ftree-vect-loop-version
  33              	 # -funit-at-a-time -funwind-tables -fvect-cost-model -fverbose-asm
  34              	 # -fzero-initialized-in-bss -m32 -m80387 -m96bit-long-double
  35              	 # -maccumulate-outgoing-args -malign-double -malign-stringops
  36              	 # -mfancy-math-387 -mfp-ret-in-387 -mieee-fp -mno-red-zone -mno-sse4
  37              	 # -mpush-args -msahf -mstack-arg-probe
  38              	
  39              		.text
  40              	Ltext0:
  41              	 # Compiler executable checksum: c20aed7c018482d7b62efcd5dcab2a9d
  42              	
  43              		.globl	_chPoolInit
  44              		.def	_chPoolInit;	.scl	2;	.type	32;	.endef
  45              	_chPoolInit:
  46              	LFB0:
  47              		.file 1 "../../os/kernel/src/chmempools.c"
  48              		.loc 1 55 0
  49              		.cfi_startproc
  50 0000 83EC04   		subl	$4, %esp	 #,
  51              	LCFI0:
  52              		.cfi_def_cfa_offset 8
  53              		.loc 1 57 0
  54 0003 837C2408 		cmpl	$0, 8(%esp)	 #, mp
  54      00
  55 0008 7441     		je	L2	 #,
  56              		.loc 1 57 0 is_stmt 0 discriminator 1
GAS LISTING C:\cygwin\tmp\ccZMxCCf.s 			page 2


  57 000a A1A00000 		movl	LPBX1+160, %eax	 # *LPBX1, PROF_edge_counter.8
  57      00
  58 000f 8B15A400 		movl	LPBX1+164, %edx	 # *LPBX1, PROF_edge_counter.8
  58      0000
  59 0015 83C001   		addl	$1, %eax	 #, PROF_edge_counter.8
  60 0018 83D200   		adcl	$0, %edx	 #, PROF_edge_counter.8
  61 001b A3A00000 		movl	%eax, LPBX1+160	 # PROF_edge_counter.8, *LPBX1
  61      00
  62 0020 8915A400 		movl	%edx, LPBX1+164	 # PROF_edge_counter.8, *LPBX1
  62      0000
  63 0026 837C240C 		cmpl	$3, 12(%esp)	 #, size
  63      03
  64 002b 761E     		jbe	L2	 #,
  65              		.loc 1 57 0 discriminator 3
  66 002d A1A80000 		movl	LPBX1+168, %eax	 # *LPBX1, PROF_edge_counter.8
  66      00
  67 0032 8B15AC00 		movl	LPBX1+172, %edx	 # *LPBX1, PROF_edge_counter.8
  67      0000
  68 0038 83C001   		addl	$1, %eax	 #, PROF_edge_counter.8
  69 003b 83D200   		adcl	$0, %edx	 #, PROF_edge_counter.8
  70 003e A3A80000 		movl	%eax, LPBX1+168	 # PROF_edge_counter.8, *LPBX1
  70      00
  71 0043 8915AC00 		movl	%edx, LPBX1+172	 # PROF_edge_counter.8, *LPBX1
  71      0000
  72 0049 EB1C     		jmp	L3	 #
  73              	L2:
  74              		.loc 1 57 0 discriminator 2
  75 004b A1B00000 		movl	LPBX1+176, %eax	 # *LPBX1, PROF_edge_counter.8
  75      00
  76 0050 8B15B400 		movl	LPBX1+180, %edx	 # *LPBX1, PROF_edge_counter.8
  76      0000
  77 0056 83C001   		addl	$1, %eax	 #, PROF_edge_counter.8
  78 0059 83D200   		adcl	$0, %edx	 #, PROF_edge_counter.8
  79 005c A3B00000 		movl	%eax, LPBX1+176	 # PROF_edge_counter.8, *LPBX1
  79      00
  80 0061 8915B400 		movl	%edx, LPBX1+180	 # PROF_edge_counter.8, *LPBX1
  80      0000
  81              	L3:
  82              		.loc 1 59 0 is_stmt 1
  83 0067 8B442408 		movl	8(%esp), %eax	 # mp, tmp67
  84 006b C7000000 		movl	$0, (%eax)	 #, mp_1(D)->mp_next
  84      0000
  85              		.loc 1 60 0
  86 0071 8B442408 		movl	8(%esp), %eax	 # mp, tmp68
  87 0075 8B54240C 		movl	12(%esp), %edx	 # size, tmp69
  88 0079 895004   		movl	%edx, 4(%eax)	 # tmp69, mp_1(D)->mp_object_size
  89              		.loc 1 61 0
  90 007c 8B442408 		movl	8(%esp), %eax	 # mp, tmp70
  91 0080 8B542410 		movl	16(%esp), %edx	 # provider, tmp71
  92 0084 895008   		movl	%edx, 8(%eax)	 # tmp71, mp_1(D)->mp_provider
  93              		.loc 1 62 0
  94 0087 83C404   		addl	$4, %esp	 #,
  95              	LCFI1:
  96              		.cfi_def_cfa_offset 4
  97 008a C3       		ret
  98              		.cfi_endproc
  99              	LFE0:
GAS LISTING C:\cygwin\tmp\ccZMxCCf.s 			page 3


 100              		.globl	_chPoolLoadArray
 101              		.def	_chPoolLoadArray;	.scl	2;	.type	32;	.endef
 102              	_chPoolLoadArray:
 103              	LFB1:
 104              		.loc 1 77 0
 105              		.cfi_startproc
 106 008b 83EC1C   		subl	$28, %esp	 #,
 107              	LCFI2:
 108              		.cfi_def_cfa_offset 32
 109              		.loc 1 79 0
 110 008e 837C2420 		cmpl	$0, 32(%esp)	 #, mp
 110      00
 111 0093 7423     		je	L5	 #,
 112              		.loc 1 79 0 is_stmt 0 discriminator 1
 113 0095 A1780000 		movl	LPBX1+120, %eax	 # *LPBX1, PROF_edge_counter.7
 113      00
 114 009a 8B157C00 		movl	LPBX1+124, %edx	 # *LPBX1, PROF_edge_counter.7
 114      0000
 115 00a0 83C001   		addl	$1, %eax	 #, PROF_edge_counter.7
 116 00a3 83D200   		adcl	$0, %edx	 #, PROF_edge_counter.7
 117 00a6 A3780000 		movl	%eax, LPBX1+120	 # PROF_edge_counter.7, *LPBX1
 117      00
 118 00ab 89157C00 		movl	%edx, LPBX1+124	 # PROF_edge_counter.7, *LPBX1
 118      0000
 119 00b1 837C2428 		cmpl	$0, 40(%esp)	 #, n
 119      00
 120 00b6 7579     		jne	L7	 #,
 121              	L5:
 122              		.loc 1 79 0 discriminator 2
 123 00b8 A1800000 		movl	LPBX1+128, %eax	 # *LPBX1, PROF_edge_counter.7
 123      00
 124 00bd 8B158400 		movl	LPBX1+132, %edx	 # *LPBX1, PROF_edge_counter.7
 124      0000
 125 00c3 83C001   		addl	$1, %eax	 #, PROF_edge_counter.7
 126 00c6 83D200   		adcl	$0, %edx	 #, PROF_edge_counter.7
 127 00c9 A3800000 		movl	%eax, LPBX1+128	 # PROF_edge_counter.7, *LPBX1
 127      00
 128 00ce 89158400 		movl	%edx, LPBX1+132	 # PROF_edge_counter.7, *LPBX1
 128      0000
 129              		.loc 1 81 0 is_stmt 1 discriminator 2
 130 00d4 EB5B     		jmp	L7	 #
 131              	L8:
 132              		.loc 1 81 0 is_stmt 0
 133 00d6 A1900000 		movl	LPBX1+144, %eax	 # *LPBX1, PROF_edge_counter.7
 133      00
 134 00db 8B159400 		movl	LPBX1+148, %edx	 # *LPBX1, PROF_edge_counter.7
 134      0000
 135 00e1 83C001   		addl	$1, %eax	 #, PROF_edge_counter.7
 136 00e4 83D200   		adcl	$0, %edx	 #, PROF_edge_counter.7
 137 00e7 A3900000 		movl	%eax, LPBX1+144	 # PROF_edge_counter.7, *LPBX1
 137      00
 138 00ec 89159400 		movl	%edx, LPBX1+148	 # PROF_edge_counter.7, *LPBX1
 138      0000
 139              		.loc 1 82 0 is_stmt 1
 140 00f2 8B442424 		movl	36(%esp), %eax	 # p, tmp72
 141 00f6 89442404 		movl	%eax, 4(%esp)	 # tmp72,
 142 00fa 8B442420 		movl	32(%esp), %eax	 # mp, tmp73
GAS LISTING C:\cygwin\tmp\ccZMxCCf.s 			page 4


 143 00fe 890424   		movl	%eax, (%esp)	 # tmp73,
 144 0101 E8260200 		call	_chPoolFree	 #
 144      00
 145              		.loc 1 83 0
 146 0106 8B442420 		movl	32(%esp), %eax	 # mp, tmp74
 147 010a 8B4004   		movl	4(%eax), %eax	 # mp_3(D)->mp_object_size, D.2772
 148 010d 01442424 		addl	%eax, 36(%esp)	 # D.2772, p
 149              		.loc 1 84 0
 150 0111 FF4C2428 		decl	40(%esp)	 # n
 151 0115 A1880000 		movl	LPBX1+136, %eax	 # *LPBX1, PROF_edge_counter.7
 151      00
 152 011a 8B158C00 		movl	LPBX1+140, %edx	 # *LPBX1, PROF_edge_counter.7
 152      0000
 153 0120 83C001   		addl	$1, %eax	 #, PROF_edge_counter.7
 154 0123 83D200   		adcl	$0, %edx	 #, PROF_edge_counter.7
 155 0126 A3880000 		movl	%eax, LPBX1+136	 # PROF_edge_counter.7, *LPBX1
 155      00
 156 012b 89158C00 		movl	%edx, LPBX1+140	 # PROF_edge_counter.7, *LPBX1
 156      0000
 157              	L7:
 158              		.loc 1 81 0 discriminator 1
 159 0131 837C2428 		cmpl	$0, 40(%esp)	 #, n
 159      00
 160 0136 759E     		jne	L8	 #,
 161              		.loc 1 81 0 is_stmt 0
 162 0138 A1980000 		movl	LPBX1+152, %eax	 # *LPBX1, PROF_edge_counter.7
 162      00
 163 013d 8B159C00 		movl	LPBX1+156, %edx	 # *LPBX1, PROF_edge_counter.7
 163      0000
 164 0143 83C001   		addl	$1, %eax	 #, PROF_edge_counter.7
 165 0146 83D200   		adcl	$0, %edx	 #, PROF_edge_counter.7
 166 0149 A3980000 		movl	%eax, LPBX1+152	 # PROF_edge_counter.7, *LPBX1
 166      00
 167 014e 89159C00 		movl	%edx, LPBX1+156	 # PROF_edge_counter.7, *LPBX1
 167      0000
 168              		.loc 1 86 0 is_stmt 1
 169 0154 83C41C   		addl	$28, %esp	 #,
 170              	LCFI3:
 171              		.cfi_def_cfa_offset 4
 172 0157 C3       		ret
 173              		.cfi_endproc
 174              	LFE1:
 175              		.globl	_chPoolAllocI
 176              		.def	_chPoolAllocI;	.scl	2;	.type	32;	.endef
 177              	_chPoolAllocI:
 178              	LFB2:
 179              		.loc 1 98 0
 180              		.cfi_startproc
 181 0158 83EC2C   		subl	$44, %esp	 #,
 182              	LCFI4:
 183              		.cfi_def_cfa_offset 48
 184              		.loc 1 104 0
 185 015b 8B442430 		movl	48(%esp), %eax	 # mp, tmp74
 186 015f 8B00     		movl	(%eax), %eax	 # mp_2(D)->mp_next, tmp75
 187 0161 8944241C 		movl	%eax, 28(%esp)	 # tmp75, objp
 188 0165 837C241C 		cmpl	$0, 28(%esp)	 #, objp
 188      00
GAS LISTING C:\cygwin\tmp\ccZMxCCf.s 			page 5


 189 016a 742C     		je	L10	 #,
 190              		.loc 1 105 0
 191 016c 8B442430 		movl	48(%esp), %eax	 # mp, tmp76
 192 0170 8B00     		movl	(%eax), %eax	 # mp_2(D)->mp_next, D.2757
 193 0172 8B10     		movl	(%eax), %edx	 # D.2757_4->ph_next, D.2758
 194 0174 8B442430 		movl	48(%esp), %eax	 # mp, tmp77
 195 0178 8910     		movl	%edx, (%eax)	 # D.2758, mp_2(D)->mp_next
 196 017a A1600000 		movl	LPBX1+96, %eax	 # *LPBX1, PROF_edge_counter.6
 196      00
 197 017f 8B156400 		movl	LPBX1+100, %edx	 # *LPBX1, PROF_edge_counter.6
 197      0000
 198 0185 83C001   		addl	$1, %eax	 #, PROF_edge_counter.6
 199 0188 83D200   		adcl	$0, %edx	 #, PROF_edge_counter.6
 200 018b A3600000 		movl	%eax, LPBX1+96	 # PROF_edge_counter.6, *LPBX1
 200      00
 201 0190 89156400 		movl	%edx, LPBX1+100	 # PROF_edge_counter.6, *LPBX1
 201      0000
 202 0196 EB76     		jmp	L11	 #
 203              	L10:
 204 0198 A1580000 		movl	LPBX1+88, %eax	 # *LPBX1, PROF_edge_counter.6
 204      00
 205 019d 8B155C00 		movl	LPBX1+92, %edx	 # *LPBX1, PROF_edge_counter.6
 205      0000
 206 01a3 83C001   		addl	$1, %eax	 #, PROF_edge_counter.6
 207 01a6 83D200   		adcl	$0, %edx	 #, PROF_edge_counter.6
 208 01a9 A3580000 		movl	%eax, LPBX1+88	 # PROF_edge_counter.6, *LPBX1
 208      00
 209 01ae 89155C00 		movl	%edx, LPBX1+92	 # PROF_edge_counter.6, *LPBX1
 209      0000
 210              		.loc 1 106 0
 211 01b4 8B442430 		movl	48(%esp), %eax	 # mp, tmp78
 212 01b8 8B4008   		movl	8(%eax), %eax	 # mp_2(D)->mp_provider, D.2760
 213 01bb 85C0     		testl	%eax, %eax	 # D.2760
 214 01bd 744F     		je	L11	 #,
 215 01bf A1680000 		movl	LPBX1+104, %eax	 # *LPBX1, PROF_edge_counter.6
 215      00
 216 01c4 8B156C00 		movl	LPBX1+108, %edx	 # *LPBX1, PROF_edge_counter.6
 216      0000
 217 01ca 83C001   		addl	$1, %eax	 #, PROF_edge_counter.6
 218 01cd 83D200   		adcl	$0, %edx	 #, PROF_edge_counter.6
 219 01d0 A3680000 		movl	%eax, LPBX1+104	 # PROF_edge_counter.6, *LPBX1
 219      00
 220 01d5 89156C00 		movl	%edx, LPBX1+108	 # PROF_edge_counter.6, *LPBX1
 220      0000
 221              		.loc 1 107 0
 222 01db 8B442430 		movl	48(%esp), %eax	 # mp, tmp79
 223 01df 8B5008   		movl	8(%eax), %edx	 # mp_2(D)->mp_provider, D.2763
 224 01e2 8B442430 		movl	48(%esp), %eax	 # mp, tmp80
 225 01e6 8B4004   		movl	4(%eax), %eax	 # mp_2(D)->mp_object_size, D.2764
 226 01e9 890424   		movl	%eax, (%esp)	 # D.2764,
 227 01ec FFD2     		call	*%edx	 # D.2763
 228 01ee 8944241C 		movl	%eax, 28(%esp)	 # tmp81, objp
 229 01f2 A1700000 		movl	LPBX1+112, %eax	 # *LPBX1, PROF_edge_counter.6
 229      00
 230 01f7 8B157400 		movl	LPBX1+116, %edx	 # *LPBX1, PROF_edge_counter.6
 230      0000
 231 01fd 83C001   		addl	$1, %eax	 #, PROF_edge_counter.6
GAS LISTING C:\cygwin\tmp\ccZMxCCf.s 			page 6


 232 0200 83D200   		adcl	$0, %edx	 #, PROF_edge_counter.6
 233 0203 A3700000 		movl	%eax, LPBX1+112	 # PROF_edge_counter.6, *LPBX1
 233      00
 234 0208 89157400 		movl	%edx, LPBX1+116	 # PROF_edge_counter.6, *LPBX1
 234      0000
 235              	L11:
 236              		.loc 1 108 0
 237 020e 8B44241C 		movl	28(%esp), %eax	 # objp, D.2765
 238              		.loc 1 109 0
 239 0212 83C42C   		addl	$44, %esp	 #,
 240              	LCFI5:
 241              		.cfi_def_cfa_offset 4
 242 0215 C3       		ret
 243              		.cfi_endproc
 244              	LFE2:
 245              		.globl	_chPoolAlloc
 246              		.def	_chPoolAlloc;	.scl	2;	.type	32;	.endef
 247              	_chPoolAlloc:
 248              	LFB3:
 249              		.loc 1 121 0
 250              		.cfi_startproc
 251 0216 83EC2C   		subl	$44, %esp	 #,
 252              	LCFI6:
 253              		.cfi_def_cfa_offset 48
 254              		.loc 1 121 0
 255 0219 A1380000 		movl	LPBX1+56, %eax	 # *LPBX1, PROF_edge_counter.5
 255      00
 256 021e 8B153C00 		movl	LPBX1+60, %edx	 # *LPBX1, PROF_edge_counter.5
 256      0000
 257 0224 83C001   		addl	$1, %eax	 #, PROF_edge_counter.5
 258 0227 83D200   		adcl	$0, %edx	 #, PROF_edge_counter.5
 259 022a A3380000 		movl	%eax, LPBX1+56	 # PROF_edge_counter.5, *LPBX1
 259      00
 260 022f 89153C00 		movl	%edx, LPBX1+60	 # PROF_edge_counter.5, *LPBX1
 260      0000
 261              		.loc 1 124 0
 262              	/APP
 263              	 # 124 "../../os/kernel/src/chmempools.c" 1
 264 0235 90       		nop
 265              	 # 0 "" 2
 266              	/NO_APP
 267 0236 A1400000 		movl	LPBX1+64, %eax	 # *LPBX1, PROF_edge_counter.5
 267      00
 268 023b 8B154400 		movl	LPBX1+68, %edx	 # *LPBX1, PROF_edge_counter.5
 268      0000
 269 0241 83C001   		addl	$1, %eax	 #, PROF_edge_counter.5
 270 0244 83D200   		adcl	$0, %edx	 #, PROF_edge_counter.5
 271 0247 A3400000 		movl	%eax, LPBX1+64	 # PROF_edge_counter.5, *LPBX1
 271      00
 272 024c 89154400 		movl	%edx, LPBX1+68	 # PROF_edge_counter.5, *LPBX1
 272      0000
 273              		.loc 1 125 0
 274 0252 8B442430 		movl	48(%esp), %eax	 # mp, tmp69
 275 0256 890424   		movl	%eax, (%esp)	 # tmp69,
 276 0259 E8FAFEFF 		call	_chPoolAllocI	 #
 276      FF
 277 025e 8944241C 		movl	%eax, 28(%esp)	 # tmp70, objp
GAS LISTING C:\cygwin\tmp\ccZMxCCf.s 			page 7


 278 0262 A1480000 		movl	LPBX1+72, %eax	 # *LPBX1, PROF_edge_counter.5
 278      00
 279 0267 8B154C00 		movl	LPBX1+76, %edx	 # *LPBX1, PROF_edge_counter.5
 279      0000
 280 026d 83C001   		addl	$1, %eax	 #, PROF_edge_counter.5
 281 0270 83D200   		adcl	$0, %edx	 #, PROF_edge_counter.5
 282 0273 A3480000 		movl	%eax, LPBX1+72	 # PROF_edge_counter.5, *LPBX1
 282      00
 283 0278 89154C00 		movl	%edx, LPBX1+76	 # PROF_edge_counter.5, *LPBX1
 283      0000
 284              		.loc 1 126 0
 285              	/APP
 286              	 # 126 "../../os/kernel/src/chmempools.c" 1
 287 027e 90       		nop
 288              	 # 0 "" 2
 289              	/NO_APP
 290 027f A1500000 		movl	LPBX1+80, %eax	 # *LPBX1, PROF_edge_counter.5
 290      00
 291 0284 8B155400 		movl	LPBX1+84, %edx	 # *LPBX1, PROF_edge_counter.5
 291      0000
 292 028a 83C001   		addl	$1, %eax	 #, PROF_edge_counter.5
 293 028d 83D200   		adcl	$0, %edx	 #, PROF_edge_counter.5
 294 0290 A3500000 		movl	%eax, LPBX1+80	 # PROF_edge_counter.5, *LPBX1
 294      00
 295 0295 89155400 		movl	%edx, LPBX1+84	 # PROF_edge_counter.5, *LPBX1
 295      0000
 296              		.loc 1 127 0
 297 029b 8B44241C 		movl	28(%esp), %eax	 # objp, D.2750
 298              		.loc 1 128 0
 299 029f 83C42C   		addl	$44, %esp	 #,
 300              	LCFI7:
 301              		.cfi_def_cfa_offset 4
 302 02a2 C3       		ret
 303              		.cfi_endproc
 304              	LFE3:
 305              		.globl	_chPoolFreeI
 306              		.def	_chPoolFreeI;	.scl	2;	.type	32;	.endef
 307              	_chPoolFreeI:
 308              	LFB4:
 309              		.loc 1 142 0
 310              		.cfi_startproc
 311 02a3 83EC14   		subl	$20, %esp	 #,
 312              	LCFI8:
 313              		.cfi_def_cfa_offset 24
 314              		.loc 1 143 0
 315 02a6 8B44241C 		movl	28(%esp), %eax	 # objp, tmp68
 316 02aa 8944240C 		movl	%eax, 12(%esp)	 # tmp68, php
 317              		.loc 1 146 0
 318 02ae 837C2418 		cmpl	$0, 24(%esp)	 #, mp
 318      00
 319 02b3 7441     		je	L14	 #,
 320              		.loc 1 146 0 is_stmt 0 discriminator 1
 321 02b5 A1200000 		movl	LPBX1+32, %eax	 # *LPBX1, PROF_edge_counter.4
 321      00
 322 02ba 8B152400 		movl	LPBX1+36, %edx	 # *LPBX1, PROF_edge_counter.4
 322      0000
 323 02c0 83C001   		addl	$1, %eax	 #, PROF_edge_counter.4
GAS LISTING C:\cygwin\tmp\ccZMxCCf.s 			page 8


 324 02c3 83D200   		adcl	$0, %edx	 #, PROF_edge_counter.4
 325 02c6 A3200000 		movl	%eax, LPBX1+32	 # PROF_edge_counter.4, *LPBX1
 325      00
 326 02cb 89152400 		movl	%edx, LPBX1+36	 # PROF_edge_counter.4, *LPBX1
 326      0000
 327 02d1 837C241C 		cmpl	$0, 28(%esp)	 #, objp
 327      00
 328 02d6 741E     		je	L14	 #,
 329              		.loc 1 146 0 discriminator 3
 330 02d8 A1280000 		movl	LPBX1+40, %eax	 # *LPBX1, PROF_edge_counter.4
 330      00
 331 02dd 8B152C00 		movl	LPBX1+44, %edx	 # *LPBX1, PROF_edge_counter.4
 331      0000
 332 02e3 83C001   		addl	$1, %eax	 #, PROF_edge_counter.4
 333 02e6 83D200   		adcl	$0, %edx	 #, PROF_edge_counter.4
 334 02e9 A3280000 		movl	%eax, LPBX1+40	 # PROF_edge_counter.4, *LPBX1
 334      00
 335 02ee 89152C00 		movl	%edx, LPBX1+44	 # PROF_edge_counter.4, *LPBX1
 335      0000
 336 02f4 EB1C     		jmp	L15	 #
 337              	L14:
 338              		.loc 1 146 0 discriminator 2
 339 02f6 A1300000 		movl	LPBX1+48, %eax	 # *LPBX1, PROF_edge_counter.4
 339      00
 340 02fb 8B153400 		movl	LPBX1+52, %edx	 # *LPBX1, PROF_edge_counter.4
 340      0000
 341 0301 83C001   		addl	$1, %eax	 #, PROF_edge_counter.4
 342 0304 83D200   		adcl	$0, %edx	 #, PROF_edge_counter.4
 343 0307 A3300000 		movl	%eax, LPBX1+48	 # PROF_edge_counter.4, *LPBX1
 343      00
 344 030c 89153400 		movl	%edx, LPBX1+52	 # PROF_edge_counter.4, *LPBX1
 344      0000
 345              	L15:
 346              		.loc 1 148 0 is_stmt 1
 347 0312 8B442418 		movl	24(%esp), %eax	 # mp, tmp69
 348 0316 8B10     		movl	(%eax), %edx	 # mp_3(D)->mp_next, D.2749
 349 0318 8B44240C 		movl	12(%esp), %eax	 # php, tmp70
 350 031c 8910     		movl	%edx, (%eax)	 # D.2749, php_2->ph_next
 351              		.loc 1 149 0
 352 031e 8B442418 		movl	24(%esp), %eax	 # mp, tmp71
 353 0322 8B54240C 		movl	12(%esp), %edx	 # php, tmp72
 354 0326 8910     		movl	%edx, (%eax)	 # tmp72, mp_3(D)->mp_next
 355              		.loc 1 150 0
 356 0328 83C414   		addl	$20, %esp	 #,
 357              	LCFI9:
 358              		.cfi_def_cfa_offset 4
 359 032b C3       		ret
 360              		.cfi_endproc
 361              	LFE4:
 362              		.globl	_chPoolFree
 363              		.def	_chPoolFree;	.scl	2;	.type	32;	.endef
 364              	_chPoolFree:
 365              	LFB5:
 366              		.loc 1 164 0
 367              		.cfi_startproc
 368 032c 83EC0C   		subl	$12, %esp	 #,
 369              	LCFI10:
GAS LISTING C:\cygwin\tmp\ccZMxCCf.s 			page 9


 370              		.cfi_def_cfa_offset 16
 371              		.loc 1 164 0
 372 032f A1000000 		movl	LPBX1, %eax	 # *LPBX1, PROF_edge_counter.3
 372      00
 373 0334 8B150400 		movl	LPBX1+4, %edx	 # *LPBX1, PROF_edge_counter.3
 373      0000
 374 033a 83C001   		addl	$1, %eax	 #, PROF_edge_counter.3
 375 033d 83D200   		adcl	$0, %edx	 #, PROF_edge_counter.3
 376 0340 A3000000 		movl	%eax, LPBX1	 # PROF_edge_counter.3, *LPBX1
 376      00
 377 0345 89150400 		movl	%edx, LPBX1+4	 # PROF_edge_counter.3, *LPBX1
 377      0000
 378              		.loc 1 166 0
 379              	/APP
 380              	 # 166 "../../os/kernel/src/chmempools.c" 1
 381 034b 90       		nop
 382              	 # 0 "" 2
 383              	/NO_APP
 384 034c A1080000 		movl	LPBX1+8, %eax	 # *LPBX1, PROF_edge_counter.3
 384      00
 385 0351 8B150C00 		movl	LPBX1+12, %edx	 # *LPBX1, PROF_edge_counter.3
 385      0000
 386 0357 83C001   		addl	$1, %eax	 #, PROF_edge_counter.3
 387 035a 83D200   		adcl	$0, %edx	 #, PROF_edge_counter.3
 388 035d A3080000 		movl	%eax, LPBX1+8	 # PROF_edge_counter.3, *LPBX1
 388      00
 389 0362 89150C00 		movl	%edx, LPBX1+12	 # PROF_edge_counter.3, *LPBX1
 389      0000
 390              		.loc 1 167 0
 391 0368 8B442414 		movl	20(%esp), %eax	 # objp, tmp67
 392 036c 89442404 		movl	%eax, 4(%esp)	 # tmp67,
 393 0370 8B442410 		movl	16(%esp), %eax	 # mp, tmp68
 394 0374 890424   		movl	%eax, (%esp)	 # tmp68,
 395 0377 E827FFFF 		call	_chPoolFreeI	 #
 395      FF
 396 037c A1100000 		movl	LPBX1+16, %eax	 # *LPBX1, PROF_edge_counter.3
 396      00
 397 0381 8B151400 		movl	LPBX1+20, %edx	 # *LPBX1, PROF_edge_counter.3
 397      0000
 398 0387 83C001   		addl	$1, %eax	 #, PROF_edge_counter.3
 399 038a 83D200   		adcl	$0, %edx	 #, PROF_edge_counter.3
 400 038d A3100000 		movl	%eax, LPBX1+16	 # PROF_edge_counter.3, *LPBX1
 400      00
 401 0392 89151400 		movl	%edx, LPBX1+20	 # PROF_edge_counter.3, *LPBX1
 401      0000
 402              		.loc 1 168 0
 403              	/APP
 404              	 # 168 "../../os/kernel/src/chmempools.c" 1
 405 0398 90       		nop
 406              	 # 0 "" 2
 407              	/NO_APP
 408 0399 A1180000 		movl	LPBX1+24, %eax	 # *LPBX1, PROF_edge_counter.3
 408      00
 409 039e 8B151C00 		movl	LPBX1+28, %edx	 # *LPBX1, PROF_edge_counter.3
 409      0000
 410 03a4 83C001   		addl	$1, %eax	 #, PROF_edge_counter.3
 411 03a7 83D200   		adcl	$0, %edx	 #, PROF_edge_counter.3
GAS LISTING C:\cygwin\tmp\ccZMxCCf.s 			page 10


 412 03aa A3180000 		movl	%eax, LPBX1+24	 # PROF_edge_counter.3, *LPBX1
 412      00
 413 03af 89151C00 		movl	%edx, LPBX1+28	 # PROF_edge_counter.3, *LPBX1
 413      0000
 414              		.loc 1 169 0
 415 03b5 83C40C   		addl	$12, %esp	 #,
 416              	LCFI11:
 417              		.cfi_def_cfa_offset 4
 418 03b8 C3       		ret
 419              		.cfi_endproc
 420              	LFE5:
 421              	.lcomm LPBX1,184,32
 422              		.section .rdata,"dr"
 423              		.align 4
 424              	LC0:
 425 0000 433A5C64 		.ascii "C:\\develop\\gyro\\ChibiOS\\test\\coverage/../../os/kernel/src/chmempools.gcda\0"
 425      6576656C 
 425      6F705C67 
 425      79726F5C 
 425      43686962 
 426 004a 0000     		.data
 427              		.align 32
 428              	LC1:
 429              	 # <anonymous>:
 430 0000 06000000 		.long	6
 431              	 # <anonymous>:
 432 0004 6F371A5C 		.long	1545221999
 433              	 # <anonymous>:
 434 0008 04000000 		.long	4
 435              	 # <anonymous>:
 436 000c 05000000 		.long	5
 437              	 # <anonymous>:
 438 0010 CCE810FB 		.long	-82777908
 439              	 # <anonymous>:
 440 0014 03000000 		.long	3
 441              	 # <anonymous>:
 442 0018 04000000 		.long	4
 443              	 # <anonymous>:
 444 001c 1390AE3D 		.long	1034850323
 445              	 # <anonymous>:
 446 0020 04000000 		.long	4
 447              	 # <anonymous>:
 448 0024 03000000 		.long	3
 449              	 # <anonymous>:
 450 0028 D7E89FD0 		.long	-794826537
 451              	 # <anonymous>:
 452 002c 04000000 		.long	4
 453              	 # <anonymous>:
 454 0030 02000000 		.long	2
 455              	 # <anonymous>:
 456 0034 B9F612A0 		.long	-1609369927
 457              	 # <anonymous>:
 458 0038 05000000 		.long	5
 459              	 # <anonymous>:
 460 003c 01000000 		.long	1
 461              	 # <anonymous>:
 462 0040 C96DF0AE 		.long	-1359974967
GAS LISTING C:\cygwin\tmp\ccZMxCCf.s 			page 11


 463              	 # <anonymous>:
 464 0044 03000000 		.long	3
 465 0048 00000000 		.align 32
 465      00000000 
 465      00000000 
 465      00000000 
 465      00000000 
 466              	LPBX0:
 467              	 # <anonymous>:
 468 0060 2A363034 		.long	875574826
 469              	 # <anonymous>:
 470 0064 00000000 		.long	0
 471              	 # <anonymous>:
 472 0068 80287060 		.long	1617963136
 473              	 # <anonymous>:
 474 006c 00000000 		.long	LC0
 475              	 # <anonymous>:
 476 0070 06000000 		.long	6
 477              	 # <anonymous>:
 478 0074 00000000 		.long	LC1
 479              	 # <anonymous>:
 480 0078 01000000 		.long	1
 481              	 # <anonymous>:
 482              	 # <anonymous>:
 483 007c 17000000 		.long	23
 484              	 # <anonymous>:
 485 0080 00000000 		.long	LPBX1
 486              	 # <anonymous>:
 487 0084 00000000 		.long	___gcov_merge_add
 488 0088 00000000 		.space 12
 488      00000000 
 488      00000000 
 489 0094 00000000 		.text
 489      00000000 
 489      00000000 
 490              		.def	__GLOBAL__sub_I_65535_0_chPoolInit;	.scl	3;	.type	32;	.endef
 491              	__GLOBAL__sub_I_65535_0_chPoolInit:
 492              	LFB6:
 493              		.loc 1 169 0
 494              		.cfi_startproc
 495 03b9 83EC1C   		subl	$28, %esp	 #,
 496              	LCFI12:
 497              		.cfi_def_cfa_offset 32
 498              		.loc 1 169 0
 499 03bc C7042460 		movl	$LPBX0, (%esp)	 #,
 499      000000
 500 03c3 E8000000 		call	___gcov_init	 #
 500      00
 501 03c8 83C41C   		addl	$28, %esp	 #,
 502              	LCFI13:
 503              		.cfi_def_cfa_offset 4
 504 03cb C3       		ret
 505              		.cfi_endproc
 506              	LFE6:
 507              		.section	.ctors,"w"
 508              		.align 4
 509 0000 B9030000 		.long	__GLOBAL__sub_I_65535_0_chPoolInit
GAS LISTING C:\cygwin\tmp\ccZMxCCf.s 			page 12


 510              		.text
 511              	Letext0:
 512              		.file 2 "c:/mingw/bin/../lib/gcc/mingw32/4.6.2/include/stddef.h"
 513              		.file 3 "c:/mingw/bin/../lib/gcc/mingw32/4.6.2/../../../../include/stdint.h"
 514              		.file 4 "../../os/kernel/include/chmemcore.h"
 515              		.file 5 "../../os/kernel/include/chmempools.h"
 516              		.section	.debug_info,"dr"
 517              	Ldebug_info0:
 518 0000 B1030000 		.long	0x3b1
 519 0004 0200     		.word	0x2
 520 0006 00000000 		.secrel32	Ldebug_abbrev0
 521 000a 04       		.byte	0x4
 522 000b 01       		.uleb128 0x1
 523 000c 474E5520 		.ascii "GNU C 4.6.2\0"
 523      4320342E 
 523      362E3200 
 524 0018 01       		.byte	0x1
 525 0019 2E2E2F2E 		.ascii "../../os/kernel/src/chmempools.c\0"
 525      2E2F6F73 
 525      2F6B6572 
 525      6E656C2F 
 525      7372632F 
 526 003a 433A5C64 		.ascii "C:\\develop\\gyro\\ChibiOS\\test\\coverage\0"
 526      6576656C 
 526      6F705C67 
 526      79726F5C 
 526      43686962 
 527 0060 00000000 		.long	Ltext0
 528 0064 CC030000 		.long	Letext0
 529 0068 00000000 		.secrel32	Ldebug_line0
 530 006c 02       		.uleb128 0x2
 531 006d 04       		.byte	0x4
 532 006e 05       		.byte	0x5
 533 006f 696E7400 		.ascii "int\0"
 534 0073 03       		.uleb128 0x3
 535 0074 73697A65 		.ascii "size_t\0"
 535      5F7400
 536 007b 02       		.byte	0x2
 537 007c D4       		.byte	0xd4
 538 007d 81000000 		.long	0x81
 539 0081 02       		.uleb128 0x2
 540 0082 04       		.byte	0x4
 541 0083 07       		.byte	0x7
 542 0084 756E7369 		.ascii "unsigned int\0"
 542      676E6564 
 542      20696E74 
 542      00
 543 0091 02       		.uleb128 0x2
 544 0092 02       		.byte	0x2
 545 0093 07       		.byte	0x7
 546 0094 73686F72 		.ascii "short unsigned int\0"
 546      7420756E 
 546      7369676E 
 546      65642069 
 546      6E7400
 547 00a7 02       		.uleb128 0x2
 548 00a8 01       		.byte	0x1
GAS LISTING C:\cygwin\tmp\ccZMxCCf.s 			page 13


 549 00a9 06       		.byte	0x6
 550 00aa 7369676E 		.ascii "signed char\0"
 550      65642063 
 550      68617200 
 551 00b6 03       		.uleb128 0x3
 552 00b7 75696E74 		.ascii "uint8_t\0"
 552      385F7400 
 553 00bf 03       		.byte	0x3
 554 00c0 1C       		.byte	0x1c
 555 00c1 C5000000 		.long	0xc5
 556 00c5 02       		.uleb128 0x2
 557 00c6 01       		.byte	0x1
 558 00c7 08       		.byte	0x8
 559 00c8 756E7369 		.ascii "unsigned char\0"
 559      676E6564 
 559      20636861 
 559      7200
 560 00d6 02       		.uleb128 0x2
 561 00d7 02       		.byte	0x2
 562 00d8 05       		.byte	0x5
 563 00d9 73686F72 		.ascii "short int\0"
 563      7420696E 
 563      7400
 564 00e3 02       		.uleb128 0x2
 565 00e4 08       		.byte	0x8
 566 00e5 05       		.byte	0x5
 567 00e6 6C6F6E67 		.ascii "long long int\0"
 567      206C6F6E 
 567      6720696E 
 567      7400
 568 00f4 02       		.uleb128 0x2
 569 00f5 08       		.byte	0x8
 570 00f6 07       		.byte	0x7
 571 00f7 6C6F6E67 		.ascii "long long unsigned int\0"
 571      206C6F6E 
 571      6720756E 
 571      7369676E 
 571      65642069 
 572 010e 02       		.uleb128 0x2
 573 010f 01       		.byte	0x1
 574 0110 02       		.byte	0x2
 575 0111 5F426F6F 		.ascii "_Bool\0"
 575      6C00
 576 0117 04       		.uleb128 0x4
 577 0118 04       		.byte	0x4
 578 0119 03       		.uleb128 0x3
 579 011a 6D656D67 		.ascii "memgetfunc_t\0"
 579      65746675 
 579      6E635F74 
 579      00
 580 0127 04       		.byte	0x4
 581 0128 25       		.byte	0x25
 582 0129 2D010000 		.long	0x12d
 583 012d 05       		.uleb128 0x5
 584 012e 04       		.byte	0x4
 585 012f 33010000 		.long	0x133
 586 0133 06       		.uleb128 0x6
GAS LISTING C:\cygwin\tmp\ccZMxCCf.s 			page 14


 587 0134 01       		.byte	0x1
 588 0135 17010000 		.long	0x117
 589 0139 43010000 		.long	0x143
 590 013d 07       		.uleb128 0x7
 591 013e 73000000 		.long	0x73
 592 0142 00       		.byte	0
 593 0143 08       		.uleb128 0x8
 594 0144 706F6F6C 		.ascii "pool_header\0"
 594      5F686561 
 594      64657200 
 595 0150 04       		.byte	0x4
 596 0151 05       		.byte	0x5
 597 0152 25       		.byte	0x25
 598 0153 6A010000 		.long	0x16a
 599 0157 09       		.uleb128 0x9
 600 0158 70685F6E 		.ascii "ph_next\0"
 600      65787400 
 601 0160 05       		.byte	0x5
 602 0161 26       		.byte	0x26
 603 0162 6A010000 		.long	0x16a
 604 0166 02       		.byte	0x2
 605 0167 23       		.byte	0x23
 606 0168 00       		.uleb128 0
 607 0169 00       		.byte	0
 608 016a 05       		.uleb128 0x5
 609 016b 04       		.byte	0x4
 610 016c 43010000 		.long	0x143
 611 0170 0A       		.uleb128 0xa
 612 0171 0C       		.byte	0xc
 613 0172 05       		.byte	0x5
 614 0173 2D       		.byte	0x2d
 615 0174 BA010000 		.long	0x1ba
 616 0178 09       		.uleb128 0x9
 617 0179 6D705F6E 		.ascii "mp_next\0"
 617      65787400 
 618 0181 05       		.byte	0x5
 619 0182 2E       		.byte	0x2e
 620 0183 6A010000 		.long	0x16a
 621 0187 02       		.byte	0x2
 622 0188 23       		.byte	0x23
 623 0189 00       		.uleb128 0
 624 018a 09       		.uleb128 0x9
 625 018b 6D705F6F 		.ascii "mp_object_size\0"
 625      626A6563 
 625      745F7369 
 625      7A6500
 626 019a 05       		.byte	0x5
 627 019b 2F       		.byte	0x2f
 628 019c 73000000 		.long	0x73
 629 01a0 02       		.byte	0x2
 630 01a1 23       		.byte	0x23
 631 01a2 04       		.uleb128 0x4
 632 01a3 09       		.uleb128 0x9
 633 01a4 6D705F70 		.ascii "mp_provider\0"
 633      726F7669 
 633      64657200 
 634 01b0 05       		.byte	0x5
GAS LISTING C:\cygwin\tmp\ccZMxCCf.s 			page 15


 635 01b1 31       		.byte	0x31
 636 01b2 19010000 		.long	0x119
 637 01b6 02       		.byte	0x2
 638 01b7 23       		.byte	0x23
 639 01b8 08       		.uleb128 0x8
 640 01b9 00       		.byte	0
 641 01ba 03       		.uleb128 0x3
 642 01bb 4D656D6F 		.ascii "MemoryPool\0"
 642      7279506F 
 642      6F6C00
 643 01c6 05       		.byte	0x5
 644 01c7 33       		.byte	0x33
 645 01c8 70010000 		.long	0x170
 646 01cc 02       		.uleb128 0x2
 647 01cd 01       		.byte	0x1
 648 01ce 06       		.byte	0x6
 649 01cf 63686172 		.ascii "char\0"
 649      00
 650 01d4 0B       		.uleb128 0xb
 651 01d5 01       		.byte	0x1
 652 01d6 6368506F 		.ascii "chPoolInit\0"
 652      6F6C496E 
 652      697400
 653 01e1 01       		.byte	0x1
 654 01e2 37       		.byte	0x37
 655 01e3 01       		.byte	0x1
 656 01e4 00000000 		.long	LFB0
 657 01e8 8B000000 		.long	LFE0
 658 01ec 00000000 		.secrel32	LLST0
 659 01f0 24020000 		.long	0x224
 660 01f4 0C       		.uleb128 0xc
 661 01f5 6D7000   		.ascii "mp\0"
 662 01f8 01       		.byte	0x1
 663 01f9 37       		.byte	0x37
 664 01fa 24020000 		.long	0x224
 665 01fe 02       		.byte	0x2
 666 01ff 91       		.byte	0x91
 667 0200 00       		.sleb128 0
 668 0201 0C       		.uleb128 0xc
 669 0202 73697A65 		.ascii "size\0"
 669      00
 670 0207 01       		.byte	0x1
 671 0208 37       		.byte	0x37
 672 0209 73000000 		.long	0x73
 673 020d 02       		.byte	0x2
 674 020e 91       		.byte	0x91
 675 020f 04       		.sleb128 4
 676 0210 0C       		.uleb128 0xc
 677 0211 70726F76 		.ascii "provider\0"
 677      69646572 
 677      00
 678 021a 01       		.byte	0x1
 679 021b 37       		.byte	0x37
 680 021c 19010000 		.long	0x119
 681 0220 02       		.byte	0x2
 682 0221 91       		.byte	0x91
 683 0222 08       		.sleb128 8
GAS LISTING C:\cygwin\tmp\ccZMxCCf.s 			page 16


 684 0223 00       		.byte	0
 685 0224 05       		.uleb128 0x5
 686 0225 04       		.byte	0x4
 687 0226 BA010000 		.long	0x1ba
 688 022a 0B       		.uleb128 0xb
 689 022b 01       		.byte	0x1
 690 022c 6368506F 		.ascii "chPoolLoadArray\0"
 690      6F6C4C6F 
 690      61644172 
 690      72617900 
 691 023c 01       		.byte	0x1
 692 023d 4D       		.byte	0x4d
 693 023e 01       		.byte	0x1
 694 023f 8B000000 		.long	LFB1
 695 0243 58010000 		.long	LFE1
 696 0247 2C000000 		.secrel32	LLST1
 697 024b 75020000 		.long	0x275
 698 024f 0C       		.uleb128 0xc
 699 0250 6D7000   		.ascii "mp\0"
 700 0253 01       		.byte	0x1
 701 0254 4D       		.byte	0x4d
 702 0255 24020000 		.long	0x224
 703 0259 02       		.byte	0x2
 704 025a 91       		.byte	0x91
 705 025b 00       		.sleb128 0
 706 025c 0C       		.uleb128 0xc
 707 025d 7000     		.ascii "p\0"
 708 025f 01       		.byte	0x1
 709 0260 4D       		.byte	0x4d
 710 0261 17010000 		.long	0x117
 711 0265 02       		.byte	0x2
 712 0266 91       		.byte	0x91
 713 0267 04       		.sleb128 4
 714 0268 0C       		.uleb128 0xc
 715 0269 6E00     		.ascii "n\0"
 716 026b 01       		.byte	0x1
 717 026c 4D       		.byte	0x4d
 718 026d 73000000 		.long	0x73
 719 0271 02       		.byte	0x2
 720 0272 91       		.byte	0x91
 721 0273 08       		.sleb128 8
 722 0274 00       		.byte	0
 723 0275 0D       		.uleb128 0xd
 724 0276 01       		.byte	0x1
 725 0277 6368506F 		.ascii "chPoolAllocI\0"
 725      6F6C416C 
 725      6C6F6349 
 725      00
 726 0284 01       		.byte	0x1
 727 0285 62       		.byte	0x62
 728 0286 01       		.byte	0x1
 729 0287 17010000 		.long	0x117
 730 028b 58010000 		.long	LFB2
 731 028f 16020000 		.long	LFE2
 732 0293 58000000 		.secrel32	LLST2
 733 0297 B8020000 		.long	0x2b8
 734 029b 0C       		.uleb128 0xc
GAS LISTING C:\cygwin\tmp\ccZMxCCf.s 			page 17


 735 029c 6D7000   		.ascii "mp\0"
 736 029f 01       		.byte	0x1
 737 02a0 62       		.byte	0x62
 738 02a1 24020000 		.long	0x224
 739 02a5 02       		.byte	0x2
 740 02a6 91       		.byte	0x91
 741 02a7 00       		.sleb128 0
 742 02a8 0E       		.uleb128 0xe
 743 02a9 6F626A70 		.ascii "objp\0"
 743      00
 744 02ae 01       		.byte	0x1
 745 02af 63       		.byte	0x63
 746 02b0 17010000 		.long	0x117
 747 02b4 02       		.byte	0x2
 748 02b5 91       		.byte	0x91
 749 02b6 6C       		.sleb128 -20
 750 02b7 00       		.byte	0
 751 02b8 0D       		.uleb128 0xd
 752 02b9 01       		.byte	0x1
 753 02ba 6368506F 		.ascii "chPoolAlloc\0"
 753      6F6C416C 
 753      6C6F6300 
 754 02c6 01       		.byte	0x1
 755 02c7 79       		.byte	0x79
 756 02c8 01       		.byte	0x1
 757 02c9 17010000 		.long	0x117
 758 02cd 16020000 		.long	LFB3
 759 02d1 A3020000 		.long	LFE3
 760 02d5 84000000 		.secrel32	LLST3
 761 02d9 FA020000 		.long	0x2fa
 762 02dd 0C       		.uleb128 0xc
 763 02de 6D7000   		.ascii "mp\0"
 764 02e1 01       		.byte	0x1
 765 02e2 79       		.byte	0x79
 766 02e3 24020000 		.long	0x224
 767 02e7 02       		.byte	0x2
 768 02e8 91       		.byte	0x91
 769 02e9 00       		.sleb128 0
 770 02ea 0E       		.uleb128 0xe
 771 02eb 6F626A70 		.ascii "objp\0"
 771      00
 772 02f0 01       		.byte	0x1
 773 02f1 7A       		.byte	0x7a
 774 02f2 17010000 		.long	0x117
 775 02f6 02       		.byte	0x2
 776 02f7 91       		.byte	0x91
 777 02f8 6C       		.sleb128 -20
 778 02f9 00       		.byte	0
 779 02fa 0B       		.uleb128 0xb
 780 02fb 01       		.byte	0x1
 781 02fc 6368506F 		.ascii "chPoolFreeI\0"
 781      6F6C4672 
 781      65654900 
 782 0308 01       		.byte	0x1
 783 0309 8E       		.byte	0x8e
 784 030a 01       		.byte	0x1
 785 030b A3020000 		.long	LFB4
GAS LISTING C:\cygwin\tmp\ccZMxCCf.s 			page 18


 786 030f 2C030000 		.long	LFE4
 787 0313 B0000000 		.secrel32	LLST4
 788 0317 46030000 		.long	0x346
 789 031b 0C       		.uleb128 0xc
 790 031c 6D7000   		.ascii "mp\0"
 791 031f 01       		.byte	0x1
 792 0320 8E       		.byte	0x8e
 793 0321 24020000 		.long	0x224
 794 0325 02       		.byte	0x2
 795 0326 91       		.byte	0x91
 796 0327 00       		.sleb128 0
 797 0328 0C       		.uleb128 0xc
 798 0329 6F626A70 		.ascii "objp\0"
 798      00
 799 032e 01       		.byte	0x1
 800 032f 8E       		.byte	0x8e
 801 0330 17010000 		.long	0x117
 802 0334 02       		.byte	0x2
 803 0335 91       		.byte	0x91
 804 0336 04       		.sleb128 4
 805 0337 0E       		.uleb128 0xe
 806 0338 70687000 		.ascii "php\0"
 807 033c 01       		.byte	0x1
 808 033d 8F       		.byte	0x8f
 809 033e 6A010000 		.long	0x16a
 810 0342 02       		.byte	0x2
 811 0343 91       		.byte	0x91
 812 0344 74       		.sleb128 -12
 813 0345 00       		.byte	0
 814 0346 0B       		.uleb128 0xb
 815 0347 01       		.byte	0x1
 816 0348 6368506F 		.ascii "chPoolFree\0"
 816      6F6C4672 
 816      656500
 817 0353 01       		.byte	0x1
 818 0354 A4       		.byte	0xa4
 819 0355 01       		.byte	0x1
 820 0356 2C030000 		.long	LFB5
 821 035a B9030000 		.long	LFE5
 822 035e DC000000 		.secrel32	LLST5
 823 0362 83030000 		.long	0x383
 824 0366 0C       		.uleb128 0xc
 825 0367 6D7000   		.ascii "mp\0"
 826 036a 01       		.byte	0x1
 827 036b A4       		.byte	0xa4
 828 036c 24020000 		.long	0x224
 829 0370 02       		.byte	0x2
 830 0371 91       		.byte	0x91
 831 0372 00       		.sleb128 0
 832 0373 0C       		.uleb128 0xc
 833 0374 6F626A70 		.ascii "objp\0"
 833      00
 834 0379 01       		.byte	0x1
 835 037a A4       		.byte	0xa4
 836 037b 17010000 		.long	0x117
 837 037f 02       		.byte	0x2
 838 0380 91       		.byte	0x91
GAS LISTING C:\cygwin\tmp\ccZMxCCf.s 			page 19


 839 0381 04       		.sleb128 4
 840 0382 00       		.byte	0
 841 0383 0F       		.uleb128 0xf
 842 0384 5F474C4F 		.ascii "_GLOBAL__sub_I_65535_0_chPoolInit\0"
 842      42414C5F 
 842      5F737562 
 842      5F495F36 
 842      35353335 
 843 03a6 01       		.byte	0x1
 844 03a7 01       		.byte	0x1
 845 03a8 B9030000 		.long	LFB6
 846 03ac CC030000 		.long	LFE6
 847 03b0 08010000 		.secrel32	LLST6
 848 03b4 00       		.byte	0
 849              		.section	.debug_abbrev,"dr"
 850              	Ldebug_abbrev0:
 851 0000 01       		.uleb128 0x1
 852 0001 11       		.uleb128 0x11
 853 0002 01       		.byte	0x1
 854 0003 25       		.uleb128 0x25
 855 0004 08       		.uleb128 0x8
 856 0005 13       		.uleb128 0x13
 857 0006 0B       		.uleb128 0xb
 858 0007 03       		.uleb128 0x3
 859 0008 08       		.uleb128 0x8
 860 0009 1B       		.uleb128 0x1b
 861 000a 08       		.uleb128 0x8
 862 000b 11       		.uleb128 0x11
 863 000c 01       		.uleb128 0x1
 864 000d 12       		.uleb128 0x12
 865 000e 01       		.uleb128 0x1
 866 000f 10       		.uleb128 0x10
 867 0010 06       		.uleb128 0x6
 868 0011 00       		.byte	0
 869 0012 00       		.byte	0
 870 0013 02       		.uleb128 0x2
 871 0014 24       		.uleb128 0x24
 872 0015 00       		.byte	0
 873 0016 0B       		.uleb128 0xb
 874 0017 0B       		.uleb128 0xb
 875 0018 3E       		.uleb128 0x3e
 876 0019 0B       		.uleb128 0xb
 877 001a 03       		.uleb128 0x3
 878 001b 08       		.uleb128 0x8
 879 001c 00       		.byte	0
 880 001d 00       		.byte	0
 881 001e 03       		.uleb128 0x3
 882 001f 16       		.uleb128 0x16
 883 0020 00       		.byte	0
 884 0021 03       		.uleb128 0x3
 885 0022 08       		.uleb128 0x8
 886 0023 3A       		.uleb128 0x3a
 887 0024 0B       		.uleb128 0xb
 888 0025 3B       		.uleb128 0x3b
 889 0026 0B       		.uleb128 0xb
 890 0027 49       		.uleb128 0x49
 891 0028 13       		.uleb128 0x13
GAS LISTING C:\cygwin\tmp\ccZMxCCf.s 			page 20


 892 0029 00       		.byte	0
 893 002a 00       		.byte	0
 894 002b 04       		.uleb128 0x4
 895 002c 0F       		.uleb128 0xf
 896 002d 00       		.byte	0
 897 002e 0B       		.uleb128 0xb
 898 002f 0B       		.uleb128 0xb
 899 0030 00       		.byte	0
 900 0031 00       		.byte	0
 901 0032 05       		.uleb128 0x5
 902 0033 0F       		.uleb128 0xf
 903 0034 00       		.byte	0
 904 0035 0B       		.uleb128 0xb
 905 0036 0B       		.uleb128 0xb
 906 0037 49       		.uleb128 0x49
 907 0038 13       		.uleb128 0x13
 908 0039 00       		.byte	0
 909 003a 00       		.byte	0
 910 003b 06       		.uleb128 0x6
 911 003c 15       		.uleb128 0x15
 912 003d 01       		.byte	0x1
 913 003e 27       		.uleb128 0x27
 914 003f 0C       		.uleb128 0xc
 915 0040 49       		.uleb128 0x49
 916 0041 13       		.uleb128 0x13
 917 0042 01       		.uleb128 0x1
 918 0043 13       		.uleb128 0x13
 919 0044 00       		.byte	0
 920 0045 00       		.byte	0
 921 0046 07       		.uleb128 0x7
 922 0047 05       		.uleb128 0x5
 923 0048 00       		.byte	0
 924 0049 49       		.uleb128 0x49
 925 004a 13       		.uleb128 0x13
 926 004b 00       		.byte	0
 927 004c 00       		.byte	0
 928 004d 08       		.uleb128 0x8
 929 004e 13       		.uleb128 0x13
 930 004f 01       		.byte	0x1
 931 0050 03       		.uleb128 0x3
 932 0051 08       		.uleb128 0x8
 933 0052 0B       		.uleb128 0xb
 934 0053 0B       		.uleb128 0xb
 935 0054 3A       		.uleb128 0x3a
 936 0055 0B       		.uleb128 0xb
 937 0056 3B       		.uleb128 0x3b
 938 0057 0B       		.uleb128 0xb
 939 0058 01       		.uleb128 0x1
 940 0059 13       		.uleb128 0x13
 941 005a 00       		.byte	0
 942 005b 00       		.byte	0
 943 005c 09       		.uleb128 0x9
 944 005d 0D       		.uleb128 0xd
 945 005e 00       		.byte	0
 946 005f 03       		.uleb128 0x3
 947 0060 08       		.uleb128 0x8
 948 0061 3A       		.uleb128 0x3a
GAS LISTING C:\cygwin\tmp\ccZMxCCf.s 			page 21


 949 0062 0B       		.uleb128 0xb
 950 0063 3B       		.uleb128 0x3b
 951 0064 0B       		.uleb128 0xb
 952 0065 49       		.uleb128 0x49
 953 0066 13       		.uleb128 0x13
 954 0067 38       		.uleb128 0x38
 955 0068 0A       		.uleb128 0xa
 956 0069 00       		.byte	0
 957 006a 00       		.byte	0
 958 006b 0A       		.uleb128 0xa
 959 006c 13       		.uleb128 0x13
 960 006d 01       		.byte	0x1
 961 006e 0B       		.uleb128 0xb
 962 006f 0B       		.uleb128 0xb
 963 0070 3A       		.uleb128 0x3a
 964 0071 0B       		.uleb128 0xb
 965 0072 3B       		.uleb128 0x3b
 966 0073 0B       		.uleb128 0xb
 967 0074 01       		.uleb128 0x1
 968 0075 13       		.uleb128 0x13
 969 0076 00       		.byte	0
 970 0077 00       		.byte	0
 971 0078 0B       		.uleb128 0xb
 972 0079 2E       		.uleb128 0x2e
 973 007a 01       		.byte	0x1
 974 007b 3F       		.uleb128 0x3f
 975 007c 0C       		.uleb128 0xc
 976 007d 03       		.uleb128 0x3
 977 007e 08       		.uleb128 0x8
 978 007f 3A       		.uleb128 0x3a
 979 0080 0B       		.uleb128 0xb
 980 0081 3B       		.uleb128 0x3b
 981 0082 0B       		.uleb128 0xb
 982 0083 27       		.uleb128 0x27
 983 0084 0C       		.uleb128 0xc
 984 0085 11       		.uleb128 0x11
 985 0086 01       		.uleb128 0x1
 986 0087 12       		.uleb128 0x12
 987 0088 01       		.uleb128 0x1
 988 0089 40       		.uleb128 0x40
 989 008a 06       		.uleb128 0x6
 990 008b 01       		.uleb128 0x1
 991 008c 13       		.uleb128 0x13
 992 008d 00       		.byte	0
 993 008e 00       		.byte	0
 994 008f 0C       		.uleb128 0xc
 995 0090 05       		.uleb128 0x5
 996 0091 00       		.byte	0
 997 0092 03       		.uleb128 0x3
 998 0093 08       		.uleb128 0x8
 999 0094 3A       		.uleb128 0x3a
 1000 0095 0B       		.uleb128 0xb
 1001 0096 3B       		.uleb128 0x3b
 1002 0097 0B       		.uleb128 0xb
 1003 0098 49       		.uleb128 0x49
 1004 0099 13       		.uleb128 0x13
 1005 009a 02       		.uleb128 0x2
GAS LISTING C:\cygwin\tmp\ccZMxCCf.s 			page 22


 1006 009b 0A       		.uleb128 0xa
 1007 009c 00       		.byte	0
 1008 009d 00       		.byte	0
 1009 009e 0D       		.uleb128 0xd
 1010 009f 2E       		.uleb128 0x2e
 1011 00a0 01       		.byte	0x1
 1012 00a1 3F       		.uleb128 0x3f
 1013 00a2 0C       		.uleb128 0xc
 1014 00a3 03       		.uleb128 0x3
 1015 00a4 08       		.uleb128 0x8
 1016 00a5 3A       		.uleb128 0x3a
 1017 00a6 0B       		.uleb128 0xb
 1018 00a7 3B       		.uleb128 0x3b
 1019 00a8 0B       		.uleb128 0xb
 1020 00a9 27       		.uleb128 0x27
 1021 00aa 0C       		.uleb128 0xc
 1022 00ab 49       		.uleb128 0x49
 1023 00ac 13       		.uleb128 0x13
 1024 00ad 11       		.uleb128 0x11
 1025 00ae 01       		.uleb128 0x1
 1026 00af 12       		.uleb128 0x12
 1027 00b0 01       		.uleb128 0x1
 1028 00b1 40       		.uleb128 0x40
 1029 00b2 06       		.uleb128 0x6
 1030 00b3 01       		.uleb128 0x1
 1031 00b4 13       		.uleb128 0x13
 1032 00b5 00       		.byte	0
 1033 00b6 00       		.byte	0
 1034 00b7 0E       		.uleb128 0xe
 1035 00b8 34       		.uleb128 0x34
 1036 00b9 00       		.byte	0
 1037 00ba 03       		.uleb128 0x3
 1038 00bb 08       		.uleb128 0x8
 1039 00bc 3A       		.uleb128 0x3a
 1040 00bd 0B       		.uleb128 0xb
 1041 00be 3B       		.uleb128 0x3b
 1042 00bf 0B       		.uleb128 0xb
 1043 00c0 49       		.uleb128 0x49
 1044 00c1 13       		.uleb128 0x13
 1045 00c2 02       		.uleb128 0x2
 1046 00c3 0A       		.uleb128 0xa
 1047 00c4 00       		.byte	0
 1048 00c5 00       		.byte	0
 1049 00c6 0F       		.uleb128 0xf
 1050 00c7 2E       		.uleb128 0x2e
 1051 00c8 00       		.byte	0
 1052 00c9 03       		.uleb128 0x3
 1053 00ca 08       		.uleb128 0x8
 1054 00cb 27       		.uleb128 0x27
 1055 00cc 0C       		.uleb128 0xc
 1056 00cd 34       		.uleb128 0x34
 1057 00ce 0C       		.uleb128 0xc
 1058 00cf 11       		.uleb128 0x11
 1059 00d0 01       		.uleb128 0x1
 1060 00d1 12       		.uleb128 0x12
 1061 00d2 01       		.uleb128 0x1
 1062 00d3 40       		.uleb128 0x40
GAS LISTING C:\cygwin\tmp\ccZMxCCf.s 			page 23


 1063 00d4 06       		.uleb128 0x6
 1064 00d5 00       		.byte	0
 1065 00d6 00       		.byte	0
 1066 00d7 00       		.byte	0
 1067              		.section	.debug_loc,"dr"
 1068              	Ldebug_loc0:
 1069              	LLST0:
 1070 0000 00000000 		.long	LFB0-Ltext0
 1071 0004 03000000 		.long	LCFI0-Ltext0
 1072 0008 0200     		.word	0x2
 1073 000a 74       		.byte	0x74
 1074 000b 04       		.sleb128 4
 1075 000c 03000000 		.long	LCFI0-Ltext0
 1076 0010 8A000000 		.long	LCFI1-Ltext0
 1077 0014 0200     		.word	0x2
 1078 0016 74       		.byte	0x74
 1079 0017 08       		.sleb128 8
 1080 0018 8A000000 		.long	LCFI1-Ltext0
 1081 001c 8B000000 		.long	LFE0-Ltext0
 1082 0020 0200     		.word	0x2
 1083 0022 74       		.byte	0x74
 1084 0023 04       		.sleb128 4
 1085 0024 00000000 		.long	0
 1086 0028 00000000 		.long	0
 1087              	LLST1:
 1088 002c 8B000000 		.long	LFB1-Ltext0
 1089 0030 8E000000 		.long	LCFI2-Ltext0
 1090 0034 0200     		.word	0x2
 1091 0036 74       		.byte	0x74
 1092 0037 04       		.sleb128 4
 1093 0038 8E000000 		.long	LCFI2-Ltext0
 1094 003c 57010000 		.long	LCFI3-Ltext0
 1095 0040 0200     		.word	0x2
 1096 0042 74       		.byte	0x74
 1097 0043 20       		.sleb128 32
 1098 0044 57010000 		.long	LCFI3-Ltext0
 1099 0048 58010000 		.long	LFE1-Ltext0
 1100 004c 0200     		.word	0x2
 1101 004e 74       		.byte	0x74
 1102 004f 04       		.sleb128 4
 1103 0050 00000000 		.long	0
 1104 0054 00000000 		.long	0
 1105              	LLST2:
 1106 0058 58010000 		.long	LFB2-Ltext0
 1107 005c 5B010000 		.long	LCFI4-Ltext0
 1108 0060 0200     		.word	0x2
 1109 0062 74       		.byte	0x74
 1110 0063 04       		.sleb128 4
 1111 0064 5B010000 		.long	LCFI4-Ltext0
 1112 0068 15020000 		.long	LCFI5-Ltext0
 1113 006c 0200     		.word	0x2
 1114 006e 74       		.byte	0x74
 1115 006f 30       		.sleb128 48
 1116 0070 15020000 		.long	LCFI5-Ltext0
 1117 0074 16020000 		.long	LFE2-Ltext0
 1118 0078 0200     		.word	0x2
 1119 007a 74       		.byte	0x74
GAS LISTING C:\cygwin\tmp\ccZMxCCf.s 			page 24


 1120 007b 04       		.sleb128 4
 1121 007c 00000000 		.long	0
 1122 0080 00000000 		.long	0
 1123              	LLST3:
 1124 0084 16020000 		.long	LFB3-Ltext0
 1125 0088 19020000 		.long	LCFI6-Ltext0
 1126 008c 0200     		.word	0x2
 1127 008e 74       		.byte	0x74
 1128 008f 04       		.sleb128 4
 1129 0090 19020000 		.long	LCFI6-Ltext0
 1130 0094 A2020000 		.long	LCFI7-Ltext0
 1131 0098 0200     		.word	0x2
 1132 009a 74       		.byte	0x74
 1133 009b 30       		.sleb128 48
 1134 009c A2020000 		.long	LCFI7-Ltext0
 1135 00a0 A3020000 		.long	LFE3-Ltext0
 1136 00a4 0200     		.word	0x2
 1137 00a6 74       		.byte	0x74
 1138 00a7 04       		.sleb128 4
 1139 00a8 00000000 		.long	0
 1140 00ac 00000000 		.long	0
 1141              	LLST4:
 1142 00b0 A3020000 		.long	LFB4-Ltext0
 1143 00b4 A6020000 		.long	LCFI8-Ltext0
 1144 00b8 0200     		.word	0x2
 1145 00ba 74       		.byte	0x74
 1146 00bb 04       		.sleb128 4
 1147 00bc A6020000 		.long	LCFI8-Ltext0
 1148 00c0 2B030000 		.long	LCFI9-Ltext0
 1149 00c4 0200     		.word	0x2
 1150 00c6 74       		.byte	0x74
 1151 00c7 18       		.sleb128 24
 1152 00c8 2B030000 		.long	LCFI9-Ltext0
 1153 00cc 2C030000 		.long	LFE4-Ltext0
 1154 00d0 0200     		.word	0x2
 1155 00d2 74       		.byte	0x74
 1156 00d3 04       		.sleb128 4
 1157 00d4 00000000 		.long	0
 1158 00d8 00000000 		.long	0
 1159              	LLST5:
 1160 00dc 2C030000 		.long	LFB5-Ltext0
 1161 00e0 2F030000 		.long	LCFI10-Ltext0
 1162 00e4 0200     		.word	0x2
 1163 00e6 74       		.byte	0x74
 1164 00e7 04       		.sleb128 4
 1165 00e8 2F030000 		.long	LCFI10-Ltext0
 1166 00ec B8030000 		.long	LCFI11-Ltext0
 1167 00f0 0200     		.word	0x2
 1168 00f2 74       		.byte	0x74
 1169 00f3 10       		.sleb128 16
 1170 00f4 B8030000 		.long	LCFI11-Ltext0
 1171 00f8 B9030000 		.long	LFE5-Ltext0
 1172 00fc 0200     		.word	0x2
 1173 00fe 74       		.byte	0x74
 1174 00ff 04       		.sleb128 4
 1175 0100 00000000 		.long	0
 1176 0104 00000000 		.long	0
GAS LISTING C:\cygwin\tmp\ccZMxCCf.s 			page 25


 1177              	LLST6:
 1178 0108 B9030000 		.long	LFB6-Ltext0
 1179 010c BC030000 		.long	LCFI12-Ltext0
 1180 0110 0200     		.word	0x2
 1181 0112 74       		.byte	0x74
 1182 0113 04       		.sleb128 4
 1183 0114 BC030000 		.long	LCFI12-Ltext0
 1184 0118 CB030000 		.long	LCFI13-Ltext0
 1185 011c 0200     		.word	0x2
 1186 011e 74       		.byte	0x74
 1187 011f 20       		.sleb128 32
 1188 0120 CB030000 		.long	LCFI13-Ltext0
 1189 0124 CC030000 		.long	LFE6-Ltext0
 1190 0128 0200     		.word	0x2
 1191 012a 74       		.byte	0x74
 1192 012b 04       		.sleb128 4
 1193 012c 00000000 		.long	0
 1194 0130 00000000 		.long	0
 1195              		.section	.debug_aranges,"dr"
 1196 0000 1C000000 		.long	0x1c
 1197 0004 0200     		.word	0x2
 1198 0006 00000000 		.secrel32	Ldebug_info0
 1199 000a 04       		.byte	0x4
 1200 000b 00       		.byte	0
 1201 000c 0000     		.word	0
 1202 000e 0000     		.word	0
 1203 0010 00000000 		.long	Ltext0
 1204 0014 CC030000 		.long	Letext0-Ltext0
 1205 0018 00000000 		.long	0
 1206 001c 00000000 		.long	0
 1207              		.section	.debug_line,"dr"
 1208              	Ldebug_line0:
 1209              		.def	___gcov_merge_add;	.scl	2;	.type	32;	.endef
 1210 0000 92010000 		.def	___gcov_init;	.scl	2;	.type	32;	.endef
 1210      0200EE00 
 1210      00000101 
 1210      FB0E0D00 
 1210      01010101 
GAS LISTING C:\cygwin\tmp\ccZMxCCf.s 			page 26


DEFINED SYMBOLS
                            *ABS*:00000000 chmempools.c
C:\cygwin\tmp\ccZMxCCf.s:45     .text:00000000 _chPoolInit
C:\cygwin\tmp\ccZMxCCf.s:102    .text:0000008b _chPoolLoadArray
C:\cygwin\tmp\ccZMxCCf.s:177    .text:00000158 _chPoolAllocI
C:\cygwin\tmp\ccZMxCCf.s:247    .text:00000216 _chPoolAlloc
C:\cygwin\tmp\ccZMxCCf.s:307    .text:000002a3 _chPoolFreeI
C:\cygwin\tmp\ccZMxCCf.s:364    .text:0000032c _chPoolFree
C:\cygwin\tmp\ccZMxCCf.s:491    .text:000003b9 __GLOBAL__sub_I_65535_0_chPoolInit

UNDEFINED SYMBOLS
___gcov_merge_add
___gcov_init
