GAS LISTING C:\cygwin\tmp\ccDFoZ8B.s 			page 1


   1              		.file	"chmemcore.c"
   2              	 # GNU C (GCC) version 4.6.2 (mingw32)
   3              	 #	compiled by GNU C version 4.6.2, GMP version 5.0.1, MPFR version 2.4.1, MPC version 0.8.1
   4              	 # GGC heuristics: --param ggc-min-expand=100 --param ggc-min-heapsize=131072
   5              	 # options passed:  -I . -I ../../os/ports/GCC/SIMIA32
   6              	 # -I ../../os/kernel/include -I ../../test -I ../../os/hal/include
   7              	 # -I ../../os/hal/platforms/Win32 -I ../../boards/simulator
   8              	 # -I ../../os/various -iprefix c:\mingw\bin\../lib/gcc/mingw32/4.6.2/
   9              	 # -MD ../../os/kernel/src/chmemcore.d -MF .dep/chmemcore.o.d -MP
  10              	 # -MQ ../../os/kernel/src/chmemcore.o -D SIMULATOR
  11              	 # ../../os/kernel/src/chmemcore.c -mtune=i386 -march=i386
  12              	 # -auxbase-strip ../../os/kernel/src/chmemcore.o -ggdb -O0 -Wall -Wextra
  13              	 # -Wstrict-prototypes -fomit-frame-pointer -fprofile-arcs -ftest-coverage
  14              	 # -fverbose-asm
  15              	 # options enabled:  -fasynchronous-unwind-tables -fauto-inc-dec
  16              	 # -fbranch-count-reg -fcommon -fdelete-null-pointer-checks
  17              	 # -fdwarf2-cfi-asm -fearly-inlining -feliminate-unused-debug-types
  18              	 # -ffunction-cse -fgcse-lm -fident -finline-functions-called-once
  19              	 # -fira-share-save-slots -fira-share-spill-slots -fivopts
  20              	 # -fkeep-inline-dllexport -fkeep-static-consts -fleading-underscore
  21              	 # -fmath-errno -fmerge-debug-strings -fmove-loop-invariants
  22              	 # -fomit-frame-pointer -fpeephole -fprefetch-loop-arrays -fprofile-arcs
  23              	 # -freg-struct-return -fsched-critical-path-heuristic
  24              	 # -fsched-dep-count-heuristic -fsched-group-heuristic -fsched-interblock
  25              	 # -fsched-last-insn-heuristic -fsched-rank-heuristic -fsched-spec
  26              	 # -fsched-spec-insn-heuristic -fsched-stalled-insns-dep
  27              	 # -fset-stack-executable -fshow-column -fsigned-zeros
  28              	 # -fsplit-ivs-in-unroller -fstrict-volatile-bitfields -ftest-coverage
  29              	 # -ftrapping-math -ftree-cselim -ftree-forwprop -ftree-loop-if-convert
  30              	 # -ftree-loop-im -ftree-loop-ivcanon -ftree-loop-optimize
  31              	 # -ftree-parallelize-loops= -ftree-phiprop -ftree-pta -ftree-reassoc
  32              	 # -ftree-scev-cprop -ftree-slp-vectorize -ftree-vect-loop-version
  33              	 # -funit-at-a-time -funwind-tables -fvect-cost-model -fverbose-asm
  34              	 # -fzero-initialized-in-bss -m32 -m80387 -m96bit-long-double
  35              	 # -maccumulate-outgoing-args -malign-double -malign-stringops
  36              	 # -mfancy-math-387 -mfp-ret-in-387 -mieee-fp -mno-red-zone -mno-sse4
  37              	 # -mpush-args -msahf -mstack-arg-probe
  38              	
  39              		.text
  40              	Ltext0:
  41              	 # Compiler executable checksum: c20aed7c018482d7b62efcd5dcab2a9d
  42              	
  43              	.lcomm _nextmem,4,4
  44              	.lcomm _endmem,4,4
  45              		.globl	__core_init
  46              		.def	__core_init;	.scl	2;	.type	32;	.endef
  47              	__core_init:
  48              	LFB0:
  49              		.file 1 "../../os/kernel/src/chmemcore.c"
  50              		.loc 1 59 0
  51              		.cfi_startproc
  52 0000 83EC0C   		subl	$12, %esp	 #,
  53              	LCFI0:
  54              		.cfi_def_cfa_offset 16
  55              		.loc 1 59 0
  56 0003 A1580002 		movl	LPBX1+56, %eax	 # *LPBX1, PROF_edge_counter.13
  56      00
GAS LISTING C:\cygwin\tmp\ccDFoZ8B.s 			page 2


  57 0008 8B155C00 		movl	LPBX1+60, %edx	 # *LPBX1, PROF_edge_counter.13
  57      0200
  58 000e 83C001   		addl	$1, %eax	 #, PROF_edge_counter.13
  59 0011 83D200   		adcl	$0, %edx	 #, PROF_edge_counter.13
  60 0014 A3580002 		movl	%eax, LPBX1+56	 # PROF_edge_counter.13, *LPBX1
  60      00
  61 0019 89155C00 		movl	%edx, LPBX1+60	 # PROF_edge_counter.13, *LPBX1
  61      0200
  62              		.loc 1 67 0
  63 001f C7050000 		movl	$_buffer.1846, _nextmem	 #, nextmem
  63      00002000 
  63      0000
  64              		.loc 1 68 0
  65 0029 C7050400 		movl	$_buffer.1846+131072, _endmem	 #, endmem
  65      00002000 
  65      0200
  66              		.loc 1 70 0
  67 0033 83C40C   		addl	$12, %esp	 #,
  68              	LCFI1:
  69              		.cfi_def_cfa_offset 4
  70 0036 C3       		ret
  71              		.cfi_endproc
  72              	LFE0:
  73              		.globl	_chCoreAlloc
  74              		.def	_chCoreAlloc;	.scl	2;	.type	32;	.endef
  75              	_chCoreAlloc:
  76              	LFB1:
  77              		.loc 1 84 0
  78              		.cfi_startproc
  79 0037 83EC2C   		subl	$44, %esp	 #,
  80              	LCFI2:
  81              		.cfi_def_cfa_offset 48
  82              		.loc 1 84 0
  83 003a A1380002 		movl	LPBX1+24, %eax	 # *LPBX1, PROF_edge_counter.12
  83      00
  84 003f 8B153C00 		movl	LPBX1+28, %edx	 # *LPBX1, PROF_edge_counter.12
  84      0200
  85 0045 83C001   		addl	$1, %eax	 #, PROF_edge_counter.12
  86 0048 83D200   		adcl	$0, %edx	 #, PROF_edge_counter.12
  87 004b A3380002 		movl	%eax, LPBX1+24	 # PROF_edge_counter.12, *LPBX1
  87      00
  88 0050 89153C00 		movl	%edx, LPBX1+28	 # PROF_edge_counter.12, *LPBX1
  88      0200
  89              		.loc 1 87 0
  90              	/APP
  91              	 # 87 "../../os/kernel/src/chmemcore.c" 1
  92 0056 90       		nop
  93              	 # 0 "" 2
  94              	/NO_APP
  95 0057 A1400002 		movl	LPBX1+32, %eax	 # *LPBX1, PROF_edge_counter.12
  95      00
  96 005c 8B154400 		movl	LPBX1+36, %edx	 # *LPBX1, PROF_edge_counter.12
  96      0200
  97 0062 83C001   		addl	$1, %eax	 #, PROF_edge_counter.12
  98 0065 83D200   		adcl	$0, %edx	 #, PROF_edge_counter.12
  99 0068 A3400002 		movl	%eax, LPBX1+32	 # PROF_edge_counter.12, *LPBX1
  99      00
GAS LISTING C:\cygwin\tmp\ccDFoZ8B.s 			page 3


 100 006d 89154400 		movl	%edx, LPBX1+36	 # PROF_edge_counter.12, *LPBX1
 100      0200
 101              		.loc 1 88 0
 102 0073 8B442430 		movl	48(%esp), %eax	 # size, tmp69
 103 0077 890424   		movl	%eax, (%esp)	 # tmp69,
 104 007a E8450000 		call	_chCoreAllocI	 #
 104      00
 105 007f 8944241C 		movl	%eax, 28(%esp)	 # tmp70, p
 106 0083 A1480002 		movl	LPBX1+40, %eax	 # *LPBX1, PROF_edge_counter.12
 106      00
 107 0088 8B154C00 		movl	LPBX1+44, %edx	 # *LPBX1, PROF_edge_counter.12
 107      0200
 108 008e 83C001   		addl	$1, %eax	 #, PROF_edge_counter.12
 109 0091 83D200   		adcl	$0, %edx	 #, PROF_edge_counter.12
 110 0094 A3480002 		movl	%eax, LPBX1+40	 # PROF_edge_counter.12, *LPBX1
 110      00
 111 0099 89154C00 		movl	%edx, LPBX1+44	 # PROF_edge_counter.12, *LPBX1
 111      0200
 112              		.loc 1 89 0
 113              	/APP
 114              	 # 89 "../../os/kernel/src/chmemcore.c" 1
 115 009f 90       		nop
 116              	 # 0 "" 2
 117              	/NO_APP
 118 00a0 A1500002 		movl	LPBX1+48, %eax	 # *LPBX1, PROF_edge_counter.12
 118      00
 119 00a5 8B155400 		movl	LPBX1+52, %edx	 # *LPBX1, PROF_edge_counter.12
 119      0200
 120 00ab 83C001   		addl	$1, %eax	 #, PROF_edge_counter.12
 121 00ae 83D200   		adcl	$0, %edx	 #, PROF_edge_counter.12
 122 00b1 A3500002 		movl	%eax, LPBX1+48	 # PROF_edge_counter.12, *LPBX1
 122      00
 123 00b6 89155400 		movl	%edx, LPBX1+52	 # PROF_edge_counter.12, *LPBX1
 123      0200
 124              		.loc 1 90 0
 125 00bc 8B44241C 		movl	28(%esp), %eax	 # p, D.2751
 126              		.loc 1 91 0
 127 00c0 83C42C   		addl	$44, %esp	 #,
 128              	LCFI3:
 129              		.cfi_def_cfa_offset 4
 130 00c3 C3       		ret
 131              		.cfi_endproc
 132              	LFE1:
 133              		.globl	_chCoreAllocI
 134              		.def	_chCoreAllocI;	.scl	2;	.type	32;	.endef
 135              	_chCoreAllocI:
 136              	LFB2:
 137              		.loc 1 105 0
 138              		.cfi_startproc
 139 00c4 83EC14   		subl	$20, %esp	 #,
 140              	LCFI4:
 141              		.cfi_def_cfa_offset 24
 142              		.loc 1 110 0
 143 00c7 8B442418 		movl	24(%esp), %eax	 # size, tmp74
 144 00cb 83C00F   		addl	$15, %eax	 #, D.2738
 145 00ce 83E0F0   		andl	$-16, %eax	 #, tmp75
 146 00d1 89442418 		movl	%eax, 24(%esp)	 # tmp75, size
GAS LISTING C:\cygwin\tmp\ccDFoZ8B.s 			page 4


 147              		.loc 1 111 0
 148 00d5 A1040000 		movl	_endmem, %eax	 # endmem, endmem.4
 148      00
 149 00da 89C2     		movl	%eax, %edx	 # endmem.4, endmem.5
 150 00dc A1000000 		movl	_nextmem, %eax	 # nextmem, nextmem.6
 150      00
 151 00e1 89D1     		movl	%edx, %ecx	 # endmem.5,
 152 00e3 29C1     		subl	%eax, %ecx	 # nextmem.7,
 153 00e5 89C8     		movl	%ecx, %eax	 #, D.2743
 154 00e7 3B442418 		cmpl	24(%esp), %eax	 # size, D.2744
 155 00eb 7323     		jae	L4	 #,
 156              		.loc 1 112 0
 157 00ed B9000000 		movl	$0, %ecx	 #, D.2747
 157      00
 158 00f2 A1280002 		movl	LPBX1+8, %eax	 # *LPBX1, PROF_edge_counter.11
 158      00
 159 00f7 8B152C00 		movl	LPBX1+12, %edx	 # *LPBX1, PROF_edge_counter.11
 159      0200
 160 00fd 83C001   		addl	$1, %eax	 #, PROF_edge_counter.11
 161 0100 83D200   		adcl	$0, %edx	 #, PROF_edge_counter.11
 162 0103 A3280002 		movl	%eax, LPBX1+8	 # PROF_edge_counter.11, *LPBX1
 162      00
 163 0108 89152C00 		movl	%edx, LPBX1+12	 # PROF_edge_counter.11, *LPBX1
 163      0200
 164 010e EB37     		jmp	L5	 #
 165              	L4:
 166              		.loc 1 113 0
 167 0110 A1000000 		movl	_nextmem, %eax	 # nextmem, tmp76
 167      00
 168 0115 8944240C 		movl	%eax, 12(%esp)	 # tmp76, p
 169              		.loc 1 114 0
 170 0119 A1000000 		movl	_nextmem, %eax	 # nextmem, nextmem.8
 170      00
 171 011e 03442418 		addl	24(%esp), %eax	 # size, nextmem.9
 172 0122 A3000000 		movl	%eax, _nextmem	 # nextmem.9, nextmem
 172      00
 173              		.loc 1 115 0
 174 0127 8B4C240C 		movl	12(%esp), %ecx	 # p, D.2747
 175 012b A1300002 		movl	LPBX1+16, %eax	 # *LPBX1, PROF_edge_counter.11
 175      00
 176 0130 8B153400 		movl	LPBX1+20, %edx	 # *LPBX1, PROF_edge_counter.11
 176      0200
 177 0136 83C001   		addl	$1, %eax	 #, PROF_edge_counter.11
 178 0139 83D200   		adcl	$0, %edx	 #, PROF_edge_counter.11
 179 013c A3300002 		movl	%eax, LPBX1+16	 # PROF_edge_counter.11, *LPBX1
 179      00
 180 0141 89153400 		movl	%edx, LPBX1+20	 # PROF_edge_counter.11, *LPBX1
 180      0200
 181              	L5:
 182 0147 89C8     		movl	%ecx, %eax	 # D.2747, <retval>
 183              		.loc 1 116 0
 184 0149 83C414   		addl	$20, %esp	 #,
 185              	LCFI5:
 186              		.cfi_def_cfa_offset 4
 187 014c C3       		ret
 188              		.cfi_endproc
 189              	LFE2:
GAS LISTING C:\cygwin\tmp\ccDFoZ8B.s 			page 5


 190              		.globl	_chCoreStatus
 191              		.def	_chCoreStatus;	.scl	2;	.type	32;	.endef
 192              	_chCoreStatus:
 193              	LFB3:
 194              		.loc 1 125 0
 195              		.cfi_startproc
 196 014d 83EC04   		subl	$4, %esp	 #,
 197              	LCFI6:
 198              		.cfi_def_cfa_offset 8
 199              		.loc 1 125 0
 200 0150 A1200002 		movl	LPBX1, %eax	 # *LPBX1, PROF_edge_counter.10
 200      00
 201 0155 8B152400 		movl	LPBX1+4, %edx	 # *LPBX1, PROF_edge_counter.10
 201      0200
 202 015b 83C001   		addl	$1, %eax	 #, PROF_edge_counter.10
 203 015e 83D200   		adcl	$0, %edx	 #, PROF_edge_counter.10
 204 0161 A3200002 		movl	%eax, LPBX1	 # PROF_edge_counter.10, *LPBX1
 204      00
 205 0166 89152400 		movl	%edx, LPBX1+4	 # PROF_edge_counter.10, *LPBX1
 205      0200
 206              		.loc 1 127 0
 207 016c A1040000 		movl	_endmem, %eax	 # endmem, endmem.0
 207      00
 208 0171 89C2     		movl	%eax, %edx	 # endmem.0, endmem.1
 209 0173 A1000000 		movl	_nextmem, %eax	 # nextmem, nextmem.2
 209      00
 210 0178 89D1     		movl	%edx, %ecx	 # endmem.1,
 211 017a 29C1     		subl	%eax, %ecx	 # nextmem.3,
 212 017c 89C8     		movl	%ecx, %eax	 #, D.2736
 213              		.loc 1 128 0
 214 017e 83C404   		addl	$4, %esp	 #,
 215              	LCFI7:
 216              		.cfi_def_cfa_offset 4
 217 0181 C3       		ret
 218              		.cfi_endproc
 219              	LFE3:
 220              	.lcomm _buffer.1846,131072,32
 221              	.lcomm LPBX1,64,32
 222              		.section .rdata,"dr"
 223              		.align 4
 224              	LC0:
 225 0000 433A5C64 		.ascii "C:\\develop\\gyro\\ChibiOS\\test\\coverage/../../os/kernel/src/chmemcore.gcda\0"
 225      6576656C 
 225      6F705C67 
 225      79726F5C 
 225      43686962 
 226 0049 000000   		.data
 227              		.align 32
 228              	LC1:
 229              	 # <anonymous>:
 230 0000 04000000 		.long	4
 231              	 # <anonymous>:
 232 0004 C8C1AF80 		.long	-2135965240
 233              	 # <anonymous>:
 234 0008 01000000 		.long	1
 235              	 # <anonymous>:
 236 000c 03000000 		.long	3
GAS LISTING C:\cygwin\tmp\ccDFoZ8B.s 			page 6


 237              	 # <anonymous>:
 238 0010 E01F9D04 		.long	77406176
 239              	 # <anonymous>:
 240 0014 02000000 		.long	2
 241              	 # <anonymous>:
 242 0018 02000000 		.long	2
 243              	 # <anonymous>:
 244 001c A78DD9B2 		.long	-1294365273
 245              	 # <anonymous>:
 246 0020 04000000 		.long	4
 247              	 # <anonymous>:
 248 0024 01000000 		.long	1
 249              	 # <anonymous>:
 250 0028 2F0308FC 		.long	-66583761
 251              	 # <anonymous>:
 252 002c 01000000 		.long	1
 253 0030 00000000 		.align 32
 253      00000000 
 253      00000000 
 253      00000000 
 254              	LPBX0:
 255              	 # <anonymous>:
 256 0040 2A363034 		.long	875574826
 257              	 # <anonymous>:
 258 0044 00000000 		.long	0
 259              	 # <anonymous>:
 260 0048 4F267060 		.long	1617962575
 261              	 # <anonymous>:
 262 004c 00000000 		.long	LC0
 263              	 # <anonymous>:
 264 0050 04000000 		.long	4
 265              	 # <anonymous>:
 266 0054 00000000 		.long	LC1
 267              	 # <anonymous>:
 268 0058 01000000 		.long	1
 269              	 # <anonymous>:
 270              	 # <anonymous>:
 271 005c 08000000 		.long	8
 272              	 # <anonymous>:
 273 0060 20000200 		.long	LPBX1
 274              	 # <anonymous>:
 275 0064 00000000 		.long	___gcov_merge_add
 276 0068 00000000 		.space 12
 276      00000000 
 276      00000000 
 277 0074 00000000 		.text
 277      00000000 
 277      00000000 
 278              		.def	__GLOBAL__sub_I_65535_0__core_init;	.scl	3;	.type	32;	.endef
 279              	__GLOBAL__sub_I_65535_0__core_init:
 280              	LFB4:
 281              		.loc 1 128 0
 282              		.cfi_startproc
 283 0182 83EC1C   		subl	$28, %esp	 #,
 284              	LCFI8:
 285              		.cfi_def_cfa_offset 32
 286              		.loc 1 128 0
GAS LISTING C:\cygwin\tmp\ccDFoZ8B.s 			page 7


 287 0185 C7042440 		movl	$LPBX0, (%esp)	 #,
 287      000000
 288 018c E8000000 		call	___gcov_init	 #
 288      00
 289 0191 83C41C   		addl	$28, %esp	 #,
 290              	LCFI9:
 291              		.cfi_def_cfa_offset 4
 292 0194 C3       		ret
 293              		.cfi_endproc
 294              	LFE4:
 295              		.section	.ctors,"w"
 296              		.align 4
 297 0000 82010000 		.long	__GLOBAL__sub_I_65535_0__core_init
 298              		.text
 299              	Letext0:
 300              		.file 2 "c:/mingw/bin/../lib/gcc/mingw32/4.6.2/include/stddef.h"
 301              		.file 3 "c:/mingw/bin/../lib/gcc/mingw32/4.6.2/../../../../include/stdint.h"
 302              		.file 4 "../../os/ports/GCC/SIMIA32/chcore.h"