GAS LISTING C:\cygwin\tmp\ccZMxCCf.s 			page 1


   1              		.file	"chmempools.c"
   2              	 # GNU C (GCC) version 4.6.2 (mingw32)
   3              	 #	compiled by GNU C version 4.6.2, GMP version 5.0.1, MPFR version 2.4.1, MPC version 0.8.1
   4              	 # GGC heuristics: --param ggc-min-expand=100 --param ggc-min-heapsize=131072
   5              	 # options passed:  -I . -I ../../os/ports/GCC/SIMIA32
   6              	 # -I ../../os/kernel/include -I ../../test -I ../../os/hal/include
   7              	 # -I ../../os/hal/platforms/Win32 -I ../../boards/simulator
   8              	 # -I ../../os/various -iprefix c:\mingw\bin\../lib/gcc/mingw32/4.6.2/
   9              	 # -MD ../../os/kernel/src/chmempools.d -MF .dep/chmempools.o.d -MP
  10              	 # -MQ ../../os/kernel/src/chmempools.o -D SIMULATOR
  11              	 # ../../os/kernel/src/chmempools.c -mtune=i386 -march=i386
  12              	 # -auxbase-strip ../../os/kernel/src/chmempools.o -ggdb -O0 -Wall -Wextra
  13              	 # -Wstrict-prototypes -fomit-frame-pointer -fprofile-arcs -ftest-coverage
  14              	 # -fverbose-asm
  15              	 # options enabled:  -fasynchronous-unwind-tables -fauto-inc-dec
  16              	 # -fbranch-count-reg -fcommon -fdelete-null-pointer-checks
  17              	 # -fdwarf2-cfi-asm -fearly-inlining -feliminate-unused-debug-types
  18              	 # -ffunction-cse -fgcse-lm -fident -finline-functions-called-once
  19              	 # -fira-share-save-slots -fira-share-spill-slots -fivopts
  20              	 # -fkeep-inline-dllexport -fkeep-static-consts -fleading-underscore
  21              	 # -fmath-errno -fmerge-debug-strings -fmove-loop-invariants
  22              	 # -fomit-frame-pointer -fpeephole -fprefetch-loop-arrays -fprofile-arcs
  23              	 # -freg-struct-return -fsched-critical-path-heuristic
  24              	 # -fsched-dep-count-heuristic -fsched-group-heuristic -fsched-interblock
  25              	 # -fsched-last-insn-heuristic -fsched-rank-heuristic -fsched-spec
  26              	 # -fsched-spec-insn-heuristic -fsched-stalled-insns-dep
  27              	 # -fset-stack-executable -fshow-column -fsigned-zeros
  28              	 # -fsplit-ivs-in-unroller -fstrict-volatile-bitfields -ftest-coverage
  29              	 # -ftrapping-math -ftree-cselim -ftree-forwprop -ftree-loop-if-convert
  30              	 # -ftree-loop-im -ftree-loop-ivcanon -ftree-loop-optimize
  31              	 # -ftree-parallelize-loops= -ftree-phiprop -ftree-pta -ftree-reassoc
  32              	 # -ftree-scev-cprop -ftree-slp-vectorize -ftree-vect-loop-version
  33              	 # -funit-at-a-time -funwind-tables -fvect-cost-model -fverbose-asm
  34              	 # -fzero-initialized-in-bss -m32 -m80387 -m96bit-long-double
  35              	 # -maccumulate-outgoing-args -malign-double -malign-stringops
  36              	 # -mfancy-math-387 -mfp-ret-in-387 -mieee-fp -mno-red-zone -mno-sse4
  37              	 # -mpush-args -msahf -mstack-arg-probe
  38              	
  39              		.text
  40              	Ltext0:
  41              	 # Compiler executable checksum: c20aed7c018482d7b62efcd5dcab2a9d
  42              	
  43              		.globl	_chPoolInit
  44              		.def	_chPoolInit;	.scl	2;	.type	32;	.endef
  45              	_chPoolInit:
  46              	LFB0:
  47              		.file 1 "../../os/kernel/src/chmempools.c"
  48              		.loc 1 55 0
  49              		.cfi_startproc
  50 0000 83EC04   		subl	$4, %esp	 #,
  51              	LCFI0:
  52              		.cfi_def_cfa_offset 8
  53              		.loc 1 57 0
  54 0003 837C2408 		cmpl	$0, 8(%esp)	 #, mp
  54      00
  55 0008 7441     		je	L2	 #,
  56              		.loc 1 57 0 is_stmt 0 discriminator 1
GAS LISTING C:\cygwin\tmp\ccZMxCCf.s 			page 2


  57 000a A1A00000 		movl	LPBX1+160, %eax	 # *LPBX1, PROF_edge_counter.8
  57      00
  58 000f 8B15A400 		movl	LPBX1+164, %edx	 # *LPBX1, PROF_edge_counter.8
  58      0000
  59 0015 83C001   		addl	$1, %eax	 #, PROF_edge_counter.8
  60 0018 83D200   		adcl	$0, %edx	 #, PROF_edge_counter.8
  61 001b A3A00000 		movl	%eax, LPBX1+160	 # PROF_edge_counter.8, *LPBX1
  61      00
  62 0020 8915A400 		movl	%edx, LPBX1+164	 # PROF_edge_counter.8, *LPBX1
  62      0000
  63 0026 837C240C 		cmpl	$3, 12(%esp)	 #, size
  63      03
  64 002b 761E     		jbe	L2	 #,
  65              		.loc 1 57 0 discriminator 3
  66 002d A1A80000 		movl	LPBX1+168, %eax	 # *LPBX1, PROF_edge_counter.8
  66      00
  67 0032 8B15AC00 		movl	LPBX1+172, %edx	 # *LPBX1, PROF_edge_counter.8
  67      0000
  68 0038 83C001   		addl	$1, %eax	 #, PROF_edge_counter.8
  69 003b 83D200   		adcl	$0, %edx	 #, PROF_edge_counter.8
  70 003e A3A80000 		movl	%eax, LPBX1+168	 # PROF_edge_counter.8, *LPBX1
  70      00
  71 0043 8915AC00 		movl	%edx, LPBX1+172	 # PROF_edge_counter.8, *LPBX1
  71      0000
  72 0049 EB1C     		jmp	L3	 #
  73              	L2:
  74              		.loc 1 57 0 discriminator 2
  75 004b A1B00000 		movl	LPBX1+176, %eax	 # *LPBX1, PROF_edge_counter.8
  75      00
  76 0050 8B15B400 		movl	LPBX1+180, %edx	 # *LPBX1, PROF_edge_counter.8
  76      0000
  77 0056 83C001   		addl	$1, %eax	 #, PROF_edge_counter.8
  78 0059 83D200   		adcl	$0, %edx	 #, PROF_edge_counter.8
  79 005c A3B00000 		movl	%eax, LPBX1+176	 # PROF_edge_counter.8, *LPBX1
  79      00
  80 0061 8915B400 		movl	%edx, LPBX1+180	 # PROF_edge_counter.8, *LPBX1
  80      0000
  81              	L3:
  82              		.loc 1 59 0 is_stmt 1
  83 0067 8B442408 		movl	8(%esp), %eax	 # mp, tmp67
  84 006b C7000000 		movl	$0, (%eax)	 #, mp_1(D)->mp_next
  84      0000
  85              		.loc 1 60 0
  86 0071 8B442408 		movl	8(%esp), %eax	 # mp, tmp68
  87 0075 8B54240C 		movl	12(%esp), %edx	 # size, tmp69
  88 0079 895004   		movl	%edx, 4(%eax)	 # tmp69, mp_1(D)->mp_object_size
  89              		.loc 1 61 0
  90 007c 8B442408 		movl	8(%esp), %eax	 # mp, tmp70
  91 0080 8B542410 		movl	16(%esp), %edx	 # provider, tmp71
  92 0084 895008   		movl	%edx, 8(%eax)	 # tmp71, mp_1(D)->mp_provider
  93              		.loc 1 62 0
  94 0087 83C404   		addl	$4, %esp	 #,
  95              	LCFI1:
  96              		.cfi_def_cfa_offset 4
  97 008a C3       		ret
  98              		.cfi_endproc
  99              	LFE0:
GAS LISTING C:\cygwin\tmp\ccZMxCCf.s 			page 3


 100              		.globl	_chPoolLoadArray
 101              		.def	_chPoolLoadArray;	.scl	2;	.type	32;	.endef
 102              	_chPoolLoadArray:
 103              	LFB1:
 104              		.loc 1 77 0
 105              		.cfi_startproc
 106 008b 83EC1C   		subl	$28, %esp	 #,
 107              	LCFI2:
 108              		.cfi_def_cfa_offset 32
 109              		.loc 1 79 0
 110 008e 837C2420 		cmpl	$0, 32(%esp)	 #, mp
 110      00
 111 0093 7423     		je	L5	 #,
 112              		.loc 1 79 0 is_stmt 0 discriminator 1
 113 0095 A1780000 		movl	LPBX1+120, %eax	 # *LPBX1, PROF_edge_counter.7
 113      00
 114 009a 8B157C00 		movl	LPBX1+124, %edx	 # *LPBX1, PROF_edge_counter.7
 114      0000
 115 00a0 83C001   		addl	$1, %eax	 #, PROF_edge_counter.7
 116 00a3 83D200   		adcl	$0, %edx	 #, PROF_edge_counter.7
 117 00a6 A3780000 		movl	%eax, LPBX1+120	 # PROF_edge_counter.7, *LPBX1
 117      00
 118 00ab 89157C00 		movl	%edx, LPBX1+124	 # PROF_edge_counter.7, *LPBX1
 118      0000
 119 00b1 837C2428 		cmpl	$0, 40(%esp)	 #, n
 119      00
 120 00b6 7579     		jne	L7	 #,
 121              	L5:
 122              		.loc 1 79 0 discriminator 2
 123 00b8 A1800000 		movl	LPBX1+128, %eax	 # *LPBX1, PROF_edge_counter.7
 123      00
 124 00bd 8B158400 		movl	LPBX1+132, %edx	 # *LPBX1, PROF_edge_counter.7
 124      0000
 125 00c3 83C001   		addl	$1, %eax	 #, PROF_edge_counter.7
 126 00c6 83D200   		adcl	$0, %edx	 #, PROF_edge_counter.7
 127 00c9 A3800000 		movl	%eax, LPBX1+128	 # PROF_edge_counter.7, *LPBX1
 127      00
 128 00ce 89158400 		movl	%edx, LPBX1+132	 # PROF_edge_counter.7, *LPBX1
 128      0000
 129              		.loc 1 81 0 is_stmt 1 discriminator 2
 130 00d4 EB5B     		jmp	L7	 #
 131              	L8:
 132              		.loc 1 81 0 is_stmt 0
 133 00d6 A1900000 		movl	LPBX1+144, %eax	 # *LPBX1, PROF_edge_counter.7
 133      00
 134 00db 8B159400 		movl	LPBX1+148, %edx	 # *LPBX1, PROF_edge_counter.7
 134      0000
 135 00e1 83C001   		addl	$1, %eax	 #, PROF_edge_counter.7
 136 00e4 83D200   		adcl	$0, %edx	 #, PROF_edge_counter.7
 137 00e7 A3900000 		movl	%eax, LPBX1+144	 # PROF_edge_counter.7, *LPBX1
 137      00
 138 00ec 89159400 		movl	%edx, LPBX1+148	 # PROF_edge_counter.7, *LPBX1
 138      0000
 139              		.loc 1 82 0 is_stmt 1
 140 00f2 8B442424 		movl	36(%esp), %eax	 # p, tmp72
 141 00f6 89442404 		movl	%eax, 4(%esp)	 # tmp72,
 142 00fa 8B442420 		movl	32(%esp), %eax	 # mp, tmp73
GAS LISTING C:\cygwin\tmp\ccZMxCCf.s 			page 4


 143 00fe 890424   		movl	%eax, (%esp)	 # tmp73,
 144 0101 E8260200 		call	_chPoolFree	 #
 144      00
 145              		.loc 1 83 0
 146 0106 8B442420 		movl	32(%esp), %eax	 # mp, tmp74
 147 010a 8B4004   		movl	4(%eax), %eax	 # mp_3(D)->mp_object_size, D.2772
 148 010d 01442424 		addl	%eax, 36(%esp)	 # D.2772, p
 149              		.loc 1 84 0
 150 0111 FF4C2428 		decl	40(%esp)	 # n
 151 0115 A1880000 		movl	LPBX1+136, %eax	 # *LPBX1, PROF_edge_counter.7
 151      00
 152 011a 8B158C00 		movl	LPBX1+140, %edx	 # *LPBX1, PROF_edge_counter.7
 152      0000
 153 0120 83C001   		addl	$1, %eax	 #, PROF_edge_counter.7
 154 0123 83D200   		adcl	$0, %edx	 #, PROF_edge_counter.7
 155 0126 A3880000 		movl	%eax, LPBX1+136	 # PROF_edge_counter.7, *LPBX1
 155      00
 156 012b 89158C00 		movl	%edx, LPBX1+140	 # PROF_edge_counter.7, *LPBX1
 156      0000
 157              	L7:
 158              		.loc 1 81 0 discriminator 1
 159 0131 837C2428 		cmpl	$0, 40(%esp)	 #, n
 159      00
 160 0136 759E     		jne	L8	 #,
 161              		.loc 1 81 0 is_stmt 0
 162 0138 A1980000 		movl	LPBX1+152, %eax	 # *LPBX1, PROF_edge_counter.7
 162      00
 163 013d 8B159C00 		movl	LPBX1+156, %edx	 # *LPBX1, PROF_edge_counter.7
 163      0000
 164 0143 83C001   		addl	$1, %eax	 #, PROF_edge_counter.7
 165 0146 83D200   		adcl	$0, %edx	 #, PROF_edge_counter.7
 166 0149 A3980000 		movl	%eax, LPBX1+152	 # PROF_edge_counter.7, *LPBX1
 166      00
 167 014e 89159C00 		movl	%edx, LPBX1+156	 # PROF_edge_counter.7, *LPBX1
 167      0000
 168              		.loc 1 86 0 is_stmt 1
 169 0154 83C41C   		addl	$28, %esp	 #,
 170              	LCFI3:
 171              		.cfi_def_cfa_offset 4
 172 0157 C3       		ret
 173              		.cfi_endproc
 174              	LFE1:
 175              		.globl	_chPoolAllocI
 176              		.def	_chPoolAllocI;	.scl	2;	.type	32;	.endef
 177              	_chPoolAllocI:
 178              	LFB2:
 179              		.loc 1 98 0
 180              		.cfi_startproc
 181 0158 83EC2C   		subl	$44, %esp	 #,
 182              	LCFI4:
 183              		.cfi_def_cfa_offset 48
 184              		.loc 1 104 0
 185 015b 8B442430 		movl	48(%esp), %eax	 # mp, tmp74
 186 015f 8B00     		movl	(%eax), %eax	 # mp_2(D)->mp_next, tmp75
 187 0161 8944241C 		movl	%eax, 28(%esp)	 # tmp75, objp
 188 0165 837C241C 		cmpl	$0, 28(%esp)	 #, objp
 188      00
GAS LISTING C:\cygwin\tmp\ccZMxCCf.s 			page 5


 189 016a 742C     		je	L10	 #,
 190              		.loc 1 105 0
 191 016c 8B442430 		movl	48(%esp), %eax	 # mp, tmp76
 192 0170 8B00     		movl	(%eax), %eax	 # mp_2(D)->mp_next, D.2757
 193 0172 8B10     		movl	(%eax), %edx	 # D.2757_4->ph_next, D.2758
 194 0174 8B442430 		movl	48(%esp), %eax	 # mp, tmp77
 195 0178 8910     		movl	%edx, (%eax)	 # D.2758, mp_2(D)->mp_next
 196 017a A1600000 		movl	LPBX1+96, %eax	 # *LPBX1, PROF_edge_counter.6
 196      00
 197 017f 8B156400 		movl	LPBX1+100, %edx	 # *LPBX1, PROF_edge_counter.6
 197      0000
 198 0185 83C001   		addl	$1, %eax	 #, PROF_edge_counter.6
 199 0188 83D200   		adcl	$0, %edx	 #, PROF_edge_counter.6
 200 018b A3600000 		movl	%eax, LPBX1+96	 # PROF_edge_counter.6, *LPBX1
 200      00
 201 0190 89156400 		movl	%edx, LPBX1+100	 # PROF_edge_counter.6, *LPBX1
 201      0000
 202 0196 EB76     		jmp	L11	 #
 203              	L10:
 204 0198 A1580000 		movl	LPBX1+88, %eax	 # *LPBX1, PROF_edge_counter.6
 204      00
 205 019d 8B155C00 		movl	LPBX1+92, %edx	 # *LPBX1, PROF_edge_counter.6
 205      0000
 206 01a3 83C001   		addl	$1, %eax	 #, PROF_edge_counter.6
 207 01a6 83D200   		adcl	$0, %edx	 #, PROF_edge_counter.6
 208 01a9 A3580000 		movl	%eax, LPBX1+88	 # PROF_edge_counter.6, *LPBX1
 208      00
 209 01ae 89155C00 		movl	%edx, LPBX1+92	 # PROF_edge_counter.6, *LPBX1
 209      0000
 210              		.loc 1 106 0
 211 01b4 8B442430 		movl	48(%esp), %eax	 # mp, tmp78
 212 01b8 8B4008   		movl	8(%eax), %eax	 # mp_2(D)->mp_provider, D.2760
 213 01bb 85C0     		testl	%eax, %eax	 # D.2760
 214 01bd 744F     		je	L11	 #,
 215 01bf A1680000 		movl	LPBX1+104, %eax	 # *LPBX1, PROF_edge_counter.6
 215      00
 216 01c4 8B156C00 		movl	LPBX1+108, %edx	 # *LPBX1, PROF_edge_counter.6
 216      0000
 217 01ca 83C001   		addl	$1, %eax	 #, PROF_edge_counter.6
 218 01cd 83D200   		adcl	$0, %edx	 #, PROF_edge_counter.6
 219 01d0 A3680000 		movl	%eax, LPBX1+104	 # PROF_edge_counter.6, *LPBX1
 219      00
 220 01d5 89156C00 		movl	%edx, LPBX1+108	 # PROF_edge_counter.6, *LPBX1
 220      0000
 221              		.loc 1 107 0
 222 01db 8B442430 		movl	48(%esp), %eax	 # mp, tmp79
 223 01df 8B5008   		movl	8(%eax), %edx	 # mp_2(D)->mp_provider, D.2763
 224 01e2 8B442430 		movl	48(%esp), %eax	 # mp, tmp80
 225 01e6 8B4004   		movl	4(%eax), %eax	 # mp_2(D)->mp_object_size, D.2764
 226 01e9 890424   		movl	%eax, (%esp)	 # D.2764,
 227 01ec FFD2     		call	*%edx	 # D.2763
 228 01ee 8944241C 		movl	%eax, 28(%esp)	 # tmp81, objp
 229 01f2 A1700000 		movl	LPBX1+112, %eax	 # *LPBX1, PROF_edge_counter.6
 229      00
 230 01f7 8B157400 		movl	LPBX1+116, %edx	 # *LPBX1, PROF_edge_counter.6
 230      0000
 231 01fd 83C001   		addl	$1, %eax	 #, PROF_edge_counter.6
GAS LISTING C:\cygwin\tmp\ccZMxCCf.s 			page 6


 232 0200 83D200   		adcl	$0, %edx	 #, PROF_edge_counter.6
 233 0203 A3700000 		movl	%eax, LPBX1+112	 # PROF_edge_counter.6, *LPBX1
 233      00
 234 0208 89157400 		movl	%edx, LPBX1+116	 # PROF_edge_counter.6, *LPBX1
 234      0000
 235              	L11:
 236              		.loc 1 108 0
 237 020e 8B44241C 		movl	28(%esp), %eax	 # objp, D.2765
 238              		.loc 1 109 0
 239 0212 83C42C   		addl	$44, %esp	 #,
 240              	LCFI5:
 241              		.cfi_def_cfa_offset 4
 242 0215 C3       		ret
 243              		.cfi_endproc
 244              	LFE2:
 245              		.globl	_chPoolAlloc
 246              		.def	_chPoolAlloc;	.scl	2;	.type	32;	.endef
 247              	_chPoolAlloc:
 248              	LFB3:
 249              		.loc 1 121 0
 250              		.cfi_startproc
 251 0216 83EC2C   		subl	$44, %esp	 #,
 252              	LCFI6:
 253              		.cfi_def_cfa_offset 48
 254              		.loc 1 121 0
 255 0219 A1380000 		movl	LPBX1+56, %eax	 # *LPBX1, PROF_edge_counter.5
 255      00
 256 021e 8B153C00 		movl	LPBX1+60, %edx	 # *LPBX1, PROF_edge_counter.5
 256      0000
 257 0224 83C001   		addl	$1, %eax	 #, PROF_edge_counter.5
 258 0227 83D200   		adcl	$0, %edx	 #, PROF_edge_counter.5
 259 022a A3380000 		movl	%eax, LPBX1+56	 # PROF_edge_counter.5, *LPBX1
 259      00
 260 022f 89153C00 		movl	%edx, LPBX1+60	 # PROF_edge_counter.5, *LPBX1
 260      0000
 261              		.loc 1 124 0
 262              	/APP
 263              	 # 124 "../../os/kernel/src/chmempools.c" 1
 264 0235 90       		nop
 265              	 # 0 "" 2
 266              	/NO_APP
 267 0236 A1400000 		movl	LPBX1+64, %eax	 # *LPBX1, PROF_edge_counter.5
 267      00
 268 023b 8B154400 		movl	LPBX1+68, %edx	 # *LPBX1, PROF_edge_counter.5
 268      0000
 269 0241 83C001   		addl	$1, %eax	 #, PROF_edge_counter.5
 270 0244 83D200   		adcl	$0, %edx	 #, PROF_edge_counter.5
 271 0247 A3400000 		movl	%eax, LPBX1+64	 # PROF_edge_counter.5, *LPBX1
 271      00
 272 024c 89154400 		movl	%edx, LPBX1+68	 # PROF_edge_counter.5, *LPBX1
 272      0000
 273              		.loc 1 125 0
 274 0252 8B442430 		movl	48(%esp), %eax	 # mp, tmp69
 275 0256 890424   		movl	%eax, (%esp)	 # tmp69,
 276 0259 E8FAFEFF 		call	_chPoolAllocI	 #
 276      FF
 277 025e 8944241C 		movl	%eax, 28(%esp)	 # tmp70, objp
GAS LISTING C:\cygwin\tmp\ccZMxCCf.s 			page 7


 278 0262 A1480000 		movl	LPBX1+72, %eax	 # *LPBX1, PROF_edge_counter.5
 278      00
 279 0267 8B154C00 		movl	LPBX1+76, %edx	 # *LPBX1, PROF_edge_counter.5
 279      0000
 280 026d 83C001   		addl	$1, %eax	 #, PROF_edge_counter.5
 281 0270 83D200   		adcl	$0, %edx	 #, PROF_edge_counter.5
 282 0273 A3480000 		movl	%eax, LPBX1+72	 # PROF_edge_counter.5, *LPBX1
 282      00
 283 0278 89154C00 		movl	%edx, LPBX1+76	 # PROF_edge_counter.5, *LPBX1
 283      0000
 284              		.loc 1 126 0
 285              	/APP
 286              	 # 126 "../../os/kernel/src/chmempools.c" 1
 287 027e 90       		nop
 288              	 # 0 "" 2
 289              	/NO_APP
 290 027f A1500000 		movl	LPBX1+80, %eax	 # *LPBX1, PROF_edge_counter.5
 290      00
 291 0284 8B155400 		movl	LPBX1+84, %edx	 # *LPBX1, PROF_edge_counter.5
 291      0000
 292 028a 83C001   		addl	$1, %eax	 #, PROF_edge_counter.5
 293 028d 83D200   		adcl	$0, %edx	 #, PROF_edge_counter.5
 294 0290 A3500000 		movl	%eax, LPBX1+80	 # PROF_edge_counter.5, *LPBX1
 294      00
 295 0295 89155400 		movl	%edx, LPBX1+84	 # PROF_edge_counter.5, *LPBX1
 295      0000
 296              		.loc 1 127 0
 297 029b 8B44241C 		movl	28(%esp), %eax	 # objp, D.2750
 298              		.loc 1 128 0
 299 029f 83C42C   		addl	$44, %esp	 #,
 300              	LCFI7:
 301              		.cfi_def_cfa_offset 4
 302 02a2 C3       		ret
 303              		.cfi_endproc
 304              	LFE3:
 305              		.globl	_chPoolFreeI
 306              		.def	_chPoolFreeI;	.scl	2;	.type	32;	.endef
 307              	_chPoolFreeI:
 308              	LFB4:
 309              		.loc 1 142 0
 310              		.cfi_startproc
 311 02a3 83EC14   		subl	$20, %esp	 #,
 312              	LCFI8:
 313              		.cfi_def_cfa_offset 24
 314              		.loc 1 143 0
 315 02a6 8B44241C 		movl	28(%esp), %eax	 # objp, tmp68
 316 02aa 8944240C 		movl	%eax, 12(%esp)	 # tmp68, php
 317              		.loc 1 146 0
 318 02ae 837C2418 		cmpl	$0, 24(%esp)	 #, mp
 318      00
 319 02b3 7441     		je	L14	 #,
 320              		.loc 1 146 0 is_stmt 0 discriminator 1
 321 02b5 A1200000 		movl	LPBX1+32, %eax	 # *LPBX1, PROF_edge_counter.4
 321      00
 322 02ba 8B152400 		movl	LPBX1+36, %edx	 # *LPBX1, PROF_edge_counter.4
 322      0000
 323 02c0 83C001   		addl	$1, %eax	 #, PROF_edge_counter.4
GAS LISTING C:\cygwin\tmp\ccZMxCCf.s 			page 8


 324 02c3 83D200   		adcl	$0, %edx	 #, PROF_edge_counter.4
 325 02c6 A3200000 		movl	%eax, LPBX1+32	 # PROF_edge_counter.4, *LPBX1
 325      00
 326 02cb 89152400 		movl	%edx, LPBX1+36	 # PROF_edge_counter.4, *LPBX1
 326      0000
 327 02d1 837C241C 		cmpl	$0, 28(%esp)	 #, objp
 327      00
 328 02d6 741E     		je	L14	 #,
 329              		.loc 1 146 0 discriminator 3
 330 02d8 A1280000 		movl	LPBX1+40, %eax	 # *LPBX1, PROF_edge_counter.4
 330      00
 331 02dd 8B152C00 		movl	LPBX1+44, %edx	 # *LPBX1, PROF_edge_counter.4
 331      0000
 332 02e3 83C001   		addl	$1, %eax	 #, PROF_edge_counter.4
 333 02e6 83D200   		adcl	$0, %edx	 #, PROF_edge_counter.4
 334 02e9 A3280000 		movl	%eax, LPBX1+40	 # PROF_edge_counter.4, *LPBX1
 334      00
 335 02ee 89152C00 		movl	%edx, LPBX1+44	 # PROF_edge_counter.4, *LPBX1
 335      0000
 336 02f4 EB1C     		jmp	L15	 #
 337              	L14:
 338              		.loc 1 146 0 discriminator 2
 339 02f6 A1300000 		movl	LPBX1+48, %eax	 # *LPBX1, PROF_edge_counter.4
 339      00
 340 02fb 8B153400 		movl	LPBX1+52, %edx	 # *LPBX1, PROF_edge_counter.4
 340      0000
 341 0301 83C001   		addl	$1, %eax	 #, PROF_edge_counter.4
 342 0304 83D200   		adcl	$0, %edx	 #, PROF_edge_counter.4
 343 0307 A3300000 		movl	%eax, LPBX1+48	 # PROF_edge_counter.4, *LPBX1
 343      00
 344 030c 89153400 		movl	%edx, LPBX1+52	 # PROF_edge_counter.4, *LPBX1
 344      0000
 345              	L15:
 346              		.loc 1 148 0 is_stmt 1
 347 0312 8B442418 		movl	24(%esp), %eax	 # mp, tmp69
 348 0316 8B10     		movl	(%eax), %edx	 # mp_3(D)->mp_next, D.2749
 349 0318 8B44240C 		movl	12(%esp), %eax	 # php, tmp70
 350 031c 8910     		movl	%edx, (%eax)	 # D.2749, php_2->ph_next
 351              		.loc 1 149 0
 352 031e 8B442418 		movl	24(%esp), %eax	 # mp, tmp71
 353 0322 8B54240C 		movl	12(%esp), %edx	 # php, tmp72
 354 0326 8910     		movl	%edx, (%eax)	 # tmp72, mp_3(D)->mp_next
 355              		.loc 1 150 0
 356 0328 83C414   		addl	$20, %esp	 #,
 357              	LCFI9:
 358              		.cfi_def_cfa_offset 4
 359 032b C3       		ret
 360              		.cfi_endproc
 361              	LFE4:
 362              		.globl	_chPoolFree
 363              		.def	_chPoolFree;	.scl	2;	.type	32;	.endef
 364              	_chPoolFree:
 365              	LFB5:
 366              		.loc 1 164 0
 367              		.cfi_startproc
 368 032c 83EC0C   		subl	$12, %esp	 #,
 369              	LCFI10:
GAS LISTING C:\cygwin\tmp\ccZMxCCf.s 			page 9


 370              		.cfi_def_cfa_offset 16
 371              		.loc 1 164 0
 372 032f A1000000 		movl	LPBX1, %eax	 # *LPBX1, PROF_edge_counter.3
 372      00
 373 0334 8B150400 		movl	LPBX1+4, %edx	 # *LPBX1, PROF_edge_counter.3
 373      0000
 374 033a 83C001   		addl	$1, %eax	 #, PROF_edge_counter.3
 375 033d 83D200   		adcl	$0, %edx	 #, PROF_edge_counter.3
 376 0340 A3000000 		movl	%eax, LPBX1	 # PROF_edge_counter.3, *LPBX1
 376      00
 377 0345 89150400 		movl	%edx, LPBX1+4	 # PROF_edge_counter.3, *LPBX1
 377      0000
 378              		.loc 1 166 0
 379              	/APP
 380              	 # 166 "../../os/kernel/src/chmempools.c" 1
 381 034b 90       		nop
 382              	 # 0 "" 2
 383              	/NO_APP
 384 034c A1080000 		movl	LPBX1+8, %eax	 # *LPBX1, PROF_edge_counter.3
 384      00
 385 0351 8B150C00 		movl	LPBX1+12, %edx	 # *LPBX1, PROF_edge_counter.3
 385      0000
 386 0357 83C001   		addl	$1, %eax	 #, PROF_edge_counter.3
 387 035a 83D200   		adcl	$0, %edx	 #, PROF_edge_counter.3
 388 035d A3080000 		movl	%eax, LPBX1+8	 # PROF_edge_counter.3, *LPBX1
 388      00
 389 0362 89150C00 		movl	%edx, LPBX1+12	 # PROF_edge_counter.3, *LPBX1
 389      0000
 390              		.loc 1 167 0
 391 0368 8B442414 		movl	20(%esp), %eax	 # objp, tmp67
 392 036c 89442404 		movl	%eax, 4(%esp)	 # tmp67,
 393 0370 8B442410 		movl	16(%esp), %eax	 # mp, tmp68
 394 0374 890424   		movl	%eax, (%esp)	 # tmp68,
 395 0377 E827FFFF 		call	_chPoolFreeI	 #
 395      FF
 396 037c A1100000 		movl	LPBX1+16, %eax	 # *LPBX1, PROF_edge_counter.3
 396      00
 397 0381 8B151400 		movl	LPBX1+20, %edx	 # *LPBX1, PROF_edge_counter.3
 397      0000
 398 0387 83C001   		addl	$1, %eax	 #, PROF_edge_counter.3
 399 038a 83D200   		adcl	$0, %edx	 #, PROF_edge_counter.3
 400 038d A3100000 		movl	%eax, LPBX1+16	 # PROF_edge_counter.3, *LPBX1
 400      00
 401 0392 89151400 		movl	%edx, LPBX1+20	 # PROF_edge_counter.3, *LPBX1
 401      0000
 402              		.loc 1 168 0
 403              	/APP
 404              	 # 168 "../../os/kernel/src/chmempools.c" 1
 405 0398 90       		nop
 406              	 # 0 "" 2
 407              	/NO_APP
 408 0399 A1180000 		movl	LPBX1+24, %eax	 # *LPBX1, PROF_edge_counter.3
 408      00
 409 039e 8B151C00 		movl	LPBX1+28, %edx	 # *LPBX1, PROF_edge_counter.3
 409      0000
 410 03a4 83C001   		addl	$1, %eax	 #, PROF_edge_counter.3
 411 03a7 83D200   		adcl	$0, %edx	 #, PROF_edge_counter.3
GAS LISTING C:\cygwin\tmp\ccZMxCCf.s 			page 10


 412 03aa A3180000 		movl	%eax, LPBX1+24	 # PROF_edge_counter.3, *LPBX1
 412      00
 413 03af 89151C00 		movl	%edx, LPBX1+28	 # PROF_edge_counter.3, *LPBX1
 413      0000
 414              		.loc 1 169 0
 415 03b5 83C40C   		addl	$12, %esp	 #,
 416              	LCFI11:
 417              		.cfi_def_cfa_offset 4
 418 03b8 C3       		ret
 419              		.cfi_endproc
 420              	LFE5:
 421              	.lcomm LPBX1,184,32
 422              		.section .rdata,"dr"
 423              		.align 4
 424              	LC0:
 425 0000 433A5C64 		.ascii "C:\\develop\\gyro\\ChibiOS\\test\\coverage/../../os/kernel/src/chmempools.gcda\0"
 425      6576656C 
 425      6F705C67 
 425      79726F5C 
 425      43686962 
 426 004a 0000     		.data
 427              		.align 32
 428              	LC1:
 429              	 # <anonymous>:
 430 0000 06000000 		.long	6
 431              	 # <anonymous>:
 432 0004 6F371A5C 		.long	1545221999
 433              	 # <anonymous>:
 434 0008 04000000 		.long	4
 435              	 # <anonymous>:
 436 000c 05000000 		.long	5
 437              	 # <anonymous>:
 438 0010 CCE810FB 		.long	-82777908
 439              	 # <anonymous>:
 440 0014 03000000 		.long	3
 441              	 # <anonymous>:
 442 0018 04000000 		.long	4
 443              	 # <anonymous>:
 444 001c 1390AE3D 		.long	1034850323
 445              	 # <anonymous>:
 446 0020 04000000 		.long	4
 447              	 # <anonymous>:
 448 0024 03000000 		.long	3
 449              	 # <anonymous>:
 450 0028 D7E89FD0 		.long	-794826537
 451              	 # <anonymous>:
 452 002c 04000000 		.long	4
 453              	 # <anonymous>:
 454 0030 02000000 		.long	2
 455              	 # <anonymous>:
 456 0034 B9F612A0 		.long	-1609369927
 457              	 # <anonymous>:
 458 0038 05000000 		.long	5
 459              	 # <anonymous>:
 460 003c 01000000 		.long	1
 461              	 # <anonymous>:
 462 0040 C96DF0AE 		.long	-1359974967
GAS LISTING C:\cygwin\tmp\ccZMxCCf.s 			page 11


 463              	 # <anonymous>:
 464 0044 03000000 		.long	3
 465 0048 00000000 		.align 32
 465      00000000 
 465      00000000 
 465      00000000 
 465      00000000 
 466              	LPBX0:
 467              	 # <anonymous>:
 468 0060 2A363034 		.long	875574826
 469              	 # <anonymous>:
 470 0064 00000000 		.long	0
 471              	 # <anonymous>:
 472 0068 80287060 		.long	1617963136
 473              	 # <anonymous>:
 474 006c 00000000 		.long	LC0
 475              	 # <anonymous>:
 476 0070 06000000 		.long	6
 477              	 # <anonymous>:
 478 0074 00000000 		.long	LC1
 479              	 # <anonymous>:
 480 0078 01000000 		.long	1
 481              	 # <anonymous>:
 482              	 # <anonymous>:
 483 007c 17000000 		.long	23
 484              	 # <anonymous>:
 485 0080 00000000 		.long	LPBX1
 486              	 # <anonymous>:
 487 0084 00000000 		.long	___gcov_merge_add
 488 0088 00000000 		.space 12
 488      00000000 
 488      00000000 
 489 0094 00000000 		.text
 489      00000000 
 489      00000000 
 490              		.def	__GLOBAL__sub_I_65535_0_chPoolInit;	.scl	3;	.type	32;	.endef
 491              	__GLOBAL__sub_I_65535_0_chPoolInit:
 492              	LFB6:
 493              		.loc 1 169 0
 494              		.cfi_startproc
 495 03b9 83EC1C   		subl	$28, %esp	 #,
 496              	LCFI12:
 497              		.cfi_def_cfa_offset 32
 498              		.loc 1 169 0
 499 03bc C7042460 		movl	$LPBX0, (%esp)	 #,
 499      000000
 500 03c3 E8000000 		call	___gcov_init	 #
 500      00
 501 03c8 83C41C   		addl	$28, %esp	 #,
 502              	LCFI13:
 503              		.cfi_def_cfa_offset 4
 504 03cb C3       		ret
 505              		.cfi_endproc
 506              	LFE6:
 507              		.section	.ctors,"w"
 508              		.align 4
 509 0000 B9030000 		.long	__GLOBAL__sub_I_65535_0_chPoolInit
GAS LISTING C:\cygwin\tmp\ccZMxCCf.s 			page 12


 510              		.text
 511              	Letext0:
 512              		.file 2 "c:/mingw/bin/../lib/gcc/mingw32/4.6.2/include/stddef.h"
 513              		.file 3 "c:/mingw/bin/../lib/gcc/mingw32/4.6.2/../../../../include/stdint.h"
 514              		.file 4 "../../os/kernel/include/chmemcore.h"
 515              		.file 5 "../../os/kernel/include/chmempools.h"