GAS LISTING C:\cygwin\tmp\ccDFoZ8B.s 			page 1


   1              		.file	"chmemcore.c"
   2              	 # GNU C (GCC) version 4.6.2 (mingw32)
   3              	 #	compiled by GNU C version 4.6.2, GMP version 5.0.1, MPFR version 2.4.1, MPC version 0.8.1
   4              	 # GGC heuristics: --param ggc-min-expand=100 --param ggc-min-heapsize=131072
   5              	 # options passed:  -I . -I ../../os/ports/GCC/SIMIA32
   6              	 # -I ../../os/kernel/include -I ../../test -I ../../os/hal/include
   7              	 # -I ../../os/hal/platforms/Win32 -I ../../boards/simulator
   8              	 # -I ../../os/various -iprefix c:\mingw\bin\../lib/gcc/mingw32/4.6.2/
   9              	 # -MD ../../os/kernel/src/chmemcore.d -MF .dep/chmemcore.o.d -MP
  10              	 # -MQ ../../os/kernel/src/chmemcore.o -D SIMULATOR
  11              	 # ../../os/kernel/src/chmemcore.c -mtune=i386 -march=i386
  12              	 # -auxbase-strip ../../os/kernel/src/chmemcore.o -ggdb -O0 -Wall -Wextra
  13              	 # -Wstrict-prototypes -fomit-frame-pointer -fprofile-arcs -ftest-coverage
  14              	 # -fverbose-asm
  15              	 # options enabled:  -fasynchronous-unwind-tables -fauto-inc-dec
  16              	 # -fbranch-count-reg -fcommon -fdelete-null-pointer-checks
  17              	 # -fdwarf2-cfi-asm -fearly-inlining -feliminate-unused-debug-types
  18              	 # -ffunction-cse -fgcse-lm -fident -finline-functions-called-once
  19              	 # -fira-share-save-slots -fira-share-spill-slots -fivopts
  20              	 # -fkeep-inline-dllexport -fkeep-static-consts -fleading-underscore
  21              	 # -fmath-errno -fmerge-debug-strings -fmove-loop-invariants
  22              	 # -fomit-frame-pointer -fpeephole -fprefetch-loop-arrays -fprofile-arcs
  23              	 # -freg-struct-return -fsched-critical-path-heuristic
  24              	 # -fsched-dep-count-heuristic -fsched-group-heuristic -fsched-interblock
  25              	 # -fsched-last-insn-heuristic -fsched-rank-heuristic -fsched-spec
  26              	 # -fsched-spec-insn-heuristic -fsched-stalled-insns-dep
  27              	 # -fset-stack-executable -fshow-column -fsigned-zeros
  28              	 # -fsplit-ivs-in-unroller -fstrict-volatile-bitfields -ftest-coverage
  29              	 # -ftrapping-math -ftree-cselim -ftree-forwprop -ftree-loop-if-convert
  30              	 # -ftree-loop-im -ftree-loop-ivcanon -ftree-loop-optimize
  31              	 # -ftree-parallelize-loops= -ftree-phiprop -ftree-pta -ftree-reassoc
  32              	 # -ftree-scev-cprop -ftree-slp-vectorize -ftree-vect-loop-version
  33              	 # -funit-at-a-time -funwind-tables -fvect-cost-model -fverbose-asm
  34              	 # -fzero-initialized-in-bss -m32 -m80387 -m96bit-long-double
  35              	 # -maccumulate-outgoing-args -malign-double -malign-stringops
  36              	 # -mfancy-math-387 -mfp-ret-in-387 -mieee-fp -mno-red-zone -mno-sse4
  37              	 # -mpush-args -msahf -mstack-arg-probe
  38              	
  39              		.text
  40              	Ltext0:
  41              	 # Compiler executable checksum: c20aed7c018482d7b62efcd5dcab2a9d
  42              	
  43              	.lcomm _nextmem,4,4
  44              	.lcomm _endmem,4,4
  45              		.globl	__core_init
  46              		.def	__core_init;	.scl	2;	.type	32;	.endef
  47              	__core_init:
  48              	LFB0:
  49              		.file 1 "../../os/kernel/src/chmemcore.c"
  50              		.loc 1 59 0
  51              		.cfi_startproc
  52 0000 83EC0C   		subl	$12, %esp	 #,
  53              	LCFI0:
  54              		.cfi_def_cfa_offset 16
  55              		.loc 1 59 0
  56 0003 A1580002 		movl	LPBX1+56, %eax	 # *LPBX1, PROF_edge_counter.13
  56      00
GAS LISTING C:\cygwin\tmp\ccDFoZ8B.s 			page 2


  57 0008 8B155C00 		movl	LPBX1+60, %edx	 # *LPBX1, PROF_edge_counter.13
  57      0200
  58 000e 83C001   		addl	$1, %eax	 #, PROF_edge_counter.13
  59 0011 83D200   		adcl	$0, %edx	 #, PROF_edge_counter.13
  60 0014 A3580002 		movl	%eax, LPBX1+56	 # PROF_edge_counter.13, *LPBX1
  60      00
  61 0019 89155C00 		movl	%edx, LPBX1+60	 # PROF_edge_counter.13, *LPBX1
  61      0200
  62              		.loc 1 67 0
  63 001f C7050000 		movl	$_buffer.1846, _nextmem	 #, nextmem
  63      00002000 
  63      0000
  64              		.loc 1 68 0
  65 0029 C7050400 		movl	$_buffer.1846+131072, _endmem	 #, endmem
  65      00002000 
  65      0200
  66              		.loc 1 70 0
  67 0033 83C40C   		addl	$12, %esp	 #,
  68              	LCFI1:
  69              		.cfi_def_cfa_offset 4
  70 0036 C3       		ret
  71              		.cfi_endproc
  72              	LFE0:
  73              		.globl	_chCoreAlloc
  74              		.def	_chCoreAlloc;	.scl	2;	.type	32;	.endef
  75              	_chCoreAlloc:
  76              	LFB1:
  77              		.loc 1 84 0
  78              		.cfi_startproc
  79 0037 83EC2C   		subl	$44, %esp	 #,
  80              	LCFI2:
  81              		.cfi_def_cfa_offset 48
  82              		.loc 1 84 0
  83 003a A1380002 		movl	LPBX1+24, %eax	 # *LPBX1, PROF_edge_counter.12
  83      00
  84 003f 8B153C00 		movl	LPBX1+28, %edx	 # *LPBX1, PROF_edge_counter.12
  84      0200
  85 0045 83C001   		addl	$1, %eax	 #, PROF_edge_counter.12
  86 0048 83D200   		adcl	$0, %edx	 #, PROF_edge_counter.12
  87 004b A3380002 		movl	%eax, LPBX1+24	 # PROF_edge_counter.12, *LPBX1
  87      00
  88 0050 89153C00 		movl	%edx, LPBX1+28	 # PROF_edge_counter.12, *LPBX1
  88      0200
  89              		.loc 1 87 0
  90              	/APP
  91              	 # 87 "../../os/kernel/src/chmemcore.c" 1
  92 0056 90       		nop
  93              	 # 0 "" 2
  94              	/NO_APP
  95 0057 A1400002 		movl	LPBX1+32, %eax	 # *LPBX1, PROF_edge_counter.12
  95      00
  96 005c 8B154400 		movl	LPBX1+36, %edx	 # *LPBX1, PROF_edge_counter.12
  96      0200
  97 0062 83C001   		addl	$1, %eax	 #, PROF_edge_counter.12
  98 0065 83D200   		adcl	$0, %edx	 #, PROF_edge_counter.12
  99 0068 A3400002 		movl	%eax, LPBX1+32	 # PROF_edge_counter.12, *LPBX1
  99      00
GAS LISTING C:\cygwin\tmp\ccDFoZ8B.s 			page 3


 100 006d 89154400 		movl	%edx, LPBX1+36	 # PROF_edge_counter.12, *LPBX1
 100      0200
 101              		.loc 1 88 0
 102 0073 8B442430 		movl	48(%esp), %eax	 # size, tmp69
 103 0077 890424   		movl	%eax, (%esp)	 # tmp69,
 104 007a E8450000 		call	_chCoreAllocI	 #
 104      00
 105 007f 8944241C 		movl	%eax, 28(%esp)	 # tmp70, p
 106 0083 A1480002 		movl	LPBX1+40, %eax	 # *LPBX1, PROF_edge_counter.12
 106      00
 107 0088 8B154C00 		movl	LPBX1+44, %edx	 # *LPBX1, PROF_edge_counter.12
 107      0200
 108 008e 83C001   		addl	$1, %eax	 #, PROF_edge_counter.12
 109 0091 83D200   		adcl	$0, %edx	 #, PROF_edge_counter.12
 110 0094 A3480002 		movl	%eax, LPBX1+40	 # PROF_edge_counter.12, *LPBX1
 110      00
 111 0099 89154C00 		movl	%edx, LPBX1+44	 # PROF_edge_counter.12, *LPBX1
 111      0200
 112              		.loc 1 89 0
 113              	/APP
 114              	 # 89 "../../os/kernel/src/chmemcore.c" 1
 115 009f 90       		nop
 116              	 # 0 "" 2
 117              	/NO_APP
 118 00a0 A1500002 		movl	LPBX1+48, %eax	 # *LPBX1, PROF_edge_counter.12
 118      00
 119 00a5 8B155400 		movl	LPBX1+52, %edx	 # *LPBX1, PROF_edge_counter.12
 119      0200
 120 00ab 83C001   		addl	$1, %eax	 #, PROF_edge_counter.12
 121 00ae 83D200   		adcl	$0, %edx	 #, PROF_edge_counter.12
 122 00b1 A3500002 		movl	%eax, LPBX1+48	 # PROF_edge_counter.12, *LPBX1
 122      00
 123 00b6 89155400 		movl	%edx, LPBX1+52	 # PROF_edge_counter.12, *LPBX1
 123      0200
 124              		.loc 1 90 0
 125 00bc 8B44241C 		movl	28(%esp), %eax	 # p, D.2751
 126              		.loc 1 91 0
 127 00c0 83C42C   		addl	$44, %esp	 #,
 128              	LCFI3:
 129              		.cfi_def_cfa_offset 4
 130 00c3 C3       		ret
 131              		.cfi_endproc
 132              	LFE1:
 133              		.globl	_chCoreAllocI
 134              		.def	_chCoreAllocI;	.scl	2;	.type	32;	.endef
 135              	_chCoreAllocI:
 136              	LFB2:
 137              		.loc 1 105 0
 138              		.cfi_startproc
 139 00c4 83EC14   		subl	$20, %esp	 #,
 140              	LCFI4:
 141              		.cfi_def_cfa_offset 24
 142              		.loc 1 110 0
 143 00c7 8B442418 		movl	24(%esp), %eax	 # size, tmp74
 144 00cb 83C00F   		addl	$15, %eax	 #, D.2738
 145 00ce 83E0F0   		andl	$-16, %eax	 #, tmp75
 146 00d1 89442418 		movl	%eax, 24(%esp)	 # tmp75, size
GAS LISTING C:\cygwin\tmp\ccDFoZ8B.s 			page 4


 147              		.loc 1 111 0
 148 00d5 A1040000 		movl	_endmem, %eax	 # endmem, endmem.4
 148      00
 149 00da 89C2     		movl	%eax, %edx	 # endmem.4, endmem.5
 150 00dc A1000000 		movl	_nextmem, %eax	 # nextmem, nextmem.6
 150      00
 151 00e1 89D1     		movl	%edx, %ecx	 # endmem.5,
 152 00e3 29C1     		subl	%eax, %ecx	 # nextmem.7,
 153 00e5 89C8     		movl	%ecx, %eax	 #, D.2743
 154 00e7 3B442418 		cmpl	24(%esp), %eax	 # size, D.2744
 155 00eb 7323     		jae	L4	 #,
 156              		.loc 1 112 0
 157 00ed B9000000 		movl	$0, %ecx	 #, D.2747
 157      00
 158 00f2 A1280002 		movl	LPBX1+8, %eax	 # *LPBX1, PROF_edge_counter.11
 158      00
 159 00f7 8B152C00 		movl	LPBX1+12, %edx	 # *LPBX1, PROF_edge_counter.11
 159      0200
 160 00fd 83C001   		addl	$1, %eax	 #, PROF_edge_counter.11
 161 0100 83D200   		adcl	$0, %edx	 #, PROF_edge_counter.11
 162 0103 A3280002 		movl	%eax, LPBX1+8	 # PROF_edge_counter.11, *LPBX1
 162      00
 163 0108 89152C00 		movl	%edx, LPBX1+12	 # PROF_edge_counter.11, *LPBX1
 163      0200
 164 010e EB37     		jmp	L5	 #
 165              	L4:
 166              		.loc 1 113 0
 167 0110 A1000000 		movl	_nextmem, %eax	 # nextmem, tmp76
 167      00
 168 0115 8944240C 		movl	%eax, 12(%esp)	 # tmp76, p
 169              		.loc 1 114 0
 170 0119 A1000000 		movl	_nextmem, %eax	 # nextmem, nextmem.8
 170      00
 171 011e 03442418 		addl	24(%esp), %eax	 # size, nextmem.9
 172 0122 A3000000 		movl	%eax, _nextmem	 # nextmem.9, nextmem
 172      00
 173              		.loc 1 115 0
 174 0127 8B4C240C 		movl	12(%esp), %ecx	 # p, D.2747
 175 012b A1300002 		movl	LPBX1+16, %eax	 # *LPBX1, PROF_edge_counter.11
 175      00
 176 0130 8B153400 		movl	LPBX1+20, %edx	 # *LPBX1, PROF_edge_counter.11
 176      0200
 177 0136 83C001   		addl	$1, %eax	 #, PROF_edge_counter.11
 178 0139 83D200   		adcl	$0, %edx	 #, PROF_edge_counter.11
 179 013c A3300002 		movl	%eax, LPBX1+16	 # PROF_edge_counter.11, *LPBX1
 179      00
 180 0141 89153400 		movl	%edx, LPBX1+20	 # PROF_edge_counter.11, *LPBX1
 180      0200
 181              	L5:
 182 0147 89C8     		movl	%ecx, %eax	 # D.2747, <retval>
 183              		.loc 1 116 0
 184 0149 83C414   		addl	$20, %esp	 #,
 185              	LCFI5:
 186              		.cfi_def_cfa_offset 4
 187 014c C3       		ret
 188              		.cfi_endproc
 189              	LFE2:
GAS LISTING C:\cygwin\tmp\ccDFoZ8B.s 			page 5


 190              		.globl	_chCoreStatus
 191              		.def	_chCoreStatus;	.scl	2;	.type	32;	.endef
 192              	_chCoreStatus:
 193              	LFB3:
 194              		.loc 1 125 0
 195              		.cfi_startproc
 196 014d 83EC04   		subl	$4, %esp	 #,
 197              	LCFI6:
 198              		.cfi_def_cfa_offset 8
 199              		.loc 1 125 0
 200 0150 A1200002 		movl	LPBX1, %eax	 # *LPBX1, PROF_edge_counter.10
 200      00
 201 0155 8B152400 		movl	LPBX1+4, %edx	 # *LPBX1, PROF_edge_counter.10
 201      0200
 202 015b 83C001   		addl	$1, %eax	 #, PROF_edge_counter.10
 203 015e 83D200   		adcl	$0, %edx	 #, PROF_edge_counter.10
 204 0161 A3200002 		movl	%eax, LPBX1	 # PROF_edge_counter.10, *LPBX1
 204      00
 205 0166 89152400 		movl	%edx, LPBX1+4	 # PROF_edge_counter.10, *LPBX1
 205      0200
 206              		.loc 1 127 0
 207 016c A1040000 		movl	_endmem, %eax	 # endmem, endmem.0
 207      00
 208 0171 89C2     		movl	%eax, %edx	 # endmem.0, endmem.1
 209 0173 A1000000 		movl	_nextmem, %eax	 # nextmem, nextmem.2
 209      00
 210 0178 89D1     		movl	%edx, %ecx	 # endmem.1,
 211 017a 29C1     		subl	%eax, %ecx	 # nextmem.3,
 212 017c 89C8     		movl	%ecx, %eax	 #, D.2736
 213              		.loc 1 128 0
 214 017e 83C404   		addl	$4, %esp	 #,
 215              	LCFI7:
 216              		.cfi_def_cfa_offset 4
 217 0181 C3       		ret
 218              		.cfi_endproc
 219              	LFE3:
 220              	.lcomm _buffer.1846,131072,32
 221              	.lcomm LPBX1,64,32
 222              		.section .rdata,"dr"
 223              		.align 4
 224              	LC0:
 225 0000 433A5C64 		.ascii "C:\\develop\\gyro\\ChibiOS\\test\\coverage/../../os/kernel/src/chmemcore.gcda\0"
 225      6576656C 
 225      6F705C67 
 225      79726F5C 
 225      43686962 
 226 0049 000000   		.data
 227              		.align 32
 228              	LC1:
 229              	 # <anonymous>:
 230 0000 04000000 		.long	4
 231              	 # <anonymous>:
 232 0004 C8C1AF80 		.long	-2135965240
 233              	 # <anonymous>:
 234 0008 01000000 		.long	1
 235              	 # <anonymous>:
 236 000c 03000000 		.long	3
GAS LISTING C:\cygwin\tmp\ccDFoZ8B.s 			page 6


 237              	 # <anonymous>:
 238 0010 E01F9D04 		.long	77406176
 239              	 # <anonymous>:
 240 0014 02000000 		.long	2
 241              	 # <anonymous>:
 242 0018 02000000 		.long	2
 243              	 # <anonymous>:
 244 001c A78DD9B2 		.long	-1294365273
 245              	 # <anonymous>:
 246 0020 04000000 		.long	4
 247              	 # <anonymous>:
 248 0024 01000000 		.long	1
 249              	 # <anonymous>:
 250 0028 2F0308FC 		.long	-66583761
 251              	 # <anonymous>:
 252 002c 01000000 		.long	1
 253 0030 00000000 		.align 32
 253      00000000 
 253      00000000 
 253      00000000 
 254              	LPBX0:
 255              	 # <anonymous>:
 256 0040 2A363034 		.long	875574826
 257              	 # <anonymous>:
 258 0044 00000000 		.long	0
 259              	 # <anonymous>:
 260 0048 4F267060 		.long	1617962575
 261              	 # <anonymous>:
 262 004c 00000000 		.long	LC0
 263              	 # <anonymous>:
 264 0050 04000000 		.long	4
 265              	 # <anonymous>:
 266 0054 00000000 		.long	LC1
 267              	 # <anonymous>:
 268 0058 01000000 		.long	1
 269              	 # <anonymous>:
 270              	 # <anonymous>:
 271 005c 08000000 		.long	8
 272              	 # <anonymous>:
 273 0060 20000200 		.long	LPBX1
 274              	 # <anonymous>:
 275 0064 00000000 		.long	___gcov_merge_add
 276 0068 00000000 		.space 12
 276      00000000 
 276      00000000 
 277 0074 00000000 		.text
 277      00000000 
 277      00000000 
 278              		.def	__GLOBAL__sub_I_65535_0__core_init;	.scl	3;	.type	32;	.endef
 279              	__GLOBAL__sub_I_65535_0__core_init:
 280              	LFB4:
 281              		.loc 1 128 0
 282              		.cfi_startproc
 283 0182 83EC1C   		subl	$28, %esp	 #,
 284              	LCFI8:
 285              		.cfi_def_cfa_offset 32
 286              		.loc 1 128 0
GAS LISTING C:\cygwin\tmp\ccDFoZ8B.s 			page 7


 287 0185 C7042440 		movl	$LPBX0, (%esp)	 #,
 287      000000
 288 018c E8000000 		call	___gcov_init	 #
 288      00
 289 0191 83C41C   		addl	$28, %esp	 #,
 290              	LCFI9:
 291              		.cfi_def_cfa_offset 4
 292 0194 C3       		ret
 293              		.cfi_endproc
 294              	LFE4:
 295              		.section	.ctors,"w"
 296              		.align 4
 297 0000 82010000 		.long	__GLOBAL__sub_I_65535_0__core_init
 298              		.text
 299              	Letext0:
 300              		.file 2 "c:/mingw/bin/../lib/gcc/mingw32/4.6.2/include/stddef.h"
 301              		.file 3 "c:/mingw/bin/../lib/gcc/mingw32/4.6.2/../../../../include/stdint.h"
 302              		.file 4 "../../os/ports/GCC/SIMIA32/chcore.h"
 303 0195 909090   		.section	.debug_info,"dr"
 304              	Ldebug_info0:
 305 0000 9F020000 		.long	0x29f
 306 0004 0200     		.word	0x2
 307 0006 00000000 		.secrel32	Ldebug_abbrev0
 308 000a 04       		.byte	0x4
 309 000b 01       		.uleb128 0x1
 310 000c 474E5520 		.ascii "GNU C 4.6.2\0"
 310      4320342E 
 310      362E3200 
 311 0018 01       		.byte	0x1
 312 0019 2E2E2F2E 		.ascii "../../os/kernel/src/chmemcore.c\0"
 312      2E2F6F73 
 312      2F6B6572 
 312      6E656C2F 
 312      7372632F 
 313 0039 433A5C64 		.ascii "C:\\develop\\gyro\\ChibiOS\\test\\coverage\0"
 313      6576656C 
 313      6F705C67 
 313      79726F5C 
 313      43686962 
 314 005f 00000000 		.long	Ltext0
 315 0063 95010000 		.long	Letext0
 316 0067 00000000 		.secrel32	Ldebug_line0
 317 006b 02       		.uleb128 0x2
 318 006c 04       		.byte	0x4
 319 006d 05       		.byte	0x5
 320 006e 696E7400 		.ascii "int\0"
 321 0072 03       		.uleb128 0x3
 322 0073 73697A65 		.ascii "size_t\0"
 322      5F7400
 323 007a 02       		.byte	0x2
 324 007b D4       		.byte	0xd4
 325 007c 80000000 		.long	0x80
 326 0080 02       		.uleb128 0x2
 327 0081 04       		.byte	0x4
 328 0082 07       		.byte	0x7
 329 0083 756E7369 		.ascii "unsigned int\0"
 329      676E6564 
GAS LISTING C:\cygwin\tmp\ccDFoZ8B.s 			page 8


 329      20696E74 
 329      00
 330 0090 02       		.uleb128 0x2
 331 0091 02       		.byte	0x2
 332 0092 07       		.byte	0x7
 333 0093 73686F72 		.ascii "short unsigned int\0"
 333      7420756E 
 333      7369676E 
 333      65642069 
 333      6E7400
 334 00a6 02       		.uleb128 0x2
 335 00a7 01       		.byte	0x1
 336 00a8 06       		.byte	0x6
 337 00a9 7369676E 		.ascii "signed char\0"
 337      65642063 
 337      68617200 
 338 00b5 03       		.uleb128 0x3
 339 00b6 75696E74 		.ascii "uint8_t\0"
 339      385F7400 
 340 00be 03       		.byte	0x3
 341 00bf 1C       		.byte	0x1c
 342 00c0 C4000000 		.long	0xc4
 343 00c4 02       		.uleb128 0x2
 344 00c5 01       		.byte	0x1
 345 00c6 08       		.byte	0x8
 346 00c7 756E7369 		.ascii "unsigned char\0"
 346      676E6564 
 346      20636861 
 346      7200
 347 00d5 02       		.uleb128 0x2
 348 00d6 02       		.byte	0x2
 349 00d7 05       		.byte	0x5
 350 00d8 73686F72 		.ascii "short int\0"
 350      7420696E 
 350      7400
 351 00e2 02       		.uleb128 0x2
 352 00e3 08       		.byte	0x8
 353 00e4 05       		.byte	0x5
 354 00e5 6C6F6E67 		.ascii "long long int\0"
 354      206C6F6E 
 354      6720696E 
 354      7400
 355 00f3 02       		.uleb128 0x2
 356 00f4 08       		.byte	0x8
 357 00f5 07       		.byte	0x7
 358 00f6 6C6F6E67 		.ascii "long long unsigned int\0"
 358      206C6F6E 
 358      6720756E 
 358      7369676E 
 358      65642069 
 359 010d 02       		.uleb128 0x2
 360 010e 01       		.byte	0x1
 361 010f 02       		.byte	0x2
 362 0110 5F426F6F 		.ascii "_Bool\0"
 362      6C00
 363 0116 04       		.uleb128 0x4
 364 0117 10       		.byte	0x10
GAS LISTING C:\cygwin\tmp\ccDFoZ8B.s 			page 9


 365 0118 04       		.byte	0x4
 366 0119 3D       		.byte	0x3d
 367 011a 2B010000 		.long	0x12b
 368 011e 05       		.uleb128 0x5
 369 011f 6100     		.ascii "a\0"
 370 0121 04       		.byte	0x4
 371 0122 3E       		.byte	0x3e
 372 0123 2B010000 		.long	0x12b
 373 0127 02       		.byte	0x2
 374 0128 23       		.byte	0x23
 375 0129 00       		.uleb128 0
 376 012a 00       		.byte	0
 377 012b 06       		.uleb128 0x6
 378 012c B5000000 		.long	0xb5
 379 0130 3B010000 		.long	0x13b
 380 0134 07       		.uleb128 0x7
 381 0135 80000000 		.long	0x80
 382 0139 0F       		.byte	0xf
 383 013a 00       		.byte	0
 384 013b 03       		.uleb128 0x3
 385 013c 73746B61 		.ascii "stkalign_t\0"
 385      6C69676E 
 385      5F7400
 386 0147 04       		.byte	0x4
 387 0148 3F       		.byte	0x3f
 388 0149 16010000 		.long	0x116
 389 014d 08       		.uleb128 0x8
 390 014e 04       		.byte	0x4
 391 014f 02       		.uleb128 0x2
 392 0150 01       		.byte	0x1
 393 0151 06       		.byte	0x6
 394 0152 63686172 		.ascii "char\0"
 394      00
 395 0157 09       		.uleb128 0x9
 396 0158 04       		.byte	0x4
 397 0159 B5000000 		.long	0xb5
 398 015d 0A       		.uleb128 0xa
 399 015e 01       		.byte	0x1
 400 015f 5F636F72 		.ascii "_core_init\0"
 400      655F696E 
 400      697400
 401 016a 01       		.byte	0x1
 402 016b 3B       		.byte	0x3b
 403 016c 01       		.byte	0x1
 404 016d 00000000 		.long	LFB0
 405 0171 37000000 		.long	LFE0
 406 0175 00000000 		.secrel32	LLST0
 407 0179 92010000 		.long	0x192
 408 017d 0B       		.uleb128 0xb
 409 017e 62756666 		.ascii "buffer\0"
 409      657200
 410 0185 01       		.byte	0x1
 411 0186 42       		.byte	0x42
 412 0187 92010000 		.long	0x192
 413 018b 05       		.byte	0x5
 414 018c 03       		.byte	0x3
 415 018d 20000000 		.long	_buffer.1846
GAS LISTING C:\cygwin\tmp\ccDFoZ8B.s 			page 10


 416 0191 00       		.byte	0
 417 0192 06       		.uleb128 0x6
 418 0193 3B010000 		.long	0x13b
 419 0197 A3010000 		.long	0x1a3
 420 019b 0C       		.uleb128 0xc
 421 019c 80000000 		.long	0x80
 422 01a0 FF1F     		.word	0x1fff
 423 01a2 00       		.byte	0
 424 01a3 0D       		.uleb128 0xd
 425 01a4 01       		.byte	0x1
 426 01a5 6368436F 		.ascii "chCoreAlloc\0"
 426      7265416C 
 426      6C6F6300 
 427 01b1 01       		.byte	0x1
 428 01b2 54       		.byte	0x54
 429 01b3 01       		.byte	0x1
 430 01b4 4D010000 		.long	0x14d
 431 01b8 37000000 		.long	LFB1
 432 01bc C4000000 		.long	LFE1
 433 01c0 2C000000 		.secrel32	LLST1
 434 01c4 E4010000 		.long	0x1e4
 435 01c8 0E       		.uleb128 0xe
 436 01c9 73697A65 		.ascii "size\0"
 436      00
 437 01ce 01       		.byte	0x1
 438 01cf 54       		.byte	0x54
 439 01d0 72000000 		.long	0x72
 440 01d4 02       		.byte	0x2
 441 01d5 91       		.byte	0x91
 442 01d6 00       		.sleb128 0
 443 01d7 0B       		.uleb128 0xb
 444 01d8 7000     		.ascii "p\0"
 445 01da 01       		.byte	0x1
 446 01db 55       		.byte	0x55
 447 01dc 4D010000 		.long	0x14d
 448 01e0 02       		.byte	0x2
 449 01e1 91       		.byte	0x91
 450 01e2 6C       		.sleb128 -20
 451 01e3 00       		.byte	0
 452 01e4 0D       		.uleb128 0xd
 453 01e5 01       		.byte	0x1
 454 01e6 6368436F 		.ascii "chCoreAllocI\0"
 454      7265416C 
 454      6C6F6349 
 454      00
 455 01f3 01       		.byte	0x1
 456 01f4 69       		.byte	0x69
 457 01f5 01       		.byte	0x1
 458 01f6 4D010000 		.long	0x14d
 459 01fa C4000000 		.long	LFB2
 460 01fe 4D010000 		.long	LFE2
 461 0202 58000000 		.secrel32	LLST2
 462 0206 26020000 		.long	0x226
 463 020a 0E       		.uleb128 0xe
 464 020b 73697A65 		.ascii "size\0"
 464      00
 465 0210 01       		.byte	0x1
GAS LISTING C:\cygwin\tmp\ccDFoZ8B.s 			page 11


 466 0211 69       		.byte	0x69
 467 0212 72000000 		.long	0x72
 468 0216 02       		.byte	0x2
 469 0217 91       		.byte	0x91
 470 0218 00       		.sleb128 0
 471 0219 0B       		.uleb128 0xb
 472 021a 7000     		.ascii "p\0"
 473 021c 01       		.byte	0x1
 474 021d 6A       		.byte	0x6a
 475 021e 4D010000 		.long	0x14d
 476 0222 02       		.byte	0x2
 477 0223 91       		.byte	0x91
 478 0224 74       		.sleb128 -12
 479 0225 00       		.byte	0
 480 0226 0F       		.uleb128 0xf
 481 0227 01       		.byte	0x1
 482 0228 6368436F 		.ascii "chCoreStatus\0"
 482      72655374 
 482      61747573 
 482      00
 483 0235 01       		.byte	0x1
 484 0236 7D       		.byte	0x7d
 485 0237 01       		.byte	0x1
 486 0238 72000000 		.long	0x72
 487 023c 4D010000 		.long	LFB3
 488 0240 82010000 		.long	LFE3
 489 0244 84000000 		.secrel32	LLST3
 490 0248 10       		.uleb128 0x10
 491 0249 5F474C4F 		.ascii "_GLOBAL__sub_I_65535_0__core_init\0"
 491      42414C5F 
 491      5F737562 
 491      5F495F36 
 491      35353335 
 492 026b 01       		.byte	0x1
 493 026c 01       		.byte	0x1
 494 026d 82010000 		.long	LFB4
 495 0271 95010000 		.long	LFE4
 496 0275 B0000000 		.secrel32	LLST4
 497 0279 0B       		.uleb128 0xb
 498 027a 6E657874 		.ascii "nextmem\0"
 498      6D656D00 
 499 0282 01       		.byte	0x1
 500 0283 33       		.byte	0x33
 501 0284 57010000 		.long	0x157
 502 0288 05       		.byte	0x5
 503 0289 03       		.byte	0x3
 504 028a 00000000 		.long	_nextmem
 505 028e 0B       		.uleb128 0xb
 506 028f 656E646D 		.ascii "endmem\0"
 506      656D00
 507 0296 01       		.byte	0x1
 508 0297 34       		.byte	0x34
 509 0298 57010000 		.long	0x157
 510 029c 05       		.byte	0x5
 511 029d 03       		.byte	0x3
 512 029e 04000000 		.long	_endmem
 513 02a2 00       		.byte	0
GAS LISTING C:\cygwin\tmp\ccDFoZ8B.s 			page 12


 514              		.section	.debug_abbrev,"dr"
 515              	Ldebug_abbrev0:
 516 0000 01       		.uleb128 0x1
 517 0001 11       		.uleb128 0x11
 518 0002 01       		.byte	0x1
 519 0003 25       		.uleb128 0x25
 520 0004 08       		.uleb128 0x8
 521 0005 13       		.uleb128 0x13
 522 0006 0B       		.uleb128 0xb
 523 0007 03       		.uleb128 0x3
 524 0008 08       		.uleb128 0x8
 525 0009 1B       		.uleb128 0x1b
 526 000a 08       		.uleb128 0x8
 527 000b 11       		.uleb128 0x11
 528 000c 01       		.uleb128 0x1
 529 000d 12       		.uleb128 0x12
 530 000e 01       		.uleb128 0x1
 531 000f 10       		.uleb128 0x10
 532 0010 06       		.uleb128 0x6
 533 0011 00       		.byte	0
 534 0012 00       		.byte	0
 535 0013 02       		.uleb128 0x2
 536 0014 24       		.uleb128 0x24
 537 0015 00       		.byte	0
 538 0016 0B       		.uleb128 0xb
 539 0017 0B       		.uleb128 0xb
 540 0018 3E       		.uleb128 0x3e
 541 0019 0B       		.uleb128 0xb
 542 001a 03       		.uleb128 0x3
 543 001b 08       		.uleb128 0x8
 544 001c 00       		.byte	0
 545 001d 00       		.byte	0
 546 001e 03       		.uleb128 0x3
 547 001f 16       		.uleb128 0x16
 548 0020 00       		.byte	0
 549 0021 03       		.uleb128 0x3
 550 0022 08       		.uleb128 0x8
 551 0023 3A       		.uleb128 0x3a
 552 0024 0B       		.uleb128 0xb
 553 0025 3B       		.uleb128 0x3b
 554 0026 0B       		.uleb128 0xb
 555 0027 49       		.uleb128 0x49
 556 0028 13       		.uleb128 0x13
 557 0029 00       		.byte	0
 558 002a 00       		.byte	0
 559 002b 04       		.uleb128 0x4
 560 002c 13       		.uleb128 0x13
 561 002d 01       		.byte	0x1
 562 002e 0B       		.uleb128 0xb
 563 002f 0B       		.uleb128 0xb
 564 0030 3A       		.uleb128 0x3a
 565 0031 0B       		.uleb128 0xb
 566 0032 3B       		.uleb128 0x3b
 567 0033 0B       		.uleb128 0xb
 568 0034 01       		.uleb128 0x1
 569 0035 13       		.uleb128 0x13
 570 0036 00       		.byte	0
GAS LISTING C:\cygwin\tmp\ccDFoZ8B.s 			page 13


 571 0037 00       		.byte	0
 572 0038 05       		.uleb128 0x5
 573 0039 0D       		.uleb128 0xd
 574 003a 00       		.byte	0
 575 003b 03       		.uleb128 0x3
 576 003c 08       		.uleb128 0x8
 577 003d 3A       		.uleb128 0x3a
 578 003e 0B       		.uleb128 0xb
 579 003f 3B       		.uleb128 0x3b
 580 0040 0B       		.uleb128 0xb
 581 0041 49       		.uleb128 0x49
 582 0042 13       		.uleb128 0x13
 583 0043 38       		.uleb128 0x38
 584 0044 0A       		.uleb128 0xa
 585 0045 00       		.byte	0
 586 0046 00       		.byte	0
 587 0047 06       		.uleb128 0x6
 588 0048 01       		.uleb128 0x1
 589 0049 01       		.byte	0x1
 590 004a 49       		.uleb128 0x49
 591 004b 13       		.uleb128 0x13
 592 004c 01       		.uleb128 0x1
 593 004d 13       		.uleb128 0x13
 594 004e 00       		.byte	0
 595 004f 00       		.byte	0
 596 0050 07       		.uleb128 0x7
 597 0051 21       		.uleb128 0x21
 598 0052 00       		.byte	0
 599 0053 49       		.uleb128 0x49
 600 0054 13       		.uleb128 0x13
 601 0055 2F       		.uleb128 0x2f
 602 0056 0B       		.uleb128 0xb
 603 0057 00       		.byte	0
 604 0058 00       		.byte	0
 605 0059 08       		.uleb128 0x8
 606 005a 0F       		.uleb128 0xf
 607 005b 00       		.byte	0
 608 005c 0B       		.uleb128 0xb
 609 005d 0B       		.uleb128 0xb
 610 005e 00       		.byte	0
 611 005f 00       		.byte	0
 612 0060 09       		.uleb128 0x9
 613 0061 0F       		.uleb128 0xf
 614 0062 00       		.byte	0
 615 0063 0B       		.uleb128 0xb
 616 0064 0B       		.uleb128 0xb
 617 0065 49       		.uleb128 0x49
 618 0066 13       		.uleb128 0x13
 619 0067 00       		.byte	0
 620 0068 00       		.byte	0
 621 0069 0A       		.uleb128 0xa
 622 006a 2E       		.uleb128 0x2e
 623 006b 01       		.byte	0x1
 624 006c 3F       		.uleb128 0x3f
 625 006d 0C       		.uleb128 0xc
 626 006e 03       		.uleb128 0x3
 627 006f 08       		.uleb128 0x8
GAS LISTING C:\cygwin\tmp\ccDFoZ8B.s 			page 14


 628 0070 3A       		.uleb128 0x3a
 629 0071 0B       		.uleb128 0xb
 630 0072 3B       		.uleb128 0x3b
 631 0073 0B       		.uleb128 0xb
 632 0074 27       		.uleb128 0x27
 633 0075 0C       		.uleb128 0xc
 634 0076 11       		.uleb128 0x11
 635 0077 01       		.uleb128 0x1
 636 0078 12       		.uleb128 0x12
 637 0079 01       		.uleb128 0x1
 638 007a 40       		.uleb128 0x40
 639 007b 06       		.uleb128 0x6
 640 007c 01       		.uleb128 0x1
 641 007d 13       		.uleb128 0x13
 642 007e 00       		.byte	0
 643 007f 00       		.byte	0
 644 0080 0B       		.uleb128 0xb
 645 0081 34       		.uleb128 0x34
 646 0082 00       		.byte	0
 647 0083 03       		.uleb128 0x3
 648 0084 08       		.uleb128 0x8
 649 0085 3A       		.uleb128 0x3a
 650 0086 0B       		.uleb128 0xb
 651 0087 3B       		.uleb128 0x3b
 652 0088 0B       		.uleb128 0xb
 653 0089 49       		.uleb128 0x49
 654 008a 13       		.uleb128 0x13
 655 008b 02       		.uleb128 0x2
 656 008c 0A       		.uleb128 0xa
 657 008d 00       		.byte	0
 658 008e 00       		.byte	0
 659 008f 0C       		.uleb128 0xc
 660 0090 21       		.uleb128 0x21
 661 0091 00       		.byte	0
 662 0092 49       		.uleb128 0x49
 663 0093 13       		.uleb128 0x13
 664 0094 2F       		.uleb128 0x2f
 665 0095 05       		.uleb128 0x5
 666 0096 00       		.byte	0
 667 0097 00       		.byte	0
 668 0098 0D       		.uleb128 0xd
 669 0099 2E       		.uleb128 0x2e
 670 009a 01       		.byte	0x1
 671 009b 3F       		.uleb128 0x3f
 672 009c 0C       		.uleb128 0xc
 673 009d 03       		.uleb128 0x3
 674 009e 08       		.uleb128 0x8
 675 009f 3A       		.uleb128 0x3a
 676 00a0 0B       		.uleb128 0xb
 677 00a1 3B       		.uleb128 0x3b
 678 00a2 0B       		.uleb128 0xb
 679 00a3 27       		.uleb128 0x27
 680 00a4 0C       		.uleb128 0xc
 681 00a5 49       		.uleb128 0x49
 682 00a6 13       		.uleb128 0x13
 683 00a7 11       		.uleb128 0x11
 684 00a8 01       		.uleb128 0x1
GAS LISTING C:\cygwin\tmp\ccDFoZ8B.s 			page 15


 685 00a9 12       		.uleb128 0x12
 686 00aa 01       		.uleb128 0x1
 687 00ab 40       		.uleb128 0x40
 688 00ac 06       		.uleb128 0x6
 689 00ad 01       		.uleb128 0x1
 690 00ae 13       		.uleb128 0x13
 691 00af 00       		.byte	0
 692 00b0 00       		.byte	0
 693 00b1 0E       		.uleb128 0xe
 694 00b2 05       		.uleb128 0x5
 695 00b3 00       		.byte	0
 696 00b4 03       		.uleb128 0x3
 697 00b5 08       		.uleb128 0x8
 698 00b6 3A       		.uleb128 0x3a
 699 00b7 0B       		.uleb128 0xb
 700 00b8 3B       		.uleb128 0x3b
 701 00b9 0B       		.uleb128 0xb
 702 00ba 49       		.uleb128 0x49
 703 00bb 13       		.uleb128 0x13
 704 00bc 02       		.uleb128 0x2
 705 00bd 0A       		.uleb128 0xa
 706 00be 00       		.byte	0
 707 00bf 00       		.byte	0
 708 00c0 0F       		.uleb128 0xf
 709 00c1 2E       		.uleb128 0x2e
 710 00c2 00       		.byte	0
 711 00c3 3F       		.uleb128 0x3f
 712 00c4 0C       		.uleb128 0xc
 713 00c5 03       		.uleb128 0x3
 714 00c6 08       		.uleb128 0x8
 715 00c7 3A       		.uleb128 0x3a
 716 00c8 0B       		.uleb128 0xb
 717 00c9 3B       		.uleb128 0x3b
 718 00ca 0B       		.uleb128 0xb
 719 00cb 27       		.uleb128 0x27
 720 00cc 0C       		.uleb128 0xc
 721 00cd 49       		.uleb128 0x49
 722 00ce 13       		.uleb128 0x13
 723 00cf 11       		.uleb128 0x11
 724 00d0 01       		.uleb128 0x1
 725 00d1 12       		.uleb128 0x12
 726 00d2 01       		.uleb128 0x1
 727 00d3 40       		.uleb128 0x40
 728 00d4 06       		.uleb128 0x6
 729 00d5 00       		.byte	0
 730 00d6 00       		.byte	0
 731 00d7 10       		.uleb128 0x10
 732 00d8 2E       		.uleb128 0x2e
 733 00d9 00       		.byte	0
 734 00da 03       		.uleb128 0x3
 735 00db 08       		.uleb128 0x8
 736 00dc 27       		.uleb128 0x27
 737 00dd 0C       		.uleb128 0xc
 738 00de 34       		.uleb128 0x34
 739 00df 0C       		.uleb128 0xc
 740 00e0 11       		.uleb128 0x11
 741 00e1 01       		.uleb128 0x1
GAS LISTING C:\cygwin\tmp\ccDFoZ8B.s 			page 16


 742 00e2 12       		.uleb128 0x12
 743 00e3 01       		.uleb128 0x1
 744 00e4 40       		.uleb128 0x40
 745 00e5 06       		.uleb128 0x6
 746 00e6 00       		.byte	0
 747 00e7 00       		.byte	0
 748 00e8 00       		.byte	0
 749              		.section	.debug_loc,"dr"
 750              	Ldebug_loc0:
 751              	LLST0:
 752 0000 00000000 		.long	LFB0-Ltext0
 753 0004 03000000 		.long	LCFI0-Ltext0
 754 0008 0200     		.word	0x2
 755 000a 74       		.byte	0x74
 756 000b 04       		.sleb128 4
 757 000c 03000000 		.long	LCFI0-Ltext0
 758 0010 36000000 		.long	LCFI1-Ltext0
 759 0014 0200     		.word	0x2
 760 0016 74       		.byte	0x74
 761 0017 10       		.sleb128 16
 762 0018 36000000 		.long	LCFI1-Ltext0
 763 001c 37000000 		.long	LFE0-Ltext0
 764 0020 0200     		.word	0x2
 765 0022 74       		.byte	0x74
 766 0023 04       		.sleb128 4
 767 0024 00000000 		.long	0
 768 0028 00000000 		.long	0
 769              	LLST1:
 770 002c 37000000 		.long	LFB1-Ltext0
 771 0030 3A000000 		.long	LCFI2-Ltext0
 772 0034 0200     		.word	0x2
 773 0036 74       		.byte	0x74
 774 0037 04       		.sleb128 4
 775 0038 3A000000 		.long	LCFI2-Ltext0
 776 003c C3000000 		.long	LCFI3-Ltext0
 777 0040 0200     		.word	0x2
 778 0042 74       		.byte	0x74
 779 0043 30       		.sleb128 48
 780 0044 C3000000 		.long	LCFI3-Ltext0
 781 0048 C4000000 		.long	LFE1-Ltext0
 782 004c 0200     		.word	0x2
 783 004e 74       		.byte	0x74
 784 004f 04       		.sleb128 4
 785 0050 00000000 		.long	0
 786 0054 00000000 		.long	0
 787              	LLST2:
 788 0058 C4000000 		.long	LFB2-Ltext0
 789 005c C7000000 		.long	LCFI4-Ltext0
 790 0060 0200     		.word	0x2
 791 0062 74       		.byte	0x74
 792 0063 04       		.sleb128 4
 793 0064 C7000000 		.long	LCFI4-Ltext0
 794 0068 4C010000 		.long	LCFI5-Ltext0
 795 006c 0200     		.word	0x2
 796 006e 74       		.byte	0x74
 797 006f 18       		.sleb128 24
 798 0070 4C010000 		.long	LCFI5-Ltext0
GAS LISTING C:\cygwin\tmp\ccDFoZ8B.s 			page 17


 799 0074 4D010000 		.long	LFE2-Ltext0
 800 0078 0200     		.word	0x2
 801 007a 74       		.byte	0x74
 802 007b 04       		.sleb128 4
 803 007c 00000000 		.long	0
 804 0080 00000000 		.long	0
 805              	LLST3:
 806 0084 4D010000 		.long	LFB3-Ltext0
 807 0088 50010000 		.long	LCFI6-Ltext0
 808 008c 0200     		.word	0x2
 809 008e 74       		.byte	0x74
 810 008f 04       		.sleb128 4
 811 0090 50010000 		.long	LCFI6-Ltext0
 812 0094 81010000 		.long	LCFI7-Ltext0
 813 0098 0200     		.word	0x2
 814 009a 74       		.byte	0x74
 815 009b 08       		.sleb128 8
 816 009c 81010000 		.long	LCFI7-Ltext0
 817 00a0 82010000 		.long	LFE3-Ltext0
 818 00a4 0200     		.word	0x2
 819 00a6 74       		.byte	0x74
 820 00a7 04       		.sleb128 4
 821 00a8 00000000 		.long	0
 822 00ac 00000000 		.long	0
 823              	LLST4:
 824 00b0 82010000 		.long	LFB4-Ltext0
 825 00b4 85010000 		.long	LCFI8-Ltext0
 826 00b8 0200     		.word	0x2
 827 00ba 74       		.byte	0x74
 828 00bb 04       		.sleb128 4
 829 00bc 85010000 		.long	LCFI8-Ltext0
 830 00c0 94010000 		.long	LCFI9-Ltext0
 831 00c4 0200     		.word	0x2
 832 00c6 74       		.byte	0x74
 833 00c7 20       		.sleb128 32
 834 00c8 94010000 		.long	LCFI9-Ltext0
 835 00cc 95010000 		.long	LFE4-Ltext0
 836 00d0 0200     		.word	0x2
 837 00d2 74       		.byte	0x74
 838 00d3 04       		.sleb128 4
 839 00d4 00000000 		.long	0
 840 00d8 00000000 		.long	0
 841              		.section	.debug_aranges,"dr"
 842 0000 1C000000 		.long	0x1c
 843 0004 0200     		.word	0x2
 844 0006 00000000 		.secrel32	Ldebug_info0
 845 000a 04       		.byte	0x4
 846 000b 00       		.byte	0
 847 000c 0000     		.word	0
 848 000e 0000     		.word	0
 849 0010 00000000 		.long	Ltext0
 850 0014 95010000 		.long	Letext0-Ltext0
 851 0018 00000000 		.long	0
 852 001c 00000000 		.long	0
 853              		.section	.debug_line,"dr"
 854              	Ldebug_line0:
 855              		.def	___gcov_merge_add;	.scl	2;	.type	32;	.endef
GAS LISTING C:\cygwin\tmp\ccDFoZ8B.s 			page 18


 856 0000 1E010000 		.def	___gcov_init;	.scl	2;	.type	32;	.endef
 856      0200DD00 
 856      00000101 
 856      FB0E0D00 
 856      01010101 
GAS LISTING C:\cygwin\tmp\ccDFoZ8B.s 			page 19


DEFINED SYMBOLS
                            *ABS*:00000000 chmemcore.c
C:\cygwin\tmp\ccDFoZ8B.s:43     .bss:00000000 _nextmem
C:\cygwin\tmp\ccDFoZ8B.s:44     .bss:00000004 _endmem
C:\cygwin\tmp\ccDFoZ8B.s:47     .text:00000000 __core_init
C:\cygwin\tmp\ccDFoZ8B.s:220    .bss:00000020 _buffer.1846
C:\cygwin\tmp\ccDFoZ8B.s:75     .text:00000037 _chCoreAlloc
C:\cygwin\tmp\ccDFoZ8B.s:135    .text:000000c4 _chCoreAllocI
C:\cygwin\tmp\ccDFoZ8B.s:192    .text:0000014d _chCoreStatus
C:\cygwin\tmp\ccDFoZ8B.s:279    .text:00000182 __GLOBAL__sub_I_65535_0__core_init

UNDEFINED SYMBOLS
___gcov_merge_add
___gcov_init
