GAS LISTING C:\cygwin\tmp\ccPWAwfi.s 			page 1


   1              		.file	"chmtx.c"
   2              	 # GNU C (GCC) version 4.6.2 (mingw32)
   3              	 #	compiled by GNU C version 4.6.2, GMP version 5.0.1, MPFR version 2.4.1, MPC version 0.8.1
   4              	 # GGC heuristics: --param ggc-min-expand=100 --param ggc-min-heapsize=131072
   5              	 # options passed:  -I . -I ../../os/ports/GCC/SIMIA32
   6              	 # -I ../../os/kernel/include -I ../../test -I ../../os/hal/include
   7              	 # -I ../../os/hal/platforms/Win32 -I ../../boards/simulator
   8              	 # -I ../../os/various -iprefix c:\mingw\bin\../lib/gcc/mingw32/4.6.2/
   9              	 # -MD ../../os/kernel/src/chmtx.d -MF .dep/chmtx.o.d -MP
  10              	 # -MQ ../../os/kernel/src/chmtx.o -D SIMULATOR ../../os/kernel/src/chmtx.c
  11              	 # -mtune=i386 -march=i386 -auxbase-strip ../../os/kernel/src/chmtx.o -ggdb
  12              	 # -O0 -Wall -Wextra -Wstrict-prototypes -fomit-frame-pointer
  13              	 # -fprofile-arcs -ftest-coverage -fverbose-asm
  14              	 # options enabled:  -fasynchronous-unwind-tables -fauto-inc-dec
  15              	 # -fbranch-count-reg -fcommon -fdelete-null-pointer-checks
  16              	 # -fdwarf2-cfi-asm -fearly-inlining -feliminate-unused-debug-types
  17              	 # -ffunction-cse -fgcse-lm -fident -finline-functions-called-once
  18              	 # -fira-share-save-slots -fira-share-spill-slots -fivopts
  19              	 # -fkeep-inline-dllexport -fkeep-static-consts -fleading-underscore
  20              	 # -fmath-errno -fmerge-debug-strings -fmove-loop-invariants
  21              	 # -fomit-frame-pointer -fpeephole -fprefetch-loop-arrays -fprofile-arcs
  22              	 # -freg-struct-return -fsched-critical-path-heuristic
  23              	 # -fsched-dep-count-heuristic -fsched-group-heuristic -fsched-interblock
  24              	 # -fsched-last-insn-heuristic -fsched-rank-heuristic -fsched-spec
  25              	 # -fsched-spec-insn-heuristic -fsched-stalled-insns-dep
  26              	 # -fset-stack-executable -fshow-column -fsigned-zeros
  27              	 # -fsplit-ivs-in-unroller -fstrict-volatile-bitfields -ftest-coverage
  28              	 # -ftrapping-math -ftree-cselim -ftree-forwprop -ftree-loop-if-convert
  29              	 # -ftree-loop-im -ftree-loop-ivcanon -ftree-loop-optimize
  30              	 # -ftree-parallelize-loops= -ftree-phiprop -ftree-pta -ftree-reassoc
  31              	 # -ftree-scev-cprop -ftree-slp-vectorize -ftree-vect-loop-version
  32              	 # -funit-at-a-time -funwind-tables -fvect-cost-model -fverbose-asm
  33              	 # -fzero-initialized-in-bss -m32 -m80387 -m96bit-long-double
  34              	 # -maccumulate-outgoing-args -malign-double -malign-stringops
  35              	 # -mfancy-math-387 -mfp-ret-in-387 -mieee-fp -mno-red-zone -mno-sse4
  36              	 # -mpush-args -msahf -mstack-arg-probe
  37              	
  38              		.text
  39              	Ltext0:
  40              	 # Compiler executable checksum: c20aed7c018482d7b62efcd5dcab2a9d
  41              	
  42              		.globl	_chMtxInit
  43              		.def	_chMtxInit;	.scl	2;	.type	32;	.endef
  44              	_chMtxInit:
  45              	LFB0:
  46              		.file 1 "../../os/kernel/src/chmtx.c"
  47              		.loc 1 79 0
  48              		.cfi_startproc
  49 0000 83EC04   		subl	$4, %esp	 #,
  50              	LCFI0:
  51              		.cfi_def_cfa_offset 8
  52              		.loc 1 79 0
  53 0003 A1880100 		movl	LPBX1+392, %eax	 # *LPBX1, PROF_edge_counter.7
  53      00
  54 0008 8B158C01 		movl	LPBX1+396, %edx	 # *LPBX1, PROF_edge_counter.7
  54      0000
  55 000e 83C001   		addl	$1, %eax	 #, PROF_edge_counter.7
GAS LISTING C:\cygwin\tmp\ccPWAwfi.s 			page 2


  56 0011 83D200   		adcl	$0, %edx	 #, PROF_edge_counter.7
  57 0014 A3880100 		movl	%eax, LPBX1+392	 # PROF_edge_counter.7, *LPBX1
  57      00
  58 0019 89158C01 		movl	%edx, LPBX1+396	 # PROF_edge_counter.7, *LPBX1
  58      0000
  59              		.loc 1 83 0
  60 001f 8B542408 		movl	8(%esp), %edx	 # mp, D.2884
  61 0023 8B442408 		movl	8(%esp), %eax	 # mp, tmp63
  62 0027 895004   		movl	%edx, 4(%eax)	 # D.2884, mp_1(D)->m_queue.p_prev
  63 002a 8B442408 		movl	8(%esp), %eax	 # mp, tmp64
  64 002e 8B5004   		movl	4(%eax), %edx	 # mp_1(D)->m_queue.p_prev, D.2885
  65 0031 8B442408 		movl	8(%esp), %eax	 # mp, tmp65
  66 0035 8910     		movl	%edx, (%eax)	 # D.2885, mp_1(D)->m_queue.p_next
  67              		.loc 1 84 0
  68 0037 8B442408 		movl	8(%esp), %eax	 # mp, tmp66
  69 003b C7400800 		movl	$0, 8(%eax)	 #, mp_1(D)->m_owner
  69      000000
  70              		.loc 1 85 0
  71 0042 83C404   		addl	$4, %esp	 #,
  72              	LCFI1:
  73              		.cfi_def_cfa_offset 4
  74 0045 C3       		ret
  75              		.cfi_endproc
  76              	LFE0:
  77              		.globl	_chMtxLock
  78              		.def	_chMtxLock;	.scl	2;	.type	32;	.endef
  79              	_chMtxLock:
  80              	LFB1:
  81              		.loc 1 96 0
  82              		.cfi_startproc
  83 0046 83EC1C   		subl	$28, %esp	 #,
  84              	LCFI2:
  85              		.cfi_def_cfa_offset 32
  86              		.loc 1 96 0
  87 0049 A1680100 		movl	LPBX1+360, %eax	 # *LPBX1, PROF_edge_counter.6
  87      00
  88 004e 8B156C01 		movl	LPBX1+364, %edx	 # *LPBX1, PROF_edge_counter.6
  88      0000
  89 0054 83C001   		addl	$1, %eax	 #, PROF_edge_counter.6
  90 0057 83D200   		adcl	$0, %edx	 #, PROF_edge_counter.6
  91 005a A3680100 		movl	%eax, LPBX1+360	 # PROF_edge_counter.6, *LPBX1
  91      00
  92 005f 89156C01 		movl	%edx, LPBX1+364	 # PROF_edge_counter.6, *LPBX1
  92      0000
  93              		.loc 1 98 0
  94              	/APP
  95              	 # 98 "../../os/kernel/src/chmtx.c" 1
  96 0065 90       		nop
  97              	 # 0 "" 2
  98              	/NO_APP
  99 0066 A1700100 		movl	LPBX1+368, %eax	 # *LPBX1, PROF_edge_counter.6
  99      00
 100 006b 8B157401 		movl	LPBX1+372, %edx	 # *LPBX1, PROF_edge_counter.6
 100      0000
 101 0071 83C001   		addl	$1, %eax	 #, PROF_edge_counter.6
 102 0074 83D200   		adcl	$0, %edx	 #, PROF_edge_counter.6
 103 0077 A3700100 		movl	%eax, LPBX1+368	 # PROF_edge_counter.6, *LPBX1
GAS LISTING C:\cygwin\tmp\ccPWAwfi.s 			page 3


 103      00
 104 007c 89157401 		movl	%edx, LPBX1+372	 # PROF_edge_counter.6, *LPBX1
 104      0000
 105              		.loc 1 100 0
 106 0082 8B442420 		movl	32(%esp), %eax	 # mp, tmp67
 107 0086 890424   		movl	%eax, (%esp)	 # tmp67,
 108 0089 E83D0000 		call	_chMtxLockS	 #
 108      00
 109 008e A1780100 		movl	LPBX1+376, %eax	 # *LPBX1, PROF_edge_counter.6
 109      00
 110 0093 8B157C01 		movl	LPBX1+380, %edx	 # *LPBX1, PROF_edge_counter.6
 110      0000
 111 0099 83C001   		addl	$1, %eax	 #, PROF_edge_counter.6
 112 009c 83D200   		adcl	$0, %edx	 #, PROF_edge_counter.6
 113 009f A3780100 		movl	%eax, LPBX1+376	 # PROF_edge_counter.6, *LPBX1
 113      00
 114 00a4 89157C01 		movl	%edx, LPBX1+380	 # PROF_edge_counter.6, *LPBX1
 114      0000
 115              		.loc 1 102 0
 116              	/APP
 117              	 # 102 "../../os/kernel/src/chmtx.c" 1
 118 00aa 90       		nop
 119              	 # 0 "" 2
 120              	/NO_APP
 121 00ab A1800100 		movl	LPBX1+384, %eax	 # *LPBX1, PROF_edge_counter.6
 121      00
 122 00b0 8B158401 		movl	LPBX1+388, %edx	 # *LPBX1, PROF_edge_counter.6
 122      0000
 123 00b6 83C001   		addl	$1, %eax	 #, PROF_edge_counter.6
 124 00b9 83D200   		adcl	$0, %edx	 #, PROF_edge_counter.6
 125 00bc A3800100 		movl	%eax, LPBX1+384	 # PROF_edge_counter.6, *LPBX1
 125      00
 126 00c1 89158401 		movl	%edx, LPBX1+388	 # PROF_edge_counter.6, *LPBX1
 126      0000
 127              		.loc 1 103 0
 128 00c7 83C41C   		addl	$28, %esp	 #,
 129              	LCFI3:
 130              		.cfi_def_cfa_offset 4
 131 00ca C3       		ret
 132              		.cfi_endproc
 133              	LFE1:
 134              		.globl	_chMtxLockS
 135              		.def	_chMtxLockS;	.scl	2;	.type	32;	.endef
 136              	_chMtxLockS:
 137              	LFB2:
 138              		.loc 1 114 0
 139              		.cfi_startproc
 140 00cb 53       		pushl	%ebx	 #
 141              	LCFI4:
 142              		.cfi_def_cfa_offset 8
 143              		.cfi_offset 3, -8
 144 00cc 83EC28   		subl	$40, %esp	 #,
 145              	LCFI5:
 146              		.cfi_def_cfa_offset 48
 147              		.loc 1 115 0
 148 00cf A1180000 		movl	_rlist+24, %eax	 # rlist.r_current, tmp103
 148      00
GAS LISTING C:\cygwin\tmp\ccPWAwfi.s 			page 4


 149 00d4 89442418 		movl	%eax, 24(%esp)	 # tmp103, ctp
 150              		.loc 1 121 0
 151 00d8 8B442430 		movl	48(%esp), %eax	 # mp, tmp104
 152 00dc 8B4008   		movl	8(%eax), %eax	 # mp_3(D)->m_owner, D.2855
 153 00df 85C0     		testl	%eax, %eax	 # D.2855
 154 00e1 0F846102 		je	L4	 #,
 154      0000
 155              	LBB2:
 156              		.loc 1 125 0
 157 00e7 8B442430 		movl	48(%esp), %eax	 # mp, tmp105
 158 00eb 8B4008   		movl	8(%eax), %eax	 # mp_3(D)->m_owner, tmp106
 159 00ee 8944241C 		movl	%eax, 28(%esp)	 # tmp106, tp
 160 00f2 A1F80000 		movl	LPBX1+248, %eax	 # *LPBX1, PROF_edge_counter.5
 160      00
 161 00f7 8B15FC00 		movl	LPBX1+252, %edx	 # *LPBX1, PROF_edge_counter.5
 161      0000
 162 00fd 83C001   		addl	$1, %eax	 #, PROF_edge_counter.5
 163 0100 83D200   		adcl	$0, %edx	 #, PROF_edge_counter.5
 164 0103 A3F80000 		movl	%eax, LPBX1+248	 # PROF_edge_counter.5, *LPBX1
 164      00
 165 0108 8915FC00 		movl	%edx, LPBX1+252	 # PROF_edge_counter.5, *LPBX1
 165      0000
 166              		.loc 1 128 0
 167 010e E9BA0100 		jmp	L5	 #
 167      00
 168              	L11:
 169 0113 A1480100 		movl	LPBX1+328, %eax	 # *LPBX1, PROF_edge_counter.5
 169      00
 170 0118 8B154C01 		movl	LPBX1+332, %edx	 # *LPBX1, PROF_edge_counter.5
 170      0000
 171 011e 83C001   		addl	$1, %eax	 #, PROF_edge_counter.5
 172 0121 83D200   		adcl	$0, %edx	 #, PROF_edge_counter.5
 173 0124 A3480100 		movl	%eax, LPBX1+328	 # PROF_edge_counter.5, *LPBX1
 173      00
 174 0129 89154C01 		movl	%edx, LPBX1+332	 # PROF_edge_counter.5, *LPBX1
 174      0000
 175              		.loc 1 130 0
 176 012f 8B442418 		movl	24(%esp), %eax	 # ctp, tmp107
 177 0133 8B5008   		movl	8(%eax), %edx	 # ctp_2->p_prio, D.2858
 178 0136 8B44241C 		movl	28(%esp), %eax	 # tp, tmp108
 179 013a 895008   		movl	%edx, 8(%eax)	 # D.2858, tp_1->p_prio
 180              		.loc 1 132 0
 181 013d 8B44241C 		movl	28(%esp), %eax	 # tp, tmp109
 182 0141 8A401C   		movb	28(%eax), %al	 # tp_1->p_state, D.2859
 183 0144 0FB6C0   		movzbl	%al, %eax	 # D.2859, D.2860
 184 0147 83F804   		cmpl	$4, %eax	 #, D.2860
 185 014a 7416     		je	L8	 #,
 186 014c 83F805   		cmpl	$5, %eax	 #, D.2860
 187 014f 0F849500 		je	L9	 #,
 187      0000
 188 0155 85C0     		testl	%eax, %eax	 # D.2860
 189 0157 0F840401 		je	L7	 #,
 189      0000
 190 015d E94D0100 		jmp	L6	 #
 190      00
 191              	L8:
 192 0162 A1000100 		movl	LPBX1+256, %eax	 # *LPBX1, PROF_edge_counter.5
GAS LISTING C:\cygwin\tmp\ccPWAwfi.s 			page 5


 192      00
 193 0167 8B150401 		movl	LPBX1+260, %edx	 # *LPBX1, PROF_edge_counter.5
 193      0000
 194 016d 83C001   		addl	$1, %eax	 #, PROF_edge_counter.5
 195 0170 83D200   		adcl	$0, %edx	 #, PROF_edge_counter.5
 196 0173 A3000100 		movl	%eax, LPBX1+256	 # PROF_edge_counter.5, *LPBX1
 196      00
 197 0178 89150401 		movl	%edx, LPBX1+260	 # PROF_edge_counter.5, *LPBX1
 197      0000
 198              		.loc 1 135 0
 199 017e 8B44241C 		movl	28(%esp), %eax	 # tp, tmp110
 200 0182 8B5824   		movl	36(%eax), %ebx	 # tp_1->p_u.wtobjp, D.2861
 201 0185 8B44241C 		movl	28(%esp), %eax	 # tp, tmp111
 202 0189 890424   		movl	%eax, (%esp)	 # tmp111,
 203 018c E8000000 		call	_dequeue	 #
 203      00
 204 0191 89C1     		movl	%eax, %ecx	 #, D.2862
 205 0193 A1100100 		movl	LPBX1+272, %eax	 # *LPBX1, PROF_edge_counter.5
 205      00
 206 0198 8B151401 		movl	LPBX1+276, %edx	 # *LPBX1, PROF_edge_counter.5
 206      0000
 207 019e 83C001   		addl	$1, %eax	 #, PROF_edge_counter.5
 208 01a1 83D200   		adcl	$0, %edx	 #, PROF_edge_counter.5
 209 01a4 A3100100 		movl	%eax, LPBX1+272	 # PROF_edge_counter.5, *LPBX1
 209      00
 210 01a9 89151401 		movl	%edx, LPBX1+276	 # PROF_edge_counter.5, *LPBX1
 210      0000
 211 01af 895C2404 		movl	%ebx, 4(%esp)	 # D.2861,
 212 01b3 890C24   		movl	%ecx, (%esp)	 # D.2862,
 213 01b6 E8000000 		call	_prio_insert	 #
 213      00
 214              		.loc 1 136 0
 215 01bb 8B44241C 		movl	28(%esp), %eax	 # tp, tmp112
 216 01bf 8B4024   		movl	36(%eax), %eax	 # tp_1->p_u.wtobjp, D.2863
 217 01c2 8B4008   		movl	8(%eax), %eax	 # MEM[(struct Mutex *)D.2863_13].m_owner, tmp113
 218 01c5 8944241C 		movl	%eax, 28(%esp)	 # tmp113, tp
 219              		.loc 1 137 0
 220 01c9 A1180100 		movl	LPBX1+280, %eax	 # *LPBX1, PROF_edge_counter.5
 220      00
 221 01ce 8B151C01 		movl	LPBX1+284, %edx	 # *LPBX1, PROF_edge_counter.5
 221      0000
 222 01d4 83C001   		addl	$1, %eax	 #, PROF_edge_counter.5
 223 01d7 83D200   		adcl	$0, %edx	 #, PROF_edge_counter.5
 224 01da A3180100 		movl	%eax, LPBX1+280	 # PROF_edge_counter.5, *LPBX1
 224      00
 225 01df 89151C01 		movl	%edx, LPBX1+284	 # PROF_edge_counter.5, *LPBX1
 225      0000
 226 01e5 E9E30000 		jmp	L5	 #
 226      00
 227              	L9:
 228 01ea A1080100 		movl	LPBX1+264, %eax	 # *LPBX1, PROF_edge_counter.5
 228      00
 229 01ef 8B150C01 		movl	LPBX1+268, %edx	 # *LPBX1, PROF_edge_counter.5
 229      0000
 230 01f5 83C001   		addl	$1, %eax	 #, PROF_edge_counter.5
 231 01f8 83D200   		adcl	$0, %edx	 #, PROF_edge_counter.5
 232 01fb A3080100 		movl	%eax, LPBX1+264	 # PROF_edge_counter.5, *LPBX1
GAS LISTING C:\cygwin\tmp\ccPWAwfi.s 			page 6


 232      00
 233 0200 89150C01 		movl	%edx, LPBX1+268	 # PROF_edge_counter.5, *LPBX1
 233      0000
 234              		.loc 1 151 0
 235 0206 8B44241C 		movl	28(%esp), %eax	 # tp, tmp114
 236 020a 8B5824   		movl	36(%eax), %ebx	 # tp_1->p_u.wtobjp, D.2864
 237 020d 8B44241C 		movl	28(%esp), %eax	 # tp, tmp115
 238 0211 890424   		movl	%eax, (%esp)	 # tmp115,
 239 0214 E8000000 		call	_dequeue	 #
 239      00
 240 0219 89C1     		movl	%eax, %ecx	 #, D.2865
 241 021b A1200100 		movl	LPBX1+288, %eax	 # *LPBX1, PROF_edge_counter.5
 241      00
 242 0220 8B152401 		movl	LPBX1+292, %edx	 # *LPBX1, PROF_edge_counter.5
 242      0000
 243 0226 83C001   		addl	$1, %eax	 #, PROF_edge_counter.5
 244 0229 83D200   		adcl	$0, %edx	 #, PROF_edge_counter.5
 245 022c A3200100 		movl	%eax, LPBX1+288	 # PROF_edge_counter.5, *LPBX1
 245      00
 246 0231 89152401 		movl	%edx, LPBX1+292	 # PROF_edge_counter.5, *LPBX1
 246      0000
 247 0237 895C2404 		movl	%ebx, 4(%esp)	 # D.2864,
 248 023b 890C24   		movl	%ecx, (%esp)	 # D.2865,
 249 023e E8000000 		call	_prio_insert	 #
 249      00
 250              		.loc 1 152 0
 251 0243 A1280100 		movl	LPBX1+296, %eax	 # *LPBX1, PROF_edge_counter.5
 251      00
 252 0248 8B152C01 		movl	LPBX1+300, %edx	 # *LPBX1, PROF_edge_counter.5
 252      0000
 253 024e 83C001   		addl	$1, %eax	 #, PROF_edge_counter.5
 254 0251 83D200   		adcl	$0, %edx	 #, PROF_edge_counter.5
 255 0254 A3280100 		movl	%eax, LPBX1+296	 # PROF_edge_counter.5, *LPBX1
 255      00
 256 0259 89152C01 		movl	%edx, LPBX1+300	 # PROF_edge_counter.5, *LPBX1
 256      0000
 257 025f EB4E     		jmp	L6	 #
 258              	L7:
 259              		.loc 1 160 0
 260 0261 8B44241C 		movl	28(%esp), %eax	 # tp, tmp116
 261 0265 890424   		movl	%eax, (%esp)	 # tmp116,
 262 0268 E8000000 		call	_dequeue	 #
 262      00
 263 026d 89C1     		movl	%eax, %ecx	 #, D.2866
 264 026f A1300100 		movl	LPBX1+304, %eax	 # *LPBX1, PROF_edge_counter.5
 264      00
 265 0274 8B153401 		movl	LPBX1+308, %edx	 # *LPBX1, PROF_edge_counter.5
 265      0000
 266 027a 83C001   		addl	$1, %eax	 #, PROF_edge_counter.5
 267 027d 83D200   		adcl	$0, %edx	 #, PROF_edge_counter.5
 268 0280 A3300100 		movl	%eax, LPBX1+304	 # PROF_edge_counter.5, *LPBX1
 268      00
 269 0285 89153401 		movl	%edx, LPBX1+308	 # PROF_edge_counter.5, *LPBX1
 269      0000
 270 028b 890C24   		movl	%ecx, (%esp)	 # D.2866,
 271 028e E8000000 		call	_chSchReadyI	 #
 271      00
GAS LISTING C:\cygwin\tmp\ccPWAwfi.s 			page 7


 272              		.loc 1 161 0
 273 0293 A1380100 		movl	LPBX1+312, %eax	 # *LPBX1, PROF_edge_counter.5
 273      00
 274 0298 8B153C01 		movl	LPBX1+316, %edx	 # *LPBX1, PROF_edge_counter.5
 274      0000
 275 029e 83C001   		addl	$1, %eax	 #, PROF_edge_counter.5
 276 02a1 83D200   		adcl	$0, %edx	 #, PROF_edge_counter.5
 277 02a4 A3380100 		movl	%eax, LPBX1+312	 # PROF_edge_counter.5, *LPBX1
 277      00
 278 02a9 89153C01 		movl	%edx, LPBX1+316	 # PROF_edge_counter.5, *LPBX1
 278      0000
 279              	L6:
 280 02af A1400100 		movl	LPBX1+320, %eax	 # *LPBX1, PROF_edge_counter.5
 280      00
 281 02b4 8B154401 		movl	LPBX1+324, %edx	 # *LPBX1, PROF_edge_counter.5
 281      0000
 282 02ba 83C001   		addl	$1, %eax	 #, PROF_edge_counter.5
 283 02bd 83D200   		adcl	$0, %edx	 #, PROF_edge_counter.5
 284 02c0 A3400100 		movl	%eax, LPBX1+320	 # PROF_edge_counter.5, *LPBX1
 284      00
 285 02c5 89154401 		movl	%edx, LPBX1+324	 # PROF_edge_counter.5, *LPBX1
 285      0000
 286              		.loc 1 163 0
 287 02cb EB16     		jmp	L10	 #
 288              	L5:
 289              		.loc 1 128 0 discriminator 1
 290 02cd 8B44241C 		movl	28(%esp), %eax	 # tp, tmp117
 291 02d1 8B5008   		movl	8(%eax), %edx	 # tp_1->p_prio, D.2868
 292 02d4 8B442418 		movl	24(%esp), %eax	 # ctp, tmp118
 293 02d8 8B4008   		movl	8(%eax), %eax	 # ctp_2->p_prio, D.2869
 294 02db 39C2     		cmpl	%eax, %edx	 # D.2869, D.2868
 295 02dd 0F8230FE 		jb	L11	 #,
 295      FFFF
 296              	L10:
 297              		.loc 1 166 0
 298 02e3 8B442430 		movl	48(%esp), %eax	 # mp, D.2870
 299 02e7 89442404 		movl	%eax, 4(%esp)	 # D.2870,
 300 02eb 8B442418 		movl	24(%esp), %eax	 # ctp, tmp119
 301 02ef 890424   		movl	%eax, (%esp)	 # tmp119,
 302 02f2 E8000000 		call	_prio_insert	 #
 302      00
 303 02f7 A1500100 		movl	LPBX1+336, %eax	 # *LPBX1, PROF_edge_counter.5
 303      00
 304 02fc 8B155401 		movl	LPBX1+340, %edx	 # *LPBX1, PROF_edge_counter.5
 304      0000
 305 0302 83C001   		addl	$1, %eax	 #, PROF_edge_counter.5
 306 0305 83D200   		adcl	$0, %edx	 #, PROF_edge_counter.5
 307 0308 A3500100 		movl	%eax, LPBX1+336	 # PROF_edge_counter.5, *LPBX1
 307      00
 308 030d 89155401 		movl	%edx, LPBX1+340	 # PROF_edge_counter.5, *LPBX1
 308      0000
 309              		.loc 1 167 0
 310 0313 8B442418 		movl	24(%esp), %eax	 # ctp, tmp120
 311 0317 8B542430 		movl	48(%esp), %edx	 # mp, tmp121
 312 031b 895024   		movl	%edx, 36(%eax)	 # tmp121, ctp_2->p_u.wtobjp
 313              		.loc 1 168 0
 314 031e C7042404 		movl	$4, (%esp)	 #,
GAS LISTING C:\cygwin\tmp\ccPWAwfi.s 			page 8


 314      000000
 315 0325 E8000000 		call	_chSchGoSleepS	 #
 315      00
 316              		.loc 1 172 0
 317 032a A1580100 		movl	LPBX1+344, %eax	 # *LPBX1, PROF_edge_counter.5
 317      00
 318 032f 8B155C01 		movl	LPBX1+348, %edx	 # *LPBX1, PROF_edge_counter.5
 318      0000
 319 0335 83C001   		addl	$1, %eax	 #, PROF_edge_counter.5
 320 0338 83D200   		adcl	$0, %edx	 #, PROF_edge_counter.5
 321 033b A3580100 		movl	%eax, LPBX1+344	 # PROF_edge_counter.5, *LPBX1
 321      00
 322 0340 89155C01 		movl	%edx, LPBX1+348	 # PROF_edge_counter.5, *LPBX1
 322      0000
 323 0346 EB40     		jmp	L3	 #
 324              	L4:
 325              	LBE2:
 326              		.loc 1 176 0
 327 0348 8B442430 		movl	48(%esp), %eax	 # mp, tmp124
 328 034c 8B542418 		movl	24(%esp), %edx	 # ctp, tmp125
 329 0350 895008   		movl	%edx, 8(%eax)	 # tmp125, mp_3(D)->m_owner
 330              		.loc 1 177 0
 331 0353 8B442418 		movl	24(%esp), %eax	 # ctp, tmp126
 332 0357 8B503C   		movl	60(%eax), %edx	 # ctp_2->p_mtxlist, D.2880
 333 035a 8B442430 		movl	48(%esp), %eax	 # mp, tmp127
 334 035e 89500C   		movl	%edx, 12(%eax)	 # D.2880, mp_3(D)->m_next
 335              		.loc 1 178 0
 336 0361 8B442418 		movl	24(%esp), %eax	 # ctp, tmp128
 337 0365 8B542430 		movl	48(%esp), %edx	 # mp, tmp129
 338 0369 89503C   		movl	%edx, 60(%eax)	 # tmp129, ctp_2->p_mtxlist
 339 036c A1600100 		movl	LPBX1+352, %eax	 # *LPBX1, PROF_edge_counter.5
 339      00
 340 0371 8B156401 		movl	LPBX1+356, %edx	 # *LPBX1, PROF_edge_counter.5
 340      0000
 341 0377 83C001   		addl	$1, %eax	 #, PROF_edge_counter.5
 342 037a 83D200   		adcl	$0, %edx	 #, PROF_edge_counter.5
 343 037d A3600100 		movl	%eax, LPBX1+352	 # PROF_edge_counter.5, *LPBX1
 343      00
 344 0382 89156401 		movl	%edx, LPBX1+356	 # PROF_edge_counter.5, *LPBX1
 344      0000
 345              	L3:
 346              		.loc 1 180 0
 347 0388 83C428   		addl	$40, %esp	 #,
 348              	LCFI6:
 349              		.cfi_def_cfa_offset 8
 350 038b 5B       		popl	%ebx	 #
 351              	LCFI7:
 352              		.cfi_def_cfa_offset 4
 353              		.cfi_restore 3
 354 038c C3       		ret
 355              		.cfi_endproc
 356              	LFE2:
 357              		.globl	_chMtxTryLock
 358              		.def	_chMtxTryLock;	.scl	2;	.type	32;	.endef
 359              	_chMtxTryLock:
 360              	LFB3:
 361              		.loc 1 199 0
GAS LISTING C:\cygwin\tmp\ccPWAwfi.s 			page 9


 362              		.cfi_startproc
 363 038d 83EC2C   		subl	$44, %esp	 #,
 364              	LCFI8:
 365              		.cfi_def_cfa_offset 48
 366              		.loc 1 199 0
 367 0390 A1D80000 		movl	LPBX1+216, %eax	 # *LPBX1, PROF_edge_counter.4
 367      00
 368 0395 8B15DC00 		movl	LPBX1+220, %edx	 # *LPBX1, PROF_edge_counter.4
 368      0000
 369 039b 83C001   		addl	$1, %eax	 #, PROF_edge_counter.4
 370 039e 83D200   		adcl	$0, %edx	 #, PROF_edge_counter.4
 371 03a1 A3D80000 		movl	%eax, LPBX1+216	 # PROF_edge_counter.4, *LPBX1
 371      00
 372 03a6 8915DC00 		movl	%edx, LPBX1+220	 # PROF_edge_counter.4, *LPBX1
 372      0000
 373              		.loc 1 202 0
 374              	/APP
 375              	 # 202 "../../os/kernel/src/chmtx.c" 1
 376 03ac 90       		nop
 377              	 # 0 "" 2
 378              	/NO_APP
 379 03ad A1E00000 		movl	LPBX1+224, %eax	 # *LPBX1, PROF_edge_counter.4
 379      00
 380 03b2 8B15E400 		movl	LPBX1+228, %edx	 # *LPBX1, PROF_edge_counter.4
 380      0000
 381 03b8 83C001   		addl	$1, %eax	 #, PROF_edge_counter.4
 382 03bb 83D200   		adcl	$0, %edx	 #, PROF_edge_counter.4
 383 03be A3E00000 		movl	%eax, LPBX1+224	 # PROF_edge_counter.4, *LPBX1
 383      00
 384 03c3 8915E400 		movl	%edx, LPBX1+228	 # PROF_edge_counter.4, *LPBX1
 384      0000
 385              		.loc 1 204 0
 386 03c9 8B442430 		movl	48(%esp), %eax	 # mp, tmp69
 387 03cd 890424   		movl	%eax, (%esp)	 # tmp69,
 388 03d0 E8450000 		call	_chMtxTryLockS	 #
 388      00
 389 03d5 8844241F 		movb	%al, 31(%esp)	 # tmp70, b
 390 03d9 A1E80000 		movl	LPBX1+232, %eax	 # *LPBX1, PROF_edge_counter.4
 390      00
 391 03de 8B15EC00 		movl	LPBX1+236, %edx	 # *LPBX1, PROF_edge_counter.4
 391      0000
 392 03e4 83C001   		addl	$1, %eax	 #, PROF_edge_counter.4
 393 03e7 83D200   		adcl	$0, %edx	 #, PROF_edge_counter.4
 394 03ea A3E80000 		movl	%eax, LPBX1+232	 # PROF_edge_counter.4, *LPBX1
 394      00
 395 03ef 8915EC00 		movl	%edx, LPBX1+236	 # PROF_edge_counter.4, *LPBX1
 395      0000
 396              		.loc 1 206 0
 397              	/APP
 398              	 # 206 "../../os/kernel/src/chmtx.c" 1
 399 03f5 90       		nop
 400              	 # 0 "" 2
 401              	/NO_APP
 402 03f6 A1F00000 		movl	LPBX1+240, %eax	 # *LPBX1, PROF_edge_counter.4
 402      00
 403 03fb 8B15F400 		movl	LPBX1+244, %edx	 # *LPBX1, PROF_edge_counter.4
 403      0000
GAS LISTING C:\cygwin\tmp\ccPWAwfi.s 			page 10


 404 0401 83C001   		addl	$1, %eax	 #, PROF_edge_counter.4
 405 0404 83D200   		adcl	$0, %edx	 #, PROF_edge_counter.4
 406 0407 A3F00000 		movl	%eax, LPBX1+240	 # PROF_edge_counter.4, *LPBX1
 406      00
 407 040c 8915F400 		movl	%edx, LPBX1+244	 # PROF_edge_counter.4, *LPBX1
 407      0000
 408              		.loc 1 207 0
 409 0412 8A44241F 		movb	31(%esp), %al	 # b, D.2850
 410              		.loc 1 208 0
 411 0416 83C42C   		addl	$44, %esp	 #,
 412              	LCFI9:
 413              		.cfi_def_cfa_offset 4
 414 0419 C3       		ret
 415              		.cfi_endproc
 416              	LFE3:
 417              		.globl	_chMtxTryLockS
 418              		.def	_chMtxTryLockS;	.scl	2;	.type	32;	.endef
 419              	_chMtxTryLockS:
 420              	LFB4:
 421              		.loc 1 227 0
 422              		.cfi_startproc
 423 041a 83EC04   		subl	$4, %esp	 #,
 424              	LCFI10:
 425              		.cfi_def_cfa_offset 8
 426              		.loc 1 232 0
 427 041d 8B442408 		movl	8(%esp), %eax	 # mp, tmp70
 428 0421 8B4008   		movl	8(%eax), %eax	 # mp_2(D)->m_owner, D.2841
 429 0424 85C0     		testl	%eax, %eax	 # D.2841
 430 0426 7420     		je	L15	 #,
 431              		.loc 1 233 0
 432 0428 B100     		movb	$0, %cl	 #, D.2844
 433 042a A1C80000 		movl	LPBX1+200, %eax	 # *LPBX1, PROF_edge_counter.3
 433      00
 434 042f 8B15CC00 		movl	LPBX1+204, %edx	 # *LPBX1, PROF_edge_counter.3
 434      0000
 435 0435 83C001   		addl	$1, %eax	 #, PROF_edge_counter.3
 436 0438 83D200   		adcl	$0, %edx	 #, PROF_edge_counter.3
 437 043b A3C80000 		movl	%eax, LPBX1+200	 # PROF_edge_counter.3, *LPBX1
 437      00
 438 0440 8915CC00 		movl	%edx, LPBX1+204	 # PROF_edge_counter.3, *LPBX1
 438      0000
 439 0446 EB46     		jmp	L16	 #
 440              	L15:
 441              		.loc 1 234 0
 442 0448 8B151800 		movl	_rlist+24, %edx	 # rlist.r_current, D.2845
 442      0000
 443 044e 8B442408 		movl	8(%esp), %eax	 # mp, tmp71
 444 0452 895008   		movl	%edx, 8(%eax)	 # D.2845, mp_2(D)->m_owner
 445              		.loc 1 235 0
 446 0455 A1180000 		movl	_rlist+24, %eax	 # rlist.r_current, D.2846
 446      00
 447 045a 8B503C   		movl	60(%eax), %edx	 # D.2846_6->p_mtxlist, D.2847
 448 045d 8B442408 		movl	8(%esp), %eax	 # mp, tmp72
 449 0461 89500C   		movl	%edx, 12(%eax)	 # D.2847, mp_2(D)->m_next
 450              		.loc 1 236 0
 451 0464 A1180000 		movl	_rlist+24, %eax	 # rlist.r_current, D.2848
 451      00
GAS LISTING C:\cygwin\tmp\ccPWAwfi.s 			page 11


 452 0469 8B542408 		movl	8(%esp), %edx	 # mp, tmp73
 453 046d 89503C   		movl	%edx, 60(%eax)	 # tmp73, D.2848_8->p_mtxlist
 454              		.loc 1 237 0
 455 0470 B101     		movb	$1, %cl	 #, D.2844
 456 0472 A1D00000 		movl	LPBX1+208, %eax	 # *LPBX1, PROF_edge_counter.3
 456      00
 457 0477 8B15D400 		movl	LPBX1+212, %edx	 # *LPBX1, PROF_edge_counter.3
 457      0000
 458 047d 83C001   		addl	$1, %eax	 #, PROF_edge_counter.3
 459 0480 83D200   		adcl	$0, %edx	 #, PROF_edge_counter.3
 460 0483 A3D00000 		movl	%eax, LPBX1+208	 # PROF_edge_counter.3, *LPBX1
 460      00
 461 0488 8915D400 		movl	%edx, LPBX1+212	 # PROF_edge_counter.3, *LPBX1
 461      0000
 462              	L16:
 463 048e 88C8     		movb	%cl, %al	 # D.2844, <retval>
 464              		.loc 1 238 0
 465 0490 83C404   		addl	$4, %esp	 #,
 466              	LCFI11:
 467              		.cfi_def_cfa_offset 4
 468 0493 C3       		ret
 469              		.cfi_endproc
 470              	LFE4:
 471              		.globl	_chMtxUnlock
 472              		.def	_chMtxUnlock;	.scl	2;	.type	32;	.endef
 473              	_chMtxUnlock:
 474              	LFB5:
 475              		.loc 1 250 0
 476              		.cfi_startproc
 477 0494 83EC3C   		subl	$60, %esp	 #,
 478              	LCFI12:
 479              		.cfi_def_cfa_offset 64
 480              		.loc 1 250 0
 481 0497 A1800000 		movl	LPBX1+128, %eax	 # *LPBX1, PROF_edge_counter.2
 481      00
 482 049c 8B158400 		movl	LPBX1+132, %edx	 # *LPBX1, PROF_edge_counter.2
 482      0000
 483 04a2 83C001   		addl	$1, %eax	 #, PROF_edge_counter.2
 484 04a5 83D200   		adcl	$0, %edx	 #, PROF_edge_counter.2
 485 04a8 A3800000 		movl	%eax, LPBX1+128	 # PROF_edge_counter.2, *LPBX1
 485      00
 486 04ad 89158400 		movl	%edx, LPBX1+132	 # PROF_edge_counter.2, *LPBX1
 486      0000
 487              		.loc 1 251 0
 488 04b3 A1180000 		movl	_rlist+24, %eax	 # rlist.r_current, tmp92
 488      00
 489 04b8 89442424 		movl	%eax, 36(%esp)	 # tmp92, ctp
 490              		.loc 1 254 0
 491              	/APP
 492              	 # 254 "../../os/kernel/src/chmtx.c" 1
 493 04bc 90       		nop
 494              	 # 0 "" 2
 495              		.loc 1 263 0
 496              	/NO_APP
 497 04bd 8B442424 		movl	36(%esp), %eax	 # ctp, tmp95
 498 04c1 8B403C   		movl	60(%eax), %eax	 # ctp_4->p_mtxlist, tmp96
 499 04c4 89442420 		movl	%eax, 32(%esp)	 # tmp96, ump
GAS LISTING C:\cygwin\tmp\ccPWAwfi.s 			page 12


 500              		.loc 1 264 0
 501 04c8 8B442420 		movl	32(%esp), %eax	 # ump, tmp97
 502 04cc 8B500C   		movl	12(%eax), %edx	 # ump_8->m_next, D.2819
 503 04cf 8B442424 		movl	36(%esp), %eax	 # ctp, tmp98
 504 04d3 89503C   		movl	%edx, 60(%eax)	 # D.2819, ctp_4->p_mtxlist
 505              		.loc 1 266 0
 506 04d6 8B442420 		movl	32(%esp), %eax	 # ump, tmp99
 507 04da 8B10     		movl	(%eax), %edx	 # ump_8->m_queue.p_next, D.2820
 508 04dc 8B442420 		movl	32(%esp), %eax	 # ump, D.2821
 509 04e0 39C2     		cmpl	%eax, %edx	 # D.2821, D.2820
 510 04e2 0F845801 		je	L18	 #,
 510      0000
 511              	LBB3:
 512              		.loc 1 271 0
 513 04e8 8B442424 		movl	36(%esp), %eax	 # ctp, tmp100
 514 04ec 8B4040   		movl	64(%eax), %eax	 # ctp_4->p_realprio, tmp101
 515 04ef 89442428 		movl	%eax, 40(%esp)	 # tmp101, newprio
 516              		.loc 1 272 0
 517 04f3 8B442424 		movl	36(%esp), %eax	 # ctp, tmp102
 518 04f7 8B403C   		movl	60(%eax), %eax	 # ctp_4->p_mtxlist, tmp103
 519 04fa 8944242C 		movl	%eax, 44(%esp)	 # tmp103, mp
 520              		.loc 1 273 0
 521 04fe E9890000 		jmp	L19	 #
 521      00
 522              	L21:
 523 0503 A1980000 		movl	LPBX1+152, %eax	 # *LPBX1, PROF_edge_counter.2
 523      00
 524 0508 8B159C00 		movl	LPBX1+156, %edx	 # *LPBX1, PROF_edge_counter.2
 524      0000
 525 050e 83C001   		addl	$1, %eax	 #, PROF_edge_counter.2
 526 0511 83D200   		adcl	$0, %edx	 #, PROF_edge_counter.2
 527 0514 A3980000 		movl	%eax, LPBX1+152	 # PROF_edge_counter.2, *LPBX1
 527      00
 528 0519 89159C00 		movl	%edx, LPBX1+156	 # PROF_edge_counter.2, *LPBX1
 528      0000
 529              		.loc 1 277 0
 530 051f 8B44242C 		movl	44(%esp), %eax	 # mp, tmp104
 531 0523 8B10     		movl	(%eax), %edx	 # mp_1->m_queue.p_next, D.2824
 532 0525 8B44242C 		movl	44(%esp), %eax	 # mp, D.2825
 533 0529 39C2     		cmpl	%eax, %edx	 # D.2825, D.2824
 534 052b 7454     		je	L20	 #,
 535              		.loc 1 277 0 is_stmt 0 discriminator 1
 536 052d A1880000 		movl	LPBX1+136, %eax	 # *LPBX1, PROF_edge_counter.2
 536      00
 537 0532 8B158C00 		movl	LPBX1+140, %edx	 # *LPBX1, PROF_edge_counter.2
 537      0000
 538 0538 83C001   		addl	$1, %eax	 #, PROF_edge_counter.2
 539 053b 83D200   		adcl	$0, %edx	 #, PROF_edge_counter.2
 540 053e A3880000 		movl	%eax, LPBX1+136	 # PROF_edge_counter.2, *LPBX1
 540      00
 541 0543 89158C00 		movl	%edx, LPBX1+140	 # PROF_edge_counter.2, *LPBX1
 541      0000
 542 0549 8B44242C 		movl	44(%esp), %eax	 # mp, tmp105
 543 054d 8B00     		movl	(%eax), %eax	 # mp_1->m_queue.p_next, D.2828
 544 054f 8B4008   		movl	8(%eax), %eax	 # D.2828_16->p_prio, D.2829
 545 0552 3B442428 		cmpl	40(%esp), %eax	 # newprio, D.2829
 546 0556 7629     		jbe	L20	 #,
GAS LISTING C:\cygwin\tmp\ccPWAwfi.s 			page 13


 547              		.loc 1 278 0 is_stmt 1
 548 0558 8B44242C 		movl	44(%esp), %eax	 # mp, tmp106
 549 055c 8B00     		movl	(%eax), %eax	 # mp_1->m_queue.p_next, D.2832
 550 055e 8B4008   		movl	8(%eax), %eax	 # D.2832_18->p_prio, tmp107
 551 0561 89442428 		movl	%eax, 40(%esp)	 # tmp107, newprio
 552 0565 A1900000 		movl	LPBX1+144, %eax	 # *LPBX1, PROF_edge_counter.2
 552      00
 553 056a 8B159400 		movl	LPBX1+148, %edx	 # *LPBX1, PROF_edge_counter.2
 553      0000
 554 0570 83C001   		addl	$1, %eax	 #, PROF_edge_counter.2
 555 0573 83D200   		adcl	$0, %edx	 #, PROF_edge_counter.2
 556 0576 A3900000 		movl	%eax, LPBX1+144	 # PROF_edge_counter.2, *LPBX1
 556      00
 557 057b 89159400 		movl	%edx, LPBX1+148	 # PROF_edge_counter.2, *LPBX1
 557      0000
 558              	L20:
 559              		.loc 1 279 0
 560 0581 8B44242C 		movl	44(%esp), %eax	 # mp, tmp108
 561 0585 8B400C   		movl	12(%eax), %eax	 # mp_1->m_next, tmp109
 562 0588 8944242C 		movl	%eax, 44(%esp)	 # tmp109, mp
 563              	L19:
 564              		.loc 1 273 0 discriminator 1
 565 058c 837C242C 		cmpl	$0, 44(%esp)	 #, mp
 565      00
 566 0591 0F856CFF 		jne	L21	 #,
 566      FFFF
 567              		.loc 1 273 0 is_stmt 0
 568 0597 A1A00000 		movl	LPBX1+160, %eax	 # *LPBX1, PROF_edge_counter.2
 568      00
 569 059c 8B15A400 		movl	LPBX1+164, %edx	 # *LPBX1, PROF_edge_counter.2
 569      0000
 570 05a2 83C001   		addl	$1, %eax	 #, PROF_edge_counter.2
 571 05a5 83D200   		adcl	$0, %edx	 #, PROF_edge_counter.2
 572 05a8 A3A00000 		movl	%eax, LPBX1+160	 # PROF_edge_counter.2, *LPBX1
 572      00
 573 05ad 8915A400 		movl	%edx, LPBX1+164	 # PROF_edge_counter.2, *LPBX1
 573      0000
 574              		.loc 1 283 0 is_stmt 1
 575 05b3 8B442424 		movl	36(%esp), %eax	 # ctp, tmp110
 576 05b7 8B542428 		movl	40(%esp), %edx	 # newprio, tmp111
 577 05bb 895008   		movl	%edx, 8(%eax)	 # tmp111, ctp_4->p_prio
 578              		.loc 1 286 0
 579 05be 8B442420 		movl	32(%esp), %eax	 # ump, D.2833
 580 05c2 890424   		movl	%eax, (%esp)	 # D.2833,
 581 05c5 E8000000 		call	_fifo_remove	 #
 581      00
 582 05ca 8944241C 		movl	%eax, 28(%esp)	 # tmp112, tp
 583 05ce A1A80000 		movl	LPBX1+168, %eax	 # *LPBX1, PROF_edge_counter.2
 583      00
 584 05d3 8B15AC00 		movl	LPBX1+172, %edx	 # *LPBX1, PROF_edge_counter.2
 584      0000
 585 05d9 83C001   		addl	$1, %eax	 #, PROF_edge_counter.2
 586 05dc 83D200   		adcl	$0, %edx	 #, PROF_edge_counter.2
 587 05df A3A80000 		movl	%eax, LPBX1+168	 # PROF_edge_counter.2, *LPBX1
 587      00
 588 05e4 8915AC00 		movl	%edx, LPBX1+172	 # PROF_edge_counter.2, *LPBX1
 588      0000
GAS LISTING C:\cygwin\tmp\ccPWAwfi.s 			page 14


 589              		.loc 1 287 0
 590 05ea 8B442420 		movl	32(%esp), %eax	 # ump, tmp113
 591 05ee 8B54241C 		movl	28(%esp), %edx	 # tp, tmp114
 592 05f2 895008   		movl	%edx, 8(%eax)	 # tmp114, ump_8->m_owner
 593              		.loc 1 288 0
 594 05f5 8B44241C 		movl	28(%esp), %eax	 # tp, tmp115
 595 05f9 8B503C   		movl	60(%eax), %edx	 # tp_22->p_mtxlist, D.2834
 596 05fc 8B442420 		movl	32(%esp), %eax	 # ump, tmp116
 597 0600 89500C   		movl	%edx, 12(%eax)	 # D.2834, ump_8->m_next
 598              		.loc 1 289 0
 599 0603 8B44241C 		movl	28(%esp), %eax	 # tp, tmp117
 600 0607 8B542420 		movl	32(%esp), %edx	 # ump, tmp118
 601 060b 89503C   		movl	%edx, 60(%eax)	 # tmp118, tp_22->p_mtxlist
 602              		.loc 1 290 0
 603 060e C7442404 		movl	$0, 4(%esp)	 #,
 603      00000000 
 604 0616 8B44241C 		movl	28(%esp), %eax	 # tp, tmp119
 605 061a 890424   		movl	%eax, (%esp)	 # tmp119,
 606 061d E8000000 		call	_chSchWakeupS	 #
 606      00
 607 0622 A1B00000 		movl	LPBX1+176, %eax	 # *LPBX1, PROF_edge_counter.2
 607      00
 608 0627 8B15B400 		movl	LPBX1+180, %edx	 # *LPBX1, PROF_edge_counter.2
 608      0000
 609 062d 83C001   		addl	$1, %eax	 #, PROF_edge_counter.2
 610 0630 83D200   		adcl	$0, %edx	 #, PROF_edge_counter.2
 611 0633 A3B00000 		movl	%eax, LPBX1+176	 # PROF_edge_counter.2, *LPBX1
 611      00
 612 0638 8915B400 		movl	%edx, LPBX1+180	 # PROF_edge_counter.2, *LPBX1
 612      0000
 613 063e EB27     		jmp	L22	 #
 614              	L18:
 615              	LBE3:
 616              		.loc 1 293 0
 617 0640 8B442420 		movl	32(%esp), %eax	 # ump, tmp120
 618 0644 C7400800 		movl	$0, 8(%eax)	 #, ump_8->m_owner
 618      000000
 619 064b A1B80000 		movl	LPBX1+184, %eax	 # *LPBX1, PROF_edge_counter.2
 619      00
 620 0650 8B15BC00 		movl	LPBX1+188, %edx	 # *LPBX1, PROF_edge_counter.2
 620      0000
 621 0656 83C001   		addl	$1, %eax	 #, PROF_edge_counter.2
 622 0659 83D200   		adcl	$0, %edx	 #, PROF_edge_counter.2
 623 065c A3B80000 		movl	%eax, LPBX1+184	 # PROF_edge_counter.2, *LPBX1
 623      00
 624 0661 8915BC00 		movl	%edx, LPBX1+188	 # PROF_edge_counter.2, *LPBX1
 624      0000
 625              	L22:
 626              		.loc 1 294 0
 627              	/APP
 628              	 # 294 "../../os/kernel/src/chmtx.c" 1
 629 0667 90       		nop
 630              	 # 0 "" 2
 631              	/NO_APP
 632 0668 A1C00000 		movl	LPBX1+192, %eax	 # *LPBX1, PROF_edge_counter.2
 632      00
 633 066d 8B15C400 		movl	LPBX1+196, %edx	 # *LPBX1, PROF_edge_counter.2
GAS LISTING C:\cygwin\tmp\ccPWAwfi.s 			page 15


 633      0000
 634 0673 83C001   		addl	$1, %eax	 #, PROF_edge_counter.2
 635 0676 83D200   		adcl	$0, %edx	 #, PROF_edge_counter.2
 636 0679 A3C00000 		movl	%eax, LPBX1+192	 # PROF_edge_counter.2, *LPBX1
 636      00
 637 067e 8915C400 		movl	%edx, LPBX1+196	 # PROF_edge_counter.2, *LPBX1
 637      0000
 638              		.loc 1 295 0
 639 0684 8B442420 		movl	32(%esp), %eax	 # ump, D.2836
 640              		.loc 1 296 0
 641 0688 83C43C   		addl	$60, %esp	 #,
 642              	LCFI13:
 643              		.cfi_def_cfa_offset 4
 644 068b C3       		ret
 645              		.cfi_endproc
 646              	LFE5:
 647              		.globl	_chMtxUnlockS
 648              		.def	_chMtxUnlockS;	.scl	2;	.type	32;	.endef
 649              	_chMtxUnlockS:
 650              	LFB6:
 651              		.loc 1 310 0
 652              		.cfi_startproc
 653 068c 83EC3C   		subl	$60, %esp	 #,
 654              	LCFI14:
 655              		.cfi_def_cfa_offset 64
 656              		.loc 1 311 0
 657 068f A1180000 		movl	_rlist+24, %eax	 # rlist.r_current, tmp88
 657      00
 658 0694 89442424 		movl	%eax, 36(%esp)	 # tmp88, ctp
 659              		.loc 1 324 0
 660 0698 8B442424 		movl	36(%esp), %eax	 # ctp, tmp91
 661 069c 8B403C   		movl	60(%eax), %eax	 # ctp_4->p_mtxlist, tmp92
 662 069f 89442420 		movl	%eax, 32(%esp)	 # tmp92, ump
 663              		.loc 1 325 0
 664 06a3 8B442420 		movl	32(%esp), %eax	 # ump, tmp93
 665 06a7 8B500C   		movl	12(%eax), %edx	 # ump_8->m_next, D.2791
 666 06aa 8B442424 		movl	36(%esp), %eax	 # ctp, tmp94
 667 06ae 89503C   		movl	%edx, 60(%eax)	 # D.2791, ctp_4->p_mtxlist
 668              		.loc 1 327 0
 669 06b1 8B442420 		movl	32(%esp), %eax	 # ump, tmp95
 670 06b5 8B10     		movl	(%eax), %edx	 # ump_8->m_queue.p_next, D.2792
 671 06b7 8B442420 		movl	32(%esp), %eax	 # ump, D.2793
 672 06bb 39C2     		cmpl	%eax, %edx	 # D.2793, D.2792
 673 06bd 0F845001 		je	L24	 #,
 673      0000
 674              	LBB4:
 675              		.loc 1 332 0
 676 06c3 8B442424 		movl	36(%esp), %eax	 # ctp, tmp96
 677 06c7 8B4040   		movl	64(%eax), %eax	 # ctp_4->p_realprio, tmp97
 678 06ca 89442428 		movl	%eax, 40(%esp)	 # tmp97, newprio
 679              		.loc 1 333 0
 680 06ce 8B442424 		movl	36(%esp), %eax	 # ctp, tmp98
 681 06d2 8B403C   		movl	60(%eax), %eax	 # ctp_4->p_mtxlist, tmp99
 682 06d5 8944242C 		movl	%eax, 44(%esp)	 # tmp99, mp
 683              		.loc 1 334 0
 684 06d9 E9890000 		jmp	L25	 #
 684      00
GAS LISTING C:\cygwin\tmp\ccPWAwfi.s 			page 16


 685              	L27:
 686 06de A1580000 		movl	LPBX1+88, %eax	 # *LPBX1, PROF_edge_counter.1
 686      00
 687 06e3 8B155C00 		movl	LPBX1+92, %edx	 # *LPBX1, PROF_edge_counter.1
 687      0000
 688 06e9 83C001   		addl	$1, %eax	 #, PROF_edge_counter.1
 689 06ec 83D200   		adcl	$0, %edx	 #, PROF_edge_counter.1
 690 06ef A3580000 		movl	%eax, LPBX1+88	 # PROF_edge_counter.1, *LPBX1
 690      00
 691 06f4 89155C00 		movl	%edx, LPBX1+92	 # PROF_edge_counter.1, *LPBX1
 691      0000
 692              		.loc 1 338 0
 693 06fa 8B44242C 		movl	44(%esp), %eax	 # mp, tmp100
 694 06fe 8B10     		movl	(%eax), %edx	 # mp_1->m_queue.p_next, D.2796
 695 0700 8B44242C 		movl	44(%esp), %eax	 # mp, D.2797
 696 0704 39C2     		cmpl	%eax, %edx	 # D.2797, D.2796
 697 0706 7454     		je	L26	 #,
 698              		.loc 1 338 0 is_stmt 0 discriminator 1
 699 0708 A1480000 		movl	LPBX1+72, %eax	 # *LPBX1, PROF_edge_counter.1
 699      00
 700 070d 8B154C00 		movl	LPBX1+76, %edx	 # *LPBX1, PROF_edge_counter.1
 700      0000
 701 0713 83C001   		addl	$1, %eax	 #, PROF_edge_counter.1
 702 0716 83D200   		adcl	$0, %edx	 #, PROF_edge_counter.1
 703 0719 A3480000 		movl	%eax, LPBX1+72	 # PROF_edge_counter.1, *LPBX1
 703      00
 704 071e 89154C00 		movl	%edx, LPBX1+76	 # PROF_edge_counter.1, *LPBX1
 704      0000
 705 0724 8B44242C 		movl	44(%esp), %eax	 # mp, tmp101
 706 0728 8B00     		movl	(%eax), %eax	 # mp_1->m_queue.p_next, D.2800
 707 072a 8B4008   		movl	8(%eax), %eax	 # D.2800_16->p_prio, D.2801
 708 072d 3B442428 		cmpl	40(%esp), %eax	 # newprio, D.2801
 709 0731 7629     		jbe	L26	 #,
 710              		.loc 1 339 0 is_stmt 1
 711 0733 8B44242C 		movl	44(%esp), %eax	 # mp, tmp102
 712 0737 8B00     		movl	(%eax), %eax	 # mp_1->m_queue.p_next, D.2804
 713 0739 8B4008   		movl	8(%eax), %eax	 # D.2804_18->p_prio, tmp103
 714 073c 89442428 		movl	%eax, 40(%esp)	 # tmp103, newprio
 715 0740 A1500000 		movl	LPBX1+80, %eax	 # *LPBX1, PROF_edge_counter.1
 715      00
 716 0745 8B155400 		movl	LPBX1+84, %edx	 # *LPBX1, PROF_edge_counter.1
 716      0000
 717 074b 83C001   		addl	$1, %eax	 #, PROF_edge_counter.1
 718 074e 83D200   		adcl	$0, %edx	 #, PROF_edge_counter.1
 719 0751 A3500000 		movl	%eax, LPBX1+80	 # PROF_edge_counter.1, *LPBX1
 719      00
 720 0756 89155400 		movl	%edx, LPBX1+84	 # PROF_edge_counter.1, *LPBX1
 720      0000
 721              	L26:
 722              		.loc 1 340 0
 723 075c 8B44242C 		movl	44(%esp), %eax	 # mp, tmp104
 724 0760 8B400C   		movl	12(%eax), %eax	 # mp_1->m_next, tmp105
 725 0763 8944242C 		movl	%eax, 44(%esp)	 # tmp105, mp
 726              	L25:
 727              		.loc 1 334 0 discriminator 1
 728 0767 837C242C 		cmpl	$0, 44(%esp)	 #, mp
 728      00
GAS LISTING C:\cygwin\tmp\ccPWAwfi.s 			page 17


 729 076c 0F856CFF 		jne	L27	 #,
 729      FFFF
 730              		.loc 1 334 0 is_stmt 0
 731 0772 A1600000 		movl	LPBX1+96, %eax	 # *LPBX1, PROF_edge_counter.1
 731      00
 732 0777 8B156400 		movl	LPBX1+100, %edx	 # *LPBX1, PROF_edge_counter.1
 732      0000
 733 077d 83C001   		addl	$1, %eax	 #, PROF_edge_counter.1
 734 0780 83D200   		adcl	$0, %edx	 #, PROF_edge_counter.1
 735 0783 A3600000 		movl	%eax, LPBX1+96	 # PROF_edge_counter.1, *LPBX1
 735      00
 736 0788 89156400 		movl	%edx, LPBX1+100	 # PROF_edge_counter.1, *LPBX1
 736      0000
 737              		.loc 1 342 0 is_stmt 1
 738 078e 8B442424 		movl	36(%esp), %eax	 # ctp, tmp106
 739 0792 8B542428 		movl	40(%esp), %edx	 # newprio, tmp107
 740 0796 895008   		movl	%edx, 8(%eax)	 # tmp107, ctp_4->p_prio
 741              		.loc 1 345 0
 742 0799 8B442420 		movl	32(%esp), %eax	 # ump, D.2805
 743 079d 890424   		movl	%eax, (%esp)	 # D.2805,
 744 07a0 E8000000 		call	_fifo_remove	 #
 744      00
 745 07a5 8944241C 		movl	%eax, 28(%esp)	 # tmp108, tp
 746 07a9 A1680000 		movl	LPBX1+104, %eax	 # *LPBX1, PROF_edge_counter.1
 746      00
 747 07ae 8B156C00 		movl	LPBX1+108, %edx	 # *LPBX1, PROF_edge_counter.1
 747      0000
 748 07b4 83C001   		addl	$1, %eax	 #, PROF_edge_counter.1
 749 07b7 83D200   		adcl	$0, %edx	 #, PROF_edge_counter.1
 750 07ba A3680000 		movl	%eax, LPBX1+104	 # PROF_edge_counter.1, *LPBX1
 750      00
 751 07bf 89156C00 		movl	%edx, LPBX1+108	 # PROF_edge_counter.1, *LPBX1
 751      0000
 752              		.loc 1 346 0
 753 07c5 8B442420 		movl	32(%esp), %eax	 # ump, tmp109
 754 07c9 8B54241C 		movl	28(%esp), %edx	 # tp, tmp110
 755 07cd 895008   		movl	%edx, 8(%eax)	 # tmp110, ump_8->m_owner
 756              		.loc 1 347 0
 757 07d0 8B44241C 		movl	28(%esp), %eax	 # tp, tmp111
 758 07d4 8B503C   		movl	60(%eax), %edx	 # tp_22->p_mtxlist, D.2806
 759 07d7 8B442420 		movl	32(%esp), %eax	 # ump, tmp112
 760 07db 89500C   		movl	%edx, 12(%eax)	 # D.2806, ump_8->m_next
 761              		.loc 1 348 0
 762 07de 8B44241C 		movl	28(%esp), %eax	 # tp, tmp113
 763 07e2 8B542420 		movl	32(%esp), %edx	 # ump, tmp114
 764 07e6 89503C   		movl	%edx, 60(%eax)	 # tmp114, tp_22->p_mtxlist
 765              		.loc 1 349 0
 766 07e9 8B44241C 		movl	28(%esp), %eax	 # tp, tmp115
 767 07ed 890424   		movl	%eax, (%esp)	 # tmp115,
 768 07f0 E8000000 		call	_chSchReadyI	 #
 768      00
 769 07f5 A1700000 		movl	LPBX1+112, %eax	 # *LPBX1, PROF_edge_counter.1
 769      00
 770 07fa 8B157400 		movl	LPBX1+116, %edx	 # *LPBX1, PROF_edge_counter.1
 770      0000
 771 0800 83C001   		addl	$1, %eax	 #, PROF_edge_counter.1
 772 0803 83D200   		adcl	$0, %edx	 #, PROF_edge_counter.1
GAS LISTING C:\cygwin\tmp\ccPWAwfi.s 			page 18


 773 0806 A3700000 		movl	%eax, LPBX1+112	 # PROF_edge_counter.1, *LPBX1
 773      00
 774 080b 89157400 		movl	%edx, LPBX1+116	 # PROF_edge_counter.1, *LPBX1
 774      0000
 775 0811 EB27     		jmp	L28	 #
 776              	L24:
 777              	LBE4:
 778              		.loc 1 352 0
 779 0813 8B442420 		movl	32(%esp), %eax	 # ump, tmp116
 780 0817 C7400800 		movl	$0, 8(%eax)	 #, ump_8->m_owner
 780      000000
 781 081e A1780000 		movl	LPBX1+120, %eax	 # *LPBX1, PROF_edge_counter.1
 781      00
 782 0823 8B157C00 		movl	LPBX1+124, %edx	 # *LPBX1, PROF_edge_counter.1
 782      0000
 783 0829 83C001   		addl	$1, %eax	 #, PROF_edge_counter.1
 784 082c 83D200   		adcl	$0, %edx	 #, PROF_edge_counter.1
 785 082f A3780000 		movl	%eax, LPBX1+120	 # PROF_edge_counter.1, *LPBX1
 785      00
 786 0834 89157C00 		movl	%edx, LPBX1+124	 # PROF_edge_counter.1, *LPBX1
 786      0000
 787              	L28:
 788              		.loc 1 353 0
 789 083a 8B442420 		movl	32(%esp), %eax	 # ump, D.2808
 790              		.loc 1 354 0
 791 083e 83C43C   		addl	$60, %esp	 #,
 792              	LCFI15:
 793              		.cfi_def_cfa_offset 4
 794 0841 C3       		ret
 795              		.cfi_endproc
 796              	LFE6:
 797              		.globl	_chMtxUnlockAll
 798              		.def	_chMtxUnlockAll;	.scl	2;	.type	32;	.endef
 799              	_chMtxUnlockAll:
 800              	LFB7:
 801              		.loc 1 367 0
 802              		.cfi_startproc
 803 0842 83EC2C   		subl	$44, %esp	 #,
 804              	LCFI16:
 805              		.cfi_def_cfa_offset 48
 806              		.loc 1 367 0
 807 0845 A1000000 		movl	LPBX1, %eax	 # *LPBX1, PROF_edge_counter.0
 807      00
 808 084a 8B150400 		movl	LPBX1+4, %edx	 # *LPBX1, PROF_edge_counter.0
 808      0000
 809 0850 83C001   		addl	$1, %eax	 #, PROF_edge_counter.0
 810 0853 83D200   		adcl	$0, %edx	 #, PROF_edge_counter.0
 811 0856 A3000000 		movl	%eax, LPBX1	 # PROF_edge_counter.0, *LPBX1
 811      00
 812 085b 89150400 		movl	%edx, LPBX1+4	 # PROF_edge_counter.0, *LPBX1
 812      0000
 813              		.loc 1 368 0
 814 0861 A1180000 		movl	_rlist+24, %eax	 # rlist.r_current, tmp85
 814      00
 815 0866 8944241C 		movl	%eax, 28(%esp)	 # tmp85, ctp
 816              		.loc 1 370 0
 817              	/APP
GAS LISTING C:\cygwin\tmp\ccPWAwfi.s 			page 19


 818              	 # 370 "../../os/kernel/src/chmtx.c" 1
 819 086a 90       		nop
 820              	 # 0 "" 2
 821              	/NO_APP
 822 086b A1080000 		movl	LPBX1+8, %eax	 # *LPBX1, PROF_edge_counter.0
 822      00
 823 0870 8B150C00 		movl	LPBX1+12, %edx	 # *LPBX1, PROF_edge_counter.0
 823      0000
 824 0876 83C001   		addl	$1, %eax	 #, PROF_edge_counter.0
 825 0879 83D200   		adcl	$0, %edx	 #, PROF_edge_counter.0
 826 087c A3080000 		movl	%eax, LPBX1+8	 # PROF_edge_counter.0, *LPBX1
 826      00
 827 0881 89150C00 		movl	%edx, LPBX1+12	 # PROF_edge_counter.0, *LPBX1
 827      0000
 828              		.loc 1 371 0
 829 0887 8B44241C 		movl	28(%esp), %eax	 # ctp, tmp86
 830 088b 8B403C   		movl	60(%eax), %eax	 # ctp_1->p_mtxlist, D.2769
 831 088e 85C0     		testl	%eax, %eax	 # D.2769
 832 0890 0F843F01 		je	L30	 #,
 832      0000
 833              	L34:
 834              	LBB5:
 835              		.loc 1 373 0
 836 0896 8B44241C 		movl	28(%esp), %eax	 # ctp, tmp87
 837 089a 8B403C   		movl	60(%eax), %eax	 # ctp_1->p_mtxlist, tmp88
 838 089d 89442418 		movl	%eax, 24(%esp)	 # tmp88, ump
 839              		.loc 1 374 0
 840 08a1 8B442418 		movl	24(%esp), %eax	 # ump, tmp89
 841 08a5 8B500C   		movl	12(%eax), %edx	 # ump_3->m_next, D.2772
 842 08a8 8B44241C 		movl	28(%esp), %eax	 # ctp, tmp90
 843 08ac 89503C   		movl	%edx, 60(%eax)	 # D.2772, ctp_1->p_mtxlist
 844              		.loc 1 375 0
 845 08af 8B442418 		movl	24(%esp), %eax	 # ump, tmp91
 846 08b3 8B10     		movl	(%eax), %edx	 # ump_3->m_queue.p_next, D.2773
 847 08b5 8B442418 		movl	24(%esp), %eax	 # ump, D.2774
 848 08b9 39C2     		cmpl	%eax, %edx	 # D.2774, D.2773
 849 08bb 747A     		je	L31	 #,
 850 08bd A1100000 		movl	LPBX1+16, %eax	 # *LPBX1, PROF_edge_counter.0
 850      00
 851 08c2 8B151400 		movl	LPBX1+20, %edx	 # *LPBX1, PROF_edge_counter.0
 851      0000
 852 08c8 83C001   		addl	$1, %eax	 #, PROF_edge_counter.0
 853 08cb 83D200   		adcl	$0, %edx	 #, PROF_edge_counter.0
 854 08ce A3100000 		movl	%eax, LPBX1+16	 # PROF_edge_counter.0, *LPBX1
 854      00
 855 08d3 89151400 		movl	%edx, LPBX1+20	 # PROF_edge_counter.0, *LPBX1
 855      0000
 856              	LBB6:
 857              		.loc 1 376 0
 858 08d9 8B442418 		movl	24(%esp), %eax	 # ump, D.2777
 859 08dd 890424   		movl	%eax, (%esp)	 # D.2777,
 860 08e0 E8000000 		call	_fifo_remove	 #
 860      00
 861 08e5 89442414 		movl	%eax, 20(%esp)	 # tmp92, tp
 862 08e9 A1180000 		movl	LPBX1+24, %eax	 # *LPBX1, PROF_edge_counter.0
 862      00
 863 08ee 8B151C00 		movl	LPBX1+28, %edx	 # *LPBX1, PROF_edge_counter.0
GAS LISTING C:\cygwin\tmp\ccPWAwfi.s 			page 20


 863      0000
 864 08f4 83C001   		addl	$1, %eax	 #, PROF_edge_counter.0
 865 08f7 83D200   		adcl	$0, %edx	 #, PROF_edge_counter.0
 866 08fa A3180000 		movl	%eax, LPBX1+24	 # PROF_edge_counter.0, *LPBX1
 866      00
 867 08ff 89151C00 		movl	%edx, LPBX1+28	 # PROF_edge_counter.0, *LPBX1
 867      0000
 868              		.loc 1 377 0
 869 0905 8B442418 		movl	24(%esp), %eax	 # ump, tmp93
 870 0909 8B542414 		movl	20(%esp), %edx	 # tp, tmp94
 871 090d 895008   		movl	%edx, 8(%eax)	 # tmp94, ump_3->m_owner
 872              		.loc 1 378 0
 873 0910 8B442414 		movl	20(%esp), %eax	 # tp, tmp95
 874 0914 8B503C   		movl	60(%eax), %edx	 # tp_8->p_mtxlist, D.2778
 875 0917 8B442418 		movl	24(%esp), %eax	 # ump, tmp96
 876 091b 89500C   		movl	%edx, 12(%eax)	 # D.2778, ump_3->m_next
 877              		.loc 1 379 0
 878 091e 8B442414 		movl	20(%esp), %eax	 # tp, tmp97
 879 0922 8B542418 		movl	24(%esp), %edx	 # ump, tmp98
 880 0926 89503C   		movl	%edx, 60(%eax)	 # tmp98, tp_8->p_mtxlist
 881              		.loc 1 380 0
 882 0929 8B442414 		movl	20(%esp), %eax	 # tp, tmp99
 883 092d 890424   		movl	%eax, (%esp)	 # tmp99,
 884 0930 E8000000 		call	_chSchReadyI	 #
 884      00
 885 0935 EB27     		jmp	L32	 #
 886              	L31:
 887              	LBE6:
 888              		.loc 1 383 0
 889 0937 8B442418 		movl	24(%esp), %eax	 # ump, tmp100
 890 093b C7400800 		movl	$0, 8(%eax)	 #, ump_3->m_owner
 890      000000
 891 0942 A1200000 		movl	LPBX1+32, %eax	 # *LPBX1, PROF_edge_counter.0
 891      00
 892 0947 8B152400 		movl	LPBX1+36, %edx	 # *LPBX1, PROF_edge_counter.0
 892      0000
 893 094d 83C001   		addl	$1, %eax	 #, PROF_edge_counter.0
 894 0950 83D200   		adcl	$0, %edx	 #, PROF_edge_counter.0
 895 0953 A3200000 		movl	%eax, LPBX1+32	 # PROF_edge_counter.0, *LPBX1
 895      00
 896 0958 89152400 		movl	%edx, LPBX1+36	 # PROF_edge_counter.0, *LPBX1
 896      0000
 897              	L32:
 898              	LBE5:
 899              		.loc 1 384 0
 900 095e 8B44241C 		movl	28(%esp), %eax	 # ctp, tmp101
 901 0962 8B403C   		movl	60(%eax), %eax	 # ctp_1->p_mtxlist, D.2780
 902 0965 85C0     		testl	%eax, %eax	 # D.2780
 903 0967 7421     		je	L33	 #,
 904 0969 A1280000 		movl	LPBX1+40, %eax	 # *LPBX1, PROF_edge_counter.0
 904      00
 905 096e 8B152C00 		movl	LPBX1+44, %edx	 # *LPBX1, PROF_edge_counter.0
 905      0000
 906 0974 83C001   		addl	$1, %eax	 #, PROF_edge_counter.0
 907 0977 83D200   		adcl	$0, %edx	 #, PROF_edge_counter.0
 908 097a A3280000 		movl	%eax, LPBX1+40	 # PROF_edge_counter.0, *LPBX1
 908      00
GAS LISTING C:\cygwin\tmp\ccPWAwfi.s 			page 21


 909 097f 89152C00 		movl	%edx, LPBX1+44	 # PROF_edge_counter.0, *LPBX1
 909      0000
 910 0985 E90CFFFF 		jmp	L34	 #
 910      FF
 911              	L33:
 912 098a A1300000 		movl	LPBX1+48, %eax	 # *LPBX1, PROF_edge_counter.0
 912      00
 913 098f 8B153400 		movl	LPBX1+52, %edx	 # *LPBX1, PROF_edge_counter.0
 913      0000
 914 0995 83C001   		addl	$1, %eax	 #, PROF_edge_counter.0
 915 0998 83D200   		adcl	$0, %edx	 #, PROF_edge_counter.0
 916 099b A3300000 		movl	%eax, LPBX1+48	 # PROF_edge_counter.0, *LPBX1
 916      00
 917 09a0 89153400 		movl	%edx, LPBX1+52	 # PROF_edge_counter.0, *LPBX1
 917      0000
 918              		.loc 1 385 0
 919 09a6 8B44241C 		movl	28(%esp), %eax	 # ctp, tmp102
 920 09aa 8B5040   		movl	64(%eax), %edx	 # ctp_1->p_realprio, D.2781
 921 09ad 8B44241C 		movl	28(%esp), %eax	 # ctp, tmp103
 922 09b1 895008   		movl	%edx, 8(%eax)	 # D.2781, ctp_1->p_prio
 923              		.loc 1 386 0
 924 09b4 E8000000 		call	_chSchRescheduleS	 #
 924      00
 925 09b9 A1380000 		movl	LPBX1+56, %eax	 # *LPBX1, PROF_edge_counter.0
 925      00
 926 09be 8B153C00 		movl	LPBX1+60, %edx	 # *LPBX1, PROF_edge_counter.0
 926      0000
 927 09c4 83C001   		addl	$1, %eax	 #, PROF_edge_counter.0
 928 09c7 83D200   		adcl	$0, %edx	 #, PROF_edge_counter.0
 929 09ca A3380000 		movl	%eax, LPBX1+56	 # PROF_edge_counter.0, *LPBX1
 929      00
 930 09cf 89153C00 		movl	%edx, LPBX1+60	 # PROF_edge_counter.0, *LPBX1
 930      0000
 931              	L30:
 932              		.loc 1 388 0
 933              	/APP
 934              	 # 388 "../../os/kernel/src/chmtx.c" 1
 935 09d5 90       		nop
 936              	 # 0 "" 2
 937              	/NO_APP
 938 09d6 A1400000 		movl	LPBX1+64, %eax	 # *LPBX1, PROF_edge_counter.0
 938      00
 939 09db 8B154400 		movl	LPBX1+68, %edx	 # *LPBX1, PROF_edge_counter.0
 939      0000
 940 09e1 83C001   		addl	$1, %eax	 #, PROF_edge_counter.0
 941 09e4 83D200   		adcl	$0, %edx	 #, PROF_edge_counter.0
 942 09e7 A3400000 		movl	%eax, LPBX1+64	 # PROF_edge_counter.0, *LPBX1
 942      00
 943 09ec 89154400 		movl	%edx, LPBX1+68	 # PROF_edge_counter.0, *LPBX1
 943      0000
 944              		.loc 1 389 0
 945 09f2 83C42C   		addl	$44, %esp	 #,
 946              	LCFI17:
 947              		.cfi_def_cfa_offset 4
 948 09f5 C3       		ret
 949              		.cfi_endproc
 950              	LFE7:
GAS LISTING C:\cygwin\tmp\ccPWAwfi.s 			page 22


 951              	.lcomm LPBX1,400,32
 952              		.section .rdata,"dr"
 953              		.align 4
 954              	LC0:
 955 0000 433A5C64 		.ascii "C:\\develop\\gyro\\ChibiOS\\test\\coverage/../../os/kernel/src/chmtx.gcda\0"
 955      6576656C 
 955      6F705C67 
 955      79726F5C 
 955      43686962 
 956 0045 000000   		.data
 957              		.align 32
 958              	LC1:
 959              	 # <anonymous>:
 960 0000 08000000 		.long	8
 961              	 # <anonymous>:
 962 0004 2952C08B 		.long	-1950330327
 963              	 # <anonymous>:
 964 0008 09000000 		.long	9
 965              	 # <anonymous>:
 966 000c 07000000 		.long	7
 967              	 # <anonymous>:
 968 0010 288C2470 		.long	1881443368
 969              	 # <anonymous>:
 970 0014 07000000 		.long	7
 971              	 # <anonymous>:
 972 0018 06000000 		.long	6
 973              	 # <anonymous>:
 974 001c 58341C5D 		.long	1562129496
 975              	 # <anonymous>:
 976 0020 09000000 		.long	9
 977              	 # <anonymous>:
 978 0024 05000000 		.long	5
 979              	 # <anonymous>:
 980 0028 BB174EF9 		.long	-112322629
 981              	 # <anonymous>:
 982 002c 02000000 		.long	2
 983              	 # <anonymous>:
 984 0030 04000000 		.long	4
 985              	 # <anonymous>:
 986 0034 AED80688 		.long	-2012817234
 987              	 # <anonymous>:
 988 0038 04000000 		.long	4
 989              	 # <anonymous>:
 990 003c 03000000 		.long	3
 991              	 # <anonymous>:
 992 0040 FD04BCD3 		.long	-742652675
 993              	 # <anonymous>:
 994 0044 0E000000 		.long	14
 995              	 # <anonymous>:
 996 0048 02000000 		.long	2
 997              	 # <anonymous>:
 998 004c A50C02AF 		.long	-1358820187
 999              	 # <anonymous>:
 1000 0050 04000000 		.long	4
 1001              	 # <anonymous>:
 1002 0054 01000000 		.long	1
 1003              	 # <anonymous>:
GAS LISTING C:\cygwin\tmp\ccPWAwfi.s 			page 23


 1004 0058 645B312B 		.long	724654948
 1005              	 # <anonymous>:
 1006 005c 01000000 		.long	1
 1007              		.align 32
 1008              	LPBX0:
 1009              	 # <anonymous>:
 1010 0060 2A363034 		.long	875574826
 1011              	 # <anonymous>:
 1012 0064 00000000 		.long	0
 1013              	 # <anonymous>:
 1014 0068 8A1D7060 		.long	1617960330
 1015              	 # <anonymous>:
 1016 006c 00000000 		.long	LC0
 1017              	 # <anonymous>:
 1018 0070 08000000 		.long	8
 1019              	 # <anonymous>:
 1020 0074 00000000 		.long	LC1
 1021              	 # <anonymous>:
 1022 0078 01000000 		.long	1
 1023              	 # <anonymous>:
 1024              	 # <anonymous>:
 1025 007c 32000000 		.long	50
 1026              	 # <anonymous>:
 1027 0080 00000000 		.long	LPBX1
 1028              	 # <anonymous>:
 1029 0084 00000000 		.long	___gcov_merge_add
 1030 0088 00000000 		.space 12
 1030      00000000 
 1030      00000000 
 1031 0094 00000000 		.text
 1031      00000000 
 1031      00000000 
 1032              		.def	__GLOBAL__sub_I_65535_0_chMtxInit;	.scl	3;	.type	32;	.endef
 1033              	__GLOBAL__sub_I_65535_0_chMtxInit:
 1034              	LFB8:
 1035              		.loc 1 389 0
 1036              		.cfi_startproc
 1037 09f6 83EC1C   		subl	$28, %esp	 #,
 1038              	LCFI18:
 1039              		.cfi_def_cfa_offset 32
 1040              		.loc 1 389 0
 1041 09f9 C7042460 		movl	$LPBX0, (%esp)	 #,
 1041      000000
 1042 0a00 E8000000 		call	___gcov_init	 #
 1042      00
 1043 0a05 83C41C   		addl	$28, %esp	 #,
 1044              	LCFI19:
 1045              		.cfi_def_cfa_offset 4
 1046 0a08 C3       		ret
 1047              		.cfi_endproc
 1048              	LFE8:
 1049              		.section	.ctors,"w"
 1050              		.align 4
 1051 0000 F6090000 		.long	__GLOBAL__sub_I_65535_0_chMtxInit
 1052              		.text
 1053              	Letext0:
 1054              		.file 2 "c:/mingw/bin/../lib/gcc/mingw32/4.6.2/../../../../include/stdint.h"
GAS LISTING C:\cygwin\tmp\ccPWAwfi.s 			page 24


 1055              		.file 3 "../../os/ports/GCC/SIMIA32/chtypes.h"
 1056              		.file 4 "../../os/kernel/include/chlists.h"
 1057              		.file 5 "../../os/kernel/include/chthreads.h"
 1058              		.file 6 "../../os/ports/GCC/SIMIA32/chcore.h"
 1059              		.file 7 "../../os/kernel/include/chschd.h"
 1060              		.file 8 "../../os/kernel/include/chmtx.h"