GAS LISTING C:\cygwin\tmp\ccStazSd.s 			page 1


   1              		.file	"chqueues.c"
   2              	 # GNU C (GCC) version 4.6.2 (mingw32)
   3              	 #	compiled by GNU C version 4.6.2, GMP version 5.0.1, MPFR version 2.4.1, MPC version 0.8.1
   4              	 # GGC heuristics: --param ggc-min-expand=100 --param ggc-min-heapsize=131072
   5              	 # options passed:  -I . -I ../../os/ports/GCC/SIMIA32
   6              	 # -I ../../os/kernel/include -I ../../test -I ../../os/hal/include
   7              	 # -I ../../os/hal/platforms/Win32 -I ../../boards/simulator
   8              	 # -I ../../os/various -iprefix c:\mingw\bin\../lib/gcc/mingw32/4.6.2/
   9              	 # -MD ../../os/kernel/src/chqueues.d -MF .dep/chqueues.o.d -MP
  10              	 # -MQ ../../os/kernel/src/chqueues.o -D SIMULATOR
  11              	 # ../../os/kernel/src/chqueues.c -mtune=i386 -march=i386
  12              	 # -auxbase-strip ../../os/kernel/src/chqueues.o -ggdb -O0 -Wall -Wextra
  13              	 # -Wstrict-prototypes -fomit-frame-pointer -fprofile-arcs -ftest-coverage
  14              	 # -fverbose-asm
  15              	 # options enabled:  -fasynchronous-unwind-tables -fauto-inc-dec
  16              	 # -fbranch-count-reg -fcommon -fdelete-null-pointer-checks
  17              	 # -fdwarf2-cfi-asm -fearly-inlining -feliminate-unused-debug-types
  18              	 # -ffunction-cse -fgcse-lm -fident -finline-functions-called-once
  19              	 # -fira-share-save-slots -fira-share-spill-slots -fivopts
  20              	 # -fkeep-inline-dllexport -fkeep-static-consts -fleading-underscore
  21              	 # -fmath-errno -fmerge-debug-strings -fmove-loop-invariants
  22              	 # -fomit-frame-pointer -fpeephole -fprefetch-loop-arrays -fprofile-arcs
  23              	 # -freg-struct-return -fsched-critical-path-heuristic
  24              	 # -fsched-dep-count-heuristic -fsched-group-heuristic -fsched-interblock
  25              	 # -fsched-last-insn-heuristic -fsched-rank-heuristic -fsched-spec
  26              	 # -fsched-spec-insn-heuristic -fsched-stalled-insns-dep
  27              	 # -fset-stack-executable -fshow-column -fsigned-zeros
  28              	 # -fsplit-ivs-in-unroller -fstrict-volatile-bitfields -ftest-coverage
  29              	 # -ftrapping-math -ftree-cselim -ftree-forwprop -ftree-loop-if-convert
  30              	 # -ftree-loop-im -ftree-loop-ivcanon -ftree-loop-optimize
  31              	 # -ftree-parallelize-loops= -ftree-phiprop -ftree-pta -ftree-reassoc
  32              	 # -ftree-scev-cprop -ftree-slp-vectorize -ftree-vect-loop-version
  33              	 # -funit-at-a-time -funwind-tables -fvect-cost-model -fverbose-asm
  34              	 # -fzero-initialized-in-bss -m32 -m80387 -m96bit-long-double
  35              	 # -maccumulate-outgoing-args -malign-double -malign-stringops
  36              	 # -mfancy-math-387 -mfp-ret-in-387 -mieee-fp -mno-red-zone -mno-sse4
  37              	 # -mpush-args -msahf -mstack-arg-probe
  38              	
  39              		.text
  40              	Ltext0:
  41              	 # Compiler executable checksum: c20aed7c018482d7b62efcd5dcab2a9d
  42              	
  43              		.def	_qwait;	.scl	3;	.type	32;	.endef
  44              	_qwait:
  45              	LFB0:
  46              		.file 1 "../../os/kernel/src/chqueues.c"
  47              		.loc 1 63 0
  48              		.cfi_startproc
  49 0000 83EC1C   		subl	$28, %esp	 #,
  50              	LCFI0:
  51              		.cfi_def_cfa_offset 32
  52              		.loc 1 65 0
  53 0003 837C2424 		cmpl	$0, 36(%esp)	 #, time
  53      00
  54 0008 7526     		jne	L2	 #,
  55              		.loc 1 66 0
  56 000a B9FFFFFF 		movl	$-1, %ecx	 #, D.2966
GAS LISTING C:\cygwin\tmp\ccStazSd.s 			page 2


  56      FF
  57 000f A1380200 		movl	LPBX1+568, %eax	 # *LPBX1, PROF_edge_counter.12
  57      00
  58 0014 8B153C02 		movl	LPBX1+572, %edx	 # *LPBX1, PROF_edge_counter.12
  58      0000
  59 001a 83C001   		addl	$1, %eax	 #, PROF_edge_counter.12
  60 001d 83D200   		adcl	$0, %edx	 #, PROF_edge_counter.12
  61 0020 A3380200 		movl	%eax, LPBX1+568	 # PROF_edge_counter.12, *LPBX1
  61      00
  62 0025 89153C02 		movl	%edx, LPBX1+572	 # PROF_edge_counter.12, *LPBX1
  62      0000
  63 002b E98B0000 		jmp	L3	 #
  63      00
  64              	L2:
  65 0030 A1300200 		movl	LPBX1+560, %eax	 # *LPBX1, PROF_edge_counter.12
  65      00
  66 0035 8B153402 		movl	LPBX1+564, %edx	 # *LPBX1, PROF_edge_counter.12
  66      0000
  67 003b 83C001   		addl	$1, %eax	 #, PROF_edge_counter.12
  68 003e 83D200   		adcl	$0, %edx	 #, PROF_edge_counter.12
  69 0041 A3300200 		movl	%eax, LPBX1+560	 # PROF_edge_counter.12, *LPBX1
  69      00
  70 0046 89153402 		movl	%edx, LPBX1+564	 # PROF_edge_counter.12, *LPBX1
  70      0000
  71              		.loc 1 67 0
  72 004c A1180000 		movl	_rlist+24, %eax	 # rlist.r_current, D.2967
  72      00
  73 0051 8B542420 		movl	32(%esp), %edx	 # qp, tmp72
  74 0055 895024   		movl	%edx, 36(%eax)	 # tmp72, D.2967_4->p_u.wtobjp
  75              		.loc 1 68 0
  76 0058 8B542420 		movl	32(%esp), %edx	 # qp, D.2968
  77 005c A1180000 		movl	_rlist+24, %eax	 # rlist.r_current, D.2969
  77      00
  78 0061 89542404 		movl	%edx, 4(%esp)	 # D.2968,
  79 0065 890424   		movl	%eax, (%esp)	 # D.2969,
  80 0068 E8000000 		call	_queue_insert	 #
  80      00
  81 006d A1400200 		movl	LPBX1+576, %eax	 # *LPBX1, PROF_edge_counter.12
  81      00
  82 0072 8B154402 		movl	LPBX1+580, %edx	 # *LPBX1, PROF_edge_counter.12
  82      0000
  83 0078 83C001   		addl	$1, %eax	 #, PROF_edge_counter.12
  84 007b 83D200   		adcl	$0, %edx	 #, PROF_edge_counter.12
  85 007e A3400200 		movl	%eax, LPBX1+576	 # PROF_edge_counter.12, *LPBX1
  85      00
  86 0083 89154402 		movl	%edx, LPBX1+580	 # PROF_edge_counter.12, *LPBX1
  86      0000
  87              		.loc 1 69 0
  88 0089 8B442424 		movl	36(%esp), %eax	 # time, tmp73
  89 008d 89442404 		movl	%eax, 4(%esp)	 # tmp73,
  90 0091 C704240D 		movl	$13, (%esp)	 #,
  90      000000
  91 0098 E8000000 		call	_chSchGoSleepTimeoutS	 #
  91      00
  92 009d 89C1     		movl	%eax, %ecx	 #, D.2966
  93 009f A1480200 		movl	LPBX1+584, %eax	 # *LPBX1, PROF_edge_counter.12
  93      00
GAS LISTING C:\cygwin\tmp\ccStazSd.s 			page 3


  94 00a4 8B154C02 		movl	LPBX1+588, %edx	 # *LPBX1, PROF_edge_counter.12
  94      0000
  95 00aa 83C001   		addl	$1, %eax	 #, PROF_edge_counter.12
  96 00ad 83D200   		adcl	$0, %edx	 #, PROF_edge_counter.12
  97 00b0 A3480200 		movl	%eax, LPBX1+584	 # PROF_edge_counter.12, *LPBX1
  97      00
  98 00b5 89154C02 		movl	%edx, LPBX1+588	 # PROF_edge_counter.12, *LPBX1
  98      0000
  99              	L3:
 100 00bb 89C8     		movl	%ecx, %eax	 # D.2966, <retval>
 101              		.loc 1 70 0
 102 00bd 83C41C   		addl	$28, %esp	 #,
 103              	LCFI1:
 104              		.cfi_def_cfa_offset 4
 105 00c0 C3       		ret
 106              		.cfi_endproc
 107              	LFE0:
 108              		.globl	_chIQInit
 109              		.def	_chIQInit;	.scl	2;	.type	32;	.endef
 110              	_chIQInit:
 111              	LFB1:
 112              		.loc 1 89 0
 113              		.cfi_startproc
 114 00c1 83EC04   		subl	$4, %esp	 #,
 115              	LCFI2:
 116              		.cfi_def_cfa_offset 8
 117              		.loc 1 89 0
 118 00c4 A1280200 		movl	LPBX1+552, %eax	 # *LPBX1, PROF_edge_counter.11
 118      00
 119 00c9 8B152C02 		movl	LPBX1+556, %edx	 # *LPBX1, PROF_edge_counter.11
 119      0000
 120 00cf 83C001   		addl	$1, %eax	 #, PROF_edge_counter.11
 121 00d2 83D200   		adcl	$0, %edx	 #, PROF_edge_counter.11
 122 00d5 A3280200 		movl	%eax, LPBX1+552	 # PROF_edge_counter.11, *LPBX1
 122      00
 123 00da 89152C02 		movl	%edx, LPBX1+556	 # PROF_edge_counter.11, *LPBX1
 123      0000
 124              		.loc 1 91 0
 125 00e0 8B542408 		movl	8(%esp), %edx	 # iqp, D.2959
 126 00e4 8B442408 		movl	8(%esp), %eax	 # iqp, tmp66
 127 00e8 895004   		movl	%edx, 4(%eax)	 # D.2959, iqp_1(D)->q_waiting.p_prev
 128 00eb 8B442408 		movl	8(%esp), %eax	 # iqp, tmp67
 129 00ef 8B5004   		movl	4(%eax), %edx	 # iqp_1(D)->q_waiting.p_prev, D.2960
 130 00f2 8B442408 		movl	8(%esp), %eax	 # iqp, tmp68
 131 00f6 8910     		movl	%edx, (%eax)	 # D.2960, iqp_1(D)->q_waiting.p_next
 132              		.loc 1 92 0
 133 00f8 8B442408 		movl	8(%esp), %eax	 # iqp, tmp69
 134 00fc C7400800 		movl	$0, 8(%eax)	 #, iqp_1(D)->q_counter
 134      000000
 135              		.loc 1 93 0
 136 0103 8B442408 		movl	8(%esp), %eax	 # iqp, tmp70
 137 0107 8B54240C 		movl	12(%esp), %edx	 # bp, tmp71
 138 010b 895014   		movl	%edx, 20(%eax)	 # tmp71, iqp_1(D)->q_wrptr
 139 010e 8B442408 		movl	8(%esp), %eax	 # iqp, tmp72
 140 0112 8B5014   		movl	20(%eax), %edx	 # iqp_1(D)->q_wrptr, D.2961
 141 0115 8B442408 		movl	8(%esp), %eax	 # iqp, tmp73
 142 0119 895018   		movl	%edx, 24(%eax)	 # D.2961, iqp_1(D)->q_rdptr
GAS LISTING C:\cygwin\tmp\ccStazSd.s 			page 4


 143 011c 8B442408 		movl	8(%esp), %eax	 # iqp, tmp74
 144 0120 8B5018   		movl	24(%eax), %edx	 # iqp_1(D)->q_rdptr, D.2962
 145 0123 8B442408 		movl	8(%esp), %eax	 # iqp, tmp75
 146 0127 89500C   		movl	%edx, 12(%eax)	 # D.2962, iqp_1(D)->q_buffer
 147              		.loc 1 94 0
 148 012a 8B442410 		movl	16(%esp), %eax	 # size, tmp76
 149 012e 8B54240C 		movl	12(%esp), %edx	 # bp, tmp77
 150 0132 01C2     		addl	%eax, %edx	 # tmp76, D.2963
 151 0134 8B442408 		movl	8(%esp), %eax	 # iqp, tmp78
 152 0138 895010   		movl	%edx, 16(%eax)	 # D.2963, iqp_1(D)->q_top
 153              		.loc 1 95 0
 154 013b 8B442408 		movl	8(%esp), %eax	 # iqp, tmp79
 155 013f 8B542414 		movl	20(%esp), %edx	 # infy, tmp80
 156 0143 89501C   		movl	%edx, 28(%eax)	 # tmp80, iqp_1(D)->q_notify
 157              		.loc 1 96 0
 158 0146 8B442408 		movl	8(%esp), %eax	 # iqp, tmp81
 159 014a 8B542418 		movl	24(%esp), %edx	 # link, tmp82
 160 014e 895020   		movl	%edx, 32(%eax)	 # tmp82, iqp_1(D)->q_link
 161              		.loc 1 97 0
 162 0151 83C404   		addl	$4, %esp	 #,
 163              	LCFI3:
 164              		.cfi_def_cfa_offset 4
 165 0154 C3       		ret
 166              		.cfi_endproc
 167              	LFE1:
 168              		.globl	_chIQResetI
 169              		.def	_chIQResetI;	.scl	2;	.type	32;	.endef
 170              	_chIQResetI:
 171              	LFB2:
 172              		.loc 1 110 0
 173              		.cfi_startproc
 174 0155 83EC1C   		subl	$28, %esp	 #,
 175              	LCFI4:
 176              		.cfi_def_cfa_offset 32
 177              		.loc 1 114 0
 178 0158 8B442420 		movl	32(%esp), %eax	 # iqp, tmp74
 179 015c 8B500C   		movl	12(%eax), %edx	 # iqp_1(D)->q_buffer, D.2952
 180 015f 8B442420 		movl	32(%esp), %eax	 # iqp, tmp75
 181 0163 895014   		movl	%edx, 20(%eax)	 # D.2952, iqp_1(D)->q_wrptr
 182 0166 8B442420 		movl	32(%esp), %eax	 # iqp, tmp76
 183 016a 8B5014   		movl	20(%eax), %edx	 # iqp_1(D)->q_wrptr, D.2953
 184 016d 8B442420 		movl	32(%esp), %eax	 # iqp, tmp77
 185 0171 895018   		movl	%edx, 24(%eax)	 # D.2953, iqp_1(D)->q_rdptr
 186              		.loc 1 115 0
 187 0174 8B442420 		movl	32(%esp), %eax	 # iqp, tmp78
 188 0178 C7400800 		movl	$0, 8(%eax)	 #, iqp_1(D)->q_counter
 188      000000
 189              		.loc 1 116 0
 190 017f EB71     		jmp	L6	 #
 191              	L7:
 192 0181 A1180200 		movl	LPBX1+536, %eax	 # *LPBX1, PROF_edge_counter.10
 192      00
 193 0186 8B151C02 		movl	LPBX1+540, %edx	 # *LPBX1, PROF_edge_counter.10
 193      0000
 194 018c 83C001   		addl	$1, %eax	 #, PROF_edge_counter.10
 195 018f 83D200   		adcl	$0, %edx	 #, PROF_edge_counter.10
 196 0192 A3180200 		movl	%eax, LPBX1+536	 # PROF_edge_counter.10, *LPBX1
GAS LISTING C:\cygwin\tmp\ccStazSd.s 			page 5


 196      00
 197 0197 89151C02 		movl	%edx, LPBX1+540	 # PROF_edge_counter.10, *LPBX1
 197      0000
 198              		.loc 1 117 0
 199 019d 8B442420 		movl	32(%esp), %eax	 # iqp, D.2954
 200 01a1 890424   		movl	%eax, (%esp)	 # D.2954,
 201 01a4 E8000000 		call	_fifo_remove	 #
 201      00
 202 01a9 89C1     		movl	%eax, %ecx	 #, D.2955
 203 01ab A1080200 		movl	LPBX1+520, %eax	 # *LPBX1, PROF_edge_counter.10
 203      00
 204 01b0 8B150C02 		movl	LPBX1+524, %edx	 # *LPBX1, PROF_edge_counter.10
 204      0000
 205 01b6 83C001   		addl	$1, %eax	 #, PROF_edge_counter.10
 206 01b9 83D200   		adcl	$0, %edx	 #, PROF_edge_counter.10
 207 01bc A3080200 		movl	%eax, LPBX1+520	 # PROF_edge_counter.10, *LPBX1
 207      00
 208 01c1 89150C02 		movl	%edx, LPBX1+524	 # PROF_edge_counter.10, *LPBX1
 208      0000
 209 01c7 890C24   		movl	%ecx, (%esp)	 # D.2955,
 210 01ca E8000000 		call	_chSchReadyI	 #
 210      00
 211 01cf C74024FE 		movl	$-2, 36(%eax)	 #, D.2956_8->p_u.rdymsg
 211      FFFFFF
 212 01d6 A1100200 		movl	LPBX1+528, %eax	 # *LPBX1, PROF_edge_counter.10
 212      00
 213 01db 8B151402 		movl	LPBX1+532, %edx	 # *LPBX1, PROF_edge_counter.10
 213      0000
 214 01e1 83C001   		addl	$1, %eax	 #, PROF_edge_counter.10
 215 01e4 83D200   		adcl	$0, %edx	 #, PROF_edge_counter.10
 216 01e7 A3100200 		movl	%eax, LPBX1+528	 # PROF_edge_counter.10, *LPBX1
 216      00
 217 01ec 89151402 		movl	%edx, LPBX1+532	 # PROF_edge_counter.10, *LPBX1
 217      0000
 218              	L6:
 219              		.loc 1 116 0 discriminator 1
 220 01f2 8B442420 		movl	32(%esp), %eax	 # iqp, tmp79
 221 01f6 8B10     		movl	(%eax), %edx	 # iqp_1(D)->q_waiting.p_next, D.2957
 222 01f8 8B442420 		movl	32(%esp), %eax	 # iqp, D.2958
 223 01fc 39C2     		cmpl	%eax, %edx	 # D.2958, D.2957
 224 01fe 7581     		jne	L7	 #,
 225              		.loc 1 116 0 is_stmt 0
 226 0200 A1200200 		movl	LPBX1+544, %eax	 # *LPBX1, PROF_edge_counter.10
 226      00
 227 0205 8B152402 		movl	LPBX1+548, %edx	 # *LPBX1, PROF_edge_counter.10
 227      0000
 228 020b 83C001   		addl	$1, %eax	 #, PROF_edge_counter.10
 229 020e 83D200   		adcl	$0, %edx	 #, PROF_edge_counter.10
 230 0211 A3200200 		movl	%eax, LPBX1+544	 # PROF_edge_counter.10, *LPBX1
 230      00
 231 0216 89152402 		movl	%edx, LPBX1+548	 # PROF_edge_counter.10, *LPBX1
 231      0000
 232              		.loc 1 118 0 is_stmt 1
 233 021c 83C41C   		addl	$28, %esp	 #,
 234              	LCFI5:
 235              		.cfi_def_cfa_offset 4
 236 021f C3       		ret
GAS LISTING C:\cygwin\tmp\ccStazSd.s 			page 6


 237              		.cfi_endproc
 238              	LFE2:
 239              		.globl	_chIQPutI
 240              		.def	_chIQPutI;	.scl	2;	.type	32;	.endef
 241              	_chIQPutI:
 242              	LFB3:
 243              		.loc 1 133 0
 244              		.cfi_startproc
 245 0220 83EC2C   		subl	$44, %esp	 #,
 246              	LCFI6:
 247              		.cfi_def_cfa_offset 48
 248 0223 8B442434 		movl	52(%esp), %eax	 # b, tmp94
 249 0227 8844241C 		movb	%al, 28(%esp)	 # tmp94, b
 250              		.loc 1 137 0
 251 022b 8B442430 		movl	48(%esp), %eax	 # iqp, tmp95
 252 022f 8B5014   		movl	20(%eax), %edx	 # iqp_3(D)->q_wrptr, D.2926
 253 0232 8B442430 		movl	48(%esp), %eax	 # iqp, tmp96
 254 0236 8B4018   		movl	24(%eax), %eax	 # iqp_3(D)->q_rdptr, D.2927
 255 0239 39C2     		cmpl	%eax, %edx	 # D.2927, D.2926
 256 023b 752E     		jne	L9	 #,
 257              		.loc 1 137 0 is_stmt 0 discriminator 1
 258 023d A1C80100 		movl	LPBX1+456, %eax	 # *LPBX1, PROF_edge_counter.9
 258      00
 259 0242 8B15CC01 		movl	LPBX1+460, %edx	 # *LPBX1, PROF_edge_counter.9
 259      0000
 260 0248 83C001   		addl	$1, %eax	 #, PROF_edge_counter.9
 261 024b 83D200   		adcl	$0, %edx	 #, PROF_edge_counter.9
 262 024e A3C80100 		movl	%eax, LPBX1+456	 # PROF_edge_counter.9, *LPBX1
 262      00
 263 0253 8915CC01 		movl	%edx, LPBX1+460	 # PROF_edge_counter.9, *LPBX1
 263      0000
 264 0259 8B442430 		movl	48(%esp), %eax	 # iqp, tmp97
 265 025d 8B4008   		movl	8(%eax), %eax	 # iqp_3(D)->q_counter, D.2929
 266 0260 85C0     		testl	%eax, %eax	 # D.2929
 267 0262 7407     		je	L9	 #,
 268              		.loc 1 137 0 discriminator 3
 269 0264 B9010000 		movl	$1, %ecx	 #, iftmp.1
 269      00
 270 0269 EB21     		jmp	L10	 #
 271              	L9:
 272              		.loc 1 137 0 discriminator 2
 273 026b B9000000 		movl	$0, %ecx	 #, iftmp.1
 273      00
 274 0270 A1D00100 		movl	LPBX1+464, %eax	 # *LPBX1, PROF_edge_counter.9
 274      00
 275 0275 8B15D401 		movl	LPBX1+468, %edx	 # *LPBX1, PROF_edge_counter.9
 275      0000
 276 027b 83C001   		addl	$1, %eax	 #, PROF_edge_counter.9
 277 027e 83D200   		adcl	$0, %edx	 #, PROF_edge_counter.9
 278 0281 A3D00100 		movl	%eax, LPBX1+464	 # PROF_edge_counter.9, *LPBX1
 278      00
 279 0286 8915D401 		movl	%edx, LPBX1+468	 # PROF_edge_counter.9, *LPBX1
 279      0000
 280              	L10:
 281              		.loc 1 137 0 discriminator 4
 282 028c 88C8     		movb	%cl, %al	 # iftmp.1, D.2931
 283 028e 84C0     		testb	%al, %al	 # D.2931
GAS LISTING C:\cygwin\tmp\ccStazSd.s 			page 7


 284 0290 7426     		je	L11	 #,
 285              		.loc 1 138 0 is_stmt 1
 286 0292 B9FCFFFF 		movl	$-4, %ecx	 #, D.2934
 286      FF
 287 0297 A1D80100 		movl	LPBX1+472, %eax	 # *LPBX1, PROF_edge_counter.9
 287      00
 288 029c 8B15DC01 		movl	LPBX1+476, %edx	 # *LPBX1, PROF_edge_counter.9
 288      0000
 289 02a2 83C001   		addl	$1, %eax	 #, PROF_edge_counter.9
 290 02a5 83D200   		adcl	$0, %edx	 #, PROF_edge_counter.9
 291 02a8 A3D80100 		movl	%eax, LPBX1+472	 # PROF_edge_counter.9, *LPBX1
 291      00
 292 02ad 8915DC01 		movl	%edx, LPBX1+476	 # PROF_edge_counter.9, *LPBX1
 292      0000
 293 02b3 E9040100 		jmp	L12	 #
 293      00
 294              	L11:
 295              		.loc 1 140 0
 296 02b8 8B442430 		movl	48(%esp), %eax	 # iqp, tmp98
 297 02bc 8B4008   		movl	8(%eax), %eax	 # iqp_3(D)->q_counter, D.2935
 298 02bf 8D5001   		leal	1(%eax), %edx	 #, D.2936
 299 02c2 8B442430 		movl	48(%esp), %eax	 # iqp, tmp99
 300 02c6 895008   		movl	%edx, 8(%eax)	 # D.2936, iqp_3(D)->q_counter
 301              		.loc 1 141 0
 302 02c9 8B442430 		movl	48(%esp), %eax	 # iqp, tmp100
 303 02cd 8B4014   		movl	20(%eax), %eax	 # iqp_3(D)->q_wrptr, D.2937
 304 02d0 8A54241C 		movb	28(%esp), %dl	 # b, tmp101
 305 02d4 8810     		movb	%dl, (%eax)	 # tmp101, *D.2937_13
 306 02d6 8D5001   		leal	1(%eax), %edx	 #, D.2938
 307 02d9 8B442430 		movl	48(%esp), %eax	 # iqp, tmp102
 308 02dd 895014   		movl	%edx, 20(%eax)	 # D.2938, iqp_3(D)->q_wrptr
 309              		.loc 1 142 0
 310 02e0 8B442430 		movl	48(%esp), %eax	 # iqp, tmp103
 311 02e4 8B5014   		movl	20(%eax), %edx	 # iqp_3(D)->q_wrptr, D.2939
 312 02e7 8B442430 		movl	48(%esp), %eax	 # iqp, tmp104
 313 02eb 8B4010   		movl	16(%eax), %eax	 # iqp_3(D)->q_top, D.2940
 314 02ee 39C2     		cmpl	%eax, %edx	 # D.2940, D.2939
 315 02f0 722A     		jb	L13	 #,
 316              		.loc 1 143 0
 317 02f2 8B442430 		movl	48(%esp), %eax	 # iqp, tmp105
 318 02f6 8B500C   		movl	12(%eax), %edx	 # iqp_3(D)->q_buffer, D.2943
 319 02f9 8B442430 		movl	48(%esp), %eax	 # iqp, tmp106
 320 02fd 895014   		movl	%edx, 20(%eax)	 # D.2943, iqp_3(D)->q_wrptr
 321 0300 A1E00100 		movl	LPBX1+480, %eax	 # *LPBX1, PROF_edge_counter.9
 321      00
 322 0305 8B15E401 		movl	LPBX1+484, %edx	 # *LPBX1, PROF_edge_counter.9
 322      0000
 323 030b 83C001   		addl	$1, %eax	 #, PROF_edge_counter.9
 324 030e 83D200   		adcl	$0, %edx	 #, PROF_edge_counter.9
 325 0311 A3E00100 		movl	%eax, LPBX1+480	 # PROF_edge_counter.9, *LPBX1
 325      00
 326 0316 8915E401 		movl	%edx, LPBX1+484	 # PROF_edge_counter.9, *LPBX1
 326      0000
 327              	L13:
 328              		.loc 1 145 0
 329 031c 8B442430 		movl	48(%esp), %eax	 # iqp, tmp107
 330 0320 8B10     		movl	(%eax), %edx	 # iqp_3(D)->q_waiting.p_next, D.2944
GAS LISTING C:\cygwin\tmp\ccStazSd.s 			page 8


 331 0322 8B442430 		movl	48(%esp), %eax	 # iqp, D.2945
 332 0326 39C2     		cmpl	%eax, %edx	 # D.2945, D.2944
 333 0328 7471     		je	L14	 #,
 334 032a A1E80100 		movl	LPBX1+488, %eax	 # *LPBX1, PROF_edge_counter.9
 334      00
 335 032f 8B15EC01 		movl	LPBX1+492, %edx	 # *LPBX1, PROF_edge_counter.9
 335      0000
 336 0335 83C001   		addl	$1, %eax	 #, PROF_edge_counter.9
 337 0338 83D200   		adcl	$0, %edx	 #, PROF_edge_counter.9
 338 033b A3E80100 		movl	%eax, LPBX1+488	 # PROF_edge_counter.9, *LPBX1
 338      00
 339 0340 8915EC01 		movl	%edx, LPBX1+492	 # PROF_edge_counter.9, *LPBX1
 339      0000
 340              		.loc 1 146 0
 341 0346 8B442430 		movl	48(%esp), %eax	 # iqp, D.2948
 342 034a 890424   		movl	%eax, (%esp)	 # D.2948,
 343 034d E8000000 		call	_fifo_remove	 #
 343      00
 344 0352 89C1     		movl	%eax, %ecx	 #, D.2949
 345 0354 A1F00100 		movl	LPBX1+496, %eax	 # *LPBX1, PROF_edge_counter.9
 345      00
 346 0359 8B15F401 		movl	LPBX1+500, %edx	 # *LPBX1, PROF_edge_counter.9
 346      0000
 347 035f 83C001   		addl	$1, %eax	 #, PROF_edge_counter.9
 348 0362 83D200   		adcl	$0, %edx	 #, PROF_edge_counter.9
 349 0365 A3F00100 		movl	%eax, LPBX1+496	 # PROF_edge_counter.9, *LPBX1
 349      00
 350 036a 8915F401 		movl	%edx, LPBX1+500	 # PROF_edge_counter.9, *LPBX1
 350      0000
 351 0370 890C24   		movl	%ecx, (%esp)	 # D.2949,
 352 0373 E8000000 		call	_chSchReadyI	 #
 352      00
 353 0378 C7402400 		movl	$0, 36(%eax)	 #, D.2950_23->p_u.rdymsg
 353      000000
 354 037f A1F80100 		movl	LPBX1+504, %eax	 # *LPBX1, PROF_edge_counter.9
 354      00
 355 0384 8B15FC01 		movl	LPBX1+508, %edx	 # *LPBX1, PROF_edge_counter.9
 355      0000
 356 038a 83C001   		addl	$1, %eax	 #, PROF_edge_counter.9
 357 038d 83D200   		adcl	$0, %edx	 #, PROF_edge_counter.9
 358 0390 A3F80100 		movl	%eax, LPBX1+504	 # PROF_edge_counter.9, *LPBX1
 358      00
 359 0395 8915FC01 		movl	%edx, LPBX1+508	 # PROF_edge_counter.9, *LPBX1
 359      0000
 360              	L14:
 361              		.loc 1 148 0
 362 039b B9000000 		movl	$0, %ecx	 #, D.2934
 362      00
 363 03a0 A1000200 		movl	LPBX1+512, %eax	 # *LPBX1, PROF_edge_counter.9
 363      00
 364 03a5 8B150402 		movl	LPBX1+516, %edx	 # *LPBX1, PROF_edge_counter.9
 364      0000
 365 03ab 83C001   		addl	$1, %eax	 #, PROF_edge_counter.9
 366 03ae 83D200   		adcl	$0, %edx	 #, PROF_edge_counter.9
 367 03b1 A3000200 		movl	%eax, LPBX1+512	 # PROF_edge_counter.9, *LPBX1
 367      00
 368 03b6 89150402 		movl	%edx, LPBX1+516	 # PROF_edge_counter.9, *LPBX1
GAS LISTING C:\cygwin\tmp\ccStazSd.s 			page 9


 368      0000
 369              	L12:
 370 03bc 89C8     		movl	%ecx, %eax	 # D.2934, <retval>
 371              		.loc 1 149 0
 372 03be 83C42C   		addl	$44, %esp	 #,
 373              	LCFI7:
 374              		.cfi_def_cfa_offset 4
 375 03c1 C3       		ret
 376              		.cfi_endproc
 377              	LFE3:
 378              		.globl	_chIQGetTimeout
 379              		.def	_chIQGetTimeout;	.scl	2;	.type	32;	.endef
 380              	_chIQGetTimeout:
 381              	LFB4:
 382              		.loc 1 171 0
 383              		.cfi_startproc
 384 03c2 83EC2C   		subl	$44, %esp	 #,
 385              	LCFI8:
 386              		.cfi_def_cfa_offset 48
 387              		.loc 1 171 0
 388 03c5 A1780100 		movl	LPBX1+376, %eax	 # *LPBX1, PROF_edge_counter.8
 388      00
 389 03ca 8B157C01 		movl	LPBX1+380, %edx	 # *LPBX1, PROF_edge_counter.8
 389      0000
 390 03d0 83C001   		addl	$1, %eax	 #, PROF_edge_counter.8
 391 03d3 83D200   		adcl	$0, %edx	 #, PROF_edge_counter.8
 392 03d6 A3780100 		movl	%eax, LPBX1+376	 # PROF_edge_counter.8, *LPBX1
 392      00
 393 03db 89157C01 		movl	%edx, LPBX1+380	 # PROF_edge_counter.8, *LPBX1
 393      0000
 394              		.loc 1 174 0
 395              	/APP
 396              	 # 174 "../../os/kernel/src/chqueues.c" 1
 397 03e1 90       		nop
 398              	 # 0 "" 2
 399              	/NO_APP
 400 03e2 A1800100 		movl	LPBX1+384, %eax	 # *LPBX1, PROF_edge_counter.8
 400      00
 401 03e7 8B158401 		movl	LPBX1+388, %edx	 # *LPBX1, PROF_edge_counter.8
 401      0000
 402 03ed 83C001   		addl	$1, %eax	 #, PROF_edge_counter.8
 403 03f0 83D200   		adcl	$0, %edx	 #, PROF_edge_counter.8
 404 03f3 A3800100 		movl	%eax, LPBX1+384	 # PROF_edge_counter.8, *LPBX1
 404      00
 405 03f8 89158401 		movl	%edx, LPBX1+388	 # PROF_edge_counter.8, *LPBX1
 405      0000
 406              		.loc 1 175 0
 407 03fe 8B442430 		movl	48(%esp), %eax	 # iqp, tmp91
 408 0402 8B401C   		movl	28(%eax), %eax	 # iqp_2(D)->q_notify, D.2905
 409 0405 85C0     		testl	%eax, %eax	 # D.2905
 410 0407 0F84CA00 		je	L21	 #,
 410      0000
 411 040d A1880100 		movl	LPBX1+392, %eax	 # *LPBX1, PROF_edge_counter.8
 411      00
 412 0412 8B158C01 		movl	LPBX1+396, %edx	 # *LPBX1, PROF_edge_counter.8
 412      0000
 413 0418 83C001   		addl	$1, %eax	 #, PROF_edge_counter.8
GAS LISTING C:\cygwin\tmp\ccStazSd.s 			page 10


 414 041b 83D200   		adcl	$0, %edx	 #, PROF_edge_counter.8
 415 041e A3880100 		movl	%eax, LPBX1+392	 # PROF_edge_counter.8, *LPBX1
 415      00
 416 0423 89158C01 		movl	%edx, LPBX1+396	 # PROF_edge_counter.8, *LPBX1
 416      0000
 417              		.loc 1 176 0
 418 0429 8B442430 		movl	48(%esp), %eax	 # iqp, tmp92
 419 042d 8B501C   		movl	28(%eax), %edx	 # iqp_2(D)->q_notify, D.2908
 420 0430 8B442430 		movl	48(%esp), %eax	 # iqp, tmp93
 421 0434 890424   		movl	%eax, (%esp)	 # tmp93,
 422 0437 FFD2     		call	*%edx	 # D.2908
 423              		.loc 1 178 0
 424 0439 E9990000 		jmp	L21	 #
 424      00
 425              	L19:
 426 043e A1A80100 		movl	LPBX1+424, %eax	 # *LPBX1, PROF_edge_counter.8
 426      00
 427 0443 8B15AC01 		movl	LPBX1+428, %edx	 # *LPBX1, PROF_edge_counter.8
 427      0000
 428 0449 83C001   		addl	$1, %eax	 #, PROF_edge_counter.8
 429 044c 83D200   		adcl	$0, %edx	 #, PROF_edge_counter.8
 430 044f A3A80100 		movl	%eax, LPBX1+424	 # PROF_edge_counter.8, *LPBX1
 430      00
 431 0454 8915AC01 		movl	%edx, LPBX1+428	 # PROF_edge_counter.8, *LPBX1
 431      0000
 432              	LBB2:
 433              		.loc 1 180 0
 434 045a 8B442434 		movl	52(%esp), %eax	 # time, tmp94
 435 045e 89442404 		movl	%eax, 4(%esp)	 # tmp94,
 436 0462 8B442430 		movl	48(%esp), %eax	 # iqp, tmp95
 437 0466 890424   		movl	%eax, (%esp)	 # tmp95,
 438 0469 E892FBFF 		call	_qwait	 #
 438      FF
 439 046e 8944241C 		movl	%eax, 28(%esp)	 # tmp96, msg
 440 0472 A1900100 		movl	LPBX1+400, %eax	 # *LPBX1, PROF_edge_counter.8
 440      00
 441 0477 8B159401 		movl	LPBX1+404, %edx	 # *LPBX1, PROF_edge_counter.8
 441      0000
 442 047d 83C001   		addl	$1, %eax	 #, PROF_edge_counter.8
 443 0480 83D200   		adcl	$0, %edx	 #, PROF_edge_counter.8
 444 0483 A3900100 		movl	%eax, LPBX1+400	 # PROF_edge_counter.8, *LPBX1
 444      00
 445 0488 89159401 		movl	%edx, LPBX1+404	 # PROF_edge_counter.8, *LPBX1
 445      0000
 446 048e 837C241C 		cmpl	$0, 28(%esp)	 #, msg
 446      00
 447 0493 7943     		jns	L17	 #,
 448 0495 A1980100 		movl	LPBX1+408, %eax	 # *LPBX1, PROF_edge_counter.8
 448      00
 449 049a 8B159C01 		movl	LPBX1+412, %edx	 # *LPBX1, PROF_edge_counter.8
 449      0000
 450 04a0 83C001   		addl	$1, %eax	 #, PROF_edge_counter.8
 451 04a3 83D200   		adcl	$0, %edx	 #, PROF_edge_counter.8
 452 04a6 A3980100 		movl	%eax, LPBX1+408	 # PROF_edge_counter.8, *LPBX1
 452      00
 453 04ab 89159C01 		movl	%edx, LPBX1+412	 # PROF_edge_counter.8, *LPBX1
 453      0000
GAS LISTING C:\cygwin\tmp\ccStazSd.s 			page 11


 454              		.loc 1 181 0
 455              	/APP
 456              	 # 181 "../../os/kernel/src/chqueues.c" 1
 457 04b1 90       		nop
 458              	 # 0 "" 2
 459              		.loc 1 182 0
 460              	/NO_APP
 461 04b2 8B4C241C 		movl	28(%esp), %ecx	 # msg, D.2911
 462 04b6 A1A00100 		movl	LPBX1+416, %eax	 # *LPBX1, PROF_edge_counter.8
 462      00
 463 04bb 8B15A401 		movl	LPBX1+420, %edx	 # *LPBX1, PROF_edge_counter.8
 463      0000
 464 04c1 83C001   		addl	$1, %eax	 #, PROF_edge_counter.8
 465 04c4 83D200   		adcl	$0, %edx	 #, PROF_edge_counter.8
 466 04c7 A3A00100 		movl	%eax, LPBX1+416	 # PROF_edge_counter.8, *LPBX1
 466      00
 467 04cc 8915A401 		movl	%edx, LPBX1+420	 # PROF_edge_counter.8, *LPBX1
 467      0000
 468 04d2 E9B20000 		jmp	L18	 #
 468      00
 469              	L21:
 470              	LBE2:
 471              		.loc 1 178 0
 472 04d7 90       		nop
 473              	L17:
 474              		.loc 1 178 0 is_stmt 0 discriminator 1
 475 04d8 8B442430 		movl	48(%esp), %eax	 # iqp, tmp97
 476 04dc 8B4008   		movl	8(%eax), %eax	 # iqp_2(D)->q_counter, D.2912
 477 04df 85C0     		testl	%eax, %eax	 # D.2912
 478 04e1 0F8457FF 		je	L19	 #,
 478      FFFF
 479              		.loc 1 178 0
 480 04e7 A1B00100 		movl	LPBX1+432, %eax	 # *LPBX1, PROF_edge_counter.8
 480      00
 481 04ec 8B15B401 		movl	LPBX1+436, %edx	 # *LPBX1, PROF_edge_counter.8
 481      0000
 482 04f2 83C001   		addl	$1, %eax	 #, PROF_edge_counter.8
 483 04f5 83D200   		adcl	$0, %edx	 #, PROF_edge_counter.8
 484 04f8 A3B00100 		movl	%eax, LPBX1+432	 # PROF_edge_counter.8, *LPBX1
 484      00
 485 04fd 8915B401 		movl	%edx, LPBX1+436	 # PROF_edge_counter.8, *LPBX1
 485      0000
 486              		.loc 1 186 0 is_stmt 1
 487 0503 8B442430 		movl	48(%esp), %eax	 # iqp, tmp98
 488 0507 8B4008   		movl	8(%eax), %eax	 # iqp_2(D)->q_counter, D.2913
 489 050a 8D50FF   		leal	-1(%eax), %edx	 #, D.2914
 490 050d 8B442430 		movl	48(%esp), %eax	 # iqp, tmp99
 491 0511 895008   		movl	%edx, 8(%eax)	 # D.2914, iqp_2(D)->q_counter
 492              		.loc 1 187 0
 493 0514 8B442430 		movl	48(%esp), %eax	 # iqp, tmp100
 494 0518 8B4018   		movl	24(%eax), %eax	 # iqp_2(D)->q_rdptr, D.2915
 495 051b 8A10     		movb	(%eax), %dl	 # *D.2915_11, tmp101
 496 051d 8854241B 		movb	%dl, 27(%esp)	 # tmp101, b
 497 0521 8D5001   		leal	1(%eax), %edx	 #, D.2916
 498 0524 8B442430 		movl	48(%esp), %eax	 # iqp, tmp102
 499 0528 895018   		movl	%edx, 24(%eax)	 # D.2916, iqp_2(D)->q_rdptr
 500              		.loc 1 188 0
GAS LISTING C:\cygwin\tmp\ccStazSd.s 			page 12


 501 052b 8B442430 		movl	48(%esp), %eax	 # iqp, tmp103
 502 052f 8B5018   		movl	24(%eax), %edx	 # iqp_2(D)->q_rdptr, D.2917
 503 0532 8B442430 		movl	48(%esp), %eax	 # iqp, tmp104
 504 0536 8B4010   		movl	16(%eax), %eax	 # iqp_2(D)->q_top, D.2918
 505 0539 39C2     		cmpl	%eax, %edx	 # D.2918, D.2917
 506 053b 722A     		jb	L20	 #,
 507              		.loc 1 189 0
 508 053d 8B442430 		movl	48(%esp), %eax	 # iqp, tmp105
 509 0541 8B500C   		movl	12(%eax), %edx	 # iqp_2(D)->q_buffer, D.2921
 510 0544 8B442430 		movl	48(%esp), %eax	 # iqp, tmp106
 511 0548 895018   		movl	%edx, 24(%eax)	 # D.2921, iqp_2(D)->q_rdptr
 512 054b A1B80100 		movl	LPBX1+440, %eax	 # *LPBX1, PROF_edge_counter.8
 512      00
 513 0550 8B15BC01 		movl	LPBX1+444, %edx	 # *LPBX1, PROF_edge_counter.8
 513      0000
 514 0556 83C001   		addl	$1, %eax	 #, PROF_edge_counter.8
 515 0559 83D200   		adcl	$0, %edx	 #, PROF_edge_counter.8
 516 055c A3B80100 		movl	%eax, LPBX1+440	 # PROF_edge_counter.8, *LPBX1
 516      00
 517 0561 8915BC01 		movl	%edx, LPBX1+444	 # PROF_edge_counter.8, *LPBX1
 517      0000
 518              	L20:
 519              		.loc 1 191 0
 520              	/APP
 521              	 # 191 "../../os/kernel/src/chqueues.c" 1
 522 0567 90       		nop
 523              	 # 0 "" 2
 524              		.loc 1 192 0
 525              	/NO_APP
 526 0568 0FB64C24 		movzbl	27(%esp), %ecx	 # b, D.2911
 526      1B
 527 056d A1C00100 		movl	LPBX1+448, %eax	 # *LPBX1, PROF_edge_counter.8
 527      00
 528 0572 8B15C401 		movl	LPBX1+452, %edx	 # *LPBX1, PROF_edge_counter.8
 528      0000
 529 0578 83C001   		addl	$1, %eax	 #, PROF_edge_counter.8
 530 057b 83D200   		adcl	$0, %edx	 #, PROF_edge_counter.8
 531 057e A3C00100 		movl	%eax, LPBX1+448	 # PROF_edge_counter.8, *LPBX1
 531      00
 532 0583 8915C401 		movl	%edx, LPBX1+452	 # PROF_edge_counter.8, *LPBX1
 532      0000
 533              	L18:
 534 0589 89C8     		movl	%ecx, %eax	 # D.2911, <retval>
 535              		.loc 1 193 0
 536 058b 83C42C   		addl	$44, %esp	 #,
 537              	LCFI9:
 538              		.cfi_def_cfa_offset 4
 539 058e C3       		ret
 540              		.cfi_endproc
 541              	LFE4:
 542              		.globl	_chIQReadTimeout
 543              		.def	_chIQReadTimeout;	.scl	2;	.type	32;	.endef
 544              	_chIQReadTimeout:
 545              	LFB5:
 546              		.loc 1 220 0
 547              		.cfi_startproc
 548 058f 83EC2C   		subl	$44, %esp	 #,
GAS LISTING C:\cygwin\tmp\ccStazSd.s 			page 13


 549              	LCFI10:
 550              		.cfi_def_cfa_offset 48
 551              		.loc 1 220 0
 552 0592 A1180100 		movl	LPBX1+280, %eax	 # *LPBX1, PROF_edge_counter.7
 552      00
 553 0597 8B151C01 		movl	LPBX1+284, %edx	 # *LPBX1, PROF_edge_counter.7
 553      0000
 554 059d 83C001   		addl	$1, %eax	 #, PROF_edge_counter.7
 555 05a0 83D200   		adcl	$0, %edx	 #, PROF_edge_counter.7
 556 05a3 A3180100 		movl	%eax, LPBX1+280	 # PROF_edge_counter.7, *LPBX1
 556      00
 557 05a8 89151C01 		movl	%edx, LPBX1+284	 # PROF_edge_counter.7, *LPBX1
 557      0000
 558              		.loc 1 221 0
 559 05ae 8B442430 		movl	48(%esp), %eax	 # iqp, tmp95
 560 05b2 8B401C   		movl	28(%eax), %eax	 # iqp_5(D)->q_notify, tmp96
 561 05b5 89442418 		movl	%eax, 24(%esp)	 # tmp96, nfy
 562              		.loc 1 222 0
 563 05b9 C744241C 		movl	$0, 28(%esp)	 #, r
 563      00000000 
 564              		.loc 1 226 0
 565              	/APP
 566              	 # 226 "../../os/kernel/src/chqueues.c" 1
 567 05c1 90       		nop
 568              	 # 0 "" 2
 569              	/NO_APP
 570              	L29:
 571              		.loc 1 228 0
 572 05c2 837C2418 		cmpl	$0, 24(%esp)	 #, nfy
 572      00
 573 05c7 0F84DE00 		je	L30	 #,
 573      0000
 574 05cd A1200100 		movl	LPBX1+288, %eax	 # *LPBX1, PROF_edge_counter.7
 574      00
 575 05d2 8B152401 		movl	LPBX1+292, %edx	 # *LPBX1, PROF_edge_counter.7
 575      0000
 576 05d8 83C001   		addl	$1, %eax	 #, PROF_edge_counter.7
 577 05db 83D200   		adcl	$0, %edx	 #, PROF_edge_counter.7
 578 05de A3200100 		movl	%eax, LPBX1+288	 # PROF_edge_counter.7, *LPBX1
 578      00
 579 05e3 89152401 		movl	%edx, LPBX1+292	 # PROF_edge_counter.7, *LPBX1
 579      0000
 580              		.loc 1 229 0
 581 05e9 8B442430 		movl	48(%esp), %eax	 # iqp, tmp97
 582 05ed 890424   		movl	%eax, (%esp)	 # tmp97,
 583 05f0 8B442418 		movl	24(%esp), %eax	 # nfy, tmp98
 584 05f4 FFD0     		call	*%eax	 # tmp98
 585 05f6 A1280100 		movl	LPBX1+296, %eax	 # *LPBX1, PROF_edge_counter.7
 585      00
 586 05fb 8B152C01 		movl	LPBX1+300, %edx	 # *LPBX1, PROF_edge_counter.7
 586      0000
 587 0601 83C001   		addl	$1, %eax	 #, PROF_edge_counter.7
 588 0604 83D200   		adcl	$0, %edx	 #, PROF_edge_counter.7
 589 0607 A3280100 		movl	%eax, LPBX1+296	 # PROF_edge_counter.7, *LPBX1
 589      00
 590 060c 89152C01 		movl	%edx, LPBX1+300	 # PROF_edge_counter.7, *LPBX1
 590      0000
GAS LISTING C:\cygwin\tmp\ccStazSd.s 			page 14


 591              		.loc 1 231 0
 592 0612 E9940000 		jmp	L30	 #
 592      00
 593              	L26:
 594 0617 A1480100 		movl	LPBX1+328, %eax	 # *LPBX1, PROF_edge_counter.7
 594      00
 595 061c 8B154C01 		movl	LPBX1+332, %edx	 # *LPBX1, PROF_edge_counter.7
 595      0000
 596 0622 83C001   		addl	$1, %eax	 #, PROF_edge_counter.7
 597 0625 83D200   		adcl	$0, %edx	 #, PROF_edge_counter.7
 598 0628 A3480100 		movl	%eax, LPBX1+328	 # PROF_edge_counter.7, *LPBX1
 598      00
 599 062d 89154C01 		movl	%edx, LPBX1+332	 # PROF_edge_counter.7, *LPBX1
 599      0000
 600              		.loc 1 232 0
 601 0633 8B44243C 		movl	60(%esp), %eax	 # time, tmp99
 602 0637 89442404 		movl	%eax, 4(%esp)	 # tmp99,
 603 063b 8B442430 		movl	48(%esp), %eax	 # iqp, tmp100
 604 063f 890424   		movl	%eax, (%esp)	 # tmp100,
 605 0642 E8B9F9FF 		call	_qwait	 #
 605      FF
 606 0647 89C1     		movl	%eax, %ecx	 #, D.2887
 607 0649 A1300100 		movl	LPBX1+304, %eax	 # *LPBX1, PROF_edge_counter.7
 607      00
 608 064e 8B153401 		movl	LPBX1+308, %edx	 # *LPBX1, PROF_edge_counter.7
 608      0000
 609 0654 83C001   		addl	$1, %eax	 #, PROF_edge_counter.7
 610 0657 83D200   		adcl	$0, %edx	 #, PROF_edge_counter.7
 611 065a A3300100 		movl	%eax, LPBX1+304	 # PROF_edge_counter.7, *LPBX1
 611      00
 612 065f 89153401 		movl	%edx, LPBX1+308	 # PROF_edge_counter.7, *LPBX1
 612      0000
 613 0665 85C9     		testl	%ecx, %ecx	 # D.2887
 614 0667 7443     		je	L24	 #,
 615 0669 A1380100 		movl	LPBX1+312, %eax	 # *LPBX1, PROF_edge_counter.7
 615      00
 616 066e 8B153C01 		movl	LPBX1+316, %edx	 # *LPBX1, PROF_edge_counter.7
 616      0000
 617 0674 83C001   		addl	$1, %eax	 #, PROF_edge_counter.7
 618 0677 83D200   		adcl	$0, %edx	 #, PROF_edge_counter.7
 619 067a A3380100 		movl	%eax, LPBX1+312	 # PROF_edge_counter.7, *LPBX1
 619      00
 620 067f 89153C01 		movl	%edx, LPBX1+316	 # PROF_edge_counter.7, *LPBX1
 620      0000
 621              		.loc 1 233 0
 622              	/APP
 623              	 # 233 "../../os/kernel/src/chqueues.c" 1
 624 0685 90       		nop
 625              	 # 0 "" 2
 626              		.loc 1 234 0
 627              	/NO_APP
 628 0686 8B4C241C 		movl	28(%esp), %ecx	 # r, D.2890
 629 068a A1400100 		movl	LPBX1+320, %eax	 # *LPBX1, PROF_edge_counter.7
 629      00
 630 068f 8B154401 		movl	LPBX1+324, %edx	 # *LPBX1, PROF_edge_counter.7
 630      0000
 631 0695 83C001   		addl	$1, %eax	 #, PROF_edge_counter.7
GAS LISTING C:\cygwin\tmp\ccStazSd.s 			page 15


 632 0698 83D200   		adcl	$0, %edx	 #, PROF_edge_counter.7
 633 069b A3400100 		movl	%eax, LPBX1+320	 # PROF_edge_counter.7, *LPBX1
 633      00
 634 06a0 89154401 		movl	%edx, LPBX1+324	 # PROF_edge_counter.7, *LPBX1
 634      0000
 635 06a6 E9060100 		jmp	L25	 #
 635      00
 636              	L30:
 637              		.loc 1 231 0
 638 06ab 90       		nop
 639              	L24:
 640              		.loc 1 231 0 is_stmt 0 discriminator 1
 641 06ac 8B442430 		movl	48(%esp), %eax	 # iqp, tmp101
 642 06b0 8B4008   		movl	8(%eax), %eax	 # iqp_5(D)->q_counter, D.2891
 643 06b3 85C0     		testl	%eax, %eax	 # D.2891
 644 06b5 0F845CFF 		je	L26	 #,
 644      FFFF
 645              		.loc 1 231 0
 646 06bb A1500100 		movl	LPBX1+336, %eax	 # *LPBX1, PROF_edge_counter.7
 646      00
 647 06c0 8B155401 		movl	LPBX1+340, %edx	 # *LPBX1, PROF_edge_counter.7
 647      0000
 648 06c6 83C001   		addl	$1, %eax	 #, PROF_edge_counter.7
 649 06c9 83D200   		adcl	$0, %edx	 #, PROF_edge_counter.7
 650 06cc A3500100 		movl	%eax, LPBX1+336	 # PROF_edge_counter.7, *LPBX1
 650      00
 651 06d1 89155401 		movl	%edx, LPBX1+340	 # PROF_edge_counter.7, *LPBX1
 651      0000
 652              		.loc 1 238 0 is_stmt 1
 653 06d7 8B442430 		movl	48(%esp), %eax	 # iqp, tmp102
 654 06db 8B4008   		movl	8(%eax), %eax	 # iqp_5(D)->q_counter, D.2892
 655 06de 8D50FF   		leal	-1(%eax), %edx	 #, D.2893
 656 06e1 8B442430 		movl	48(%esp), %eax	 # iqp, tmp103
 657 06e5 895008   		movl	%edx, 8(%eax)	 # D.2893, iqp_5(D)->q_counter
 658              		.loc 1 239 0
 659 06e8 8B442430 		movl	48(%esp), %eax	 # iqp, tmp104
 660 06ec 8B4018   		movl	24(%eax), %eax	 # iqp_5(D)->q_rdptr, D.2894
 661 06ef 8A08     		movb	(%eax), %cl	 # *D.2894_16, D.2896
 662 06f1 8B542434 		movl	52(%esp), %edx	 # bp, tmp105
 663 06f5 880A     		movb	%cl, (%edx)	 # D.2896, *bp_1
 664 06f7 FF442434 		incl	52(%esp)	 # bp
 665 06fb 8D5001   		leal	1(%eax), %edx	 #, D.2895
 666 06fe 8B442430 		movl	48(%esp), %eax	 # iqp, tmp106
 667 0702 895018   		movl	%edx, 24(%eax)	 # D.2895, iqp_5(D)->q_rdptr
 668              		.loc 1 240 0
 669 0705 8B442430 		movl	48(%esp), %eax	 # iqp, tmp107
 670 0709 8B5018   		movl	24(%eax), %edx	 # iqp_5(D)->q_rdptr, D.2897
 671 070c 8B442430 		movl	48(%esp), %eax	 # iqp, tmp108
 672 0710 8B4010   		movl	16(%eax), %eax	 # iqp_5(D)->q_top, D.2898
 673 0713 39C2     		cmpl	%eax, %edx	 # D.2898, D.2897
 674 0715 722A     		jb	L27	 #,
 675              		.loc 1 241 0
 676 0717 8B442430 		movl	48(%esp), %eax	 # iqp, tmp109
 677 071b 8B500C   		movl	12(%eax), %edx	 # iqp_5(D)->q_buffer, D.2901
 678 071e 8B442430 		movl	48(%esp), %eax	 # iqp, tmp110
 679 0722 895018   		movl	%edx, 24(%eax)	 # D.2901, iqp_5(D)->q_rdptr
 680 0725 A1580100 		movl	LPBX1+344, %eax	 # *LPBX1, PROF_edge_counter.7
GAS LISTING C:\cygwin\tmp\ccStazSd.s 			page 16


 680      00
 681 072a 8B155C01 		movl	LPBX1+348, %edx	 # *LPBX1, PROF_edge_counter.7
 681      0000
 682 0730 83C001   		addl	$1, %eax	 #, PROF_edge_counter.7
 683 0733 83D200   		adcl	$0, %edx	 #, PROF_edge_counter.7
 684 0736 A3580100 		movl	%eax, LPBX1+344	 # PROF_edge_counter.7, *LPBX1
 684      00
 685 073b 89155C01 		movl	%edx, LPBX1+348	 # PROF_edge_counter.7, *LPBX1
 685      0000
 686              	L27:
 687              		.loc 1 243 0
 688              	/APP
 689              	 # 243 "../../os/kernel/src/chqueues.c" 1
 690 0741 90       		nop
 691              	 # 0 "" 2
 692              		.loc 1 244 0
 693              	/NO_APP
 694 0742 FF44241C 		incl	28(%esp)	 # r
 695              		.loc 1 245 0
 696 0746 FF4C2438 		decl	56(%esp)	 # n
 697 074a 837C2438 		cmpl	$0, 56(%esp)	 #, n
 697      00
 698 074f 7522     		jne	L28	 #,
 699              		.loc 1 246 0
 700 0751 8B4C241C 		movl	28(%esp), %ecx	 # r, D.2890
 701 0755 A1680100 		movl	LPBX1+360, %eax	 # *LPBX1, PROF_edge_counter.7
 701      00
 702 075a 8B156C01 		movl	LPBX1+364, %edx	 # *LPBX1, PROF_edge_counter.7
 702      0000
 703 0760 83C001   		addl	$1, %eax	 #, PROF_edge_counter.7
 704 0763 83D200   		adcl	$0, %edx	 #, PROF_edge_counter.7
 705 0766 A3680100 		movl	%eax, LPBX1+360	 # PROF_edge_counter.7, *LPBX1
 705      00
 706 076b 89156C01 		movl	%edx, LPBX1+364	 # PROF_edge_counter.7, *LPBX1
 706      0000
 707 0771 EB3E     		jmp	L25	 #
 708              	L28:
 709 0773 A1600100 		movl	LPBX1+352, %eax	 # *LPBX1, PROF_edge_counter.7
 709      00
 710 0778 8B156401 		movl	LPBX1+356, %edx	 # *LPBX1, PROF_edge_counter.7
 710      0000
 711 077e 83C001   		addl	$1, %eax	 #, PROF_edge_counter.7
 712 0781 83D200   		adcl	$0, %edx	 #, PROF_edge_counter.7
 713 0784 A3600100 		movl	%eax, LPBX1+352	 # PROF_edge_counter.7, *LPBX1
 713      00
 714 0789 89156401 		movl	%edx, LPBX1+356	 # PROF_edge_counter.7, *LPBX1
 714      0000
 715              		.loc 1 248 0
 716              	/APP
 717              	 # 248 "../../os/kernel/src/chqueues.c" 1
 718 078f 90       		nop
 719              	 # 0 "" 2
 720              		.loc 1 249 0
 721              	/NO_APP
 722 0790 A1700100 		movl	LPBX1+368, %eax	 # *LPBX1, PROF_edge_counter.7
 722      00
 723 0795 8B157401 		movl	LPBX1+372, %edx	 # *LPBX1, PROF_edge_counter.7
GAS LISTING C:\cygwin\tmp\ccStazSd.s 			page 17


 723      0000
 724 079b 83C001   		addl	$1, %eax	 #, PROF_edge_counter.7
 725 079e 83D200   		adcl	$0, %edx	 #, PROF_edge_counter.7
 726 07a1 A3700100 		movl	%eax, LPBX1+368	 # PROF_edge_counter.7, *LPBX1
 726      00
 727 07a6 89157401 		movl	%edx, LPBX1+372	 # PROF_edge_counter.7, *LPBX1
 727      0000
 728 07ac E911FEFF 		jmp	L29	 #
 728      FF
 729              	L25:
 730 07b1 89C8     		movl	%ecx, %eax	 # D.2890, <retval>
 731              		.loc 1 250 0
 732 07b3 83C42C   		addl	$44, %esp	 #,
 733              	LCFI11:
 734              		.cfi_def_cfa_offset 4
 735 07b6 C3       		ret
 736              		.cfi_endproc
 737              	LFE5:
 738              		.globl	_chOQInit
 739              		.def	_chOQInit;	.scl	2;	.type	32;	.endef
 740              	_chOQInit:
 741              	LFB6:
 742              		.loc 1 269 0
 743              		.cfi_startproc
 744 07b7 83EC04   		subl	$4, %esp	 #,
 745              	LCFI12:
 746              		.cfi_def_cfa_offset 8
 747              		.loc 1 269 0
 748 07ba A1100100 		movl	LPBX1+272, %eax	 # *LPBX1, PROF_edge_counter.6
 748      00
 749 07bf 8B151401 		movl	LPBX1+276, %edx	 # *LPBX1, PROF_edge_counter.6
 749      0000
 750 07c5 83C001   		addl	$1, %eax	 #, PROF_edge_counter.6
 751 07c8 83D200   		adcl	$0, %edx	 #, PROF_edge_counter.6
 752 07cb A3100100 		movl	%eax, LPBX1+272	 # PROF_edge_counter.6, *LPBX1
 752      00
 753 07d0 89151401 		movl	%edx, LPBX1+276	 # PROF_edge_counter.6, *LPBX1
 753      0000
 754              		.loc 1 271 0
 755 07d6 8B542408 		movl	8(%esp), %edx	 # oqp, D.2877
 756 07da 8B442408 		movl	8(%esp), %eax	 # oqp, tmp66
 757 07de 895004   		movl	%edx, 4(%eax)	 # D.2877, oqp_1(D)->q_waiting.p_prev
 758 07e1 8B442408 		movl	8(%esp), %eax	 # oqp, tmp67
 759 07e5 8B5004   		movl	4(%eax), %edx	 # oqp_1(D)->q_waiting.p_prev, D.2878
 760 07e8 8B442408 		movl	8(%esp), %eax	 # oqp, tmp68
 761 07ec 8910     		movl	%edx, (%eax)	 # D.2878, oqp_1(D)->q_waiting.p_next
 762              		.loc 1 272 0
 763 07ee 8B442408 		movl	8(%esp), %eax	 # oqp, tmp69
 764 07f2 8B542410 		movl	16(%esp), %edx	 # size, tmp70
 765 07f6 895008   		movl	%edx, 8(%eax)	 # tmp70, oqp_1(D)->q_counter
 766              		.loc 1 273 0
 767 07f9 8B442408 		movl	8(%esp), %eax	 # oqp, tmp71
 768 07fd 8B54240C 		movl	12(%esp), %edx	 # bp, tmp72
 769 0801 895014   		movl	%edx, 20(%eax)	 # tmp72, oqp_1(D)->q_wrptr
 770 0804 8B442408 		movl	8(%esp), %eax	 # oqp, tmp73
 771 0808 8B5014   		movl	20(%eax), %edx	 # oqp_1(D)->q_wrptr, D.2879
 772 080b 8B442408 		movl	8(%esp), %eax	 # oqp, tmp74
GAS LISTING C:\cygwin\tmp\ccStazSd.s 			page 18


 773 080f 895018   		movl	%edx, 24(%eax)	 # D.2879, oqp_1(D)->q_rdptr
 774 0812 8B442408 		movl	8(%esp), %eax	 # oqp, tmp75
 775 0816 8B5018   		movl	24(%eax), %edx	 # oqp_1(D)->q_rdptr, D.2880
 776 0819 8B442408 		movl	8(%esp), %eax	 # oqp, tmp76
 777 081d 89500C   		movl	%edx, 12(%eax)	 # D.2880, oqp_1(D)->q_buffer
 778              		.loc 1 274 0
 779 0820 8B442410 		movl	16(%esp), %eax	 # size, tmp77
 780 0824 8B54240C 		movl	12(%esp), %edx	 # bp, tmp78
 781 0828 01C2     		addl	%eax, %edx	 # tmp77, D.2881
 782 082a 8B442408 		movl	8(%esp), %eax	 # oqp, tmp79
 783 082e 895010   		movl	%edx, 16(%eax)	 # D.2881, oqp_1(D)->q_top
 784              		.loc 1 275 0
 785 0831 8B442408 		movl	8(%esp), %eax	 # oqp, tmp80
 786 0835 8B542414 		movl	20(%esp), %edx	 # onfy, tmp81
 787 0839 89501C   		movl	%edx, 28(%eax)	 # tmp81, oqp_1(D)->q_notify
 788              		.loc 1 276 0
 789 083c 8B442408 		movl	8(%esp), %eax	 # oqp, tmp82
 790 0840 8B542418 		movl	24(%esp), %edx	 # link, tmp83
 791 0844 895020   		movl	%edx, 32(%eax)	 # tmp83, oqp_1(D)->q_link
 792              		.loc 1 277 0
 793 0847 83C404   		addl	$4, %esp	 #,
 794              	LCFI13:
 795              		.cfi_def_cfa_offset 4
 796 084a C3       		ret
 797              		.cfi_endproc
 798              	LFE6:
 799              		.globl	_chOQResetI
 800              		.def	_chOQResetI;	.scl	2;	.type	32;	.endef
 801              	_chOQResetI:
 802              	LFB7:
 803              		.loc 1 290 0
 804              		.cfi_startproc
 805 084b 83EC1C   		subl	$28, %esp	 #,
 806              	LCFI14:
 807              		.cfi_def_cfa_offset 32
 808              		.loc 1 294 0
 809 084e 8B442420 		movl	32(%esp), %eax	 # oqp, tmp80
 810 0852 8B500C   		movl	12(%eax), %edx	 # oqp_1(D)->q_buffer, D.2864
 811 0855 8B442420 		movl	32(%esp), %eax	 # oqp, tmp81
 812 0859 895014   		movl	%edx, 20(%eax)	 # D.2864, oqp_1(D)->q_wrptr
 813 085c 8B442420 		movl	32(%esp), %eax	 # oqp, tmp82
 814 0860 8B5014   		movl	20(%eax), %edx	 # oqp_1(D)->q_wrptr, D.2865
 815 0863 8B442420 		movl	32(%esp), %eax	 # oqp, tmp83
 816 0867 895018   		movl	%edx, 24(%eax)	 # D.2865, oqp_1(D)->q_rdptr
 817              		.loc 1 295 0
 818 086a 8B442420 		movl	32(%esp), %eax	 # oqp, tmp84
 819 086e 8B4010   		movl	16(%eax), %eax	 # oqp_1(D)->q_top, D.2866
 820 0871 89C2     		movl	%eax, %edx	 # D.2866, D.2867
 821 0873 8B442420 		movl	32(%esp), %eax	 # oqp, tmp85
 822 0877 8B400C   		movl	12(%eax), %eax	 # oqp_1(D)->q_buffer, D.2868
 823 087a 89D1     		movl	%edx, %ecx	 # D.2867,
 824 087c 29C1     		subl	%eax, %ecx	 # D.2869,
 825 087e 89C8     		movl	%ecx, %eax	 #, D.2870
 826 0880 89C2     		movl	%eax, %edx	 # D.2870, D.2871
 827 0882 8B442420 		movl	32(%esp), %eax	 # oqp, tmp86
 828 0886 895008   		movl	%edx, 8(%eax)	 # D.2871, oqp_1(D)->q_counter
 829              		.loc 1 296 0
GAS LISTING C:\cygwin\tmp\ccStazSd.s 			page 19


 830 0889 EB71     		jmp	L33	 #
 831              	L34:
 832 088b A1000100 		movl	LPBX1+256, %eax	 # *LPBX1, PROF_edge_counter.5
 832      00
 833 0890 8B150401 		movl	LPBX1+260, %edx	 # *LPBX1, PROF_edge_counter.5
 833      0000
 834 0896 83C001   		addl	$1, %eax	 #, PROF_edge_counter.5
 835 0899 83D200   		adcl	$0, %edx	 #, PROF_edge_counter.5
 836 089c A3000100 		movl	%eax, LPBX1+256	 # PROF_edge_counter.5, *LPBX1
 836      00
 837 08a1 89150401 		movl	%edx, LPBX1+260	 # PROF_edge_counter.5, *LPBX1
 837      0000
 838              		.loc 1 297 0
 839 08a7 8B442420 		movl	32(%esp), %eax	 # oqp, D.2872
 840 08ab 890424   		movl	%eax, (%esp)	 # D.2872,
 841 08ae E8000000 		call	_fifo_remove	 #
 841      00
 842 08b3 89C1     		movl	%eax, %ecx	 #, D.2873
 843 08b5 A1F00000 		movl	LPBX1+240, %eax	 # *LPBX1, PROF_edge_counter.5
 843      00
 844 08ba 8B15F400 		movl	LPBX1+244, %edx	 # *LPBX1, PROF_edge_counter.5
 844      0000
 845 08c0 83C001   		addl	$1, %eax	 #, PROF_edge_counter.5
 846 08c3 83D200   		adcl	$0, %edx	 #, PROF_edge_counter.5
 847 08c6 A3F00000 		movl	%eax, LPBX1+240	 # PROF_edge_counter.5, *LPBX1
 847      00
 848 08cb 8915F400 		movl	%edx, LPBX1+244	 # PROF_edge_counter.5, *LPBX1
 848      0000
 849 08d1 890C24   		movl	%ecx, (%esp)	 # D.2873,
 850 08d4 E8000000 		call	_chSchReadyI	 #
 850      00
 851 08d9 C74024FE 		movl	$-2, 36(%eax)	 #, D.2874_14->p_u.rdymsg
 851      FFFFFF
 852 08e0 A1F80000 		movl	LPBX1+248, %eax	 # *LPBX1, PROF_edge_counter.5
 852      00
 853 08e5 8B15FC00 		movl	LPBX1+252, %edx	 # *LPBX1, PROF_edge_counter.5
 853      0000
 854 08eb 83C001   		addl	$1, %eax	 #, PROF_edge_counter.5
 855 08ee 83D200   		adcl	$0, %edx	 #, PROF_edge_counter.5
 856 08f1 A3F80000 		movl	%eax, LPBX1+248	 # PROF_edge_counter.5, *LPBX1
 856      00
 857 08f6 8915FC00 		movl	%edx, LPBX1+252	 # PROF_edge_counter.5, *LPBX1
 857      0000
 858              	L33:
 859              		.loc 1 296 0 discriminator 1
 860 08fc 8B442420 		movl	32(%esp), %eax	 # oqp, tmp87
 861 0900 8B10     		movl	(%eax), %edx	 # oqp_1(D)->q_waiting.p_next, D.2875
 862 0902 8B442420 		movl	32(%esp), %eax	 # oqp, D.2876
 863 0906 39C2     		cmpl	%eax, %edx	 # D.2876, D.2875
 864 0908 7581     		jne	L34	 #,
 865              		.loc 1 296 0 is_stmt 0
 866 090a A1080100 		movl	LPBX1+264, %eax	 # *LPBX1, PROF_edge_counter.5
 866      00
 867 090f 8B150C01 		movl	LPBX1+268, %edx	 # *LPBX1, PROF_edge_counter.5
 867      0000
 868 0915 83C001   		addl	$1, %eax	 #, PROF_edge_counter.5
 869 0918 83D200   		adcl	$0, %edx	 #, PROF_edge_counter.5
GAS LISTING C:\cygwin\tmp\ccStazSd.s 			page 20


 870 091b A3080100 		movl	%eax, LPBX1+264	 # PROF_edge_counter.5, *LPBX1
 870      00
 871 0920 89150C01 		movl	%edx, LPBX1+268	 # PROF_edge_counter.5, *LPBX1
 871      0000
 872              		.loc 1 298 0 is_stmt 1
 873 0926 83C41C   		addl	$28, %esp	 #,
 874              	LCFI15:
 875              		.cfi_def_cfa_offset 4
 876 0929 C3       		ret
 877              		.cfi_endproc
 878              	LFE7:
 879              		.globl	_chOQPutTimeout
 880              		.def	_chOQPutTimeout;	.scl	2;	.type	32;	.endef
 881              	_chOQPutTimeout:
 882              	LFB8:
 883              		.loc 1 322 0
 884              		.cfi_startproc
 885 092a 83EC3C   		subl	$60, %esp	 #,
 886              	LCFI16:
 887              		.cfi_def_cfa_offset 64
 888 092d 8B442444 		movl	68(%esp), %eax	 # b, tmp91
 889 0931 8844241C 		movb	%al, 28(%esp)	 # tmp91, b
 890              		.loc 1 322 0
 891 0935 A1A00000 		movl	LPBX1+160, %eax	 # *LPBX1, PROF_edge_counter.4
 891      00
 892 093a 8B15A400 		movl	LPBX1+164, %edx	 # *LPBX1, PROF_edge_counter.4
 892      0000
 893 0940 83C001   		addl	$1, %eax	 #, PROF_edge_counter.4
 894 0943 83D200   		adcl	$0, %edx	 #, PROF_edge_counter.4
 895 0946 A3A00000 		movl	%eax, LPBX1+160	 # PROF_edge_counter.4, *LPBX1
 895      00
 896 094b 8915A400 		movl	%edx, LPBX1+164	 # PROF_edge_counter.4, *LPBX1
 896      0000
 897              		.loc 1 324 0
 898              	/APP
 899              	 # 324 "../../os/kernel/src/chqueues.c" 1
 900 0951 90       		nop
 901              	 # 0 "" 2
 902              		.loc 1 325 0
 903              	/NO_APP
 904 0952 90       		nop
 905              	LBB3:
 906              		.loc 1 330 0
 907 0953 A1B80000 		movl	LPBX1+184, %eax	 # *LPBX1, PROF_edge_counter.4
 907      00
 908 0958 8B15BC00 		movl	LPBX1+188, %edx	 # *LPBX1, PROF_edge_counter.4
 908      0000
 909 095e 83C001   		addl	$1, %eax	 #, PROF_edge_counter.4
 910 0961 83D200   		adcl	$0, %edx	 #, PROF_edge_counter.4
 911 0964 A3B80000 		movl	%eax, LPBX1+184	 # PROF_edge_counter.4, *LPBX1
 911      00
 912 0969 8915BC00 		movl	%edx, LPBX1+188	 # PROF_edge_counter.4, *LPBX1
 912      0000
 913              	LBE3:
 914              		.loc 1 325 0
 915 096f EB7D     		jmp	L37	 #
 916              	L39:
GAS LISTING C:\cygwin\tmp\ccStazSd.s 			page 21


 917 0971 A1C00000 		movl	LPBX1+192, %eax	 # *LPBX1, PROF_edge_counter.4
 917      00
 918 0976 8B15C400 		movl	LPBX1+196, %edx	 # *LPBX1, PROF_edge_counter.4
 918      0000
 919 097c 83C001   		addl	$1, %eax	 #, PROF_edge_counter.4
 920 097f 83D200   		adcl	$0, %edx	 #, PROF_edge_counter.4
 921 0982 A3C00000 		movl	%eax, LPBX1+192	 # PROF_edge_counter.4, *LPBX1
 921      00
 922 0987 8915C400 		movl	%edx, LPBX1+196	 # PROF_edge_counter.4, *LPBX1
 922      0000
 923              	LBB4:
 924              		.loc 1 328 0
 925 098d 8B442448 		movl	72(%esp), %eax	 # time, tmp92
 926 0991 89442404 		movl	%eax, 4(%esp)	 # tmp92,
 927 0995 8B442440 		movl	64(%esp), %eax	 # oqp, tmp93
 928 0999 890424   		movl	%eax, (%esp)	 # tmp93,
 929 099c E85FF6FF 		call	_qwait	 #
 929      FF
 930 09a1 8944242C 		movl	%eax, 44(%esp)	 # tmp94, msg
 931 09a5 837C242C 		cmpl	$0, 44(%esp)	 #, msg
 931      00
 932 09aa 7942     		jns	L37	 #,
 933 09ac A1A80000 		movl	LPBX1+168, %eax	 # *LPBX1, PROF_edge_counter.4
 933      00
 934 09b1 8B15AC00 		movl	LPBX1+172, %edx	 # *LPBX1, PROF_edge_counter.4
 934      0000
 935 09b7 83C001   		addl	$1, %eax	 #, PROF_edge_counter.4
 936 09ba 83D200   		adcl	$0, %edx	 #, PROF_edge_counter.4
 937 09bd A3A80000 		movl	%eax, LPBX1+168	 # PROF_edge_counter.4, *LPBX1
 937      00
 938 09c2 8915AC00 		movl	%edx, LPBX1+172	 # PROF_edge_counter.4, *LPBX1
 938      0000
 939              		.loc 1 329 0
 940              	/APP
 941              	 # 329 "../../os/kernel/src/chqueues.c" 1
 942 09c8 90       		nop
 943              	 # 0 "" 2
 944              		.loc 1 330 0
 945              	/NO_APP
 946 09c9 8B4C242C 		movl	44(%esp), %ecx	 # msg, D.2848
 947 09cd A1B00000 		movl	LPBX1+176, %eax	 # *LPBX1, PROF_edge_counter.4
 947      00
 948 09d2 8B15B400 		movl	LPBX1+180, %edx	 # *LPBX1, PROF_edge_counter.4
 948      0000
 949 09d8 83C001   		addl	$1, %eax	 #, PROF_edge_counter.4
 950 09db 83D200   		adcl	$0, %edx	 #, PROF_edge_counter.4
 951 09de A3B00000 		movl	%eax, LPBX1+176	 # PROF_edge_counter.4, *LPBX1
 951      00
 952 09e3 8915B400 		movl	%edx, LPBX1+180	 # PROF_edge_counter.4, *LPBX1
 952      0000
 953 09e9 E9040100 		jmp	L38	 #
 953      00
 954              	L37:
 955              	LBE4:
 956              		.loc 1 325 0 discriminator 1
 957 09ee 8B442440 		movl	64(%esp), %eax	 # oqp, tmp95
 958 09f2 8B4008   		movl	8(%eax), %eax	 # oqp_2(D)->q_counter, D.2849
GAS LISTING C:\cygwin\tmp\ccStazSd.s 			page 22


 959 09f5 85C0     		testl	%eax, %eax	 # D.2849
 960 09f7 0F8474FF 		je	L39	 #,
 960      FFFF
 961              		.loc 1 325 0 is_stmt 0
 962 09fd A1C80000 		movl	LPBX1+200, %eax	 # *LPBX1, PROF_edge_counter.4
 962      00
 963 0a02 8B15CC00 		movl	LPBX1+204, %edx	 # *LPBX1, PROF_edge_counter.4
 963      0000
 964 0a08 83C001   		addl	$1, %eax	 #, PROF_edge_counter.4
 965 0a0b 83D200   		adcl	$0, %edx	 #, PROF_edge_counter.4
 966 0a0e A3C80000 		movl	%eax, LPBX1+200	 # PROF_edge_counter.4, *LPBX1
 966      00
 967 0a13 8915CC00 		movl	%edx, LPBX1+204	 # PROF_edge_counter.4, *LPBX1
 967      0000
 968              		.loc 1 334 0 is_stmt 1
 969 0a19 8B442440 		movl	64(%esp), %eax	 # oqp, tmp96
 970 0a1d 8B4008   		movl	8(%eax), %eax	 # oqp_2(D)->q_counter, D.2850
 971 0a20 8D50FF   		leal	-1(%eax), %edx	 #, D.2851
 972 0a23 8B442440 		movl	64(%esp), %eax	 # oqp, tmp97
 973 0a27 895008   		movl	%edx, 8(%eax)	 # D.2851, oqp_2(D)->q_counter
 974              		.loc 1 335 0
 975 0a2a 8B442440 		movl	64(%esp), %eax	 # oqp, tmp98
 976 0a2e 8B4014   		movl	20(%eax), %eax	 # oqp_2(D)->q_wrptr, D.2852
 977 0a31 8A54241C 		movb	28(%esp), %dl	 # b, tmp99
 978 0a35 8810     		movb	%dl, (%eax)	 # tmp99, *D.2852_9
 979 0a37 8D5001   		leal	1(%eax), %edx	 #, D.2853
 980 0a3a 8B442440 		movl	64(%esp), %eax	 # oqp, tmp100
 981 0a3e 895014   		movl	%edx, 20(%eax)	 # D.2853, oqp_2(D)->q_wrptr
 982              		.loc 1 336 0
 983 0a41 8B442440 		movl	64(%esp), %eax	 # oqp, tmp101
 984 0a45 8B5014   		movl	20(%eax), %edx	 # oqp_2(D)->q_wrptr, D.2854
 985 0a48 8B442440 		movl	64(%esp), %eax	 # oqp, tmp102
 986 0a4c 8B4010   		movl	16(%eax), %eax	 # oqp_2(D)->q_top, D.2855
 987 0a4f 39C2     		cmpl	%eax, %edx	 # D.2855, D.2854
 988 0a51 722A     		jb	L40	 #,
 989              		.loc 1 337 0
 990 0a53 8B442440 		movl	64(%esp), %eax	 # oqp, tmp103
 991 0a57 8B500C   		movl	12(%eax), %edx	 # oqp_2(D)->q_buffer, D.2858
 992 0a5a 8B442440 		movl	64(%esp), %eax	 # oqp, tmp104
 993 0a5e 895014   		movl	%edx, 20(%eax)	 # D.2858, oqp_2(D)->q_wrptr
 994 0a61 A1D00000 		movl	LPBX1+208, %eax	 # *LPBX1, PROF_edge_counter.4
 994      00
 995 0a66 8B15D400 		movl	LPBX1+212, %edx	 # *LPBX1, PROF_edge_counter.4
 995      0000
 996 0a6c 83C001   		addl	$1, %eax	 #, PROF_edge_counter.4
 997 0a6f 83D200   		adcl	$0, %edx	 #, PROF_edge_counter.4
 998 0a72 A3D00000 		movl	%eax, LPBX1+208	 # PROF_edge_counter.4, *LPBX1
 998      00
 999 0a77 8915D400 		movl	%edx, LPBX1+212	 # PROF_edge_counter.4, *LPBX1
 999      0000
 1000              	L40:
 1001              		.loc 1 339 0
 1002 0a7d 8B442440 		movl	64(%esp), %eax	 # oqp, tmp105
 1003 0a81 8B401C   		movl	28(%eax), %eax	 # oqp_2(D)->q_notify, D.2859
 1004 0a84 85C0     		testl	%eax, %eax	 # D.2859
 1005 0a86 7448     		je	L41	 #,
 1006 0a88 A1D80000 		movl	LPBX1+216, %eax	 # *LPBX1, PROF_edge_counter.4
GAS LISTING C:\cygwin\tmp\ccStazSd.s 			page 23


 1006      00
 1007 0a8d 8B15DC00 		movl	LPBX1+220, %edx	 # *LPBX1, PROF_edge_counter.4
 1007      0000
 1008 0a93 83C001   		addl	$1, %eax	 #, PROF_edge_counter.4
 1009 0a96 83D200   		adcl	$0, %edx	 #, PROF_edge_counter.4
 1010 0a99 A3D80000 		movl	%eax, LPBX1+216	 # PROF_edge_counter.4, *LPBX1
 1010      00
 1011 0a9e 8915DC00 		movl	%edx, LPBX1+220	 # PROF_edge_counter.4, *LPBX1
 1011      0000
 1012              		.loc 1 340 0
 1013 0aa4 8B442440 		movl	64(%esp), %eax	 # oqp, tmp106
 1014 0aa8 8B501C   		movl	28(%eax), %edx	 # oqp_2(D)->q_notify, D.2862
 1015 0aab 8B442440 		movl	64(%esp), %eax	 # oqp, tmp107
 1016 0aaf 890424   		movl	%eax, (%esp)	 # tmp107,
 1017 0ab2 FFD2     		call	*%edx	 # D.2862
 1018 0ab4 A1E00000 		movl	LPBX1+224, %eax	 # *LPBX1, PROF_edge_counter.4
 1018      00
 1019 0ab9 8B15E400 		movl	LPBX1+228, %edx	 # *LPBX1, PROF_edge_counter.4
 1019      0000
 1020 0abf 83C001   		addl	$1, %eax	 #, PROF_edge_counter.4
 1021 0ac2 83D200   		adcl	$0, %edx	 #, PROF_edge_counter.4
 1022 0ac5 A3E00000 		movl	%eax, LPBX1+224	 # PROF_edge_counter.4, *LPBX1
 1022      00
 1023 0aca 8915E400 		movl	%edx, LPBX1+228	 # PROF_edge_counter.4, *LPBX1
 1023      0000
 1024              	L41:
 1025              		.loc 1 342 0
 1026              	/APP
 1027              	 # 342 "../../os/kernel/src/chqueues.c" 1
 1028 0ad0 90       		nop
 1029              	 # 0 "" 2
 1030              		.loc 1 343 0
 1031              	/NO_APP
 1032 0ad1 B9000000 		movl	$0, %ecx	 #, D.2848
 1032      00
 1033 0ad6 A1E80000 		movl	LPBX1+232, %eax	 # *LPBX1, PROF_edge_counter.4
 1033      00
 1034 0adb 8B15EC00 		movl	LPBX1+236, %edx	 # *LPBX1, PROF_edge_counter.4
 1034      0000
 1035 0ae1 83C001   		addl	$1, %eax	 #, PROF_edge_counter.4
 1036 0ae4 83D200   		adcl	$0, %edx	 #, PROF_edge_counter.4
 1037 0ae7 A3E80000 		movl	%eax, LPBX1+232	 # PROF_edge_counter.4, *LPBX1
 1037      00
 1038 0aec 8915EC00 		movl	%edx, LPBX1+236	 # PROF_edge_counter.4, *LPBX1
 1038      0000
 1039              	L38:
 1040 0af2 89C8     		movl	%ecx, %eax	 # D.2848, <retval>
 1041              		.loc 1 344 0
 1042 0af4 83C43C   		addl	$60, %esp	 #,
 1043              	LCFI17:
 1044              		.cfi_def_cfa_offset 4
 1045 0af7 C3       		ret
 1046              		.cfi_endproc
 1047              	LFE8:
 1048              		.globl	_chOQGetI
 1049              		.def	_chOQGetI;	.scl	2;	.type	32;	.endef
 1050              	_chOQGetI:
GAS LISTING C:\cygwin\tmp\ccStazSd.s 			page 24


 1051              	LFB9:
 1052              		.loc 1 356 0
 1053              		.cfi_startproc
 1054 0af8 83EC2C   		subl	$44, %esp	 #,
 1055              	LCFI18:
 1056              		.cfi_def_cfa_offset 48
 1057              		.loc 1 361 0
 1058 0afb 8B442430 		movl	48(%esp), %eax	 # oqp, tmp94
 1059 0aff 8B5014   		movl	20(%eax), %edx	 # oqp_3(D)->q_wrptr, D.2820
 1060 0b02 8B442430 		movl	48(%esp), %eax	 # oqp, tmp95
 1061 0b06 8B4018   		movl	24(%eax), %eax	 # oqp_3(D)->q_rdptr, D.2821
 1062 0b09 39C2     		cmpl	%eax, %edx	 # D.2821, D.2820
 1063 0b0b 752E     		jne	L43	 #,
 1064              		.loc 1 361 0 is_stmt 0 discriminator 1
 1065 0b0d A1600000 		movl	LPBX1+96, %eax	 # *LPBX1, PROF_edge_counter.3
 1065      00
 1066 0b12 8B156400 		movl	LPBX1+100, %edx	 # *LPBX1, PROF_edge_counter.3
 1066      0000
 1067 0b18 83C001   		addl	$1, %eax	 #, PROF_edge_counter.3
 1068 0b1b 83D200   		adcl	$0, %edx	 #, PROF_edge_counter.3
 1069 0b1e A3600000 		movl	%eax, LPBX1+96	 # PROF_edge_counter.3, *LPBX1
 1069      00
 1070 0b23 89156400 		movl	%edx, LPBX1+100	 # PROF_edge_counter.3, *LPBX1
 1070      0000
 1071 0b29 8B442430 		movl	48(%esp), %eax	 # oqp, tmp96
 1072 0b2d 8B4008   		movl	8(%eax), %eax	 # oqp_3(D)->q_counter, D.2823
 1073 0b30 85C0     		testl	%eax, %eax	 # D.2823
 1074 0b32 7407     		je	L43	 #,
 1075              		.loc 1 361 0 discriminator 3
 1076 0b34 B9010000 		movl	$1, %ecx	 #, iftmp.0
 1076      00
 1077 0b39 EB21     		jmp	L44	 #
 1078              	L43:
 1079              		.loc 1 361 0 discriminator 2
 1080 0b3b B9000000 		movl	$0, %ecx	 #, iftmp.0
 1080      00
 1081 0b40 A1680000 		movl	LPBX1+104, %eax	 # *LPBX1, PROF_edge_counter.3
 1081      00
 1082 0b45 8B156C00 		movl	LPBX1+108, %edx	 # *LPBX1, PROF_edge_counter.3
 1082      0000
 1083 0b4b 83C001   		addl	$1, %eax	 #, PROF_edge_counter.3
 1084 0b4e 83D200   		adcl	$0, %edx	 #, PROF_edge_counter.3
 1085 0b51 A3680000 		movl	%eax, LPBX1+104	 # PROF_edge_counter.3, *LPBX1
 1085      00
 1086 0b56 89156C00 		movl	%edx, LPBX1+108	 # PROF_edge_counter.3, *LPBX1
 1086      0000
 1087              	L44:
 1088              		.loc 1 361 0 discriminator 4
 1089 0b5c 88C8     		movb	%cl, %al	 # iftmp.0, D.2825
 1090 0b5e 84C0     		testb	%al, %al	 # D.2825
 1091 0b60 7426     		je	L45	 #,
 1092              		.loc 1 362 0 is_stmt 1
 1093 0b62 B9FDFFFF 		movl	$-3, %ecx	 #, D.2828
 1093      FF
 1094 0b67 A1700000 		movl	LPBX1+112, %eax	 # *LPBX1, PROF_edge_counter.3
 1094      00
 1095 0b6c 8B157400 		movl	LPBX1+116, %edx	 # *LPBX1, PROF_edge_counter.3
GAS LISTING C:\cygwin\tmp\ccStazSd.s 			page 25


 1095      0000
 1096 0b72 83C001   		addl	$1, %eax	 #, PROF_edge_counter.3
 1097 0b75 83D200   		adcl	$0, %edx	 #, PROF_edge_counter.3
 1098 0b78 A3700000 		movl	%eax, LPBX1+112	 # PROF_edge_counter.3, *LPBX1
 1098      00
 1099 0b7d 89157400 		movl	%edx, LPBX1+116	 # PROF_edge_counter.3, *LPBX1
 1099      0000
 1100 0b83 E9040100 		jmp	L46	 #
 1100      00
 1101              	L45:
 1102              		.loc 1 364 0
 1103 0b88 8B442430 		movl	48(%esp), %eax	 # oqp, tmp97
 1104 0b8c 8B4008   		movl	8(%eax), %eax	 # oqp_3(D)->q_counter, D.2829
 1105 0b8f 8D5001   		leal	1(%eax), %edx	 #, D.2830
 1106 0b92 8B442430 		movl	48(%esp), %eax	 # oqp, tmp98
 1107 0b96 895008   		movl	%edx, 8(%eax)	 # D.2830, oqp_3(D)->q_counter
 1108              		.loc 1 365 0
 1109 0b99 8B442430 		movl	48(%esp), %eax	 # oqp, tmp99
 1110 0b9d 8B4018   		movl	24(%eax), %eax	 # oqp_3(D)->q_rdptr, D.2831
 1111 0ba0 8A10     		movb	(%eax), %dl	 # *D.2831_13, tmp100
 1112 0ba2 8854241F 		movb	%dl, 31(%esp)	 # tmp100, b
 1113 0ba6 8D5001   		leal	1(%eax), %edx	 #, D.2832
 1114 0ba9 8B442430 		movl	48(%esp), %eax	 # oqp, tmp101
 1115 0bad 895018   		movl	%edx, 24(%eax)	 # D.2832, oqp_3(D)->q_rdptr
 1116              		.loc 1 366 0
 1117 0bb0 8B442430 		movl	48(%esp), %eax	 # oqp, tmp102
 1118 0bb4 8B5018   		movl	24(%eax), %edx	 # oqp_3(D)->q_rdptr, D.2833
 1119 0bb7 8B442430 		movl	48(%esp), %eax	 # oqp, tmp103
 1120 0bbb 8B4010   		movl	16(%eax), %eax	 # oqp_3(D)->q_top, D.2834
 1121 0bbe 39C2     		cmpl	%eax, %edx	 # D.2834, D.2833
 1122 0bc0 722A     		jb	L47	 #,
 1123              		.loc 1 367 0
 1124 0bc2 8B442430 		movl	48(%esp), %eax	 # oqp, tmp104
 1125 0bc6 8B500C   		movl	12(%eax), %edx	 # oqp_3(D)->q_buffer, D.2837
 1126 0bc9 8B442430 		movl	48(%esp), %eax	 # oqp, tmp105
 1127 0bcd 895018   		movl	%edx, 24(%eax)	 # D.2837, oqp_3(D)->q_rdptr
 1128 0bd0 A1780000 		movl	LPBX1+120, %eax	 # *LPBX1, PROF_edge_counter.3
 1128      00
 1129 0bd5 8B157C00 		movl	LPBX1+124, %edx	 # *LPBX1, PROF_edge_counter.3
 1129      0000
 1130 0bdb 83C001   		addl	$1, %eax	 #, PROF_edge_counter.3
 1131 0bde 83D200   		adcl	$0, %edx	 #, PROF_edge_counter.3
 1132 0be1 A3780000 		movl	%eax, LPBX1+120	 # PROF_edge_counter.3, *LPBX1
 1132      00
 1133 0be6 89157C00 		movl	%edx, LPBX1+124	 # PROF_edge_counter.3, *LPBX1
 1133      0000
 1134              	L47:
 1135              		.loc 1 369 0
 1136 0bec 8B442430 		movl	48(%esp), %eax	 # oqp, tmp106
 1137 0bf0 8B10     		movl	(%eax), %edx	 # oqp_3(D)->q_waiting.p_next, D.2838
 1138 0bf2 8B442430 		movl	48(%esp), %eax	 # oqp, D.2839
 1139 0bf6 39C2     		cmpl	%eax, %edx	 # D.2839, D.2838
 1140 0bf8 7471     		je	L48	 #,
 1141 0bfa A1800000 		movl	LPBX1+128, %eax	 # *LPBX1, PROF_edge_counter.3
 1141      00
 1142 0bff 8B158400 		movl	LPBX1+132, %edx	 # *LPBX1, PROF_edge_counter.3
 1142      0000
GAS LISTING C:\cygwin\tmp\ccStazSd.s 			page 26


 1143 0c05 83C001   		addl	$1, %eax	 #, PROF_edge_counter.3
 1144 0c08 83D200   		adcl	$0, %edx	 #, PROF_edge_counter.3
 1145 0c0b A3800000 		movl	%eax, LPBX1+128	 # PROF_edge_counter.3, *LPBX1
 1145      00
 1146 0c10 89158400 		movl	%edx, LPBX1+132	 # PROF_edge_counter.3, *LPBX1
 1146      0000
 1147              		.loc 1 370 0
 1148 0c16 8B442430 		movl	48(%esp), %eax	 # oqp, D.2842
 1149 0c1a 890424   		movl	%eax, (%esp)	 # D.2842,
 1150 0c1d E8000000 		call	_fifo_remove	 #
 1150      00
 1151 0c22 89C1     		movl	%eax, %ecx	 #, D.2843
 1152 0c24 A1880000 		movl	LPBX1+136, %eax	 # *LPBX1, PROF_edge_counter.3
 1152      00
 1153 0c29 8B158C00 		movl	LPBX1+140, %edx	 # *LPBX1, PROF_edge_counter.3
 1153      0000
 1154 0c2f 83C001   		addl	$1, %eax	 #, PROF_edge_counter.3
 1155 0c32 83D200   		adcl	$0, %edx	 #, PROF_edge_counter.3
 1156 0c35 A3880000 		movl	%eax, LPBX1+136	 # PROF_edge_counter.3, *LPBX1
 1156      00
 1157 0c3a 89158C00 		movl	%edx, LPBX1+140	 # PROF_edge_counter.3, *LPBX1
 1157      0000
 1158 0c40 890C24   		movl	%ecx, (%esp)	 # D.2843,
 1159 0c43 E8000000 		call	_chSchReadyI	 #
 1159      00
 1160 0c48 C7402400 		movl	$0, 36(%eax)	 #, D.2844_23->p_u.rdymsg
 1160      000000
 1161 0c4f A1900000 		movl	LPBX1+144, %eax	 # *LPBX1, PROF_edge_counter.3
 1161      00
 1162 0c54 8B159400 		movl	LPBX1+148, %edx	 # *LPBX1, PROF_edge_counter.3
 1162      0000
 1163 0c5a 83C001   		addl	$1, %eax	 #, PROF_edge_counter.3
 1164 0c5d 83D200   		adcl	$0, %edx	 #, PROF_edge_counter.3
 1165 0c60 A3900000 		movl	%eax, LPBX1+144	 # PROF_edge_counter.3, *LPBX1
 1165      00
 1166 0c65 89159400 		movl	%edx, LPBX1+148	 # PROF_edge_counter.3, *LPBX1
 1166      0000
 1167              	L48:
 1168              		.loc 1 372 0
 1169 0c6b 0FB64C24 		movzbl	31(%esp), %ecx	 # b, D.2828
 1169      1F
 1170 0c70 A1980000 		movl	LPBX1+152, %eax	 # *LPBX1, PROF_edge_counter.3
 1170      00
 1171 0c75 8B159C00 		movl	LPBX1+156, %edx	 # *LPBX1, PROF_edge_counter.3
 1171      0000
 1172 0c7b 83C001   		addl	$1, %eax	 #, PROF_edge_counter.3
 1173 0c7e 83D200   		adcl	$0, %edx	 #, PROF_edge_counter.3
 1174 0c81 A3980000 		movl	%eax, LPBX1+152	 # PROF_edge_counter.3, *LPBX1
 1174      00
 1175 0c86 89159C00 		movl	%edx, LPBX1+156	 # PROF_edge_counter.3, *LPBX1
 1175      0000
 1176              	L46:
 1177 0c8c 89C8     		movl	%ecx, %eax	 # D.2828, <retval>
 1178              		.loc 1 373 0
 1179 0c8e 83C42C   		addl	$44, %esp	 #,
 1180              	LCFI19:
 1181              		.cfi_def_cfa_offset 4
GAS LISTING C:\cygwin\tmp\ccStazSd.s 			page 27


 1182 0c91 C3       		ret
 1183              		.cfi_endproc
 1184              	LFE9:
 1185              		.globl	_chOQWriteTimeout
 1186              		.def	_chOQWriteTimeout;	.scl	2;	.type	32;	.endef
 1187              	_chOQWriteTimeout:
 1188              	LFB10:
 1189              		.loc 1 400 0
 1190              		.cfi_startproc
 1191 0c92 83EC2C   		subl	$44, %esp	 #,
 1192              	LCFI20:
 1193              		.cfi_def_cfa_offset 48
 1194              		.loc 1 400 0
 1195 0c95 A1000000 		movl	LPBX1, %eax	 # *LPBX1, PROF_edge_counter.2
 1195      00
 1196 0c9a 8B150400 		movl	LPBX1+4, %edx	 # *LPBX1, PROF_edge_counter.2
 1196      0000
 1197 0ca0 83C001   		addl	$1, %eax	 #, PROF_edge_counter.2
 1198 0ca3 83D200   		adcl	$0, %edx	 #, PROF_edge_counter.2
 1199 0ca6 A3000000 		movl	%eax, LPBX1	 # PROF_edge_counter.2, *LPBX1
 1199      00
 1200 0cab 89150400 		movl	%edx, LPBX1+4	 # PROF_edge_counter.2, *LPBX1
 1200      0000
 1201              		.loc 1 401 0
 1202 0cb1 8B442430 		movl	48(%esp), %eax	 # oqp, tmp95
 1203 0cb5 8B401C   		movl	28(%eax), %eax	 # oqp_5(D)->q_notify, tmp96
 1204 0cb8 89442418 		movl	%eax, 24(%esp)	 # tmp96, nfy
 1205              		.loc 1 402 0
 1206 0cbc C744241C 		movl	$0, 28(%esp)	 #, w
 1206      00000000 
 1207              		.loc 1 406 0
 1208              	/APP
 1209              	 # 406 "../../os/kernel/src/chqueues.c" 1
 1210 0cc4 90       		nop
 1211              	 # 0 "" 2
 1212              		.loc 1 408 0
 1213              	/NO_APP
 1214 0cc5 E9940000 		jmp	L50	 #
 1214      00
 1215              	L52:
 1216 0cca A1200000 		movl	LPBX1+32, %eax	 # *LPBX1, PROF_edge_counter.2
 1216      00
 1217 0ccf 8B152400 		movl	LPBX1+36, %edx	 # *LPBX1, PROF_edge_counter.2
 1217      0000
 1218 0cd5 83C001   		addl	$1, %eax	 #, PROF_edge_counter.2
 1219 0cd8 83D200   		adcl	$0, %edx	 #, PROF_edge_counter.2
 1220 0cdb A3200000 		movl	%eax, LPBX1+32	 # PROF_edge_counter.2, *LPBX1
 1220      00
 1221 0ce0 89152400 		movl	%edx, LPBX1+36	 # PROF_edge_counter.2, *LPBX1
 1221      0000
 1222              		.loc 1 409 0
 1223 0ce6 8B44243C 		movl	60(%esp), %eax	 # time, tmp97
 1224 0cea 89442404 		movl	%eax, 4(%esp)	 # tmp97,
 1225 0cee 8B442430 		movl	48(%esp), %eax	 # oqp, tmp98
 1226 0cf2 890424   		movl	%eax, (%esp)	 # tmp98,
 1227 0cf5 E806F3FF 		call	_qwait	 #
 1227      FF
GAS LISTING C:\cygwin\tmp\ccStazSd.s 			page 28


 1228 0cfa 89C1     		movl	%eax, %ecx	 #, D.2797
 1229 0cfc A1080000 		movl	LPBX1+8, %eax	 # *LPBX1, PROF_edge_counter.2
 1229      00
 1230 0d01 8B150C00 		movl	LPBX1+12, %edx	 # *LPBX1, PROF_edge_counter.2
 1230      0000
 1231 0d07 83C001   		addl	$1, %eax	 #, PROF_edge_counter.2
 1232 0d0a 83D200   		adcl	$0, %edx	 #, PROF_edge_counter.2
 1233 0d0d A3080000 		movl	%eax, LPBX1+8	 # PROF_edge_counter.2, *LPBX1
 1233      00
 1234 0d12 89150C00 		movl	%edx, LPBX1+12	 # PROF_edge_counter.2, *LPBX1
 1234      0000
 1235 0d18 85C9     		testl	%ecx, %ecx	 # D.2797
 1236 0d1a 7442     		je	L50	 #,
 1237 0d1c A1100000 		movl	LPBX1+16, %eax	 # *LPBX1, PROF_edge_counter.2
 1237      00
 1238 0d21 8B151400 		movl	LPBX1+20, %edx	 # *LPBX1, PROF_edge_counter.2
 1238      0000
 1239 0d27 83C001   		addl	$1, %eax	 #, PROF_edge_counter.2
 1240 0d2a 83D200   		adcl	$0, %edx	 #, PROF_edge_counter.2
 1241 0d2d A3100000 		movl	%eax, LPBX1+16	 # PROF_edge_counter.2, *LPBX1
 1241      00
 1242 0d32 89151400 		movl	%edx, LPBX1+20	 # PROF_edge_counter.2, *LPBX1
 1242      0000
 1243              		.loc 1 410 0
 1244              	/APP
 1245              	 # 410 "../../os/kernel/src/chqueues.c" 1
 1246 0d38 90       		nop
 1247              	 # 0 "" 2
 1248              		.loc 1 411 0
 1249              	/NO_APP
 1250 0d39 8B4C241C 		movl	28(%esp), %ecx	 # w, D.2800
 1251 0d3d A1180000 		movl	LPBX1+24, %eax	 # *LPBX1, PROF_edge_counter.2
 1251      00
 1252 0d42 8B151C00 		movl	LPBX1+28, %edx	 # *LPBX1, PROF_edge_counter.2
 1252      0000
 1253 0d48 83C001   		addl	$1, %eax	 #, PROF_edge_counter.2
 1254 0d4b 83D200   		adcl	$0, %edx	 #, PROF_edge_counter.2
 1255 0d4e A3180000 		movl	%eax, LPBX1+24	 # PROF_edge_counter.2, *LPBX1
 1255      00
 1256 0d53 89151C00 		movl	%edx, LPBX1+28	 # PROF_edge_counter.2, *LPBX1
 1256      0000
 1257 0d59 E9510100 		jmp	L51	 #
 1257      00
 1258              	L50:
 1259              		.loc 1 408 0 discriminator 1
 1260 0d5e 8B442430 		movl	48(%esp), %eax	 # oqp, tmp99
 1261 0d62 8B4008   		movl	8(%eax), %eax	 # oqp_5(D)->q_counter, D.2801
 1262 0d65 85C0     		testl	%eax, %eax	 # D.2801
 1263 0d67 0F845DFF 		je	L52	 #,
 1263      FFFF
 1264              		.loc 1 408 0 is_stmt 0
 1265 0d6d A1280000 		movl	LPBX1+40, %eax	 # *LPBX1, PROF_edge_counter.2
 1265      00
 1266 0d72 8B152C00 		movl	LPBX1+44, %edx	 # *LPBX1, PROF_edge_counter.2
 1266      0000
 1267 0d78 83C001   		addl	$1, %eax	 #, PROF_edge_counter.2
 1268 0d7b 83D200   		adcl	$0, %edx	 #, PROF_edge_counter.2
GAS LISTING C:\cygwin\tmp\ccStazSd.s 			page 29


 1269 0d7e A3280000 		movl	%eax, LPBX1+40	 # PROF_edge_counter.2, *LPBX1
 1269      00
 1270 0d83 89152C00 		movl	%edx, LPBX1+44	 # PROF_edge_counter.2, *LPBX1
 1270      0000
 1271              		.loc 1 414 0 is_stmt 1
 1272 0d89 8B442430 		movl	48(%esp), %eax	 # oqp, tmp100
 1273 0d8d 8B4008   		movl	8(%eax), %eax	 # oqp_5(D)->q_counter, D.2802
 1274 0d90 8D50FF   		leal	-1(%eax), %edx	 #, D.2803
 1275 0d93 8B442430 		movl	48(%esp), %eax	 # oqp, tmp101
 1276 0d97 895008   		movl	%edx, 8(%eax)	 # D.2803, oqp_5(D)->q_counter
 1277              		.loc 1 415 0
 1278 0d9a 8B442430 		movl	48(%esp), %eax	 # oqp, tmp102
 1279 0d9e 8B4014   		movl	20(%eax), %eax	 # oqp_5(D)->q_wrptr, D.2804
 1280 0da1 8B542434 		movl	52(%esp), %edx	 # bp, tmp103
 1281 0da5 8A12     		movb	(%edx), %dl	 # *bp_1, D.2806
 1282 0da7 8810     		movb	%dl, (%eax)	 # D.2806, *D.2804_16
 1283 0da9 8D5001   		leal	1(%eax), %edx	 #, D.2805
 1284 0dac 8B442430 		movl	48(%esp), %eax	 # oqp, tmp104
 1285 0db0 895014   		movl	%edx, 20(%eax)	 # D.2805, oqp_5(D)->q_wrptr
 1286 0db3 FF442434 		incl	52(%esp)	 # bp
 1287              		.loc 1 416 0
 1288 0db7 8B442430 		movl	48(%esp), %eax	 # oqp, tmp105
 1289 0dbb 8B5014   		movl	20(%eax), %edx	 # oqp_5(D)->q_wrptr, D.2807
 1290 0dbe 8B442430 		movl	48(%esp), %eax	 # oqp, tmp106
 1291 0dc2 8B4010   		movl	16(%eax), %eax	 # oqp_5(D)->q_top, D.2808
 1292 0dc5 39C2     		cmpl	%eax, %edx	 # D.2808, D.2807
 1293 0dc7 722A     		jb	L53	 #,
 1294              		.loc 1 417 0
 1295 0dc9 8B442430 		movl	48(%esp), %eax	 # oqp, tmp107
 1296 0dcd 8B500C   		movl	12(%eax), %edx	 # oqp_5(D)->q_buffer, D.2811
 1297 0dd0 8B442430 		movl	48(%esp), %eax	 # oqp, tmp108
 1298 0dd4 895014   		movl	%edx, 20(%eax)	 # D.2811, oqp_5(D)->q_wrptr
 1299 0dd7 A1300000 		movl	LPBX1+48, %eax	 # *LPBX1, PROF_edge_counter.2
 1299      00
 1300 0ddc 8B153400 		movl	LPBX1+52, %edx	 # *LPBX1, PROF_edge_counter.2
 1300      0000
 1301 0de2 83C001   		addl	$1, %eax	 #, PROF_edge_counter.2
 1302 0de5 83D200   		adcl	$0, %edx	 #, PROF_edge_counter.2
 1303 0de8 A3300000 		movl	%eax, LPBX1+48	 # PROF_edge_counter.2, *LPBX1
 1303      00
 1304 0ded 89153400 		movl	%edx, LPBX1+52	 # PROF_edge_counter.2, *LPBX1
 1304      0000
 1305              	L53:
 1306              		.loc 1 419 0
 1307 0df3 837C2418 		cmpl	$0, 24(%esp)	 #, nfy
 1307      00
 1308 0df8 7445     		je	L54	 #,
 1309 0dfa A1380000 		movl	LPBX1+56, %eax	 # *LPBX1, PROF_edge_counter.2
 1309      00
 1310 0dff 8B153C00 		movl	LPBX1+60, %edx	 # *LPBX1, PROF_edge_counter.2
 1310      0000
 1311 0e05 83C001   		addl	$1, %eax	 #, PROF_edge_counter.2
 1312 0e08 83D200   		adcl	$0, %edx	 #, PROF_edge_counter.2
 1313 0e0b A3380000 		movl	%eax, LPBX1+56	 # PROF_edge_counter.2, *LPBX1
 1313      00
 1314 0e10 89153C00 		movl	%edx, LPBX1+60	 # PROF_edge_counter.2, *LPBX1
 1314      0000
GAS LISTING C:\cygwin\tmp\ccStazSd.s 			page 30


 1315              		.loc 1 420 0
 1316 0e16 8B442430 		movl	48(%esp), %eax	 # oqp, tmp109
 1317 0e1a 890424   		movl	%eax, (%esp)	 # tmp109,
 1318 0e1d 8B442418 		movl	24(%esp), %eax	 # nfy, tmp110
 1319 0e21 FFD0     		call	*%eax	 # tmp110
 1320 0e23 A1400000 		movl	LPBX1+64, %eax	 # *LPBX1, PROF_edge_counter.2
 1320      00
 1321 0e28 8B154400 		movl	LPBX1+68, %edx	 # *LPBX1, PROF_edge_counter.2
 1321      0000
 1322 0e2e 83C001   		addl	$1, %eax	 #, PROF_edge_counter.2
 1323 0e31 83D200   		adcl	$0, %edx	 #, PROF_edge_counter.2
 1324 0e34 A3400000 		movl	%eax, LPBX1+64	 # PROF_edge_counter.2, *LPBX1
 1324      00
 1325 0e39 89154400 		movl	%edx, LPBX1+68	 # PROF_edge_counter.2, *LPBX1
 1325      0000
 1326              	L54:
 1327              		.loc 1 422 0
 1328              	/APP
 1329              	 # 422 "../../os/kernel/src/chqueues.c" 1
 1330 0e3f 90       		nop
 1331              	 # 0 "" 2
 1332              		.loc 1 423 0
 1333              	/NO_APP
 1334 0e40 FF44241C 		incl	28(%esp)	 # w
 1335              		.loc 1 424 0
 1336 0e44 FF4C2438 		decl	56(%esp)	 # n
 1337 0e48 837C2438 		cmpl	$0, 56(%esp)	 #, n
 1337      00
 1338 0e4d 7522     		jne	L55	 #,
 1339              		.loc 1 425 0
 1340 0e4f 8B4C241C 		movl	28(%esp), %ecx	 # w, D.2800
 1341 0e53 A1500000 		movl	LPBX1+80, %eax	 # *LPBX1, PROF_edge_counter.2
 1341      00
 1342 0e58 8B155400 		movl	LPBX1+84, %edx	 # *LPBX1, PROF_edge_counter.2
 1342      0000
 1343 0e5e 83C001   		addl	$1, %eax	 #, PROF_edge_counter.2
 1344 0e61 83D200   		adcl	$0, %edx	 #, PROF_edge_counter.2
 1345 0e64 A3500000 		movl	%eax, LPBX1+80	 # PROF_edge_counter.2, *LPBX1
 1345      00
 1346 0e69 89155400 		movl	%edx, LPBX1+84	 # PROF_edge_counter.2, *LPBX1
 1346      0000
 1347 0e6f EB3E     		jmp	L51	 #
 1348              	L55:
 1349 0e71 A1480000 		movl	LPBX1+72, %eax	 # *LPBX1, PROF_edge_counter.2
 1349      00
 1350 0e76 8B154C00 		movl	LPBX1+76, %edx	 # *LPBX1, PROF_edge_counter.2
 1350      0000
 1351 0e7c 83C001   		addl	$1, %eax	 #, PROF_edge_counter.2
 1352 0e7f 83D200   		adcl	$0, %edx	 #, PROF_edge_counter.2
 1353 0e82 A3480000 		movl	%eax, LPBX1+72	 # PROF_edge_counter.2, *LPBX1
 1353      00
 1354 0e87 89154C00 		movl	%edx, LPBX1+76	 # PROF_edge_counter.2, *LPBX1
 1354      0000
 1355              		.loc 1 426 0
 1356              	/APP
 1357              	 # 426 "../../os/kernel/src/chqueues.c" 1
 1358 0e8d 90       		nop
GAS LISTING C:\cygwin\tmp\ccStazSd.s 			page 31


 1359              	 # 0 "" 2
 1360              		.loc 1 427 0
 1361              	/NO_APP
 1362 0e8e A1580000 		movl	LPBX1+88, %eax	 # *LPBX1, PROF_edge_counter.2
 1362      00
 1363 0e93 8B155C00 		movl	LPBX1+92, %edx	 # *LPBX1, PROF_edge_counter.2
 1363      0000
 1364 0e99 83C001   		addl	$1, %eax	 #, PROF_edge_counter.2
 1365 0e9c 83D200   		adcl	$0, %edx	 #, PROF_edge_counter.2
 1366 0e9f A3580000 		movl	%eax, LPBX1+88	 # PROF_edge_counter.2, *LPBX1
 1366      00
 1367 0ea4 89155C00 		movl	%edx, LPBX1+92	 # PROF_edge_counter.2, *LPBX1
 1367      0000
 1368              		.loc 1 408 0
 1369 0eaa E9AFFEFF 		jmp	L50	 #
 1369      FF
 1370              	L51:
 1371              		.loc 1 427 0
 1372 0eaf 89C8     		movl	%ecx, %eax	 # D.2800, <retval>
 1373              		.loc 1 428 0
 1374 0eb1 83C42C   		addl	$44, %esp	 #,
 1375              	LCFI21:
 1376              		.cfi_def_cfa_offset 4
 1377 0eb4 C3       		ret
 1378              		.cfi_endproc
 1379              	LFE10:
 1380              	.lcomm LPBX1,592,32
 1381              		.section .rdata,"dr"
 1382              		.align 4
 1383              	LC0:
 1384 0000 433A5C64 		.ascii "C:\\develop\\gyro\\ChibiOS\\test\\coverage/../../os/kernel/src/chqueues.gcda\0"
 1384      6576656C 
 1384      6F705C67 
 1384      79726F5C 
 1384      43686962 
 1385              		.data
 1386              		.align 32
 1387              	LC1:
 1388              	 # <anonymous>:
 1389 0000 0B000000 		.long	11
 1390              	 # <anonymous>:
 1391 0004 3D4EB9FB 		.long	-71741891
 1392              	 # <anonymous>:
 1393 0008 0C000000 		.long	12
 1394              	 # <anonymous>:
 1395 000c 0A000000 		.long	10
 1396              	 # <anonymous>:
 1397 0010 D690395C 		.long	1547276502
 1398              	 # <anonymous>:
 1399 0014 08000000 		.long	8
 1400              	 # <anonymous>:
 1401 0018 09000000 		.long	9
 1402              	 # <anonymous>:
 1403 001c 522476D6 		.long	-696900526
 1404              	 # <anonymous>:
 1405 0020 0A000000 		.long	10
 1406              	 # <anonymous>:
GAS LISTING C:\cygwin\tmp\ccStazSd.s 			page 32


 1407 0024 08000000 		.long	8
 1408              	 # <anonymous>:
 1409 0028 5D1394D6 		.long	-694938787
 1410              	 # <anonymous>:
 1411 002c 04000000 		.long	4
 1412              	 # <anonymous>:
 1413 0030 07000000 		.long	7
 1414              	 # <anonymous>:
 1415 0034 873295B0 		.long	-1332399481
 1416              	 # <anonymous>:
 1417 0038 01000000 		.long	1
 1418              	 # <anonymous>:
 1419 003c 06000000 		.long	6
 1420              	 # <anonymous>:
 1421 0040 A5D6D756 		.long	1456985765
 1422              	 # <anonymous>:
 1423 0044 0C000000 		.long	12
 1424              	 # <anonymous>:
 1425 0048 05000000 		.long	5
 1426              	 # <anonymous>:
 1427 004c 0F120DF9 		.long	-116583921
 1428              	 # <anonymous>:
 1429 0050 0A000000 		.long	10
 1430              	 # <anonymous>:
 1431 0054 04000000 		.long	4
 1432              	 # <anonymous>:
 1433 0058 C0BA3E2C 		.long	742308544
 1434              	 # <anonymous>:
 1435 005c 08000000 		.long	8
 1436              	 # <anonymous>:
 1437 0060 03000000 		.long	3
 1438              	 # <anonymous>:
 1439 0064 A77912CA 		.long	-904758873
 1440              	 # <anonymous>:
 1441 0068 04000000 		.long	4
 1442              	 # <anonymous>:
 1443 006c 02000000 		.long	2
 1444              	 # <anonymous>:
 1445 0070 A0AE8A3C 		.long	1015721632
 1446              	 # <anonymous>:
 1447 0074 01000000 		.long	1
 1448              	 # <anonymous>:
 1449 0078 01000000 		.long	1
 1450              	 # <anonymous>:
 1451 007c 5B15A298 		.long	-1734208165
 1452              	 # <anonymous>:
 1453 0080 04000000 		.long	4
 1454 0084 00000000 		.align 32
 1454      00000000 
 1454      00000000 
 1454      00000000 
 1454      00000000 
 1455              	LPBX0:
 1456              	 # <anonymous>:
 1457 00a0 2A363034 		.long	875574826
 1458              	 # <anonymous>:
 1459 00a4 00000000 		.long	0
GAS LISTING C:\cygwin\tmp\ccStazSd.s 			page 33


 1460              	 # <anonymous>:
 1461 00a8 A1247060 		.long	1617962145
 1462              	 # <anonymous>:
 1463 00ac 00000000 		.long	LC0
 1464              	 # <anonymous>:
 1465 00b0 0B000000 		.long	11
 1466              	 # <anonymous>:
 1467 00b4 00000000 		.long	LC1
 1468              	 # <anonymous>:
 1469 00b8 01000000 		.long	1
 1470              	 # <anonymous>:
 1471              	 # <anonymous>:
 1472 00bc 4A000000 		.long	74
 1473              	 # <anonymous>:
 1474 00c0 00000000 		.long	LPBX1
 1475              	 # <anonymous>:
 1476 00c4 00000000 		.long	___gcov_merge_add
 1477 00c8 00000000 		.space 12
 1477      00000000 
 1477      00000000 
 1478 00d4 00000000 		.text
 1478      00000000 
 1478      00000000 
 1479              		.def	__GLOBAL__sub_I_65535_0_chIQInit;	.scl	3;	.type	32;	.endef
 1480              	__GLOBAL__sub_I_65535_0_chIQInit:
 1481              	LFB11:
 1482              		.loc 1 428 0
 1483              		.cfi_startproc
 1484 0eb5 83EC1C   		subl	$28, %esp	 #,
 1485              	LCFI22:
 1486              		.cfi_def_cfa_offset 32
 1487              		.loc 1 428 0
 1488 0eb8 C70424A0 		movl	$LPBX0, (%esp)	 #,
 1488      000000
 1489 0ebf E8000000 		call	___gcov_init	 #
 1489      00
 1490 0ec4 83C41C   		addl	$28, %esp	 #,
 1491              	LCFI23:
 1492              		.cfi_def_cfa_offset 4
 1493 0ec7 C3       		ret
 1494              		.cfi_endproc
 1495              	LFE11:
 1496              		.section	.ctors,"w"
 1497              		.align 4
 1498 0000 B50E0000 		.long	__GLOBAL__sub_I_65535_0_chIQInit
 1499              		.text
 1500              	Letext0:
 1501              		.file 2 "c:/mingw/bin/../lib/gcc/mingw32/4.6.2/include/stddef.h"
 1502              		.file 3 "c:/mingw/bin/../lib/gcc/mingw32/4.6.2/../../../../include/stdint.h"
 1503              		.file 4 "../../os/ports/GCC/SIMIA32/chtypes.h"
 1504              		.file 5 "../../os/kernel/include/chlists.h"
 1505              		.file 6 "../../os/kernel/include/chthreads.h"
 1506              		.file 7 "../../os/ports/GCC/SIMIA32/chcore.h"
 1507              		.file 8 "../../os/kernel/include/chschd.h"
 1508              		.file 9 "../../os/kernel/include/chmtx.h"
 1509              		.file 10 "../../os/kernel/include/chqueues.h"