GAS LISTING C:\cygwin\tmp\ccbLArfy.s 			page 1


   1              		.file	"chschd.c"
   2              	 # GNU C (GCC) version 4.6.2 (mingw32)
   3              	 #	compiled by GNU C version 4.6.2, GMP version 5.0.1, MPFR version 2.4.1, MPC version 0.8.1
   4              	 # GGC heuristics: --param ggc-min-expand=100 --param ggc-min-heapsize=131072
   5              	 # options passed:  -I . -I ../../os/ports/GCC/SIMIA32
   6              	 # -I ../../os/kernel/include -I ../../test -I ../../os/hal/include
   7              	 # -I ../../os/hal/platforms/Win32 -I ../../boards/simulator
   8              	 # -I ../../os/various -iprefix c:\mingw\bin\../lib/gcc/mingw32/4.6.2/
   9              	 # -MD ../../os/kernel/src/chschd.d -MF .dep/chschd.o.d -MP
  10              	 # -MQ ../../os/kernel/src/chschd.o -D SIMULATOR
  11              	 # ../../os/kernel/src/chschd.c -mtune=i386 -march=i386
  12              	 # -auxbase-strip ../../os/kernel/src/chschd.o -ggdb -O0 -Wall -Wextra
  13              	 # -Wstrict-prototypes -fomit-frame-pointer -fprofile-arcs -ftest-coverage
  14              	 # -fverbose-asm
  15              	 # options enabled:  -fasynchronous-unwind-tables -fauto-inc-dec
  16              	 # -fbranch-count-reg -fcommon -fdelete-null-pointer-checks
  17              	 # -fdwarf2-cfi-asm -fearly-inlining -feliminate-unused-debug-types
  18              	 # -ffunction-cse -fgcse-lm -fident -finline-functions-called-once
  19              	 # -fira-share-save-slots -fira-share-spill-slots -fivopts
  20              	 # -fkeep-inline-dllexport -fkeep-static-consts -fleading-underscore
  21              	 # -fmath-errno -fmerge-debug-strings -fmove-loop-invariants
  22              	 # -fomit-frame-pointer -fpeephole -fprefetch-loop-arrays -fprofile-arcs
  23              	 # -freg-struct-return -fsched-critical-path-heuristic
  24              	 # -fsched-dep-count-heuristic -fsched-group-heuristic -fsched-interblock
  25              	 # -fsched-last-insn-heuristic -fsched-rank-heuristic -fsched-spec
  26              	 # -fsched-spec-insn-heuristic -fsched-stalled-insns-dep
  27              	 # -fset-stack-executable -fshow-column -fsigned-zeros
  28              	 # -fsplit-ivs-in-unroller -fstrict-volatile-bitfields -ftest-coverage
  29              	 # -ftrapping-math -ftree-cselim -ftree-forwprop -ftree-loop-if-convert
  30              	 # -ftree-loop-im -ftree-loop-ivcanon -ftree-loop-optimize
  31              	 # -ftree-parallelize-loops= -ftree-phiprop -ftree-pta -ftree-reassoc
  32              	 # -ftree-scev-cprop -ftree-slp-vectorize -ftree-vect-loop-version
  33              	 # -funit-at-a-time -funwind-tables -fvect-cost-model -fverbose-asm
  34              	 # -fzero-initialized-in-bss -m32 -m80387 -m96bit-long-double
  35              	 # -maccumulate-outgoing-args -malign-double -malign-stringops
  36              	 # -mfancy-math-387 -mfp-ret-in-387 -mieee-fp -mno-red-zone -mno-sse4
  37              	 # -mpush-args -msahf -mstack-arg-probe
  38              	
  39              		.text
  40              	Ltext0:
  41              	 # Compiler executable checksum: c20aed7c018482d7b62efcd5dcab2a9d
  42              	
  43              		.comm	_rlist, 28, 2
  44              		.globl	__scheduler_init
  45              		.def	__scheduler_init;	.scl	2;	.type	32;	.endef
  46              	__scheduler_init:
  47              	LFB0:
  48              		.file 1 "../../os/kernel/src/chschd.c"
  49              		.loc 1 48 0
  50              		.cfi_startproc
  51 0000 83EC04   		subl	$4, %esp	 #,
  52              	LCFI0:
  53              		.cfi_def_cfa_offset 8
  54              		.loc 1 48 0
  55 0003 A1700100 		movl	LPBX1+368, %eax	 # *LPBX1, PROF_edge_counter.12
  55      00
  56 0008 8B157401 		movl	LPBX1+372, %edx	 # *LPBX1, PROF_edge_counter.12
GAS LISTING C:\cygwin\tmp\ccbLArfy.s 			page 2


  56      0000
  57 000e 83C001   		addl	$1, %eax	 #, PROF_edge_counter.12
  58 0011 83D200   		adcl	$0, %edx	 #, PROF_edge_counter.12
  59 0014 A3700100 		movl	%eax, LPBX1+368	 # PROF_edge_counter.12, *LPBX1
  59      00
  60 0019 89157401 		movl	%edx, LPBX1+372	 # PROF_edge_counter.12, *LPBX1
  60      0000
  61              		.loc 1 50 0
  62 001f C7050400 		movl	$_rlist, _rlist+4	 #, rlist.r_queue.p_prev
  62      00000000 
  62      0000
  63 0029 A1040000 		movl	_rlist+4, %eax	 # rlist.r_queue.p_prev, D.2843
  63      00
  64 002e A3000000 		movl	%eax, _rlist	 # D.2843, rlist.r_queue.p_next
  64      00
  65              		.loc 1 51 0
  66 0033 C7050800 		movl	$0, _rlist+8	 #, rlist.r_prio
  66      00000000 
  66      0000
  67              		.loc 1 53 0
  68 003d C7051400 		movl	$_rlist, _rlist+20	 #, rlist.r_older
  68      00000000 
  68      0000
  69 0047 A1140000 		movl	_rlist+20, %eax	 # rlist.r_older, D.2844
  69      00
  70 004c A3100000 		movl	%eax, _rlist+16	 # D.2844, rlist.r_newer
  70      00
  71              		.loc 1 55 0
  72 0051 83C404   		addl	$4, %esp	 #,
  73              	LCFI1:
  74              		.cfi_def_cfa_offset 4
  75 0054 C3       		ret
  76              		.cfi_endproc
  77              	LFE0:
  78              		.globl	_chSchReadyI
  79              		.def	_chSchReadyI;	.scl	2;	.type	32;	.endef
  80              	_chSchReadyI:
  81              	LFB1:
  82              		.loc 1 74 0
  83              		.cfi_startproc
  84 0055 83EC14   		subl	$20, %esp	 #,
  85              	LCFI2:
  86              		.cfi_def_cfa_offset 24
  87              		.loc 1 80 0
  88 0058 8B442418 		movl	24(%esp), %eax	 # tp, tmp78
  89 005c 8A401C   		movb	28(%eax), %al	 # tp_2(D)->p_state, D.2832
  90              		.loc 1 74 0
  91 005f 84C0     		testb	%al, %al	 # D.2832
  92 0061 7427     		je	L3	 #,
  93 0063 A1500100 		movl	LPBX1+336, %eax	 # *LPBX1, PROF_edge_counter.11
  93      00
  94 0068 8B155401 		movl	LPBX1+340, %edx	 # *LPBX1, PROF_edge_counter.11
  94      0000
  95 006e 83C001   		addl	$1, %eax	 #, PROF_edge_counter.11
  96 0071 83D200   		adcl	$0, %edx	 #, PROF_edge_counter.11
  97 0074 A3500100 		movl	%eax, LPBX1+336	 # PROF_edge_counter.11, *LPBX1
  97      00
GAS LISTING C:\cygwin\tmp\ccbLArfy.s 			page 3


  98 0079 89155401 		movl	%edx, LPBX1+340	 # PROF_edge_counter.11, *LPBX1
  98      0000
  99              		.loc 1 80 0
 100 007f 8B442418 		movl	24(%esp), %eax	 # tp, tmp79
 101 0083 8A401C   		movb	28(%eax), %al	 # tp_2(D)->p_state, D.2834
 102 0086 3C0E     		cmpb	$14, %al	 #, D.2834
 103 0088 751E     		jne	L7	 #,
 104              	L3:
 105              		.loc 1 74 0 discriminator 1
 106 008a A1580100 		movl	LPBX1+344, %eax	 # *LPBX1, PROF_edge_counter.11
 106      00
 107 008f 8B155C01 		movl	LPBX1+348, %edx	 # *LPBX1, PROF_edge_counter.11
 107      0000
 108 0095 83C001   		addl	$1, %eax	 #, PROF_edge_counter.11
 109 0098 83D200   		adcl	$0, %edx	 #, PROF_edge_counter.11
 110 009b A3580100 		movl	%eax, LPBX1+344	 # PROF_edge_counter.11, *LPBX1
 110      00
 111 00a0 89155C01 		movl	%edx, LPBX1+348	 # PROF_edge_counter.11, *LPBX1
 111      0000
 112 00a6 EB01     		jmp	L4	 #
 113              	L7:
 114              		.loc 1 74 0 is_stmt 0
 115 00a8 90       		nop
 116              	L4:
 117              		.loc 1 85 0 is_stmt 1
 118 00a9 8B442418 		movl	24(%esp), %eax	 # tp, tmp80
 119 00ad C6401C00 		movb	$0, 28(%eax)	 #, tp_2(D)->p_state
 120              		.loc 1 86 0
 121 00b1 C744240C 		movl	$_rlist, 12(%esp)	 #, cp
 121      00000000 
 122              	L6:
 123              		.loc 1 88 0 discriminator 1
 124 00b9 8B44240C 		movl	12(%esp), %eax	 # cp, tmp81
 125 00bd 8B00     		movl	(%eax), %eax	 # cp_1->p_next, tmp82
 126 00bf 8944240C 		movl	%eax, 12(%esp)	 # tmp82, cp
 127              		.loc 1 89 0 discriminator 1
 128 00c3 8B44240C 		movl	12(%esp), %eax	 # cp, tmp83
 129 00c7 8B5008   		movl	8(%eax), %edx	 # cp_8->p_prio, D.2836
 130 00ca 8B442418 		movl	24(%esp), %eax	 # tp, tmp84
 131 00ce 8B4008   		movl	8(%eax), %eax	 # tp_2(D)->p_prio, D.2837
 132 00d1 39C2     		cmpl	%eax, %edx	 # D.2837, D.2836
 133 00d3 721E     		jb	L5	 #,
 134              		.loc 1 89 0 is_stmt 0
 135 00d5 A1600100 		movl	LPBX1+352, %eax	 # *LPBX1, PROF_edge_counter.11
 135      00
 136 00da 8B156401 		movl	LPBX1+356, %edx	 # *LPBX1, PROF_edge_counter.11
 136      0000
 137 00e0 83C001   		addl	$1, %eax	 #, PROF_edge_counter.11
 138 00e3 83D200   		adcl	$0, %edx	 #, PROF_edge_counter.11
 139 00e6 A3600100 		movl	%eax, LPBX1+352	 # PROF_edge_counter.11, *LPBX1
 139      00
 140 00eb 89156401 		movl	%edx, LPBX1+356	 # PROF_edge_counter.11, *LPBX1
 140      0000
 141 00f1 EBC6     		jmp	L6	 #
 142              	L5:
 143 00f3 A1680100 		movl	LPBX1+360, %eax	 # *LPBX1, PROF_edge_counter.11
 143      00
GAS LISTING C:\cygwin\tmp\ccbLArfy.s 			page 4


 144 00f8 8B156C01 		movl	LPBX1+364, %edx	 # *LPBX1, PROF_edge_counter.11
 144      0000
 145 00fe 83C001   		addl	$1, %eax	 #, PROF_edge_counter.11
 146 0101 83D200   		adcl	$0, %edx	 #, PROF_edge_counter.11
 147 0104 A3680100 		movl	%eax, LPBX1+360	 # PROF_edge_counter.11, *LPBX1
 147      00
 148 0109 89156C01 		movl	%edx, LPBX1+364	 # PROF_edge_counter.11, *LPBX1
 148      0000
 149              		.loc 1 91 0 is_stmt 1
 150 010f 8B442418 		movl	24(%esp), %eax	 # tp, tmp85
 151 0113 8B54240C 		movl	12(%esp), %edx	 # cp, tmp86
 152 0117 8910     		movl	%edx, (%eax)	 # tmp86, tp_2(D)->p_next
 153              		.loc 1 92 0
 154 0119 8B44240C 		movl	12(%esp), %eax	 # cp, tmp87
 155 011d 8B5004   		movl	4(%eax), %edx	 # cp_8->p_prev, D.2838
 156 0120 8B442418 		movl	24(%esp), %eax	 # tp, tmp88
 157 0124 895004   		movl	%edx, 4(%eax)	 # D.2838, tp_2(D)->p_prev
 158              		.loc 1 93 0
 159 0127 8B442418 		movl	24(%esp), %eax	 # tp, tmp89
 160 012b 8B4004   		movl	4(%eax), %eax	 # tp_2(D)->p_prev, D.2839
 161 012e 8B54240C 		movl	12(%esp), %edx	 # cp, tmp90
 162 0132 8B4C2418 		movl	24(%esp), %ecx	 # tp, tmp91
 163 0136 894A04   		movl	%ecx, 4(%edx)	 # tmp91, cp_8->p_prev
 164 0139 8B54240C 		movl	12(%esp), %edx	 # cp, tmp92
 165 013d 8B5204   		movl	4(%edx), %edx	 # cp_8->p_prev, D.2840
 166 0140 8910     		movl	%edx, (%eax)	 # D.2840, D.2839_12->p_next
 167              		.loc 1 94 0
 168 0142 8B442418 		movl	24(%esp), %eax	 # tp, D.2841
 169              		.loc 1 95 0
 170 0146 83C414   		addl	$20, %esp	 #,
 171              	LCFI3:
 172              		.cfi_def_cfa_offset 4
 173 0149 C3       		ret
 174              		.cfi_endproc
 175              	LFE1:
 176              		.globl	_chSchGoSleepS
 177              		.def	_chSchGoSleepS;	.scl	2;	.type	32;	.endef
 178              	_chSchGoSleepS:
 179              	LFB2:
 180              		.loc 1 108 0
 181              		.cfi_startproc
 182 014a 83EC3C   		subl	$60, %esp	 #,
 183              	LCFI4:
 184              		.cfi_def_cfa_offset 64
 185 014d 8B442440 		movl	64(%esp), %eax	 # newstate, tmp70
 186 0151 8844241C 		movb	%al, 28(%esp)	 # tmp70, newstate
 187              		.loc 1 108 0
 188 0155 A1300100 		movl	LPBX1+304, %eax	 # *LPBX1, PROF_edge_counter.10
 188      00
 189 015a 8B153401 		movl	LPBX1+308, %edx	 # *LPBX1, PROF_edge_counter.10
 189      0000
 190 0160 83C001   		addl	$1, %eax	 #, PROF_edge_counter.10
 191 0163 83D200   		adcl	$0, %edx	 #, PROF_edge_counter.10
 192 0166 A3300100 		movl	%eax, LPBX1+304	 # PROF_edge_counter.10, *LPBX1
 192      00
 193 016b 89153401 		movl	%edx, LPBX1+308	 # PROF_edge_counter.10, *LPBX1
 193      0000
GAS LISTING C:\cygwin\tmp\ccbLArfy.s 			page 5


 194              		.loc 1 113 0
 195 0171 A1180000 		movl	_rlist+24, %eax	 # rlist.r_current, tmp71
 195      00
 196 0176 8944242C 		movl	%eax, 44(%esp)	 # tmp71, otp
 197 017a 8B44242C 		movl	44(%esp), %eax	 # otp, tmp72
 198 017e 8A54241C 		movb	28(%esp), %dl	 # newstate, tmp73
 199 0182 88501C   		movb	%dl, 28(%eax)	 # tmp73, otp_1->p_state
 200              		.loc 1 117 0
 201 0185 8B44242C 		movl	44(%esp), %eax	 # otp, tmp74
 202 0189 C6401F14 		movb	$20, 31(%eax)	 #, otp_1->p_preempt
 203              		.loc 1 119 0
 204 018d C7042400 		movl	$_rlist, (%esp)	 #,
 204      000000
 205 0194 E8000000 		call	_fifo_remove	 #
 205      00
 206 0199 89C1     		movl	%eax, %ecx	 #, D.2826
 207 019b A1380100 		movl	LPBX1+312, %eax	 # *LPBX1, PROF_edge_counter.10
 207      00
 208 01a0 8B153C01 		movl	LPBX1+316, %edx	 # *LPBX1, PROF_edge_counter.10
 208      0000
 209 01a6 83C001   		addl	$1, %eax	 #, PROF_edge_counter.10
 210 01a9 83D200   		adcl	$0, %edx	 #, PROF_edge_counter.10
 211 01ac A3380100 		movl	%eax, LPBX1+312	 # PROF_edge_counter.10, *LPBX1
 211      00
 212 01b1 89153C01 		movl	%edx, LPBX1+316	 # PROF_edge_counter.10, *LPBX1
 212      0000
 213 01b7 890D1800 		movl	%ecx, _rlist+24	 # D.2826, rlist.r_current
 213      0000
 214              		.loc 1 120 0
 215 01bd A1180000 		movl	_rlist+24, %eax	 # rlist.r_current, D.2827
 215      00
 216 01c2 C6401C01 		movb	$1, 28(%eax)	 #, D.2827_4->p_state
 217              		.loc 1 121 0
 218 01c6 8B44242C 		movl	44(%esp), %eax	 # otp, tmp75
 219 01ca 890424   		movl	%eax, (%esp)	 # tmp75,
 220 01cd E8000000 		call	_dbg_trace	 #
 220      00
 221 01d2 A1400100 		movl	LPBX1+320, %eax	 # *LPBX1, PROF_edge_counter.10
 221      00
 222 01d7 8B154401 		movl	LPBX1+324, %edx	 # *LPBX1, PROF_edge_counter.10
 222      0000
 223 01dd 83C001   		addl	$1, %eax	 #, PROF_edge_counter.10
 224 01e0 83D200   		adcl	$0, %edx	 #, PROF_edge_counter.10
 225 01e3 A3400100 		movl	%eax, LPBX1+320	 # PROF_edge_counter.10, *LPBX1
 225      00
 226 01e8 89154401 		movl	%edx, LPBX1+324	 # PROF_edge_counter.10, *LPBX1
 226      0000
 227 01ee A1180000 		movl	_rlist+24, %eax	 # rlist.r_current, D.2828
 227      00
 228 01f3 8B54242C 		movl	44(%esp), %edx	 # otp, tmp76
 229 01f7 89C1     		movl	%eax, %ecx	 # D.2828,
 230 01f9 E8000000 		call	@port_switch@8	 #
 230      00
 231 01fe A1480100 		movl	LPBX1+328, %eax	 # *LPBX1, PROF_edge_counter.10
 231      00
 232 0203 8B154C01 		movl	LPBX1+332, %edx	 # *LPBX1, PROF_edge_counter.10
 232      0000
GAS LISTING C:\cygwin\tmp\ccbLArfy.s 			page 6


 233 0209 83C001   		addl	$1, %eax	 #, PROF_edge_counter.10
 234 020c 83D200   		adcl	$0, %edx	 #, PROF_edge_counter.10
 235 020f A3480100 		movl	%eax, LPBX1+328	 # PROF_edge_counter.10, *LPBX1
 235      00
 236 0214 89154C01 		movl	%edx, LPBX1+332	 # PROF_edge_counter.10, *LPBX1
 236      0000
 237              		.loc 1 122 0
 238 021a 83C43C   		addl	$60, %esp	 #,
 239              	LCFI5:
 240              		.cfi_def_cfa_offset 4
 241 021d C3       		ret
 242              		.cfi_endproc
 243              	LFE2:
 244              		.def	_wakeup;	.scl	3;	.type	32;	.endef
 245              	_wakeup:
 246              	LFB3:
 247              		.loc 1 129 0
 248              		.cfi_startproc
 249 021e 83EC2C   		subl	$44, %esp	 #,
 250              	LCFI6:
 251              		.cfi_def_cfa_offset 48
 252              		.loc 1 129 0
 253 0221 A1000100 		movl	LPBX1+256, %eax	 # *LPBX1, PROF_edge_counter.9
 253      00
 254 0226 8B150401 		movl	LPBX1+260, %edx	 # *LPBX1, PROF_edge_counter.9
 254      0000
 255 022c 83C001   		addl	$1, %eax	 #, PROF_edge_counter.9
 256 022f 83D200   		adcl	$0, %edx	 #, PROF_edge_counter.9
 257 0232 A3000100 		movl	%eax, LPBX1+256	 # PROF_edge_counter.9, *LPBX1
 257      00
 258 0237 89150401 		movl	%edx, LPBX1+260	 # PROF_edge_counter.9, *LPBX1
 258      0000
 259              		.loc 1 130 0
 260 023d 8B442430 		movl	48(%esp), %eax	 # p, tmp76
 261 0241 8944241C 		movl	%eax, 28(%esp)	 # tmp76, tp
 262              		.loc 1 133 0
 263 0245 8B44241C 		movl	28(%esp), %eax	 # tp, tmp77
 264 0249 8A401C   		movb	28(%eax), %al	 # tp_2->p_state, D.2819
 265 024c 0FB6C0   		movzbl	%al, %eax	 # D.2819, D.2820
 266 024f 83F803   		cmpl	$3, %eax	 #, D.2820
 267 0252 745B     		je	L12	 #,
 268 0254 83F803   		cmpl	$3, %eax	 #, D.2820
 269 0257 7F09     		jg	L14	 #,
 270 0259 85C0     		testl	%eax, %eax	 # D.2820
 271 025b 7431     		je	L11	 #,
 272 025d E99F0000 		jmp	L10	 #
 272      00
 273              	L14:
 274 0262 83F805   		cmpl	$5, %eax	 #, D.2820
 275 0265 7409     		je	L13	 #,
 276 0267 83F80D   		cmpl	$13, %eax	 #, D.2820
 277 026a 0F859100 		jne	L10	 #,
 277      0000
 278              	L13:
 279 0270 A1080100 		movl	LPBX1+264, %eax	 # *LPBX1, PROF_edge_counter.9
 279      00
 280 0275 8B150C01 		movl	LPBX1+268, %edx	 # *LPBX1, PROF_edge_counter.9
GAS LISTING C:\cygwin\tmp\ccbLArfy.s 			page 7


 280      0000
 281 027b 83C001   		addl	$1, %eax	 #, PROF_edge_counter.9
 282 027e 83D200   		adcl	$0, %edx	 #, PROF_edge_counter.9
 283 0281 A3080100 		movl	%eax, LPBX1+264	 # PROF_edge_counter.9, *LPBX1
 283      00
 284 0286 89150C01 		movl	%edx, LPBX1+268	 # PROF_edge_counter.9, *LPBX1
 284      0000
 285 028c EB4B     		jmp	L15	 #
 286              	L11:
 287 028e A1100100 		movl	LPBX1+272, %eax	 # *LPBX1, PROF_edge_counter.9
 287      00
 288 0293 8B151401 		movl	LPBX1+276, %edx	 # *LPBX1, PROF_edge_counter.9
 288      0000
 289 0299 83C001   		addl	$1, %eax	 #, PROF_edge_counter.9
 290 029c 83D200   		adcl	$0, %edx	 #, PROF_edge_counter.9
 291 029f A3100100 		movl	%eax, LPBX1+272	 # PROF_edge_counter.9, *LPBX1
 291      00
 292 02a4 89151401 		movl	%edx, LPBX1+276	 # PROF_edge_counter.9, *LPBX1
 292      0000
 293              		.loc 1 138 0
 294 02aa E9850000 		jmp	L9	 #
 294      00
 295              	L12:
 296              		.loc 1 143 0
 297 02af 8B44241C 		movl	28(%esp), %eax	 # tp, tmp78
 298 02b3 8B4024   		movl	36(%eax), %eax	 # tp_2->p_u.wtobjp, D.2821
 299 02b6 8B5008   		movl	8(%eax), %edx	 # MEM[(struct Semaphore *)D.2821_5].s_cnt, D.2822
 300 02b9 42       		incl	%edx	 # D.2823
 301 02ba 895008   		movl	%edx, 8(%eax)	 # D.2823, MEM[(struct Semaphore *)D.2821_5].s_cnt
 302 02bd A1180100 		movl	LPBX1+280, %eax	 # *LPBX1, PROF_edge_counter.9
 302      00
 303 02c2 8B151C01 		movl	LPBX1+284, %edx	 # *LPBX1, PROF_edge_counter.9
 303      0000
 304 02c8 83C001   		addl	$1, %eax	 #, PROF_edge_counter.9
 305 02cb 83D200   		adcl	$0, %edx	 #, PROF_edge_counter.9
 306 02ce A3180100 		movl	%eax, LPBX1+280	 # PROF_edge_counter.9, *LPBX1
 306      00
 307 02d3 89151C01 		movl	%edx, LPBX1+284	 # PROF_edge_counter.9, *LPBX1
 307      0000
 308              	L15:
 309              		.loc 1 153 0
 310 02d9 8B44241C 		movl	28(%esp), %eax	 # tp, tmp79
 311 02dd 890424   		movl	%eax, (%esp)	 # tmp79,
 312 02e0 E8000000 		call	_dequeue	 #
 312      00
 313 02e5 A1200100 		movl	LPBX1+288, %eax	 # *LPBX1, PROF_edge_counter.9
 313      00
 314 02ea 8B152401 		movl	LPBX1+292, %edx	 # *LPBX1, PROF_edge_counter.9
 314      0000
 315 02f0 83C001   		addl	$1, %eax	 #, PROF_edge_counter.9
 316 02f3 83D200   		adcl	$0, %edx	 #, PROF_edge_counter.9
 317 02f6 A3200100 		movl	%eax, LPBX1+288	 # PROF_edge_counter.9, *LPBX1
 317      00
 318 02fb 89152401 		movl	%edx, LPBX1+292	 # PROF_edge_counter.9, *LPBX1
 318      0000
 319              	L10:
 320              		.loc 1 156 0
GAS LISTING C:\cygwin\tmp\ccbLArfy.s 			page 8


 321 0301 8B44241C 		movl	28(%esp), %eax	 # tp, tmp80
 322 0305 C74024FF 		movl	$-1, 36(%eax)	 #, tp_2->p_u.rdymsg
 322      FFFFFF
 323              		.loc 1 157 0
 324 030c 8B44241C 		movl	28(%esp), %eax	 # tp, tmp81
 325 0310 890424   		movl	%eax, (%esp)	 # tmp81,
 326 0313 E83DFDFF 		call	_chSchReadyI	 #
 326      FF
 327 0318 A1280100 		movl	LPBX1+296, %eax	 # *LPBX1, PROF_edge_counter.9
 327      00
 328 031d 8B152C01 		movl	LPBX1+300, %edx	 # *LPBX1, PROF_edge_counter.9
 328      0000
 329 0323 83C001   		addl	$1, %eax	 #, PROF_edge_counter.9
 330 0326 83D200   		adcl	$0, %edx	 #, PROF_edge_counter.9
 331 0329 A3280100 		movl	%eax, LPBX1+296	 # PROF_edge_counter.9, *LPBX1
 331      00
 332 032e 89152C01 		movl	%edx, LPBX1+300	 # PROF_edge_counter.9, *LPBX1
 332      0000
 333              	L9:
 334              		.loc 1 159 0
 335 0334 83C42C   		addl	$44, %esp	 #,
 336              	LCFI7:
 337              		.cfi_def_cfa_offset 4
 338 0337 C3       		ret
 339              		.cfi_endproc
 340              	LFE3:
 341              		.globl	_chSchGoSleepTimeoutS
 342              		.def	_chSchGoSleepTimeoutS;	.scl	2;	.type	32;	.endef
 343              	_chSchGoSleepTimeoutS:
 344              	LFB4:
 345              		.loc 1 182 0
 346              		.cfi_startproc
 347 0338 83EC4C   		subl	$76, %esp	 #,
 348              	LCFI8:
 349              		.cfi_def_cfa_offset 80
 350 033b 8B442450 		movl	80(%esp), %eax	 # newstate, tmp80
 351 033f 8844241C 		movb	%al, 28(%esp)	 # tmp80, newstate
 352              		.loc 1 186 0
 353 0343 837C2454 		cmpl	$-1, 84(%esp)	 #, time
 353      FF
 354 0348 0F84D800 		je	L18	 #,
 354      0000
 355 034e A1C80000 		movl	LPBX1+200, %eax	 # *LPBX1, PROF_edge_counter.8
 355      00
 356 0353 8B15CC00 		movl	LPBX1+204, %edx	 # *LPBX1, PROF_edge_counter.8
 356      0000
 357 0359 83C001   		addl	$1, %eax	 #, PROF_edge_counter.8
 358 035c 83D200   		adcl	$0, %edx	 #, PROF_edge_counter.8
 359 035f A3C80000 		movl	%eax, LPBX1+200	 # PROF_edge_counter.8, *LPBX1
 359      00
 360 0364 8915CC00 		movl	%edx, LPBX1+204	 # PROF_edge_counter.8, *LPBX1
 360      0000
 361              	LBB2:
 362              		.loc 1 189 0
 363 036a A1180000 		movl	_rlist+24, %eax	 # rlist.r_current, D.2809
 363      00
 364 036f 8944240C 		movl	%eax, 12(%esp)	 # D.2809,
GAS LISTING C:\cygwin\tmp\ccbLArfy.s 			page 9


 365 0373 C7442408 		movl	$_wakeup, 8(%esp)	 #,
 365      1E020000 
 366 037b 8B442454 		movl	84(%esp), %eax	 # time, tmp81
 367 037f 89442404 		movl	%eax, 4(%esp)	 # tmp81,
 368 0383 8D44242C 		leal	44(%esp), %eax	 #, tmp82
 369 0387 890424   		movl	%eax, (%esp)	 # tmp82,
 370 038a E8000000 		call	_chVTSetI	 #
 370      00
 371 038f A1D80000 		movl	LPBX1+216, %eax	 # *LPBX1, PROF_edge_counter.8
 371      00
 372 0394 8B15DC00 		movl	LPBX1+220, %edx	 # *LPBX1, PROF_edge_counter.8
 372      0000
 373 039a 83C001   		addl	$1, %eax	 #, PROF_edge_counter.8
 374 039d 83D200   		adcl	$0, %edx	 #, PROF_edge_counter.8
 375 03a0 A3D80000 		movl	%eax, LPBX1+216	 # PROF_edge_counter.8, *LPBX1
 375      00
 376 03a5 8915DC00 		movl	%edx, LPBX1+220	 # PROF_edge_counter.8, *LPBX1
 376      0000
 377              		.loc 1 190 0
 378 03ab 0FB64424 		movzbl	28(%esp), %eax	 # newstate, D.2810
 378      1C
 379 03b0 890424   		movl	%eax, (%esp)	 # D.2810,
 380 03b3 E892FDFF 		call	_chSchGoSleepS	 #
 380      FF
 381 03b8 A1E00000 		movl	LPBX1+224, %eax	 # *LPBX1, PROF_edge_counter.8
 381      00
 382 03bd 8B15E400 		movl	LPBX1+228, %edx	 # *LPBX1, PROF_edge_counter.8
 382      0000
 383 03c3 83C001   		addl	$1, %eax	 #, PROF_edge_counter.8
 384 03c6 83D200   		adcl	$0, %edx	 #, PROF_edge_counter.8
 385 03c9 A3E00000 		movl	%eax, LPBX1+224	 # PROF_edge_counter.8, *LPBX1
 385      00
 386 03ce 8915E400 		movl	%edx, LPBX1+228	 # PROF_edge_counter.8, *LPBX1
 386      0000
 387              		.loc 1 191 0
 388 03d4 8B442438 		movl	56(%esp), %eax	 # vt.vt_func, D.2811
 389 03d8 85C0     		testl	%eax, %eax	 # D.2811
 390 03da 0F848B00 		je	L19	 #,
 390      0000
 391 03e0 A1E80000 		movl	LPBX1+232, %eax	 # *LPBX1, PROF_edge_counter.8
 391      00
 392 03e5 8B15EC00 		movl	LPBX1+236, %edx	 # *LPBX1, PROF_edge_counter.8
 392      0000
 393 03eb 83C001   		addl	$1, %eax	 #, PROF_edge_counter.8
 394 03ee 83D200   		adcl	$0, %edx	 #, PROF_edge_counter.8
 395 03f1 A3E80000 		movl	%eax, LPBX1+232	 # PROF_edge_counter.8, *LPBX1
 395      00
 396 03f6 8915EC00 		movl	%edx, LPBX1+236	 # PROF_edge_counter.8, *LPBX1
 396      0000
 397              		.loc 1 192 0
 398 03fc 8D44242C 		leal	44(%esp), %eax	 #, tmp83
 399 0400 890424   		movl	%eax, (%esp)	 # tmp83,
 400 0403 E8000000 		call	_chVTResetI	 #
 400      00
 401 0408 A1F00000 		movl	LPBX1+240, %eax	 # *LPBX1, PROF_edge_counter.8
 401      00
 402 040d 8B15F400 		movl	LPBX1+244, %edx	 # *LPBX1, PROF_edge_counter.8
GAS LISTING C:\cygwin\tmp\ccbLArfy.s 			page 10


 402      0000
 403 0413 83C001   		addl	$1, %eax	 #, PROF_edge_counter.8
 404 0416 83D200   		adcl	$0, %edx	 #, PROF_edge_counter.8
 405 0419 A3F00000 		movl	%eax, LPBX1+240	 # PROF_edge_counter.8, *LPBX1
 405      00
 406 041e 8915F400 		movl	%edx, LPBX1+244	 # PROF_edge_counter.8, *LPBX1
 406      0000
 407 0424 EB45     		jmp	L19	 #
 408              	L18:
 409 0426 A1D00000 		movl	LPBX1+208, %eax	 # *LPBX1, PROF_edge_counter.8
 409      00
 410 042b 8B15D400 		movl	LPBX1+212, %edx	 # *LPBX1, PROF_edge_counter.8
 410      0000
 411 0431 83C001   		addl	$1, %eax	 #, PROF_edge_counter.8
 412 0434 83D200   		adcl	$0, %edx	 #, PROF_edge_counter.8
 413 0437 A3D00000 		movl	%eax, LPBX1+208	 # PROF_edge_counter.8, *LPBX1
 413      00
 414 043c 8915D400 		movl	%edx, LPBX1+212	 # PROF_edge_counter.8, *LPBX1
 414      0000
 415              	LBE2:
 416              		.loc 1 195 0
 417 0442 0FB64424 		movzbl	28(%esp), %eax	 # newstate, D.2815
 417      1C
 418 0447 890424   		movl	%eax, (%esp)	 # D.2815,
 419 044a E8FBFCFF 		call	_chSchGoSleepS	 #
 419      FF
 420 044f A1F80000 		movl	LPBX1+248, %eax	 # *LPBX1, PROF_edge_counter.8
 420      00
 421 0454 8B15FC00 		movl	LPBX1+252, %edx	 # *LPBX1, PROF_edge_counter.8
 421      0000
 422 045a 83C001   		addl	$1, %eax	 #, PROF_edge_counter.8
 423 045d 83D200   		adcl	$0, %edx	 #, PROF_edge_counter.8
 424 0460 A3F80000 		movl	%eax, LPBX1+248	 # PROF_edge_counter.8, *LPBX1
 424      00
 425 0465 8915FC00 		movl	%edx, LPBX1+252	 # PROF_edge_counter.8, *LPBX1
 425      0000
 426              	L19:
 427              		.loc 1 196 0
 428 046b A1180000 		movl	_rlist+24, %eax	 # rlist.r_current, D.2817
 428      00
 429 0470 8B4024   		movl	36(%eax), %eax	 # D.2817_7->p_u.rdymsg, D.2816
 430              		.loc 1 197 0
 431 0473 83C44C   		addl	$76, %esp	 #,
 432              	LCFI9:
 433              		.cfi_def_cfa_offset 4
 434 0476 C3       		ret
 435              		.cfi_endproc
 436              	LFE4:
 437              		.globl	_chSchWakeupS
 438              		.def	_chSchWakeupS;	.scl	2;	.type	32;	.endef
 439              	_chSchWakeupS:
 440              	LFB5:
 441              		.loc 1 218 0
 442              		.cfi_startproc
 443 0477 83EC2C   		subl	$44, %esp	 #,
 444              	LCFI10:
 445              		.cfi_def_cfa_offset 48
GAS LISTING C:\cygwin\tmp\ccbLArfy.s 			page 11


 446              		.loc 1 222 0
 447 047a 8B442430 		movl	48(%esp), %eax	 # ntp, tmp75
 448 047e 8B542434 		movl	52(%esp), %edx	 # msg, tmp76
 449 0482 895024   		movl	%edx, 36(%eax)	 # tmp76, ntp_1(D)->p_u.rdymsg
 450              		.loc 1 227 0
 451 0485 8B442430 		movl	48(%esp), %eax	 # ntp, tmp77
 452 0489 8B5008   		movl	8(%eax), %edx	 # ntp_1(D)->p_prio, D.2800
 453 048c A1180000 		movl	_rlist+24, %eax	 # rlist.r_current, D.2801
 453      00
 454 0491 8B4008   		movl	8(%eax), %eax	 # D.2801_4->p_prio, D.2802
 455 0494 39C2     		cmpl	%eax, %edx	 # D.2802, D.2800
 456 0496 7749     		ja	L21	 #,
 457 0498 A1980000 		movl	LPBX1+152, %eax	 # *LPBX1, PROF_edge_counter.7
 457      00
 458 049d 8B159C00 		movl	LPBX1+156, %edx	 # *LPBX1, PROF_edge_counter.7
 458      0000
 459 04a3 83C001   		addl	$1, %eax	 #, PROF_edge_counter.7
 460 04a6 83D200   		adcl	$0, %edx	 #, PROF_edge_counter.7
 461 04a9 A3980000 		movl	%eax, LPBX1+152	 # PROF_edge_counter.7, *LPBX1
 461      00
 462 04ae 89159C00 		movl	%edx, LPBX1+156	 # PROF_edge_counter.7, *LPBX1
 462      0000
 463              		.loc 1 228 0
 464 04b4 8B442430 		movl	48(%esp), %eax	 # ntp, tmp78
 465 04b8 890424   		movl	%eax, (%esp)	 # tmp78,
 466 04bb E895FBFF 		call	_chSchReadyI	 #
 466      FF
 467 04c0 A1A80000 		movl	LPBX1+168, %eax	 # *LPBX1, PROF_edge_counter.7
 467      00
 468 04c5 8B15AC00 		movl	LPBX1+172, %edx	 # *LPBX1, PROF_edge_counter.7
 468      0000
 469 04cb 83C001   		addl	$1, %eax	 #, PROF_edge_counter.7
 470 04ce 83D200   		adcl	$0, %edx	 #, PROF_edge_counter.7
 471 04d1 A3A80000 		movl	%eax, LPBX1+168	 # PROF_edge_counter.7, *LPBX1
 471      00
 472 04d6 8915AC00 		movl	%edx, LPBX1+172	 # PROF_edge_counter.7, *LPBX1
 472      0000
 473 04dc E9AD0000 		jmp	L20	 #
 473      00
 474              	L21:
 475 04e1 A1A00000 		movl	LPBX1+160, %eax	 # *LPBX1, PROF_edge_counter.7
 475      00
 476 04e6 8B15A400 		movl	LPBX1+164, %edx	 # *LPBX1, PROF_edge_counter.7
 476      0000
 477 04ec 83C001   		addl	$1, %eax	 #, PROF_edge_counter.7
 478 04ef 83D200   		adcl	$0, %edx	 #, PROF_edge_counter.7
 479 04f2 A3A00000 		movl	%eax, LPBX1+160	 # PROF_edge_counter.7, *LPBX1
 479      00
 480 04f7 8915A400 		movl	%edx, LPBX1+164	 # PROF_edge_counter.7, *LPBX1
 480      0000
 481              	LBB3:
 482              		.loc 1 230 0
 483 04fd A1180000 		movl	_rlist+24, %eax	 # rlist.r_current, D.2806
 483      00
 484 0502 890424   		movl	%eax, (%esp)	 # D.2806,
 485 0505 E84BFBFF 		call	_chSchReadyI	 #
 485      FF
GAS LISTING C:\cygwin\tmp\ccbLArfy.s 			page 12


 486 050a 8944241C 		movl	%eax, 28(%esp)	 # tmp79, otp
 487 050e A1B00000 		movl	LPBX1+176, %eax	 # *LPBX1, PROF_edge_counter.7
 487      00
 488 0513 8B15B400 		movl	LPBX1+180, %edx	 # *LPBX1, PROF_edge_counter.7
 488      0000
 489 0519 83C001   		addl	$1, %eax	 #, PROF_edge_counter.7
 490 051c 83D200   		adcl	$0, %edx	 #, PROF_edge_counter.7
 491 051f A3B00000 		movl	%eax, LPBX1+176	 # PROF_edge_counter.7, *LPBX1
 491      00
 492 0524 8915B400 		movl	%edx, LPBX1+180	 # PROF_edge_counter.7, *LPBX1
 492      0000
 493              		.loc 1 231 0
 494 052a 8B442430 		movl	48(%esp), %eax	 # ntp, tmp80
 495 052e A3180000 		movl	%eax, _rlist+24	 # tmp80, rlist.r_current
 495      00
 496              		.loc 1 232 0
 497 0533 8B442430 		movl	48(%esp), %eax	 # ntp, tmp81
 498 0537 C6401C01 		movb	$1, 28(%eax)	 #, ntp_1(D)->p_state
 499              		.loc 1 233 0
 500 053b 8B44241C 		movl	28(%esp), %eax	 # otp, tmp82
 501 053f 890424   		movl	%eax, (%esp)	 # tmp82,
 502 0542 E8000000 		call	_dbg_trace	 #
 502      00
 503 0547 A1B80000 		movl	LPBX1+184, %eax	 # *LPBX1, PROF_edge_counter.7
 503      00
 504 054c 8B15BC00 		movl	LPBX1+188, %edx	 # *LPBX1, PROF_edge_counter.7
 504      0000
 505 0552 83C001   		addl	$1, %eax	 #, PROF_edge_counter.7
 506 0555 83D200   		adcl	$0, %edx	 #, PROF_edge_counter.7
 507 0558 A3B80000 		movl	%eax, LPBX1+184	 # PROF_edge_counter.7, *LPBX1
 507      00
 508 055d 8915BC00 		movl	%edx, LPBX1+188	 # PROF_edge_counter.7, *LPBX1
 508      0000
 509 0563 8B44241C 		movl	28(%esp), %eax	 # otp, tmp83
 510 0567 89C2     		movl	%eax, %edx	 # tmp83,
 511 0569 8B4C2430 		movl	48(%esp), %ecx	 # ntp,
 512 056d E8000000 		call	@port_switch@8	 #
 512      00
 513 0572 A1C00000 		movl	LPBX1+192, %eax	 # *LPBX1, PROF_edge_counter.7
 513      00
 514 0577 8B15C400 		movl	LPBX1+196, %edx	 # *LPBX1, PROF_edge_counter.7
 514      0000
 515 057d 83C001   		addl	$1, %eax	 #, PROF_edge_counter.7
 516 0580 83D200   		adcl	$0, %edx	 #, PROF_edge_counter.7
 517 0583 A3C00000 		movl	%eax, LPBX1+192	 # PROF_edge_counter.7, *LPBX1
 517      00
 518 0588 8915C400 		movl	%edx, LPBX1+196	 # PROF_edge_counter.7, *LPBX1
 518      0000
 519              	L20:
 520              	LBE3:
 521              		.loc 1 235 0
 522 058e 83C42C   		addl	$44, %esp	 #,
 523              	LCFI11:
 524              		.cfi_def_cfa_offset 4
 525 0591 C3       		ret
 526              		.cfi_endproc
 527              	LFE5:
GAS LISTING C:\cygwin\tmp\ccbLArfy.s 			page 13


 528              		.globl	_chSchRescheduleS
 529              		.def	_chSchRescheduleS;	.scl	2;	.type	32;	.endef
 530              	_chSchRescheduleS:
 531              	LFB6:
 532              		.loc 1 246 0
 533              		.cfi_startproc
 534 0592 83EC0C   		subl	$12, %esp	 #,
 535              	LCFI12:
 536              		.cfi_def_cfa_offset 16
 537              		.loc 1 246 0
 538 0595 A1800000 		movl	LPBX1+128, %eax	 # *LPBX1, PROF_edge_counter.6
 538      00
 539 059a 8B158400 		movl	LPBX1+132, %edx	 # *LPBX1, PROF_edge_counter.6
 539      0000
 540 05a0 83C001   		addl	$1, %eax	 #, PROF_edge_counter.6
 541 05a3 83D200   		adcl	$0, %edx	 #, PROF_edge_counter.6
 542 05a6 A3800000 		movl	%eax, LPBX1+128	 # PROF_edge_counter.6, *LPBX1
 542      00
 543 05ab 89158400 		movl	%edx, LPBX1+132	 # PROF_edge_counter.6, *LPBX1
 543      0000
 544              		.loc 1 250 0
 545 05b1 A1000000 		movl	_rlist, %eax	 # rlist.r_queue.p_next, D.2794
 545      00
 546 05b6 8B5008   		movl	8(%eax), %edx	 # D.2794_1->p_prio, D.2795
 547 05b9 A1180000 		movl	_rlist+24, %eax	 # rlist.r_current, D.2796
 547      00
 548 05be 8B4008   		movl	8(%eax), %eax	 # D.2796_3->p_prio, D.2797
 549 05c1 39C2     		cmpl	%eax, %edx	 # D.2797, D.2795
 550 05c3 763D     		jbe	L23	 #,
 551 05c5 A1880000 		movl	LPBX1+136, %eax	 # *LPBX1, PROF_edge_counter.6
 551      00
 552 05ca 8B158C00 		movl	LPBX1+140, %edx	 # *LPBX1, PROF_edge_counter.6
 552      0000
 553 05d0 83C001   		addl	$1, %eax	 #, PROF_edge_counter.6
 554 05d3 83D200   		adcl	$0, %edx	 #, PROF_edge_counter.6
 555 05d6 A3880000 		movl	%eax, LPBX1+136	 # PROF_edge_counter.6, *LPBX1
 555      00
 556 05db 89158C00 		movl	%edx, LPBX1+140	 # PROF_edge_counter.6, *LPBX1
 556      0000
 557              		.loc 1 251 0
 558 05e1 E8860100 		call	_chSchDoRescheduleAhead	 #
 558      00
 559 05e6 A1900000 		movl	LPBX1+144, %eax	 # *LPBX1, PROF_edge_counter.6
 559      00
 560 05eb 8B159400 		movl	LPBX1+148, %edx	 # *LPBX1, PROF_edge_counter.6
 560      0000
 561 05f1 83C001   		addl	$1, %eax	 #, PROF_edge_counter.6
 562 05f4 83D200   		adcl	$0, %edx	 #, PROF_edge_counter.6
 563 05f7 A3900000 		movl	%eax, LPBX1+144	 # PROF_edge_counter.6, *LPBX1
 563      00
 564 05fc 89159400 		movl	%edx, LPBX1+148	 # PROF_edge_counter.6, *LPBX1
 564      0000
 565              	L23:
 566              		.loc 1 252 0
 567 0602 83C40C   		addl	$12, %esp	 #,
 568              	LCFI13:
 569              		.cfi_def_cfa_offset 4
GAS LISTING C:\cygwin\tmp\ccbLArfy.s 			page 14


 570 0605 C3       		ret
 571              		.cfi_endproc
 572              	LFE6:
 573              		.globl	_chSchIsPreemptionRequired
 574              		.def	_chSchIsPreemptionRequired;	.scl	2;	.type	32;	.endef
 575              	_chSchIsPreemptionRequired:
 576              	LFB7:
 577              		.loc 1 269 0
 578              		.cfi_startproc
 579 0606 83EC14   		subl	$20, %esp	 #,
 580              	LCFI14:
 581              		.cfi_def_cfa_offset 24
 582              		.loc 1 270 0
 583 0609 A1000000 		movl	_rlist, %eax	 # rlist.r_queue.p_next, D.2784
 583      00
 584 060e 8B4008   		movl	8(%eax), %eax	 # D.2784_2->p_prio, tmp70
 585 0611 8944240C 		movl	%eax, 12(%esp)	 # tmp70, p1
 586              		.loc 1 271 0
 587 0615 A1180000 		movl	_rlist+24, %eax	 # rlist.r_current, D.2785
 587      00
 588 061a 8B4008   		movl	8(%eax), %eax	 # D.2785_4->p_prio, tmp71
 589 061d 89442408 		movl	%eax, 8(%esp)	 # tmp71, p2
 590              		.loc 1 277 0
 591 0621 A1180000 		movl	_rlist+24, %eax	 # rlist.r_current, D.2788
 591      00
 592 0626 8A401F   		movb	31(%eax), %al	 # D.2788_6->p_preempt, D.2789
 593 0629 84C0     		testb	%al, %al	 # D.2789
 594 062b 7429     		je	L26	 #,
 595              		.loc 1 277 0 is_stmt 0 discriminator 1
 596 062d 8B44240C 		movl	12(%esp), %eax	 # p1, tmp72
 597 0631 3B442408 		cmpl	8(%esp), %eax	 # p2, tmp72
 598 0635 0F97C1   		seta	%cl	 #, iftmp.0
 599 0638 A1700000 		movl	LPBX1+112, %eax	 # *LPBX1, PROF_edge_counter.5
 599      00
 600 063d 8B157400 		movl	LPBX1+116, %edx	 # *LPBX1, PROF_edge_counter.5
 600      0000
 601 0643 83C001   		addl	$1, %eax	 #, PROF_edge_counter.5
 602 0646 83D200   		adcl	$0, %edx	 #, PROF_edge_counter.5
 603 0649 A3700000 		movl	%eax, LPBX1+112	 # PROF_edge_counter.5, *LPBX1
 603      00
 604 064e 89157400 		movl	%edx, LPBX1+116	 # PROF_edge_counter.5, *LPBX1
 604      0000
 605 0654 EB27     		jmp	L27	 #
 606              	L26:
 607              		.loc 1 277 0 discriminator 2
 608 0656 8B44240C 		movl	12(%esp), %eax	 # p1, tmp73
 609 065a 3B442408 		cmpl	8(%esp), %eax	 # p2, tmp73
 610 065e 0F93C1   		setae	%cl	 #, iftmp.0
 611 0661 A1780000 		movl	LPBX1+120, %eax	 # *LPBX1, PROF_edge_counter.5
 611      00
 612 0666 8B157C00 		movl	LPBX1+124, %edx	 # *LPBX1, PROF_edge_counter.5
 612      0000
 613 066c 83C001   		addl	$1, %eax	 #, PROF_edge_counter.5
 614 066f 83D200   		adcl	$0, %edx	 #, PROF_edge_counter.5
 615 0672 A3780000 		movl	%eax, LPBX1+120	 # PROF_edge_counter.5, *LPBX1
 615      00
 616 0677 89157C00 		movl	%edx, LPBX1+124	 # PROF_edge_counter.5, *LPBX1
GAS LISTING C:\cygwin\tmp\ccbLArfy.s 			page 15


 616      0000
 617              	L27:
 618              		.loc 1 277 0 discriminator 3
 619 067d 88C8     		movb	%cl, %al	 # iftmp.0, D.2786
 620              		.loc 1 283 0 is_stmt 1 discriminator 3
 621 067f 83C414   		addl	$20, %esp	 #,
 622              	LCFI15:
 623              		.cfi_def_cfa_offset 4
 624 0682 C3       		ret
 625              		.cfi_endproc
 626              	LFE7:
 627              		.globl	_chSchDoRescheduleBehind
 628              		.def	_chSchDoRescheduleBehind;	.scl	2;	.type	32;	.endef
 629              	_chSchDoRescheduleBehind:
 630              	LFB8:
 631              		.loc 1 297 0
 632              		.cfi_startproc
 633 0683 83EC2C   		subl	$44, %esp	 #,
 634              	LCFI16:
 635              		.cfi_def_cfa_offset 48
 636              		.loc 1 297 0
 637 0686 A1480000 		movl	LPBX1+72, %eax	 # *LPBX1, PROF_edge_counter.4
 637      00
 638 068b 8B154C00 		movl	LPBX1+76, %edx	 # *LPBX1, PROF_edge_counter.4
 638      0000
 639 0691 83C001   		addl	$1, %eax	 #, PROF_edge_counter.4
 640 0694 83D200   		adcl	$0, %edx	 #, PROF_edge_counter.4
 641 0697 A3480000 		movl	%eax, LPBX1+72	 # PROF_edge_counter.4, *LPBX1
 641      00
 642 069c 89154C00 		movl	%edx, LPBX1+76	 # PROF_edge_counter.4, *LPBX1
 642      0000
 643              		.loc 1 300 0
 644 06a2 A1180000 		movl	_rlist+24, %eax	 # rlist.r_current, tmp72
 644      00
 645 06a7 8944241C 		movl	%eax, 28(%esp)	 # tmp72, otp
 646              		.loc 1 302 0
 647 06ab C7042400 		movl	$_rlist, (%esp)	 #,
 647      000000
 648 06b2 E8000000 		call	_fifo_remove	 #
 648      00
 649 06b7 89C1     		movl	%eax, %ecx	 #, D.2781
 650 06b9 A1500000 		movl	LPBX1+80, %eax	 # *LPBX1, PROF_edge_counter.4
 650      00
 651 06be 8B155400 		movl	LPBX1+84, %edx	 # *LPBX1, PROF_edge_counter.4
 651      0000
 652 06c4 83C001   		addl	$1, %eax	 #, PROF_edge_counter.4
 653 06c7 83D200   		adcl	$0, %edx	 #, PROF_edge_counter.4
 654 06ca A3500000 		movl	%eax, LPBX1+80	 # PROF_edge_counter.4, *LPBX1
 654      00
 655 06cf 89155400 		movl	%edx, LPBX1+84	 # PROF_edge_counter.4, *LPBX1
 655      0000
 656 06d5 890D1800 		movl	%ecx, _rlist+24	 # D.2781, rlist.r_current
 656      0000
 657              		.loc 1 303 0
 658 06db A1180000 		movl	_rlist+24, %eax	 # rlist.r_current, D.2782
 658      00
 659 06e0 C6401C01 		movb	$1, 28(%eax)	 #, D.2782_3->p_state
GAS LISTING C:\cygwin\tmp\ccbLArfy.s 			page 16


 660              		.loc 1 305 0
 661 06e4 8B44241C 		movl	28(%esp), %eax	 # otp, tmp73
 662 06e8 C6401F14 		movb	$20, 31(%eax)	 #, otp_1->p_preempt
 663              		.loc 1 307 0
 664 06ec 8B44241C 		movl	28(%esp), %eax	 # otp, tmp74
 665 06f0 890424   		movl	%eax, (%esp)	 # tmp74,
 666 06f3 E85DF9FF 		call	_chSchReadyI	 #
 666      FF
 667 06f8 A1580000 		movl	LPBX1+88, %eax	 # *LPBX1, PROF_edge_counter.4
 667      00
 668 06fd 8B155C00 		movl	LPBX1+92, %edx	 # *LPBX1, PROF_edge_counter.4
 668      0000
 669 0703 83C001   		addl	$1, %eax	 #, PROF_edge_counter.4
 670 0706 83D200   		adcl	$0, %edx	 #, PROF_edge_counter.4
 671 0709 A3580000 		movl	%eax, LPBX1+88	 # PROF_edge_counter.4, *LPBX1
 671      00
 672 070e 89155C00 		movl	%edx, LPBX1+92	 # PROF_edge_counter.4, *LPBX1
 672      0000
 673              		.loc 1 308 0
 674 0714 8B44241C 		movl	28(%esp), %eax	 # otp, tmp75
 675 0718 890424   		movl	%eax, (%esp)	 # tmp75,
 676 071b E8000000 		call	_dbg_trace	 #
 676      00
 677 0720 A1600000 		movl	LPBX1+96, %eax	 # *LPBX1, PROF_edge_counter.4
 677      00
 678 0725 8B156400 		movl	LPBX1+100, %edx	 # *LPBX1, PROF_edge_counter.4
 678      0000
 679 072b 83C001   		addl	$1, %eax	 #, PROF_edge_counter.4
 680 072e 83D200   		adcl	$0, %edx	 #, PROF_edge_counter.4
 681 0731 A3600000 		movl	%eax, LPBX1+96	 # PROF_edge_counter.4, *LPBX1
 681      00
 682 0736 89156400 		movl	%edx, LPBX1+100	 # PROF_edge_counter.4, *LPBX1
 682      0000
 683 073c A1180000 		movl	_rlist+24, %eax	 # rlist.r_current, D.2783
 683      00
 684 0741 8B54241C 		movl	28(%esp), %edx	 # otp, tmp76
 685 0745 89C1     		movl	%eax, %ecx	 # D.2783,
 686 0747 E8000000 		call	@port_switch@8	 #
 686      00
 687 074c A1680000 		movl	LPBX1+104, %eax	 # *LPBX1, PROF_edge_counter.4
 687      00
 688 0751 8B156C00 		movl	LPBX1+108, %edx	 # *LPBX1, PROF_edge_counter.4
 688      0000
 689 0757 83C001   		addl	$1, %eax	 #, PROF_edge_counter.4
 690 075a 83D200   		adcl	$0, %edx	 #, PROF_edge_counter.4
 691 075d A3680000 		movl	%eax, LPBX1+104	 # PROF_edge_counter.4, *LPBX1
 691      00
 692 0762 89156C00 		movl	%edx, LPBX1+108	 # PROF_edge_counter.4, *LPBX1
 692      0000
 693              		.loc 1 309 0
 694 0768 83C42C   		addl	$44, %esp	 #,
 695              	LCFI17:
 696              		.cfi_def_cfa_offset 4
 697 076b C3       		ret
 698              		.cfi_endproc
 699              	LFE8:
 700              		.globl	_chSchDoRescheduleAhead
GAS LISTING C:\cygwin\tmp\ccbLArfy.s 			page 17


 701              		.def	_chSchDoRescheduleAhead;	.scl	2;	.type	32;	.endef
 702              	_chSchDoRescheduleAhead:
 703              	LFB9:
 704              		.loc 1 322 0
 705              		.cfi_startproc
 706 076c 83EC2C   		subl	$44, %esp	 #,
 707              	LCFI18:
 708              		.cfi_def_cfa_offset 48
 709              		.loc 1 322 0
 710 076f A1200000 		movl	LPBX1+32, %eax	 # *LPBX1, PROF_edge_counter.3
 710      00
 711 0774 8B152400 		movl	LPBX1+36, %edx	 # *LPBX1, PROF_edge_counter.3
 711      0000
 712 077a 83C001   		addl	$1, %eax	 #, PROF_edge_counter.3
 713 077d 83D200   		adcl	$0, %edx	 #, PROF_edge_counter.3
 714 0780 A3200000 		movl	%eax, LPBX1+32	 # PROF_edge_counter.3, *LPBX1
 714      00
 715 0785 89152400 		movl	%edx, LPBX1+36	 # PROF_edge_counter.3, *LPBX1
 715      0000
 716              		.loc 1 325 0
 717 078b A1180000 		movl	_rlist+24, %eax	 # rlist.r_current, tmp77
 717      00
 718 0790 89442418 		movl	%eax, 24(%esp)	 # tmp77, otp
 719              		.loc 1 327 0
 720 0794 C7042400 		movl	$_rlist, (%esp)	 #,
 720      000000
 721 079b E8000000 		call	_fifo_remove	 #
 721      00
 722 07a0 A3180000 		movl	%eax, _rlist+24	 # D.2773, rlist.r_current
 722      00
 723              		.loc 1 328 0
 724 07a5 A1180000 		movl	_rlist+24, %eax	 # rlist.r_current, D.2774
 724      00
 725 07aa C6401C01 		movb	$1, 28(%eax)	 #, D.2774_4->p_state
 726              		.loc 1 330 0
 727 07ae 8B442418 		movl	24(%esp), %eax	 # otp, tmp78
 728 07b2 C6401C00 		movb	$0, 28(%eax)	 #, otp_2->p_state
 729              		.loc 1 331 0
 730 07b6 C744241C 		movl	$_rlist, 28(%esp)	 #, cp
 730      00000000 
 731              	L31:
 732              		.loc 1 333 0 discriminator 1
 733 07be 8B44241C 		movl	28(%esp), %eax	 # cp, tmp79
 734 07c2 8B00     		movl	(%eax), %eax	 # cp_1->p_next, tmp80
 735 07c4 8944241C 		movl	%eax, 28(%esp)	 # tmp80, cp
 736              		.loc 1 334 0 discriminator 1
 737 07c8 8B44241C 		movl	28(%esp), %eax	 # cp, tmp81
 738 07cc 8B5008   		movl	8(%eax), %edx	 # cp_6->p_prio, D.2775
 739 07cf 8B442418 		movl	24(%esp), %eax	 # otp, tmp82
 740 07d3 8B4008   		movl	8(%eax), %eax	 # otp_2->p_prio, D.2776
 741 07d6 39C2     		cmpl	%eax, %edx	 # D.2776, D.2775
 742 07d8 761E     		jbe	L30	 #,
 743              		.loc 1 334 0 is_stmt 0
 744 07da A1280000 		movl	LPBX1+40, %eax	 # *LPBX1, PROF_edge_counter.3
 744      00
 745 07df 8B152C00 		movl	LPBX1+44, %edx	 # *LPBX1, PROF_edge_counter.3
 745      0000
GAS LISTING C:\cygwin\tmp\ccbLArfy.s 			page 18


 746 07e5 83C001   		addl	$1, %eax	 #, PROF_edge_counter.3
 747 07e8 83D200   		adcl	$0, %edx	 #, PROF_edge_counter.3
 748 07eb A3280000 		movl	%eax, LPBX1+40	 # PROF_edge_counter.3, *LPBX1
 748      00
 749 07f0 89152C00 		movl	%edx, LPBX1+44	 # PROF_edge_counter.3, *LPBX1
 749      0000
 750 07f6 EBC6     		jmp	L31	 #
 751              	L30:
 752 07f8 A1300000 		movl	LPBX1+48, %eax	 # *LPBX1, PROF_edge_counter.3
 752      00
 753 07fd 8B153400 		movl	LPBX1+52, %edx	 # *LPBX1, PROF_edge_counter.3
 753      0000
 754 0803 83C001   		addl	$1, %eax	 #, PROF_edge_counter.3
 755 0806 83D200   		adcl	$0, %edx	 #, PROF_edge_counter.3
 756 0809 A3300000 		movl	%eax, LPBX1+48	 # PROF_edge_counter.3, *LPBX1
 756      00
 757 080e 89153400 		movl	%edx, LPBX1+52	 # PROF_edge_counter.3, *LPBX1
 757      0000
 758              		.loc 1 336 0 is_stmt 1
 759 0814 8B442418 		movl	24(%esp), %eax	 # otp, tmp83
 760 0818 8B54241C 		movl	28(%esp), %edx	 # cp, tmp84
 761 081c 8910     		movl	%edx, (%eax)	 # tmp84, otp_2->p_next
 762              		.loc 1 337 0
 763 081e 8B44241C 		movl	28(%esp), %eax	 # cp, tmp85
 764 0822 8B5004   		movl	4(%eax), %edx	 # cp_6->p_prev, D.2777
 765 0825 8B442418 		movl	24(%esp), %eax	 # otp, tmp86
 766 0829 895004   		movl	%edx, 4(%eax)	 # D.2777, otp_2->p_prev
 767              		.loc 1 338 0
 768 082c 8B442418 		movl	24(%esp), %eax	 # otp, tmp87
 769 0830 8B4004   		movl	4(%eax), %eax	 # otp_2->p_prev, D.2778
 770 0833 8B54241C 		movl	28(%esp), %edx	 # cp, tmp88
 771 0837 8B4C2418 		movl	24(%esp), %ecx	 # otp, tmp89
 772 083b 894A04   		movl	%ecx, 4(%edx)	 # tmp89, cp_6->p_prev
 773 083e 8B54241C 		movl	28(%esp), %edx	 # cp, tmp90
 774 0842 8B5204   		movl	4(%edx), %edx	 # cp_6->p_prev, D.2779
 775 0845 8910     		movl	%edx, (%eax)	 # D.2779, D.2778_10->p_next
 776              		.loc 1 340 0
 777 0847 8B442418 		movl	24(%esp), %eax	 # otp, tmp91
 778 084b 890424   		movl	%eax, (%esp)	 # tmp91,
 779 084e E8000000 		call	_dbg_trace	 #
 779      00
 780 0853 A1380000 		movl	LPBX1+56, %eax	 # *LPBX1, PROF_edge_counter.3
 780      00
 781 0858 8B153C00 		movl	LPBX1+60, %edx	 # *LPBX1, PROF_edge_counter.3
 781      0000
 782 085e 83C001   		addl	$1, %eax	 #, PROF_edge_counter.3
 783 0861 83D200   		adcl	$0, %edx	 #, PROF_edge_counter.3
 784 0864 A3380000 		movl	%eax, LPBX1+56	 # PROF_edge_counter.3, *LPBX1
 784      00
 785 0869 89153C00 		movl	%edx, LPBX1+60	 # PROF_edge_counter.3, *LPBX1
 785      0000
 786 086f A1180000 		movl	_rlist+24, %eax	 # rlist.r_current, D.2780
 786      00
 787 0874 8B542418 		movl	24(%esp), %edx	 # otp, tmp92
 788 0878 89C1     		movl	%eax, %ecx	 # D.2780,
 789 087a E8000000 		call	@port_switch@8	 #
 789      00
GAS LISTING C:\cygwin\tmp\ccbLArfy.s 			page 19


 790 087f A1400000 		movl	LPBX1+64, %eax	 # *LPBX1, PROF_edge_counter.3
 790      00
 791 0884 8B154400 		movl	LPBX1+68, %edx	 # *LPBX1, PROF_edge_counter.3
 791      0000
 792 088a 83C001   		addl	$1, %eax	 #, PROF_edge_counter.3
 793 088d 83D200   		adcl	$0, %edx	 #, PROF_edge_counter.3
 794 0890 A3400000 		movl	%eax, LPBX1+64	 # PROF_edge_counter.3, *LPBX1
 794      00
 795 0895 89154400 		movl	%edx, LPBX1+68	 # PROF_edge_counter.3, *LPBX1
 795      0000
 796              		.loc 1 341 0
 797 089b 83C42C   		addl	$44, %esp	 #,
 798              	LCFI19:
 799              		.cfi_def_cfa_offset 4
 800 089e C3       		ret
 801              		.cfi_endproc
 802              	LFE9:
 803              		.globl	_chSchDoReschedule
 804              		.def	_chSchDoReschedule;	.scl	2;	.type	32;	.endef
 805              	_chSchDoReschedule:
 806              	LFB10:
 807              		.loc 1 355 0
 808              		.cfi_startproc
 809 089f 83EC0C   		subl	$12, %esp	 #,
 810              	LCFI20:
 811              		.cfi_def_cfa_offset 16
 812              		.loc 1 360 0
 813 08a2 A1180000 		movl	_rlist+24, %eax	 # rlist.r_current, D.2768
 813      00
 814 08a7 8A401F   		movb	31(%eax), %al	 # D.2768_1->p_preempt, D.2769
 815 08aa 84C0     		testb	%al, %al	 # D.2769
 816 08ac 753F     		jne	L33	 #,
 817 08ae A1000000 		movl	LPBX1, %eax	 # *LPBX1, PROF_edge_counter.2
 817      00
 818 08b3 8B150400 		movl	LPBX1+4, %edx	 # *LPBX1, PROF_edge_counter.2
 818      0000
 819 08b9 83C001   		addl	$1, %eax	 #, PROF_edge_counter.2
 820 08bc 83D200   		adcl	$0, %edx	 #, PROF_edge_counter.2
 821 08bf A3000000 		movl	%eax, LPBX1	 # PROF_edge_counter.2, *LPBX1
 821      00
 822 08c4 89150400 		movl	%edx, LPBX1+4	 # PROF_edge_counter.2, *LPBX1
 822      0000
 823              		.loc 1 363 0
 824 08ca E8B4FDFF 		call	_chSchDoRescheduleBehind	 #
 824      FF
 825 08cf A1100000 		movl	LPBX1+16, %eax	 # *LPBX1, PROF_edge_counter.2
 825      00
 826 08d4 8B151400 		movl	LPBX1+20, %edx	 # *LPBX1, PROF_edge_counter.2
 826      0000
 827 08da 83C001   		addl	$1, %eax	 #, PROF_edge_counter.2
 828 08dd 83D200   		adcl	$0, %edx	 #, PROF_edge_counter.2
 829 08e0 A3100000 		movl	%eax, LPBX1+16	 # PROF_edge_counter.2, *LPBX1
 829      00
 830 08e5 89151400 		movl	%edx, LPBX1+20	 # PROF_edge_counter.2, *LPBX1
 830      0000
 831 08eb EB3D     		jmp	L32	 #
 832              	L33:
GAS LISTING C:\cygwin\tmp\ccbLArfy.s 			page 20


 833 08ed A1080000 		movl	LPBX1+8, %eax	 # *LPBX1, PROF_edge_counter.2
 833      00
 834 08f2 8B150C00 		movl	LPBX1+12, %edx	 # *LPBX1, PROF_edge_counter.2
 834      0000
 835 08f8 83C001   		addl	$1, %eax	 #, PROF_edge_counter.2
 836 08fb 83D200   		adcl	$0, %edx	 #, PROF_edge_counter.2
 837 08fe A3080000 		movl	%eax, LPBX1+8	 # PROF_edge_counter.2, *LPBX1
 837      00
 838 0903 89150C00 		movl	%edx, LPBX1+12	 # PROF_edge_counter.2, *LPBX1
 838      0000
 839              		.loc 1 368 0
 840 0909 E85EFEFF 		call	_chSchDoRescheduleAhead	 #
 840      FF
 841 090e A1180000 		movl	LPBX1+24, %eax	 # *LPBX1, PROF_edge_counter.2
 841      00
 842 0913 8B151C00 		movl	LPBX1+28, %edx	 # *LPBX1, PROF_edge_counter.2
 842      0000
 843 0919 83C001   		addl	$1, %eax	 #, PROF_edge_counter.2
 844 091c 83D200   		adcl	$0, %edx	 #, PROF_edge_counter.2
 845 091f A3180000 		movl	%eax, LPBX1+24	 # PROF_edge_counter.2, *LPBX1
 845      00
 846 0924 89151C00 		movl	%edx, LPBX1+28	 # PROF_edge_counter.2, *LPBX1
 846      0000
 847              	L32:
 848              		.loc 1 375 0
 849 092a 83C40C   		addl	$12, %esp	 #,
 850              	LCFI21:
 851              		.cfi_def_cfa_offset 4
 852 092d C3       		ret
 853              		.cfi_endproc
 854              	LFE10:
 855              	.lcomm LPBX1,376,32
 856              		.section .rdata,"dr"
 857              		.align 4
 858              	LC0:
 859 0000 433A5C64 		.ascii "C:\\develop\\gyro\\ChibiOS\\test\\coverage/../../os/kernel/src/chschd.gcda\0"
 859      6576656C 
 859      6F705C67 
 859      79726F5C 
 859      43686962 
 860 0046 0000     		.data
 861              		.align 32
 862              	LC1:
 863              	 # <anonymous>:
 864 0000 0B000000 		.long	11
 865              	 # <anonymous>:
 866 0004 D430E445 		.long	1172582612
 867              	 # <anonymous>:
 868 0008 04000000 		.long	4
 869              	 # <anonymous>:
 870 000c 0A000000 		.long	10
 871              	 # <anonymous>:
 872 0010 2FBF56C5 		.long	-984170705
 873              	 # <anonymous>:
 874 0014 05000000 		.long	5
 875              	 # <anonymous>:
 876 0018 09000000 		.long	9
GAS LISTING C:\cygwin\tmp\ccbLArfy.s 			page 21


 877              	 # <anonymous>:
 878 001c 277163BF 		.long	-1084002009
 879              	 # <anonymous>:
 880 0020 05000000 		.long	5
 881              	 # <anonymous>:
 882 0024 08000000 		.long	8
 883              	 # <anonymous>:
 884 0028 E11D9F31 		.long	832511457
 885              	 # <anonymous>:
 886 002c 02000000 		.long	2
 887              	 # <anonymous>:
 888 0030 07000000 		.long	7
 889              	 # <anonymous>:
 890 0034 B7C8F8DC 		.long	-587675465
 891              	 # <anonymous>:
 892 0038 03000000 		.long	3
 893              	 # <anonymous>:
 894 003c 06000000 		.long	6
 895              	 # <anonymous>:
 896 0040 6DE25796 		.long	-1772625299
 897              	 # <anonymous>:
 898 0044 06000000 		.long	6
 899              	 # <anonymous>:
 900 0048 05000000 		.long	5
 901              	 # <anonymous>:
 902 004c 044F9090 		.long	-1869590780
 903              	 # <anonymous>:
 904 0050 07000000 		.long	7
 905              	 # <anonymous>:
 906 0054 04000000 		.long	4
 907              	 # <anonymous>:
 908 0058 3E902793 		.long	-1826123714
 909              	 # <anonymous>:
 910 005c 06000000 		.long	6
 911              	 # <anonymous>:
 912 0060 03000000 		.long	3
 913              	 # <anonymous>:
 914 0064 CBC4262D 		.long	757515467
 915              	 # <anonymous>:
 916 0068 04000000 		.long	4
 917              	 # <anonymous>:
 918 006c 02000000 		.long	2
 919              	 # <anonymous>:
 920 0070 30B2EFD3 		.long	-739266000
 921              	 # <anonymous>:
 922 0074 04000000 		.long	4
 923              	 # <anonymous>:
 924 0078 01000000 		.long	1
 925              	 # <anonymous>:
 926 007c 545A2639 		.long	958814804
 927              	 # <anonymous>:
 928 0080 01000000 		.long	1
 929 0084 00000000 		.align 32
 929      00000000 
 929      00000000 
 929      00000000 
 929      00000000 
GAS LISTING C:\cygwin\tmp\ccbLArfy.s 			page 22


 930              	LPBX0:
 931              	 # <anonymous>:
 932 00a0 2A363034 		.long	875574826
 933              	 # <anonymous>:
 934 00a4 00000000 		.long	0
 935              	 # <anonymous>:
 936 00a8 A2167060 		.long	1617958562
 937              	 # <anonymous>:
 938 00ac 00000000 		.long	LC0
 939              	 # <anonymous>:
 940 00b0 0B000000 		.long	11
 941              	 # <anonymous>:
 942 00b4 00000000 		.long	LC1
 943              	 # <anonymous>:
 944 00b8 01000000 		.long	1
 945              	 # <anonymous>:
 946              	 # <anonymous>:
 947 00bc 2F000000 		.long	47
 948              	 # <anonymous>:
 949 00c0 00000000 		.long	LPBX1
 950              	 # <anonymous>:
 951 00c4 00000000 		.long	___gcov_merge_add
 952 00c8 00000000 		.space 12
 952      00000000 
 952      00000000 
 953 00d4 00000000 		.text
 953      00000000 
 953      00000000 
 954              		.def	__GLOBAL__sub_I_65535_0__scheduler_init;	.scl	3;	.type	32;	.endef
 955              	__GLOBAL__sub_I_65535_0__scheduler_init:
 956              	LFB11:
 957              		.loc 1 375 0
 958              		.cfi_startproc
 959 092e 83EC1C   		subl	$28, %esp	 #,
 960              	LCFI22:
 961              		.cfi_def_cfa_offset 32
 962              		.loc 1 375 0
 963 0931 C70424A0 		movl	$LPBX0, (%esp)	 #,
 963      000000
 964 0938 E8000000 		call	___gcov_init	 #
 964      00
 965 093d 83C41C   		addl	$28, %esp	 #,
 966              	LCFI23:
 967              		.cfi_def_cfa_offset 4
 968 0940 C3       		ret
 969              		.cfi_endproc
 970              	LFE11:
 971              		.section	.ctors,"w"
 972              		.align 4
 973 0000 2E090000 		.long	__GLOBAL__sub_I_65535_0__scheduler_init
 974              		.text
 975              	Letext0:
 976              		.file 2 "c:/mingw/bin/../lib/gcc/mingw32/4.6.2/../../../../include/stdint.h"
 977              		.file 3 "../../os/ports/GCC/SIMIA32/chtypes.h"
 978              		.file 4 "../../os/kernel/include/chlists.h"
 979              		.file 5 "../../os/kernel/include/chthreads.h"
 980              		.file 6 "../../os/ports/GCC/SIMIA32/chcore.h"
GAS LISTING C:\cygwin\tmp\ccbLArfy.s 			page 23


 981              		.file 7 "../../os/kernel/include/chvt.h"
 982              		.file 8 "../../os/kernel/include/chschd.h"
 983              		.file 9 "../../os/kernel/include/chsem.h"
 984              		.file 10 "../../os/kernel/include/chmtx.h"
 985 0941 909090   		.section	.debug_info,"dr"
 986              	Ldebug_info0:
 987 0000 54090000 		.long	0x954
 988 0004 0200     		.word	0x2
 989 0006 00000000 		.secrel32	Ldebug_abbrev0
 990 000a 04       		.byte	0x4
 991 000b 01       		.uleb128 0x1
 992 000c 474E5520 		.ascii "GNU C 4.6.2\0"
 992      4320342E 
 992      362E3200 
 993 0018 01       		.byte	0x1
 994 0019 2E2E2F2E 		.ascii "../../os/kernel/src/chschd.c\0"
 994      2E2F6F73 
 994      2F6B6572 
 994      6E656C2F 
 994      7372632F 
 995 0036 433A5C64 		.ascii "C:\\develop\\gyro\\ChibiOS\\test\\coverage\0"
 995      6576656C 
 995      6F705C67 
 995      79726F5C 
 995      43686962 
 996 005c 00000000 		.long	Ltext0
 997 0060 41090000 		.long	Letext0
 998 0064 00000000 		.secrel32	Ldebug_line0
 999 0068 02       		.uleb128 0x2
 1000 0069 04       		.byte	0x4
 1001 006a 05       		.byte	0x5
 1002 006b 696E7400 		.ascii "int\0"
 1003 006f 02       		.uleb128 0x2
 1004 0070 04       		.byte	0x4
 1005 0071 07       		.byte	0x7
 1006 0072 756E7369 		.ascii "unsigned int\0"
 1006      676E6564 
 1006      20696E74 
 1006      00
 1007 007f 02       		.uleb128 0x2
 1008 0080 02       		.byte	0x2
 1009 0081 07       		.byte	0x7
 1010 0082 73686F72 		.ascii "short unsigned int\0"
 1010      7420756E 
 1010      7369676E 
 1010      65642069 
 1010      6E7400
 1011 0095 02       		.uleb128 0x2
 1012 0096 01       		.byte	0x1
 1013 0097 06       		.byte	0x6
 1014 0098 7369676E 		.ascii "signed char\0"
 1014      65642063 
 1014      68617200 
 1015 00a4 03       		.uleb128 0x3
 1016 00a5 75696E74 		.ascii "uint8_t\0"
 1016      385F7400 
 1017 00ad 02       		.byte	0x2
GAS LISTING C:\cygwin\tmp\ccbLArfy.s 			page 24


 1018 00ae 1C       		.byte	0x1c
 1019 00af B3000000 		.long	0xb3
 1020 00b3 02       		.uleb128 0x2
 1021 00b4 01       		.byte	0x1
 1022 00b5 08       		.byte	0x8
 1023 00b6 756E7369 		.ascii "unsigned char\0"
 1023      676E6564 
 1023      20636861 
 1023      7200
 1024 00c4 02       		.uleb128 0x2
 1025 00c5 02       		.byte	0x2
 1026 00c6 05       		.byte	0x5
 1027 00c7 73686F72 		.ascii "short int\0"
 1027      7420696E 
 1027      7400
 1028 00d1 03       		.uleb128 0x3
 1029 00d2 696E7433 		.ascii "int32_t\0"
 1029      325F7400 
 1030 00da 02       		.byte	0x2
 1031 00db 1F       		.byte	0x1f
 1032 00dc 68000000 		.long	0x68
 1033 00e0 03       		.uleb128 0x3
 1034 00e1 75696E74 		.ascii "uint32_t\0"
 1034      33325F74 
 1034      00
 1035 00ea 02       		.byte	0x2
 1036 00eb 20       		.byte	0x20
 1037 00ec 6F000000 		.long	0x6f
 1038 00f0 02       		.uleb128 0x2
 1039 00f1 08       		.byte	0x8
 1040 00f2 05       		.byte	0x5
 1041 00f3 6C6F6E67 		.ascii "long long int\0"
 1041      206C6F6E 
 1041      6720696E 
 1041      7400
 1042 0101 02       		.uleb128 0x2
 1043 0102 08       		.byte	0x8
 1044 0103 07       		.byte	0x7
 1045 0104 6C6F6E67 		.ascii "long long unsigned int\0"
 1045      206C6F6E 
 1045      6720756E 
 1045      7369676E 
 1045      65642069 
 1046 011b 03       		.uleb128 0x3
 1047 011c 626F6F6C 		.ascii "bool_t\0"
 1047      5F7400
 1048 0123 03       		.byte	0x3
 1049 0124 1C       		.byte	0x1c
 1050 0125 29010000 		.long	0x129
 1051 0129 02       		.uleb128 0x2
 1052 012a 01       		.byte	0x1
 1053 012b 02       		.byte	0x2
 1054 012c 5F426F6F 		.ascii "_Bool\0"
 1054      6C00
 1055 0132 03       		.uleb128 0x3
 1056 0133 746D6F64 		.ascii "tmode_t\0"
 1056      655F7400 
GAS LISTING C:\cygwin\tmp\ccbLArfy.s 			page 25


 1057 013b 03       		.byte	0x3
 1058 013c 1D       		.byte	0x1d
 1059 013d A4000000 		.long	0xa4
 1060 0141 03       		.uleb128 0x3
 1061 0142 74737461 		.ascii "tstate_t\0"
 1061      74655F74 
 1061      00
 1062 014b 03       		.byte	0x3
 1063 014c 1E       		.byte	0x1e
 1064 014d A4000000 		.long	0xa4
 1065 0151 03       		.uleb128 0x3
 1066 0152 74726566 		.ascii "trefs_t\0"
 1066      735F7400 
 1067 015a 03       		.byte	0x3
 1068 015b 1F       		.byte	0x1f
 1069 015c A4000000 		.long	0xa4
 1070 0160 03       		.uleb128 0x3
 1071 0161 74736C69 		.ascii "tslices_t\0"
 1071      6365735F 
 1071      7400
 1072 016b 03       		.byte	0x3
 1073 016c 20       		.byte	0x20
 1074 016d A4000000 		.long	0xa4
 1075 0171 03       		.uleb128 0x3
 1076 0172 74707269 		.ascii "tprio_t\0"
 1076      6F5F7400 
 1077 017a 03       		.byte	0x3
 1078 017b 21       		.byte	0x21
 1079 017c E0000000 		.long	0xe0
 1080 0180 03       		.uleb128 0x3
 1081 0181 6D73675F 		.ascii "msg_t\0"
 1081      7400
 1082 0187 03       		.byte	0x3
 1083 0188 22       		.byte	0x22
 1084 0189 D1000000 		.long	0xd1
 1085 018d 03       		.uleb128 0x3
 1086 018e 6576656E 		.ascii "eventmask_t\0"
 1086      746D6173 
 1086      6B5F7400 
 1087 019a 03       		.byte	0x3
 1088 019b 24       		.byte	0x24
 1089 019c E0000000 		.long	0xe0
 1090 01a0 03       		.uleb128 0x3
 1091 01a1 73797374 		.ascii "systime_t\0"
 1091      696D655F 
 1091      7400
 1092 01ab 03       		.byte	0x3
 1093 01ac 26       		.byte	0x26
 1094 01ad E0000000 		.long	0xe0
 1095 01b1 03       		.uleb128 0x3
 1096 01b2 636E745F 		.ascii "cnt_t\0"
 1096      7400
 1097 01b8 03       		.byte	0x3
 1098 01b9 27       		.byte	0x27
 1099 01ba D1000000 		.long	0xd1
 1100 01be 03       		.uleb128 0x3
 1101 01bf 54687265 		.ascii "Thread\0"
GAS LISTING C:\cygwin\tmp\ccbLArfy.s 			page 26


 1101      616400
 1102 01c6 04       		.byte	0x4
 1103 01c7 23       		.byte	0x23
 1104 01c8 CC010000 		.long	0x1cc
 1105 01cc 04       		.uleb128 0x4
 1106 01cd 54687265 		.ascii "Thread\0"
 1106      616400
 1107 01d4 48       		.byte	0x48
 1108 01d5 05       		.byte	0x5
 1109 01d6 57       		.byte	0x57
 1110 01d7 42030000 		.long	0x342
 1111 01db 05       		.uleb128 0x5
 1112 01dc 20000000 		.secrel32	LASF0
 1113 01e0 05       		.byte	0x5
 1114 01e1 58       		.byte	0x58
 1115 01e2 6A030000 		.long	0x36a
 1116 01e6 02       		.byte	0x2
 1117 01e7 23       		.byte	0x23
 1118 01e8 00       		.uleb128 0
 1119 01e9 06       		.uleb128 0x6
 1120 01ea 705F7072 		.ascii "p_prev\0"
 1120      657600
 1121 01f1 05       		.byte	0x5
 1122 01f2 5A       		.byte	0x5a
 1123 01f3 6A030000 		.long	0x36a
 1124 01f7 02       		.byte	0x2
 1125 01f8 23       		.byte	0x23
 1126 01f9 04       		.uleb128 0x4
 1127 01fa 06       		.uleb128 0x6
 1128 01fb 705F7072 		.ascii "p_prio\0"
 1128      696F00
 1129 0202 05       		.byte	0x5
 1130 0203 5C       		.byte	0x5c
 1131 0204 71010000 		.long	0x171
 1132 0208 02       		.byte	0x2
 1133 0209 23       		.byte	0x23
 1134 020a 08       		.uleb128 0x8
 1135 020b 06       		.uleb128 0x6
 1136 020c 705F6374 		.ascii "p_ctx\0"
 1136      7800
 1137 0212 05       		.byte	0x5
 1138 0213 5D       		.byte	0x5d
 1139 0214 14040000 		.long	0x414
 1140 0218 02       		.byte	0x2
 1141 0219 23       		.byte	0x23
 1142 021a 0C       		.uleb128 0xc
 1143 021b 06       		.uleb128 0x6
 1144 021c 705F6E65 		.ascii "p_newer\0"
 1144      77657200 
 1145 0224 05       		.byte	0x5
 1146 0225 5F       		.byte	0x5f
 1147 0226 6A030000 		.long	0x36a
 1148 022a 02       		.byte	0x2
 1149 022b 23       		.byte	0x23
 1150 022c 10       		.uleb128 0x10
 1151 022d 06       		.uleb128 0x6
 1152 022e 705F6F6C 		.ascii "p_older\0"
GAS LISTING C:\cygwin\tmp\ccbLArfy.s 			page 27


 1152      64657200 
 1153 0236 05       		.byte	0x5
 1154 0237 60       		.byte	0x60
 1155 0238 6A030000 		.long	0x36a
 1156 023c 02       		.byte	0x2
 1157 023d 23       		.byte	0x23
 1158 023e 14       		.uleb128 0x14
 1159 023f 06       		.uleb128 0x6
 1160 0240 705F6E61 		.ascii "p_name\0"
 1160      6D6500
 1161 0247 05       		.byte	0x5
 1162 0248 67       		.byte	0x67
 1163 0249 35060000 		.long	0x635
 1164 024d 02       		.byte	0x2
 1165 024e 23       		.byte	0x23
 1166 024f 18       		.uleb128 0x18
 1167 0250 06       		.uleb128 0x6
 1168 0251 705F7374 		.ascii "p_state\0"
 1168      61746500 
 1169 0259 05       		.byte	0x5
 1170 025a 72       		.byte	0x72
 1171 025b 41010000 		.long	0x141
 1172 025f 02       		.byte	0x2
 1173 0260 23       		.byte	0x23
 1174 0261 1C       		.uleb128 0x1c
 1175 0262 06       		.uleb128 0x6
 1176 0263 705F666C 		.ascii "p_flags\0"
 1176      61677300 
 1177 026b 05       		.byte	0x5
 1178 026c 76       		.byte	0x76
 1179 026d 32010000 		.long	0x132
 1180 0271 02       		.byte	0x2
 1181 0272 23       		.byte	0x23
 1182 0273 1D       		.uleb128 0x1d
 1183 0274 06       		.uleb128 0x6
 1184 0275 705F7265 		.ascii "p_refs\0"
 1184      667300
 1185 027c 05       		.byte	0x5
 1186 027d 7B       		.byte	0x7b
 1187 027e 51010000 		.long	0x151
 1188 0282 02       		.byte	0x2
 1189 0283 23       		.byte	0x23
 1190 0284 1E       		.uleb128 0x1e
 1191 0285 06       		.uleb128 0x6
 1192 0286 705F7072 		.ascii "p_preempt\0"
 1192      65656D70 
 1192      7400
 1193 0290 05       		.byte	0x5
 1194 0291 81       		.byte	0x81
 1195 0292 60010000 		.long	0x160
 1196 0296 02       		.byte	0x2
 1197 0297 23       		.byte	0x23
 1198 0298 1F       		.uleb128 0x1f
 1199 0299 06       		.uleb128 0x6
 1200 029a 705F7469 		.ascii "p_time\0"
 1200      6D6500
 1201 02a1 05       		.byte	0x5
GAS LISTING C:\cygwin\tmp\ccbLArfy.s 			page 28


 1202 02a2 88       		.byte	0x88
 1203 02a3 D7040000 		.long	0x4d7
 1204 02a7 02       		.byte	0x2
 1205 02a8 23       		.byte	0x23
 1206 02a9 20       		.uleb128 0x20
 1207 02aa 06       		.uleb128 0x6
 1208 02ab 705F7500 		.ascii "p_u\0"
 1209 02af 05       		.byte	0x5
 1210 02b0 AD       		.byte	0xad
 1211 02b1 F2050000 		.long	0x5f2
 1212 02b5 02       		.byte	0x2
 1213 02b6 23       		.byte	0x23
 1214 02b7 24       		.uleb128 0x24
 1215 02b8 06       		.uleb128 0x6
 1216 02b9 705F7761 		.ascii "p_waiting\0"
 1216      6974696E 
 1216      6700
 1217 02c3 05       		.byte	0x5
 1218 02c4 B2       		.byte	0xb2
 1219 02c5 9B030000 		.long	0x39b
 1220 02c9 02       		.byte	0x2
 1221 02ca 23       		.byte	0x23
 1222 02cb 28       		.uleb128 0x28
 1223 02cc 06       		.uleb128 0x6
 1224 02cd 705F6D73 		.ascii "p_msgqueue\0"
 1224      67717565 
 1224      756500
 1225 02d8 05       		.byte	0x5
 1226 02d9 B8       		.byte	0xb8
 1227 02da 70030000 		.long	0x370
 1228 02de 02       		.byte	0x2
 1229 02df 23       		.byte	0x23
 1230 02e0 2C       		.uleb128 0x2c
 1231 02e1 06       		.uleb128 0x6
 1232 02e2 705F6D73 		.ascii "p_msg\0"
 1232      6700
 1233 02e8 05       		.byte	0x5
 1234 02e9 BC       		.byte	0xbc
 1235 02ea 80010000 		.long	0x180
 1236 02ee 02       		.byte	0x2
 1237 02ef 23       		.byte	0x23
 1238 02f0 34       		.uleb128 0x34
 1239 02f1 06       		.uleb128 0x6
 1240 02f2 705F6570 		.ascii "p_epending\0"
 1240      656E6469 
 1240      6E6700
 1241 02fd 05       		.byte	0x5
 1242 02fe C2       		.byte	0xc2
 1243 02ff 8D010000 		.long	0x18d
 1244 0303 02       		.byte	0x2
 1245 0304 23       		.byte	0x23
 1246 0305 38       		.uleb128 0x38
 1247 0306 06       		.uleb128 0x6
 1248 0307 705F6D74 		.ascii "p_mtxlist\0"
 1248      786C6973 
 1248      7400
 1249 0311 05       		.byte	0x5
GAS LISTING C:\cygwin\tmp\ccbLArfy.s 			page 29


 1250 0312 C9       		.byte	0xc9
 1251 0313 48060000 		.long	0x648
 1252 0317 02       		.byte	0x2
 1253 0318 23       		.byte	0x23
 1254 0319 3C       		.uleb128 0x3c
 1255 031a 06       		.uleb128 0x6
 1256 031b 705F7265 		.ascii "p_realprio\0"
 1256      616C7072 
 1256      696F00
 1257 0326 05       		.byte	0x5
 1258 0327 CD       		.byte	0xcd
 1259 0328 71010000 		.long	0x171
 1260 032c 02       		.byte	0x2
 1261 032d 23       		.byte	0x23
 1262 032e 40       		.uleb128 0x40
 1263 032f 06       		.uleb128 0x6
 1264 0330 705F6D70 		.ascii "p_mpool\0"
 1264      6F6F6C00 
 1265 0338 05       		.byte	0x5
 1266 0339 D3       		.byte	0xd3
 1267 033a BC030000 		.long	0x3bc
 1268 033e 02       		.byte	0x2
 1269 033f 23       		.byte	0x23
 1270 0340 44       		.uleb128 0x44
 1271 0341 00       		.byte	0
 1272 0342 07       		.uleb128 0x7
 1273 0343 08       		.byte	0x8
 1274 0344 04       		.byte	0x4
 1275 0345 5A       		.byte	0x5a
 1276 0346 6A030000 		.long	0x36a
 1277 034a 05       		.uleb128 0x5
 1278 034b 20000000 		.secrel32	LASF0
 1279 034f 04       		.byte	0x4
 1280 0350 5B       		.byte	0x5b
 1281 0351 6A030000 		.long	0x36a
 1282 0355 02       		.byte	0x2
 1283 0356 23       		.byte	0x23
 1284 0357 00       		.uleb128 0
 1285 0358 06       		.uleb128 0x6
 1286 0359 705F7072 		.ascii "p_prev\0"
 1286      657600
 1287 0360 04       		.byte	0x4
 1288 0361 5D       		.byte	0x5d
 1289 0362 6A030000 		.long	0x36a
 1290 0366 02       		.byte	0x2
 1291 0367 23       		.byte	0x23
 1292 0368 04       		.uleb128 0x4
 1293 0369 00       		.byte	0
 1294 036a 08       		.uleb128 0x8
 1295 036b 04       		.byte	0x4
 1296 036c BE010000 		.long	0x1be
 1297 0370 03       		.uleb128 0x3
 1298 0371 54687265 		.ascii "ThreadsQueue\0"
 1298      61647351 
 1298      75657565 
 1298      00
 1299 037e 04       		.byte	0x4
GAS LISTING C:\cygwin\tmp\ccbLArfy.s 			page 30


 1300 037f 5F       		.byte	0x5f
 1301 0380 42030000 		.long	0x342
 1302 0384 07       		.uleb128 0x7
 1303 0385 04       		.byte	0x4
 1304 0386 04       		.byte	0x4
 1305 0387 64       		.byte	0x64
 1306 0388 9B030000 		.long	0x39b
 1307 038c 05       		.uleb128 0x5
 1308 038d 20000000 		.secrel32	LASF0
 1309 0391 04       		.byte	0x4
 1310 0392 66       		.byte	0x66
 1311 0393 6A030000 		.long	0x36a
 1312 0397 02       		.byte	0x2
 1313 0398 23       		.byte	0x23
 1314 0399 00       		.uleb128 0
 1315 039a 00       		.byte	0
 1316 039b 03       		.uleb128 0x3
 1317 039c 54687265 		.ascii "ThreadsList\0"
 1317      6164734C 
 1317      69737400 
 1318 03a8 04       		.byte	0x4
 1319 03a9 69       		.byte	0x69
 1320 03aa 84030000 		.long	0x384
 1321 03ae 03       		.uleb128 0x3
 1322 03af 72656778 		.ascii "regx86\0"
 1322      383600
 1323 03b6 06       		.byte	0x6
 1324 03b7 44       		.byte	0x44
 1325 03b8 BC030000 		.long	0x3bc
 1326 03bc 09       		.uleb128 0x9
 1327 03bd 04       		.byte	0x4
 1328 03be 04       		.uleb128 0x4
 1329 03bf 696E7463 		.ascii "intctx\0"
 1329      747800
 1330 03c6 14       		.byte	0x14
 1331 03c7 06       		.byte	0x6
 1332 03c8 52       		.byte	0x52
 1333 03c9 14040000 		.long	0x414
 1334 03cd 06       		.uleb128 0x6
 1335 03ce 65627800 		.ascii "ebx\0"
 1336 03d2 06       		.byte	0x6
 1337 03d3 53       		.byte	0x53
 1338 03d4 AE030000 		.long	0x3ae
 1339 03d8 02       		.byte	0x2
 1340 03d9 23       		.byte	0x23
 1341 03da 00       		.uleb128 0
 1342 03db 06       		.uleb128 0x6
 1343 03dc 65646900 		.ascii "edi\0"
 1344 03e0 06       		.byte	0x6
 1345 03e1 54       		.byte	0x54
 1346 03e2 AE030000 		.long	0x3ae
 1347 03e6 02       		.byte	0x2
 1348 03e7 23       		.byte	0x23
 1349 03e8 04       		.uleb128 0x4
 1350 03e9 06       		.uleb128 0x6
 1351 03ea 65736900 		.ascii "esi\0"
 1352 03ee 06       		.byte	0x6
GAS LISTING C:\cygwin\tmp\ccbLArfy.s 			page 31


 1353 03ef 55       		.byte	0x55
 1354 03f0 AE030000 		.long	0x3ae
 1355 03f4 02       		.byte	0x2
 1356 03f5 23       		.byte	0x23
 1357 03f6 08       		.uleb128 0x8
 1358 03f7 06       		.uleb128 0x6
 1359 03f8 65627000 		.ascii "ebp\0"
 1360 03fc 06       		.byte	0x6
 1361 03fd 56       		.byte	0x56
 1362 03fe AE030000 		.long	0x3ae
 1363 0402 02       		.byte	0x2
 1364 0403 23       		.byte	0x23
 1365 0404 0C       		.uleb128 0xc
 1366 0405 06       		.uleb128 0x6
 1367 0406 65697000 		.ascii "eip\0"
 1368 040a 06       		.byte	0x6
 1369 040b 57       		.byte	0x57
 1370 040c AE030000 		.long	0x3ae
 1371 0410 02       		.byte	0x2
 1372 0411 23       		.byte	0x23
 1373 0412 10       		.uleb128 0x10
 1374 0413 00       		.byte	0
 1375 0414 04       		.uleb128 0x4
 1376 0415 636F6E74 		.ascii "context\0"
 1376      65787400 
 1377 041d 04       		.byte	0x4
 1378 041e 06       		.byte	0x6
 1379 041f 5F       		.byte	0x5f
 1380 0420 33040000 		.long	0x433
 1381 0424 06       		.uleb128 0x6
 1382 0425 65737000 		.ascii "esp\0"
 1383 0429 06       		.byte	0x6
 1384 042a 60       		.byte	0x60
 1385 042b 33040000 		.long	0x433
 1386 042f 02       		.byte	0x2
 1387 0430 23       		.byte	0x23
 1388 0431 00       		.uleb128 0
 1389 0432 00       		.byte	0
 1390 0433 08       		.uleb128 0x8
 1391 0434 04       		.byte	0x4
 1392 0435 39040000 		.long	0x439
 1393 0439 0A       		.uleb128 0xa
 1394 043a BE030000 		.long	0x3be
 1395 043e 03       		.uleb128 0x3
 1396 043f 76746675 		.ascii "vtfunc_t\0"
 1396      6E635F74 
 1396      00
 1397 0448 07       		.byte	0x7
 1398 0449 4E       		.byte	0x4e
 1399 044a 4E040000 		.long	0x44e
 1400 044e 08       		.uleb128 0x8
 1401 044f 04       		.byte	0x4
 1402 0450 54040000 		.long	0x454
 1403 0454 0B       		.uleb128 0xb
 1404 0455 01       		.byte	0x1
 1405 0456 60040000 		.long	0x460
 1406 045a 0C       		.uleb128 0xc
GAS LISTING C:\cygwin\tmp\ccbLArfy.s 			page 32


 1407 045b BC030000 		.long	0x3bc
 1408 045f 00       		.byte	0
 1409 0460 0D       		.uleb128 0xd
 1410 0461 09000000 		.secrel32	LASF1
 1411 0465 07       		.byte	0x7
 1412 0466 53       		.byte	0x53
 1413 0467 6B040000 		.long	0x46b
 1414 046b 0E       		.uleb128 0xe
 1415 046c 09000000 		.secrel32	LASF1
 1416 0470 14       		.byte	0x14
 1417 0471 07       		.byte	0x7
 1418 0472 5A       		.byte	0x5a
 1419 0473 D1040000 		.long	0x4d1
 1420 0477 06       		.uleb128 0x6
 1421 0478 76745F6E 		.ascii "vt_next\0"
 1421      65787400 
 1422 0480 07       		.byte	0x7
 1423 0481 5B       		.byte	0x5b
 1424 0482 D1040000 		.long	0x4d1
 1425 0486 02       		.byte	0x2
 1426 0487 23       		.byte	0x23
 1427 0488 00       		.uleb128 0
 1428 0489 06       		.uleb128 0x6
 1429 048a 76745F70 		.ascii "vt_prev\0"
 1429      72657600 
 1430 0492 07       		.byte	0x7
 1431 0493 5D       		.byte	0x5d
 1432 0494 D1040000 		.long	0x4d1
 1433 0498 02       		.byte	0x2
 1434 0499 23       		.byte	0x23
 1435 049a 04       		.uleb128 0x4
 1436 049b 06       		.uleb128 0x6
 1437 049c 76745F74 		.ascii "vt_time\0"
 1437      696D6500 
 1438 04a4 07       		.byte	0x7
 1439 04a5 5F       		.byte	0x5f
 1440 04a6 A0010000 		.long	0x1a0
 1441 04aa 02       		.byte	0x2
 1442 04ab 23       		.byte	0x23
 1443 04ac 08       		.uleb128 0x8
 1444 04ad 06       		.uleb128 0x6
 1445 04ae 76745F66 		.ascii "vt_func\0"
 1445      756E6300 
 1446 04b6 07       		.byte	0x7
 1447 04b7 60       		.byte	0x60
 1448 04b8 3E040000 		.long	0x43e
 1449 04bc 02       		.byte	0x2
 1450 04bd 23       		.byte	0x23
 1451 04be 0C       		.uleb128 0xc
 1452 04bf 06       		.uleb128 0x6
 1453 04c0 76745F70 		.ascii "vt_par\0"
 1453      617200
 1454 04c7 07       		.byte	0x7
 1455 04c8 62       		.byte	0x62
 1456 04c9 BC030000 		.long	0x3bc
 1457 04cd 02       		.byte	0x2
 1458 04ce 23       		.byte	0x23
GAS LISTING C:\cygwin\tmp\ccbLArfy.s 			page 33


 1459 04cf 10       		.uleb128 0x10
 1460 04d0 00       		.byte	0
 1461 04d1 08       		.uleb128 0x8
 1462 04d2 04       		.byte	0x4
 1463 04d3 60040000 		.long	0x460
 1464 04d7 0A       		.uleb128 0xa
 1465 04d8 A0010000 		.long	0x1a0
 1466 04dc 07       		.uleb128 0x7
 1467 04dd 1C       		.byte	0x1c
 1468 04de 08       		.byte	0x8
 1469 04df 57       		.byte	0x57
 1470 04e0 50050000 		.long	0x550
 1471 04e4 06       		.uleb128 0x6
 1472 04e5 725F7175 		.ascii "r_queue\0"
 1472      65756500 
 1473 04ed 08       		.byte	0x8
 1474 04ee 58       		.byte	0x58
 1475 04ef 70030000 		.long	0x370
 1476 04f3 02       		.byte	0x2
 1477 04f4 23       		.byte	0x23
 1478 04f5 00       		.uleb128 0
 1479 04f6 06       		.uleb128 0x6
 1480 04f7 725F7072 		.ascii "r_prio\0"
 1480      696F00
 1481 04fe 08       		.byte	0x8
 1482 04ff 59       		.byte	0x59
 1483 0500 71010000 		.long	0x171
 1484 0504 02       		.byte	0x2
 1485 0505 23       		.byte	0x23
 1486 0506 08       		.uleb128 0x8
 1487 0507 06       		.uleb128 0x6
 1488 0508 725F6374 		.ascii "r_ctx\0"
 1488      7800
 1489 050e 08       		.byte	0x8
 1490 050f 5B       		.byte	0x5b
 1491 0510 14040000 		.long	0x414
 1492 0514 02       		.byte	0x2
 1493 0515 23       		.byte	0x23
 1494 0516 0C       		.uleb128 0xc
 1495 0517 06       		.uleb128 0x6
 1496 0518 725F6E65 		.ascii "r_newer\0"
 1496      77657200 
 1497 0520 08       		.byte	0x8
 1498 0521 5E       		.byte	0x5e
 1499 0522 6A030000 		.long	0x36a
 1500 0526 02       		.byte	0x2
 1501 0527 23       		.byte	0x23
 1502 0528 10       		.uleb128 0x10
 1503 0529 06       		.uleb128 0x6
 1504 052a 725F6F6C 		.ascii "r_older\0"
 1504      64657200 
 1505 0532 08       		.byte	0x8
 1506 0533 5F       		.byte	0x5f
 1507 0534 6A030000 		.long	0x36a
 1508 0538 02       		.byte	0x2
 1509 0539 23       		.byte	0x23
 1510 053a 14       		.uleb128 0x14
GAS LISTING C:\cygwin\tmp\ccbLArfy.s 			page 34


 1511 053b 06       		.uleb128 0x6
 1512 053c 725F6375 		.ascii "r_current\0"
 1512      7272656E 
 1512      7400
 1513 0546 08       		.byte	0x8
 1514 0547 62       		.byte	0x62
 1515 0548 6A030000 		.long	0x36a
 1516 054c 02       		.byte	0x2
 1517 054d 23       		.byte	0x23
 1518 054e 18       		.uleb128 0x18
 1519 054f 00       		.byte	0
 1520 0550 03       		.uleb128 0x3
 1521 0551 52656164 		.ascii "ReadyList\0"
 1521      794C6973 
 1521      7400
 1522 055b 08       		.byte	0x8
 1523 055c 64       		.byte	0x64
 1524 055d DC040000 		.long	0x4dc
 1525 0561 0E       		.uleb128 0xe
 1526 0562 16000000 		.secrel32	LASF2
 1527 0566 0C       		.byte	0xc
 1528 0567 09       		.byte	0x9
 1529 0568 25       		.byte	0x25
 1530 0569 90050000 		.long	0x590
 1531 056d 06       		.uleb128 0x6
 1532 056e 735F7175 		.ascii "s_queue\0"
 1532      65756500 
 1533 0576 09       		.byte	0x9
 1534 0577 26       		.byte	0x26
 1535 0578 70030000 		.long	0x370
 1536 057c 02       		.byte	0x2
 1537 057d 23       		.byte	0x23
 1538 057e 00       		.uleb128 0
 1539 057f 06       		.uleb128 0x6
 1540 0580 735F636E 		.ascii "s_cnt\0"
 1540      7400
 1541 0586 09       		.byte	0x9
 1542 0587 28       		.byte	0x28
 1543 0588 B1010000 		.long	0x1b1
 1544 058c 02       		.byte	0x2
 1545 058d 23       		.byte	0x23
 1546 058e 08       		.uleb128 0x8
 1547 058f 00       		.byte	0
 1548 0590 0D       		.uleb128 0xd
 1549 0591 16000000 		.secrel32	LASF2
 1550 0595 09       		.byte	0x9
 1551 0596 29       		.byte	0x29
 1552 0597 61050000 		.long	0x561
 1553 059b 04       		.uleb128 0x4
 1554 059c 4D757465 		.ascii "Mutex\0"
 1554      7800
 1555 05a2 10       		.byte	0x10
 1556 05a3 0A       		.byte	0xa
 1557 05a4 25       		.byte	0x25
 1558 05a5 DF050000 		.long	0x5df
 1559 05a9 06       		.uleb128 0x6
 1560 05aa 6D5F7175 		.ascii "m_queue\0"
GAS LISTING C:\cygwin\tmp\ccbLArfy.s 			page 35


 1560      65756500 
 1561 05b2 0A       		.byte	0xa
 1562 05b3 26       		.byte	0x26
 1563 05b4 70030000 		.long	0x370
 1564 05b8 02       		.byte	0x2
 1565 05b9 23       		.byte	0x23
 1566 05ba 00       		.uleb128 0
 1567 05bb 06       		.uleb128 0x6
 1568 05bc 6D5F6F77 		.ascii "m_owner\0"
 1568      6E657200 
 1569 05c4 0A       		.byte	0xa
 1570 05c5 28       		.byte	0x28
 1571 05c6 6A030000 		.long	0x36a
 1572 05ca 02       		.byte	0x2
 1573 05cb 23       		.byte	0x23
 1574 05cc 08       		.uleb128 0x8
 1575 05cd 06       		.uleb128 0x6
 1576 05ce 6D5F6E65 		.ascii "m_next\0"
 1576      787400
 1577 05d5 0A       		.byte	0xa
 1578 05d6 2A       		.byte	0x2a
 1579 05d7 DF050000 		.long	0x5df
 1580 05db 02       		.byte	0x2
 1581 05dc 23       		.byte	0x23
 1582 05dd 0C       		.uleb128 0xc
 1583 05de 00       		.byte	0
 1584 05df 08       		.uleb128 0x8
 1585 05e0 04       		.byte	0x4
 1586 05e1 9B050000 		.long	0x59b
 1587 05e5 03       		.uleb128 0x3
 1588 05e6 4D757465 		.ascii "Mutex\0"
 1588      7800
 1589 05ec 0A       		.byte	0xa
 1590 05ed 2C       		.byte	0x2c
 1591 05ee 9B050000 		.long	0x59b
 1592 05f2 0F       		.uleb128 0xf
 1593 05f3 04       		.byte	0x4
 1594 05f4 05       		.byte	0x5
 1595 05f5 8F       		.byte	0x8f
 1596 05f6 35060000 		.long	0x635
 1597 05fa 10       		.uleb128 0x10
 1598 05fb 7264796D 		.ascii "rdymsg\0"
 1598      736700
 1599 0602 05       		.byte	0x5
 1600 0603 96       		.byte	0x96
 1601 0604 80010000 		.long	0x180
 1602 0608 10       		.uleb128 0x10
 1603 0609 65786974 		.ascii "exitcode\0"
 1603      636F6465 
 1603      00
 1604 0612 05       		.byte	0x5
 1605 0613 9D       		.byte	0x9d
 1606 0614 80010000 		.long	0x180
 1607 0618 10       		.uleb128 0x10
 1608 0619 77746F62 		.ascii "wtobjp\0"
 1608      6A7000
 1609 0620 05       		.byte	0x5
GAS LISTING C:\cygwin\tmp\ccbLArfy.s 			page 36


 1610 0621 A4       		.byte	0xa4
 1611 0622 BC030000 		.long	0x3bc
 1612 0626 10       		.uleb128 0x10
 1613 0627 65776D61 		.ascii "ewmask\0"
 1613      736B00
 1614 062e 05       		.byte	0x5
 1615 062f AB       		.byte	0xab
 1616 0630 8D010000 		.long	0x18d
 1617 0634 00       		.byte	0
 1618 0635 08       		.uleb128 0x8
 1619 0636 04       		.byte	0x4
 1620 0637 3B060000 		.long	0x63b
 1621 063b 11       		.uleb128 0x11
 1622 063c 40060000 		.long	0x640
 1623 0640 02       		.uleb128 0x2
 1624 0641 01       		.byte	0x1
 1625 0642 06       		.byte	0x6
 1626 0643 63686172 		.ascii "char\0"
 1626      00
 1627 0648 08       		.uleb128 0x8
 1628 0649 04       		.byte	0x4
 1629 064a E5050000 		.long	0x5e5
 1630 064e 12       		.uleb128 0x12
 1631 064f 01       		.byte	0x1
 1632 0650 5F736368 		.ascii "_scheduler_init\0"
 1632      6564756C 
 1632      65725F69 
 1632      6E697400 
 1633 0660 01       		.byte	0x1
 1634 0661 30       		.byte	0x30
 1635 0662 01       		.byte	0x1
 1636 0663 00000000 		.long	LFB0
 1637 0667 55000000 		.long	LFE0
 1638 066b 00000000 		.secrel32	LLST0
 1639 066f 13       		.uleb128 0x13
 1640 0670 01       		.byte	0x1
 1641 0671 63685363 		.ascii "chSchReadyI\0"
 1641      68526561 
 1641      64794900 
 1642 067d 01       		.byte	0x1
 1643 067e 4A       		.byte	0x4a
 1644 067f 01       		.byte	0x1
 1645 0680 6A030000 		.long	0x36a
 1646 0684 55000000 		.long	LFB1
 1647 0688 4A010000 		.long	LFE1
 1648 068c 2C000000 		.secrel32	LLST1
 1649 0690 AF060000 		.long	0x6af
 1650 0694 14       		.uleb128 0x14
 1651 0695 747000   		.ascii "tp\0"
 1652 0698 01       		.byte	0x1
 1653 0699 4A       		.byte	0x4a
 1654 069a 6A030000 		.long	0x36a
 1655 069e 02       		.byte	0x2
 1656 069f 91       		.byte	0x91
 1657 06a0 00       		.sleb128 0
 1658 06a1 15       		.uleb128 0x15
 1659 06a2 637000   		.ascii "cp\0"
GAS LISTING C:\cygwin\tmp\ccbLArfy.s 			page 37


 1660 06a5 01       		.byte	0x1
 1661 06a6 4B       		.byte	0x4b
 1662 06a7 6A030000 		.long	0x36a
 1663 06ab 02       		.byte	0x2
 1664 06ac 91       		.byte	0x91
 1665 06ad 74       		.sleb128 -12
 1666 06ae 00       		.byte	0
 1667 06af 16       		.uleb128 0x16
 1668 06b0 01       		.byte	0x1
 1669 06b1 63685363 		.ascii "chSchGoSleepS\0"
 1669      68476F53 
 1669      6C656570 
 1669      5300
 1670 06bf 01       		.byte	0x1
 1671 06c0 6C       		.byte	0x6c
 1672 06c1 01       		.byte	0x1
 1673 06c2 4A010000 		.long	LFB2
 1674 06c6 1E020000 		.long	LFE2
 1675 06ca 58000000 		.secrel32	LLST2
 1676 06ce EF060000 		.long	0x6ef
 1677 06d2 17       		.uleb128 0x17
 1678 06d3 00000000 		.secrel32	LASF3
 1679 06d7 01       		.byte	0x1
 1680 06d8 6C       		.byte	0x6c
 1681 06d9 41010000 		.long	0x141
 1682 06dd 02       		.byte	0x2
 1683 06de 91       		.byte	0x91
 1684 06df 5C       		.sleb128 -36
 1685 06e0 15       		.uleb128 0x15
 1686 06e1 6F747000 		.ascii "otp\0"
 1687 06e5 01       		.byte	0x1
 1688 06e6 6D       		.byte	0x6d
 1689 06e7 6A030000 		.long	0x36a
 1690 06eb 02       		.byte	0x2
 1691 06ec 91       		.byte	0x91
 1692 06ed 6C       		.sleb128 -20
 1693 06ee 00       		.byte	0
 1694 06ef 18       		.uleb128 0x18
 1695 06f0 77616B65 		.ascii "wakeup\0"
 1695      757000
 1696 06f7 01       		.byte	0x1
 1697 06f8 81       		.byte	0x81
 1698 06f9 01       		.byte	0x1
 1699 06fa 1E020000 		.long	LFB3
 1700 06fe 38030000 		.long	LFE3
 1701 0702 85000000 		.secrel32	LLST3
 1702 0706 24070000 		.long	0x724
 1703 070a 14       		.uleb128 0x14
 1704 070b 7000     		.ascii "p\0"
 1705 070d 01       		.byte	0x1
 1706 070e 81       		.byte	0x81
 1707 070f BC030000 		.long	0x3bc
 1708 0713 02       		.byte	0x2
 1709 0714 91       		.byte	0x91
 1710 0715 00       		.sleb128 0
 1711 0716 15       		.uleb128 0x15
 1712 0717 747000   		.ascii "tp\0"
GAS LISTING C:\cygwin\tmp\ccbLArfy.s 			page 38


 1713 071a 01       		.byte	0x1
 1714 071b 82       		.byte	0x82
 1715 071c 6A030000 		.long	0x36a
 1716 0720 02       		.byte	0x2
 1717 0721 91       		.byte	0x91
 1718 0722 6C       		.sleb128 -20
 1719 0723 00       		.byte	0
 1720 0724 13       		.uleb128 0x13
 1721 0725 01       		.byte	0x1
 1722 0726 63685363 		.ascii "chSchGoSleepTimeoutS\0"
 1722      68476F53 
 1722      6C656570 
 1722      54696D65 
 1722      6F757453 
 1723 073b 01       		.byte	0x1
 1724 073c B6       		.byte	0xb6
 1725 073d 01       		.byte	0x1
 1726 073e 80010000 		.long	0x180
 1727 0742 38030000 		.long	LFB4
 1728 0746 77040000 		.long	LFE4
 1729 074a B1000000 		.secrel32	LLST4
 1730 074e 87070000 		.long	0x787
 1731 0752 17       		.uleb128 0x17
 1732 0753 00000000 		.secrel32	LASF3
 1733 0757 01       		.byte	0x1
 1734 0758 B6       		.byte	0xb6
 1735 0759 41010000 		.long	0x141
 1736 075d 02       		.byte	0x2
 1737 075e 91       		.byte	0x91
 1738 075f 4C       		.sleb128 -52
 1739 0760 14       		.uleb128 0x14
 1740 0761 74696D65 		.ascii "time\0"
 1740      00
 1741 0766 01       		.byte	0x1
 1742 0767 B6       		.byte	0xb6
 1743 0768 A0010000 		.long	0x1a0
 1744 076c 02       		.byte	0x2
 1745 076d 91       		.byte	0x91
 1746 076e 04       		.sleb128 4
 1747 076f 19       		.uleb128 0x19
 1748 0770 6A030000 		.long	LBB2
 1749 0774 42040000 		.long	LBE2
 1750 0778 15       		.uleb128 0x15
 1751 0779 767400   		.ascii "vt\0"
 1752 077c 01       		.byte	0x1
 1753 077d BB       		.byte	0xbb
 1754 077e 60040000 		.long	0x460
 1755 0782 02       		.byte	0x2
 1756 0783 91       		.byte	0x91
 1757 0784 5C       		.sleb128 -36
 1758 0785 00       		.byte	0
 1759 0786 00       		.byte	0
 1760 0787 16       		.uleb128 0x16
 1761 0788 01       		.byte	0x1
 1762 0789 63685363 		.ascii "chSchWakeupS\0"
 1762      6857616B 
 1762      65757053 
GAS LISTING C:\cygwin\tmp\ccbLArfy.s 			page 39


 1762      00
 1763 0796 01       		.byte	0x1
 1764 0797 DA       		.byte	0xda
 1765 0798 01       		.byte	0x1
 1766 0799 77040000 		.long	LFB5
 1767 079d 92050000 		.long	LFE5
 1768 07a1 DE000000 		.secrel32	LLST5
 1769 07a5 DE070000 		.long	0x7de
 1770 07a9 14       		.uleb128 0x14
 1771 07aa 6E747000 		.ascii "ntp\0"
 1772 07ae 01       		.byte	0x1
 1773 07af DA       		.byte	0xda
 1774 07b0 6A030000 		.long	0x36a
 1775 07b4 02       		.byte	0x2
 1776 07b5 91       		.byte	0x91
 1777 07b6 00       		.sleb128 0
 1778 07b7 14       		.uleb128 0x14
 1779 07b8 6D736700 		.ascii "msg\0"
 1780 07bc 01       		.byte	0x1
 1781 07bd DA       		.byte	0xda
 1782 07be 80010000 		.long	0x180
 1783 07c2 02       		.byte	0x2
 1784 07c3 91       		.byte	0x91
 1785 07c4 04       		.sleb128 4
 1786 07c5 19       		.uleb128 0x19
 1787 07c6 FD040000 		.long	LBB3
 1788 07ca 8E050000 		.long	LBE3
 1789 07ce 15       		.uleb128 0x15
 1790 07cf 6F747000 		.ascii "otp\0"
 1791 07d3 01       		.byte	0x1
 1792 07d4 E6       		.byte	0xe6
 1793 07d5 6A030000 		.long	0x36a
 1794 07d9 02       		.byte	0x2
 1795 07da 91       		.byte	0x91
 1796 07db 6C       		.sleb128 -20
 1797 07dc 00       		.byte	0
 1798 07dd 00       		.byte	0
 1799 07de 12       		.uleb128 0x12
 1800 07df 01       		.byte	0x1
 1801 07e0 63685363 		.ascii "chSchRescheduleS\0"
 1801      68526573 
 1801      63686564 
 1801      756C6553 
 1801      00
 1802 07f1 01       		.byte	0x1
 1803 07f2 F6       		.byte	0xf6
 1804 07f3 01       		.byte	0x1
 1805 07f4 92050000 		.long	LFB6
 1806 07f8 06060000 		.long	LFE6
 1807 07fc 0A010000 		.secrel32	LLST6
 1808 0800 1A       		.uleb128 0x1a
 1809 0801 01       		.byte	0x1
 1810 0802 63685363 		.ascii "chSchIsPreemptionRequired\0"
 1810      68497350 
 1810      7265656D 
 1810      7074696F 
 1810      6E526571 
GAS LISTING C:\cygwin\tmp\ccbLArfy.s 			page 40


 1811 081c 01       		.byte	0x1
 1812 081d 0D01     		.word	0x10d
 1813 081f 01       		.byte	0x1
 1814 0820 1B010000 		.long	0x11b
 1815 0824 06060000 		.long	LFB7
 1816 0828 83060000 		.long	LFE7
 1817 082c 36010000 		.secrel32	LLST7
 1818 0830 51080000 		.long	0x851
 1819 0834 1B       		.uleb128 0x1b
 1820 0835 703100   		.ascii "p1\0"
 1821 0838 01       		.byte	0x1
 1822 0839 0E01     		.word	0x10e
 1823 083b 71010000 		.long	0x171
 1824 083f 02       		.byte	0x2
 1825 0840 91       		.byte	0x91
 1826 0841 74       		.sleb128 -12
 1827 0842 1B       		.uleb128 0x1b
 1828 0843 703200   		.ascii "p2\0"
 1829 0846 01       		.byte	0x1
 1830 0847 0F01     		.word	0x10f
 1831 0849 71010000 		.long	0x171
 1832 084d 02       		.byte	0x2
 1833 084e 91       		.byte	0x91
 1834 084f 70       		.sleb128 -16
 1835 0850 00       		.byte	0
 1836 0851 1C       		.uleb128 0x1c
 1837 0852 01       		.byte	0x1
 1838 0853 63685363 		.ascii "chSchDoRescheduleBehind\0"
 1838      68446F52 
 1838      65736368 
 1838      6564756C 
 1838      65426568 
 1839 086b 01       		.byte	0x1
 1840 086c 2901     		.word	0x129
 1841 086e 01       		.byte	0x1
 1842 086f 83060000 		.long	LFB8
 1843 0873 6C070000 		.long	LFE8
 1844 0877 62010000 		.secrel32	LLST8
 1845 087b 8F080000 		.long	0x88f
 1846 087f 1B       		.uleb128 0x1b
 1847 0880 6F747000 		.ascii "otp\0"
 1848 0884 01       		.byte	0x1
 1849 0885 2A01     		.word	0x12a
 1850 0887 6A030000 		.long	0x36a
 1851 088b 02       		.byte	0x2
 1852 088c 91       		.byte	0x91
 1853 088d 6C       		.sleb128 -20
 1854 088e 00       		.byte	0
 1855 088f 1C       		.uleb128 0x1c
 1856 0890 01       		.byte	0x1
 1857 0891 63685363 		.ascii "chSchDoRescheduleAhead\0"
 1857      68446F52 
 1857      65736368 
 1857      6564756C 
 1857      65416865 
 1858 08a8 01       		.byte	0x1
 1859 08a9 4201     		.word	0x142
GAS LISTING C:\cygwin\tmp\ccbLArfy.s 			page 41


 1860 08ab 01       		.byte	0x1
 1861 08ac 6C070000 		.long	LFB9
 1862 08b0 9F080000 		.long	LFE9
 1863 08b4 8E010000 		.secrel32	LLST9
 1864 08b8 DA080000 		.long	0x8da
 1865 08bc 1B       		.uleb128 0x1b
 1866 08bd 6F747000 		.ascii "otp\0"
 1867 08c1 01       		.byte	0x1
 1868 08c2 4301     		.word	0x143
 1869 08c4 6A030000 		.long	0x36a
 1870 08c8 02       		.byte	0x2
 1871 08c9 91       		.byte	0x91
 1872 08ca 68       		.sleb128 -24
 1873 08cb 1B       		.uleb128 0x1b
 1874 08cc 637000   		.ascii "cp\0"
 1875 08cf 01       		.byte	0x1
 1876 08d0 4301     		.word	0x143
 1877 08d2 6A030000 		.long	0x36a
 1878 08d6 02       		.byte	0x2
 1879 08d7 91       		.byte	0x91
 1880 08d8 6C       		.sleb128 -20
 1881 08d9 00       		.byte	0
 1882 08da 1D       		.uleb128 0x1d
 1883 08db 01       		.byte	0x1
 1884 08dc 63685363 		.ascii "chSchDoReschedule\0"
 1884      68446F52 
 1884      65736368 
 1884      6564756C 
 1884      6500
 1885 08ee 01       		.byte	0x1
 1886 08ef 6301     		.word	0x163
 1887 08f1 01       		.byte	0x1
 1888 08f2 9F080000 		.long	LFB10
 1889 08f6 2E090000 		.long	LFE10
 1890 08fa BA010000 		.secrel32	LLST10
 1891 08fe 1E       		.uleb128 0x1e
 1892 08ff 5F474C4F 		.ascii "_GLOBAL__sub_I_65535_0__scheduler_init\0"
 1892      42414C5F 
 1892      5F737562 
 1892      5F495F36 
 1892      35353335 
 1893 0926 01       		.byte	0x1
 1894 0927 01       		.byte	0x1
 1895 0928 2E090000 		.long	LFB11
 1896 092c 41090000 		.long	LFE11
 1897 0930 E6010000 		.secrel32	LLST11
 1898 0934 1F       		.uleb128 0x1f
 1899 0935 726C6973 		.ascii "rlist\0"
 1899      7400
 1900 093b 08       		.byte	0x8
 1901 093c 68       		.byte	0x68
 1902 093d 50050000 		.long	0x550
 1903 0941 01       		.byte	0x1
 1904 0942 01       		.byte	0x1
 1905 0943 20       		.uleb128 0x20
 1906 0944 726C6973 		.ascii "rlist\0"
 1906      7400
GAS LISTING C:\cygwin\tmp\ccbLArfy.s 			page 42


 1907 094a 01       		.byte	0x1
 1908 094b 28       		.byte	0x28
 1909 094c 50050000 		.long	0x550
 1910 0950 01       		.byte	0x1
 1911 0951 05       		.byte	0x5
 1912 0952 03       		.byte	0x3
 1913 0953 00000000 		.long	_rlist
 1914 0957 00       		.byte	0
 1915              		.section	.debug_abbrev,"dr"
 1916              	Ldebug_abbrev0:
 1917 0000 01       		.uleb128 0x1
 1918 0001 11       		.uleb128 0x11
 1919 0002 01       		.byte	0x1
 1920 0003 25       		.uleb128 0x25
 1921 0004 08       		.uleb128 0x8
 1922 0005 13       		.uleb128 0x13
 1923 0006 0B       		.uleb128 0xb
 1924 0007 03       		.uleb128 0x3
 1925 0008 08       		.uleb128 0x8
 1926 0009 1B       		.uleb128 0x1b
 1927 000a 08       		.uleb128 0x8
 1928 000b 11       		.uleb128 0x11
 1929 000c 01       		.uleb128 0x1
 1930 000d 12       		.uleb128 0x12
 1931 000e 01       		.uleb128 0x1
 1932 000f 10       		.uleb128 0x10
 1933 0010 06       		.uleb128 0x6
 1934 0011 00       		.byte	0
 1935 0012 00       		.byte	0
 1936 0013 02       		.uleb128 0x2
 1937 0014 24       		.uleb128 0x24
 1938 0015 00       		.byte	0
 1939 0016 0B       		.uleb128 0xb
 1940 0017 0B       		.uleb128 0xb
 1941 0018 3E       		.uleb128 0x3e
 1942 0019 0B       		.uleb128 0xb
 1943 001a 03       		.uleb128 0x3
 1944 001b 08       		.uleb128 0x8
 1945 001c 00       		.byte	0
 1946 001d 00       		.byte	0
 1947 001e 03       		.uleb128 0x3
 1948 001f 16       		.uleb128 0x16
 1949 0020 00       		.byte	0
 1950 0021 03       		.uleb128 0x3
 1951 0022 08       		.uleb128 0x8
 1952 0023 3A       		.uleb128 0x3a
 1953 0024 0B       		.uleb128 0xb
 1954 0025 3B       		.uleb128 0x3b
 1955 0026 0B       		.uleb128 0xb
 1956 0027 49       		.uleb128 0x49
 1957 0028 13       		.uleb128 0x13
 1958 0029 00       		.byte	0
 1959 002a 00       		.byte	0
 1960 002b 04       		.uleb128 0x4
 1961 002c 13       		.uleb128 0x13
 1962 002d 01       		.byte	0x1
 1963 002e 03       		.uleb128 0x3
GAS LISTING C:\cygwin\tmp\ccbLArfy.s 			page 43


 1964 002f 08       		.uleb128 0x8
 1965 0030 0B       		.uleb128 0xb
 1966 0031 0B       		.uleb128 0xb
 1967 0032 3A       		.uleb128 0x3a
 1968 0033 0B       		.uleb128 0xb
 1969 0034 3B       		.uleb128 0x3b
 1970 0035 0B       		.uleb128 0xb
 1971 0036 01       		.uleb128 0x1
 1972 0037 13       		.uleb128 0x13
 1973 0038 00       		.byte	0
 1974 0039 00       		.byte	0
 1975 003a 05       		.uleb128 0x5
 1976 003b 0D       		.uleb128 0xd
 1977 003c 00       		.byte	0
 1978 003d 03       		.uleb128 0x3
 1979 003e 0E       		.uleb128 0xe
 1980 003f 3A       		.uleb128 0x3a
 1981 0040 0B       		.uleb128 0xb
 1982 0041 3B       		.uleb128 0x3b
 1983 0042 0B       		.uleb128 0xb
 1984 0043 49       		.uleb128 0x49
 1985 0044 13       		.uleb128 0x13
 1986 0045 38       		.uleb128 0x38
 1987 0046 0A       		.uleb128 0xa
 1988 0047 00       		.byte	0
 1989 0048 00       		.byte	0
 1990 0049 06       		.uleb128 0x6
 1991 004a 0D       		.uleb128 0xd
 1992 004b 00       		.byte	0
 1993 004c 03       		.uleb128 0x3
 1994 004d 08       		.uleb128 0x8
 1995 004e 3A       		.uleb128 0x3a
 1996 004f 0B       		.uleb128 0xb
 1997 0050 3B       		.uleb128 0x3b
 1998 0051 0B       		.uleb128 0xb
 1999 0052 49       		.uleb128 0x49
 2000 0053 13       		.uleb128 0x13
 2001 0054 38       		.uleb128 0x38
 2002 0055 0A       		.uleb128 0xa
 2003 0056 00       		.byte	0
 2004 0057 00       		.byte	0
 2005 0058 07       		.uleb128 0x7
 2006 0059 13       		.uleb128 0x13
 2007 005a 01       		.byte	0x1
 2008 005b 0B       		.uleb128 0xb
 2009 005c 0B       		.uleb128 0xb
 2010 005d 3A       		.uleb128 0x3a
 2011 005e 0B       		.uleb128 0xb
 2012 005f 3B       		.uleb128 0x3b
 2013 0060 0B       		.uleb128 0xb
 2014 0061 01       		.uleb128 0x1
 2015 0062 13       		.uleb128 0x13
 2016 0063 00       		.byte	0
 2017 0064 00       		.byte	0
 2018 0065 08       		.uleb128 0x8
 2019 0066 0F       		.uleb128 0xf
 2020 0067 00       		.byte	0
GAS LISTING C:\cygwin\tmp\ccbLArfy.s 			page 44


 2021 0068 0B       		.uleb128 0xb
 2022 0069 0B       		.uleb128 0xb
 2023 006a 49       		.uleb128 0x49
 2024 006b 13       		.uleb128 0x13
 2025 006c 00       		.byte	0
 2026 006d 00       		.byte	0
 2027 006e 09       		.uleb128 0x9
 2028 006f 0F       		.uleb128 0xf
 2029 0070 00       		.byte	0
 2030 0071 0B       		.uleb128 0xb
 2031 0072 0B       		.uleb128 0xb
 2032 0073 00       		.byte	0
 2033 0074 00       		.byte	0
 2034 0075 0A       		.uleb128 0xa
 2035 0076 35       		.uleb128 0x35
 2036 0077 00       		.byte	0
 2037 0078 49       		.uleb128 0x49
 2038 0079 13       		.uleb128 0x13
 2039 007a 00       		.byte	0
 2040 007b 00       		.byte	0
 2041 007c 0B       		.uleb128 0xb
 2042 007d 15       		.uleb128 0x15
 2043 007e 01       		.byte	0x1
 2044 007f 27       		.uleb128 0x27
 2045 0080 0C       		.uleb128 0xc
 2046 0081 01       		.uleb128 0x1
 2047 0082 13       		.uleb128 0x13
 2048 0083 00       		.byte	0
 2049 0084 00       		.byte	0
 2050 0085 0C       		.uleb128 0xc
 2051 0086 05       		.uleb128 0x5
 2052 0087 00       		.byte	0
 2053 0088 49       		.uleb128 0x49
 2054 0089 13       		.uleb128 0x13
 2055 008a 00       		.byte	0
 2056 008b 00       		.byte	0
 2057 008c 0D       		.uleb128 0xd
 2058 008d 16       		.uleb128 0x16
 2059 008e 00       		.byte	0
 2060 008f 03       		.uleb128 0x3
 2061 0090 0E       		.uleb128 0xe
 2062 0091 3A       		.uleb128 0x3a
 2063 0092 0B       		.uleb128 0xb
 2064 0093 3B       		.uleb128 0x3b
 2065 0094 0B       		.uleb128 0xb
 2066 0095 49       		.uleb128 0x49
 2067 0096 13       		.uleb128 0x13
 2068 0097 00       		.byte	0
 2069 0098 00       		.byte	0
 2070 0099 0E       		.uleb128 0xe
 2071 009a 13       		.uleb128 0x13
 2072 009b 01       		.byte	0x1
 2073 009c 03       		.uleb128 0x3
 2074 009d 0E       		.uleb128 0xe
 2075 009e 0B       		.uleb128 0xb
 2076 009f 0B       		.uleb128 0xb
 2077 00a0 3A       		.uleb128 0x3a
GAS LISTING C:\cygwin\tmp\ccbLArfy.s 			page 45


 2078 00a1 0B       		.uleb128 0xb
 2079 00a2 3B       		.uleb128 0x3b
 2080 00a3 0B       		.uleb128 0xb
 2081 00a4 01       		.uleb128 0x1
 2082 00a5 13       		.uleb128 0x13
 2083 00a6 00       		.byte	0
 2084 00a7 00       		.byte	0
 2085 00a8 0F       		.uleb128 0xf
 2086 00a9 17       		.uleb128 0x17
 2087 00aa 01       		.byte	0x1
 2088 00ab 0B       		.uleb128 0xb
 2089 00ac 0B       		.uleb128 0xb
 2090 00ad 3A       		.uleb128 0x3a
 2091 00ae 0B       		.uleb128 0xb
 2092 00af 3B       		.uleb128 0x3b
 2093 00b0 0B       		.uleb128 0xb
 2094 00b1 01       		.uleb128 0x1
 2095 00b2 13       		.uleb128 0x13
 2096 00b3 00       		.byte	0
 2097 00b4 00       		.byte	0
 2098 00b5 10       		.uleb128 0x10
 2099 00b6 0D       		.uleb128 0xd
 2100 00b7 00       		.byte	0
 2101 00b8 03       		.uleb128 0x3
 2102 00b9 08       		.uleb128 0x8
 2103 00ba 3A       		.uleb128 0x3a
 2104 00bb 0B       		.uleb128 0xb
 2105 00bc 3B       		.uleb128 0x3b
 2106 00bd 0B       		.uleb128 0xb
 2107 00be 49       		.uleb128 0x49
 2108 00bf 13       		.uleb128 0x13
 2109 00c0 00       		.byte	0
 2110 00c1 00       		.byte	0
 2111 00c2 11       		.uleb128 0x11
 2112 00c3 26       		.uleb128 0x26
 2113 00c4 00       		.byte	0
 2114 00c5 49       		.uleb128 0x49
 2115 00c6 13       		.uleb128 0x13
 2116 00c7 00       		.byte	0
 2117 00c8 00       		.byte	0
 2118 00c9 12       		.uleb128 0x12
 2119 00ca 2E       		.uleb128 0x2e
 2120 00cb 00       		.byte	0
 2121 00cc 3F       		.uleb128 0x3f
 2122 00cd 0C       		.uleb128 0xc
 2123 00ce 03       		.uleb128 0x3
 2124 00cf 08       		.uleb128 0x8
 2125 00d0 3A       		.uleb128 0x3a
 2126 00d1 0B       		.uleb128 0xb
 2127 00d2 3B       		.uleb128 0x3b
 2128 00d3 0B       		.uleb128 0xb
 2129 00d4 27       		.uleb128 0x27
 2130 00d5 0C       		.uleb128 0xc
 2131 00d6 11       		.uleb128 0x11
 2132 00d7 01       		.uleb128 0x1
 2133 00d8 12       		.uleb128 0x12
 2134 00d9 01       		.uleb128 0x1
GAS LISTING C:\cygwin\tmp\ccbLArfy.s 			page 46


 2135 00da 40       		.uleb128 0x40
 2136 00db 06       		.uleb128 0x6
 2137 00dc 00       		.byte	0
 2138 00dd 00       		.byte	0
 2139 00de 13       		.uleb128 0x13
 2140 00df 2E       		.uleb128 0x2e
 2141 00e0 01       		.byte	0x1
 2142 00e1 3F       		.uleb128 0x3f
 2143 00e2 0C       		.uleb128 0xc
 2144 00e3 03       		.uleb128 0x3
 2145 00e4 08       		.uleb128 0x8
 2146 00e5 3A       		.uleb128 0x3a
 2147 00e6 0B       		.uleb128 0xb
 2148 00e7 3B       		.uleb128 0x3b
 2149 00e8 0B       		.uleb128 0xb
 2150 00e9 27       		.uleb128 0x27
 2151 00ea 0C       		.uleb128 0xc
 2152 00eb 49       		.uleb128 0x49
 2153 00ec 13       		.uleb128 0x13
 2154 00ed 11       		.uleb128 0x11
 2155 00ee 01       		.uleb128 0x1
 2156 00ef 12       		.uleb128 0x12
 2157 00f0 01       		.uleb128 0x1
 2158 00f1 40       		.uleb128 0x40
 2159 00f2 06       		.uleb128 0x6
 2160 00f3 01       		.uleb128 0x1
 2161 00f4 13       		.uleb128 0x13
 2162 00f5 00       		.byte	0
 2163 00f6 00       		.byte	0
 2164 00f7 14       		.uleb128 0x14
 2165 00f8 05       		.uleb128 0x5
 2166 00f9 00       		.byte	0
 2167 00fa 03       		.uleb128 0x3
 2168 00fb 08       		.uleb128 0x8
 2169 00fc 3A       		.uleb128 0x3a
 2170 00fd 0B       		.uleb128 0xb
 2171 00fe 3B       		.uleb128 0x3b
 2172 00ff 0B       		.uleb128 0xb
 2173 0100 49       		.uleb128 0x49
 2174 0101 13       		.uleb128 0x13
 2175 0102 02       		.uleb128 0x2
 2176 0103 0A       		.uleb128 0xa
 2177 0104 00       		.byte	0
 2178 0105 00       		.byte	0
 2179 0106 15       		.uleb128 0x15
 2180 0107 34       		.uleb128 0x34
 2181 0108 00       		.byte	0
 2182 0109 03       		.uleb128 0x3
 2183 010a 08       		.uleb128 0x8
 2184 010b 3A       		.uleb128 0x3a
 2185 010c 0B       		.uleb128 0xb
 2186 010d 3B       		.uleb128 0x3b
 2187 010e 0B       		.uleb128 0xb
 2188 010f 49       		.uleb128 0x49
 2189 0110 13       		.uleb128 0x13
 2190 0111 02       		.uleb128 0x2
 2191 0112 0A       		.uleb128 0xa
GAS LISTING C:\cygwin\tmp\ccbLArfy.s 			page 47


 2192 0113 00       		.byte	0
 2193 0114 00       		.byte	0
 2194 0115 16       		.uleb128 0x16
 2195 0116 2E       		.uleb128 0x2e
 2196 0117 01       		.byte	0x1
 2197 0118 3F       		.uleb128 0x3f
 2198 0119 0C       		.uleb128 0xc
 2199 011a 03       		.uleb128 0x3
 2200 011b 08       		.uleb128 0x8
 2201 011c 3A       		.uleb128 0x3a
 2202 011d 0B       		.uleb128 0xb
 2203 011e 3B       		.uleb128 0x3b
 2204 011f 0B       		.uleb128 0xb
 2205 0120 27       		.uleb128 0x27
 2206 0121 0C       		.uleb128 0xc
 2207 0122 11       		.uleb128 0x11
 2208 0123 01       		.uleb128 0x1
 2209 0124 12       		.uleb128 0x12
 2210 0125 01       		.uleb128 0x1
 2211 0126 40       		.uleb128 0x40
 2212 0127 06       		.uleb128 0x6
 2213 0128 01       		.uleb128 0x1
 2214 0129 13       		.uleb128 0x13
 2215 012a 00       		.byte	0
 2216 012b 00       		.byte	0
 2217 012c 17       		.uleb128 0x17
 2218 012d 05       		.uleb128 0x5
 2219 012e 00       		.byte	0
 2220 012f 03       		.uleb128 0x3
 2221 0130 0E       		.uleb128 0xe
 2222 0131 3A       		.uleb128 0x3a
 2223 0132 0B       		.uleb128 0xb
 2224 0133 3B       		.uleb128 0x3b
 2225 0134 0B       		.uleb128 0xb
 2226 0135 49       		.uleb128 0x49
 2227 0136 13       		.uleb128 0x13
 2228 0137 02       		.uleb128 0x2
 2229 0138 0A       		.uleb128 0xa
 2230 0139 00       		.byte	0
 2231 013a 00       		.byte	0
 2232 013b 18       		.uleb128 0x18
 2233 013c 2E       		.uleb128 0x2e
 2234 013d 01       		.byte	0x1
 2235 013e 03       		.uleb128 0x3
 2236 013f 08       		.uleb128 0x8
 2237 0140 3A       		.uleb128 0x3a
 2238 0141 0B       		.uleb128 0xb
 2239 0142 3B       		.uleb128 0x3b
 2240 0143 0B       		.uleb128 0xb
 2241 0144 27       		.uleb128 0x27
 2242 0145 0C       		.uleb128 0xc
 2243 0146 11       		.uleb128 0x11
 2244 0147 01       		.uleb128 0x1
 2245 0148 12       		.uleb128 0x12
 2246 0149 01       		.uleb128 0x1
 2247 014a 40       		.uleb128 0x40
 2248 014b 06       		.uleb128 0x6
GAS LISTING C:\cygwin\tmp\ccbLArfy.s 			page 48


 2249 014c 01       		.uleb128 0x1
 2250 014d 13       		.uleb128 0x13
 2251 014e 00       		.byte	0
 2252 014f 00       		.byte	0
 2253 0150 19       		.uleb128 0x19
 2254 0151 0B       		.uleb128 0xb
 2255 0152 01       		.byte	0x1
 2256 0153 11       		.uleb128 0x11
 2257 0154 01       		.uleb128 0x1
 2258 0155 12       		.uleb128 0x12
 2259 0156 01       		.uleb128 0x1
 2260 0157 00       		.byte	0
 2261 0158 00       		.byte	0
 2262 0159 1A       		.uleb128 0x1a
 2263 015a 2E       		.uleb128 0x2e
 2264 015b 01       		.byte	0x1
 2265 015c 3F       		.uleb128 0x3f
 2266 015d 0C       		.uleb128 0xc
 2267 015e 03       		.uleb128 0x3
 2268 015f 08       		.uleb128 0x8
 2269 0160 3A       		.uleb128 0x3a
 2270 0161 0B       		.uleb128 0xb
 2271 0162 3B       		.uleb128 0x3b
 2272 0163 05       		.uleb128 0x5
 2273 0164 27       		.uleb128 0x27
 2274 0165 0C       		.uleb128 0xc
 2275 0166 49       		.uleb128 0x49
 2276 0167 13       		.uleb128 0x13
 2277 0168 11       		.uleb128 0x11
 2278 0169 01       		.uleb128 0x1
 2279 016a 12       		.uleb128 0x12
 2280 016b 01       		.uleb128 0x1
 2281 016c 40       		.uleb128 0x40
 2282 016d 06       		.uleb128 0x6
 2283 016e 01       		.uleb128 0x1
 2284 016f 13       		.uleb128 0x13
 2285 0170 00       		.byte	0
 2286 0171 00       		.byte	0
 2287 0172 1B       		.uleb128 0x1b
 2288 0173 34       		.uleb128 0x34
 2289 0174 00       		.byte	0
 2290 0175 03       		.uleb128 0x3
 2291 0176 08       		.uleb128 0x8
 2292 0177 3A       		.uleb128 0x3a
 2293 0178 0B       		.uleb128 0xb
 2294 0179 3B       		.uleb128 0x3b
 2295 017a 05       		.uleb128 0x5
 2296 017b 49       		.uleb128 0x49
 2297 017c 13       		.uleb128 0x13
 2298 017d 02       		.uleb128 0x2
 2299 017e 0A       		.uleb128 0xa
 2300 017f 00       		.byte	0
 2301 0180 00       		.byte	0
 2302 0181 1C       		.uleb128 0x1c
 2303 0182 2E       		.uleb128 0x2e
 2304 0183 01       		.byte	0x1
 2305 0184 3F       		.uleb128 0x3f
GAS LISTING C:\cygwin\tmp\ccbLArfy.s 			page 49


 2306 0185 0C       		.uleb128 0xc
 2307 0186 03       		.uleb128 0x3
 2308 0187 08       		.uleb128 0x8
 2309 0188 3A       		.uleb128 0x3a
 2310 0189 0B       		.uleb128 0xb
 2311 018a 3B       		.uleb128 0x3b
 2312 018b 05       		.uleb128 0x5
 2313 018c 27       		.uleb128 0x27
 2314 018d 0C       		.uleb128 0xc
 2315 018e 11       		.uleb128 0x11
 2316 018f 01       		.uleb128 0x1
 2317 0190 12       		.uleb128 0x12
 2318 0191 01       		.uleb128 0x1
 2319 0192 40       		.uleb128 0x40
 2320 0193 06       		.uleb128 0x6
 2321 0194 01       		.uleb128 0x1
 2322 0195 13       		.uleb128 0x13
 2323 0196 00       		.byte	0
 2324 0197 00       		.byte	0
 2325 0198 1D       		.uleb128 0x1d
 2326 0199 2E       		.uleb128 0x2e
 2327 019a 00       		.byte	0
 2328 019b 3F       		.uleb128 0x3f
 2329 019c 0C       		.uleb128 0xc
 2330 019d 03       		.uleb128 0x3
 2331 019e 08       		.uleb128 0x8
 2332 019f 3A       		.uleb128 0x3a
 2333 01a0 0B       		.uleb128 0xb
 2334 01a1 3B       		.uleb128 0x3b
 2335 01a2 05       		.uleb128 0x5
 2336 01a3 27       		.uleb128 0x27
 2337 01a4 0C       		.uleb128 0xc
 2338 01a5 11       		.uleb128 0x11
 2339 01a6 01       		.uleb128 0x1
 2340 01a7 12       		.uleb128 0x12
 2341 01a8 01       		.uleb128 0x1
 2342 01a9 40       		.uleb128 0x40
 2343 01aa 06       		.uleb128 0x6
 2344 01ab 00       		.byte	0
 2345 01ac 00       		.byte	0
 2346 01ad 1E       		.uleb128 0x1e
 2347 01ae 2E       		.uleb128 0x2e
 2348 01af 00       		.byte	0
 2349 01b0 03       		.uleb128 0x3
 2350 01b1 08       		.uleb128 0x8
 2351 01b2 27       		.uleb128 0x27
 2352 01b3 0C       		.uleb128 0xc
 2353 01b4 34       		.uleb128 0x34
 2354 01b5 0C       		.uleb128 0xc
 2355 01b6 11       		.uleb128 0x11
 2356 01b7 01       		.uleb128 0x1
 2357 01b8 12       		.uleb128 0x12
 2358 01b9 01       		.uleb128 0x1
 2359 01ba 40       		.uleb128 0x40
 2360 01bb 06       		.uleb128 0x6
 2361 01bc 00       		.byte	0
 2362 01bd 00       		.byte	0
GAS LISTING C:\cygwin\tmp\ccbLArfy.s 			page 50


 2363 01be 1F       		.uleb128 0x1f
 2364 01bf 34       		.uleb128 0x34
 2365 01c0 00       		.byte	0
 2366 01c1 03       		.uleb128 0x3
 2367 01c2 08       		.uleb128 0x8
 2368 01c3 3A       		.uleb128 0x3a
 2369 01c4 0B       		.uleb128 0xb
 2370 01c5 3B       		.uleb128 0x3b
 2371 01c6 0B       		.uleb128 0xb
 2372 01c7 49       		.uleb128 0x49
 2373 01c8 13       		.uleb128 0x13
 2374 01c9 3F       		.uleb128 0x3f
 2375 01ca 0C       		.uleb128 0xc
 2376 01cb 3C       		.uleb128 0x3c
 2377 01cc 0C       		.uleb128 0xc
 2378 01cd 00       		.byte	0
 2379 01ce 00       		.byte	0
 2380 01cf 20       		.uleb128 0x20
 2381 01d0 34       		.uleb128 0x34
 2382 01d1 00       		.byte	0
 2383 01d2 03       		.uleb128 0x3
 2384 01d3 08       		.uleb128 0x8
 2385 01d4 3A       		.uleb128 0x3a
 2386 01d5 0B       		.uleb128 0xb
 2387 01d6 3B       		.uleb128 0x3b
 2388 01d7 0B       		.uleb128 0xb
 2389 01d8 49       		.uleb128 0x49
 2390 01d9 13       		.uleb128 0x13
 2391 01da 3F       		.uleb128 0x3f
 2392 01db 0C       		.uleb128 0xc
 2393 01dc 02       		.uleb128 0x2
 2394 01dd 0A       		.uleb128 0xa
 2395 01de 00       		.byte	0
 2396 01df 00       		.byte	0
 2397 01e0 00       		.byte	0
 2398              		.section	.debug_loc,"dr"
 2399              	Ldebug_loc0:
 2400              	LLST0:
 2401 0000 00000000 		.long	LFB0-Ltext0
 2402 0004 03000000 		.long	LCFI0-Ltext0
 2403 0008 0200     		.word	0x2
 2404 000a 74       		.byte	0x74
 2405 000b 04       		.sleb128 4
 2406 000c 03000000 		.long	LCFI0-Ltext0
 2407 0010 54000000 		.long	LCFI1-Ltext0
 2408 0014 0200     		.word	0x2
 2409 0016 74       		.byte	0x74
 2410 0017 08       		.sleb128 8
 2411 0018 54000000 		.long	LCFI1-Ltext0
 2412 001c 55000000 		.long	LFE0-Ltext0
 2413 0020 0200     		.word	0x2
 2414 0022 74       		.byte	0x74
 2415 0023 04       		.sleb128 4
 2416 0024 00000000 		.long	0
 2417 0028 00000000 		.long	0
 2418              	LLST1:
 2419 002c 55000000 		.long	LFB1-Ltext0
GAS LISTING C:\cygwin\tmp\ccbLArfy.s 			page 51


 2420 0030 58000000 		.long	LCFI2-Ltext0
 2421 0034 0200     		.word	0x2
 2422 0036 74       		.byte	0x74
 2423 0037 04       		.sleb128 4
 2424 0038 58000000 		.long	LCFI2-Ltext0
 2425 003c 49010000 		.long	LCFI3-Ltext0
 2426 0040 0200     		.word	0x2
 2427 0042 74       		.byte	0x74
 2428 0043 18       		.sleb128 24
 2429 0044 49010000 		.long	LCFI3-Ltext0
 2430 0048 4A010000 		.long	LFE1-Ltext0
 2431 004c 0200     		.word	0x2
 2432 004e 74       		.byte	0x74
 2433 004f 04       		.sleb128 4
 2434 0050 00000000 		.long	0
 2435 0054 00000000 		.long	0
 2436              	LLST2:
 2437 0058 4A010000 		.long	LFB2-Ltext0
 2438 005c 4D010000 		.long	LCFI4-Ltext0
 2439 0060 0200     		.word	0x2
 2440 0062 74       		.byte	0x74
 2441 0063 04       		.sleb128 4
 2442 0064 4D010000 		.long	LCFI4-Ltext0
 2443 0068 1D020000 		.long	LCFI5-Ltext0
 2444 006c 0300     		.word	0x3
 2445 006e 74       		.byte	0x74
 2446 006f C000     		.sleb128 64
 2447 0071 1D020000 		.long	LCFI5-Ltext0
 2448 0075 1E020000 		.long	LFE2-Ltext0
 2449 0079 0200     		.word	0x2
 2450 007b 74       		.byte	0x74
 2451 007c 04       		.sleb128 4
 2452 007d 00000000 		.long	0
 2453 0081 00000000 		.long	0
 2454              	LLST3:
 2455 0085 1E020000 		.long	LFB3-Ltext0
 2456 0089 21020000 		.long	LCFI6-Ltext0
 2457 008d 0200     		.word	0x2
 2458 008f 74       		.byte	0x74
 2459 0090 04       		.sleb128 4
 2460 0091 21020000 		.long	LCFI6-Ltext0
 2461 0095 37030000 		.long	LCFI7-Ltext0
 2462 0099 0200     		.word	0x2
 2463 009b 74       		.byte	0x74
 2464 009c 30       		.sleb128 48
 2465 009d 37030000 		.long	LCFI7-Ltext0
 2466 00a1 38030000 		.long	LFE3-Ltext0
 2467 00a5 0200     		.word	0x2
 2468 00a7 74       		.byte	0x74
 2469 00a8 04       		.sleb128 4
 2470 00a9 00000000 		.long	0
 2471 00ad 00000000 		.long	0
 2472              	LLST4:
 2473 00b1 38030000 		.long	LFB4-Ltext0
 2474 00b5 3B030000 		.long	LCFI8-Ltext0
 2475 00b9 0200     		.word	0x2
 2476 00bb 74       		.byte	0x74
GAS LISTING C:\cygwin\tmp\ccbLArfy.s 			page 52


 2477 00bc 04       		.sleb128 4
 2478 00bd 3B030000 		.long	LCFI8-Ltext0
 2479 00c1 76040000 		.long	LCFI9-Ltext0
 2480 00c5 0300     		.word	0x3
 2481 00c7 74       		.byte	0x74
 2482 00c8 D000     		.sleb128 80
 2483 00ca 76040000 		.long	LCFI9-Ltext0
 2484 00ce 77040000 		.long	LFE4-Ltext0
 2485 00d2 0200     		.word	0x2
 2486 00d4 74       		.byte	0x74
 2487 00d5 04       		.sleb128 4
 2488 00d6 00000000 		.long	0
 2489 00da 00000000 		.long	0
 2490              	LLST5:
 2491 00de 77040000 		.long	LFB5-Ltext0
 2492 00e2 7A040000 		.long	LCFI10-Ltext0
 2493 00e6 0200     		.word	0x2
 2494 00e8 74       		.byte	0x74
 2495 00e9 04       		.sleb128 4
 2496 00ea 7A040000 		.long	LCFI10-Ltext0
 2497 00ee 91050000 		.long	LCFI11-Ltext0
 2498 00f2 0200     		.word	0x2
 2499 00f4 74       		.byte	0x74
 2500 00f5 30       		.sleb128 48
 2501 00f6 91050000 		.long	LCFI11-Ltext0
 2502 00fa 92050000 		.long	LFE5-Ltext0
 2503 00fe 0200     		.word	0x2
 2504 0100 74       		.byte	0x74
 2505 0101 04       		.sleb128 4
 2506 0102 00000000 		.long	0
 2507 0106 00000000 		.long	0
 2508              	LLST6:
 2509 010a 92050000 		.long	LFB6-Ltext0
 2510 010e 95050000 		.long	LCFI12-Ltext0
 2511 0112 0200     		.word	0x2
 2512 0114 74       		.byte	0x74
 2513 0115 04       		.sleb128 4
 2514 0116 95050000 		.long	LCFI12-Ltext0
 2515 011a 05060000 		.long	LCFI13-Ltext0
 2516 011e 0200     		.word	0x2
 2517 0120 74       		.byte	0x74
 2518 0121 10       		.sleb128 16
 2519 0122 05060000 		.long	LCFI13-Ltext0
 2520 0126 06060000 		.long	LFE6-Ltext0
 2521 012a 0200     		.word	0x2
 2522 012c 74       		.byte	0x74
 2523 012d 04       		.sleb128 4
 2524 012e 00000000 		.long	0
 2525 0132 00000000 		.long	0
 2526              	LLST7:
 2527 0136 06060000 		.long	LFB7-Ltext0
 2528 013a 09060000 		.long	LCFI14-Ltext0
 2529 013e 0200     		.word	0x2
 2530 0140 74       		.byte	0x74
 2531 0141 04       		.sleb128 4
 2532 0142 09060000 		.long	LCFI14-Ltext0
 2533 0146 82060000 		.long	LCFI15-Ltext0
GAS LISTING C:\cygwin\tmp\ccbLArfy.s 			page 53


 2534 014a 0200     		.word	0x2
 2535 014c 74       		.byte	0x74
 2536 014d 18       		.sleb128 24
 2537 014e 82060000 		.long	LCFI15-Ltext0
 2538 0152 83060000 		.long	LFE7-Ltext0
 2539 0156 0200     		.word	0x2
 2540 0158 74       		.byte	0x74
 2541 0159 04       		.sleb128 4
 2542 015a 00000000 		.long	0
 2543 015e 00000000 		.long	0
 2544              	LLST8:
 2545 0162 83060000 		.long	LFB8-Ltext0
 2546 0166 86060000 		.long	LCFI16-Ltext0
 2547 016a 0200     		.word	0x2
 2548 016c 74       		.byte	0x74
 2549 016d 04       		.sleb128 4
 2550 016e 86060000 		.long	LCFI16-Ltext0
 2551 0172 6B070000 		.long	LCFI17-Ltext0
 2552 0176 0200     		.word	0x2
 2553 0178 74       		.byte	0x74
 2554 0179 30       		.sleb128 48
 2555 017a 6B070000 		.long	LCFI17-Ltext0
 2556 017e 6C070000 		.long	LFE8-Ltext0
 2557 0182 0200     		.word	0x2
 2558 0184 74       		.byte	0x74
 2559 0185 04       		.sleb128 4
 2560 0186 00000000 		.long	0
 2561 018a 00000000 		.long	0
 2562              	LLST9:
 2563 018e 6C070000 		.long	LFB9-Ltext0
 2564 0192 6F070000 		.long	LCFI18-Ltext0
 2565 0196 0200     		.word	0x2
 2566 0198 74       		.byte	0x74
 2567 0199 04       		.sleb128 4
 2568 019a 6F070000 		.long	LCFI18-Ltext0
 2569 019e 9E080000 		.long	LCFI19-Ltext0
 2570 01a2 0200     		.word	0x2
 2571 01a4 74       		.byte	0x74
 2572 01a5 30       		.sleb128 48
 2573 01a6 9E080000 		.long	LCFI19-Ltext0
 2574 01aa 9F080000 		.long	LFE9-Ltext0
 2575 01ae 0200     		.word	0x2
 2576 01b0 74       		.byte	0x74
 2577 01b1 04       		.sleb128 4
 2578 01b2 00000000 		.long	0
 2579 01b6 00000000 		.long	0
 2580              	LLST10:
 2581 01ba 9F080000 		.long	LFB10-Ltext0
 2582 01be A2080000 		.long	LCFI20-Ltext0
 2583 01c2 0200     		.word	0x2
 2584 01c4 74       		.byte	0x74
 2585 01c5 04       		.sleb128 4
 2586 01c6 A2080000 		.long	LCFI20-Ltext0
 2587 01ca 2D090000 		.long	LCFI21-Ltext0
 2588 01ce 0200     		.word	0x2
 2589 01d0 74       		.byte	0x74
 2590 01d1 10       		.sleb128 16
GAS LISTING C:\cygwin\tmp\ccbLArfy.s 			page 54


 2591 01d2 2D090000 		.long	LCFI21-Ltext0
 2592 01d6 2E090000 		.long	LFE10-Ltext0
 2593 01da 0200     		.word	0x2
 2594 01dc 74       		.byte	0x74
 2595 01dd 04       		.sleb128 4
 2596 01de 00000000 		.long	0
 2597 01e2 00000000 		.long	0
 2598              	LLST11:
 2599 01e6 2E090000 		.long	LFB11-Ltext0
 2600 01ea 31090000 		.long	LCFI22-Ltext0
 2601 01ee 0200     		.word	0x2
 2602 01f0 74       		.byte	0x74
 2603 01f1 04       		.sleb128 4
 2604 01f2 31090000 		.long	LCFI22-Ltext0
 2605 01f6 40090000 		.long	LCFI23-Ltext0
 2606 01fa 0200     		.word	0x2
 2607 01fc 74       		.byte	0x74
 2608 01fd 20       		.sleb128 32
 2609 01fe 40090000 		.long	LCFI23-Ltext0
 2610 0202 41090000 		.long	LFE11-Ltext0
 2611 0206 0200     		.word	0x2
 2612 0208 74       		.byte	0x74
 2613 0209 04       		.sleb128 4
 2614 020a 00000000 		.long	0
 2615 020e 00000000 		.long	0
 2616              		.section	.debug_aranges,"dr"
 2617 0000 1C000000 		.long	0x1c
 2618 0004 0200     		.word	0x2
 2619 0006 00000000 		.secrel32	Ldebug_info0
 2620 000a 04       		.byte	0x4
 2621 000b 00       		.byte	0
 2622 000c 0000     		.word	0
 2623 000e 0000     		.word	0
 2624 0010 00000000 		.long	Ltext0
 2625 0014 41090000 		.long	Letext0-Ltext0
 2626 0018 00000000 		.long	0
 2627 001c 00000000 		.long	0
 2628              		.section	.debug_line,"dr"
 2629              	Ldebug_line0:
 2630 0000 15020000 		.section	.debug_str,"dr"
 2630      02000D01 
 2630      00000101 
 2630      FB0E0D00 
 2630      01010101 
 2631              	LASF3:
 2632 0000 6E657773 		.ascii "newstate\0"
 2632      74617465 
 2632      00
 2633              	LASF1:
 2634 0009 56697274 		.ascii "VirtualTimer\0"
 2634      75616C54 
 2634      696D6572 
 2634      00
 2635              	LASF2:
 2636 0016 53656D61 		.ascii "Semaphore\0"
 2636      70686F72 
 2636      6500
GAS LISTING C:\cygwin\tmp\ccbLArfy.s 			page 55


 2637              	LASF0:
 2638 0020 705F6E65 		.ascii "p_next\0"
 2638      787400
 2639              		.def	_fifo_remove;	.scl	2;	.type	32;	.endef
 2640              		.def	_dbg_trace;	.scl	2;	.type	32;	.endef
 2641              		.def	@port_switch@8;	.scl	2;	.type	32;	.endef
 2642              		.def	_dequeue;	.scl	2;	.type	32;	.endef
 2643              		.def	_chVTSetI;	.scl	2;	.type	32;	.endef
 2644              		.def	_chVTResetI;	.scl	2;	.type	32;	.endef
 2645              		.def	___gcov_merge_add;	.scl	2;	.type	32;	.endef
 2646              		.def	___gcov_init;	.scl	2;	.type	32;	.endef
GAS LISTING C:\cygwin\tmp\ccbLArfy.s 			page 56


DEFINED SYMBOLS
                            *ABS*:00000000 chschd.c
                            *COM*:0000001c _rlist
C:\cygwin\tmp\ccbLArfy.s:46     .text:00000000 __scheduler_init
C:\cygwin\tmp\ccbLArfy.s:80     .text:00000055 _chSchReadyI
C:\cygwin\tmp\ccbLArfy.s:178    .text:0000014a _chSchGoSleepS
C:\cygwin\tmp\ccbLArfy.s:245    .text:0000021e _wakeup
C:\cygwin\tmp\ccbLArfy.s:343    .text:00000338 _chSchGoSleepTimeoutS
C:\cygwin\tmp\ccbLArfy.s:439    .text:00000477 _chSchWakeupS
C:\cygwin\tmp\ccbLArfy.s:530    .text:00000592 _chSchRescheduleS
C:\cygwin\tmp\ccbLArfy.s:575    .text:00000606 _chSchIsPreemptionRequired
C:\cygwin\tmp\ccbLArfy.s:629    .text:00000683 _chSchDoRescheduleBehind
C:\cygwin\tmp\ccbLArfy.s:702    .text:0000076c _chSchDoRescheduleAhead
C:\cygwin\tmp\ccbLArfy.s:805    .text:0000089f _chSchDoReschedule
C:\cygwin\tmp\ccbLArfy.s:955    .text:0000092e __GLOBAL__sub_I_65535_0__scheduler_init

UNDEFINED SYMBOLS
_fifo_remove
_dbg_trace
@port_switch@8
_dequeue
_chVTSetI
_chVTResetI
___gcov_merge_add
___gcov_init
