GAS LISTING C:\cygwin\tmp\ccbLArfy.s 			page 1


   1              		.file	"chschd.c"
   2              	 # GNU C (GCC) version 4.6.2 (mingw32)
   3              	 #	compiled by GNU C version 4.6.2, GMP version 5.0.1, MPFR version 2.4.1, MPC version 0.8.1
   4              	 # GGC heuristics: --param ggc-min-expand=100 --param ggc-min-heapsize=131072
   5              	 # options passed:  -I . -I ../../os/ports/GCC/SIMIA32
   6              	 # -I ../../os/kernel/include -I ../../test -I ../../os/hal/include
   7              	 # -I ../../os/hal/platforms/Win32 -I ../../boards/simulator
   8              	 # -I ../../os/various -iprefix c:\mingw\bin\../lib/gcc/mingw32/4.6.2/
   9              	 # -MD ../../os/kernel/src/chschd.d -MF .dep/chschd.o.d -MP
  10              	 # -MQ ../../os/kernel/src/chschd.o -D SIMULATOR
  11              	 # ../../os/kernel/src/chschd.c -mtune=i386 -march=i386
  12              	 # -auxbase-strip ../../os/kernel/src/chschd.o -ggdb -O0 -Wall -Wextra
  13              	 # -Wstrict-prototypes -fomit-frame-pointer -fprofile-arcs -ftest-coverage
  14              	 # -fverbose-asm
  15              	 # options enabled:  -fasynchronous-unwind-tables -fauto-inc-dec
  16              	 # -fbranch-count-reg -fcommon -fdelete-null-pointer-checks
  17              	 # -fdwarf2-cfi-asm -fearly-inlining -feliminate-unused-debug-types
  18              	 # -ffunction-cse -fgcse-lm -fident -finline-functions-called-once
  19              	 # -fira-share-save-slots -fira-share-spill-slots -fivopts
  20              	 # -fkeep-inline-dllexport -fkeep-static-consts -fleading-underscore
  21              	 # -fmath-errno -fmerge-debug-strings -fmove-loop-invariants
  22              	 # -fomit-frame-pointer -fpeephole -fprefetch-loop-arrays -fprofile-arcs
  23              	 # -freg-struct-return -fsched-critical-path-heuristic
  24              	 # -fsched-dep-count-heuristic -fsched-group-heuristic -fsched-interblock
  25              	 # -fsched-last-insn-heuristic -fsched-rank-heuristic -fsched-spec
  26              	 # -fsched-spec-insn-heuristic -fsched-stalled-insns-dep
  27              	 # -fset-stack-executable -fshow-column -fsigned-zeros
  28              	 # -fsplit-ivs-in-unroller -fstrict-volatile-bitfields -ftest-coverage
  29              	 # -ftrapping-math -ftree-cselim -ftree-forwprop -ftree-loop-if-convert
  30              	 # -ftree-loop-im -ftree-loop-ivcanon -ftree-loop-optimize
  31              	 # -ftree-parallelize-loops= -ftree-phiprop -ftree-pta -ftree-reassoc
  32              	 # -ftree-scev-cprop -ftree-slp-vectorize -ftree-vect-loop-version
  33              	 # -funit-at-a-time -funwind-tables -fvect-cost-model -fverbose-asm
  34              	 # -fzero-initialized-in-bss -m32 -m80387 -m96bit-long-double
  35              	 # -maccumulate-outgoing-args -malign-double -malign-stringops
  36              	 # -mfancy-math-387 -mfp-ret-in-387 -mieee-fp -mno-red-zone -mno-sse4
  37              	 # -mpush-args -msahf -mstack-arg-probe
  38              	
  39              		.text
  40              	Ltext0:
  41              	 # Compiler executable checksum: c20aed7c018482d7b62efcd5dcab2a9d
  42              	
  43              		.comm	_rlist, 28, 2
  44              		.globl	__scheduler_init
  45              		.def	__scheduler_init;	.scl	2;	.type	32;	.endef
  46              	__scheduler_init:
  47              	LFB0:
  48              		.file 1 "../../os/kernel/src/chschd.c"
  49              		.loc 1 48 0
  50              		.cfi_startproc
  51 0000 83EC04   		subl	$4, %esp	 #,
  52              	LCFI0:
  53              		.cfi_def_cfa_offset 8
  54              		.loc 1 48 0
  55 0003 A1700100 		movl	LPBX1+368, %eax	 # *LPBX1, PROF_edge_counter.12
  55      00
  56 0008 8B157401 		movl	LPBX1+372, %edx	 # *LPBX1, PROF_edge_counter.12
GAS LISTING C:\cygwin\tmp\ccbLArfy.s 			page 2


  56      0000
  57 000e 83C001   		addl	$1, %eax	 #, PROF_edge_counter.12
  58 0011 83D200   		adcl	$0, %edx	 #, PROF_edge_counter.12
  59 0014 A3700100 		movl	%eax, LPBX1+368	 # PROF_edge_counter.12, *LPBX1
  59      00
  60 0019 89157401 		movl	%edx, LPBX1+372	 # PROF_edge_counter.12, *LPBX1
  60      0000
  61              		.loc 1 50 0
  62 001f C7050400 		movl	$_rlist, _rlist+4	 #, rlist.r_queue.p_prev
  62      00000000 
  62      0000
  63 0029 A1040000 		movl	_rlist+4, %eax	 # rlist.r_queue.p_prev, D.2843
  63      00
  64 002e A3000000 		movl	%eax, _rlist	 # D.2843, rlist.r_queue.p_next
  64      00
  65              		.loc 1 51 0
  66 0033 C7050800 		movl	$0, _rlist+8	 #, rlist.r_prio
  66      00000000 
  66      0000
  67              		.loc 1 53 0
  68 003d C7051400 		movl	$_rlist, _rlist+20	 #, rlist.r_older
  68      00000000 
  68      0000
  69 0047 A1140000 		movl	_rlist+20, %eax	 # rlist.r_older, D.2844
  69      00
  70 004c A3100000 		movl	%eax, _rlist+16	 # D.2844, rlist.r_newer
  70      00
  71              		.loc 1 55 0
  72 0051 83C404   		addl	$4, %esp	 #,
  73              	LCFI1:
  74              		.cfi_def_cfa_offset 4
  75 0054 C3       		ret
  76              		.cfi_endproc
  77              	LFE0:
  78              		.globl	_chSchReadyI
  79              		.def	_chSchReadyI;	.scl	2;	.type	32;	.endef
  80              	_chSchReadyI:
  81              	LFB1:
  82              		.loc 1 74 0
  83              		.cfi_startproc
  84 0055 83EC14   		subl	$20, %esp	 #,
  85              	LCFI2:
  86              		.cfi_def_cfa_offset 24
  87              		.loc 1 80 0
  88 0058 8B442418 		movl	24(%esp), %eax	 # tp, tmp78
  89 005c 8A401C   		movb	28(%eax), %al	 # tp_2(D)->p_state, D.2832
  90              		.loc 1 74 0
  91 005f 84C0     		testb	%al, %al	 # D.2832
  92 0061 7427     		je	L3	 #,
  93 0063 A1500100 		movl	LPBX1+336, %eax	 # *LPBX1, PROF_edge_counter.11
  93      00
  94 0068 8B155401 		movl	LPBX1+340, %edx	 # *LPBX1, PROF_edge_counter.11
  94      0000
  95 006e 83C001   		addl	$1, %eax	 #, PROF_edge_counter.11
  96 0071 83D200   		adcl	$0, %edx	 #, PROF_edge_counter.11
  97 0074 A3500100 		movl	%eax, LPBX1+336	 # PROF_edge_counter.11, *LPBX1
  97      00
GAS LISTING C:\cygwin\tmp\ccbLArfy.s 			page 3


  98 0079 89155401 		movl	%edx, LPBX1+340	 # PROF_edge_counter.11, *LPBX1
  98      0000
  99              		.loc 1 80 0
 100 007f 8B442418 		movl	24(%esp), %eax	 # tp, tmp79
 101 0083 8A401C   		movb	28(%eax), %al	 # tp_2(D)->p_state, D.2834
 102 0086 3C0E     		cmpb	$14, %al	 #, D.2834
 103 0088 751E     		jne	L7	 #,
 104              	L3:
 105              		.loc 1 74 0 discriminator 1
 106 008a A1580100 		movl	LPBX1+344, %eax	 # *LPBX1, PROF_edge_counter.11
 106      00
 107 008f 8B155C01 		movl	LPBX1+348, %edx	 # *LPBX1, PROF_edge_counter.11
 107      0000
 108 0095 83C001   		addl	$1, %eax	 #, PROF_edge_counter.11
 109 0098 83D200   		adcl	$0, %edx	 #, PROF_edge_counter.11
 110 009b A3580100 		movl	%eax, LPBX1+344	 # PROF_edge_counter.11, *LPBX1
 110      00
 111 00a0 89155C01 		movl	%edx, LPBX1+348	 # PROF_edge_counter.11, *LPBX1
 111      0000
 112 00a6 EB01     		jmp	L4	 #
 113              	L7:
 114              		.loc 1 74 0 is_stmt 0
 115 00a8 90       		nop
 116              	L4:
 117              		.loc 1 85 0 is_stmt 1
 118 00a9 8B442418 		movl	24(%esp), %eax	 # tp, tmp80
 119 00ad C6401C00 		movb	$0, 28(%eax)	 #, tp_2(D)->p_state
 120              		.loc 1 86 0
 121 00b1 C744240C 		movl	$_rlist, 12(%esp)	 #, cp
 121      00000000 
 122              	L6:
 123              		.loc 1 88 0 discriminator 1
 124 00b9 8B44240C 		movl	12(%esp), %eax	 # cp, tmp81
 125 00bd 8B00     		movl	(%eax), %eax	 # cp_1->p_next, tmp82
 126 00bf 8944240C 		movl	%eax, 12(%esp)	 # tmp82, cp
 127              		.loc 1 89 0 discriminator 1
 128 00c3 8B44240C 		movl	12(%esp), %eax	 # cp, tmp83
 129 00c7 8B5008   		movl	8(%eax), %edx	 # cp_8->p_prio, D.2836
 130 00ca 8B442418 		movl	24(%esp), %eax	 # tp, tmp84
 131 00ce 8B4008   		movl	8(%eax), %eax	 # tp_2(D)->p_prio, D.2837
 132 00d1 39C2     		cmpl	%eax, %edx	 # D.2837, D.2836
 133 00d3 721E     		jb	L5	 #,
 134              		.loc 1 89 0 is_stmt 0
 135 00d5 A1600100 		movl	LPBX1+352, %eax	 # *LPBX1, PROF_edge_counter.11
 135      00
 136 00da 8B156401 		movl	LPBX1+356, %edx	 # *LPBX1, PROF_edge_counter.11
 136      0000
 137 00e0 83C001   		addl	$1, %eax	 #, PROF_edge_counter.11
 138 00e3 83D200   		adcl	$0, %edx	 #, PROF_edge_counter.11
 139 00e6 A3600100 		movl	%eax, LPBX1+352	 # PROF_edge_counter.11, *LPBX1
 139      00
 140 00eb 89156401 		movl	%edx, LPBX1+356	 # PROF_edge_counter.11, *LPBX1
 140      0000
 141 00f1 EBC6     		jmp	L6	 #
 142              	L5:
 143 00f3 A1680100 		movl	LPBX1+360, %eax	 # *LPBX1, PROF_edge_counter.11
 143      00
GAS LISTING C:\cygwin\tmp\ccbLArfy.s 			page 4


 144 00f8 8B156C01 		movl	LPBX1+364, %edx	 # *LPBX1, PROF_edge_counter.11
 144      0000
 145 00fe 83C001   		addl	$1, %eax	 #, PROF_edge_counter.11
 146 0101 83D200   		adcl	$0, %edx	 #, PROF_edge_counter.11
 147 0104 A3680100 		movl	%eax, LPBX1+360	 # PROF_edge_counter.11, *LPBX1
 147      00
 148 0109 89156C01 		movl	%edx, LPBX1+364	 # PROF_edge_counter.11, *LPBX1
 148      0000
 149              		.loc 1 91 0 is_stmt 1
 150 010f 8B442418 		movl	24(%esp), %eax	 # tp, tmp85
 151 0113 8B54240C 		movl	12(%esp), %edx	 # cp, tmp86
 152 0117 8910     		movl	%edx, (%eax)	 # tmp86, tp_2(D)->p_next
 153              		.loc 1 92 0
 154 0119 8B44240C 		movl	12(%esp), %eax	 # cp, tmp87
 155 011d 8B5004   		movl	4(%eax), %edx	 # cp_8->p_prev, D.2838
 156 0120 8B442418 		movl	24(%esp), %eax	 # tp, tmp88
 157 0124 895004   		movl	%edx, 4(%eax)	 # D.2838, tp_2(D)->p_prev
 158              		.loc 1 93 0
 159 0127 8B442418 		movl	24(%esp), %eax	 # tp, tmp89
 160 012b 8B4004   		movl	4(%eax), %eax	 # tp_2(D)->p_prev, D.2839
 161 012e 8B54240C 		movl	12(%esp), %edx	 # cp, tmp90
 162 0132 8B4C2418 		movl	24(%esp), %ecx	 # tp, tmp91
 163 0136 894A04   		movl	%ecx, 4(%edx)	 # tmp91, cp_8->p_prev
 164 0139 8B54240C 		movl	12(%esp), %edx	 # cp, tmp92
 165 013d 8B5204   		movl	4(%edx), %edx	 # cp_8->p_prev, D.2840
 166 0140 8910     		movl	%edx, (%eax)	 # D.2840, D.2839_12->p_next
 167              		.loc 1 94 0
 168 0142 8B442418 		movl	24(%esp), %eax	 # tp, D.2841
 169              		.loc 1 95 0
 170 0146 83C414   		addl	$20, %esp	 #,
 171              	LCFI3:
 172              		.cfi_def_cfa_offset 4
 173 0149 C3       		ret
 174              		.cfi_endproc
 175              	LFE1:
 176              		.globl	_chSchGoSleepS
 177              		.def	_chSchGoSleepS;	.scl	2;	.type	32;	.endef
 178              	_chSchGoSleepS:
 179              	LFB2:
 180              		.loc 1 108 0
 181              		.cfi_startproc
 182 014a 83EC3C   		subl	$60, %esp	 #,
 183              	LCFI4:
 184              		.cfi_def_cfa_offset 64
 185 014d 8B442440 		movl	64(%esp), %eax	 # newstate, tmp70
 186 0151 8844241C 		movb	%al, 28(%esp)	 # tmp70, newstate
 187              		.loc 1 108 0
 188 0155 A1300100 		movl	LPBX1+304, %eax	 # *LPBX1, PROF_edge_counter.10
 188      00
 189 015a 8B153401 		movl	LPBX1+308, %edx	 # *LPBX1, PROF_edge_counter.10
 189      0000
 190 0160 83C001   		addl	$1, %eax	 #, PROF_edge_counter.10
 191 0163 83D200   		adcl	$0, %edx	 #, PROF_edge_counter.10
 192 0166 A3300100 		movl	%eax, LPBX1+304	 # PROF_edge_counter.10, *LPBX1
 192      00
 193 016b 89153401 		movl	%edx, LPBX1+308	 # PROF_edge_counter.10, *LPBX1
 193      0000
GAS LISTING C:\cygwin\tmp\ccbLArfy.s 			page 5


 194              		.loc 1 113 0
 195 0171 A1180000 		movl	_rlist+24, %eax	 # rlist.r_current, tmp71
 195      00
 196 0176 8944242C 		movl	%eax, 44(%esp)	 # tmp71, otp
 197 017a 8B44242C 		movl	44(%esp), %eax	 # otp, tmp72
 198 017e 8A54241C 		movb	28(%esp), %dl	 # newstate, tmp73
 199 0182 88501C   		movb	%dl, 28(%eax)	 # tmp73, otp_1->p_state
 200              		.loc 1 117 0
 201 0185 8B44242C 		movl	44(%esp), %eax	 # otp, tmp74
 202 0189 C6401F14 		movb	$20, 31(%eax)	 #, otp_1->p_preempt
 203              		.loc 1 119 0
 204 018d C7042400 		movl	$_rlist, (%esp)	 #,
 204      000000
 205 0194 E8000000 		call	_fifo_remove	 #
 205      00
 206 0199 89C1     		movl	%eax, %ecx	 #, D.2826
 207 019b A1380100 		movl	LPBX1+312, %eax	 # *LPBX1, PROF_edge_counter.10
 207      00
 208 01a0 8B153C01 		movl	LPBX1+316, %edx	 # *LPBX1, PROF_edge_counter.10
 208      0000
 209 01a6 83C001   		addl	$1, %eax	 #, PROF_edge_counter.10
 210 01a9 83D200   		adcl	$0, %edx	 #, PROF_edge_counter.10
 211 01ac A3380100 		movl	%eax, LPBX1+312	 # PROF_edge_counter.10, *LPBX1
 211      00
 212 01b1 89153C01 		movl	%edx, LPBX1+316	 # PROF_edge_counter.10, *LPBX1
 212      0000
 213 01b7 890D1800 		movl	%ecx, _rlist+24	 # D.2826, rlist.r_current
 213      0000
 214              		.loc 1 120 0
 215 01bd A1180000 		movl	_rlist+24, %eax	 # rlist.r_current, D.2827
 215      00
 216 01c2 C6401C01 		movb	$1, 28(%eax)	 #, D.2827_4->p_state
 217              		.loc 1 121 0
 218 01c6 8B44242C 		movl	44(%esp), %eax	 # otp, tmp75
 219 01ca 890424   		movl	%eax, (%esp)	 # tmp75,
 220 01cd E8000000 		call	_dbg_trace	 #
 220      00
 221 01d2 A1400100 		movl	LPBX1+320, %eax	 # *LPBX1, PROF_edge_counter.10
 221      00
 222 01d7 8B154401 		movl	LPBX1+324, %edx	 # *LPBX1, PROF_edge_counter.10
 222      0000
 223 01dd 83C001   		addl	$1, %eax	 #, PROF_edge_counter.10
 224 01e0 83D200   		adcl	$0, %edx	 #, PROF_edge_counter.10
 225 01e3 A3400100 		movl	%eax, LPBX1+320	 # PROF_edge_counter.10, *LPBX1
 225      00
 226 01e8 89154401 		movl	%edx, LPBX1+324	 # PROF_edge_counter.10, *LPBX1
 226      0000
 227 01ee A1180000 		movl	_rlist+24, %eax	 # rlist.r_current, D.2828
 227      00
 228 01f3 8B54242C 		movl	44(%esp), %edx	 # otp, tmp76
 229 01f7 89C1     		movl	%eax, %ecx	 # D.2828,
 230 01f9 E8000000 		call	@port_switch@8	 #
 230      00
 231 01fe A1480100 		movl	LPBX1+328, %eax	 # *LPBX1, PROF_edge_counter.10
 231      00
 232 0203 8B154C01 		movl	LPBX1+332, %edx	 # *LPBX1, PROF_edge_counter.10
 232      0000
GAS LISTING C:\cygwin\tmp\ccbLArfy.s 			page 6


 233 0209 83C001   		addl	$1, %eax	 #, PROF_edge_counter.10
 234 020c 83D200   		adcl	$0, %edx	 #, PROF_edge_counter.10
 235 020f A3480100 		movl	%eax, LPBX1+328	 # PROF_edge_counter.10, *LPBX1
 235      00
 236 0214 89154C01 		movl	%edx, LPBX1+332	 # PROF_edge_counter.10, *LPBX1
 236      0000
 237              		.loc 1 122 0
 238 021a 83C43C   		addl	$60, %esp	 #,
 239              	LCFI5:
 240              		.cfi_def_cfa_offset 4
 241 021d C3       		ret
 242              		.cfi_endproc
 243              	LFE2:
 244              		.def	_wakeup;	.scl	3;	.type	32;	.endef
 245              	_wakeup:
 246              	LFB3:
 247              		.loc 1 129 0
 248              		.cfi_startproc
 249 021e 83EC2C   		subl	$44, %esp	 #,
 250              	LCFI6:
 251              		.cfi_def_cfa_offset 48
 252              		.loc 1 129 0
 253 0221 A1000100 		movl	LPBX1+256, %eax	 # *LPBX1, PROF_edge_counter.9
 253      00
 254 0226 8B150401 		movl	LPBX1+260, %edx	 # *LPBX1, PROF_edge_counter.9
 254      0000
 255 022c 83C001   		addl	$1, %eax	 #, PROF_edge_counter.9
 256 022f 83D200   		adcl	$0, %edx	 #, PROF_edge_counter.9
 257 0232 A3000100 		movl	%eax, LPBX1+256	 # PROF_edge_counter.9, *LPBX1
 257      00
 258 0237 89150401 		movl	%edx, LPBX1+260	 # PROF_edge_counter.9, *LPBX1
 258      0000
 259              		.loc 1 130 0
 260 023d 8B442430 		movl	48(%esp), %eax	 # p, tmp76
 261 0241 8944241C 		movl	%eax, 28(%esp)	 # tmp76, tp
 262              		.loc 1 133 0
 263 0245 8B44241C 		movl	28(%esp), %eax	 # tp, tmp77
 264 0249 8A401C   		movb	28(%eax), %al	 # tp_2->p_state, D.2819
 265 024c 0FB6C0   		movzbl	%al, %eax	 # D.2819, D.2820
 266 024f 83F803   		cmpl	$3, %eax	 #, D.2820
 267 0252 745B     		je	L12	 #,
 268 0254 83F803   		cmpl	$3, %eax	 #, D.2820
 269 0257 7F09     		jg	L14	 #,
 270 0259 85C0     		testl	%eax, %eax	 # D.2820
 271 025b 7431     		je	L11	 #,
 272 025d E99F0000 		jmp	L10	 #
 272      00
 273              	L14:
 274 0262 83F805   		cmpl	$5, %eax	 #, D.2820
 275 0265 7409     		je	L13	 #,
 276 0267 83F80D   		cmpl	$13, %eax	 #, D.2820
 277 026a 0F859100 		jne	L10	 #,
 277      0000
 278              	L13:
 279 0270 A1080100 		movl	LPBX1+264, %eax	 # *LPBX1, PROF_edge_counter.9
 279      00
 280 0275 8B150C01 		movl	LPBX1+268, %edx	 # *LPBX1, PROF_edge_counter.9
GAS LISTING C:\cygwin\tmp\ccbLArfy.s 			page 7


 280      0000
 281 027b 83C001   		addl	$1, %eax	 #, PROF_edge_counter.9
 282 027e 83D200   		adcl	$0, %edx	 #, PROF_edge_counter.9
 283 0281 A3080100 		movl	%eax, LPBX1+264	 # PROF_edge_counter.9, *LPBX1
 283      00
 284 0286 89150C01 		movl	%edx, LPBX1+268	 # PROF_edge_counter.9, *LPBX1
 284      0000
 285 028c EB4B     		jmp	L15	 #
 286              	L11:
 287 028e A1100100 		movl	LPBX1+272, %eax	 # *LPBX1, PROF_edge_counter.9
 287      00
 288 0293 8B151401 		movl	LPBX1+276, %edx	 # *LPBX1, PROF_edge_counter.9
 288      0000
 289 0299 83C001   		addl	$1, %eax	 #, PROF_edge_counter.9
 290 029c 83D200   		adcl	$0, %edx	 #, PROF_edge_counter.9
 291 029f A3100100 		movl	%eax, LPBX1+272	 # PROF_edge_counter.9, *LPBX1
 291      00
 292 02a4 89151401 		movl	%edx, LPBX1+276	 # PROF_edge_counter.9, *LPBX1
 292      0000
 293              		.loc 1 138 0
 294 02aa E9850000 		jmp	L9	 #
 294      00
 295              	L12:
 296              		.loc 1 143 0
 297 02af 8B44241C 		movl	28(%esp), %eax	 # tp, tmp78
 298 02b3 8B4024   		movl	36(%eax), %eax	 # tp_2->p_u.wtobjp, D.2821
 299 02b6 8B5008   		movl	8(%eax), %edx	 # MEM[(struct Semaphore *)D.2821_5].s_cnt, D.2822
 300 02b9 42       		incl	%edx	 # D.2823
 301 02ba 895008   		movl	%edx, 8(%eax)	 # D.2823, MEM[(struct Semaphore *)D.2821_5].s_cnt
 302 02bd A1180100 		movl	LPBX1+280, %eax	 # *LPBX1, PROF_edge_counter.9
 302      00
 303 02c2 8B151C01 		movl	LPBX1+284, %edx	 # *LPBX1, PROF_edge_counter.9
 303      0000
 304 02c8 83C001   		addl	$1, %eax	 #, PROF_edge_counter.9
 305 02cb 83D200   		adcl	$0, %edx	 #, PROF_edge_counter.9
 306 02ce A3180100 		movl	%eax, LPBX1+280	 # PROF_edge_counter.9, *LPBX1
 306      00
 307 02d3 89151C01 		movl	%edx, LPBX1+284	 # PROF_edge_counter.9, *LPBX1
 307      0000
 308              	L15:
 309              		.loc 1 153 0
 310 02d9 8B44241C 		movl	28(%esp), %eax	 # tp, tmp79
 311 02dd 890424   		movl	%eax, (%esp)	 # tmp79,
 312 02e0 E8000000 		call	_dequeue	 #
 312      00
 313 02e5 A1200100 		movl	LPBX1+288, %eax	 # *LPBX1, PROF_edge_counter.9
 313      00
 314 02ea 8B152401 		movl	LPBX1+292, %edx	 # *LPBX1, PROF_edge_counter.9
 314      0000
 315 02f0 83C001   		addl	$1, %eax	 #, PROF_edge_counter.9
 316 02f3 83D200   		adcl	$0, %edx	 #, PROF_edge_counter.9
 317 02f6 A3200100 		movl	%eax, LPBX1+288	 # PROF_edge_counter.9, *LPBX1
 317      00
 318 02fb 89152401 		movl	%edx, LPBX1+292	 # PROF_edge_counter.9, *LPBX1
 318      0000
 319              	L10:
 320              		.loc 1 156 0
GAS LISTING C:\cygwin\tmp\ccbLArfy.s 			page 8


 321 0301 8B44241C 		movl	28(%esp), %eax	 # tp, tmp80
 322 0305 C74024FF 		movl	$-1, 36(%eax)	 #, tp_2->p_u.rdymsg
 322      FFFFFF
 323              		.loc 1 157 0
 324 030c 8B44241C 		movl	28(%esp), %eax	 # tp, tmp81
 325 0310 890424   		movl	%eax, (%esp)	 # tmp81,
 326 0313 E83DFDFF 		call	_chSchReadyI	 #
 326      FF
 327 0318 A1280100 		movl	LPBX1+296, %eax	 # *LPBX1, PROF_edge_counter.9
 327      00
 328 031d 8B152C01 		movl	LPBX1+300, %edx	 # *LPBX1, PROF_edge_counter.9
 328      0000
 329 0323 83C001   		addl	$1, %eax	 #, PROF_edge_counter.9
 330 0326 83D200   		adcl	$0, %edx	 #, PROF_edge_counter.9
 331 0329 A3280100 		movl	%eax, LPBX1+296	 # PROF_edge_counter.9, *LPBX1
 331      00
 332 032e 89152C01 		movl	%edx, LPBX1+300	 # PROF_edge_counter.9, *LPBX1
 332      0000
 333              	L9:
 334              		.loc 1 159 0
 335 0334 83C42C   		addl	$44, %esp	 #,
 336              	LCFI7:
 337              		.cfi_def_cfa_offset 4
 338 0337 C3       		ret
 339              		.cfi_endproc
 340              	LFE3:
 341              		.globl	_chSchGoSleepTimeoutS
 342              		.def	_chSchGoSleepTimeoutS;	.scl	2;	.type	32;	.endef
 343              	_chSchGoSleepTimeoutS:
 344              	LFB4:
 345              		.loc 1 182 0
 346              		.cfi_startproc
 347 0338 83EC4C   		subl	$76, %esp	 #,
 348              	LCFI8:
 349              		.cfi_def_cfa_offset 80
 350 033b 8B442450 		movl	80(%esp), %eax	 # newstate, tmp80
 351 033f 8844241C 		movb	%al, 28(%esp)	 # tmp80, newstate
 352              		.loc 1 186 0
 353 0343 837C2454 		cmpl	$-1, 84(%esp)	 #, time
 353      FF
 354 0348 0F84D800 		je	L18	 #,
 354      0000
 355 034e A1C80000 		movl	LPBX1+200, %eax	 # *LPBX1, PROF_edge_counter.8
 355      00
 356 0353 8B15CC00 		movl	LPBX1+204, %edx	 # *LPBX1, PROF_edge_counter.8
 356      0000
 357 0359 83C001   		addl	$1, %eax	 #, PROF_edge_counter.8
 358 035c 83D200   		adcl	$0, %edx	 #, PROF_edge_counter.8
 359 035f A3C80000 		movl	%eax, LPBX1+200	 # PROF_edge_counter.8, *LPBX1
 359      00
 360 0364 8915CC00 		movl	%edx, LPBX1+204	 # PROF_edge_counter.8, *LPBX1
 360      0000
 361              	LBB2:
 362              		.loc 1 189 0
 363 036a A1180000 		movl	_rlist+24, %eax	 # rlist.r_current, D.2809
 363      00
 364 036f 8944240C 		movl	%eax, 12(%esp)	 # D.2809,
GAS LISTING C:\cygwin\tmp\ccbLArfy.s 			page 9


 365 0373 C7442408 		movl	$_wakeup, 8(%esp)	 #,
 365      1E020000 
 366 037b 8B442454 		movl	84(%esp), %eax	 # time, tmp81
 367 037f 89442404 		movl	%eax, 4(%esp)	 # tmp81,
 368 0383 8D44242C 		leal	44(%esp), %eax	 #, tmp82
 369 0387 890424   		movl	%eax, (%esp)	 # tmp82,
 370 038a E8000000 		call	_chVTSetI	 #
 370      00
 371 038f A1D80000 		movl	LPBX1+216, %eax	 # *LPBX1, PROF_edge_counter.8
 371      00
 372 0394 8B15DC00 		movl	LPBX1+220, %edx	 # *LPBX1, PROF_edge_counter.8
 372      0000
 373 039a 83C001   		addl	$1, %eax	 #, PROF_edge_counter.8
 374 039d 83D200   		adcl	$0, %edx	 #, PROF_edge_counter.8
 375 03a0 A3D80000 		movl	%eax, LPBX1+216	 # PROF_edge_counter.8, *LPBX1
 375      00
 376 03a5 8915DC00 		movl	%edx, LPBX1+220	 # PROF_edge_counter.8, *LPBX1
 376      0000
 377              		.loc 1 190 0
 378 03ab 0FB64424 		movzbl	28(%esp), %eax	 # newstate, D.2810
 378      1C
 379 03b0 890424   		movl	%eax, (%esp)	 # D.2810,
 380 03b3 E892FDFF 		call	_chSchGoSleepS	 #
 380      FF
 381 03b8 A1E00000 		movl	LPBX1+224, %eax	 # *LPBX1, PROF_edge_counter.8
 381      00
 382 03bd 8B15E400 		movl	LPBX1+228, %edx	 # *LPBX1, PROF_edge_counter.8
 382      0000
 383 03c3 83C001   		addl	$1, %eax	 #, PROF_edge_counter.8
 384 03c6 83D200   		adcl	$0, %edx	 #, PROF_edge_counter.8
 385 03c9 A3E00000 		movl	%eax, LPBX1+224	 # PROF_edge_counter.8, *LPBX1
 385      00
 386 03ce 8915E400 		movl	%edx, LPBX1+228	 # PROF_edge_counter.8, *LPBX1
 386      0000
 387              		.loc 1 191 0
 388 03d4 8B442438 		movl	56(%esp), %eax	 # vt.vt_func, D.2811
 389 03d8 85C0     		testl	%eax, %eax	 # D.2811
 390 03da 0F848B00 		je	L19	 #,
 390      0000
 391 03e0 A1E80000 		movl	LPBX1+232, %eax	 # *LPBX1, PROF_edge_counter.8
 391      00
 392 03e5 8B15EC00 		movl	LPBX1+236, %edx	 # *LPBX1, PROF_edge_counter.8
 392      0000
 393 03eb 83C001   		addl	$1, %eax	 #, PROF_edge_counter.8
 394 03ee 83D200   		adcl	$0, %edx	 #, PROF_edge_counter.8
 395 03f1 A3E80000 		movl	%eax, LPBX1+232	 # PROF_edge_counter.8, *LPBX1
 395      00
 396 03f6 8915EC00 		movl	%edx, LPBX1+236	 # PROF_edge_counter.8, *LPBX1
 396      0000
 397              		.loc 1 192 0
 398 03fc 8D44242C 		leal	44(%esp), %eax	 #, tmp83
 399 0400 890424   		movl	%eax, (%esp)	 # tmp83,
 400 0403 E8000000 		call	_chVTResetI	 #
 400      00
 401 0408 A1F00000 		movl	LPBX1+240, %eax	 # *LPBX1, PROF_edge_counter.8
 401      00
 402 040d 8B15F400 		movl	LPBX1+244, %edx	 # *LPBX1, PROF_edge_counter.8
GAS LISTING C:\cygwin\tmp\ccbLArfy.s 			page 10


 402      0000
 403 0413 83C001   		addl	$1, %eax	 #, PROF_edge_counter.8
 404 0416 83D200   		adcl	$0, %edx	 #, PROF_edge_counter.8
 405 0419 A3F00000 		movl	%eax, LPBX1+240	 # PROF_edge_counter.8, *LPBX1
 405      00
 406 041e 8915F400 		movl	%edx, LPBX1+244	 # PROF_edge_counter.8, *LPBX1
 406      0000
 407 0424 EB45     		jmp	L19	 #
 408              	L18:
 409 0426 A1D00000 		movl	LPBX1+208, %eax	 # *LPBX1, PROF_edge_counter.8
 409      00
 410 042b 8B15D400 		movl	LPBX1+212, %edx	 # *LPBX1, PROF_edge_counter.8
 410      0000
 411 0431 83C001   		addl	$1, %eax	 #, PROF_edge_counter.8
 412 0434 83D200   		adcl	$0, %edx	 #, PROF_edge_counter.8
 413 0437 A3D00000 		movl	%eax, LPBX1+208	 # PROF_edge_counter.8, *LPBX1
 413      00
 414 043c 8915D400 		movl	%edx, LPBX1+212	 # PROF_edge_counter.8, *LPBX1
 414      0000
 415              	LBE2:
 416              		.loc 1 195 0
 417 0442 0FB64424 		movzbl	28(%esp), %eax	 # newstate, D.2815
 417      1C
 418 0447 890424   		movl	%eax, (%esp)	 # D.2815,
 419 044a E8FBFCFF 		call	_chSchGoSleepS	 #
 419      FF
 420 044f A1F80000 		movl	LPBX1+248, %eax	 # *LPBX1, PROF_edge_counter.8
 420      00
 421 0454 8B15FC00 		movl	LPBX1+252, %edx	 # *LPBX1, PROF_edge_counter.8
 421      0000
 422 045a 83C001   		addl	$1, %eax	 #, PROF_edge_counter.8
 423 045d 83D200   		adcl	$0, %edx	 #, PROF_edge_counter.8
 424 0460 A3F80000 		movl	%eax, LPBX1+248	 # PROF_edge_counter.8, *LPBX1
 424      00
 425 0465 8915FC00 		movl	%edx, LPBX1+252	 # PROF_edge_counter.8, *LPBX1
 425      0000
 426              	L19:
 427              		.loc 1 196 0
 428 046b A1180000 		movl	_rlist+24, %eax	 # rlist.r_current, D.2817
 428      00
 429 0470 8B4024   		movl	36(%eax), %eax	 # D.2817_7->p_u.rdymsg, D.2816
 430              		.loc 1 197 0
 431 0473 83C44C   		addl	$76, %esp	 #,
 432              	LCFI9:
 433              		.cfi_def_cfa_offset 4
 434 0476 C3       		ret
 435              		.cfi_endproc
 436              	LFE4:
 437              		.globl	_chSchWakeupS
 438              		.def	_chSchWakeupS;	.scl	2;	.type	32;	.endef
 439              	_chSchWakeupS:
 440              	LFB5:
 441              		.loc 1 218 0
 442              		.cfi_startproc
 443 0477 83EC2C   		subl	$44, %esp	 #,
 444              	LCFI10:
 445              		.cfi_def_cfa_offset 48
GAS LISTING C:\cygwin\tmp\ccbLArfy.s 			page 11


 446              		.loc 1 222 0
 447 047a 8B442430 		movl	48(%esp), %eax	 # ntp, tmp75
 448 047e 8B542434 		movl	52(%esp), %edx	 # msg, tmp76
 449 0482 895024   		movl	%edx, 36(%eax)	 # tmp76, ntp_1(D)->p_u.rdymsg
 450              		.loc 1 227 0
 451 0485 8B442430 		movl	48(%esp), %eax	 # ntp, tmp77
 452 0489 8B5008   		movl	8(%eax), %edx	 # ntp_1(D)->p_prio, D.2800
 453 048c A1180000 		movl	_rlist+24, %eax	 # rlist.r_current, D.2801
 453      00
 454 0491 8B4008   		movl	8(%eax), %eax	 # D.2801_4->p_prio, D.2802
 455 0494 39C2     		cmpl	%eax, %edx	 # D.2802, D.2800
 456 0496 7749     		ja	L21	 #,
 457 0498 A1980000 		movl	LPBX1+152, %eax	 # *LPBX1, PROF_edge_counter.7
 457      00
 458 049d 8B159C00 		movl	LPBX1+156, %edx	 # *LPBX1, PROF_edge_counter.7
 458      0000
 459 04a3 83C001   		addl	$1, %eax	 #, PROF_edge_counter.7
 460 04a6 83D200   		adcl	$0, %edx	 #, PROF_edge_counter.7
 461 04a9 A3980000 		movl	%eax, LPBX1+152	 # PROF_edge_counter.7, *LPBX1
 461      00
 462 04ae 89159C00 		movl	%edx, LPBX1+156	 # PROF_edge_counter.7, *LPBX1
 462      0000
 463              		.loc 1 228 0
 464 04b4 8B442430 		movl	48(%esp), %eax	 # ntp, tmp78
 465 04b8 890424   		movl	%eax, (%esp)	 # tmp78,
 466 04bb E895FBFF 		call	_chSchReadyI	 #
 466      FF
 467 04c0 A1A80000 		movl	LPBX1+168, %eax	 # *LPBX1, PROF_edge_counter.7
 467      00
 468 04c5 8B15AC00 		movl	LPBX1+172, %edx	 # *LPBX1, PROF_edge_counter.7
 468      0000
 469 04cb 83C001   		addl	$1, %eax	 #, PROF_edge_counter.7
 470 04ce 83D200   		adcl	$0, %edx	 #, PROF_edge_counter.7
 471 04d1 A3A80000 		movl	%eax, LPBX1+168	 # PROF_edge_counter.7, *LPBX1
 471      00
 472 04d6 8915AC00 		movl	%edx, LPBX1+172	 # PROF_edge_counter.7, *LPBX1
 472      0000
 473 04dc E9AD0000 		jmp	L20	 #
 473      00
 474              	L21:
 475 04e1 A1A00000 		movl	LPBX1+160, %eax	 # *LPBX1, PROF_edge_counter.7
 475      00
 476 04e6 8B15A400 		movl	LPBX1+164, %edx	 # *LPBX1, PROF_edge_counter.7
 476      0000
 477 04ec 83C001   		addl	$1, %eax	 #, PROF_edge_counter.7
 478 04ef 83D200   		adcl	$0, %edx	 #, PROF_edge_counter.7
 479 04f2 A3A00000 		movl	%eax, LPBX1+160	 # PROF_edge_counter.7, *LPBX1
 479      00
 480 04f7 8915A400 		movl	%edx, LPBX1+164	 # PROF_edge_counter.7, *LPBX1
 480      0000
 481              	LBB3:
 482              		.loc 1 230 0
 483 04fd A1180000 		movl	_rlist+24, %eax	 # rlist.r_current, D.2806
 483      00
 484 0502 890424   		movl	%eax, (%esp)	 # D.2806,
 485 0505 E84BFBFF 		call	_chSchReadyI	 #
 485      FF
GAS LISTING C:\cygwin\tmp\ccbLArfy.s 			page 12


 486 050a 8944241C 		movl	%eax, 28(%esp)	 # tmp79, otp
 487 050e A1B00000 		movl	LPBX1+176, %eax	 # *LPBX1, PROF_edge_counter.7
 487      00
 488 0513 8B15B400 		movl	LPBX1+180, %edx	 # *LPBX1, PROF_edge_counter.7
 488      0000
 489 0519 83C001   		addl	$1, %eax	 #, PROF_edge_counter.7
 490 051c 83D200   		adcl	$0, %edx	 #, PROF_edge_counter.7
 491 051f A3B00000 		movl	%eax, LPBX1+176	 # PROF_edge_counter.7, *LPBX1
 491      00
 492 0524 8915B400 		movl	%edx, LPBX1+180	 # PROF_edge_counter.7, *LPBX1
 492      0000
 493              		.loc 1 231 0
 494 052a 8B442430 		movl	48(%esp), %eax	 # ntp, tmp80
 495 052e A3180000 		movl	%eax, _rlist+24	 # tmp80, rlist.r_current
 495      00
 496              		.loc 1 232 0
 497 0533 8B442430 		movl	48(%esp), %eax	 # ntp, tmp81
 498 0537 C6401C01 		movb	$1, 28(%eax)	 #, ntp_1(D)->p_state
 499              		.loc 1 233 0
 500 053b 8B44241C 		movl	28(%esp), %eax	 # otp, tmp82
 501 053f 890424   		movl	%eax, (%esp)	 # tmp82,
 502 0542 E8000000 		call	_dbg_trace	 #
 502      00
 503 0547 A1B80000 		movl	LPBX1+184, %eax	 # *LPBX1, PROF_edge_counter.7
 503      00
 504 054c 8B15BC00 		movl	LPBX1+188, %edx	 # *LPBX1, PROF_edge_counter.7
 504      0000
 505 0552 83C001   		addl	$1, %eax	 #, PROF_edge_counter.7
 506 0555 83D200   		adcl	$0, %edx	 #, PROF_edge_counter.7
 507 0558 A3B80000 		movl	%eax, LPBX1+184	 # PROF_edge_counter.7, *LPBX1
 507      00
 508 055d 8915BC00 		movl	%edx, LPBX1+188	 # PROF_edge_counter.7, *LPBX1
 508      0000
 509 0563 8B44241C 		movl	28(%esp), %eax	 # otp, tmp83
 510 0567 89C2     		movl	%eax, %edx	 # tmp83,
 511 0569 8B4C2430 		movl	48(%esp), %ecx	 # ntp,
 512 056d E8000000 		call	@port_switch@8	 #
 512      00
 513 0572 A1C00000 		movl	LPBX1+192, %eax	 # *LPBX1, PROF_edge_counter.7
 513      00
 514 0577 8B15C400 		movl	LPBX1+196, %edx	 # *LPBX1, PROF_edge_counter.7
 514      0000
 515 057d 83C001   		addl	$1, %eax	 #, PROF_edge_counter.7
 516 0580 83D200   		adcl	$0, %edx	 #, PROF_edge_counter.7
 517 0583 A3C00000 		movl	%eax, LPBX1+192	 # PROF_edge_counter.7, *LPBX1
 517      00
 518 0588 8915C400 		movl	%edx, LPBX1+196	 # PROF_edge_counter.7, *LPBX1
 518      0000
 519              	L20:
 520              	LBE3:
 521              		.loc 1 235 0
 522 058e 83C42C   		addl	$44, %esp	 #,
 523              	LCFI11:
 524              		.cfi_def_cfa_offset 4
 525 0591 C3       		ret
 526              		.cfi_endproc
 527              	LFE5:
GAS LISTING C:\cygwin\tmp\ccbLArfy.s 			page 13


 528              		.globl	_chSchRescheduleS
 529              		.def	_chSchRescheduleS;	.scl	2;	.type	32;	.endef
 530              	_chSchRescheduleS:
 531              	LFB6:
 532              		.loc 1 246 0
 533              		.cfi_startproc
 534 0592 83EC0C   		subl	$12, %esp	 #,
 535              	LCFI12:
 536              		.cfi_def_cfa_offset 16
 537              		.loc 1 246 0
 538 0595 A1800000 		movl	LPBX1+128, %eax	 # *LPBX1, PROF_edge_counter.6
 538      00
 539 059a 8B158400 		movl	LPBX1+132, %edx	 # *LPBX1, PROF_edge_counter.6
 539      0000
 540 05a0 83C001   		addl	$1, %eax	 #, PROF_edge_counter.6
 541 05a3 83D200   		adcl	$0, %edx	 #, PROF_edge_counter.6
 542 05a6 A3800000 		movl	%eax, LPBX1+128	 # PROF_edge_counter.6, *LPBX1
 542      00
 543 05ab 89158400 		movl	%edx, LPBX1+132	 # PROF_edge_counter.6, *LPBX1
 543      0000
 544              		.loc 1 250 0
 545 05b1 A1000000 		movl	_rlist, %eax	 # rlist.r_queue.p_next, D.2794
 545      00
 546 05b6 8B5008   		movl	8(%eax), %edx	 # D.2794_1->p_prio, D.2795
 547 05b9 A1180000 		movl	_rlist+24, %eax	 # rlist.r_current, D.2796
 547      00
 548 05be 8B4008   		movl	8(%eax), %eax	 # D.2796_3->p_prio, D.2797
 549 05c1 39C2     		cmpl	%eax, %edx	 # D.2797, D.2795
 550 05c3 763D     		jbe	L23	 #,
 551 05c5 A1880000 		movl	LPBX1+136, %eax	 # *LPBX1, PROF_edge_counter.6
 551      00
 552 05ca 8B158C00 		movl	LPBX1+140, %edx	 # *LPBX1, PROF_edge_counter.6
 552      0000
 553 05d0 83C001   		addl	$1, %eax	 #, PROF_edge_counter.6
 554 05d3 83D200   		adcl	$0, %edx	 #, PROF_edge_counter.6
 555 05d6 A3880000 		movl	%eax, LPBX1+136	 # PROF_edge_counter.6, *LPBX1
 555      00
 556 05db 89158C00 		movl	%edx, LPBX1+140	 # PROF_edge_counter.6, *LPBX1
 556      0000
 557              		.loc 1 251 0
 558 05e1 E8860100 		call	_chSchDoRescheduleAhead	 #
 558      00
 559 05e6 A1900000 		movl	LPBX1+144, %eax	 # *LPBX1, PROF_edge_counter.6
 559      00
 560 05eb 8B159400 		movl	LPBX1+148, %edx	 # *LPBX1, PROF_edge_counter.6
 560      0000
 561 05f1 83C001   		addl	$1, %eax	 #, PROF_edge_counter.6
 562 05f4 83D200   		adcl	$0, %edx	 #, PROF_edge_counter.6
 563 05f7 A3900000 		movl	%eax, LPBX1+144	 # PROF_edge_counter.6, *LPBX1
 563      00
 564 05fc 89159400 		movl	%edx, LPBX1+148	 # PROF_edge_counter.6, *LPBX1
 564      0000
 565              	L23:
 566              		.loc 1 252 0
 567 0602 83C40C   		addl	$12, %esp	 #,
 568              	LCFI13:
 569              		.cfi_def_cfa_offset 4
GAS LISTING C:\cygwin\tmp\ccbLArfy.s 			page 14


 570 0605 C3       		ret
 571              		.cfi_endproc
 572              	LFE6:
 573              		.globl	_chSchIsPreemptionRequired
 574              		.def	_chSchIsPreemptionRequired;	.scl	2;	.type	32;	.endef
 575              	_chSchIsPreemptionRequired:
 576              	LFB7:
 577              		.loc 1 269 0
 578              		.cfi_startproc
 579 0606 83EC14   		subl	$20, %esp	 #,
 580              	LCFI14:
 581              		.cfi_def_cfa_offset 24
 582              		.loc 1 270 0
 583 0609 A1000000 		movl	_rlist, %eax	 # rlist.r_queue.p_next, D.2784
 583      00
 584 060e 8B4008   		movl	8(%eax), %eax	 # D.2784_2->p_prio, tmp70
 585 0611 8944240C 		movl	%eax, 12(%esp)	 # tmp70, p1
 586              		.loc 1 271 0
 587 0615 A1180000 		movl	_rlist+24, %eax	 # rlist.r_current, D.2785
 587      00
 588 061a 8B4008   		movl	8(%eax), %eax	 # D.2785_4->p_prio, tmp71
 589 061d 89442408 		movl	%eax, 8(%esp)	 # tmp71, p2
 590              		.loc 1 277 0
 591 0621 A1180000 		movl	_rlist+24, %eax	 # rlist.r_current, D.2788
 591      00
 592 0626 8A401F   		movb	31(%eax), %al	 # D.2788_6->p_preempt, D.2789
 593 0629 84C0     		testb	%al, %al	 # D.2789
 594 062b 7429     		je	L26	 #,
 595              		.loc 1 277 0 is_stmt 0 discriminator 1
 596 062d 8B44240C 		movl	12(%esp), %eax	 # p1, tmp72
 597 0631 3B442408 		cmpl	8(%esp), %eax	 # p2, tmp72
 598 0635 0F97C1   		seta	%cl	 #, iftmp.0
 599 0638 A1700000 		movl	LPBX1+112, %eax	 # *LPBX1, PROF_edge_counter.5
 599      00
 600 063d 8B157400 		movl	LPBX1+116, %edx	 # *LPBX1, PROF_edge_counter.5
 600      0000
 601 0643 83C001   		addl	$1, %eax	 #, PROF_edge_counter.5
 602 0646 83D200   		adcl	$0, %edx	 #, PROF_edge_counter.5
 603 0649 A3700000 		movl	%eax, LPBX1+112	 # PROF_edge_counter.5, *LPBX1
 603      00
 604 064e 89157400 		movl	%edx, LPBX1+116	 # PROF_edge_counter.5, *LPBX1
 604      0000
 605 0654 EB27     		jmp	L27	 #
 606              	L26:
 607              		.loc 1 277 0 discriminator 2
 608 0656 8B44240C 		movl	12(%esp), %eax	 # p1, tmp73
 609 065a 3B442408 		cmpl	8(%esp), %eax	 # p2, tmp73
 610 065e 0F93C1   		setae	%cl	 #, iftmp.0
 611 0661 A1780000 		movl	LPBX1+120, %eax	 # *LPBX1, PROF_edge_counter.5
 611      00
 612 0666 8B157C00 		movl	LPBX1+124, %edx	 # *LPBX1, PROF_edge_counter.5
 612      0000
 613 066c 83C001   		addl	$1, %eax	 #, PROF_edge_counter.5
 614 066f 83D200   		adcl	$0, %edx	 #, PROF_edge_counter.5
 615 0672 A3780000 		movl	%eax, LPBX1+120	 # PROF_edge_counter.5, *LPBX1
 615      00
 616 0677 89157C00 		movl	%edx, LPBX1+124	 # PROF_edge_counter.5, *LPBX1
GAS LISTING C:\cygwin\tmp\ccbLArfy.s 			page 15


 616      0000
 617              	L27:
 618              		.loc 1 277 0 discriminator 3
 619 067d 88C8     		movb	%cl, %al	 # iftmp.0, D.2786
 620              		.loc 1 283 0 is_stmt 1 discriminator 3
 621 067f 83C414   		addl	$20, %esp	 #,
 622              	LCFI15:
 623              		.cfi_def_cfa_offset 4
 624 0682 C3       		ret
 625              		.cfi_endproc
 626              	LFE7:
 627              		.globl	_chSchDoRescheduleBehind
 628              		.def	_chSchDoRescheduleBehind;	.scl	2;	.type	32;	.endef
 629              	_chSchDoRescheduleBehind:
 630              	LFB8:
 631              		.loc 1 297 0
 632              		.cfi_startproc
 633 0683 83EC2C   		subl	$44, %esp	 #,
 634              	LCFI16:
 635              		.cfi_def_cfa_offset 48
 636              		.loc 1 297 0
 637 0686 A1480000 		movl	LPBX1+72, %eax	 # *LPBX1, PROF_edge_counter.4
 637      00
 638 068b 8B154C00 		movl	LPBX1+76, %edx	 # *LPBX1, PROF_edge_counter.4
 638      0000
 639 0691 83C001   		addl	$1, %eax	 #, PROF_edge_counter.4
 640 0694 83D200   		adcl	$0, %edx	 #, PROF_edge_counter.4
 641 0697 A3480000 		movl	%eax, LPBX1+72	 # PROF_edge_counter.4, *LPBX1
 641      00
 642 069c 89154C00 		movl	%edx, LPBX1+76	 # PROF_edge_counter.4, *LPBX1
 642      0000
 643              		.loc 1 300 0
 644 06a2 A1180000 		movl	_rlist+24, %eax	 # rlist.r_current, tmp72
 644      00
 645 06a7 8944241C 		movl	%eax, 28(%esp)	 # tmp72, otp
 646              		.loc 1 302 0
 647 06ab C7042400 		movl	$_rlist, (%esp)	 #,
 647      000000
 648 06b2 E8000000 		call	_fifo_remove	 #
 648      00
 649 06b7 89C1     		movl	%eax, %ecx	 #, D.2781
 650 06b9 A1500000 		movl	LPBX1+80, %eax	 # *LPBX1, PROF_edge_counter.4
 650      00
 651 06be 8B155400 		movl	LPBX1+84, %edx	 # *LPBX1, PROF_edge_counter.4
 651      0000
 652 06c4 83C001   		addl	$1, %eax	 #, PROF_edge_counter.4
 653 06c7 83D200   		adcl	$0, %edx	 #, PROF_edge_counter.4
 654 06ca A3500000 		movl	%eax, LPBX1+80	 # PROF_edge_counter.4, *LPBX1
 654      00
 655 06cf 89155400 		movl	%edx, LPBX1+84	 # PROF_edge_counter.4, *LPBX1
 655      0000
 656 06d5 890D1800 		movl	%ecx, _rlist+24	 # D.2781, rlist.r_current
 656      0000
 657              		.loc 1 303 0
 658 06db A1180000 		movl	_rlist+24, %eax	 # rlist.r_current, D.2782
 658      00
 659 06e0 C6401C01 		movb	$1, 28(%eax)	 #, D.2782_3->p_state
GAS LISTING C:\cygwin\tmp\ccbLArfy.s 			page 16


 660              		.loc 1 305 0
 661 06e4 8B44241C 		movl	28(%esp), %eax	 # otp, tmp73
 662 06e8 C6401F14 		movb	$20, 31(%eax)	 #, otp_1->p_preempt
 663              		.loc 1 307 0
 664 06ec 8B44241C 		movl	28(%esp), %eax	 # otp, tmp74
 665 06f0 890424   		movl	%eax, (%esp)	 # tmp74,
 666 06f3 E85DF9FF 		call	_chSchReadyI	 #
 666      FF
 667 06f8 A1580000 		movl	LPBX1+88, %eax	 # *LPBX1, PROF_edge_counter.4
 667      00
 668 06fd 8B155C00 		movl	LPBX1+92, %edx	 # *LPBX1, PROF_edge_counter.4
 668      0000
 669 0703 83C001   		addl	$1, %eax	 #, PROF_edge_counter.4
 670 0706 83D200   		adcl	$0, %edx	 #, PROF_edge_counter.4
 671 0709 A3580000 		movl	%eax, LPBX1+88	 # PROF_edge_counter.4, *LPBX1
 671      00
 672 070e 89155C00 		movl	%edx, LPBX1+92	 # PROF_edge_counter.4, *LPBX1
 672      0000
 673              		.loc 1 308 0
 674 0714 8B44241C 		movl	28(%esp), %eax	 # otp, tmp75
 675 0718 890424   		movl	%eax, (%esp)	 # tmp75,
 676 071b E8000000 		call	_dbg_trace	 #
 676      00
 677 0720 A1600000 		movl	LPBX1+96, %eax	 # *LPBX1, PROF_edge_counter.4
 677      00
 678 0725 8B156400 		movl	LPBX1+100, %edx	 # *LPBX1, PROF_edge_counter.4
 678      0000
 679 072b 83C001   		addl	$1, %eax	 #, PROF_edge_counter.4
 680 072e 83D200   		adcl	$0, %edx	 #, PROF_edge_counter.4
 681 0731 A3600000 		movl	%eax, LPBX1+96	 # PROF_edge_counter.4, *LPBX1
 681      00
 682 0736 89156400 		movl	%edx, LPBX1+100	 # PROF_edge_counter.4, *LPBX1
 682      0000
 683 073c A1180000 		movl	_rlist+24, %eax	 # rlist.r_current, D.2783
 683      00
 684 0741 8B54241C 		movl	28(%esp), %edx	 # otp, tmp76
 685 0745 89C1     		movl	%eax, %ecx	 # D.2783,
 686 0747 E8000000 		call	@port_switch@8	 #
 686      00
 687 074c A1680000 		movl	LPBX1+104, %eax	 # *LPBX1, PROF_edge_counter.4
 687      00
 688 0751 8B156C00 		movl	LPBX1+108, %edx	 # *LPBX1, PROF_edge_counter.4
 688      0000
 689 0757 83C001   		addl	$1, %eax	 #, PROF_edge_counter.4
 690 075a 83D200   		adcl	$0, %edx	 #, PROF_edge_counter.4
 691 075d A3680000 		movl	%eax, LPBX1+104	 # PROF_edge_counter.4, *LPBX1
 691      00
 692 0762 89156C00 		movl	%edx, LPBX1+108	 # PROF_edge_counter.4, *LPBX1
 692      0000
 693              		.loc 1 309 0
 694 0768 83C42C   		addl	$44, %esp	 #,
 695              	LCFI17:
 696              		.cfi_def_cfa_offset 4
 697 076b C3       		ret
 698              		.cfi_endproc
 699              	LFE8:
 700              		.globl	_chSchDoRescheduleAhead
GAS LISTING C:\cygwin\tmp\ccbLArfy.s 			page 17


 701              		.def	_chSchDoRescheduleAhead;	.scl	2;	.type	32;	.endef
 702              	_chSchDoRescheduleAhead:
 703              	LFB9:
 704              		.loc 1 322 0
 705              		.cfi_startproc
 706 076c 83EC2C   		subl	$44, %esp	 #,
 707              	LCFI18:
 708              		.cfi_def_cfa_offset 48
 709              		.loc 1 322 0
 710 076f A1200000 		movl	LPBX1+32, %eax	 # *LPBX1, PROF_edge_counter.3
 710      00
 711 0774 8B152400 		movl	LPBX1+36, %edx	 # *LPBX1, PROF_edge_counter.3
 711      0000
 712 077a 83C001   		addl	$1, %eax	 #, PROF_edge_counter.3
 713 077d 83D200   		adcl	$0, %edx	 #, PROF_edge_counter.3
 714 0780 A3200000 		movl	%eax, LPBX1+32	 # PROF_edge_counter.3, *LPBX1
 714      00
 715 0785 89152400 		movl	%edx, LPBX1+36	 # PROF_edge_counter.3, *LPBX1
 715      0000
 716              		.loc 1 325 0
 717 078b A1180000 		movl	_rlist+24, %eax	 # rlist.r_current, tmp77
 717      00
 718 0790 89442418 		movl	%eax, 24(%esp)	 # tmp77, otp
 719              		.loc 1 327 0
 720 0794 C7042400 		movl	$_rlist, (%esp)	 #,
 720      000000
 721 079b E8000000 		call	_fifo_remove	 #
 721      00
 722 07a0 A3180000 		movl	%eax, _rlist+24	 # D.2773, rlist.r_current
 722      00
 723              		.loc 1 328 0
 724 07a5 A1180000 		movl	_rlist+24, %eax	 # rlist.r_current, D.2774
 724      00
 725 07aa C6401C01 		movb	$1, 28(%eax)	 #, D.2774_4->p_state
 726              		.loc 1 330 0
 727 07ae 8B442418 		movl	24(%esp), %eax	 # otp, tmp78
 728 07b2 C6401C00 		movb	$0, 28(%eax)	 #, otp_2->p_state
 729              		.loc 1 331 0
 730 07b6 C744241C 		movl	$_rlist, 28(%esp)	 #, cp
 730      00000000 
 731              	L31:
 732              		.loc 1 333 0 discriminator 1
 733 07be 8B44241C 		movl	28(%esp), %eax	 # cp, tmp79
 734 07c2 8B00     		movl	(%eax), %eax	 # cp_1->p_next, tmp80
 735 07c4 8944241C 		movl	%eax, 28(%esp)	 # tmp80, cp
 736              		.loc 1 334 0 discriminator 1
 737 07c8 8B44241C 		movl	28(%esp), %eax	 # cp, tmp81
 738 07cc 8B5008   		movl	8(%eax), %edx	 # cp_6->p_prio, D.2775
 739 07cf 8B442418 		movl	24(%esp), %eax	 # otp, tmp82
 740 07d3 8B4008   		movl	8(%eax), %eax	 # otp_2->p_prio, D.2776
 741 07d6 39C2     		cmpl	%eax, %edx	 # D.2776, D.2775
 742 07d8 761E     		jbe	L30	 #,
 743              		.loc 1 334 0 is_stmt 0
 744 07da A1280000 		movl	LPBX1+40, %eax	 # *LPBX1, PROF_edge_counter.3
 744      00
 745 07df 8B152C00 		movl	LPBX1+44, %edx	 # *LPBX1, PROF_edge_counter.3
 745      0000
GAS LISTING C:\cygwin\tmp\ccbLArfy.s 			page 18


 746 07e5 83C001   		addl	$1, %eax	 #, PROF_edge_counter.3
 747 07e8 83D200   		adcl	$0, %edx	 #, PROF_edge_counter.3
 748 07eb A3280000 		movl	%eax, LPBX1+40	 # PROF_edge_counter.3, *LPBX1
 748      00
 749 07f0 89152C00 		movl	%edx, LPBX1+44	 # PROF_edge_counter.3, *LPBX1
 749      0000
 750 07f6 EBC6     		jmp	L31	 #
 751              	L30:
 752 07f8 A1300000 		movl	LPBX1+48, %eax	 # *LPBX1, PROF_edge_counter.3
 752      00
 753 07fd 8B153400 		movl	LPBX1+52, %edx	 # *LPBX1, PROF_edge_counter.3
 753      0000
 754 0803 83C001   		addl	$1, %eax	 #, PROF_edge_counter.3
 755 0806 83D200   		adcl	$0, %edx	 #, PROF_edge_counter.3
 756 0809 A3300000 		movl	%eax, LPBX1+48	 # PROF_edge_counter.3, *LPBX1
 756      00
 757 080e 89153400 		movl	%edx, LPBX1+52	 # PROF_edge_counter.3, *LPBX1
 757      0000
 758              		.loc 1 336 0 is_stmt 1
 759 0814 8B442418 		movl	24(%esp), %eax	 # otp, tmp83
 760 0818 8B54241C 		movl	28(%esp), %edx	 # cp, tmp84
 761 081c 8910     		movl	%edx, (%eax)	 # tmp84, otp_2->p_next
 762              		.loc 1 337 0
 763 081e 8B44241C 		movl	28(%esp), %eax	 # cp, tmp85
 764 0822 8B5004   		movl	4(%eax), %edx	 # cp_6->p_prev, D.2777
 765 0825 8B442418 		movl	24(%esp), %eax	 # otp, tmp86
 766 0829 895004   		movl	%edx, 4(%eax)	 # D.2777, otp_2->p_prev
 767              		.loc 1 338 0
 768 082c 8B442418 		movl	24(%esp), %eax	 # otp, tmp87
 769 0830 8B4004   		movl	4(%eax), %eax	 # otp_2->p_prev, D.2778
 770 0833 8B54241C 		movl	28(%esp), %edx	 # cp, tmp88
 771 0837 8B4C2418 		movl	24(%esp), %ecx	 # otp, tmp89
 772 083b 894A04   		movl	%ecx, 4(%edx)	 # tmp89, cp_6->p_prev
 773 083e 8B54241C 		movl	28(%esp), %edx	 # cp, tmp90
 774 0842 8B5204   		movl	4(%edx), %edx	 # cp_6->p_prev, D.2779
 775 0845 8910     		movl	%edx, (%eax)	 # D.2779, D.2778_10->p_next
 776              		.loc 1 340 0
 777 0847 8B442418 		movl	24(%esp), %eax	 # otp, tmp91
 778 084b 890424   		movl	%eax, (%esp)	 # tmp91,
 779 084e E8000000 		call	_dbg_trace	 #
 779      00
 780 0853 A1380000 		movl	LPBX1+56, %eax	 # *LPBX1, PROF_edge_counter.3
 780      00
 781 0858 8B153C00 		movl	LPBX1+60, %edx	 # *LPBX1, PROF_edge_counter.3
 781      0000
 782 085e 83C001   		addl	$1, %eax	 #, PROF_edge_counter.3
 783 0861 83D200   		adcl	$0, %edx	 #, PROF_edge_counter.3
 784 0864 A3380000 		movl	%eax, LPBX1+56	 # PROF_edge_counter.3, *LPBX1
 784      00
 785 0869 89153C00 		movl	%edx, LPBX1+60	 # PROF_edge_counter.3, *LPBX1
 785      0000
 786 086f A1180000 		movl	_rlist+24, %eax	 # rlist.r_current, D.2780
 786      00
 787 0874 8B542418 		movl	24(%esp), %edx	 # otp, tmp92
 788 0878 89C1     		movl	%eax, %ecx	 # D.2780,
 789 087a E8000000 		call	@port_switch@8	 #
 789      00
GAS LISTING C:\cygwin\tmp\ccbLArfy.s 			page 19


 790 087f A1400000 		movl	LPBX1+64, %eax	 # *LPBX1, PROF_edge_counter.3
 790      00
 791 0884 8B154400 		movl	LPBX1+68, %edx	 # *LPBX1, PROF_edge_counter.3
 791      0000
 792 088a 83C001   		addl	$1, %eax	 #, PROF_edge_counter.3
 793 088d 83D200   		adcl	$0, %edx	 #, PROF_edge_counter.3
 794 0890 A3400000 		movl	%eax, LPBX1+64	 # PROF_edge_counter.3, *LPBX1
 794      00
 795 0895 89154400 		movl	%edx, LPBX1+68	 # PROF_edge_counter.3, *LPBX1
 795      0000
 796              		.loc 1 341 0
 797 089b 83C42C   		addl	$44, %esp	 #,
 798              	LCFI19:
 799              		.cfi_def_cfa_offset 4
 800 089e C3       		ret
 801              		.cfi_endproc
 802              	LFE9:
 803              		.globl	_chSchDoReschedule
 804              		.def	_chSchDoReschedule;	.scl	2;	.type	32;	.endef
 805              	_chSchDoReschedule:
 806              	LFB10:
 807              		.loc 1 355 0
 808              		.cfi_startproc
 809 089f 83EC0C   		subl	$12, %esp	 #,
 810              	LCFI20:
 811              		.cfi_def_cfa_offset 16
 812              		.loc 1 360 0
 813 08a2 A1180000 		movl	_rlist+24, %eax	 # rlist.r_current, D.2768
 813      00
 814 08a7 8A401F   		movb	31(%eax), %al	 # D.2768_1->p_preempt, D.2769
 815 08aa 84C0     		testb	%al, %al	 # D.2769
 816 08ac 753F     		jne	L33	 #,
 817 08ae A1000000 		movl	LPBX1, %eax	 # *LPBX1, PROF_edge_counter.2
 817      00
 818 08b3 8B150400 		movl	LPBX1+4, %edx	 # *LPBX1, PROF_edge_counter.2
 818      0000
 819 08b9 83C001   		addl	$1, %eax	 #, PROF_edge_counter.2
 820 08bc 83D200   		adcl	$0, %edx	 #, PROF_edge_counter.2
 821 08bf A3000000 		movl	%eax, LPBX1	 # PROF_edge_counter.2, *LPBX1
 821      00
 822 08c4 89150400 		movl	%edx, LPBX1+4	 # PROF_edge_counter.2, *LPBX1
 822      0000
 823              		.loc 1 363 0
 824 08ca E8B4FDFF 		call	_chSchDoRescheduleBehind	 #
 824      FF
 825 08cf A1100000 		movl	LPBX1+16, %eax	 # *LPBX1, PROF_edge_counter.2
 825      00
 826 08d4 8B151400 		movl	LPBX1+20, %edx	 # *LPBX1, PROF_edge_counter.2
 826      0000
 827 08da 83C001   		addl	$1, %eax	 #, PROF_edge_counter.2
 828 08dd 83D200   		adcl	$0, %edx	 #, PROF_edge_counter.2
 829 08e0 A3100000 		movl	%eax, LPBX1+16	 # PROF_edge_counter.2, *LPBX1
 829      00
 830 08e5 89151400 		movl	%edx, LPBX1+20	 # PROF_edge_counter.2, *LPBX1
 830      0000
 831 08eb EB3D     		jmp	L32	 #
 832              	L33:
GAS LISTING C:\cygwin\tmp\ccbLArfy.s 			page 20


 833 08ed A1080000 		movl	LPBX1+8, %eax	 # *LPBX1, PROF_edge_counter.2
 833      00
 834 08f2 8B150C00 		movl	LPBX1+12, %edx	 # *LPBX1, PROF_edge_counter.2
 834      0000
 835 08f8 83C001   		addl	$1, %eax	 #, PROF_edge_counter.2
 836 08fb 83D200   		adcl	$0, %edx	 #, PROF_edge_counter.2
 837 08fe A3080000 		movl	%eax, LPBX1+8	 # PROF_edge_counter.2, *LPBX1
 837      00
 838 0903 89150C00 		movl	%edx, LPBX1+12	 # PROF_edge_counter.2, *LPBX1
 838      0000
 839              		.loc 1 368 0
 840 0909 E85EFEFF 		call	_chSchDoRescheduleAhead	 #
 840      FF
 841 090e A1180000 		movl	LPBX1+24, %eax	 # *LPBX1, PROF_edge_counter.2
 841      00
 842 0913 8B151C00 		movl	LPBX1+28, %edx	 # *LPBX1, PROF_edge_counter.2
 842      0000
 843 0919 83C001   		addl	$1, %eax	 #, PROF_edge_counter.2
 844 091c 83D200   		adcl	$0, %edx	 #, PROF_edge_counter.2
 845 091f A3180000 		movl	%eax, LPBX1+24	 # PROF_edge_counter.2, *LPBX1
 845      00
 846 0924 89151C00 		movl	%edx, LPBX1+28	 # PROF_edge_counter.2, *LPBX1
 846      0000
 847              	L32:
 848              		.loc 1 375 0
 849 092a 83C40C   		addl	$12, %esp	 #,
 850              	LCFI21:
 851              		.cfi_def_cfa_offset 4
 852 092d C3       		ret
 853              		.cfi_endproc
 854              	LFE10:
 855              	.lcomm LPBX1,376,32
 856              		.section .rdata,"dr"
 857              		.align 4
 858              	LC0:
 859 0000 433A5C64 		.ascii "C:\\develop\\gyro\\ChibiOS\\test\\coverage/../../os/kernel/src/chschd.gcda\0"
 859      6576656C 
 859      6F705C67 
 859      79726F5C 
 859      43686962 
 860 0046 0000     		.data
 861              		.align 32
 862              	LC1:
 863              	 # <anonymous>:
 864 0000 0B000000 		.long	11
 865              	 # <anonymous>:
 866 0004 D430E445 		.long	1172582612
 867              	 # <anonymous>:
 868 0008 04000000 		.long	4
 869              	 # <anonymous>:
 870 000c 0A000000 		.long	10
 871              	 # <anonymous>:
 872 0010 2FBF56C5 		.long	-984170705
 873              	 # <anonymous>:
 874 0014 05000000 		.long	5
 875              	 # <anonymous>:
 876 0018 09000000 		.long	9
GAS LISTING C:\cygwin\tmp\ccbLArfy.s 			page 21


 877              	 # <anonymous>:
 878 001c 277163BF 		.long	-1084002009
 879              	 # <anonymous>:
 880 0020 05000000 		.long	5
 881              	 # <anonymous>:
 882 0024 08000000 		.long	8
 883              	 # <anonymous>:
 884 0028 E11D9F31 		.long	832511457
 885              	 # <anonymous>:
 886 002c 02000000 		.long	2
 887              	 # <anonymous>:
 888 0030 07000000 		.long	7
 889              	 # <anonymous>:
 890 0034 B7C8F8DC 		.long	-587675465
 891              	 # <anonymous>:
 892 0038 03000000 		.long	3
 893              	 # <anonymous>:
 894 003c 06000000 		.long	6
 895              	 # <anonymous>:
 896 0040 6DE25796 		.long	-1772625299
 897              	 # <anonymous>:
 898 0044 06000000 		.long	6
 899              	 # <anonymous>:
 900 0048 05000000 		.long	5
 901              	 # <anonymous>:
 902 004c 044F9090 		.long	-1869590780
 903              	 # <anonymous>:
 904 0050 07000000 		.long	7
 905              	 # <anonymous>:
 906 0054 04000000 		.long	4
 907              	 # <anonymous>:
 908 0058 3E902793 		.long	-1826123714
 909              	 # <anonymous>:
 910 005c 06000000 		.long	6
 911              	 # <anonymous>:
 912 0060 03000000 		.long	3
 913              	 # <anonymous>:
 914 0064 CBC4262D 		.long	757515467
 915              	 # <anonymous>:
 916 0068 04000000 		.long	4
 917              	 # <anonymous>:
 918 006c 02000000 		.long	2
 919              	 # <anonymous>:
 920 0070 30B2EFD3 		.long	-739266000
 921              	 # <anonymous>:
 922 0074 04000000 		.long	4
 923              	 # <anonymous>:
 924 0078 01000000 		.long	1
 925              	 # <anonymous>:
 926 007c 545A2639 		.long	958814804
 927              	 # <anonymous>:
 928 0080 01000000 		.long	1
 929 0084 00000000 		.align 32
 929      00000000 
 929      00000000 
 929      00000000 
 929      00000000 
GAS LISTING C:\cygwin\tmp\ccbLArfy.s 			page 22


 930              	LPBX0:
 931              	 # <anonymous>:
 932 00a0 2A363034 		.long	875574826
 933              	 # <anonymous>:
 934 00a4 00000000 		.long	0
 935              	 # <anonymous>:
 936 00a8 A2167060 		.long	1617958562
 937              	 # <anonymous>:
 938 00ac 00000000 		.long	LC0
 939              	 # <anonymous>:
 940 00b0 0B000000 		.long	11
 941              	 # <anonymous>:
 942 00b4 00000000 		.long	LC1
 943              	 # <anonymous>:
 944 00b8 01000000 		.long	1
 945              	 # <anonymous>:
 946              	 # <anonymous>:
 947 00bc 2F000000 		.long	47
 948              	 # <anonymous>:
 949 00c0 00000000 		.long	LPBX1
 950              	 # <anonymous>:
 951 00c4 00000000 		.long	___gcov_merge_add
 952 00c8 00000000 		.space 12
 952      00000000 
 952      00000000 
 953 00d4 00000000 		.text
 953      00000000 
 953      00000000 
 954              		.def	__GLOBAL__sub_I_65535_0__scheduler_init;	.scl	3;	.type	32;	.endef
 955              	__GLOBAL__sub_I_65535_0__scheduler_init:
 956              	LFB11:
 957              		.loc 1 375 0
 958              		.cfi_startproc
 959 092e 83EC1C   		subl	$28, %esp	 #,
 960              	LCFI22:
 961              		.cfi_def_cfa_offset 32
 962              		.loc 1 375 0
 963 0931 C70424A0 		movl	$LPBX0, (%esp)	 #,
 963      000000
 964 0938 E8000000 		call	___gcov_init	 #
 964      00
 965 093d 83C41C   		addl	$28, %esp	 #,
 966              	LCFI23:
 967              		.cfi_def_cfa_offset 4
 968 0940 C3       		ret
 969              		.cfi_endproc
 970              	LFE11:
 971              		.section	.ctors,"w"
 972              		.align 4
 973 0000 2E090000 		.long	__GLOBAL__sub_I_65535_0__scheduler_init
 974              		.text
 975              	Letext0:
 976              		.file 2 "c:/mingw/bin/../lib/gcc/mingw32/4.6.2/../../../../include/stdint.h"
 977              		.file 3 "../../os/ports/GCC/SIMIA32/chtypes.h"
 978              		.file 4 "../../os/kernel/include/chlists.h"
 979              		.file 5 "../../os/kernel/include/chthreads.h"
 980              		.file 6 "../../os/ports/GCC/SIMIA32/chcore.h"
GAS LISTING C:\cygwin\tmp\ccbLArfy.s 			page 23


 981              		.file 7 "../../os/kernel/include/chvt.h"
 982              		.file 8 "../../os/kernel/include/chschd.h"
 983              		.file 9 "../../os/kernel/include/chsem.h"
 984              		.file 10 "../../os/kernel/include/chmtx.h"