GAS LISTING C:\cygwin\tmp\ccclv1xX.s 			page 1


   1              		.file	"chsem.c"
   2              	 # GNU C (GCC) version 4.6.2 (mingw32)
   3              	 #	compiled by GNU C version 4.6.2, GMP version 5.0.1, MPFR version 2.4.1, MPC version 0.8.1
   4              	 # GGC heuristics: --param ggc-min-expand=100 --param ggc-min-heapsize=131072
   5              	 # options passed:  -I . -I ../../os/ports/GCC/SIMIA32
   6              	 # -I ../../os/kernel/include -I ../../test -I ../../os/hal/include
   7              	 # -I ../../os/hal/platforms/Win32 -I ../../boards/simulator
   8              	 # -I ../../os/various -iprefix c:\mingw\bin\../lib/gcc/mingw32/4.6.2/
   9              	 # -MD ../../os/kernel/src/chsem.d -MF .dep/chsem.o.d -MP
  10              	 # -MQ ../../os/kernel/src/chsem.o -D SIMULATOR ../../os/kernel/src/chsem.c
  11              	 # -mtune=i386 -march=i386 -auxbase-strip ../../os/kernel/src/chsem.o -ggdb
  12              	 # -O0 -Wall -Wextra -Wstrict-prototypes -fomit-frame-pointer
  13              	 # -fprofile-arcs -ftest-coverage -fverbose-asm
  14              	 # options enabled:  -fasynchronous-unwind-tables -fauto-inc-dec
  15              	 # -fbranch-count-reg -fcommon -fdelete-null-pointer-checks
  16              	 # -fdwarf2-cfi-asm -fearly-inlining -feliminate-unused-debug-types
  17              	 # -ffunction-cse -fgcse-lm -fident -finline-functions-called-once
  18              	 # -fira-share-save-slots -fira-share-spill-slots -fivopts
  19              	 # -fkeep-inline-dllexport -fkeep-static-consts -fleading-underscore
  20              	 # -fmath-errno -fmerge-debug-strings -fmove-loop-invariants
  21              	 # -fomit-frame-pointer -fpeephole -fprefetch-loop-arrays -fprofile-arcs
  22              	 # -freg-struct-return -fsched-critical-path-heuristic
  23              	 # -fsched-dep-count-heuristic -fsched-group-heuristic -fsched-interblock
  24              	 # -fsched-last-insn-heuristic -fsched-rank-heuristic -fsched-spec
  25              	 # -fsched-spec-insn-heuristic -fsched-stalled-insns-dep
  26              	 # -fset-stack-executable -fshow-column -fsigned-zeros
  27              	 # -fsplit-ivs-in-unroller -fstrict-volatile-bitfields -ftest-coverage
  28              	 # -ftrapping-math -ftree-cselim -ftree-forwprop -ftree-loop-if-convert
  29              	 # -ftree-loop-im -ftree-loop-ivcanon -ftree-loop-optimize
  30              	 # -ftree-parallelize-loops= -ftree-phiprop -ftree-pta -ftree-reassoc
  31              	 # -ftree-scev-cprop -ftree-slp-vectorize -ftree-vect-loop-version
  32              	 # -funit-at-a-time -funwind-tables -fvect-cost-model -fverbose-asm
  33              	 # -fzero-initialized-in-bss -m32 -m80387 -m96bit-long-double
  34              	 # -maccumulate-outgoing-args -malign-double -malign-stringops
  35              	 # -mfancy-math-387 -mfp-ret-in-387 -mieee-fp -mno-red-zone -mno-sse4
  36              	 # -mpush-args -msahf -mstack-arg-probe
  37              	
  38              		.text
  39              	Ltext0:
  40              	 # Compiler executable checksum: c20aed7c018482d7b62efcd5dcab2a9d
  41              	
  42              		.globl	_chSemInit
  43              		.def	_chSemInit;	.scl	2;	.type	32;	.endef
  44              	_chSemInit:
  45              	LFB0:
  46              		.file 1 "../../os/kernel/src/chsem.c"
  47              		.loc 1 79 0
  48              		.cfi_startproc
  49 0000 83EC04   		subl	$4, %esp	 #,
  50              	LCFI0:
  51              		.cfi_def_cfa_offset 8
  52              		.loc 1 81 0
  53 0003 837C2408 		cmpl	$0, 8(%esp)	 #, sp
  53      00
  54 0008 7441     		je	L2	 #,
  55              		.loc 1 81 0 is_stmt 0 discriminator 1
  56 000a A1C80200 		movl	LPBX1+712, %eax	 # *LPBX1, PROF_edge_counter.22
GAS LISTING C:\cygwin\tmp\ccclv1xX.s 			page 2


  56      00
  57 000f 8B15CC02 		movl	LPBX1+716, %edx	 # *LPBX1, PROF_edge_counter.22
  57      0000
  58 0015 83C001   		addl	$1, %eax	 #, PROF_edge_counter.22
  59 0018 83D200   		adcl	$0, %edx	 #, PROF_edge_counter.22
  60 001b A3C80200 		movl	%eax, LPBX1+712	 # PROF_edge_counter.22, *LPBX1
  60      00
  61 0020 8915CC02 		movl	%edx, LPBX1+716	 # PROF_edge_counter.22, *LPBX1
  61      0000
  62 0026 837C240C 		cmpl	$0, 12(%esp)	 #, n
  62      00
  63 002b 781E     		js	L2	 #,
  64              		.loc 1 81 0 discriminator 3
  65 002d A1D00200 		movl	LPBX1+720, %eax	 # *LPBX1, PROF_edge_counter.22
  65      00
  66 0032 8B15D402 		movl	LPBX1+724, %edx	 # *LPBX1, PROF_edge_counter.22
  66      0000
  67 0038 83C001   		addl	$1, %eax	 #, PROF_edge_counter.22
  68 003b 83D200   		adcl	$0, %edx	 #, PROF_edge_counter.22
  69 003e A3D00200 		movl	%eax, LPBX1+720	 # PROF_edge_counter.22, *LPBX1
  69      00
  70 0043 8915D402 		movl	%edx, LPBX1+724	 # PROF_edge_counter.22, *LPBX1
  70      0000
  71 0049 EB1C     		jmp	L3	 #
  72              	L2:
  73              		.loc 1 81 0 discriminator 2
  74 004b A1D80200 		movl	LPBX1+728, %eax	 # *LPBX1, PROF_edge_counter.22
  74      00
  75 0050 8B15DC02 		movl	LPBX1+732, %edx	 # *LPBX1, PROF_edge_counter.22
  75      0000
  76 0056 83C001   		addl	$1, %eax	 #, PROF_edge_counter.22
  77 0059 83D200   		adcl	$0, %edx	 #, PROF_edge_counter.22
  78 005c A3D80200 		movl	%eax, LPBX1+728	 # PROF_edge_counter.22, *LPBX1
  78      00
  79 0061 8915DC02 		movl	%edx, LPBX1+732	 # PROF_edge_counter.22, *LPBX1
  79      0000
  80              	L3:
  81              		.loc 1 83 0 is_stmt 1
  82 0067 8B542408 		movl	8(%esp), %edx	 # sp, D.2972
  83 006b 8B442408 		movl	8(%esp), %eax	 # sp, tmp69
  84 006f 895004   		movl	%edx, 4(%eax)	 # D.2972, sp_1(D)->s_queue.p_prev
  85 0072 8B442408 		movl	8(%esp), %eax	 # sp, tmp70
  86 0076 8B5004   		movl	4(%eax), %edx	 # sp_1(D)->s_queue.p_prev, D.2973
  87 0079 8B442408 		movl	8(%esp), %eax	 # sp, tmp71
  88 007d 8910     		movl	%edx, (%eax)	 # D.2973, sp_1(D)->s_queue.p_next
  89              		.loc 1 84 0
  90 007f 8B442408 		movl	8(%esp), %eax	 # sp, tmp72
  91 0083 8B54240C 		movl	12(%esp), %edx	 # n, tmp73
  92 0087 895008   		movl	%edx, 8(%eax)	 # tmp73, sp_1(D)->s_cnt
  93              		.loc 1 85 0
  94 008a 83C404   		addl	$4, %esp	 #,
  95              	LCFI1:
  96              		.cfi_def_cfa_offset 4
  97 008d C3       		ret
  98              		.cfi_endproc
  99              	LFE0:
 100              		.globl	_chSemReset
GAS LISTING C:\cygwin\tmp\ccclv1xX.s 			page 3


 101              		.def	_chSemReset;	.scl	2;	.type	32;	.endef
 102              	_chSemReset:
 103              	LFB1:
 104              		.loc 1 102 0
 105              		.cfi_startproc
 106 008e 83EC1C   		subl	$28, %esp	 #,
 107              	LCFI2:
 108              		.cfi_def_cfa_offset 32
 109              		.loc 1 102 0
 110 0091 A1A00200 		movl	LPBX1+672, %eax	 # *LPBX1, PROF_edge_counter.21
 110      00
 111 0096 8B15A402 		movl	LPBX1+676, %edx	 # *LPBX1, PROF_edge_counter.21
 111      0000
 112 009c 83C001   		addl	$1, %eax	 #, PROF_edge_counter.21
 113 009f 83D200   		adcl	$0, %edx	 #, PROF_edge_counter.21
 114 00a2 A3A00200 		movl	%eax, LPBX1+672	 # PROF_edge_counter.21, *LPBX1
 114      00
 115 00a7 8915A402 		movl	%edx, LPBX1+676	 # PROF_edge_counter.21, *LPBX1
 115      0000
 116              		.loc 1 104 0
 117              	/APP
 118              	 # 104 "../../os/kernel/src/chsem.c" 1
 119 00ad 90       		nop
 120              	 # 0 "" 2
 121              	/NO_APP
 122 00ae A1A80200 		movl	LPBX1+680, %eax	 # *LPBX1, PROF_edge_counter.21
 122      00
 123 00b3 8B15AC02 		movl	LPBX1+684, %edx	 # *LPBX1, PROF_edge_counter.21
 123      0000
 124 00b9 83C001   		addl	$1, %eax	 #, PROF_edge_counter.21
 125 00bc 83D200   		adcl	$0, %edx	 #, PROF_edge_counter.21
 126 00bf A3A80200 		movl	%eax, LPBX1+680	 # PROF_edge_counter.21, *LPBX1
 126      00
 127 00c4 8915AC02 		movl	%edx, LPBX1+684	 # PROF_edge_counter.21, *LPBX1
 127      0000
 128              		.loc 1 105 0
 129 00ca 8B442424 		movl	36(%esp), %eax	 # n, tmp69
 130 00ce 89442404 		movl	%eax, 4(%esp)	 # tmp69,
 131 00d2 8B442420 		movl	32(%esp), %eax	 # sp, tmp70
 132 00d6 890424   		movl	%eax, (%esp)	 # tmp70,
 133 00d9 E85E0000 		call	_chSemResetI	 #
 133      00
 134 00de A1B00200 		movl	LPBX1+688, %eax	 # *LPBX1, PROF_edge_counter.21
 134      00
 135 00e3 8B15B402 		movl	LPBX1+692, %edx	 # *LPBX1, PROF_edge_counter.21
 135      0000
 136 00e9 83C001   		addl	$1, %eax	 #, PROF_edge_counter.21
 137 00ec 83D200   		adcl	$0, %edx	 #, PROF_edge_counter.21
 138 00ef A3B00200 		movl	%eax, LPBX1+688	 # PROF_edge_counter.21, *LPBX1
 138      00
 139 00f4 8915B402 		movl	%edx, LPBX1+692	 # PROF_edge_counter.21, *LPBX1
 139      0000
 140              		.loc 1 106 0
 141 00fa E8000000 		call	_chSchRescheduleS	 #
 141      00
 142 00ff A1B80200 		movl	LPBX1+696, %eax	 # *LPBX1, PROF_edge_counter.21
 142      00
GAS LISTING C:\cygwin\tmp\ccclv1xX.s 			page 4


 143 0104 8B15BC02 		movl	LPBX1+700, %edx	 # *LPBX1, PROF_edge_counter.21
 143      0000
 144 010a 83C001   		addl	$1, %eax	 #, PROF_edge_counter.21
 145 010d 83D200   		adcl	$0, %edx	 #, PROF_edge_counter.21
 146 0110 A3B80200 		movl	%eax, LPBX1+696	 # PROF_edge_counter.21, *LPBX1
 146      00
 147 0115 8915BC02 		movl	%edx, LPBX1+700	 # PROF_edge_counter.21, *LPBX1
 147      0000
 148              		.loc 1 107 0
 149              	/APP
 150              	 # 107 "../../os/kernel/src/chsem.c" 1
 151 011b 90       		nop
 152              	 # 0 "" 2
 153              	/NO_APP
 154 011c A1C00200 		movl	LPBX1+704, %eax	 # *LPBX1, PROF_edge_counter.21
 154      00
 155 0121 8B15C402 		movl	LPBX1+708, %edx	 # *LPBX1, PROF_edge_counter.21
 155      0000
 156 0127 83C001   		addl	$1, %eax	 #, PROF_edge_counter.21
 157 012a 83D200   		adcl	$0, %edx	 #, PROF_edge_counter.21
 158 012d A3C00200 		movl	%eax, LPBX1+704	 # PROF_edge_counter.21, *LPBX1
 158      00
 159 0132 8915C402 		movl	%edx, LPBX1+708	 # PROF_edge_counter.21, *LPBX1
 159      0000
 160              		.loc 1 108 0
 161 0138 83C41C   		addl	$28, %esp	 #,
 162              	LCFI3:
 163              		.cfi_def_cfa_offset 4
 164 013b C3       		ret
 165              		.cfi_endproc
 166              	LFE1:
 167              		.globl	_chSemResetI
 168              		.def	_chSemResetI;	.scl	2;	.type	32;	.endef
 169              	_chSemResetI:
 170              	LFB2:
 171              		.loc 1 129 0
 172              		.cfi_startproc
 173 013c 83EC2C   		subl	$44, %esp	 #,
 174              	LCFI4:
 175              		.cfi_def_cfa_offset 48
 176              		.loc 1 133 0
 177 013f 837C2430 		cmpl	$0, 48(%esp)	 #, sp
 177      00
 178 0144 7423     		je	L6	 #,
 179              		.loc 1 133 0 is_stmt 0 discriminator 1
 180 0146 A1500200 		movl	LPBX1+592, %eax	 # *LPBX1, PROF_edge_counter.20
 180      00
 181 014b 8B155402 		movl	LPBX1+596, %edx	 # *LPBX1, PROF_edge_counter.20
 181      0000
 182 0151 83C001   		addl	$1, %eax	 #, PROF_edge_counter.20
 183 0154 83D200   		adcl	$0, %edx	 #, PROF_edge_counter.20
 184 0157 A3500200 		movl	%eax, LPBX1+592	 # PROF_edge_counter.20, *LPBX1
 184      00
 185 015c 89155402 		movl	%edx, LPBX1+596	 # PROF_edge_counter.20, *LPBX1
 185      0000
 186 0162 837C2434 		cmpl	$0, 52(%esp)	 #, n
 186      00
GAS LISTING C:\cygwin\tmp\ccclv1xX.s 			page 5


 187 0167 791C     		jns	L7	 #,
 188              	L6:
 189              		.loc 1 133 0 discriminator 2
 190 0169 A1580200 		movl	LPBX1+600, %eax	 # *LPBX1, PROF_edge_counter.20
 190      00
 191 016e 8B155C02 		movl	LPBX1+604, %edx	 # *LPBX1, PROF_edge_counter.20
 191      0000
 192 0174 83C001   		addl	$1, %eax	 #, PROF_edge_counter.20
 193 0177 83D200   		adcl	$0, %edx	 #, PROF_edge_counter.20
 194 017a A3580200 		movl	%eax, LPBX1+600	 # PROF_edge_counter.20, *LPBX1
 194      00
 195 017f 89155C02 		movl	%edx, LPBX1+604	 # PROF_edge_counter.20, *LPBX1
 195      0000
 196              	L7:
 197              		.loc 1 134 0 is_stmt 1
 198 0185 8B442430 		movl	48(%esp), %eax	 # sp, tmp92
 199 0189 8B4008   		movl	8(%eax), %eax	 # sp_2(D)->s_cnt, D.2956
 200              		.loc 1 129 0
 201 018c 85C0     		testl	%eax, %eax	 # D.2956
 202 018e 782A     		js	L8	 #,
 203 0190 A1600200 		movl	LPBX1+608, %eax	 # *LPBX1, PROF_edge_counter.20
 203      00
 204 0195 8B156402 		movl	LPBX1+612, %edx	 # *LPBX1, PROF_edge_counter.20
 204      0000
 205 019b 83C001   		addl	$1, %eax	 #, PROF_edge_counter.20
 206 019e 83D200   		adcl	$0, %edx	 #, PROF_edge_counter.20
 207 01a1 A3600200 		movl	%eax, LPBX1+608	 # PROF_edge_counter.20, *LPBX1
 207      00
 208 01a6 89156402 		movl	%edx, LPBX1+612	 # PROF_edge_counter.20, *LPBX1
 208      0000
 209              		.loc 1 134 0
 210 01ac 8B442430 		movl	48(%esp), %eax	 # sp, tmp93
 211 01b0 8B10     		movl	(%eax), %edx	 # sp_2(D)->s_queue.p_next, D.2958
 212 01b2 8B442430 		movl	48(%esp), %eax	 # sp, D.2959
 213 01b6 39C2     		cmpl	%eax, %edx	 # D.2959, D.2958
 214 01b8 746F     		je	L15	 #,
 215              	L8:
 216              		.loc 1 134 0 is_stmt 0 discriminator 1
 217 01ba 8B442430 		movl	48(%esp), %eax	 # sp, tmp94
 218 01be 8B4008   		movl	8(%eax), %eax	 # sp_2(D)->s_cnt, D.2960
 219 01c1 85C0     		testl	%eax, %eax	 # D.2960
 220 01c3 7946     		jns	L10	 #,
 221              		.loc 1 134 0 discriminator 2
 222 01c5 A1680200 		movl	LPBX1+616, %eax	 # *LPBX1, PROF_edge_counter.20
 222      00
 223 01ca 8B156C02 		movl	LPBX1+620, %edx	 # *LPBX1, PROF_edge_counter.20
 223      0000
 224 01d0 83C001   		addl	$1, %eax	 #, PROF_edge_counter.20
 225 01d3 83D200   		adcl	$0, %edx	 #, PROF_edge_counter.20
 226 01d6 A3680200 		movl	%eax, LPBX1+616	 # PROF_edge_counter.20, *LPBX1
 226      00
 227 01db 89156C02 		movl	%edx, LPBX1+620	 # PROF_edge_counter.20, *LPBX1
 227      0000
 228 01e1 8B442430 		movl	48(%esp), %eax	 # sp, tmp95
 229 01e5 8B10     		movl	(%eax), %edx	 # sp_2(D)->s_queue.p_next, D.2962
 230 01e7 8B442430 		movl	48(%esp), %eax	 # sp, D.2963
 231 01eb 39C2     		cmpl	%eax, %edx	 # D.2963, D.2962
GAS LISTING C:\cygwin\tmp\ccclv1xX.s 			page 6


 232 01ed 753A     		jne	L15	 #,
 233              	L11:
 234              		.loc 1 129 0 is_stmt 1
 235 01ef A1700200 		movl	LPBX1+624, %eax	 # *LPBX1, PROF_edge_counter.20
 235      00
 236 01f4 8B157402 		movl	LPBX1+628, %edx	 # *LPBX1, PROF_edge_counter.20
 236      0000
 237 01fa 83C001   		addl	$1, %eax	 #, PROF_edge_counter.20
 238 01fd 83D200   		adcl	$0, %edx	 #, PROF_edge_counter.20
 239 0200 A3700200 		movl	%eax, LPBX1+624	 # PROF_edge_counter.20, *LPBX1
 239      00
 240 0205 89157402 		movl	%edx, LPBX1+628	 # PROF_edge_counter.20, *LPBX1
 240      0000
 241              	L10:
 242 020b A1780200 		movl	LPBX1+632, %eax	 # *LPBX1, PROF_edge_counter.20
 242      00
 243 0210 8B157C02 		movl	LPBX1+636, %edx	 # *LPBX1, PROF_edge_counter.20
 243      0000
 244 0216 83C001   		addl	$1, %eax	 #, PROF_edge_counter.20
 245 0219 83D200   		adcl	$0, %edx	 #, PROF_edge_counter.20
 246 021c A3780200 		movl	%eax, LPBX1+632	 # PROF_edge_counter.20, *LPBX1
 246      00
 247 0221 89157C02 		movl	%edx, LPBX1+636	 # PROF_edge_counter.20, *LPBX1
 247      0000
 248 0227 EB01     		jmp	L12	 #
 249              	L15:
 250 0229 90       		nop
 251              	L12:
 252              		.loc 1 139 0
 253 022a 8B442430 		movl	48(%esp), %eax	 # sp, tmp96
 254 022e 8B4008   		movl	8(%eax), %eax	 # sp_2(D)->s_cnt, tmp97
 255 0231 8944241C 		movl	%eax, 28(%esp)	 # tmp97, cnt
 256              		.loc 1 140 0
 257 0235 8B442430 		movl	48(%esp), %eax	 # sp, tmp98
 258 0239 8B542434 		movl	52(%esp), %edx	 # n, tmp99
 259 023d 895008   		movl	%edx, 8(%eax)	 # tmp99, sp_2(D)->s_cnt
 260              		.loc 1 141 0
 261 0240 EB71     		jmp	L13	 #
 262              	L14:
 263 0242 A1900200 		movl	LPBX1+656, %eax	 # *LPBX1, PROF_edge_counter.20
 263      00
 264 0247 8B159402 		movl	LPBX1+660, %edx	 # *LPBX1, PROF_edge_counter.20
 264      0000
 265 024d 83C001   		addl	$1, %eax	 #, PROF_edge_counter.20
 266 0250 83D200   		adcl	$0, %edx	 #, PROF_edge_counter.20
 267 0253 A3900200 		movl	%eax, LPBX1+656	 # PROF_edge_counter.20, *LPBX1
 267      00
 268 0258 89159402 		movl	%edx, LPBX1+660	 # PROF_edge_counter.20, *LPBX1
 268      0000
 269              		.loc 1 142 0
 270 025e 8B442430 		movl	48(%esp), %eax	 # sp, D.2964
 271 0262 890424   		movl	%eax, (%esp)	 # D.2964,
 272 0265 E8000000 		call	_lifo_remove	 #
 272      00
 273 026a 89C1     		movl	%eax, %ecx	 #, D.2965
 274 026c A1800200 		movl	LPBX1+640, %eax	 # *LPBX1, PROF_edge_counter.20
 274      00
GAS LISTING C:\cygwin\tmp\ccclv1xX.s 			page 7


 275 0271 8B158402 		movl	LPBX1+644, %edx	 # *LPBX1, PROF_edge_counter.20
 275      0000
 276 0277 83C001   		addl	$1, %eax	 #, PROF_edge_counter.20
 277 027a 83D200   		adcl	$0, %edx	 #, PROF_edge_counter.20
 278 027d A3800200 		movl	%eax, LPBX1+640	 # PROF_edge_counter.20, *LPBX1
 278      00
 279 0282 89158402 		movl	%edx, LPBX1+644	 # PROF_edge_counter.20, *LPBX1
 279      0000
 280 0288 890C24   		movl	%ecx, (%esp)	 # D.2965,
 281 028b E8000000 		call	_chSchReadyI	 #
 281      00
 282 0290 C74024FE 		movl	$-2, 36(%eax)	 #, D.2966_18->p_u.rdymsg
 282      FFFFFF
 283 0297 A1880200 		movl	LPBX1+648, %eax	 # *LPBX1, PROF_edge_counter.20
 283      00
 284 029c 8B158C02 		movl	LPBX1+652, %edx	 # *LPBX1, PROF_edge_counter.20
 284      0000
 285 02a2 83C001   		addl	$1, %eax	 #, PROF_edge_counter.20
 286 02a5 83D200   		adcl	$0, %edx	 #, PROF_edge_counter.20
 287 02a8 A3880200 		movl	%eax, LPBX1+648	 # PROF_edge_counter.20, *LPBX1
 287      00
 288 02ad 89158C02 		movl	%edx, LPBX1+652	 # PROF_edge_counter.20, *LPBX1
 288      0000
 289              	L13:
 290              		.loc 1 141 0 discriminator 1
 291 02b3 FF44241C 		incl	28(%esp)	 # cnt
 292 02b7 837C241C 		cmpl	$0, 28(%esp)	 #, cnt
 292      00
 293 02bc 7E84     		jle	L14	 #,
 294              		.loc 1 141 0 is_stmt 0
 295 02be A1980200 		movl	LPBX1+664, %eax	 # *LPBX1, PROF_edge_counter.20
 295      00
 296 02c3 8B159C02 		movl	LPBX1+668, %edx	 # *LPBX1, PROF_edge_counter.20
 296      0000
 297 02c9 83C001   		addl	$1, %eax	 #, PROF_edge_counter.20
 298 02cc 83D200   		adcl	$0, %edx	 #, PROF_edge_counter.20
 299 02cf A3980200 		movl	%eax, LPBX1+664	 # PROF_edge_counter.20, *LPBX1
 299      00
 300 02d4 89159C02 		movl	%edx, LPBX1+668	 # PROF_edge_counter.20, *LPBX1
 300      0000
 301              		.loc 1 143 0 is_stmt 1
 302 02da 83C42C   		addl	$44, %esp	 #,
 303              	LCFI5:
 304              		.cfi_def_cfa_offset 4
 305 02dd C3       		ret
 306              		.cfi_endproc
 307              	LFE2:
 308              		.globl	_chSemWait
 309              		.def	_chSemWait;	.scl	2;	.type	32;	.endef
 310              	_chSemWait:
 311              	LFB3:
 312              		.loc 1 157 0
 313              		.cfi_startproc
 314 02de 83EC2C   		subl	$44, %esp	 #,
 315              	LCFI6:
 316              		.cfi_def_cfa_offset 48
 317              		.loc 1 157 0
GAS LISTING C:\cygwin\tmp\ccclv1xX.s 			page 8


 318 02e1 A1300200 		movl	LPBX1+560, %eax	 # *LPBX1, PROF_edge_counter.19
 318      00
 319 02e6 8B153402 		movl	LPBX1+564, %edx	 # *LPBX1, PROF_edge_counter.19
 319      0000
 320 02ec 83C001   		addl	$1, %eax	 #, PROF_edge_counter.19
 321 02ef 83D200   		adcl	$0, %edx	 #, PROF_edge_counter.19
 322 02f2 A3300200 		movl	%eax, LPBX1+560	 # PROF_edge_counter.19, *LPBX1
 322      00
 323 02f7 89153402 		movl	%edx, LPBX1+564	 # PROF_edge_counter.19, *LPBX1
 323      0000
 324              		.loc 1 160 0
 325              	/APP
 326              	 # 160 "../../os/kernel/src/chsem.c" 1
 327 02fd 90       		nop
 328              	 # 0 "" 2
 329              	/NO_APP
 330 02fe A1380200 		movl	LPBX1+568, %eax	 # *LPBX1, PROF_edge_counter.19
 330      00
 331 0303 8B153C02 		movl	LPBX1+572, %edx	 # *LPBX1, PROF_edge_counter.19
 331      0000
 332 0309 83C001   		addl	$1, %eax	 #, PROF_edge_counter.19
 333 030c 83D200   		adcl	$0, %edx	 #, PROF_edge_counter.19
 334 030f A3380200 		movl	%eax, LPBX1+568	 # PROF_edge_counter.19, *LPBX1
 334      00
 335 0314 89153C02 		movl	%edx, LPBX1+572	 # PROF_edge_counter.19, *LPBX1
 335      0000
 336              		.loc 1 161 0
 337 031a 8B442430 		movl	48(%esp), %eax	 # sp, tmp69
 338 031e 890424   		movl	%eax, (%esp)	 # tmp69,
 339 0321 E8450000 		call	_chSemWaitS	 #
 339      00
 340 0326 8944241C 		movl	%eax, 28(%esp)	 # tmp70, msg
 341 032a A1400200 		movl	LPBX1+576, %eax	 # *LPBX1, PROF_edge_counter.19
 341      00
 342 032f 8B154402 		movl	LPBX1+580, %edx	 # *LPBX1, PROF_edge_counter.19
 342      0000
 343 0335 83C001   		addl	$1, %eax	 #, PROF_edge_counter.19
 344 0338 83D200   		adcl	$0, %edx	 #, PROF_edge_counter.19
 345 033b A3400200 		movl	%eax, LPBX1+576	 # PROF_edge_counter.19, *LPBX1
 345      00
 346 0340 89154402 		movl	%edx, LPBX1+580	 # PROF_edge_counter.19, *LPBX1
 346      0000
 347              		.loc 1 162 0
 348              	/APP
 349              	 # 162 "../../os/kernel/src/chsem.c" 1
 350 0346 90       		nop
 351              	 # 0 "" 2
 352              	/NO_APP
 353 0347 A1480200 		movl	LPBX1+584, %eax	 # *LPBX1, PROF_edge_counter.19
 353      00
 354 034c 8B154C02 		movl	LPBX1+588, %edx	 # *LPBX1, PROF_edge_counter.19
 354      0000
 355 0352 83C001   		addl	$1, %eax	 #, PROF_edge_counter.19
 356 0355 83D200   		adcl	$0, %edx	 #, PROF_edge_counter.19
 357 0358 A3480200 		movl	%eax, LPBX1+584	 # PROF_edge_counter.19, *LPBX1
 357      00
 358 035d 89154C02 		movl	%edx, LPBX1+588	 # PROF_edge_counter.19, *LPBX1
GAS LISTING C:\cygwin\tmp\ccclv1xX.s 			page 9


 358      0000
 359              		.loc 1 163 0
 360 0363 8B44241C 		movl	28(%esp), %eax	 # msg, D.2944
 361              		.loc 1 164 0
 362 0367 83C42C   		addl	$44, %esp	 #,
 363              	LCFI7:
 364              		.cfi_def_cfa_offset 4
 365 036a C3       		ret
 366              		.cfi_endproc
 367              	LFE3:
 368              		.globl	_chSemWaitS
 369              		.def	_chSemWaitS;	.scl	2;	.type	32;	.endef
 370              	_chSemWaitS:
 371              	LFB4:
 372              		.loc 1 178 0
 373              		.cfi_startproc
 374 036b 83EC1C   		subl	$28, %esp	 #,
 375              	LCFI8:
 376              		.cfi_def_cfa_offset 32
 377              		.loc 1 182 0
 378 036e 8B442420 		movl	32(%esp), %eax	 # sp, tmp92
 379 0372 8B4008   		movl	8(%eax), %eax	 # sp_2(D)->s_cnt, D.2925
 380              		.loc 1 178 0
 381 0375 85C0     		testl	%eax, %eax	 # D.2925
 382 0377 782A     		js	L18	 #,
 383 0379 A1F00100 		movl	LPBX1+496, %eax	 # *LPBX1, PROF_edge_counter.18
 383      00
 384 037e 8B15F401 		movl	LPBX1+500, %edx	 # *LPBX1, PROF_edge_counter.18
 384      0000
 385 0384 83C001   		addl	$1, %eax	 #, PROF_edge_counter.18
 386 0387 83D200   		adcl	$0, %edx	 #, PROF_edge_counter.18
 387 038a A3F00100 		movl	%eax, LPBX1+496	 # PROF_edge_counter.18, *LPBX1
 387      00
 388 038f 8915F401 		movl	%edx, LPBX1+500	 # PROF_edge_counter.18, *LPBX1
 388      0000
 389              		.loc 1 182 0
 390 0395 8B442420 		movl	32(%esp), %eax	 # sp, tmp93
 391 0399 8B10     		movl	(%eax), %edx	 # sp_2(D)->s_queue.p_next, D.2927
 392 039b 8B442420 		movl	32(%esp), %eax	 # sp, D.2928
 393 039f 39C2     		cmpl	%eax, %edx	 # D.2928, D.2927
 394 03a1 746F     		je	L25	 #,
 395              	L18:
 396              		.loc 1 182 0 is_stmt 0 discriminator 1
 397 03a3 8B442420 		movl	32(%esp), %eax	 # sp, tmp94
 398 03a7 8B4008   		movl	8(%eax), %eax	 # sp_2(D)->s_cnt, D.2929
 399 03aa 85C0     		testl	%eax, %eax	 # D.2929
 400 03ac 7946     		jns	L20	 #,
 401              		.loc 1 182 0 discriminator 2
 402 03ae A1F80100 		movl	LPBX1+504, %eax	 # *LPBX1, PROF_edge_counter.18
 402      00
 403 03b3 8B15FC01 		movl	LPBX1+508, %edx	 # *LPBX1, PROF_edge_counter.18
 403      0000
 404 03b9 83C001   		addl	$1, %eax	 #, PROF_edge_counter.18
 405 03bc 83D200   		adcl	$0, %edx	 #, PROF_edge_counter.18
 406 03bf A3F80100 		movl	%eax, LPBX1+504	 # PROF_edge_counter.18, *LPBX1
 406      00
 407 03c4 8915FC01 		movl	%edx, LPBX1+508	 # PROF_edge_counter.18, *LPBX1
GAS LISTING C:\cygwin\tmp\ccclv1xX.s 			page 10


 407      0000
 408 03ca 8B442420 		movl	32(%esp), %eax	 # sp, tmp95
 409 03ce 8B10     		movl	(%eax), %edx	 # sp_2(D)->s_queue.p_next, D.2931
 410 03d0 8B442420 		movl	32(%esp), %eax	 # sp, D.2932
 411 03d4 39C2     		cmpl	%eax, %edx	 # D.2932, D.2931
 412 03d6 753A     		jne	L25	 #,
 413              	L21:
 414              		.loc 1 178 0 is_stmt 1
 415 03d8 A1000200 		movl	LPBX1+512, %eax	 # *LPBX1, PROF_edge_counter.18
 415      00
 416 03dd 8B150402 		movl	LPBX1+516, %edx	 # *LPBX1, PROF_edge_counter.18
 416      0000
 417 03e3 83C001   		addl	$1, %eax	 #, PROF_edge_counter.18
 418 03e6 83D200   		adcl	$0, %edx	 #, PROF_edge_counter.18
 419 03e9 A3000200 		movl	%eax, LPBX1+512	 # PROF_edge_counter.18, *LPBX1
 419      00
 420 03ee 89150402 		movl	%edx, LPBX1+516	 # PROF_edge_counter.18, *LPBX1
 420      0000
 421              	L20:
 422 03f4 A1080200 		movl	LPBX1+520, %eax	 # *LPBX1, PROF_edge_counter.18
 422      00
 423 03f9 8B150C02 		movl	LPBX1+524, %edx	 # *LPBX1, PROF_edge_counter.18
 423      0000
 424 03ff 83C001   		addl	$1, %eax	 #, PROF_edge_counter.18
 425 0402 83D200   		adcl	$0, %edx	 #, PROF_edge_counter.18
 426 0405 A3080200 		movl	%eax, LPBX1+520	 # PROF_edge_counter.18, *LPBX1
 426      00
 427 040a 89150C02 		movl	%edx, LPBX1+524	 # PROF_edge_counter.18, *LPBX1
 427      0000
 428 0410 EB01     		jmp	L22	 #
 429              	L25:
 430 0412 90       		nop
 431              	L22:
 432              		.loc 1 187 0
 433 0413 8B442420 		movl	32(%esp), %eax	 # sp, tmp96
 434 0417 8B4008   		movl	8(%eax), %eax	 # sp_2(D)->s_cnt, D.2933
 435 041a 8D50FF   		leal	-1(%eax), %edx	 #, D.2934
 436 041d 8B442420 		movl	32(%esp), %eax	 # sp, tmp97
 437 0421 895008   		movl	%edx, 8(%eax)	 # D.2934, sp_2(D)->s_cnt
 438 0424 8B442420 		movl	32(%esp), %eax	 # sp, tmp98
 439 0428 8B4008   		movl	8(%eax), %eax	 # sp_2(D)->s_cnt, D.2935
 440 042b 85C0     		testl	%eax, %eax	 # D.2935
 441 042d 0F898B00 		jns	L23	 #,
 441      0000
 442 0433 A1100200 		movl	LPBX1+528, %eax	 # *LPBX1, PROF_edge_counter.18
 442      00
 443 0438 8B151402 		movl	LPBX1+532, %edx	 # *LPBX1, PROF_edge_counter.18
 443      0000
 444 043e 83C001   		addl	$1, %eax	 #, PROF_edge_counter.18
 445 0441 83D200   		adcl	$0, %edx	 #, PROF_edge_counter.18
 446 0444 A3100200 		movl	%eax, LPBX1+528	 # PROF_edge_counter.18, *LPBX1
 446      00
 447 0449 89151402 		movl	%edx, LPBX1+532	 # PROF_edge_counter.18, *LPBX1
 447      0000
 448              		.loc 1 188 0
 449 044f A1180000 		movl	_rlist+24, %eax	 # rlist.r_current, D.2938
 449      00
GAS LISTING C:\cygwin\tmp\ccclv1xX.s 			page 11


 450 0454 8B542420 		movl	32(%esp), %edx	 # sp, tmp99
 451 0458 895024   		movl	%edx, 36(%eax)	 # tmp99, D.2938_14->p_u.wtobjp
 452              		.loc 1 189 0
 453 045b 8B542420 		movl	32(%esp), %edx	 # sp, D.2939
 454 045f A1180000 		movl	_rlist+24, %eax	 # rlist.r_current, D.2940
 454      00
 455 0464 89542404 		movl	%edx, 4(%esp)	 # D.2939,
 456 0468 890424   		movl	%eax, (%esp)	 # D.2940,
 457 046b E8000000 		call	_queue_insert	 #
 457      00
 458 0470 A1180200 		movl	LPBX1+536, %eax	 # *LPBX1, PROF_edge_counter.18
 458      00
 459 0475 8B151C02 		movl	LPBX1+540, %edx	 # *LPBX1, PROF_edge_counter.18
 459      0000
 460 047b 83C001   		addl	$1, %eax	 #, PROF_edge_counter.18
 461 047e 83D200   		adcl	$0, %edx	 #, PROF_edge_counter.18
 462 0481 A3180200 		movl	%eax, LPBX1+536	 # PROF_edge_counter.18, *LPBX1
 462      00
 463 0486 89151C02 		movl	%edx, LPBX1+540	 # PROF_edge_counter.18, *LPBX1
 463      0000
 464              		.loc 1 190 0
 465 048c C7042403 		movl	$3, (%esp)	 #,
 465      000000
 466 0493 E8000000 		call	_chSchGoSleepS	 #
 466      00
 467              		.loc 1 191 0
 468 0498 A1180000 		movl	_rlist+24, %eax	 # rlist.r_current, D.2942
 468      00
 469 049d 8B4824   		movl	36(%eax), %ecx	 # D.2942_17->p_u.rdymsg, D.2941
 470 04a0 A1200200 		movl	LPBX1+544, %eax	 # *LPBX1, PROF_edge_counter.18
 470      00
 471 04a5 8B152402 		movl	LPBX1+548, %edx	 # *LPBX1, PROF_edge_counter.18
 471      0000
 472 04ab 83C001   		addl	$1, %eax	 #, PROF_edge_counter.18
 473 04ae 83D200   		adcl	$0, %edx	 #, PROF_edge_counter.18
 474 04b1 A3200200 		movl	%eax, LPBX1+544	 # PROF_edge_counter.18, *LPBX1
 474      00
 475 04b6 89152402 		movl	%edx, LPBX1+548	 # PROF_edge_counter.18, *LPBX1
 475      0000
 476 04bc EB21     		jmp	L24	 #
 477              	L23:
 478              		.loc 1 193 0
 479 04be B9000000 		movl	$0, %ecx	 #, D.2941
 479      00
 480 04c3 A1280200 		movl	LPBX1+552, %eax	 # *LPBX1, PROF_edge_counter.18
 480      00
 481 04c8 8B152C02 		movl	LPBX1+556, %edx	 # *LPBX1, PROF_edge_counter.18
 481      0000
 482 04ce 83C001   		addl	$1, %eax	 #, PROF_edge_counter.18
 483 04d1 83D200   		adcl	$0, %edx	 #, PROF_edge_counter.18
 484 04d4 A3280200 		movl	%eax, LPBX1+552	 # PROF_edge_counter.18, *LPBX1
 484      00
 485 04d9 89152C02 		movl	%edx, LPBX1+556	 # PROF_edge_counter.18, *LPBX1
 485      0000
 486              	L24:
 487 04df 89C8     		movl	%ecx, %eax	 # D.2941, <retval>
 488              		.loc 1 194 0
GAS LISTING C:\cygwin\tmp\ccclv1xX.s 			page 12


 489 04e1 83C41C   		addl	$28, %esp	 #,
 490              	LCFI9:
 491              		.cfi_def_cfa_offset 4
 492 04e4 C3       		ret
 493              		.cfi_endproc
 494              	LFE4:
 495              		.globl	_chSemWaitTimeout
 496              		.def	_chSemWaitTimeout;	.scl	2;	.type	32;	.endef
 497              	_chSemWaitTimeout:
 498              	LFB5:
 499              		.loc 1 215 0
 500              		.cfi_startproc
 501 04e5 83EC2C   		subl	$44, %esp	 #,
 502              	LCFI10:
 503              		.cfi_def_cfa_offset 48
 504              		.loc 1 215 0
 505 04e8 A1D00100 		movl	LPBX1+464, %eax	 # *LPBX1, PROF_edge_counter.17
 505      00
 506 04ed 8B15D401 		movl	LPBX1+468, %edx	 # *LPBX1, PROF_edge_counter.17
 506      0000
 507 04f3 83C001   		addl	$1, %eax	 #, PROF_edge_counter.17
 508 04f6 83D200   		adcl	$0, %edx	 #, PROF_edge_counter.17
 509 04f9 A3D00100 		movl	%eax, LPBX1+464	 # PROF_edge_counter.17, *LPBX1
 509      00
 510 04fe 8915D401 		movl	%edx, LPBX1+468	 # PROF_edge_counter.17, *LPBX1
 510      0000
 511              		.loc 1 218 0
 512              	/APP
 513              	 # 218 "../../os/kernel/src/chsem.c" 1
 514 0504 90       		nop
 515              	 # 0 "" 2
 516              	/NO_APP
 517 0505 A1D80100 		movl	LPBX1+472, %eax	 # *LPBX1, PROF_edge_counter.17
 517      00
 518 050a 8B15DC01 		movl	LPBX1+476, %edx	 # *LPBX1, PROF_edge_counter.17
 518      0000
 519 0510 83C001   		addl	$1, %eax	 #, PROF_edge_counter.17
 520 0513 83D200   		adcl	$0, %edx	 #, PROF_edge_counter.17
 521 0516 A3D80100 		movl	%eax, LPBX1+472	 # PROF_edge_counter.17, *LPBX1
 521      00
 522 051b 8915DC01 		movl	%edx, LPBX1+476	 # PROF_edge_counter.17, *LPBX1
 522      0000
 523              		.loc 1 219 0
 524 0521 8B442434 		movl	52(%esp), %eax	 # time, tmp69
 525 0525 89442404 		movl	%eax, 4(%esp)	 # tmp69,
 526 0529 8B442430 		movl	48(%esp), %eax	 # sp, tmp70
 527 052d 890424   		movl	%eax, (%esp)	 # tmp70,
 528 0530 E8450000 		call	_chSemWaitTimeoutS	 #
 528      00
 529 0535 8944241C 		movl	%eax, 28(%esp)	 # tmp71, msg
 530 0539 A1E00100 		movl	LPBX1+480, %eax	 # *LPBX1, PROF_edge_counter.17
 530      00
 531 053e 8B15E401 		movl	LPBX1+484, %edx	 # *LPBX1, PROF_edge_counter.17
 531      0000
 532 0544 83C001   		addl	$1, %eax	 #, PROF_edge_counter.17
 533 0547 83D200   		adcl	$0, %edx	 #, PROF_edge_counter.17
 534 054a A3E00100 		movl	%eax, LPBX1+480	 # PROF_edge_counter.17, *LPBX1
GAS LISTING C:\cygwin\tmp\ccclv1xX.s 			page 13


 534      00
 535 054f 8915E401 		movl	%edx, LPBX1+484	 # PROF_edge_counter.17, *LPBX1
 535      0000
 536              		.loc 1 220 0
 537              	/APP
 538              	 # 220 "../../os/kernel/src/chsem.c" 1
 539 0555 90       		nop
 540              	 # 0 "" 2
 541              	/NO_APP
 542 0556 A1E80100 		movl	LPBX1+488, %eax	 # *LPBX1, PROF_edge_counter.17
 542      00
 543 055b 8B15EC01 		movl	LPBX1+492, %edx	 # *LPBX1, PROF_edge_counter.17
 543      0000
 544 0561 83C001   		addl	$1, %eax	 #, PROF_edge_counter.17
 545 0564 83D200   		adcl	$0, %edx	 #, PROF_edge_counter.17
 546 0567 A3E80100 		movl	%eax, LPBX1+488	 # PROF_edge_counter.17, *LPBX1
 546      00
 547 056c 8915EC01 		movl	%edx, LPBX1+492	 # PROF_edge_counter.17, *LPBX1
 547      0000
 548              		.loc 1 221 0
 549 0572 8B44241C 		movl	28(%esp), %eax	 # msg, D.2915
 550              		.loc 1 222 0
 551 0576 83C42C   		addl	$44, %esp	 #,
 552              	LCFI11:
 553              		.cfi_def_cfa_offset 4
 554 0579 C3       		ret
 555              		.cfi_endproc
 556              	LFE5:
 557              		.globl	_chSemWaitTimeoutS
 558              		.def	_chSemWaitTimeoutS;	.scl	2;	.type	32;	.endef
 559              	_chSemWaitTimeoutS:
 560              	LFB6:
 561              		.loc 1 243 0
 562              		.cfi_startproc
 563 057a 83EC1C   		subl	$28, %esp	 #,
 564              	LCFI12:
 565              		.cfi_def_cfa_offset 32
 566              		.loc 1 247 0
 567 057d 8B442420 		movl	32(%esp), %eax	 # sp, tmp95
 568 0581 8B4008   		movl	8(%eax), %eax	 # sp_2(D)->s_cnt, D.2893
 569              		.loc 1 243 0
 570 0584 85C0     		testl	%eax, %eax	 # D.2893
 571 0586 782A     		js	L28	 #,
 572 0588 A1880100 		movl	LPBX1+392, %eax	 # *LPBX1, PROF_edge_counter.16
 572      00
 573 058d 8B158C01 		movl	LPBX1+396, %edx	 # *LPBX1, PROF_edge_counter.16
 573      0000
 574 0593 83C001   		addl	$1, %eax	 #, PROF_edge_counter.16
 575 0596 83D200   		adcl	$0, %edx	 #, PROF_edge_counter.16
 576 0599 A3880100 		movl	%eax, LPBX1+392	 # PROF_edge_counter.16, *LPBX1
 576      00
 577 059e 89158C01 		movl	%edx, LPBX1+396	 # PROF_edge_counter.16, *LPBX1
 577      0000
 578              		.loc 1 247 0
 579 05a4 8B442420 		movl	32(%esp), %eax	 # sp, tmp96
 580 05a8 8B10     		movl	(%eax), %edx	 # sp_2(D)->s_queue.p_next, D.2895
 581 05aa 8B442420 		movl	32(%esp), %eax	 # sp, D.2896
GAS LISTING C:\cygwin\tmp\ccclv1xX.s 			page 14


 582 05ae 39C2     		cmpl	%eax, %edx	 # D.2896, D.2895
 583 05b0 746F     		je	L36	 #,
 584              	L28:
 585              		.loc 1 247 0 is_stmt 0 discriminator 1
 586 05b2 8B442420 		movl	32(%esp), %eax	 # sp, tmp97
 587 05b6 8B4008   		movl	8(%eax), %eax	 # sp_2(D)->s_cnt, D.2897
 588 05b9 85C0     		testl	%eax, %eax	 # D.2897
 589 05bb 7946     		jns	L30	 #,
 590              		.loc 1 247 0 discriminator 2
 591 05bd A1900100 		movl	LPBX1+400, %eax	 # *LPBX1, PROF_edge_counter.16
 591      00
 592 05c2 8B159401 		movl	LPBX1+404, %edx	 # *LPBX1, PROF_edge_counter.16
 592      0000
 593 05c8 83C001   		addl	$1, %eax	 #, PROF_edge_counter.16
 594 05cb 83D200   		adcl	$0, %edx	 #, PROF_edge_counter.16
 595 05ce A3900100 		movl	%eax, LPBX1+400	 # PROF_edge_counter.16, *LPBX1
 595      00
 596 05d3 89159401 		movl	%edx, LPBX1+404	 # PROF_edge_counter.16, *LPBX1
 596      0000
 597 05d9 8B442420 		movl	32(%esp), %eax	 # sp, tmp98
 598 05dd 8B10     		movl	(%eax), %edx	 # sp_2(D)->s_queue.p_next, D.2899
 599 05df 8B442420 		movl	32(%esp), %eax	 # sp, D.2900
 600 05e3 39C2     		cmpl	%eax, %edx	 # D.2900, D.2899
 601 05e5 753A     		jne	L36	 #,
 602              	L31:
 603              		.loc 1 243 0 is_stmt 1
 604 05e7 A1980100 		movl	LPBX1+408, %eax	 # *LPBX1, PROF_edge_counter.16
 604      00
 605 05ec 8B159C01 		movl	LPBX1+412, %edx	 # *LPBX1, PROF_edge_counter.16
 605      0000
 606 05f2 83C001   		addl	$1, %eax	 #, PROF_edge_counter.16
 607 05f5 83D200   		adcl	$0, %edx	 #, PROF_edge_counter.16
 608 05f8 A3980100 		movl	%eax, LPBX1+408	 # PROF_edge_counter.16, *LPBX1
 608      00
 609 05fd 89159C01 		movl	%edx, LPBX1+412	 # PROF_edge_counter.16, *LPBX1
 609      0000
 610              	L30:
 611 0603 A1A00100 		movl	LPBX1+416, %eax	 # *LPBX1, PROF_edge_counter.16
 611      00
 612 0608 8B15A401 		movl	LPBX1+420, %edx	 # *LPBX1, PROF_edge_counter.16
 612      0000
 613 060e 83C001   		addl	$1, %eax	 #, PROF_edge_counter.16
 614 0611 83D200   		adcl	$0, %edx	 #, PROF_edge_counter.16
 615 0614 A3A00100 		movl	%eax, LPBX1+416	 # PROF_edge_counter.16, *LPBX1
 615      00
 616 0619 8915A401 		movl	%edx, LPBX1+420	 # PROF_edge_counter.16, *LPBX1
 616      0000
 617 061f EB01     		jmp	L32	 #
 618              	L36:
 619 0621 90       		nop
 620              	L32:
 621              		.loc 1 252 0
 622 0622 8B442420 		movl	32(%esp), %eax	 # sp, tmp99
 623 0626 8B4008   		movl	8(%eax), %eax	 # sp_2(D)->s_cnt, D.2901
 624 0629 8D50FF   		leal	-1(%eax), %edx	 #, D.2902
 625 062c 8B442420 		movl	32(%esp), %eax	 # sp, tmp100
 626 0630 895008   		movl	%edx, 8(%eax)	 # D.2902, sp_2(D)->s_cnt
GAS LISTING C:\cygwin\tmp\ccclv1xX.s 			page 15


 627 0633 8B442420 		movl	32(%esp), %eax	 # sp, tmp101
 628 0637 8B4008   		movl	8(%eax), %eax	 # sp_2(D)->s_cnt, D.2903
 629 063a 85C0     		testl	%eax, %eax	 # D.2903
 630 063c 0F89CB00 		jns	L33	 #,
 630      0000
 631              		.loc 1 253 0
 632 0642 837C2424 		cmpl	$0, 36(%esp)	 #, time
 632      00
 633 0647 7537     		jne	L34	 #,
 634              		.loc 1 254 0
 635 0649 8B442420 		movl	32(%esp), %eax	 # sp, tmp102
 636 064d 8B4008   		movl	8(%eax), %eax	 # sp_2(D)->s_cnt, D.2908
 637 0650 8D5001   		leal	1(%eax), %edx	 #, D.2909
 638 0653 8B442420 		movl	32(%esp), %eax	 # sp, tmp103
 639 0657 895008   		movl	%edx, 8(%eax)	 # D.2909, sp_2(D)->s_cnt
 640              		.loc 1 255 0
 641 065a B9FFFFFF 		movl	$-1, %ecx	 #, D.2910
 641      FF
 642 065f A1B00100 		movl	LPBX1+432, %eax	 # *LPBX1, PROF_edge_counter.16
 642      00
 643 0664 8B15B401 		movl	LPBX1+436, %edx	 # *LPBX1, PROF_edge_counter.16
 643      0000
 644 066a 83C001   		addl	$1, %eax	 #, PROF_edge_counter.16
 645 066d 83D200   		adcl	$0, %edx	 #, PROF_edge_counter.16
 646 0670 A3B00100 		movl	%eax, LPBX1+432	 # PROF_edge_counter.16, *LPBX1
 646      00
 647 0675 8915B401 		movl	%edx, LPBX1+436	 # PROF_edge_counter.16, *LPBX1
 647      0000
 648 067b E9AE0000 		jmp	L35	 #
 648      00
 649              	L34:
 650 0680 A1A80100 		movl	LPBX1+424, %eax	 # *LPBX1, PROF_edge_counter.16
 650      00
 651 0685 8B15AC01 		movl	LPBX1+428, %edx	 # *LPBX1, PROF_edge_counter.16
 651      0000
 652 068b 83C001   		addl	$1, %eax	 #, PROF_edge_counter.16
 653 068e 83D200   		adcl	$0, %edx	 #, PROF_edge_counter.16
 654 0691 A3A80100 		movl	%eax, LPBX1+424	 # PROF_edge_counter.16, *LPBX1
 654      00
 655 0696 8915AC01 		movl	%edx, LPBX1+428	 # PROF_edge_counter.16, *LPBX1
 655      0000
 656              		.loc 1 257 0
 657 069c A1180000 		movl	_rlist+24, %eax	 # rlist.r_current, D.2911
 657      00
 658 06a1 8B542420 		movl	32(%esp), %edx	 # sp, tmp104
 659 06a5 895024   		movl	%edx, 36(%eax)	 # tmp104, D.2911_18->p_u.wtobjp
 660              		.loc 1 258 0
 661 06a8 8B542420 		movl	32(%esp), %edx	 # sp, D.2912
 662 06ac A1180000 		movl	_rlist+24, %eax	 # rlist.r_current, D.2913
 662      00
 663 06b1 89542404 		movl	%edx, 4(%esp)	 # D.2912,
 664 06b5 890424   		movl	%eax, (%esp)	 # D.2913,
 665 06b8 E8000000 		call	_queue_insert	 #
 665      00
 666 06bd A1B80100 		movl	LPBX1+440, %eax	 # *LPBX1, PROF_edge_counter.16
 666      00
 667 06c2 8B15BC01 		movl	LPBX1+444, %edx	 # *LPBX1, PROF_edge_counter.16
GAS LISTING C:\cygwin\tmp\ccclv1xX.s 			page 16


 667      0000
 668 06c8 83C001   		addl	$1, %eax	 #, PROF_edge_counter.16
 669 06cb 83D200   		adcl	$0, %edx	 #, PROF_edge_counter.16
 670 06ce A3B80100 		movl	%eax, LPBX1+440	 # PROF_edge_counter.16, *LPBX1
 670      00
 671 06d3 8915BC01 		movl	%edx, LPBX1+444	 # PROF_edge_counter.16, *LPBX1
 671      0000
 672              		.loc 1 259 0
 673 06d9 8B442424 		movl	36(%esp), %eax	 # time, tmp105
 674 06dd 89442404 		movl	%eax, 4(%esp)	 # tmp105,
 675 06e1 C7042403 		movl	$3, (%esp)	 #,
 675      000000
 676 06e8 E8000000 		call	_chSchGoSleepTimeoutS	 #
 676      00
 677 06ed 89C1     		movl	%eax, %ecx	 #, D.2910
 678 06ef A1C00100 		movl	LPBX1+448, %eax	 # *LPBX1, PROF_edge_counter.16
 678      00
 679 06f4 8B15C401 		movl	LPBX1+452, %edx	 # *LPBX1, PROF_edge_counter.16
 679      0000
 680 06fa 83C001   		addl	$1, %eax	 #, PROF_edge_counter.16
 681 06fd 83D200   		adcl	$0, %edx	 #, PROF_edge_counter.16
 682 0700 A3C00100 		movl	%eax, LPBX1+448	 # PROF_edge_counter.16, *LPBX1
 682      00
 683 0705 8915C401 		movl	%edx, LPBX1+452	 # PROF_edge_counter.16, *LPBX1
 683      0000
 684 070b EB21     		jmp	L35	 #
 685              	L33:
 686              		.loc 1 261 0
 687 070d B9000000 		movl	$0, %ecx	 #, D.2910
 687      00
 688 0712 A1C80100 		movl	LPBX1+456, %eax	 # *LPBX1, PROF_edge_counter.16
 688      00
 689 0717 8B15CC01 		movl	LPBX1+460, %edx	 # *LPBX1, PROF_edge_counter.16
 689      0000
 690 071d 83C001   		addl	$1, %eax	 #, PROF_edge_counter.16
 691 0720 83D200   		adcl	$0, %edx	 #, PROF_edge_counter.16
 692 0723 A3C80100 		movl	%eax, LPBX1+456	 # PROF_edge_counter.16, *LPBX1
 692      00
 693 0728 8915CC01 		movl	%edx, LPBX1+460	 # PROF_edge_counter.16, *LPBX1
 693      0000
 694              	L35:
 695 072e 89C8     		movl	%ecx, %eax	 # D.2910, <retval>
 696              		.loc 1 262 0
 697 0730 83C41C   		addl	$28, %esp	 #,
 698              	LCFI13:
 699              		.cfi_def_cfa_offset 4
 700 0733 C3       		ret
 701              		.cfi_endproc
 702              	LFE6:
 703              		.globl	_chSemSignal
 704              		.def	_chSemSignal;	.scl	2;	.type	32;	.endef
 705              	_chSemSignal:
 706              	LFB7:
 707              		.loc 1 271 0
 708              		.cfi_startproc
 709 0734 83EC1C   		subl	$28, %esp	 #,
 710              	LCFI14:
GAS LISTING C:\cygwin\tmp\ccclv1xX.s 			page 17


 711              		.cfi_def_cfa_offset 32
 712              		.loc 1 274 0
 713 0737 8B442420 		movl	32(%esp), %eax	 # sp, tmp92
 714 073b 8B4008   		movl	8(%eax), %eax	 # sp_1(D)->s_cnt, D.2870
 715              		.loc 1 271 0
 716 073e 85C0     		testl	%eax, %eax	 # D.2870
 717 0740 782A     		js	L38	 #,
 718 0742 A1380100 		movl	LPBX1+312, %eax	 # *LPBX1, PROF_edge_counter.15
 718      00
 719 0747 8B153C01 		movl	LPBX1+316, %edx	 # *LPBX1, PROF_edge_counter.15
 719      0000
 720 074d 83C001   		addl	$1, %eax	 #, PROF_edge_counter.15
 721 0750 83D200   		adcl	$0, %edx	 #, PROF_edge_counter.15
 722 0753 A3380100 		movl	%eax, LPBX1+312	 # PROF_edge_counter.15, *LPBX1
 722      00
 723 0758 89153C01 		movl	%edx, LPBX1+316	 # PROF_edge_counter.15, *LPBX1
 723      0000
 724              		.loc 1 274 0
 725 075e 8B442420 		movl	32(%esp), %eax	 # sp, tmp93
 726 0762 8B10     		movl	(%eax), %edx	 # sp_1(D)->s_queue.p_next, D.2872
 727 0764 8B442420 		movl	32(%esp), %eax	 # sp, D.2873
 728 0768 39C2     		cmpl	%eax, %edx	 # D.2873, D.2872
 729 076a 7435     		je	L39	 #,
 730              	L38:
 731              		.loc 1 274 0 is_stmt 0 discriminator 1
 732 076c 8B442420 		movl	32(%esp), %eax	 # sp, tmp94
 733 0770 8B4008   		movl	8(%eax), %eax	 # sp_1(D)->s_cnt, D.2874
 734 0773 85C0     		testl	%eax, %eax	 # D.2874
 735 0775 7964     		jns	L40	 #,
 736              		.loc 1 274 0 discriminator 2
 737 0777 A1400100 		movl	LPBX1+320, %eax	 # *LPBX1, PROF_edge_counter.15
 737      00
 738 077c 8B154401 		movl	LPBX1+324, %edx	 # *LPBX1, PROF_edge_counter.15
 738      0000
 739 0782 83C001   		addl	$1, %eax	 #, PROF_edge_counter.15
 740 0785 83D200   		adcl	$0, %edx	 #, PROF_edge_counter.15
 741 0788 A3400100 		movl	%eax, LPBX1+320	 # PROF_edge_counter.15, *LPBX1
 741      00
 742 078d 89154401 		movl	%edx, LPBX1+324	 # PROF_edge_counter.15, *LPBX1
 742      0000
 743 0793 8B442420 		movl	32(%esp), %eax	 # sp, tmp95
 744 0797 8B10     		movl	(%eax), %edx	 # sp_1(D)->s_queue.p_next, D.2876
 745 0799 8B442420 		movl	32(%esp), %eax	 # sp, D.2877
 746 079d 39C2     		cmpl	%eax, %edx	 # D.2877, D.2876
 747 079f 741E     		je	L41	 #,
 748              	L39:
 749              		.loc 1 271 0 is_stmt 1
 750 07a1 A1500100 		movl	LPBX1+336, %eax	 # *LPBX1, PROF_edge_counter.15
 750      00
 751 07a6 8B155401 		movl	LPBX1+340, %edx	 # *LPBX1, PROF_edge_counter.15
 751      0000
 752 07ac 83C001   		addl	$1, %eax	 #, PROF_edge_counter.15
 753 07af 83D200   		adcl	$0, %edx	 #, PROF_edge_counter.15
 754 07b2 A3500100 		movl	%eax, LPBX1+336	 # PROF_edge_counter.15, *LPBX1
 754      00
 755 07b7 89155401 		movl	%edx, LPBX1+340	 # PROF_edge_counter.15, *LPBX1
 755      0000
GAS LISTING C:\cygwin\tmp\ccclv1xX.s 			page 18


 756 07bd EB38     		jmp	L42	 #
 757              	L41:
 758 07bf A1480100 		movl	LPBX1+328, %eax	 # *LPBX1, PROF_edge_counter.15
 758      00
 759 07c4 8B154C01 		movl	LPBX1+332, %edx	 # *LPBX1, PROF_edge_counter.15
 759      0000
 760 07ca 83C001   		addl	$1, %eax	 #, PROF_edge_counter.15
 761 07cd 83D200   		adcl	$0, %edx	 #, PROF_edge_counter.15
 762 07d0 A3480100 		movl	%eax, LPBX1+328	 # PROF_edge_counter.15, *LPBX1
 762      00
 763 07d5 89154C01 		movl	%edx, LPBX1+332	 # PROF_edge_counter.15, *LPBX1
 763      0000
 764              	L40:
 765 07db A1580100 		movl	LPBX1+344, %eax	 # *LPBX1, PROF_edge_counter.15
 765      00
 766 07e0 8B155C01 		movl	LPBX1+348, %edx	 # *LPBX1, PROF_edge_counter.15
 766      0000
 767 07e6 83C001   		addl	$1, %eax	 #, PROF_edge_counter.15
 768 07e9 83D200   		adcl	$0, %edx	 #, PROF_edge_counter.15
 769 07ec A3580100 		movl	%eax, LPBX1+344	 # PROF_edge_counter.15, *LPBX1
 769      00
 770 07f1 89155C01 		movl	%edx, LPBX1+348	 # PROF_edge_counter.15, *LPBX1
 770      0000
 771              	L42:
 772              		.loc 1 279 0
 773              	/APP
 774              	 # 279 "../../os/kernel/src/chsem.c" 1
 775 07f7 90       		nop
 776              	 # 0 "" 2
 777              	/NO_APP
 778 07f8 A1600100 		movl	LPBX1+352, %eax	 # *LPBX1, PROF_edge_counter.15
 778      00
 779 07fd 8B156401 		movl	LPBX1+356, %edx	 # *LPBX1, PROF_edge_counter.15
 779      0000
 780 0803 83C001   		addl	$1, %eax	 #, PROF_edge_counter.15
 781 0806 83D200   		adcl	$0, %edx	 #, PROF_edge_counter.15
 782 0809 A3600100 		movl	%eax, LPBX1+352	 # PROF_edge_counter.15, *LPBX1
 782      00
 783 080e 89156401 		movl	%edx, LPBX1+356	 # PROF_edge_counter.15, *LPBX1
 783      0000
 784              		.loc 1 280 0
 785 0814 8B442420 		movl	32(%esp), %eax	 # sp, tmp96
 786 0818 8B4008   		movl	8(%eax), %eax	 # sp_1(D)->s_cnt, D.2878
 787 081b 8D5001   		leal	1(%eax), %edx	 #, D.2879
 788 081e 8B442420 		movl	32(%esp), %eax	 # sp, tmp97
 789 0822 895008   		movl	%edx, 8(%eax)	 # D.2879, sp_1(D)->s_cnt
 790 0825 8B442420 		movl	32(%esp), %eax	 # sp, tmp98
 791 0829 8B4008   		movl	8(%eax), %eax	 # sp_1(D)->s_cnt, D.2880
 792 082c 85C0     		testl	%eax, %eax	 # D.2880
 793 082e 7F72     		jg	L43	 #,
 794 0830 A1680100 		movl	LPBX1+360, %eax	 # *LPBX1, PROF_edge_counter.15
 794      00
 795 0835 8B156C01 		movl	LPBX1+364, %edx	 # *LPBX1, PROF_edge_counter.15
 795      0000
 796 083b 83C001   		addl	$1, %eax	 #, PROF_edge_counter.15
 797 083e 83D200   		adcl	$0, %edx	 #, PROF_edge_counter.15
 798 0841 A3680100 		movl	%eax, LPBX1+360	 # PROF_edge_counter.15, *LPBX1
GAS LISTING C:\cygwin\tmp\ccclv1xX.s 			page 19


 798      00
 799 0846 89156C01 		movl	%edx, LPBX1+364	 # PROF_edge_counter.15, *LPBX1
 799      0000
 800              		.loc 1 281 0
 801 084c 8B442420 		movl	32(%esp), %eax	 # sp, D.2883
 802 0850 890424   		movl	%eax, (%esp)	 # D.2883,
 803 0853 E8000000 		call	_fifo_remove	 #
 803      00
 804 0858 89C1     		movl	%eax, %ecx	 #, D.2884
 805 085a A1700100 		movl	LPBX1+368, %eax	 # *LPBX1, PROF_edge_counter.15
 805      00
 806 085f 8B157401 		movl	LPBX1+372, %edx	 # *LPBX1, PROF_edge_counter.15
 806      0000
 807 0865 83C001   		addl	$1, %eax	 #, PROF_edge_counter.15
 808 0868 83D200   		adcl	$0, %edx	 #, PROF_edge_counter.15
 809 086b A3700100 		movl	%eax, LPBX1+368	 # PROF_edge_counter.15, *LPBX1
 809      00
 810 0870 89157401 		movl	%edx, LPBX1+372	 # PROF_edge_counter.15, *LPBX1
 810      0000
 811 0876 C7442404 		movl	$0, 4(%esp)	 #,
 811      00000000 
 812 087e 890C24   		movl	%ecx, (%esp)	 # D.2884,
 813 0881 E8000000 		call	_chSchWakeupS	 #
 813      00
 814 0886 A1780100 		movl	LPBX1+376, %eax	 # *LPBX1, PROF_edge_counter.15
 814      00
 815 088b 8B157C01 		movl	LPBX1+380, %edx	 # *LPBX1, PROF_edge_counter.15
 815      0000
 816 0891 83C001   		addl	$1, %eax	 #, PROF_edge_counter.15
 817 0894 83D200   		adcl	$0, %edx	 #, PROF_edge_counter.15
 818 0897 A3780100 		movl	%eax, LPBX1+376	 # PROF_edge_counter.15, *LPBX1
 818      00
 819 089c 89157C01 		movl	%edx, LPBX1+380	 # PROF_edge_counter.15, *LPBX1
 819      0000
 820              	L43:
 821              		.loc 1 282 0
 822              	/APP
 823              	 # 282 "../../os/kernel/src/chsem.c" 1
 824 08a2 90       		nop
 825              	 # 0 "" 2
 826              	/NO_APP
 827 08a3 A1800100 		movl	LPBX1+384, %eax	 # *LPBX1, PROF_edge_counter.15
 827      00
 828 08a8 8B158401 		movl	LPBX1+388, %edx	 # *LPBX1, PROF_edge_counter.15
 828      0000
 829 08ae 83C001   		addl	$1, %eax	 #, PROF_edge_counter.15
 830 08b1 83D200   		adcl	$0, %edx	 #, PROF_edge_counter.15
 831 08b4 A3800100 		movl	%eax, LPBX1+384	 # PROF_edge_counter.15, *LPBX1
 831      00
 832 08b9 89158401 		movl	%edx, LPBX1+388	 # PROF_edge_counter.15, *LPBX1
 832      0000
 833              		.loc 1 283 0
 834 08bf 83C41C   		addl	$28, %esp	 #,
 835              	LCFI15:
 836              		.cfi_def_cfa_offset 4
 837 08c2 C3       		ret
 838              		.cfi_endproc
GAS LISTING C:\cygwin\tmp\ccclv1xX.s 			page 20


 839              	LFE7:
 840              		.globl	_chSemSignalI
 841              		.def	_chSemSignalI;	.scl	2;	.type	32;	.endef
 842              	_chSemSignalI:
 843              	LFB8:
 844              		.loc 1 296 0
 845              		.cfi_startproc
 846 08c3 83EC2C   		subl	$44, %esp	 #,
 847              	LCFI16:
 848              		.cfi_def_cfa_offset 48
 849              		.loc 1 300 0
 850 08c6 8B442430 		movl	48(%esp), %eax	 # sp, tmp87
 851 08ca 8B4008   		movl	8(%eax), %eax	 # sp_1(D)->s_cnt, D.2848
 852              		.loc 1 296 0
 853 08cd 85C0     		testl	%eax, %eax	 # D.2848
 854 08cf 782A     		js	L45	 #,
 855 08d1 A1F80000 		movl	LPBX1+248, %eax	 # *LPBX1, PROF_edge_counter.14
 855      00
 856 08d6 8B15FC00 		movl	LPBX1+252, %edx	 # *LPBX1, PROF_edge_counter.14
 856      0000
 857 08dc 83C001   		addl	$1, %eax	 #, PROF_edge_counter.14
 858 08df 83D200   		adcl	$0, %edx	 #, PROF_edge_counter.14
 859 08e2 A3F80000 		movl	%eax, LPBX1+248	 # PROF_edge_counter.14, *LPBX1
 859      00
 860 08e7 8915FC00 		movl	%edx, LPBX1+252	 # PROF_edge_counter.14, *LPBX1
 860      0000
 861              		.loc 1 300 0
 862 08ed 8B442430 		movl	48(%esp), %eax	 # sp, tmp88
 863 08f1 8B10     		movl	(%eax), %edx	 # sp_1(D)->s_queue.p_next, D.2850
 864 08f3 8B442430 		movl	48(%esp), %eax	 # sp, D.2851
 865 08f7 39C2     		cmpl	%eax, %edx	 # D.2851, D.2850
 866 08f9 7435     		je	L46	 #,
 867              	L45:
 868              		.loc 1 300 0 is_stmt 0 discriminator 1
 869 08fb 8B442430 		movl	48(%esp), %eax	 # sp, tmp89
 870 08ff 8B4008   		movl	8(%eax), %eax	 # sp_1(D)->s_cnt, D.2852
 871 0902 85C0     		testl	%eax, %eax	 # D.2852
 872 0904 7964     		jns	L47	 #,
 873              		.loc 1 300 0 discriminator 2
 874 0906 A1000100 		movl	LPBX1+256, %eax	 # *LPBX1, PROF_edge_counter.14
 874      00
 875 090b 8B150401 		movl	LPBX1+260, %edx	 # *LPBX1, PROF_edge_counter.14
 875      0000
 876 0911 83C001   		addl	$1, %eax	 #, PROF_edge_counter.14
 877 0914 83D200   		adcl	$0, %edx	 #, PROF_edge_counter.14
 878 0917 A3000100 		movl	%eax, LPBX1+256	 # PROF_edge_counter.14, *LPBX1
 878      00
 879 091c 89150401 		movl	%edx, LPBX1+260	 # PROF_edge_counter.14, *LPBX1
 879      0000
 880 0922 8B442430 		movl	48(%esp), %eax	 # sp, tmp90
 881 0926 8B10     		movl	(%eax), %edx	 # sp_1(D)->s_queue.p_next, D.2854
 882 0928 8B442430 		movl	48(%esp), %eax	 # sp, D.2855
 883 092c 39C2     		cmpl	%eax, %edx	 # D.2855, D.2854
 884 092e 741E     		je	L48	 #,
 885              	L46:
 886              		.loc 1 296 0 is_stmt 1
 887 0930 A1100100 		movl	LPBX1+272, %eax	 # *LPBX1, PROF_edge_counter.14
GAS LISTING C:\cygwin\tmp\ccclv1xX.s 			page 21


 887      00
 888 0935 8B151401 		movl	LPBX1+276, %edx	 # *LPBX1, PROF_edge_counter.14
 888      0000
 889 093b 83C001   		addl	$1, %eax	 #, PROF_edge_counter.14
 890 093e 83D200   		adcl	$0, %edx	 #, PROF_edge_counter.14
 891 0941 A3100100 		movl	%eax, LPBX1+272	 # PROF_edge_counter.14, *LPBX1
 891      00
 892 0946 89151401 		movl	%edx, LPBX1+276	 # PROF_edge_counter.14, *LPBX1
 892      0000
 893 094c EB38     		jmp	L49	 #
 894              	L48:
 895 094e A1080100 		movl	LPBX1+264, %eax	 # *LPBX1, PROF_edge_counter.14
 895      00
 896 0953 8B150C01 		movl	LPBX1+268, %edx	 # *LPBX1, PROF_edge_counter.14
 896      0000
 897 0959 83C001   		addl	$1, %eax	 #, PROF_edge_counter.14
 898 095c 83D200   		adcl	$0, %edx	 #, PROF_edge_counter.14
 899 095f A3080100 		movl	%eax, LPBX1+264	 # PROF_edge_counter.14, *LPBX1
 899      00
 900 0964 89150C01 		movl	%edx, LPBX1+268	 # PROF_edge_counter.14, *LPBX1
 900      0000
 901              	L47:
 902 096a A1180100 		movl	LPBX1+280, %eax	 # *LPBX1, PROF_edge_counter.14
 902      00
 903 096f 8B151C01 		movl	LPBX1+284, %edx	 # *LPBX1, PROF_edge_counter.14
 903      0000
 904 0975 83C001   		addl	$1, %eax	 #, PROF_edge_counter.14
 905 0978 83D200   		adcl	$0, %edx	 #, PROF_edge_counter.14
 906 097b A3180100 		movl	%eax, LPBX1+280	 # PROF_edge_counter.14, *LPBX1
 906      00
 907 0980 89151C01 		movl	%edx, LPBX1+284	 # PROF_edge_counter.14, *LPBX1
 907      0000
 908              	L49:
 909              		.loc 1 305 0
 910 0986 8B442430 		movl	48(%esp), %eax	 # sp, tmp91
 911 098a 8B4008   		movl	8(%eax), %eax	 # sp_1(D)->s_cnt, D.2856
 912 098d 8D5001   		leal	1(%eax), %edx	 #, D.2857
 913 0990 8B442430 		movl	48(%esp), %eax	 # sp, tmp92
 914 0994 895008   		movl	%edx, 8(%eax)	 # D.2857, sp_1(D)->s_cnt
 915 0997 8B442430 		movl	48(%esp), %eax	 # sp, tmp93
 916 099b 8B4008   		movl	8(%eax), %eax	 # sp_1(D)->s_cnt, D.2858
 917 099e 85C0     		testl	%eax, %eax	 # D.2858
 918 09a0 7F7B     		jg	L44	 #,
 919 09a2 A1200100 		movl	LPBX1+288, %eax	 # *LPBX1, PROF_edge_counter.14
 919      00
 920 09a7 8B152401 		movl	LPBX1+292, %edx	 # *LPBX1, PROF_edge_counter.14
 920      0000
 921 09ad 83C001   		addl	$1, %eax	 #, PROF_edge_counter.14
 922 09b0 83D200   		adcl	$0, %edx	 #, PROF_edge_counter.14
 923 09b3 A3200100 		movl	%eax, LPBX1+288	 # PROF_edge_counter.14, *LPBX1
 923      00
 924 09b8 89152401 		movl	%edx, LPBX1+292	 # PROF_edge_counter.14, *LPBX1
 924      0000
 925              	LBB2:
 926              		.loc 1 308 0
 927 09be 8B442430 		movl	48(%esp), %eax	 # sp, D.2861
 928 09c2 890424   		movl	%eax, (%esp)	 # D.2861,
GAS LISTING C:\cygwin\tmp\ccclv1xX.s 			page 22


 929 09c5 E8000000 		call	_fifo_remove	 #
 929      00
 930 09ca 8944241C 		movl	%eax, 28(%esp)	 # tmp94, tp
 931 09ce A1280100 		movl	LPBX1+296, %eax	 # *LPBX1, PROF_edge_counter.14
 931      00
 932 09d3 8B152C01 		movl	LPBX1+300, %edx	 # *LPBX1, PROF_edge_counter.14
 932      0000
 933 09d9 83C001   		addl	$1, %eax	 #, PROF_edge_counter.14
 934 09dc 83D200   		adcl	$0, %edx	 #, PROF_edge_counter.14
 935 09df A3280100 		movl	%eax, LPBX1+296	 # PROF_edge_counter.14, *LPBX1
 935      00
 936 09e4 89152C01 		movl	%edx, LPBX1+300	 # PROF_edge_counter.14, *LPBX1
 936      0000
 937              		.loc 1 309 0
 938 09ea 8B44241C 		movl	28(%esp), %eax	 # tp, tmp95
 939 09ee C7402400 		movl	$0, 36(%eax)	 #, tp_14->p_u.rdymsg
 939      000000
 940              		.loc 1 310 0
 941 09f5 8B44241C 		movl	28(%esp), %eax	 # tp, tmp96
 942 09f9 890424   		movl	%eax, (%esp)	 # tmp96,
 943 09fc E8000000 		call	_chSchReadyI	 #
 943      00
 944 0a01 A1300100 		movl	LPBX1+304, %eax	 # *LPBX1, PROF_edge_counter.14
 944      00
 945 0a06 8B153401 		movl	LPBX1+308, %edx	 # *LPBX1, PROF_edge_counter.14
 945      0000
 946 0a0c 83C001   		addl	$1, %eax	 #, PROF_edge_counter.14
 947 0a0f 83D200   		adcl	$0, %edx	 #, PROF_edge_counter.14
 948 0a12 A3300100 		movl	%eax, LPBX1+304	 # PROF_edge_counter.14, *LPBX1
 948      00
 949 0a17 89153401 		movl	%edx, LPBX1+308	 # PROF_edge_counter.14, *LPBX1
 949      0000
 950              	L44:
 951              	LBE2:
 952              		.loc 1 312 0
 953 0a1d 83C42C   		addl	$44, %esp	 #,
 954              	LCFI17:
 955              		.cfi_def_cfa_offset 4
 956 0a20 C3       		ret
 957              		.cfi_endproc
 958              	LFE8:
 959              		.globl	_chSemAddCounterI
 960              		.def	_chSemAddCounterI;	.scl	2;	.type	32;	.endef
 961              	_chSemAddCounterI:
 962              	LFB9:
 963              		.loc 1 327 0
 964              		.cfi_startproc
 965 0a21 83EC1C   		subl	$28, %esp	 #,
 966              	LCFI18:
 967              		.cfi_def_cfa_offset 32
 968              		.loc 1 330 0
 969 0a24 837C2420 		cmpl	$0, 32(%esp)	 #, sp
 969      00
 970 0a29 7423     		je	L52	 #,
 971              		.loc 1 330 0 is_stmt 0 discriminator 1
 972 0a2b A1A00000 		movl	LPBX1+160, %eax	 # *LPBX1, PROF_edge_counter.13
 972      00
GAS LISTING C:\cygwin\tmp\ccclv1xX.s 			page 23


 973 0a30 8B15A400 		movl	LPBX1+164, %edx	 # *LPBX1, PROF_edge_counter.13
 973      0000
 974 0a36 83C001   		addl	$1, %eax	 #, PROF_edge_counter.13
 975 0a39 83D200   		adcl	$0, %edx	 #, PROF_edge_counter.13
 976 0a3c A3A00000 		movl	%eax, LPBX1+160	 # PROF_edge_counter.13, *LPBX1
 976      00
 977 0a41 8915A400 		movl	%edx, LPBX1+164	 # PROF_edge_counter.13, *LPBX1
 977      0000
 978 0a47 837C2424 		cmpl	$0, 36(%esp)	 #, n
 978      00
 979 0a4c 7F1C     		jg	L53	 #,
 980              	L52:
 981              		.loc 1 330 0 discriminator 2
 982 0a4e A1A80000 		movl	LPBX1+168, %eax	 # *LPBX1, PROF_edge_counter.13
 982      00
 983 0a53 8B15AC00 		movl	LPBX1+172, %edx	 # *LPBX1, PROF_edge_counter.13
 983      0000
 984 0a59 83C001   		addl	$1, %eax	 #, PROF_edge_counter.13
 985 0a5c 83D200   		adcl	$0, %edx	 #, PROF_edge_counter.13
 986 0a5f A3A80000 		movl	%eax, LPBX1+168	 # PROF_edge_counter.13, *LPBX1
 986      00
 987 0a64 8915AC00 		movl	%edx, LPBX1+172	 # PROF_edge_counter.13, *LPBX1
 987      0000
 988              	L53:
 989              		.loc 1 331 0 is_stmt 1
 990 0a6a 8B442420 		movl	32(%esp), %eax	 # sp, tmp97
 991 0a6e 8B4008   		movl	8(%eax), %eax	 # sp_2(D)->s_cnt, D.2824
 992              		.loc 1 327 0
 993 0a71 85C0     		testl	%eax, %eax	 # D.2824
 994 0a73 782E     		js	L54	 #,
 995 0a75 A1B00000 		movl	LPBX1+176, %eax	 # *LPBX1, PROF_edge_counter.13
 995      00
 996 0a7a 8B15B400 		movl	LPBX1+180, %edx	 # *LPBX1, PROF_edge_counter.13
 996      0000
 997 0a80 83C001   		addl	$1, %eax	 #, PROF_edge_counter.13
 998 0a83 83D200   		adcl	$0, %edx	 #, PROF_edge_counter.13
 999 0a86 A3B00000 		movl	%eax, LPBX1+176	 # PROF_edge_counter.13, *LPBX1
 999      00
 1000 0a8b 8915B400 		movl	%edx, LPBX1+180	 # PROF_edge_counter.13, *LPBX1
 1000      0000
 1001              		.loc 1 331 0
 1002 0a91 8B442420 		movl	32(%esp), %eax	 # sp, tmp98
 1003 0a95 8B10     		movl	(%eax), %edx	 # sp_2(D)->s_queue.p_next, D.2826
 1004 0a97 8B442420 		movl	32(%esp), %eax	 # sp, D.2827
 1005 0a9b 39C2     		cmpl	%eax, %edx	 # D.2827, D.2826
 1006 0a9d 0F842301 		je	L59	 #,
 1006      0000
 1007              	L54:
 1008              		.loc 1 331 0 is_stmt 0 discriminator 1
 1009 0aa3 8B442420 		movl	32(%esp), %eax	 # sp, tmp99
 1010 0aa7 8B4008   		movl	8(%eax), %eax	 # sp_2(D)->s_cnt, D.2828
 1011 0aaa 85C0     		testl	%eax, %eax	 # D.2828
 1012 0aac 794A     		jns	L56	 #,
 1013              		.loc 1 331 0 discriminator 2
 1014 0aae A1B80000 		movl	LPBX1+184, %eax	 # *LPBX1, PROF_edge_counter.13
 1014      00
 1015 0ab3 8B15BC00 		movl	LPBX1+188, %edx	 # *LPBX1, PROF_edge_counter.13
GAS LISTING C:\cygwin\tmp\ccclv1xX.s 			page 24


 1015      0000
 1016 0ab9 83C001   		addl	$1, %eax	 #, PROF_edge_counter.13
 1017 0abc 83D200   		adcl	$0, %edx	 #, PROF_edge_counter.13
 1018 0abf A3B80000 		movl	%eax, LPBX1+184	 # PROF_edge_counter.13, *LPBX1
 1018      00
 1019 0ac4 8915BC00 		movl	%edx, LPBX1+188	 # PROF_edge_counter.13, *LPBX1
 1019      0000
 1020 0aca 8B442420 		movl	32(%esp), %eax	 # sp, tmp100
 1021 0ace 8B10     		movl	(%eax), %edx	 # sp_2(D)->s_queue.p_next, D.2830
 1022 0ad0 8B442420 		movl	32(%esp), %eax	 # sp, D.2831
 1023 0ad4 39C2     		cmpl	%eax, %edx	 # D.2831, D.2830
 1024 0ad6 0F85EA00 		jne	L59	 #,
 1024      0000
 1025              	L57:
 1026              		.loc 1 327 0 is_stmt 1
 1027 0adc A1C00000 		movl	LPBX1+192, %eax	 # *LPBX1, PROF_edge_counter.13
 1027      00
 1028 0ae1 8B15C400 		movl	LPBX1+196, %edx	 # *LPBX1, PROF_edge_counter.13
 1028      0000
 1029 0ae7 83C001   		addl	$1, %eax	 #, PROF_edge_counter.13
 1030 0aea 83D200   		adcl	$0, %edx	 #, PROF_edge_counter.13
 1031 0aed A3C00000 		movl	%eax, LPBX1+192	 # PROF_edge_counter.13, *LPBX1
 1031      00
 1032 0af2 8915C400 		movl	%edx, LPBX1+196	 # PROF_edge_counter.13, *LPBX1
 1032      0000
 1033              	L56:
 1034 0af8 A1C80000 		movl	LPBX1+200, %eax	 # *LPBX1, PROF_edge_counter.13
 1034      00
 1035 0afd 8B15CC00 		movl	LPBX1+204, %edx	 # *LPBX1, PROF_edge_counter.13
 1035      0000
 1036 0b03 83C001   		addl	$1, %eax	 #, PROF_edge_counter.13
 1037 0b06 83D200   		adcl	$0, %edx	 #, PROF_edge_counter.13
 1038 0b09 A3C80000 		movl	%eax, LPBX1+200	 # PROF_edge_counter.13, *LPBX1
 1038      00
 1039 0b0e 8915CC00 		movl	%edx, LPBX1+204	 # PROF_edge_counter.13, *LPBX1
 1039      0000
 1040              		.loc 1 336 0
 1041 0b14 E9AD0000 		jmp	L59	 #
 1041      00
 1042              	L61:
 1043 0b19 A1E80000 		movl	LPBX1+232, %eax	 # *LPBX1, PROF_edge_counter.13
 1043      00
 1044 0b1e 8B15EC00 		movl	LPBX1+236, %edx	 # *LPBX1, PROF_edge_counter.13
 1044      0000
 1045 0b24 83C001   		addl	$1, %eax	 #, PROF_edge_counter.13
 1046 0b27 83D200   		adcl	$0, %edx	 #, PROF_edge_counter.13
 1047 0b2a A3E80000 		movl	%eax, LPBX1+232	 # PROF_edge_counter.13, *LPBX1
 1047      00
 1048 0b2f 8915EC00 		movl	%edx, LPBX1+236	 # PROF_edge_counter.13, *LPBX1
 1048      0000
 1049              		.loc 1 337 0
 1050 0b35 8B442420 		movl	32(%esp), %eax	 # sp, tmp101
 1051 0b39 8B4008   		movl	8(%eax), %eax	 # sp_2(D)->s_cnt, D.2832
 1052 0b3c 8D5001   		leal	1(%eax), %edx	 #, D.2833
 1053 0b3f 8B442420 		movl	32(%esp), %eax	 # sp, tmp102
 1054 0b43 895008   		movl	%edx, 8(%eax)	 # D.2833, sp_2(D)->s_cnt
 1055 0b46 8B442420 		movl	32(%esp), %eax	 # sp, tmp103
GAS LISTING C:\cygwin\tmp\ccclv1xX.s 			page 25


 1056 0b4a 8B4008   		movl	8(%eax), %eax	 # sp_2(D)->s_cnt, D.2834
 1057 0b4d 85C0     		testl	%eax, %eax	 # D.2834
 1058 0b4f 7F55     		jg	L60	 #,
 1059              		.loc 1 338 0
 1060 0b51 8B442420 		movl	32(%esp), %eax	 # sp, D.2837
 1061 0b55 890424   		movl	%eax, (%esp)	 # D.2837,
 1062 0b58 E8000000 		call	_fifo_remove	 #
 1062      00
 1063 0b5d 89C1     		movl	%eax, %ecx	 #, D.2838
 1064 0b5f A1D00000 		movl	LPBX1+208, %eax	 # *LPBX1, PROF_edge_counter.13
 1064      00
 1065 0b64 8B15D400 		movl	LPBX1+212, %edx	 # *LPBX1, PROF_edge_counter.13
 1065      0000
 1066 0b6a 83C001   		addl	$1, %eax	 #, PROF_edge_counter.13
 1067 0b6d 83D200   		adcl	$0, %edx	 #, PROF_edge_counter.13
 1068 0b70 A3D00000 		movl	%eax, LPBX1+208	 # PROF_edge_counter.13, *LPBX1
 1068      00
 1069 0b75 8915D400 		movl	%edx, LPBX1+212	 # PROF_edge_counter.13, *LPBX1
 1069      0000
 1070 0b7b 890C24   		movl	%ecx, (%esp)	 # D.2838,
 1071 0b7e E8000000 		call	_chSchReadyI	 #
 1071      00
 1072 0b83 C7402400 		movl	$0, 36(%eax)	 #, D.2839_19->p_u.rdymsg
 1072      000000
 1073 0b8a A1D80000 		movl	LPBX1+216, %eax	 # *LPBX1, PROF_edge_counter.13
 1073      00
 1074 0b8f 8B15DC00 		movl	LPBX1+220, %edx	 # *LPBX1, PROF_edge_counter.13
 1074      0000
 1075 0b95 83C001   		addl	$1, %eax	 #, PROF_edge_counter.13
 1076 0b98 83D200   		adcl	$0, %edx	 #, PROF_edge_counter.13
 1077 0b9b A3D80000 		movl	%eax, LPBX1+216	 # PROF_edge_counter.13, *LPBX1
 1077      00
 1078 0ba0 8915DC00 		movl	%edx, LPBX1+220	 # PROF_edge_counter.13, *LPBX1
 1078      0000
 1079              	L60:
 1080              		.loc 1 339 0
 1081 0ba6 FF4C2424 		decl	36(%esp)	 # n
 1082 0baa A1E00000 		movl	LPBX1+224, %eax	 # *LPBX1, PROF_edge_counter.13
 1082      00
 1083 0baf 8B15E400 		movl	LPBX1+228, %edx	 # *LPBX1, PROF_edge_counter.13
 1083      0000
 1084 0bb5 83C001   		addl	$1, %eax	 #, PROF_edge_counter.13
 1085 0bb8 83D200   		adcl	$0, %edx	 #, PROF_edge_counter.13
 1086 0bbb A3E00000 		movl	%eax, LPBX1+224	 # PROF_edge_counter.13, *LPBX1
 1086      00
 1087 0bc0 8915E400 		movl	%edx, LPBX1+228	 # PROF_edge_counter.13, *LPBX1
 1087      0000
 1088              	L59:
 1089              		.loc 1 336 0 discriminator 1
 1090 0bc6 837C2424 		cmpl	$0, 36(%esp)	 #, n
 1090      00
 1091 0bcb 0F8F48FF 		jg	L61	 #,
 1091      FFFF
 1092              		.loc 1 336 0 is_stmt 0
 1093 0bd1 A1F00000 		movl	LPBX1+240, %eax	 # *LPBX1, PROF_edge_counter.13
 1093      00
 1094 0bd6 8B15F400 		movl	LPBX1+244, %edx	 # *LPBX1, PROF_edge_counter.13
GAS LISTING C:\cygwin\tmp\ccclv1xX.s 			page 26


 1094      0000
 1095 0bdc 83C001   		addl	$1, %eax	 #, PROF_edge_counter.13
 1096 0bdf 83D200   		adcl	$0, %edx	 #, PROF_edge_counter.13
 1097 0be2 A3F00000 		movl	%eax, LPBX1+240	 # PROF_edge_counter.13, *LPBX1
 1097      00
 1098 0be7 8915F400 		movl	%edx, LPBX1+244	 # PROF_edge_counter.13, *LPBX1
 1098      0000
 1099              		.loc 1 341 0 is_stmt 1
 1100 0bed 83C41C   		addl	$28, %esp	 #,
 1101              	LCFI19:
 1102              		.cfi_def_cfa_offset 4
 1103 0bf0 C3       		ret
 1104              		.cfi_endproc
 1105              	LFE9:
 1106              		.globl	_chSemSignalWait
 1107              		.def	_chSemSignalWait;	.scl	2;	.type	32;	.endef
 1108              	_chSemSignalWait:
 1109              	LFB10:
 1110              		.loc 1 359 0
 1111              		.cfi_startproc
 1112 0bf1 83EC2C   		subl	$44, %esp	 #,
 1113              	LCFI20:
 1114              		.cfi_def_cfa_offset 48
 1115              		.loc 1 362 0
 1116 0bf4 837C2430 		cmpl	$0, 48(%esp)	 #, sps
 1116      00
 1117 0bf9 7423     		je	L63	 #,
 1118              		.loc 1 362 0 is_stmt 0 discriminator 1
 1119 0bfb A1000000 		movl	LPBX1, %eax	 # *LPBX1, PROF_edge_counter.12
 1119      00
 1120 0c00 8B150400 		movl	LPBX1+4, %edx	 # *LPBX1, PROF_edge_counter.12
 1120      0000
 1121 0c06 83C001   		addl	$1, %eax	 #, PROF_edge_counter.12
 1122 0c09 83D200   		adcl	$0, %edx	 #, PROF_edge_counter.12
 1123 0c0c A3000000 		movl	%eax, LPBX1	 # PROF_edge_counter.12, *LPBX1
 1123      00
 1124 0c11 89150400 		movl	%edx, LPBX1+4	 # PROF_edge_counter.12, *LPBX1
 1124      0000
 1125 0c17 837C2434 		cmpl	$0, 52(%esp)	 #, spw
 1125      00
 1126 0c1c 751C     		jne	L64	 #,
 1127              	L63:
 1128              		.loc 1 362 0 discriminator 2
 1129 0c1e A1080000 		movl	LPBX1+8, %eax	 # *LPBX1, PROF_edge_counter.12
 1129      00
 1130 0c23 8B150C00 		movl	LPBX1+12, %edx	 # *LPBX1, PROF_edge_counter.12
 1130      0000
 1131 0c29 83C001   		addl	$1, %eax	 #, PROF_edge_counter.12
 1132 0c2c 83D200   		adcl	$0, %edx	 #, PROF_edge_counter.12
 1133 0c2f A3080000 		movl	%eax, LPBX1+8	 # PROF_edge_counter.12, *LPBX1
 1133      00
 1134 0c34 89150C00 		movl	%edx, LPBX1+12	 # PROF_edge_counter.12, *LPBX1
 1134      0000
 1135              	L64:
 1136              		.loc 1 363 0 is_stmt 1
 1137 0c3a 8B442430 		movl	48(%esp), %eax	 # sps, tmp129
 1138 0c3e 8B4008   		movl	8(%eax), %eax	 # sps_2(D)->s_cnt, D.2776
GAS LISTING C:\cygwin\tmp\ccclv1xX.s 			page 27


 1139              		.loc 1 359 0
 1140 0c41 85C0     		testl	%eax, %eax	 # D.2776
 1141 0c43 782A     		js	L65	 #,
 1142 0c45 A1100000 		movl	LPBX1+16, %eax	 # *LPBX1, PROF_edge_counter.12
 1142      00
 1143 0c4a 8B151400 		movl	LPBX1+20, %edx	 # *LPBX1, PROF_edge_counter.12
 1143      0000
 1144 0c50 83C001   		addl	$1, %eax	 #, PROF_edge_counter.12
 1145 0c53 83D200   		adcl	$0, %edx	 #, PROF_edge_counter.12
 1146 0c56 A3100000 		movl	%eax, LPBX1+16	 # PROF_edge_counter.12, *LPBX1
 1146      00
 1147 0c5b 89151400 		movl	%edx, LPBX1+20	 # PROF_edge_counter.12, *LPBX1
 1147      0000
 1148              		.loc 1 363 0
 1149 0c61 8B442430 		movl	48(%esp), %eax	 # sps, tmp130
 1150 0c65 8B10     		movl	(%eax), %edx	 # sps_2(D)->s_queue.p_next, D.2778
 1151 0c67 8B442430 		movl	48(%esp), %eax	 # sps, D.2779
 1152 0c6b 39C2     		cmpl	%eax, %edx	 # D.2779, D.2778
 1153 0c6d 746F     		je	L78	 #,
 1154              	L65:
 1155              		.loc 1 363 0 is_stmt 0 discriminator 1
 1156 0c6f 8B442430 		movl	48(%esp), %eax	 # sps, tmp131
 1157 0c73 8B4008   		movl	8(%eax), %eax	 # sps_2(D)->s_cnt, D.2780
 1158 0c76 85C0     		testl	%eax, %eax	 # D.2780
 1159 0c78 7946     		jns	L67	 #,
 1160              		.loc 1 363 0 discriminator 2
 1161 0c7a A1180000 		movl	LPBX1+24, %eax	 # *LPBX1, PROF_edge_counter.12
 1161      00
 1162 0c7f 8B151C00 		movl	LPBX1+28, %edx	 # *LPBX1, PROF_edge_counter.12
 1162      0000
 1163 0c85 83C001   		addl	$1, %eax	 #, PROF_edge_counter.12
 1164 0c88 83D200   		adcl	$0, %edx	 #, PROF_edge_counter.12
 1165 0c8b A3180000 		movl	%eax, LPBX1+24	 # PROF_edge_counter.12, *LPBX1
 1165      00
 1166 0c90 89151C00 		movl	%edx, LPBX1+28	 # PROF_edge_counter.12, *LPBX1
 1166      0000
 1167 0c96 8B442430 		movl	48(%esp), %eax	 # sps, tmp132
 1168 0c9a 8B10     		movl	(%eax), %edx	 # sps_2(D)->s_queue.p_next, D.2782
 1169 0c9c 8B442430 		movl	48(%esp), %eax	 # sps, D.2783
 1170 0ca0 39C2     		cmpl	%eax, %edx	 # D.2783, D.2782
 1171 0ca2 753A     		jne	L78	 #,
 1172              	L68:
 1173              		.loc 1 359 0 is_stmt 1
 1174 0ca4 A1200000 		movl	LPBX1+32, %eax	 # *LPBX1, PROF_edge_counter.12
 1174      00
 1175 0ca9 8B152400 		movl	LPBX1+36, %edx	 # *LPBX1, PROF_edge_counter.12
 1175      0000
 1176 0caf 83C001   		addl	$1, %eax	 #, PROF_edge_counter.12
 1177 0cb2 83D200   		adcl	$0, %edx	 #, PROF_edge_counter.12
 1178 0cb5 A3200000 		movl	%eax, LPBX1+32	 # PROF_edge_counter.12, *LPBX1
 1178      00
 1179 0cba 89152400 		movl	%edx, LPBX1+36	 # PROF_edge_counter.12, *LPBX1
 1179      0000
 1180              	L67:
 1181 0cc0 A1280000 		movl	LPBX1+40, %eax	 # *LPBX1, PROF_edge_counter.12
 1181      00
 1182 0cc5 8B152C00 		movl	LPBX1+44, %edx	 # *LPBX1, PROF_edge_counter.12
GAS LISTING C:\cygwin\tmp\ccclv1xX.s 			page 28


 1182      0000
 1183 0ccb 83C001   		addl	$1, %eax	 #, PROF_edge_counter.12
 1184 0cce 83D200   		adcl	$0, %edx	 #, PROF_edge_counter.12
 1185 0cd1 A3280000 		movl	%eax, LPBX1+40	 # PROF_edge_counter.12, *LPBX1
 1185      00
 1186 0cd6 89152C00 		movl	%edx, LPBX1+44	 # PROF_edge_counter.12, *LPBX1
 1186      0000
 1187 0cdc EB01     		jmp	L69	 #
 1188              	L78:
 1189 0cde 90       		nop
 1190              	L69:
 1191              		.loc 1 367 0 discriminator 1
 1192 0cdf 8B442434 		movl	52(%esp), %eax	 # spw, tmp133
 1193 0ce3 8B4008   		movl	8(%eax), %eax	 # spw_3(D)->s_cnt, D.2789
 1194              		.loc 1 359 0 discriminator 1
 1195 0ce6 85C0     		testl	%eax, %eax	 # D.2789
 1196 0ce8 782A     		js	L70	 #,
 1197              		.loc 1 359 0 is_stmt 0
 1198 0cea A1300000 		movl	LPBX1+48, %eax	 # *LPBX1, PROF_edge_counter.12
 1198      00
 1199 0cef 8B153400 		movl	LPBX1+52, %edx	 # *LPBX1, PROF_edge_counter.12
 1199      0000
 1200 0cf5 83C001   		addl	$1, %eax	 #, PROF_edge_counter.12
 1201 0cf8 83D200   		adcl	$0, %edx	 #, PROF_edge_counter.12
 1202 0cfb A3300000 		movl	%eax, LPBX1+48	 # PROF_edge_counter.12, *LPBX1
 1202      00
 1203 0d00 89153400 		movl	%edx, LPBX1+52	 # PROF_edge_counter.12, *LPBX1
 1203      0000
 1204              		.loc 1 367 0 is_stmt 1
 1205 0d06 8B442434 		movl	52(%esp), %eax	 # spw, tmp134
 1206 0d0a 8B10     		movl	(%eax), %edx	 # spw_3(D)->s_queue.p_next, D.2791
 1207 0d0c 8B442434 		movl	52(%esp), %eax	 # spw, D.2792
 1208 0d10 39C2     		cmpl	%eax, %edx	 # D.2792, D.2791
 1209 0d12 7435     		je	L71	 #,
 1210              	L70:
 1211              		.loc 1 367 0 is_stmt 0 discriminator 1
 1212 0d14 8B442434 		movl	52(%esp), %eax	 # spw, tmp135
 1213 0d18 8B4008   		movl	8(%eax), %eax	 # spw_3(D)->s_cnt, D.2793
 1214 0d1b 85C0     		testl	%eax, %eax	 # D.2793
 1215 0d1d 7964     		jns	L72	 #,
 1216              		.loc 1 367 0 discriminator 2
 1217 0d1f A1380000 		movl	LPBX1+56, %eax	 # *LPBX1, PROF_edge_counter.12
 1217      00
 1218 0d24 8B153C00 		movl	LPBX1+60, %edx	 # *LPBX1, PROF_edge_counter.12
 1218      0000
 1219 0d2a 83C001   		addl	$1, %eax	 #, PROF_edge_counter.12
 1220 0d2d 83D200   		adcl	$0, %edx	 #, PROF_edge_counter.12
 1221 0d30 A3380000 		movl	%eax, LPBX1+56	 # PROF_edge_counter.12, *LPBX1
 1221      00
 1222 0d35 89153C00 		movl	%edx, LPBX1+60	 # PROF_edge_counter.12, *LPBX1
 1222      0000
 1223 0d3b 8B442434 		movl	52(%esp), %eax	 # spw, tmp136
 1224 0d3f 8B10     		movl	(%eax), %edx	 # spw_3(D)->s_queue.p_next, D.2795
 1225 0d41 8B442434 		movl	52(%esp), %eax	 # spw, D.2796
 1226 0d45 39C2     		cmpl	%eax, %edx	 # D.2796, D.2795
 1227 0d47 741E     		je	L73	 #,
 1228              	L71:
GAS LISTING C:\cygwin\tmp\ccclv1xX.s 			page 29


 1229              		.loc 1 359 0 is_stmt 1
 1230 0d49 A1480000 		movl	LPBX1+72, %eax	 # *LPBX1, PROF_edge_counter.12
 1230      00
 1231 0d4e 8B154C00 		movl	LPBX1+76, %edx	 # *LPBX1, PROF_edge_counter.12
 1231      0000
 1232 0d54 83C001   		addl	$1, %eax	 #, PROF_edge_counter.12
 1233 0d57 83D200   		adcl	$0, %edx	 #, PROF_edge_counter.12
 1234 0d5a A3480000 		movl	%eax, LPBX1+72	 # PROF_edge_counter.12, *LPBX1
 1234      00
 1235 0d5f 89154C00 		movl	%edx, LPBX1+76	 # PROF_edge_counter.12, *LPBX1
 1235      0000
 1236 0d65 EB38     		jmp	L74	 #
 1237              	L73:
 1238 0d67 A1400000 		movl	LPBX1+64, %eax	 # *LPBX1, PROF_edge_counter.12
 1238      00
 1239 0d6c 8B154400 		movl	LPBX1+68, %edx	 # *LPBX1, PROF_edge_counter.12
 1239      0000
 1240 0d72 83C001   		addl	$1, %eax	 #, PROF_edge_counter.12
 1241 0d75 83D200   		adcl	$0, %edx	 #, PROF_edge_counter.12
 1242 0d78 A3400000 		movl	%eax, LPBX1+64	 # PROF_edge_counter.12, *LPBX1
 1242      00
 1243 0d7d 89154400 		movl	%edx, LPBX1+68	 # PROF_edge_counter.12, *LPBX1
 1243      0000
 1244              	L72:
 1245 0d83 A1500000 		movl	LPBX1+80, %eax	 # *LPBX1, PROF_edge_counter.12
 1245      00
 1246 0d88 8B155400 		movl	LPBX1+84, %edx	 # *LPBX1, PROF_edge_counter.12
 1246      0000
 1247 0d8e 83C001   		addl	$1, %eax	 #, PROF_edge_counter.12
 1248 0d91 83D200   		adcl	$0, %edx	 #, PROF_edge_counter.12
 1249 0d94 A3500000 		movl	%eax, LPBX1+80	 # PROF_edge_counter.12, *LPBX1
 1249      00
 1250 0d99 89155400 		movl	%edx, LPBX1+84	 # PROF_edge_counter.12, *LPBX1
 1250      0000
 1251              	L74:
 1252              		.loc 1 372 0
 1253              	/APP
 1254              	 # 372 "../../os/kernel/src/chsem.c" 1
 1255 0d9f 90       		nop
 1256              	 # 0 "" 2
 1257              		.loc 1 373 0
 1258              	/NO_APP
 1259 0da0 8B442430 		movl	48(%esp), %eax	 # sps, tmp137
 1260 0da4 8B4008   		movl	8(%eax), %eax	 # sps_2(D)->s_cnt, D.2797
 1261 0da7 8D5001   		leal	1(%eax), %edx	 #, D.2798
 1262 0daa 8B442430 		movl	48(%esp), %eax	 # sps, tmp138
 1263 0dae 895008   		movl	%edx, 8(%eax)	 # D.2798, sps_2(D)->s_cnt
 1264 0db1 8B442430 		movl	48(%esp), %eax	 # sps, tmp139
 1265 0db5 8B4008   		movl	8(%eax), %eax	 # sps_2(D)->s_cnt, D.2799
 1266 0db8 85C0     		testl	%eax, %eax	 # D.2799
 1267 0dba 7F71     		jg	L75	 #,
 1268 0dbc A1580000 		movl	LPBX1+88, %eax	 # *LPBX1, PROF_edge_counter.12
 1268      00
 1269 0dc1 8B155C00 		movl	LPBX1+92, %edx	 # *LPBX1, PROF_edge_counter.12
 1269      0000
 1270 0dc7 83C001   		addl	$1, %eax	 #, PROF_edge_counter.12
 1271 0dca 83D200   		adcl	$0, %edx	 #, PROF_edge_counter.12
GAS LISTING C:\cygwin\tmp\ccclv1xX.s 			page 30


 1272 0dcd A3580000 		movl	%eax, LPBX1+88	 # PROF_edge_counter.12, *LPBX1
 1272      00
 1273 0dd2 89155C00 		movl	%edx, LPBX1+92	 # PROF_edge_counter.12, *LPBX1
 1273      0000
 1274              		.loc 1 374 0
 1275 0dd8 8B442430 		movl	48(%esp), %eax	 # sps, D.2802
 1276 0ddc 890424   		movl	%eax, (%esp)	 # D.2802,
 1277 0ddf E8000000 		call	_fifo_remove	 #
 1277      00
 1278 0de4 89C1     		movl	%eax, %ecx	 #, D.2803
 1279 0de6 A1600000 		movl	LPBX1+96, %eax	 # *LPBX1, PROF_edge_counter.12
 1279      00
 1280 0deb 8B156400 		movl	LPBX1+100, %edx	 # *LPBX1, PROF_edge_counter.12
 1280      0000
 1281 0df1 83C001   		addl	$1, %eax	 #, PROF_edge_counter.12
 1282 0df4 83D200   		adcl	$0, %edx	 #, PROF_edge_counter.12
 1283 0df7 A3600000 		movl	%eax, LPBX1+96	 # PROF_edge_counter.12, *LPBX1
 1283      00
 1284 0dfc 89156400 		movl	%edx, LPBX1+100	 # PROF_edge_counter.12, *LPBX1
 1284      0000
 1285 0e02 890C24   		movl	%ecx, (%esp)	 # D.2803,
 1286 0e05 E8000000 		call	_chSchReadyI	 #
 1286      00
 1287 0e0a C7402400 		movl	$0, 36(%eax)	 #, D.2804_27->p_u.rdymsg
 1287      000000
 1288 0e11 A1680000 		movl	LPBX1+104, %eax	 # *LPBX1, PROF_edge_counter.12
 1288      00
 1289 0e16 8B156C00 		movl	LPBX1+108, %edx	 # *LPBX1, PROF_edge_counter.12
 1289      0000
 1290 0e1c 83C001   		addl	$1, %eax	 #, PROF_edge_counter.12
 1291 0e1f 83D200   		adcl	$0, %edx	 #, PROF_edge_counter.12
 1292 0e22 A3680000 		movl	%eax, LPBX1+104	 # PROF_edge_counter.12, *LPBX1
 1292      00
 1293 0e27 89156C00 		movl	%edx, LPBX1+108	 # PROF_edge_counter.12, *LPBX1
 1293      0000
 1294              	L75:
 1295              		.loc 1 375 0
 1296 0e2d 8B442434 		movl	52(%esp), %eax	 # spw, tmp140
 1297 0e31 8B4008   		movl	8(%eax), %eax	 # spw_3(D)->s_cnt, D.2805
 1298 0e34 8D50FF   		leal	-1(%eax), %edx	 #, D.2806
 1299 0e37 8B442434 		movl	52(%esp), %eax	 # spw, tmp141
 1300 0e3b 895008   		movl	%edx, 8(%eax)	 # D.2806, spw_3(D)->s_cnt
 1301 0e3e 8B442434 		movl	52(%esp), %eax	 # spw, tmp142
 1302 0e42 8B4008   		movl	8(%eax), %eax	 # spw_3(D)->s_cnt, D.2807
 1303 0e45 85C0     		testl	%eax, %eax	 # D.2807
 1304 0e47 0F899500 		jns	L76	 #,
 1304      0000
 1305 0e4d A1700000 		movl	LPBX1+112, %eax	 # *LPBX1, PROF_edge_counter.12
 1305      00
 1306 0e52 8B157400 		movl	LPBX1+116, %edx	 # *LPBX1, PROF_edge_counter.12
 1306      0000
 1307 0e58 83C001   		addl	$1, %eax	 #, PROF_edge_counter.12
 1308 0e5b 83D200   		adcl	$0, %edx	 #, PROF_edge_counter.12
 1309 0e5e A3700000 		movl	%eax, LPBX1+112	 # PROF_edge_counter.12, *LPBX1
 1309      00
 1310 0e63 89157400 		movl	%edx, LPBX1+116	 # PROF_edge_counter.12, *LPBX1
 1310      0000
GAS LISTING C:\cygwin\tmp\ccclv1xX.s 			page 31


 1311              	LBB3:
 1312              		.loc 1 376 0
 1313 0e69 A1180000 		movl	_rlist+24, %eax	 # rlist.r_current, tmp143
 1313      00
 1314 0e6e 89442418 		movl	%eax, 24(%esp)	 # tmp143, ctp
 1315              		.loc 1 377 0
 1316 0e72 8B442434 		movl	52(%esp), %eax	 # spw, D.2810
 1317 0e76 89442404 		movl	%eax, 4(%esp)	 # D.2810,
 1318 0e7a 8B442418 		movl	24(%esp), %eax	 # ctp, tmp144
 1319 0e7e 890424   		movl	%eax, (%esp)	 # tmp144,
 1320 0e81 E8000000 		call	_queue_insert	 #
 1320      00
 1321 0e86 A1800000 		movl	LPBX1+128, %eax	 # *LPBX1, PROF_edge_counter.12
 1321      00
 1322 0e8b 8B158400 		movl	LPBX1+132, %edx	 # *LPBX1, PROF_edge_counter.12
 1322      0000
 1323 0e91 83C001   		addl	$1, %eax	 #, PROF_edge_counter.12
 1324 0e94 83D200   		adcl	$0, %edx	 #, PROF_edge_counter.12
 1325 0e97 A3800000 		movl	%eax, LPBX1+128	 # PROF_edge_counter.12, *LPBX1
 1325      00
 1326 0e9c 89158400 		movl	%edx, LPBX1+132	 # PROF_edge_counter.12, *LPBX1
 1326      0000
 1327              		.loc 1 378 0
 1328 0ea2 8B442418 		movl	24(%esp), %eax	 # ctp, tmp145
 1329 0ea6 8B542434 		movl	52(%esp), %edx	 # spw, tmp146
 1330 0eaa 895024   		movl	%edx, 36(%eax)	 # tmp146, ctp_31->p_u.wtobjp
 1331              		.loc 1 379 0
 1332 0ead C7042403 		movl	$3, (%esp)	 #,
 1332      000000
 1333 0eb4 E8000000 		call	_chSchGoSleepS	 #
 1333      00
 1334              		.loc 1 380 0
 1335 0eb9 8B442418 		movl	24(%esp), %eax	 # ctp, tmp147
 1336 0ebd 8B4024   		movl	36(%eax), %eax	 # ctp_31->p_u.rdymsg, tmp148
 1337 0ec0 8944241C 		movl	%eax, 28(%esp)	 # tmp148, msg
 1338 0ec4 A1880000 		movl	LPBX1+136, %eax	 # *LPBX1, PROF_edge_counter.12
 1338      00
 1339 0ec9 8B158C00 		movl	LPBX1+140, %edx	 # *LPBX1, PROF_edge_counter.12
 1339      0000
 1340 0ecf 83C001   		addl	$1, %eax	 #, PROF_edge_counter.12
 1341 0ed2 83D200   		adcl	$0, %edx	 #, PROF_edge_counter.12
 1342 0ed5 A3880000 		movl	%eax, LPBX1+136	 # PROF_edge_counter.12, *LPBX1
 1342      00
 1343 0eda 89158C00 		movl	%edx, LPBX1+140	 # PROF_edge_counter.12, *LPBX1
 1343      0000
 1344 0ee0 EB45     		jmp	L77	 #
 1345              	L76:
 1346 0ee2 A1780000 		movl	LPBX1+120, %eax	 # *LPBX1, PROF_edge_counter.12
 1346      00
 1347 0ee7 8B157C00 		movl	LPBX1+124, %edx	 # *LPBX1, PROF_edge_counter.12
 1347      0000
 1348 0eed 83C001   		addl	$1, %eax	 #, PROF_edge_counter.12
 1349 0ef0 83D200   		adcl	$0, %edx	 #, PROF_edge_counter.12
 1350 0ef3 A3780000 		movl	%eax, LPBX1+120	 # PROF_edge_counter.12, *LPBX1
 1350      00
 1351 0ef8 89157C00 		movl	%edx, LPBX1+124	 # PROF_edge_counter.12, *LPBX1
 1351      0000
GAS LISTING C:\cygwin\tmp\ccclv1xX.s 			page 32


 1352              	LBE3:
 1353              		.loc 1 383 0
 1354 0efe E8000000 		call	_chSchRescheduleS	 #
 1354      00
 1355              		.loc 1 384 0
 1356 0f03 C744241C 		movl	$0, 28(%esp)	 #, msg
 1356      00000000 
 1357 0f0b A1900000 		movl	LPBX1+144, %eax	 # *LPBX1, PROF_edge_counter.12
 1357      00
 1358 0f10 8B159400 		movl	LPBX1+148, %edx	 # *LPBX1, PROF_edge_counter.12
 1358      0000
 1359 0f16 83C001   		addl	$1, %eax	 #, PROF_edge_counter.12
 1360 0f19 83D200   		adcl	$0, %edx	 #, PROF_edge_counter.12
 1361 0f1c A3900000 		movl	%eax, LPBX1+144	 # PROF_edge_counter.12, *LPBX1
 1361      00
 1362 0f21 89159400 		movl	%edx, LPBX1+148	 # PROF_edge_counter.12, *LPBX1
 1362      0000
 1363              	L77:
 1364              		.loc 1 386 0
 1365              	/APP
 1366              	 # 386 "../../os/kernel/src/chsem.c" 1
 1367 0f27 90       		nop
 1368              	 # 0 "" 2
 1369              	/NO_APP
 1370 0f28 A1980000 		movl	LPBX1+152, %eax	 # *LPBX1, PROF_edge_counter.12
 1370      00
 1371 0f2d 8B159C00 		movl	LPBX1+156, %edx	 # *LPBX1, PROF_edge_counter.12
 1371      0000
 1372 0f33 83C001   		addl	$1, %eax	 #, PROF_edge_counter.12
 1373 0f36 83D200   		adcl	$0, %edx	 #, PROF_edge_counter.12
 1374 0f39 A3980000 		movl	%eax, LPBX1+152	 # PROF_edge_counter.12, *LPBX1
 1374      00
 1375 0f3e 89159C00 		movl	%edx, LPBX1+156	 # PROF_edge_counter.12, *LPBX1
 1375      0000
 1376              		.loc 1 387 0
 1377 0f44 8B44241C 		movl	28(%esp), %eax	 # msg, D.2812
 1378              		.loc 1 388 0
 1379 0f48 83C42C   		addl	$44, %esp	 #,
 1380              	LCFI21:
 1381              		.cfi_def_cfa_offset 4
 1382 0f4b C3       		ret
 1383              		.cfi_endproc
 1384              	LFE10:
 1385              	.lcomm LPBX1,736,32
 1386              		.section .rdata,"dr"
 1387              		.align 4
 1388              	LC0:
 1389 0000 433A5C64 		.ascii "C:\\develop\\gyro\\ChibiOS\\test\\coverage/../../os/kernel/src/chsem.gcda\0"
 1389      6576656C 
 1389      6F705C67 
 1389      79726F5C 
 1389      43686962 
 1390 0045 000000   		.data
 1391              		.align 32
 1392              	LC1:
 1393              	 # <anonymous>:
 1394 0000 0B000000 		.long	11
GAS LISTING C:\cygwin\tmp\ccclv1xX.s 			page 33


 1395              	 # <anonymous>:
 1396 0004 D237891D 		.long	495531986
 1397              	 # <anonymous>:
 1398 0008 14000000 		.long	20
 1399              	 # <anonymous>:
 1400 000c 0A000000 		.long	10
 1401              	 # <anonymous>:
 1402 0010 911A792A 		.long	712579729
 1403              	 # <anonymous>:
 1404 0014 0B000000 		.long	11
 1405              	 # <anonymous>:
 1406 0018 09000000 		.long	9
 1407              	 # <anonymous>:
 1408 001c 9E31E633 		.long	870723998
 1409              	 # <anonymous>:
 1410 0020 08000000 		.long	8
 1411              	 # <anonymous>:
 1412 0024 08000000 		.long	8
 1413              	 # <anonymous>:
 1414 0028 08AE17DE 		.long	-568873464
 1415              	 # <anonymous>:
 1416 002c 0A000000 		.long	10
 1417              	 # <anonymous>:
 1418 0030 07000000 		.long	7
 1419              	 # <anonymous>:
 1420 0034 F4EA5D81 		.long	-2124551436
 1421              	 # <anonymous>:
 1422 0038 09000000 		.long	9
 1423              	 # <anonymous>:
 1424 003c 06000000 		.long	6
 1425              	 # <anonymous>:
 1426 0040 317667AC 		.long	-1402505679
 1427              	 # <anonymous>:
 1428 0044 04000000 		.long	4
 1429              	 # <anonymous>:
 1430 0048 05000000 		.long	5
 1431              	 # <anonymous>:
 1432 004c EDA361B4 		.long	-1268669459
 1433              	 # <anonymous>:
 1434 0050 08000000 		.long	8
 1435              	 # <anonymous>:
 1436 0054 04000000 		.long	4
 1437              	 # <anonymous>:
 1438 0058 B564B99A 		.long	-1699126091
 1439              	 # <anonymous>:
 1440 005c 04000000 		.long	4
 1441              	 # <anonymous>:
 1442 0060 03000000 		.long	3
 1443              	 # <anonymous>:
 1444 0064 7110C5F1 		.long	-238743439
 1445              	 # <anonymous>:
 1446 0068 0A000000 		.long	10
 1447              	 # <anonymous>:
 1448 006c 02000000 		.long	2
 1449              	 # <anonymous>:
 1450 0070 9D64D7CE 		.long	-824744803
 1451              	 # <anonymous>:
GAS LISTING C:\cygwin\tmp\ccclv1xX.s 			page 34


 1452 0074 05000000 		.long	5
 1453              	 # <anonymous>:
 1454 0078 01000000 		.long	1
 1455              	 # <anonymous>:
 1456 007c E2371581 		.long	-2129315870
 1457              	 # <anonymous>:
 1458 0080 03000000 		.long	3
 1459 0084 00000000 		.align 32
 1459      00000000 
 1459      00000000 
 1459      00000000 
 1459      00000000 
 1460              	LPBX0:
 1461              	 # <anonymous>:
 1462 00a0 2A363034 		.long	875574826
 1463              	 # <anonymous>:
 1464 00a4 00000000 		.long	0
 1465              	 # <anonymous>:
 1466 00a8 EF1B7060 		.long	1617959919
 1467              	 # <anonymous>:
 1468 00ac 00000000 		.long	LC0
 1469              	 # <anonymous>:
 1470 00b0 0B000000 		.long	11
 1471              	 # <anonymous>:
 1472 00b4 00000000 		.long	LC1
 1473              	 # <anonymous>:
 1474 00b8 01000000 		.long	1
 1475              	 # <anonymous>:
 1476              	 # <anonymous>:
 1477 00bc 5C000000 		.long	92
 1478              	 # <anonymous>:
 1479 00c0 00000000 		.long	LPBX1
 1480              	 # <anonymous>:
 1481 00c4 00000000 		.long	___gcov_merge_add
 1482 00c8 00000000 		.space 12
 1482      00000000 
 1482      00000000 
 1483 00d4 00000000 		.text
 1483      00000000 
 1483      00000000 
 1484              		.def	__GLOBAL__sub_I_65535_0_chSemInit;	.scl	3;	.type	32;	.endef
 1485              	__GLOBAL__sub_I_65535_0_chSemInit:
 1486              	LFB11:
 1487              		.loc 1 388 0
 1488              		.cfi_startproc
 1489 0f4c 83EC1C   		subl	$28, %esp	 #,
 1490              	LCFI22:
 1491              		.cfi_def_cfa_offset 32
 1492              		.loc 1 388 0
 1493 0f4f C70424A0 		movl	$LPBX0, (%esp)	 #,
 1493      000000
 1494 0f56 E8000000 		call	___gcov_init	 #
 1494      00
 1495 0f5b 83C41C   		addl	$28, %esp	 #,
 1496              	LCFI23:
 1497              		.cfi_def_cfa_offset 4
 1498 0f5e C3       		ret
GAS LISTING C:\cygwin\tmp\ccclv1xX.s 			page 35


 1499              		.cfi_endproc
 1500              	LFE11:
 1501              		.section	.ctors,"w"
 1502              		.align 4
 1503 0000 4C0F0000 		.long	__GLOBAL__sub_I_65535_0_chSemInit
 1504              		.text
 1505              	Letext0:
 1506              		.file 2 "c:/mingw/bin/../lib/gcc/mingw32/4.6.2/../../../../include/stdint.h"
 1507              		.file 3 "../../os/ports/GCC/SIMIA32/chtypes.h"
 1508              		.file 4 "../../os/kernel/include/chlists.h"
 1509              		.file 5 "../../os/kernel/include/chthreads.h"
 1510              		.file 6 "../../os/ports/GCC/SIMIA32/chcore.h"
 1511              		.file 7 "../../os/kernel/include/chschd.h"
 1512              		.file 8 "../../os/kernel/include/chsem.h"
 1513              		.file 9 "../../os/kernel/include/chmtx.h"
 1514 0f5f 90       		.section	.debug_info,"dr"
 1515              	Ldebug_info0:
 1516 0000 F0080000 		.long	0x8f0
 1517 0004 0200     		.word	0x2
 1518 0006 00000000 		.secrel32	Ldebug_abbrev0
 1519 000a 04       		.byte	0x4
 1520 000b 01       		.uleb128 0x1
 1521 000c 474E5520 		.ascii "GNU C 4.6.2\0"
 1521      4320342E 
 1521      362E3200 
 1522 0018 01       		.byte	0x1
 1523 0019 2E2E2F2E 		.ascii "../../os/kernel/src/chsem.c\0"
 1523      2E2F6F73 
 1523      2F6B6572 
 1523      6E656C2F 
 1523      7372632F 
 1524 0035 433A5C64 		.ascii "C:\\develop\\gyro\\ChibiOS\\test\\coverage\0"
 1524      6576656C 
 1524      6F705C67 
 1524      79726F5C 
 1524      43686962 
 1525 005b 00000000 		.long	Ltext0
 1526 005f 5F0F0000 		.long	Letext0
 1527 0063 00000000 		.secrel32	Ldebug_line0
 1528 0067 02       		.uleb128 0x2
 1529 0068 04       		.byte	0x4
 1530 0069 05       		.byte	0x5
 1531 006a 696E7400 		.ascii "int\0"
 1532 006e 02       		.uleb128 0x2
 1533 006f 04       		.byte	0x4
 1534 0070 07       		.byte	0x7
 1535 0071 756E7369 		.ascii "unsigned int\0"
 1535      676E6564 
 1535      20696E74 
 1535      00
 1536 007e 02       		.uleb128 0x2
 1537 007f 02       		.byte	0x2
 1538 0080 07       		.byte	0x7
 1539 0081 73686F72 		.ascii "short unsigned int\0"
 1539      7420756E 
 1539      7369676E 
 1539      65642069 
GAS LISTING C:\cygwin\tmp\ccclv1xX.s 			page 36


 1539      6E7400
 1540 0094 02       		.uleb128 0x2
 1541 0095 01       		.byte	0x1
 1542 0096 06       		.byte	0x6
 1543 0097 7369676E 		.ascii "signed char\0"
 1543      65642063 
 1543      68617200 
 1544 00a3 03       		.uleb128 0x3
 1545 00a4 75696E74 		.ascii "uint8_t\0"
 1545      385F7400 
 1546 00ac 02       		.byte	0x2
 1547 00ad 1C       		.byte	0x1c
 1548 00ae B2000000 		.long	0xb2
 1549 00b2 02       		.uleb128 0x2
 1550 00b3 01       		.byte	0x1
 1551 00b4 08       		.byte	0x8
 1552 00b5 756E7369 		.ascii "unsigned char\0"
 1552      676E6564 
 1552      20636861 
 1552      7200
 1553 00c3 02       		.uleb128 0x2
 1554 00c4 02       		.byte	0x2
 1555 00c5 05       		.byte	0x5
 1556 00c6 73686F72 		.ascii "short int\0"
 1556      7420696E 
 1556      7400
 1557 00d0 03       		.uleb128 0x3
 1558 00d1 696E7433 		.ascii "int32_t\0"
 1558      325F7400 
 1559 00d9 02       		.byte	0x2
 1560 00da 1F       		.byte	0x1f
 1561 00db 67000000 		.long	0x67
 1562 00df 03       		.uleb128 0x3
 1563 00e0 75696E74 		.ascii "uint32_t\0"
 1563      33325F74 
 1563      00
 1564 00e9 02       		.byte	0x2
 1565 00ea 20       		.byte	0x20
 1566 00eb 6E000000 		.long	0x6e
 1567 00ef 02       		.uleb128 0x2
 1568 00f0 08       		.byte	0x8
 1569 00f1 05       		.byte	0x5
 1570 00f2 6C6F6E67 		.ascii "long long int\0"
 1570      206C6F6E 
 1570      6720696E 
 1570      7400
 1571 0100 02       		.uleb128 0x2
 1572 0101 08       		.byte	0x8
 1573 0102 07       		.byte	0x7
 1574 0103 6C6F6E67 		.ascii "long long unsigned int\0"
 1574      206C6F6E 
 1574      6720756E 
 1574      7369676E 
 1574      65642069 
 1575 011a 02       		.uleb128 0x2
 1576 011b 01       		.byte	0x1
 1577 011c 02       		.byte	0x2
GAS LISTING C:\cygwin\tmp\ccclv1xX.s 			page 37


 1578 011d 5F426F6F 		.ascii "_Bool\0"
 1578      6C00
 1579 0123 03       		.uleb128 0x3
 1580 0124 746D6F64 		.ascii "tmode_t\0"
 1580      655F7400 
 1581 012c 03       		.byte	0x3
 1582 012d 1D       		.byte	0x1d
 1583 012e A3000000 		.long	0xa3
 1584 0132 03       		.uleb128 0x3
 1585 0133 74737461 		.ascii "tstate_t\0"
 1585      74655F74 
 1585      00
 1586 013c 03       		.byte	0x3
 1587 013d 1E       		.byte	0x1e
 1588 013e A3000000 		.long	0xa3
 1589 0142 03       		.uleb128 0x3
 1590 0143 74726566 		.ascii "trefs_t\0"
 1590      735F7400 
 1591 014b 03       		.byte	0x3
 1592 014c 1F       		.byte	0x1f
 1593 014d A3000000 		.long	0xa3
 1594 0151 03       		.uleb128 0x3
 1595 0152 74736C69 		.ascii "tslices_t\0"
 1595      6365735F 
 1595      7400
 1596 015c 03       		.byte	0x3
 1597 015d 20       		.byte	0x20
 1598 015e A3000000 		.long	0xa3
 1599 0162 03       		.uleb128 0x3
 1600 0163 74707269 		.ascii "tprio_t\0"
 1600      6F5F7400 
 1601 016b 03       		.byte	0x3
 1602 016c 21       		.byte	0x21
 1603 016d DF000000 		.long	0xdf
 1604 0171 03       		.uleb128 0x3
 1605 0172 6D73675F 		.ascii "msg_t\0"
 1605      7400
 1606 0178 03       		.byte	0x3
 1607 0179 22       		.byte	0x22
 1608 017a D0000000 		.long	0xd0
 1609 017e 03       		.uleb128 0x3
 1610 017f 6576656E 		.ascii "eventmask_t\0"
 1610      746D6173 
 1610      6B5F7400 
 1611 018b 03       		.byte	0x3
 1612 018c 24       		.byte	0x24
 1613 018d DF000000 		.long	0xdf
 1614 0191 03       		.uleb128 0x3
 1615 0192 73797374 		.ascii "systime_t\0"
 1615      696D655F 
 1615      7400
 1616 019c 03       		.byte	0x3
 1617 019d 26       		.byte	0x26
 1618 019e DF000000 		.long	0xdf
 1619 01a2 03       		.uleb128 0x3
 1620 01a3 636E745F 		.ascii "cnt_t\0"
 1620      7400
GAS LISTING C:\cygwin\tmp\ccclv1xX.s 			page 38


 1621 01a9 03       		.byte	0x3
 1622 01aa 27       		.byte	0x27
 1623 01ab D0000000 		.long	0xd0
 1624 01af 03       		.uleb128 0x3
 1625 01b0 54687265 		.ascii "Thread\0"
 1625      616400
 1626 01b7 04       		.byte	0x4
 1627 01b8 23       		.byte	0x23
 1628 01b9 BD010000 		.long	0x1bd
 1629 01bd 04       		.uleb128 0x4
 1630 01be 54687265 		.ascii "Thread\0"
 1630      616400
 1631 01c5 48       		.byte	0x48
 1632 01c6 05       		.byte	0x5
 1633 01c7 57       		.byte	0x57
 1634 01c8 33030000 		.long	0x333
 1635 01cc 05       		.uleb128 0x5
 1636 01cd 0A000000 		.secrel32	LASF0
 1637 01d1 05       		.byte	0x5
 1638 01d2 58       		.byte	0x58
 1639 01d3 5B030000 		.long	0x35b
 1640 01d7 02       		.byte	0x2
 1641 01d8 23       		.byte	0x23
 1642 01d9 00       		.uleb128 0
 1643 01da 06       		.uleb128 0x6
 1644 01db 705F7072 		.ascii "p_prev\0"
 1644      657600
 1645 01e2 05       		.byte	0x5
 1646 01e3 5A       		.byte	0x5a
 1647 01e4 5B030000 		.long	0x35b
 1648 01e8 02       		.byte	0x2
 1649 01e9 23       		.byte	0x23
 1650 01ea 04       		.uleb128 0x4
 1651 01eb 06       		.uleb128 0x6
 1652 01ec 705F7072 		.ascii "p_prio\0"
 1652      696F00
 1653 01f3 05       		.byte	0x5
 1654 01f4 5C       		.byte	0x5c
 1655 01f5 62010000 		.long	0x162
 1656 01f9 02       		.byte	0x2
 1657 01fa 23       		.byte	0x23
 1658 01fb 08       		.uleb128 0x8
 1659 01fc 06       		.uleb128 0x6
 1660 01fd 705F6374 		.ascii "p_ctx\0"
 1660      7800
 1661 0203 05       		.byte	0x5
 1662 0204 5D       		.byte	0x5d
 1663 0205 05040000 		.long	0x405
 1664 0209 02       		.byte	0x2
 1665 020a 23       		.byte	0x23
 1666 020b 0C       		.uleb128 0xc
 1667 020c 06       		.uleb128 0x6
 1668 020d 705F6E65 		.ascii "p_newer\0"
 1668      77657200 
 1669 0215 05       		.byte	0x5
 1670 0216 5F       		.byte	0x5f
 1671 0217 5B030000 		.long	0x35b
GAS LISTING C:\cygwin\tmp\ccclv1xX.s 			page 39


 1672 021b 02       		.byte	0x2
 1673 021c 23       		.byte	0x23
 1674 021d 10       		.uleb128 0x10
 1675 021e 06       		.uleb128 0x6
 1676 021f 705F6F6C 		.ascii "p_older\0"
 1676      64657200 
 1677 0227 05       		.byte	0x5
 1678 0228 60       		.byte	0x60
 1679 0229 5B030000 		.long	0x35b
 1680 022d 02       		.byte	0x2
 1681 022e 23       		.byte	0x23
 1682 022f 14       		.uleb128 0x14
 1683 0230 06       		.uleb128 0x6
 1684 0231 705F6E61 		.ascii "p_name\0"
 1684      6D6500
 1685 0238 05       		.byte	0x5
 1686 0239 67       		.byte	0x67
 1687 023a 8D050000 		.long	0x58d
 1688 023e 02       		.byte	0x2
 1689 023f 23       		.byte	0x23
 1690 0240 18       		.uleb128 0x18
 1691 0241 06       		.uleb128 0x6
 1692 0242 705F7374 		.ascii "p_state\0"
 1692      61746500 
 1693 024a 05       		.byte	0x5
 1694 024b 72       		.byte	0x72
 1695 024c 32010000 		.long	0x132
 1696 0250 02       		.byte	0x2
 1697 0251 23       		.byte	0x23
 1698 0252 1C       		.uleb128 0x1c
 1699 0253 06       		.uleb128 0x6
 1700 0254 705F666C 		.ascii "p_flags\0"
 1700      61677300 
 1701 025c 05       		.byte	0x5
 1702 025d 76       		.byte	0x76
 1703 025e 23010000 		.long	0x123
 1704 0262 02       		.byte	0x2
 1705 0263 23       		.byte	0x23
 1706 0264 1D       		.uleb128 0x1d
 1707 0265 06       		.uleb128 0x6
 1708 0266 705F7265 		.ascii "p_refs\0"
 1708      667300
 1709 026d 05       		.byte	0x5
 1710 026e 7B       		.byte	0x7b
 1711 026f 42010000 		.long	0x142
 1712 0273 02       		.byte	0x2
 1713 0274 23       		.byte	0x23
 1714 0275 1E       		.uleb128 0x1e
 1715 0276 06       		.uleb128 0x6
 1716 0277 705F7072 		.ascii "p_preempt\0"
 1716      65656D70 
 1716      7400
 1717 0281 05       		.byte	0x5
 1718 0282 81       		.byte	0x81
 1719 0283 51010000 		.long	0x151
 1720 0287 02       		.byte	0x2
 1721 0288 23       		.byte	0x23
GAS LISTING C:\cygwin\tmp\ccclv1xX.s 			page 40


 1722 0289 1F       		.uleb128 0x1f
 1723 028a 06       		.uleb128 0x6
 1724 028b 705F7469 		.ascii "p_time\0"
 1724      6D6500
 1725 0292 05       		.byte	0x5
 1726 0293 88       		.byte	0x88
 1727 0294 2F040000 		.long	0x42f
 1728 0298 02       		.byte	0x2
 1729 0299 23       		.byte	0x23
 1730 029a 20       		.uleb128 0x20
 1731 029b 06       		.uleb128 0x6
 1732 029c 705F7500 		.ascii "p_u\0"
 1733 02a0 05       		.byte	0x5
 1734 02a1 AD       		.byte	0xad
 1735 02a2 4A050000 		.long	0x54a
 1736 02a6 02       		.byte	0x2
 1737 02a7 23       		.byte	0x23
 1738 02a8 24       		.uleb128 0x24
 1739 02a9 06       		.uleb128 0x6
 1740 02aa 705F7761 		.ascii "p_waiting\0"
 1740      6974696E 
 1740      6700
 1741 02b4 05       		.byte	0x5
 1742 02b5 B2       		.byte	0xb2
 1743 02b6 8C030000 		.long	0x38c
 1744 02ba 02       		.byte	0x2
 1745 02bb 23       		.byte	0x23
 1746 02bc 28       		.uleb128 0x28
 1747 02bd 06       		.uleb128 0x6
 1748 02be 705F6D73 		.ascii "p_msgqueue\0"
 1748      67717565 
 1748      756500
 1749 02c9 05       		.byte	0x5
 1750 02ca B8       		.byte	0xb8
 1751 02cb 61030000 		.long	0x361
 1752 02cf 02       		.byte	0x2
 1753 02d0 23       		.byte	0x23
 1754 02d1 2C       		.uleb128 0x2c
 1755 02d2 06       		.uleb128 0x6
 1756 02d3 705F6D73 		.ascii "p_msg\0"
 1756      6700
 1757 02d9 05       		.byte	0x5
 1758 02da BC       		.byte	0xbc
 1759 02db 71010000 		.long	0x171
 1760 02df 02       		.byte	0x2
 1761 02e0 23       		.byte	0x23
 1762 02e1 34       		.uleb128 0x34
 1763 02e2 06       		.uleb128 0x6
 1764 02e3 705F6570 		.ascii "p_epending\0"
 1764      656E6469 
 1764      6E6700
 1765 02ee 05       		.byte	0x5
 1766 02ef C2       		.byte	0xc2
 1767 02f0 7E010000 		.long	0x17e
 1768 02f4 02       		.byte	0x2
 1769 02f5 23       		.byte	0x23
 1770 02f6 38       		.uleb128 0x38
GAS LISTING C:\cygwin\tmp\ccclv1xX.s 			page 41


 1771 02f7 06       		.uleb128 0x6
 1772 02f8 705F6D74 		.ascii "p_mtxlist\0"
 1772      786C6973 
 1772      7400
 1773 0302 05       		.byte	0x5
 1774 0303 C9       		.byte	0xc9
 1775 0304 A0050000 		.long	0x5a0
 1776 0308 02       		.byte	0x2
 1777 0309 23       		.byte	0x23
 1778 030a 3C       		.uleb128 0x3c
 1779 030b 06       		.uleb128 0x6
 1780 030c 705F7265 		.ascii "p_realprio\0"
 1780      616C7072 
 1780      696F00
 1781 0317 05       		.byte	0x5
 1782 0318 CD       		.byte	0xcd
 1783 0319 62010000 		.long	0x162
 1784 031d 02       		.byte	0x2
 1785 031e 23       		.byte	0x23
 1786 031f 40       		.uleb128 0x40
 1787 0320 06       		.uleb128 0x6
 1788 0321 705F6D70 		.ascii "p_mpool\0"
 1788      6F6F6C00 
 1789 0329 05       		.byte	0x5
 1790 032a D3       		.byte	0xd3
 1791 032b AD030000 		.long	0x3ad
 1792 032f 02       		.byte	0x2
 1793 0330 23       		.byte	0x23
 1794 0331 44       		.uleb128 0x44
 1795 0332 00       		.byte	0
 1796 0333 07       		.uleb128 0x7
 1797 0334 08       		.byte	0x8
 1798 0335 04       		.byte	0x4
 1799 0336 5A       		.byte	0x5a
 1800 0337 5B030000 		.long	0x35b
 1801 033b 05       		.uleb128 0x5
 1802 033c 0A000000 		.secrel32	LASF0
 1803 0340 04       		.byte	0x4
 1804 0341 5B       		.byte	0x5b
 1805 0342 5B030000 		.long	0x35b
 1806 0346 02       		.byte	0x2
 1807 0347 23       		.byte	0x23
 1808 0348 00       		.uleb128 0
 1809 0349 06       		.uleb128 0x6
 1810 034a 705F7072 		.ascii "p_prev\0"
 1810      657600
 1811 0351 04       		.byte	0x4
 1812 0352 5D       		.byte	0x5d
 1813 0353 5B030000 		.long	0x35b
 1814 0357 02       		.byte	0x2
 1815 0358 23       		.byte	0x23
 1816 0359 04       		.uleb128 0x4
 1817 035a 00       		.byte	0
 1818 035b 08       		.uleb128 0x8
 1819 035c 04       		.byte	0x4
 1820 035d AF010000 		.long	0x1af
 1821 0361 03       		.uleb128 0x3
GAS LISTING C:\cygwin\tmp\ccclv1xX.s 			page 42


 1822 0362 54687265 		.ascii "ThreadsQueue\0"
 1822      61647351 
 1822      75657565 
 1822      00
 1823 036f 04       		.byte	0x4
 1824 0370 5F       		.byte	0x5f
 1825 0371 33030000 		.long	0x333
 1826 0375 07       		.uleb128 0x7
 1827 0376 04       		.byte	0x4
 1828 0377 04       		.byte	0x4
 1829 0378 64       		.byte	0x64
 1830 0379 8C030000 		.long	0x38c
 1831 037d 05       		.uleb128 0x5
 1832 037e 0A000000 		.secrel32	LASF0
 1833 0382 04       		.byte	0x4
 1834 0383 66       		.byte	0x66
 1835 0384 5B030000 		.long	0x35b
 1836 0388 02       		.byte	0x2
 1837 0389 23       		.byte	0x23
 1838 038a 00       		.uleb128 0
 1839 038b 00       		.byte	0
 1840 038c 03       		.uleb128 0x3
 1841 038d 54687265 		.ascii "ThreadsList\0"
 1841      6164734C 
 1841      69737400 
 1842 0399 04       		.byte	0x4
 1843 039a 69       		.byte	0x69
 1844 039b 75030000 		.long	0x375
 1845 039f 03       		.uleb128 0x3
 1846 03a0 72656778 		.ascii "regx86\0"
 1846      383600
 1847 03a7 06       		.byte	0x6
 1848 03a8 44       		.byte	0x44
 1849 03a9 AD030000 		.long	0x3ad
 1850 03ad 09       		.uleb128 0x9
 1851 03ae 04       		.byte	0x4
 1852 03af 04       		.uleb128 0x4
 1853 03b0 696E7463 		.ascii "intctx\0"
 1853      747800
 1854 03b7 14       		.byte	0x14
 1855 03b8 06       		.byte	0x6
 1856 03b9 52       		.byte	0x52
 1857 03ba 05040000 		.long	0x405
 1858 03be 06       		.uleb128 0x6
 1859 03bf 65627800 		.ascii "ebx\0"
 1860 03c3 06       		.byte	0x6
 1861 03c4 53       		.byte	0x53
 1862 03c5 9F030000 		.long	0x39f
 1863 03c9 02       		.byte	0x2
 1864 03ca 23       		.byte	0x23
 1865 03cb 00       		.uleb128 0
 1866 03cc 06       		.uleb128 0x6
 1867 03cd 65646900 		.ascii "edi\0"
 1868 03d1 06       		.byte	0x6
 1869 03d2 54       		.byte	0x54
 1870 03d3 9F030000 		.long	0x39f
 1871 03d7 02       		.byte	0x2
GAS LISTING C:\cygwin\tmp\ccclv1xX.s 			page 43


 1872 03d8 23       		.byte	0x23
 1873 03d9 04       		.uleb128 0x4
 1874 03da 06       		.uleb128 0x6
 1875 03db 65736900 		.ascii "esi\0"
 1876 03df 06       		.byte	0x6
 1877 03e0 55       		.byte	0x55
 1878 03e1 9F030000 		.long	0x39f
 1879 03e5 02       		.byte	0x2
 1880 03e6 23       		.byte	0x23
 1881 03e7 08       		.uleb128 0x8
 1882 03e8 06       		.uleb128 0x6
 1883 03e9 65627000 		.ascii "ebp\0"
 1884 03ed 06       		.byte	0x6
 1885 03ee 56       		.byte	0x56
 1886 03ef 9F030000 		.long	0x39f
 1887 03f3 02       		.byte	0x2
 1888 03f4 23       		.byte	0x23
 1889 03f5 0C       		.uleb128 0xc
 1890 03f6 06       		.uleb128 0x6
 1891 03f7 65697000 		.ascii "eip\0"
 1892 03fb 06       		.byte	0x6
 1893 03fc 57       		.byte	0x57
 1894 03fd 9F030000 		.long	0x39f
 1895 0401 02       		.byte	0x2
 1896 0402 23       		.byte	0x23
 1897 0403 10       		.uleb128 0x10
 1898 0404 00       		.byte	0
 1899 0405 04       		.uleb128 0x4
 1900 0406 636F6E74 		.ascii "context\0"
 1900      65787400 
 1901 040e 04       		.byte	0x4
 1902 040f 06       		.byte	0x6
 1903 0410 5F       		.byte	0x5f
 1904 0411 24040000 		.long	0x424
 1905 0415 06       		.uleb128 0x6
 1906 0416 65737000 		.ascii "esp\0"
 1907 041a 06       		.byte	0x6
 1908 041b 60       		.byte	0x60
 1909 041c 24040000 		.long	0x424
 1910 0420 02       		.byte	0x2
 1911 0421 23       		.byte	0x23
 1912 0422 00       		.uleb128 0
 1913 0423 00       		.byte	0
 1914 0424 08       		.uleb128 0x8
 1915 0425 04       		.byte	0x4
 1916 0426 2A040000 		.long	0x42a
 1917 042a 0A       		.uleb128 0xa
 1918 042b AF030000 		.long	0x3af
 1919 042f 0A       		.uleb128 0xa
 1920 0430 91010000 		.long	0x191
 1921 0434 07       		.uleb128 0x7
 1922 0435 1C       		.byte	0x1c
 1923 0436 07       		.byte	0x7
 1924 0437 57       		.byte	0x57
 1925 0438 A8040000 		.long	0x4a8
 1926 043c 06       		.uleb128 0x6
 1927 043d 725F7175 		.ascii "r_queue\0"
GAS LISTING C:\cygwin\tmp\ccclv1xX.s 			page 44


 1927      65756500 
 1928 0445 07       		.byte	0x7
 1929 0446 58       		.byte	0x58
 1930 0447 61030000 		.long	0x361
 1931 044b 02       		.byte	0x2
 1932 044c 23       		.byte	0x23
 1933 044d 00       		.uleb128 0
 1934 044e 06       		.uleb128 0x6
 1935 044f 725F7072 		.ascii "r_prio\0"
 1935      696F00
 1936 0456 07       		.byte	0x7
 1937 0457 59       		.byte	0x59
 1938 0458 62010000 		.long	0x162
 1939 045c 02       		.byte	0x2
 1940 045d 23       		.byte	0x23
 1941 045e 08       		.uleb128 0x8
 1942 045f 06       		.uleb128 0x6
 1943 0460 725F6374 		.ascii "r_ctx\0"
 1943      7800
 1944 0466 07       		.byte	0x7
 1945 0467 5B       		.byte	0x5b
 1946 0468 05040000 		.long	0x405
 1947 046c 02       		.byte	0x2
 1948 046d 23       		.byte	0x23
 1949 046e 0C       		.uleb128 0xc
 1950 046f 06       		.uleb128 0x6
 1951 0470 725F6E65 		.ascii "r_newer\0"
 1951      77657200 
 1952 0478 07       		.byte	0x7
 1953 0479 5E       		.byte	0x5e
 1954 047a 5B030000 		.long	0x35b
 1955 047e 02       		.byte	0x2
 1956 047f 23       		.byte	0x23
 1957 0480 10       		.uleb128 0x10
 1958 0481 06       		.uleb128 0x6
 1959 0482 725F6F6C 		.ascii "r_older\0"
 1959      64657200 
 1960 048a 07       		.byte	0x7
 1961 048b 5F       		.byte	0x5f
 1962 048c 5B030000 		.long	0x35b
 1963 0490 02       		.byte	0x2
 1964 0491 23       		.byte	0x23
 1965 0492 14       		.uleb128 0x14
 1966 0493 06       		.uleb128 0x6
 1967 0494 725F6375 		.ascii "r_current\0"
 1967      7272656E 
 1967      7400
 1968 049e 07       		.byte	0x7
 1969 049f 62       		.byte	0x62
 1970 04a0 5B030000 		.long	0x35b
 1971 04a4 02       		.byte	0x2
 1972 04a5 23       		.byte	0x23
 1973 04a6 18       		.uleb128 0x18
 1974 04a7 00       		.byte	0
 1975 04a8 03       		.uleb128 0x3
 1976 04a9 52656164 		.ascii "ReadyList\0"
 1976      794C6973 
GAS LISTING C:\cygwin\tmp\ccclv1xX.s 			page 45


 1976      7400
 1977 04b3 07       		.byte	0x7
 1978 04b4 64       		.byte	0x64
 1979 04b5 34040000 		.long	0x434
 1980 04b9 0B       		.uleb128 0xb
 1981 04ba 00000000 		.secrel32	LASF1
 1982 04be 0C       		.byte	0xc
 1983 04bf 08       		.byte	0x8
 1984 04c0 25       		.byte	0x25
 1985 04c1 E8040000 		.long	0x4e8
 1986 04c5 06       		.uleb128 0x6
 1987 04c6 735F7175 		.ascii "s_queue\0"
 1987      65756500 
 1988 04ce 08       		.byte	0x8
 1989 04cf 26       		.byte	0x26
 1990 04d0 61030000 		.long	0x361
 1991 04d4 02       		.byte	0x2
 1992 04d5 23       		.byte	0x23
 1993 04d6 00       		.uleb128 0
 1994 04d7 06       		.uleb128 0x6
 1995 04d8 735F636E 		.ascii "s_cnt\0"
 1995      7400
 1996 04de 08       		.byte	0x8
 1997 04df 28       		.byte	0x28
 1998 04e0 A2010000 		.long	0x1a2
 1999 04e4 02       		.byte	0x2
 2000 04e5 23       		.byte	0x23
 2001 04e6 08       		.uleb128 0x8
 2002 04e7 00       		.byte	0
 2003 04e8 0C       		.uleb128 0xc
 2004 04e9 00000000 		.secrel32	LASF1
 2005 04ed 08       		.byte	0x8
 2006 04ee 29       		.byte	0x29
 2007 04ef B9040000 		.long	0x4b9
 2008 04f3 04       		.uleb128 0x4
 2009 04f4 4D757465 		.ascii "Mutex\0"
 2009      7800
 2010 04fa 10       		.byte	0x10
 2011 04fb 09       		.byte	0x9
 2012 04fc 25       		.byte	0x25
 2013 04fd 37050000 		.long	0x537
 2014 0501 06       		.uleb128 0x6
 2015 0502 6D5F7175 		.ascii "m_queue\0"
 2015      65756500 
 2016 050a 09       		.byte	0x9
 2017 050b 26       		.byte	0x26
 2018 050c 61030000 		.long	0x361
 2019 0510 02       		.byte	0x2
 2020 0511 23       		.byte	0x23
 2021 0512 00       		.uleb128 0
 2022 0513 06       		.uleb128 0x6
 2023 0514 6D5F6F77 		.ascii "m_owner\0"
 2023      6E657200 
 2024 051c 09       		.byte	0x9
 2025 051d 28       		.byte	0x28
 2026 051e 5B030000 		.long	0x35b
 2027 0522 02       		.byte	0x2
GAS LISTING C:\cygwin\tmp\ccclv1xX.s 			page 46


 2028 0523 23       		.byte	0x23
 2029 0524 08       		.uleb128 0x8
 2030 0525 06       		.uleb128 0x6
 2031 0526 6D5F6E65 		.ascii "m_next\0"
 2031      787400
 2032 052d 09       		.byte	0x9
 2033 052e 2A       		.byte	0x2a
 2034 052f 37050000 		.long	0x537
 2035 0533 02       		.byte	0x2
 2036 0534 23       		.byte	0x23
 2037 0535 0C       		.uleb128 0xc
 2038 0536 00       		.byte	0
 2039 0537 08       		.uleb128 0x8
 2040 0538 04       		.byte	0x4
 2041 0539 F3040000 		.long	0x4f3
 2042 053d 03       		.uleb128 0x3
 2043 053e 4D757465 		.ascii "Mutex\0"
 2043      7800
 2044 0544 09       		.byte	0x9
 2045 0545 2C       		.byte	0x2c
 2046 0546 F3040000 		.long	0x4f3
 2047 054a 0D       		.uleb128 0xd
 2048 054b 04       		.byte	0x4
 2049 054c 05       		.byte	0x5
 2050 054d 8F       		.byte	0x8f
 2051 054e 8D050000 		.long	0x58d
 2052 0552 0E       		.uleb128 0xe
 2053 0553 7264796D 		.ascii "rdymsg\0"
 2053      736700
 2054 055a 05       		.byte	0x5
 2055 055b 96       		.byte	0x96
 2056 055c 71010000 		.long	0x171
 2057 0560 0E       		.uleb128 0xe
 2058 0561 65786974 		.ascii "exitcode\0"
 2058      636F6465 
 2058      00
 2059 056a 05       		.byte	0x5
 2060 056b 9D       		.byte	0x9d
 2061 056c 71010000 		.long	0x171
 2062 0570 0E       		.uleb128 0xe
 2063 0571 77746F62 		.ascii "wtobjp\0"
 2063      6A7000
 2064 0578 05       		.byte	0x5
 2065 0579 A4       		.byte	0xa4
 2066 057a AD030000 		.long	0x3ad
 2067 057e 0E       		.uleb128 0xe
 2068 057f 65776D61 		.ascii "ewmask\0"
 2068      736B00
 2069 0586 05       		.byte	0x5
 2070 0587 AB       		.byte	0xab
 2071 0588 7E010000 		.long	0x17e
 2072 058c 00       		.byte	0
 2073 058d 08       		.uleb128 0x8
 2074 058e 04       		.byte	0x4
 2075 058f 93050000 		.long	0x593
 2076 0593 0F       		.uleb128 0xf
 2077 0594 98050000 		.long	0x598
GAS LISTING C:\cygwin\tmp\ccclv1xX.s 			page 47


 2078 0598 02       		.uleb128 0x2
 2079 0599 01       		.byte	0x1
 2080 059a 06       		.byte	0x6
 2081 059b 63686172 		.ascii "char\0"
 2081      00
 2082 05a0 08       		.uleb128 0x8
 2083 05a1 04       		.byte	0x4
 2084 05a2 3D050000 		.long	0x53d
 2085 05a6 10       		.uleb128 0x10
 2086 05a7 01       		.byte	0x1
 2087 05a8 63685365 		.ascii "chSemInit\0"
 2087      6D496E69 
 2087      7400
 2088 05b2 01       		.byte	0x1
 2089 05b3 4F       		.byte	0x4f
 2090 05b4 01       		.byte	0x1
 2091 05b5 00000000 		.long	LFB0
 2092 05b9 8E000000 		.long	LFE0
 2093 05bd 00000000 		.secrel32	LLST0
 2094 05c1 DF050000 		.long	0x5df
 2095 05c5 11       		.uleb128 0x11
 2096 05c6 737000   		.ascii "sp\0"
 2097 05c9 01       		.byte	0x1
 2098 05ca 4F       		.byte	0x4f
 2099 05cb DF050000 		.long	0x5df
 2100 05cf 02       		.byte	0x2
 2101 05d0 91       		.byte	0x91
 2102 05d1 00       		.sleb128 0
 2103 05d2 11       		.uleb128 0x11
 2104 05d3 6E00     		.ascii "n\0"
 2105 05d5 01       		.byte	0x1
 2106 05d6 4F       		.byte	0x4f
 2107 05d7 A2010000 		.long	0x1a2
 2108 05db 02       		.byte	0x2
 2109 05dc 91       		.byte	0x91
 2110 05dd 04       		.sleb128 4
 2111 05de 00       		.byte	0
 2112 05df 08       		.uleb128 0x8
 2113 05e0 04       		.byte	0x4
 2114 05e1 E8040000 		.long	0x4e8
 2115 05e5 10       		.uleb128 0x10
 2116 05e6 01       		.byte	0x1
 2117 05e7 63685365 		.ascii "chSemReset\0"
 2117      6D526573 
 2117      657400
 2118 05f2 01       		.byte	0x1
 2119 05f3 66       		.byte	0x66
 2120 05f4 01       		.byte	0x1
 2121 05f5 8E000000 		.long	LFB1
 2122 05f9 3C010000 		.long	LFE1
 2123 05fd 2C000000 		.secrel32	LLST1
 2124 0601 1F060000 		.long	0x61f
 2125 0605 11       		.uleb128 0x11
 2126 0606 737000   		.ascii "sp\0"
 2127 0609 01       		.byte	0x1
 2128 060a 66       		.byte	0x66
 2129 060b DF050000 		.long	0x5df
GAS LISTING C:\cygwin\tmp\ccclv1xX.s 			page 48


 2130 060f 02       		.byte	0x2
 2131 0610 91       		.byte	0x91
 2132 0611 00       		.sleb128 0
 2133 0612 11       		.uleb128 0x11
 2134 0613 6E00     		.ascii "n\0"
 2135 0615 01       		.byte	0x1
 2136 0616 66       		.byte	0x66
 2137 0617 A2010000 		.long	0x1a2
 2138 061b 02       		.byte	0x2
 2139 061c 91       		.byte	0x91
 2140 061d 04       		.sleb128 4
 2141 061e 00       		.byte	0
 2142 061f 10       		.uleb128 0x10
 2143 0620 01       		.byte	0x1
 2144 0621 63685365 		.ascii "chSemResetI\0"
 2144      6D526573 
 2144      65744900 
 2145 062d 01       		.byte	0x1
 2146 062e 81       		.byte	0x81
 2147 062f 01       		.byte	0x1
 2148 0630 3C010000 		.long	LFB2
 2149 0634 DE020000 		.long	LFE2
 2150 0638 58000000 		.secrel32	LLST2
 2151 063c 68060000 		.long	0x668
 2152 0640 11       		.uleb128 0x11
 2153 0641 737000   		.ascii "sp\0"
 2154 0644 01       		.byte	0x1
 2155 0645 81       		.byte	0x81
 2156 0646 DF050000 		.long	0x5df
 2157 064a 02       		.byte	0x2
 2158 064b 91       		.byte	0x91
 2159 064c 00       		.sleb128 0
 2160 064d 11       		.uleb128 0x11
 2161 064e 6E00     		.ascii "n\0"
 2162 0650 01       		.byte	0x1
 2163 0651 81       		.byte	0x81
 2164 0652 A2010000 		.long	0x1a2
 2165 0656 02       		.byte	0x2
 2166 0657 91       		.byte	0x91
 2167 0658 04       		.sleb128 4
 2168 0659 12       		.uleb128 0x12
 2169 065a 636E7400 		.ascii "cnt\0"
 2170 065e 01       		.byte	0x1
 2171 065f 82       		.byte	0x82
 2172 0660 A2010000 		.long	0x1a2
 2173 0664 02       		.byte	0x2
 2174 0665 91       		.byte	0x91
 2175 0666 6C       		.sleb128 -20
 2176 0667 00       		.byte	0
 2177 0668 13       		.uleb128 0x13
 2178 0669 01       		.byte	0x1
 2179 066a 63685365 		.ascii "chSemWait\0"
 2179      6D576169 
 2179      7400
 2180 0674 01       		.byte	0x1
 2181 0675 9D       		.byte	0x9d
 2182 0676 01       		.byte	0x1
GAS LISTING C:\cygwin\tmp\ccclv1xX.s 			page 49


 2183 0677 71010000 		.long	0x171
 2184 067b DE020000 		.long	LFB3
 2185 067f 6B030000 		.long	LFE3
 2186 0683 84000000 		.secrel32	LLST3
 2187 0687 A7060000 		.long	0x6a7
 2188 068b 11       		.uleb128 0x11
 2189 068c 737000   		.ascii "sp\0"
 2190 068f 01       		.byte	0x1
 2191 0690 9D       		.byte	0x9d
 2192 0691 DF050000 		.long	0x5df
 2193 0695 02       		.byte	0x2
 2194 0696 91       		.byte	0x91
 2195 0697 00       		.sleb128 0
 2196 0698 12       		.uleb128 0x12
 2197 0699 6D736700 		.ascii "msg\0"
 2198 069d 01       		.byte	0x1
 2199 069e 9E       		.byte	0x9e
 2200 069f 71010000 		.long	0x171
 2201 06a3 02       		.byte	0x2
 2202 06a4 91       		.byte	0x91
 2203 06a5 6C       		.sleb128 -20
 2204 06a6 00       		.byte	0
 2205 06a7 13       		.uleb128 0x13
 2206 06a8 01       		.byte	0x1
 2207 06a9 63685365 		.ascii "chSemWaitS\0"
 2207      6D576169 
 2207      745300
 2208 06b4 01       		.byte	0x1
 2209 06b5 B2       		.byte	0xb2
 2210 06b6 01       		.byte	0x1
 2211 06b7 71010000 		.long	0x171
 2212 06bb 6B030000 		.long	LFB4
 2213 06bf E5040000 		.long	LFE4
 2214 06c3 B0000000 		.secrel32	LLST4
 2215 06c7 D9060000 		.long	0x6d9
 2216 06cb 11       		.uleb128 0x11
 2217 06cc 737000   		.ascii "sp\0"
 2218 06cf 01       		.byte	0x1
 2219 06d0 B2       		.byte	0xb2
 2220 06d1 DF050000 		.long	0x5df
 2221 06d5 02       		.byte	0x2
 2222 06d6 91       		.byte	0x91
 2223 06d7 00       		.sleb128 0
 2224 06d8 00       		.byte	0
 2225 06d9 13       		.uleb128 0x13
 2226 06da 01       		.byte	0x1
 2227 06db 63685365 		.ascii "chSemWaitTimeout\0"
 2227      6D576169 
 2227      7454696D 
 2227      656F7574 
 2227      00
 2228 06ec 01       		.byte	0x1
 2229 06ed D7       		.byte	0xd7
 2230 06ee 01       		.byte	0x1
 2231 06ef 71010000 		.long	0x171
 2232 06f3 E5040000 		.long	LFB5
 2233 06f7 7A050000 		.long	LFE5
GAS LISTING C:\cygwin\tmp\ccclv1xX.s 			page 50


 2234 06fb DC000000 		.secrel32	LLST5
 2235 06ff 2E070000 		.long	0x72e
 2236 0703 11       		.uleb128 0x11
 2237 0704 737000   		.ascii "sp\0"
 2238 0707 01       		.byte	0x1
 2239 0708 D7       		.byte	0xd7
 2240 0709 DF050000 		.long	0x5df
 2241 070d 02       		.byte	0x2
 2242 070e 91       		.byte	0x91
 2243 070f 00       		.sleb128 0
 2244 0710 11       		.uleb128 0x11
 2245 0711 74696D65 		.ascii "time\0"
 2245      00
 2246 0716 01       		.byte	0x1
 2247 0717 D7       		.byte	0xd7
 2248 0718 91010000 		.long	0x191
 2249 071c 02       		.byte	0x2
 2250 071d 91       		.byte	0x91
 2251 071e 04       		.sleb128 4
 2252 071f 12       		.uleb128 0x12
 2253 0720 6D736700 		.ascii "msg\0"
 2254 0724 01       		.byte	0x1
 2255 0725 D8       		.byte	0xd8
 2256 0726 71010000 		.long	0x171
 2257 072a 02       		.byte	0x2
 2258 072b 91       		.byte	0x91
 2259 072c 6C       		.sleb128 -20
 2260 072d 00       		.byte	0
 2261 072e 13       		.uleb128 0x13
 2262 072f 01       		.byte	0x1
 2263 0730 63685365 		.ascii "chSemWaitTimeoutS\0"
 2263      6D576169 
 2263      7454696D 
 2263      656F7574 
 2263      5300
 2264 0742 01       		.byte	0x1
 2265 0743 F3       		.byte	0xf3
 2266 0744 01       		.byte	0x1
 2267 0745 71010000 		.long	0x171
 2268 0749 7A050000 		.long	LFB6
 2269 074d 34070000 		.long	LFE6
 2270 0751 08010000 		.secrel32	LLST6
 2271 0755 76070000 		.long	0x776
 2272 0759 11       		.uleb128 0x11
 2273 075a 737000   		.ascii "sp\0"
 2274 075d 01       		.byte	0x1
 2275 075e F3       		.byte	0xf3
 2276 075f DF050000 		.long	0x5df
 2277 0763 02       		.byte	0x2
 2278 0764 91       		.byte	0x91
 2279 0765 00       		.sleb128 0
 2280 0766 11       		.uleb128 0x11
 2281 0767 74696D65 		.ascii "time\0"
 2281      00
 2282 076c 01       		.byte	0x1
 2283 076d F3       		.byte	0xf3
 2284 076e 91010000 		.long	0x191
GAS LISTING C:\cygwin\tmp\ccclv1xX.s 			page 51


 2285 0772 02       		.byte	0x2
 2286 0773 91       		.byte	0x91
 2287 0774 04       		.sleb128 4
 2288 0775 00       		.byte	0
 2289 0776 14       		.uleb128 0x14
 2290 0777 01       		.byte	0x1
 2291 0778 63685365 		.ascii "chSemSignal\0"
 2291      6D536967 
 2291      6E616C00 
 2292 0784 01       		.byte	0x1
 2293 0785 0F01     		.word	0x10f
 2294 0787 01       		.byte	0x1
 2295 0788 34070000 		.long	LFB7
 2296 078c C3080000 		.long	LFE7
 2297 0790 34010000 		.secrel32	LLST7
 2298 0794 A7070000 		.long	0x7a7
 2299 0798 15       		.uleb128 0x15
 2300 0799 737000   		.ascii "sp\0"
 2301 079c 01       		.byte	0x1
 2302 079d 0F01     		.word	0x10f
 2303 079f DF050000 		.long	0x5df
 2304 07a3 02       		.byte	0x2
 2305 07a4 91       		.byte	0x91
 2306 07a5 00       		.sleb128 0
 2307 07a6 00       		.byte	0
 2308 07a7 14       		.uleb128 0x14
 2309 07a8 01       		.byte	0x1
 2310 07a9 63685365 		.ascii "chSemSignalI\0"
 2310      6D536967 
 2310      6E616C49 
 2310      00
 2311 07b6 01       		.byte	0x1
 2312 07b7 2801     		.word	0x128
 2313 07b9 01       		.byte	0x1
 2314 07ba C3080000 		.long	LFB8
 2315 07be 210A0000 		.long	LFE8
 2316 07c2 60010000 		.secrel32	LLST8
 2317 07c6 F1070000 		.long	0x7f1
 2318 07ca 15       		.uleb128 0x15
 2319 07cb 737000   		.ascii "sp\0"
 2320 07ce 01       		.byte	0x1
 2321 07cf 2801     		.word	0x128
 2322 07d1 DF050000 		.long	0x5df
 2323 07d5 02       		.byte	0x2
 2324 07d6 91       		.byte	0x91
 2325 07d7 00       		.sleb128 0
 2326 07d8 16       		.uleb128 0x16
 2327 07d9 BE090000 		.long	LBB2
 2328 07dd 1D0A0000 		.long	LBE2
 2329 07e1 17       		.uleb128 0x17
 2330 07e2 747000   		.ascii "tp\0"
 2331 07e5 01       		.byte	0x1
 2332 07e6 3401     		.word	0x134
 2333 07e8 5B030000 		.long	0x35b
 2334 07ec 02       		.byte	0x2
 2335 07ed 91       		.byte	0x91
 2336 07ee 6C       		.sleb128 -20
GAS LISTING C:\cygwin\tmp\ccclv1xX.s 			page 52


 2337 07ef 00       		.byte	0
 2338 07f0 00       		.byte	0
 2339 07f1 14       		.uleb128 0x14
 2340 07f2 01       		.byte	0x1
 2341 07f3 63685365 		.ascii "chSemAddCounterI\0"
 2341      6D416464 
 2341      436F756E 
 2341      74657249 
 2341      00
 2342 0804 01       		.byte	0x1
 2343 0805 4701     		.word	0x147
 2344 0807 01       		.byte	0x1
 2345 0808 210A0000 		.long	LFB9
 2346 080c F10B0000 		.long	LFE9
 2347 0810 8C010000 		.secrel32	LLST9
 2348 0814 34080000 		.long	0x834
 2349 0818 15       		.uleb128 0x15
 2350 0819 737000   		.ascii "sp\0"
 2351 081c 01       		.byte	0x1
 2352 081d 4701     		.word	0x147
 2353 081f DF050000 		.long	0x5df
 2354 0823 02       		.byte	0x2
 2355 0824 91       		.byte	0x91
 2356 0825 00       		.sleb128 0
 2357 0826 15       		.uleb128 0x15
 2358 0827 6E00     		.ascii "n\0"
 2359 0829 01       		.byte	0x1
 2360 082a 4701     		.word	0x147
 2361 082c A2010000 		.long	0x1a2
 2362 0830 02       		.byte	0x2
 2363 0831 91       		.byte	0x91
 2364 0832 04       		.sleb128 4
 2365 0833 00       		.byte	0
 2366 0834 18       		.uleb128 0x18
 2367 0835 01       		.byte	0x1
 2368 0836 63685365 		.ascii "chSemSignalWait\0"
 2368      6D536967 
 2368      6E616C57 
 2368      61697400 
 2369 0846 01       		.byte	0x1
 2370 0847 6701     		.word	0x167
 2371 0849 01       		.byte	0x1
 2372 084a 71010000 		.long	0x171
 2373 084e F10B0000 		.long	LFB10
 2374 0852 4C0F0000 		.long	LFE10
 2375 0856 B8010000 		.secrel32	LLST10
 2376 085a A5080000 		.long	0x8a5
 2377 085e 15       		.uleb128 0x15
 2378 085f 73707300 		.ascii "sps\0"
 2379 0863 01       		.byte	0x1
 2380 0864 6701     		.word	0x167
 2381 0866 DF050000 		.long	0x5df
 2382 086a 02       		.byte	0x2
 2383 086b 91       		.byte	0x91
 2384 086c 00       		.sleb128 0
 2385 086d 15       		.uleb128 0x15
 2386 086e 73707700 		.ascii "spw\0"
GAS LISTING C:\cygwin\tmp\ccclv1xX.s 			page 53


 2387 0872 01       		.byte	0x1
 2388 0873 6701     		.word	0x167
 2389 0875 DF050000 		.long	0x5df
 2390 0879 02       		.byte	0x2
 2391 087a 91       		.byte	0x91
 2392 087b 04       		.sleb128 4
 2393 087c 17       		.uleb128 0x17
 2394 087d 6D736700 		.ascii "msg\0"
 2395 0881 01       		.byte	0x1
 2396 0882 6801     		.word	0x168
 2397 0884 71010000 		.long	0x171
 2398 0888 02       		.byte	0x2
 2399 0889 91       		.byte	0x91
 2400 088a 6C       		.sleb128 -20
 2401 088b 16       		.uleb128 0x16
 2402 088c 690E0000 		.long	LBB3
 2403 0890 FE0E0000 		.long	LBE3
 2404 0894 17       		.uleb128 0x17
 2405 0895 63747000 		.ascii "ctp\0"
 2406 0899 01       		.byte	0x1
 2407 089a 7801     		.word	0x178
 2408 089c 5B030000 		.long	0x35b
 2409 08a0 02       		.byte	0x2
 2410 08a1 91       		.byte	0x91
 2411 08a2 68       		.sleb128 -24
 2412 08a3 00       		.byte	0
 2413 08a4 00       		.byte	0
 2414 08a5 19       		.uleb128 0x19
 2415 08a6 5F474C4F 		.ascii "_GLOBAL__sub_I_65535_0_chSemInit\0"
 2415      42414C5F 
 2415      5F737562 
 2415      5F495F36 
 2415      35353335 
 2416 08c7 01       		.byte	0x1
 2417 08c8 01       		.byte	0x1
 2418 08c9 4C0F0000 		.long	LFB11
 2419 08cd 5F0F0000 		.long	LFE11
 2420 08d1 E4010000 		.secrel32	LLST11
 2421 08d5 1A       		.uleb128 0x1a
 2422 08d6 726C6973 		.ascii "rlist\0"
 2422      7400
 2423 08dc 07       		.byte	0x7
 2424 08dd 68       		.byte	0x68
 2425 08de A8040000 		.long	0x4a8
 2426 08e2 01       		.byte	0x1
 2427 08e3 01       		.byte	0x1
 2428 08e4 1A       		.uleb128 0x1a
 2429 08e5 726C6973 		.ascii "rlist\0"
 2429      7400
 2430 08eb 07       		.byte	0x7
 2431 08ec 68       		.byte	0x68
 2432 08ed A8040000 		.long	0x4a8
 2433 08f1 01       		.byte	0x1
 2434 08f2 01       		.byte	0x1
 2435 08f3 00       		.byte	0
 2436              		.section	.debug_abbrev,"dr"
 2437              	Ldebug_abbrev0:
GAS LISTING C:\cygwin\tmp\ccclv1xX.s 			page 54


 2438 0000 01       		.uleb128 0x1
 2439 0001 11       		.uleb128 0x11
 2440 0002 01       		.byte	0x1
 2441 0003 25       		.uleb128 0x25
 2442 0004 08       		.uleb128 0x8
 2443 0005 13       		.uleb128 0x13
 2444 0006 0B       		.uleb128 0xb
 2445 0007 03       		.uleb128 0x3
 2446 0008 08       		.uleb128 0x8
 2447 0009 1B       		.uleb128 0x1b
 2448 000a 08       		.uleb128 0x8
 2449 000b 11       		.uleb128 0x11
 2450 000c 01       		.uleb128 0x1
 2451 000d 12       		.uleb128 0x12
 2452 000e 01       		.uleb128 0x1
 2453 000f 10       		.uleb128 0x10
 2454 0010 06       		.uleb128 0x6
 2455 0011 00       		.byte	0
 2456 0012 00       		.byte	0
 2457 0013 02       		.uleb128 0x2
 2458 0014 24       		.uleb128 0x24
 2459 0015 00       		.byte	0
 2460 0016 0B       		.uleb128 0xb
 2461 0017 0B       		.uleb128 0xb
 2462 0018 3E       		.uleb128 0x3e
 2463 0019 0B       		.uleb128 0xb
 2464 001a 03       		.uleb128 0x3
 2465 001b 08       		.uleb128 0x8
 2466 001c 00       		.byte	0
 2467 001d 00       		.byte	0
 2468 001e 03       		.uleb128 0x3
 2469 001f 16       		.uleb128 0x16
 2470 0020 00       		.byte	0
 2471 0021 03       		.uleb128 0x3
 2472 0022 08       		.uleb128 0x8
 2473 0023 3A       		.uleb128 0x3a
 2474 0024 0B       		.uleb128 0xb
 2475 0025 3B       		.uleb128 0x3b
 2476 0026 0B       		.uleb128 0xb
 2477 0027 49       		.uleb128 0x49
 2478 0028 13       		.uleb128 0x13
 2479 0029 00       		.byte	0
 2480 002a 00       		.byte	0
 2481 002b 04       		.uleb128 0x4
 2482 002c 13       		.uleb128 0x13
 2483 002d 01       		.byte	0x1
 2484 002e 03       		.uleb128 0x3
 2485 002f 08       		.uleb128 0x8
 2486 0030 0B       		.uleb128 0xb
 2487 0031 0B       		.uleb128 0xb
 2488 0032 3A       		.uleb128 0x3a
 2489 0033 0B       		.uleb128 0xb
 2490 0034 3B       		.uleb128 0x3b
 2491 0035 0B       		.uleb128 0xb
 2492 0036 01       		.uleb128 0x1
 2493 0037 13       		.uleb128 0x13
 2494 0038 00       		.byte	0
GAS LISTING C:\cygwin\tmp\ccclv1xX.s 			page 55


 2495 0039 00       		.byte	0
 2496 003a 05       		.uleb128 0x5
 2497 003b 0D       		.uleb128 0xd
 2498 003c 00       		.byte	0
 2499 003d 03       		.uleb128 0x3
 2500 003e 0E       		.uleb128 0xe
 2501 003f 3A       		.uleb128 0x3a
 2502 0040 0B       		.uleb128 0xb
 2503 0041 3B       		.uleb128 0x3b
 2504 0042 0B       		.uleb128 0xb
 2505 0043 49       		.uleb128 0x49
 2506 0044 13       		.uleb128 0x13
 2507 0045 38       		.uleb128 0x38
 2508 0046 0A       		.uleb128 0xa
 2509 0047 00       		.byte	0
 2510 0048 00       		.byte	0
 2511 0049 06       		.uleb128 0x6
 2512 004a 0D       		.uleb128 0xd
 2513 004b 00       		.byte	0
 2514 004c 03       		.uleb128 0x3
 2515 004d 08       		.uleb128 0x8
 2516 004e 3A       		.uleb128 0x3a
 2517 004f 0B       		.uleb128 0xb
 2518 0050 3B       		.uleb128 0x3b
 2519 0051 0B       		.uleb128 0xb
 2520 0052 49       		.uleb128 0x49
 2521 0053 13       		.uleb128 0x13
 2522 0054 38       		.uleb128 0x38
 2523 0055 0A       		.uleb128 0xa
 2524 0056 00       		.byte	0
 2525 0057 00       		.byte	0
 2526 0058 07       		.uleb128 0x7
 2527 0059 13       		.uleb128 0x13
 2528 005a 01       		.byte	0x1
 2529 005b 0B       		.uleb128 0xb
 2530 005c 0B       		.uleb128 0xb
 2531 005d 3A       		.uleb128 0x3a
 2532 005e 0B       		.uleb128 0xb
 2533 005f 3B       		.uleb128 0x3b
 2534 0060 0B       		.uleb128 0xb
 2535 0061 01       		.uleb128 0x1
 2536 0062 13       		.uleb128 0x13
 2537 0063 00       		.byte	0
 2538 0064 00       		.byte	0
 2539 0065 08       		.uleb128 0x8
 2540 0066 0F       		.uleb128 0xf
 2541 0067 00       		.byte	0
 2542 0068 0B       		.uleb128 0xb
 2543 0069 0B       		.uleb128 0xb
 2544 006a 49       		.uleb128 0x49
 2545 006b 13       		.uleb128 0x13
 2546 006c 00       		.byte	0
 2547 006d 00       		.byte	0
 2548 006e 09       		.uleb128 0x9
 2549 006f 0F       		.uleb128 0xf
 2550 0070 00       		.byte	0
 2551 0071 0B       		.uleb128 0xb
GAS LISTING C:\cygwin\tmp\ccclv1xX.s 			page 56


 2552 0072 0B       		.uleb128 0xb
 2553 0073 00       		.byte	0
 2554 0074 00       		.byte	0
 2555 0075 0A       		.uleb128 0xa
 2556 0076 35       		.uleb128 0x35
 2557 0077 00       		.byte	0
 2558 0078 49       		.uleb128 0x49
 2559 0079 13       		.uleb128 0x13
 2560 007a 00       		.byte	0
 2561 007b 00       		.byte	0
 2562 007c 0B       		.uleb128 0xb
 2563 007d 13       		.uleb128 0x13
 2564 007e 01       		.byte	0x1
 2565 007f 03       		.uleb128 0x3
 2566 0080 0E       		.uleb128 0xe
 2567 0081 0B       		.uleb128 0xb
 2568 0082 0B       		.uleb128 0xb
 2569 0083 3A       		.uleb128 0x3a
 2570 0084 0B       		.uleb128 0xb
 2571 0085 3B       		.uleb128 0x3b
 2572 0086 0B       		.uleb128 0xb
 2573 0087 01       		.uleb128 0x1
 2574 0088 13       		.uleb128 0x13
 2575 0089 00       		.byte	0
 2576 008a 00       		.byte	0
 2577 008b 0C       		.uleb128 0xc
 2578 008c 16       		.uleb128 0x16
 2579 008d 00       		.byte	0
 2580 008e 03       		.uleb128 0x3
 2581 008f 0E       		.uleb128 0xe
 2582 0090 3A       		.uleb128 0x3a
 2583 0091 0B       		.uleb128 0xb
 2584 0092 3B       		.uleb128 0x3b
 2585 0093 0B       		.uleb128 0xb
 2586 0094 49       		.uleb128 0x49
 2587 0095 13       		.uleb128 0x13
 2588 0096 00       		.byte	0
 2589 0097 00       		.byte	0
 2590 0098 0D       		.uleb128 0xd
 2591 0099 17       		.uleb128 0x17
 2592 009a 01       		.byte	0x1
 2593 009b 0B       		.uleb128 0xb
 2594 009c 0B       		.uleb128 0xb
 2595 009d 3A       		.uleb128 0x3a
 2596 009e 0B       		.uleb128 0xb
 2597 009f 3B       		.uleb128 0x3b
 2598 00a0 0B       		.uleb128 0xb
 2599 00a1 01       		.uleb128 0x1
 2600 00a2 13       		.uleb128 0x13
 2601 00a3 00       		.byte	0
 2602 00a4 00       		.byte	0
 2603 00a5 0E       		.uleb128 0xe
 2604 00a6 0D       		.uleb128 0xd
 2605 00a7 00       		.byte	0
 2606 00a8 03       		.uleb128 0x3
 2607 00a9 08       		.uleb128 0x8
 2608 00aa 3A       		.uleb128 0x3a
GAS LISTING C:\cygwin\tmp\ccclv1xX.s 			page 57


 2609 00ab 0B       		.uleb128 0xb
 2610 00ac 3B       		.uleb128 0x3b
 2611 00ad 0B       		.uleb128 0xb
 2612 00ae 49       		.uleb128 0x49
 2613 00af 13       		.uleb128 0x13
 2614 00b0 00       		.byte	0
 2615 00b1 00       		.byte	0
 2616 00b2 0F       		.uleb128 0xf
 2617 00b3 26       		.uleb128 0x26
 2618 00b4 00       		.byte	0
 2619 00b5 49       		.uleb128 0x49
 2620 00b6 13       		.uleb128 0x13
 2621 00b7 00       		.byte	0
 2622 00b8 00       		.byte	0
 2623 00b9 10       		.uleb128 0x10
 2624 00ba 2E       		.uleb128 0x2e
 2625 00bb 01       		.byte	0x1
 2626 00bc 3F       		.uleb128 0x3f
 2627 00bd 0C       		.uleb128 0xc
 2628 00be 03       		.uleb128 0x3
 2629 00bf 08       		.uleb128 0x8
 2630 00c0 3A       		.uleb128 0x3a
 2631 00c1 0B       		.uleb128 0xb
 2632 00c2 3B       		.uleb128 0x3b
 2633 00c3 0B       		.uleb128 0xb
 2634 00c4 27       		.uleb128 0x27
 2635 00c5 0C       		.uleb128 0xc
 2636 00c6 11       		.uleb128 0x11
 2637 00c7 01       		.uleb128 0x1
 2638 00c8 12       		.uleb128 0x12
 2639 00c9 01       		.uleb128 0x1
 2640 00ca 40       		.uleb128 0x40
 2641 00cb 06       		.uleb128 0x6
 2642 00cc 01       		.uleb128 0x1
 2643 00cd 13       		.uleb128 0x13
 2644 00ce 00       		.byte	0
 2645 00cf 00       		.byte	0
 2646 00d0 11       		.uleb128 0x11
 2647 00d1 05       		.uleb128 0x5
 2648 00d2 00       		.byte	0
 2649 00d3 03       		.uleb128 0x3
 2650 00d4 08       		.uleb128 0x8
 2651 00d5 3A       		.uleb128 0x3a
 2652 00d6 0B       		.uleb128 0xb
 2653 00d7 3B       		.uleb128 0x3b
 2654 00d8 0B       		.uleb128 0xb
 2655 00d9 49       		.uleb128 0x49
 2656 00da 13       		.uleb128 0x13
 2657 00db 02       		.uleb128 0x2
 2658 00dc 0A       		.uleb128 0xa
 2659 00dd 00       		.byte	0
 2660 00de 00       		.byte	0
 2661 00df 12       		.uleb128 0x12
 2662 00e0 34       		.uleb128 0x34
 2663 00e1 00       		.byte	0
 2664 00e2 03       		.uleb128 0x3
 2665 00e3 08       		.uleb128 0x8
GAS LISTING C:\cygwin\tmp\ccclv1xX.s 			page 58


 2666 00e4 3A       		.uleb128 0x3a
 2667 00e5 0B       		.uleb128 0xb
 2668 00e6 3B       		.uleb128 0x3b
 2669 00e7 0B       		.uleb128 0xb
 2670 00e8 49       		.uleb128 0x49
 2671 00e9 13       		.uleb128 0x13
 2672 00ea 02       		.uleb128 0x2
 2673 00eb 0A       		.uleb128 0xa
 2674 00ec 00       		.byte	0
 2675 00ed 00       		.byte	0
 2676 00ee 13       		.uleb128 0x13
 2677 00ef 2E       		.uleb128 0x2e
 2678 00f0 01       		.byte	0x1
 2679 00f1 3F       		.uleb128 0x3f
 2680 00f2 0C       		.uleb128 0xc
 2681 00f3 03       		.uleb128 0x3
 2682 00f4 08       		.uleb128 0x8
 2683 00f5 3A       		.uleb128 0x3a
 2684 00f6 0B       		.uleb128 0xb
 2685 00f7 3B       		.uleb128 0x3b
 2686 00f8 0B       		.uleb128 0xb
 2687 00f9 27       		.uleb128 0x27
 2688 00fa 0C       		.uleb128 0xc
 2689 00fb 49       		.uleb128 0x49
 2690 00fc 13       		.uleb128 0x13
 2691 00fd 11       		.uleb128 0x11
 2692 00fe 01       		.uleb128 0x1
 2693 00ff 12       		.uleb128 0x12
 2694 0100 01       		.uleb128 0x1
 2695 0101 40       		.uleb128 0x40
 2696 0102 06       		.uleb128 0x6
 2697 0103 01       		.uleb128 0x1
 2698 0104 13       		.uleb128 0x13
 2699 0105 00       		.byte	0
 2700 0106 00       		.byte	0
 2701 0107 14       		.uleb128 0x14
 2702 0108 2E       		.uleb128 0x2e
 2703 0109 01       		.byte	0x1
 2704 010a 3F       		.uleb128 0x3f
 2705 010b 0C       		.uleb128 0xc
 2706 010c 03       		.uleb128 0x3
 2707 010d 08       		.uleb128 0x8
 2708 010e 3A       		.uleb128 0x3a
 2709 010f 0B       		.uleb128 0xb
 2710 0110 3B       		.uleb128 0x3b
 2711 0111 05       		.uleb128 0x5
 2712 0112 27       		.uleb128 0x27
 2713 0113 0C       		.uleb128 0xc
 2714 0114 11       		.uleb128 0x11
 2715 0115 01       		.uleb128 0x1
 2716 0116 12       		.uleb128 0x12
 2717 0117 01       		.uleb128 0x1
 2718 0118 40       		.uleb128 0x40
 2719 0119 06       		.uleb128 0x6
 2720 011a 01       		.uleb128 0x1
 2721 011b 13       		.uleb128 0x13
 2722 011c 00       		.byte	0
GAS LISTING C:\cygwin\tmp\ccclv1xX.s 			page 59


 2723 011d 00       		.byte	0
 2724 011e 15       		.uleb128 0x15
 2725 011f 05       		.uleb128 0x5
 2726 0120 00       		.byte	0
 2727 0121 03       		.uleb128 0x3
 2728 0122 08       		.uleb128 0x8
 2729 0123 3A       		.uleb128 0x3a
 2730 0124 0B       		.uleb128 0xb
 2731 0125 3B       		.uleb128 0x3b
 2732 0126 05       		.uleb128 0x5
 2733 0127 49       		.uleb128 0x49
 2734 0128 13       		.uleb128 0x13
 2735 0129 02       		.uleb128 0x2
 2736 012a 0A       		.uleb128 0xa
 2737 012b 00       		.byte	0
 2738 012c 00       		.byte	0
 2739 012d 16       		.uleb128 0x16
 2740 012e 0B       		.uleb128 0xb
 2741 012f 01       		.byte	0x1
 2742 0130 11       		.uleb128 0x11
 2743 0131 01       		.uleb128 0x1
 2744 0132 12       		.uleb128 0x12
 2745 0133 01       		.uleb128 0x1
 2746 0134 00       		.byte	0
 2747 0135 00       		.byte	0
 2748 0136 17       		.uleb128 0x17
 2749 0137 34       		.uleb128 0x34
 2750 0138 00       		.byte	0
 2751 0139 03       		.uleb128 0x3
 2752 013a 08       		.uleb128 0x8
 2753 013b 3A       		.uleb128 0x3a
 2754 013c 0B       		.uleb128 0xb
 2755 013d 3B       		.uleb128 0x3b
 2756 013e 05       		.uleb128 0x5
 2757 013f 49       		.uleb128 0x49
 2758 0140 13       		.uleb128 0x13
 2759 0141 02       		.uleb128 0x2
 2760 0142 0A       		.uleb128 0xa
 2761 0143 00       		.byte	0
 2762 0144 00       		.byte	0
 2763 0145 18       		.uleb128 0x18
 2764 0146 2E       		.uleb128 0x2e
 2765 0147 01       		.byte	0x1
 2766 0148 3F       		.uleb128 0x3f
 2767 0149 0C       		.uleb128 0xc
 2768 014a 03       		.uleb128 0x3
 2769 014b 08       		.uleb128 0x8
 2770 014c 3A       		.uleb128 0x3a
 2771 014d 0B       		.uleb128 0xb
 2772 014e 3B       		.uleb128 0x3b
 2773 014f 05       		.uleb128 0x5
 2774 0150 27       		.uleb128 0x27
 2775 0151 0C       		.uleb128 0xc
 2776 0152 49       		.uleb128 0x49
 2777 0153 13       		.uleb128 0x13
 2778 0154 11       		.uleb128 0x11
 2779 0155 01       		.uleb128 0x1
GAS LISTING C:\cygwin\tmp\ccclv1xX.s 			page 60


 2780 0156 12       		.uleb128 0x12
 2781 0157 01       		.uleb128 0x1
 2782 0158 40       		.uleb128 0x40
 2783 0159 06       		.uleb128 0x6
 2784 015a 01       		.uleb128 0x1
 2785 015b 13       		.uleb128 0x13
 2786 015c 00       		.byte	0
 2787 015d 00       		.byte	0
 2788 015e 19       		.uleb128 0x19
 2789 015f 2E       		.uleb128 0x2e
 2790 0160 00       		.byte	0
 2791 0161 03       		.uleb128 0x3
 2792 0162 08       		.uleb128 0x8
 2793 0163 27       		.uleb128 0x27
 2794 0164 0C       		.uleb128 0xc
 2795 0165 34       		.uleb128 0x34
 2796 0166 0C       		.uleb128 0xc
 2797 0167 11       		.uleb128 0x11
 2798 0168 01       		.uleb128 0x1
 2799 0169 12       		.uleb128 0x12
 2800 016a 01       		.uleb128 0x1
 2801 016b 40       		.uleb128 0x40
 2802 016c 06       		.uleb128 0x6
 2803 016d 00       		.byte	0
 2804 016e 00       		.byte	0
 2805 016f 1A       		.uleb128 0x1a
 2806 0170 34       		.uleb128 0x34
 2807 0171 00       		.byte	0
 2808 0172 03       		.uleb128 0x3
 2809 0173 08       		.uleb128 0x8
 2810 0174 3A       		.uleb128 0x3a
 2811 0175 0B       		.uleb128 0xb
 2812 0176 3B       		.uleb128 0x3b
 2813 0177 0B       		.uleb128 0xb
 2814 0178 49       		.uleb128 0x49
 2815 0179 13       		.uleb128 0x13
 2816 017a 3F       		.uleb128 0x3f
 2817 017b 0C       		.uleb128 0xc
 2818 017c 3C       		.uleb128 0x3c
 2819 017d 0C       		.uleb128 0xc
 2820 017e 00       		.byte	0
 2821 017f 00       		.byte	0
 2822 0180 00       		.byte	0
 2823              		.section	.debug_loc,"dr"
 2824              	Ldebug_loc0:
 2825              	LLST0:
 2826 0000 00000000 		.long	LFB0-Ltext0
 2827 0004 03000000 		.long	LCFI0-Ltext0
 2828 0008 0200     		.word	0x2
 2829 000a 74       		.byte	0x74
 2830 000b 04       		.sleb128 4
 2831 000c 03000000 		.long	LCFI0-Ltext0
 2832 0010 8D000000 		.long	LCFI1-Ltext0
 2833 0014 0200     		.word	0x2
 2834 0016 74       		.byte	0x74
 2835 0017 08       		.sleb128 8
 2836 0018 8D000000 		.long	LCFI1-Ltext0
GAS LISTING C:\cygwin\tmp\ccclv1xX.s 			page 61


 2837 001c 8E000000 		.long	LFE0-Ltext0
 2838 0020 0200     		.word	0x2
 2839 0022 74       		.byte	0x74
 2840 0023 04       		.sleb128 4
 2841 0024 00000000 		.long	0
 2842 0028 00000000 		.long	0
 2843              	LLST1:
 2844 002c 8E000000 		.long	LFB1-Ltext0
 2845 0030 91000000 		.long	LCFI2-Ltext0
 2846 0034 0200     		.word	0x2
 2847 0036 74       		.byte	0x74
 2848 0037 04       		.sleb128 4
 2849 0038 91000000 		.long	LCFI2-Ltext0
 2850 003c 3B010000 		.long	LCFI3-Ltext0
 2851 0040 0200     		.word	0x2
 2852 0042 74       		.byte	0x74
 2853 0043 20       		.sleb128 32
 2854 0044 3B010000 		.long	LCFI3-Ltext0
 2855 0048 3C010000 		.long	LFE1-Ltext0
 2856 004c 0200     		.word	0x2
 2857 004e 74       		.byte	0x74
 2858 004f 04       		.sleb128 4
 2859 0050 00000000 		.long	0
 2860 0054 00000000 		.long	0
 2861              	LLST2:
 2862 0058 3C010000 		.long	LFB2-Ltext0
 2863 005c 3F010000 		.long	LCFI4-Ltext0
 2864 0060 0200     		.word	0x2
 2865 0062 74       		.byte	0x74
 2866 0063 04       		.sleb128 4
 2867 0064 3F010000 		.long	LCFI4-Ltext0
 2868 0068 DD020000 		.long	LCFI5-Ltext0
 2869 006c 0200     		.word	0x2
 2870 006e 74       		.byte	0x74
 2871 006f 30       		.sleb128 48
 2872 0070 DD020000 		.long	LCFI5-Ltext0
 2873 0074 DE020000 		.long	LFE2-Ltext0
 2874 0078 0200     		.word	0x2
 2875 007a 74       		.byte	0x74
 2876 007b 04       		.sleb128 4
 2877 007c 00000000 		.long	0
 2878 0080 00000000 		.long	0
 2879              	LLST3:
 2880 0084 DE020000 		.long	LFB3-Ltext0
 2881 0088 E1020000 		.long	LCFI6-Ltext0
 2882 008c 0200     		.word	0x2
 2883 008e 74       		.byte	0x74
 2884 008f 04       		.sleb128 4
 2885 0090 E1020000 		.long	LCFI6-Ltext0
 2886 0094 6A030000 		.long	LCFI7-Ltext0
 2887 0098 0200     		.word	0x2
 2888 009a 74       		.byte	0x74
 2889 009b 30       		.sleb128 48
 2890 009c 6A030000 		.long	LCFI7-Ltext0
 2891 00a0 6B030000 		.long	LFE3-Ltext0
 2892 00a4 0200     		.word	0x2
 2893 00a6 74       		.byte	0x74
GAS LISTING C:\cygwin\tmp\ccclv1xX.s 			page 62


 2894 00a7 04       		.sleb128 4
 2895 00a8 00000000 		.long	0
 2896 00ac 00000000 		.long	0
 2897              	LLST4:
 2898 00b0 6B030000 		.long	LFB4-Ltext0
 2899 00b4 6E030000 		.long	LCFI8-Ltext0
 2900 00b8 0200     		.word	0x2
 2901 00ba 74       		.byte	0x74
 2902 00bb 04       		.sleb128 4
 2903 00bc 6E030000 		.long	LCFI8-Ltext0
 2904 00c0 E4040000 		.long	LCFI9-Ltext0
 2905 00c4 0200     		.word	0x2
 2906 00c6 74       		.byte	0x74
 2907 00c7 20       		.sleb128 32
 2908 00c8 E4040000 		.long	LCFI9-Ltext0
 2909 00cc E5040000 		.long	LFE4-Ltext0
 2910 00d0 0200     		.word	0x2
 2911 00d2 74       		.byte	0x74
 2912 00d3 04       		.sleb128 4
 2913 00d4 00000000 		.long	0
 2914 00d8 00000000 		.long	0
 2915              	LLST5:
 2916 00dc E5040000 		.long	LFB5-Ltext0
 2917 00e0 E8040000 		.long	LCFI10-Ltext0
 2918 00e4 0200     		.word	0x2
 2919 00e6 74       		.byte	0x74
 2920 00e7 04       		.sleb128 4
 2921 00e8 E8040000 		.long	LCFI10-Ltext0
 2922 00ec 79050000 		.long	LCFI11-Ltext0
 2923 00f0 0200     		.word	0x2
 2924 00f2 74       		.byte	0x74
 2925 00f3 30       		.sleb128 48
 2926 00f4 79050000 		.long	LCFI11-Ltext0
 2927 00f8 7A050000 		.long	LFE5-Ltext0
 2928 00fc 0200     		.word	0x2
 2929 00fe 74       		.byte	0x74
 2930 00ff 04       		.sleb128 4
 2931 0100 00000000 		.long	0
 2932 0104 00000000 		.long	0
 2933              	LLST6:
 2934 0108 7A050000 		.long	LFB6-Ltext0
 2935 010c 7D050000 		.long	LCFI12-Ltext0
 2936 0110 0200     		.word	0x2
 2937 0112 74       		.byte	0x74
 2938 0113 04       		.sleb128 4
 2939 0114 7D050000 		.long	LCFI12-Ltext0
 2940 0118 33070000 		.long	LCFI13-Ltext0
 2941 011c 0200     		.word	0x2
 2942 011e 74       		.byte	0x74
 2943 011f 20       		.sleb128 32
 2944 0120 33070000 		.long	LCFI13-Ltext0
 2945 0124 34070000 		.long	LFE6-Ltext0
 2946 0128 0200     		.word	0x2
 2947 012a 74       		.byte	0x74
 2948 012b 04       		.sleb128 4
 2949 012c 00000000 		.long	0
 2950 0130 00000000 		.long	0
GAS LISTING C:\cygwin\tmp\ccclv1xX.s 			page 63


 2951              	LLST7:
 2952 0134 34070000 		.long	LFB7-Ltext0
 2953 0138 37070000 		.long	LCFI14-Ltext0
 2954 013c 0200     		.word	0x2
 2955 013e 74       		.byte	0x74
 2956 013f 04       		.sleb128 4
 2957 0140 37070000 		.long	LCFI14-Ltext0
 2958 0144 C2080000 		.long	LCFI15-Ltext0
 2959 0148 0200     		.word	0x2
 2960 014a 74       		.byte	0x74
 2961 014b 20       		.sleb128 32
 2962 014c C2080000 		.long	LCFI15-Ltext0
 2963 0150 C3080000 		.long	LFE7-Ltext0
 2964 0154 0200     		.word	0x2
 2965 0156 74       		.byte	0x74
 2966 0157 04       		.sleb128 4
 2967 0158 00000000 		.long	0
 2968 015c 00000000 		.long	0
 2969              	LLST8:
 2970 0160 C3080000 		.long	LFB8-Ltext0
 2971 0164 C6080000 		.long	LCFI16-Ltext0
 2972 0168 0200     		.word	0x2
 2973 016a 74       		.byte	0x74
 2974 016b 04       		.sleb128 4
 2975 016c C6080000 		.long	LCFI16-Ltext0
 2976 0170 200A0000 		.long	LCFI17-Ltext0
 2977 0174 0200     		.word	0x2
 2978 0176 74       		.byte	0x74
 2979 0177 30       		.sleb128 48
 2980 0178 200A0000 		.long	LCFI17-Ltext0
 2981 017c 210A0000 		.long	LFE8-Ltext0
 2982 0180 0200     		.word	0x2
 2983 0182 74       		.byte	0x74
 2984 0183 04       		.sleb128 4
 2985 0184 00000000 		.long	0
 2986 0188 00000000 		.long	0
 2987              	LLST9:
 2988 018c 210A0000 		.long	LFB9-Ltext0
 2989 0190 240A0000 		.long	LCFI18-Ltext0
 2990 0194 0200     		.word	0x2
 2991 0196 74       		.byte	0x74
 2992 0197 04       		.sleb128 4
 2993 0198 240A0000 		.long	LCFI18-Ltext0
 2994 019c F00B0000 		.long	LCFI19-Ltext0
 2995 01a0 0200     		.word	0x2
 2996 01a2 74       		.byte	0x74
 2997 01a3 20       		.sleb128 32
 2998 01a4 F00B0000 		.long	LCFI19-Ltext0
 2999 01a8 F10B0000 		.long	LFE9-Ltext0
 3000 01ac 0200     		.word	0x2
 3001 01ae 74       		.byte	0x74
 3002 01af 04       		.sleb128 4
 3003 01b0 00000000 		.long	0
 3004 01b4 00000000 		.long	0
 3005              	LLST10:
 3006 01b8 F10B0000 		.long	LFB10-Ltext0
 3007 01bc F40B0000 		.long	LCFI20-Ltext0
GAS LISTING C:\cygwin\tmp\ccclv1xX.s 			page 64


 3008 01c0 0200     		.word	0x2
 3009 01c2 74       		.byte	0x74
 3010 01c3 04       		.sleb128 4
 3011 01c4 F40B0000 		.long	LCFI20-Ltext0
 3012 01c8 4B0F0000 		.long	LCFI21-Ltext0
 3013 01cc 0200     		.word	0x2
 3014 01ce 74       		.byte	0x74
 3015 01cf 30       		.sleb128 48
 3016 01d0 4B0F0000 		.long	LCFI21-Ltext0
 3017 01d4 4C0F0000 		.long	LFE10-Ltext0
 3018 01d8 0200     		.word	0x2
 3019 01da 74       		.byte	0x74
 3020 01db 04       		.sleb128 4
 3021 01dc 00000000 		.long	0
 3022 01e0 00000000 		.long	0
 3023              	LLST11:
 3024 01e4 4C0F0000 		.long	LFB11-Ltext0
 3025 01e8 4F0F0000 		.long	LCFI22-Ltext0
 3026 01ec 0200     		.word	0x2
 3027 01ee 74       		.byte	0x74
 3028 01ef 04       		.sleb128 4
 3029 01f0 4F0F0000 		.long	LCFI22-Ltext0
 3030 01f4 5E0F0000 		.long	LCFI23-Ltext0
 3031 01f8 0200     		.word	0x2
 3032 01fa 74       		.byte	0x74
 3033 01fb 20       		.sleb128 32
 3034 01fc 5E0F0000 		.long	LCFI23-Ltext0
 3035 0200 5F0F0000 		.long	LFE11-Ltext0
 3036 0204 0200     		.word	0x2
 3037 0206 74       		.byte	0x74
 3038 0207 04       		.sleb128 4
 3039 0208 00000000 		.long	0
 3040 020c 00000000 		.long	0
 3041              		.section	.debug_aranges,"dr"
 3042 0000 1C000000 		.long	0x1c
 3043 0004 0200     		.word	0x2
 3044 0006 00000000 		.secrel32	Ldebug_info0
 3045 000a 04       		.byte	0x4
 3046 000b 00       		.byte	0
 3047 000c 0000     		.word	0
 3048 000e 0000     		.word	0
 3049 0010 00000000 		.long	Ltext0
 3050 0014 5F0F0000 		.long	Letext0-Ltext0
 3051 0018 00000000 		.long	0
 3052 001c 00000000 		.long	0
 3053              		.section	.debug_line,"dr"
 3054              	Ldebug_line0:
 3055 0000 DF020000 		.section	.debug_str,"dr"
 3055      02000201 
 3055      00000101 
 3055      FB0E0D00 
 3055      01010101 
 3056              	LASF1:
 3057 0000 53656D61 		.ascii "Semaphore\0"
 3057      70686F72 
 3057      6500
 3058              	LASF0:
GAS LISTING C:\cygwin\tmp\ccclv1xX.s 			page 65


 3059 000a 705F6E65 		.ascii "p_next\0"
 3059      787400
 3060              		.def	_chSchRescheduleS;	.scl	2;	.type	32;	.endef
 3061              		.def	_lifo_remove;	.scl	2;	.type	32;	.endef
 3062              		.def	_chSchReadyI;	.scl	2;	.type	32;	.endef
 3063              		.def	_queue_insert;	.scl	2;	.type	32;	.endef
 3064              		.def	_chSchGoSleepS;	.scl	2;	.type	32;	.endef
 3065              		.def	_chSchGoSleepTimeoutS;	.scl	2;	.type	32;	.endef
 3066              		.def	_fifo_remove;	.scl	2;	.type	32;	.endef
 3067              		.def	_chSchWakeupS;	.scl	2;	.type	32;	.endef
 3068              		.def	___gcov_merge_add;	.scl	2;	.type	32;	.endef
 3069              		.def	___gcov_init;	.scl	2;	.type	32;	.endef
GAS LISTING C:\cygwin\tmp\ccclv1xX.s 			page 66


DEFINED SYMBOLS
                            *ABS*:00000000 chsem.c
C:\cygwin\tmp\ccclv1xX.s:44     .text:00000000 _chSemInit
C:\cygwin\tmp\ccclv1xX.s:102    .text:0000008e _chSemReset
C:\cygwin\tmp\ccclv1xX.s:169    .text:0000013c _chSemResetI
C:\cygwin\tmp\ccclv1xX.s:310    .text:000002de _chSemWait
C:\cygwin\tmp\ccclv1xX.s:370    .text:0000036b _chSemWaitS
C:\cygwin\tmp\ccclv1xX.s:497    .text:000004e5 _chSemWaitTimeout
C:\cygwin\tmp\ccclv1xX.s:559    .text:0000057a _chSemWaitTimeoutS
C:\cygwin\tmp\ccclv1xX.s:705    .text:00000734 _chSemSignal
C:\cygwin\tmp\ccclv1xX.s:842    .text:000008c3 _chSemSignalI
C:\cygwin\tmp\ccclv1xX.s:961    .text:00000a21 _chSemAddCounterI
C:\cygwin\tmp\ccclv1xX.s:1108   .text:00000bf1 _chSemSignalWait
C:\cygwin\tmp\ccclv1xX.s:1485   .text:00000f4c __GLOBAL__sub_I_65535_0_chSemInit

UNDEFINED SYMBOLS
_rlist
_chSchRescheduleS
_lifo_remove
_chSchReadyI
_queue_insert
_chSchGoSleepS
_chSchGoSleepTimeoutS
_fifo_remove
_chSchWakeupS
___gcov_merge_add
___gcov_init
