GAS LISTING C:\cygwin\tmp\ccclv1xX.s 			page 1


   1              		.file	"chsem.c"
   2              	 # GNU C (GCC) version 4.6.2 (mingw32)
   3              	 #	compiled by GNU C version 4.6.2, GMP version 5.0.1, MPFR version 2.4.1, MPC version 0.8.1
   4              	 # GGC heuristics: --param ggc-min-expand=100 --param ggc-min-heapsize=131072
   5              	 # options passed:  -I . -I ../../os/ports/GCC/SIMIA32
   6              	 # -I ../../os/kernel/include -I ../../test -I ../../os/hal/include
   7              	 # -I ../../os/hal/platforms/Win32 -I ../../boards/simulator
   8              	 # -I ../../os/various -iprefix c:\mingw\bin\../lib/gcc/mingw32/4.6.2/
   9              	 # -MD ../../os/kernel/src/chsem.d -MF .dep/chsem.o.d -MP
  10              	 # -MQ ../../os/kernel/src/chsem.o -D SIMULATOR ../../os/kernel/src/chsem.c
  11              	 # -mtune=i386 -march=i386 -auxbase-strip ../../os/kernel/src/chsem.o -ggdb
  12              	 # -O0 -Wall -Wextra -Wstrict-prototypes -fomit-frame-pointer
  13              	 # -fprofile-arcs -ftest-coverage -fverbose-asm
  14              	 # options enabled:  -fasynchronous-unwind-tables -fauto-inc-dec
  15              	 # -fbranch-count-reg -fcommon -fdelete-null-pointer-checks
  16              	 # -fdwarf2-cfi-asm -fearly-inlining -feliminate-unused-debug-types
  17              	 # -ffunction-cse -fgcse-lm -fident -finline-functions-called-once
  18              	 # -fira-share-save-slots -fira-share-spill-slots -fivopts
  19              	 # -fkeep-inline-dllexport -fkeep-static-consts -fleading-underscore
  20              	 # -fmath-errno -fmerge-debug-strings -fmove-loop-invariants
  21              	 # -fomit-frame-pointer -fpeephole -fprefetch-loop-arrays -fprofile-arcs
  22              	 # -freg-struct-return -fsched-critical-path-heuristic
  23              	 # -fsched-dep-count-heuristic -fsched-group-heuristic -fsched-interblock
  24              	 # -fsched-last-insn-heuristic -fsched-rank-heuristic -fsched-spec
  25              	 # -fsched-spec-insn-heuristic -fsched-stalled-insns-dep
  26              	 # -fset-stack-executable -fshow-column -fsigned-zeros
  27              	 # -fsplit-ivs-in-unroller -fstrict-volatile-bitfields -ftest-coverage
  28              	 # -ftrapping-math -ftree-cselim -ftree-forwprop -ftree-loop-if-convert
  29              	 # -ftree-loop-im -ftree-loop-ivcanon -ftree-loop-optimize
  30              	 # -ftree-parallelize-loops= -ftree-phiprop -ftree-pta -ftree-reassoc
  31              	 # -ftree-scev-cprop -ftree-slp-vectorize -ftree-vect-loop-version
  32              	 # -funit-at-a-time -funwind-tables -fvect-cost-model -fverbose-asm
  33              	 # -fzero-initialized-in-bss -m32 -m80387 -m96bit-long-double
  34              	 # -maccumulate-outgoing-args -malign-double -malign-stringops
  35              	 # -mfancy-math-387 -mfp-ret-in-387 -mieee-fp -mno-red-zone -mno-sse4
  36              	 # -mpush-args -msahf -mstack-arg-probe
  37              	
  38              		.text
  39              	Ltext0:
  40              	 # Compiler executable checksum: c20aed7c018482d7b62efcd5dcab2a9d
  41              	
  42              		.globl	_chSemInit
  43              		.def	_chSemInit;	.scl	2;	.type	32;	.endef
  44              	_chSemInit:
  45              	LFB0:
  46              		.file 1 "../../os/kernel/src/chsem.c"
  47              		.loc 1 79 0
  48              		.cfi_startproc
  49 0000 83EC04   		subl	$4, %esp	 #,
  50              	LCFI0:
  51              		.cfi_def_cfa_offset 8
  52              		.loc 1 81 0
  53 0003 837C2408 		cmpl	$0, 8(%esp)	 #, sp
  53      00
  54 0008 7441     		je	L2	 #,
  55              		.loc 1 81 0 is_stmt 0 discriminator 1
  56 000a A1C80200 		movl	LPBX1+712, %eax	 # *LPBX1, PROF_edge_counter.22
GAS LISTING C:\cygwin\tmp\ccclv1xX.s 			page 2


  56      00
  57 000f 8B15CC02 		movl	LPBX1+716, %edx	 # *LPBX1, PROF_edge_counter.22
  57      0000
  58 0015 83C001   		addl	$1, %eax	 #, PROF_edge_counter.22
  59 0018 83D200   		adcl	$0, %edx	 #, PROF_edge_counter.22
  60 001b A3C80200 		movl	%eax, LPBX1+712	 # PROF_edge_counter.22, *LPBX1
  60      00
  61 0020 8915CC02 		movl	%edx, LPBX1+716	 # PROF_edge_counter.22, *LPBX1
  61      0000
  62 0026 837C240C 		cmpl	$0, 12(%esp)	 #, n
  62      00
  63 002b 781E     		js	L2	 #,
  64              		.loc 1 81 0 discriminator 3
  65 002d A1D00200 		movl	LPBX1+720, %eax	 # *LPBX1, PROF_edge_counter.22
  65      00
  66 0032 8B15D402 		movl	LPBX1+724, %edx	 # *LPBX1, PROF_edge_counter.22
  66      0000
  67 0038 83C001   		addl	$1, %eax	 #, PROF_edge_counter.22
  68 003b 83D200   		adcl	$0, %edx	 #, PROF_edge_counter.22
  69 003e A3D00200 		movl	%eax, LPBX1+720	 # PROF_edge_counter.22, *LPBX1
  69      00
  70 0043 8915D402 		movl	%edx, LPBX1+724	 # PROF_edge_counter.22, *LPBX1
  70      0000
  71 0049 EB1C     		jmp	L3	 #
  72              	L2:
  73              		.loc 1 81 0 discriminator 2
  74 004b A1D80200 		movl	LPBX1+728, %eax	 # *LPBX1, PROF_edge_counter.22
  74      00
  75 0050 8B15DC02 		movl	LPBX1+732, %edx	 # *LPBX1, PROF_edge_counter.22
  75      0000
  76 0056 83C001   		addl	$1, %eax	 #, PROF_edge_counter.22
  77 0059 83D200   		adcl	$0, %edx	 #, PROF_edge_counter.22
  78 005c A3D80200 		movl	%eax, LPBX1+728	 # PROF_edge_counter.22, *LPBX1
  78      00
  79 0061 8915DC02 		movl	%edx, LPBX1+732	 # PROF_edge_counter.22, *LPBX1
  79      0000
  80              	L3:
  81              		.loc 1 83 0 is_stmt 1
  82 0067 8B542408 		movl	8(%esp), %edx	 # sp, D.2972
  83 006b 8B442408 		movl	8(%esp), %eax	 # sp, tmp69
  84 006f 895004   		movl	%edx, 4(%eax)	 # D.2972, sp_1(D)->s_queue.p_prev
  85 0072 8B442408 		movl	8(%esp), %eax	 # sp, tmp70
  86 0076 8B5004   		movl	4(%eax), %edx	 # sp_1(D)->s_queue.p_prev, D.2973
  87 0079 8B442408 		movl	8(%esp), %eax	 # sp, tmp71
  88 007d 8910     		movl	%edx, (%eax)	 # D.2973, sp_1(D)->s_queue.p_next
  89              		.loc 1 84 0
  90 007f 8B442408 		movl	8(%esp), %eax	 # sp, tmp72
  91 0083 8B54240C 		movl	12(%esp), %edx	 # n, tmp73
  92 0087 895008   		movl	%edx, 8(%eax)	 # tmp73, sp_1(D)->s_cnt
  93              		.loc 1 85 0
  94 008a 83C404   		addl	$4, %esp	 #,
  95              	LCFI1:
  96              		.cfi_def_cfa_offset 4
  97 008d C3       		ret
  98              		.cfi_endproc
  99              	LFE0:
 100              		.globl	_chSemReset
GAS LISTING C:\cygwin\tmp\ccclv1xX.s 			page 3


 101              		.def	_chSemReset;	.scl	2;	.type	32;	.endef
 102              	_chSemReset:
 103              	LFB1:
 104              		.loc 1 102 0
 105              		.cfi_startproc
 106 008e 83EC1C   		subl	$28, %esp	 #,
 107              	LCFI2:
 108              		.cfi_def_cfa_offset 32
 109              		.loc 1 102 0
 110 0091 A1A00200 		movl	LPBX1+672, %eax	 # *LPBX1, PROF_edge_counter.21
 110      00
 111 0096 8B15A402 		movl	LPBX1+676, %edx	 # *LPBX1, PROF_edge_counter.21
 111      0000
 112 009c 83C001   		addl	$1, %eax	 #, PROF_edge_counter.21
 113 009f 83D200   		adcl	$0, %edx	 #, PROF_edge_counter.21
 114 00a2 A3A00200 		movl	%eax, LPBX1+672	 # PROF_edge_counter.21, *LPBX1
 114      00
 115 00a7 8915A402 		movl	%edx, LPBX1+676	 # PROF_edge_counter.21, *LPBX1
 115      0000
 116              		.loc 1 104 0
 117              	/APP
 118              	 # 104 "../../os/kernel/src/chsem.c" 1
 119 00ad 90       		nop
 120              	 # 0 "" 2
 121              	/NO_APP
 122 00ae A1A80200 		movl	LPBX1+680, %eax	 # *LPBX1, PROF_edge_counter.21
 122      00
 123 00b3 8B15AC02 		movl	LPBX1+684, %edx	 # *LPBX1, PROF_edge_counter.21
 123      0000
 124 00b9 83C001   		addl	$1, %eax	 #, PROF_edge_counter.21
 125 00bc 83D200   		adcl	$0, %edx	 #, PROF_edge_counter.21
 126 00bf A3A80200 		movl	%eax, LPBX1+680	 # PROF_edge_counter.21, *LPBX1
 126      00
 127 00c4 8915AC02 		movl	%edx, LPBX1+684	 # PROF_edge_counter.21, *LPBX1
 127      0000
 128              		.loc 1 105 0
 129 00ca 8B442424 		movl	36(%esp), %eax	 # n, tmp69
 130 00ce 89442404 		movl	%eax, 4(%esp)	 # tmp69,
 131 00d2 8B442420 		movl	32(%esp), %eax	 # sp, tmp70
 132 00d6 890424   		movl	%eax, (%esp)	 # tmp70,
 133 00d9 E85E0000 		call	_chSemResetI	 #
 133      00
 134 00de A1B00200 		movl	LPBX1+688, %eax	 # *LPBX1, PROF_edge_counter.21
 134      00
 135 00e3 8B15B402 		movl	LPBX1+692, %edx	 # *LPBX1, PROF_edge_counter.21
 135      0000
 136 00e9 83C001   		addl	$1, %eax	 #, PROF_edge_counter.21
 137 00ec 83D200   		adcl	$0, %edx	 #, PROF_edge_counter.21
 138 00ef A3B00200 		movl	%eax, LPBX1+688	 # PROF_edge_counter.21, *LPBX1
 138      00
 139 00f4 8915B402 		movl	%edx, LPBX1+692	 # PROF_edge_counter.21, *LPBX1
 139      0000
 140              		.loc 1 106 0
 141 00fa E8000000 		call	_chSchRescheduleS	 #
 141      00
 142 00ff A1B80200 		movl	LPBX1+696, %eax	 # *LPBX1, PROF_edge_counter.21
 142      00
GAS LISTING C:\cygwin\tmp\ccclv1xX.s 			page 4


 143 0104 8B15BC02 		movl	LPBX1+700, %edx	 # *LPBX1, PROF_edge_counter.21
 143      0000
 144 010a 83C001   		addl	$1, %eax	 #, PROF_edge_counter.21
 145 010d 83D200   		adcl	$0, %edx	 #, PROF_edge_counter.21
 146 0110 A3B80200 		movl	%eax, LPBX1+696	 # PROF_edge_counter.21, *LPBX1
 146      00
 147 0115 8915BC02 		movl	%edx, LPBX1+700	 # PROF_edge_counter.21, *LPBX1
 147      0000
 148              		.loc 1 107 0
 149              	/APP
 150              	 # 107 "../../os/kernel/src/chsem.c" 1
 151 011b 90       		nop
 152              	 # 0 "" 2
 153              	/NO_APP
 154 011c A1C00200 		movl	LPBX1+704, %eax	 # *LPBX1, PROF_edge_counter.21
 154      00
 155 0121 8B15C402 		movl	LPBX1+708, %edx	 # *LPBX1, PROF_edge_counter.21
 155      0000
 156 0127 83C001   		addl	$1, %eax	 #, PROF_edge_counter.21
 157 012a 83D200   		adcl	$0, %edx	 #, PROF_edge_counter.21
 158 012d A3C00200 		movl	%eax, LPBX1+704	 # PROF_edge_counter.21, *LPBX1
 158      00
 159 0132 8915C402 		movl	%edx, LPBX1+708	 # PROF_edge_counter.21, *LPBX1
 159      0000
 160              		.loc 1 108 0
 161 0138 83C41C   		addl	$28, %esp	 #,
 162              	LCFI3:
 163              		.cfi_def_cfa_offset 4
 164 013b C3       		ret
 165              		.cfi_endproc
 166              	LFE1:
 167              		.globl	_chSemResetI
 168              		.def	_chSemResetI;	.scl	2;	.type	32;	.endef
 169              	_chSemResetI:
 170              	LFB2:
 171              		.loc 1 129 0
 172              		.cfi_startproc
 173 013c 83EC2C   		subl	$44, %esp	 #,
 174              	LCFI4:
 175              		.cfi_def_cfa_offset 48
 176              		.loc 1 133 0
 177 013f 837C2430 		cmpl	$0, 48(%esp)	 #, sp
 177      00
 178 0144 7423     		je	L6	 #,
 179              		.loc 1 133 0 is_stmt 0 discriminator 1
 180 0146 A1500200 		movl	LPBX1+592, %eax	 # *LPBX1, PROF_edge_counter.20
 180      00
 181 014b 8B155402 		movl	LPBX1+596, %edx	 # *LPBX1, PROF_edge_counter.20
 181      0000
 182 0151 83C001   		addl	$1, %eax	 #, PROF_edge_counter.20
 183 0154 83D200   		adcl	$0, %edx	 #, PROF_edge_counter.20
 184 0157 A3500200 		movl	%eax, LPBX1+592	 # PROF_edge_counter.20, *LPBX1
 184      00
 185 015c 89155402 		movl	%edx, LPBX1+596	 # PROF_edge_counter.20, *LPBX1
 185      0000
 186 0162 837C2434 		cmpl	$0, 52(%esp)	 #, n
 186      00
GAS LISTING C:\cygwin\tmp\ccclv1xX.s 			page 5


 187 0167 791C     		jns	L7	 #,
 188              	L6:
 189              		.loc 1 133 0 discriminator 2
 190 0169 A1580200 		movl	LPBX1+600, %eax	 # *LPBX1, PROF_edge_counter.20
 190      00
 191 016e 8B155C02 		movl	LPBX1+604, %edx	 # *LPBX1, PROF_edge_counter.20
 191      0000
 192 0174 83C001   		addl	$1, %eax	 #, PROF_edge_counter.20
 193 0177 83D200   		adcl	$0, %edx	 #, PROF_edge_counter.20
 194 017a A3580200 		movl	%eax, LPBX1+600	 # PROF_edge_counter.20, *LPBX1
 194      00
 195 017f 89155C02 		movl	%edx, LPBX1+604	 # PROF_edge_counter.20, *LPBX1
 195      0000
 196              	L7:
 197              		.loc 1 134 0 is_stmt 1
 198 0185 8B442430 		movl	48(%esp), %eax	 # sp, tmp92
 199 0189 8B4008   		movl	8(%eax), %eax	 # sp_2(D)->s_cnt, D.2956
 200              		.loc 1 129 0
 201 018c 85C0     		testl	%eax, %eax	 # D.2956
 202 018e 782A     		js	L8	 #,
 203 0190 A1600200 		movl	LPBX1+608, %eax	 # *LPBX1, PROF_edge_counter.20
 203      00
 204 0195 8B156402 		movl	LPBX1+612, %edx	 # *LPBX1, PROF_edge_counter.20
 204      0000
 205 019b 83C001   		addl	$1, %eax	 #, PROF_edge_counter.20
 206 019e 83D200   		adcl	$0, %edx	 #, PROF_edge_counter.20
 207 01a1 A3600200 		movl	%eax, LPBX1+608	 # PROF_edge_counter.20, *LPBX1
 207      00
 208 01a6 89156402 		movl	%edx, LPBX1+612	 # PROF_edge_counter.20, *LPBX1
 208      0000
 209              		.loc 1 134 0
 210 01ac 8B442430 		movl	48(%esp), %eax	 # sp, tmp93
 211 01b0 8B10     		movl	(%eax), %edx	 # sp_2(D)->s_queue.p_next, D.2958
 212 01b2 8B442430 		movl	48(%esp), %eax	 # sp, D.2959
 213 01b6 39C2     		cmpl	%eax, %edx	 # D.2959, D.2958
 214 01b8 746F     		je	L15	 #,
 215              	L8:
 216              		.loc 1 134 0 is_stmt 0 discriminator 1
 217 01ba 8B442430 		movl	48(%esp), %eax	 # sp, tmp94
 218 01be 8B4008   		movl	8(%eax), %eax	 # sp_2(D)->s_cnt, D.2960
 219 01c1 85C0     		testl	%eax, %eax	 # D.2960
 220 01c3 7946     		jns	L10	 #,
 221              		.loc 1 134 0 discriminator 2
 222 01c5 A1680200 		movl	LPBX1+616, %eax	 # *LPBX1, PROF_edge_counter.20
 222      00
 223 01ca 8B156C02 		movl	LPBX1+620, %edx	 # *LPBX1, PROF_edge_counter.20
 223      0000
 224 01d0 83C001   		addl	$1, %eax	 #, PROF_edge_counter.20
 225 01d3 83D200   		adcl	$0, %edx	 #, PROF_edge_counter.20
 226 01d6 A3680200 		movl	%eax, LPBX1+616	 # PROF_edge_counter.20, *LPBX1
 226      00
 227 01db 89156C02 		movl	%edx, LPBX1+620	 # PROF_edge_counter.20, *LPBX1
 227      0000
 228 01e1 8B442430 		movl	48(%esp), %eax	 # sp, tmp95
 229 01e5 8B10     		movl	(%eax), %edx	 # sp_2(D)->s_queue.p_next, D.2962
 230 01e7 8B442430 		movl	48(%esp), %eax	 # sp, D.2963
 231 01eb 39C2     		cmpl	%eax, %edx	 # D.2963, D.2962
GAS LISTING C:\cygwin\tmp\ccclv1xX.s 			page 6


 232 01ed 753A     		jne	L15	 #,
 233              	L11:
 234              		.loc 1 129 0 is_stmt 1
 235 01ef A1700200 		movl	LPBX1+624, %eax	 # *LPBX1, PROF_edge_counter.20
 235      00
 236 01f4 8B157402 		movl	LPBX1+628, %edx	 # *LPBX1, PROF_edge_counter.20
 236      0000
 237 01fa 83C001   		addl	$1, %eax	 #, PROF_edge_counter.20
 238 01fd 83D200   		adcl	$0, %edx	 #, PROF_edge_counter.20
 239 0200 A3700200 		movl	%eax, LPBX1+624	 # PROF_edge_counter.20, *LPBX1
 239      00
 240 0205 89157402 		movl	%edx, LPBX1+628	 # PROF_edge_counter.20, *LPBX1
 240      0000
 241              	L10:
 242 020b A1780200 		movl	LPBX1+632, %eax	 # *LPBX1, PROF_edge_counter.20
 242      00
 243 0210 8B157C02 		movl	LPBX1+636, %edx	 # *LPBX1, PROF_edge_counter.20
 243      0000
 244 0216 83C001   		addl	$1, %eax	 #, PROF_edge_counter.20
 245 0219 83D200   		adcl	$0, %edx	 #, PROF_edge_counter.20
 246 021c A3780200 		movl	%eax, LPBX1+632	 # PROF_edge_counter.20, *LPBX1
 246      00
 247 0221 89157C02 		movl	%edx, LPBX1+636	 # PROF_edge_counter.20, *LPBX1
 247      0000
 248 0227 EB01     		jmp	L12	 #
 249              	L15:
 250 0229 90       		nop
 251              	L12:
 252              		.loc 1 139 0
 253 022a 8B442430 		movl	48(%esp), %eax	 # sp, tmp96
 254 022e 8B4008   		movl	8(%eax), %eax	 # sp_2(D)->s_cnt, tmp97
 255 0231 8944241C 		movl	%eax, 28(%esp)	 # tmp97, cnt
 256              		.loc 1 140 0
 257 0235 8B442430 		movl	48(%esp), %eax	 # sp, tmp98
 258 0239 8B542434 		movl	52(%esp), %edx	 # n, tmp99
 259 023d 895008   		movl	%edx, 8(%eax)	 # tmp99, sp_2(D)->s_cnt
 260              		.loc 1 141 0
 261 0240 EB71     		jmp	L13	 #
 262              	L14:
 263 0242 A1900200 		movl	LPBX1+656, %eax	 # *LPBX1, PROF_edge_counter.20
 263      00
 264 0247 8B159402 		movl	LPBX1+660, %edx	 # *LPBX1, PROF_edge_counter.20
 264      0000
 265 024d 83C001   		addl	$1, %eax	 #, PROF_edge_counter.20
 266 0250 83D200   		adcl	$0, %edx	 #, PROF_edge_counter.20
 267 0253 A3900200 		movl	%eax, LPBX1+656	 # PROF_edge_counter.20, *LPBX1
 267      00
 268 0258 89159402 		movl	%edx, LPBX1+660	 # PROF_edge_counter.20, *LPBX1
 268      0000
 269              		.loc 1 142 0
 270 025e 8B442430 		movl	48(%esp), %eax	 # sp, D.2964
 271 0262 890424   		movl	%eax, (%esp)	 # D.2964,
 272 0265 E8000000 		call	_lifo_remove	 #
 272      00
 273 026a 89C1     		movl	%eax, %ecx	 #, D.2965
 274 026c A1800200 		movl	LPBX1+640, %eax	 # *LPBX1, PROF_edge_counter.20
 274      00
GAS LISTING C:\cygwin\tmp\ccclv1xX.s 			page 7


 275 0271 8B158402 		movl	LPBX1+644, %edx	 # *LPBX1, PROF_edge_counter.20
 275      0000
 276 0277 83C001   		addl	$1, %eax	 #, PROF_edge_counter.20
 277 027a 83D200   		adcl	$0, %edx	 #, PROF_edge_counter.20
 278 027d A3800200 		movl	%eax, LPBX1+640	 # PROF_edge_counter.20, *LPBX1
 278      00
 279 0282 89158402 		movl	%edx, LPBX1+644	 # PROF_edge_counter.20, *LPBX1
 279      0000
 280 0288 890C24   		movl	%ecx, (%esp)	 # D.2965,
 281 028b E8000000 		call	_chSchReadyI	 #
 281      00
 282 0290 C74024FE 		movl	$-2, 36(%eax)	 #, D.2966_18->p_u.rdymsg
 282      FFFFFF
 283 0297 A1880200 		movl	LPBX1+648, %eax	 # *LPBX1, PROF_edge_counter.20
 283      00
 284 029c 8B158C02 		movl	LPBX1+652, %edx	 # *LPBX1, PROF_edge_counter.20
 284      0000
 285 02a2 83C001   		addl	$1, %eax	 #, PROF_edge_counter.20
 286 02a5 83D200   		adcl	$0, %edx	 #, PROF_edge_counter.20
 287 02a8 A3880200 		movl	%eax, LPBX1+648	 # PROF_edge_counter.20, *LPBX1
 287      00
 288 02ad 89158C02 		movl	%edx, LPBX1+652	 # PROF_edge_counter.20, *LPBX1
 288      0000
 289              	L13:
 290              		.loc 1 141 0 discriminator 1
 291 02b3 FF44241C 		incl	28(%esp)	 # cnt
 292 02b7 837C241C 		cmpl	$0, 28(%esp)	 #, cnt
 292      00
 293 02bc 7E84     		jle	L14	 #,
 294              		.loc 1 141 0 is_stmt 0
 295 02be A1980200 		movl	LPBX1+664, %eax	 # *LPBX1, PROF_edge_counter.20
 295      00
 296 02c3 8B159C02 		movl	LPBX1+668, %edx	 # *LPBX1, PROF_edge_counter.20
 296      0000
 297 02c9 83C001   		addl	$1, %eax	 #, PROF_edge_counter.20
 298 02cc 83D200   		adcl	$0, %edx	 #, PROF_edge_counter.20
 299 02cf A3980200 		movl	%eax, LPBX1+664	 # PROF_edge_counter.20, *LPBX1
 299      00
 300 02d4 89159C02 		movl	%edx, LPBX1+668	 # PROF_edge_counter.20, *LPBX1
 300      0000
 301              		.loc 1 143 0 is_stmt 1
 302 02da 83C42C   		addl	$44, %esp	 #,
 303              	LCFI5:
 304              		.cfi_def_cfa_offset 4
 305 02dd C3       		ret
 306              		.cfi_endproc
 307              	LFE2:
 308              		.globl	_chSemWait
 309              		.def	_chSemWait;	.scl	2;	.type	32;	.endef
 310              	_chSemWait:
 311              	LFB3:
 312              		.loc 1 157 0
 313              		.cfi_startproc
 314 02de 83EC2C   		subl	$44, %esp	 #,
 315              	LCFI6:
 316              		.cfi_def_cfa_offset 48
 317              		.loc 1 157 0
GAS LISTING C:\cygwin\tmp\ccclv1xX.s 			page 8


 318 02e1 A1300200 		movl	LPBX1+560, %eax	 # *LPBX1, PROF_edge_counter.19
 318      00
 319 02e6 8B153402 		movl	LPBX1+564, %edx	 # *LPBX1, PROF_edge_counter.19
 319      0000
 320 02ec 83C001   		addl	$1, %eax	 #, PROF_edge_counter.19
 321 02ef 83D200   		adcl	$0, %edx	 #, PROF_edge_counter.19
 322 02f2 A3300200 		movl	%eax, LPBX1+560	 # PROF_edge_counter.19, *LPBX1
 322      00
 323 02f7 89153402 		movl	%edx, LPBX1+564	 # PROF_edge_counter.19, *LPBX1
 323      0000
 324              		.loc 1 160 0
 325              	/APP
 326              	 # 160 "../../os/kernel/src/chsem.c" 1
 327 02fd 90       		nop
 328              	 # 0 "" 2
 329              	/NO_APP
 330 02fe A1380200 		movl	LPBX1+568, %eax	 # *LPBX1, PROF_edge_counter.19
 330      00
 331 0303 8B153C02 		movl	LPBX1+572, %edx	 # *LPBX1, PROF_edge_counter.19
 331      0000
 332 0309 83C001   		addl	$1, %eax	 #, PROF_edge_counter.19
 333 030c 83D200   		adcl	$0, %edx	 #, PROF_edge_counter.19
 334 030f A3380200 		movl	%eax, LPBX1+568	 # PROF_edge_counter.19, *LPBX1
 334      00
 335 0314 89153C02 		movl	%edx, LPBX1+572	 # PROF_edge_counter.19, *LPBX1
 335      0000
 336              		.loc 1 161 0
 337 031a 8B442430 		movl	48(%esp), %eax	 # sp, tmp69
 338 031e 890424   		movl	%eax, (%esp)	 # tmp69,
 339 0321 E8450000 		call	_chSemWaitS	 #
 339      00
 340 0326 8944241C 		movl	%eax, 28(%esp)	 # tmp70, msg
 341 032a A1400200 		movl	LPBX1+576, %eax	 # *LPBX1, PROF_edge_counter.19
 341      00
 342 032f 8B154402 		movl	LPBX1+580, %edx	 # *LPBX1, PROF_edge_counter.19
 342      0000
 343 0335 83C001   		addl	$1, %eax	 #, PROF_edge_counter.19
 344 0338 83D200   		adcl	$0, %edx	 #, PROF_edge_counter.19
 345 033b A3400200 		movl	%eax, LPBX1+576	 # PROF_edge_counter.19, *LPBX1
 345      00
 346 0340 89154402 		movl	%edx, LPBX1+580	 # PROF_edge_counter.19, *LPBX1
 346      0000
 347              		.loc 1 162 0
 348              	/APP
 349              	 # 162 "../../os/kernel/src/chsem.c" 1
 350 0346 90       		nop
 351              	 # 0 "" 2
 352              	/NO_APP
 353 0347 A1480200 		movl	LPBX1+584, %eax	 # *LPBX1, PROF_edge_counter.19
 353      00
 354 034c 8B154C02 		movl	LPBX1+588, %edx	 # *LPBX1, PROF_edge_counter.19
 354      0000
 355 0352 83C001   		addl	$1, %eax	 #, PROF_edge_counter.19
 356 0355 83D200   		adcl	$0, %edx	 #, PROF_edge_counter.19
 357 0358 A3480200 		movl	%eax, LPBX1+584	 # PROF_edge_counter.19, *LPBX1
 357      00
 358 035d 89154C02 		movl	%edx, LPBX1+588	 # PROF_edge_counter.19, *LPBX1
GAS LISTING C:\cygwin\tmp\ccclv1xX.s 			page 9


 358      0000
 359              		.loc 1 163 0
 360 0363 8B44241C 		movl	28(%esp), %eax	 # msg, D.2944
 361              		.loc 1 164 0
 362 0367 83C42C   		addl	$44, %esp	 #,
 363              	LCFI7:
 364              		.cfi_def_cfa_offset 4
 365 036a C3       		ret
 366              		.cfi_endproc
 367              	LFE3:
 368              		.globl	_chSemWaitS
 369              		.def	_chSemWaitS;	.scl	2;	.type	32;	.endef
 370              	_chSemWaitS:
 371              	LFB4:
 372              		.loc 1 178 0
 373              		.cfi_startproc
 374 036b 83EC1C   		subl	$28, %esp	 #,
 375              	LCFI8:
 376              		.cfi_def_cfa_offset 32
 377              		.loc 1 182 0
 378 036e 8B442420 		movl	32(%esp), %eax	 # sp, tmp92
 379 0372 8B4008   		movl	8(%eax), %eax	 # sp_2(D)->s_cnt, D.2925
 380              		.loc 1 178 0
 381 0375 85C0     		testl	%eax, %eax	 # D.2925
 382 0377 782A     		js	L18	 #,
 383 0379 A1F00100 		movl	LPBX1+496, %eax	 # *LPBX1, PROF_edge_counter.18
 383      00
 384 037e 8B15F401 		movl	LPBX1+500, %edx	 # *LPBX1, PROF_edge_counter.18
 384      0000
 385 0384 83C001   		addl	$1, %eax	 #, PROF_edge_counter.18
 386 0387 83D200   		adcl	$0, %edx	 #, PROF_edge_counter.18
 387 038a A3F00100 		movl	%eax, LPBX1+496	 # PROF_edge_counter.18, *LPBX1
 387      00
 388 038f 8915F401 		movl	%edx, LPBX1+500	 # PROF_edge_counter.18, *LPBX1
 388      0000
 389              		.loc 1 182 0
 390 0395 8B442420 		movl	32(%esp), %eax	 # sp, tmp93
 391 0399 8B10     		movl	(%eax), %edx	 # sp_2(D)->s_queue.p_next, D.2927
 392 039b 8B442420 		movl	32(%esp), %eax	 # sp, D.2928
 393 039f 39C2     		cmpl	%eax, %edx	 # D.2928, D.2927
 394 03a1 746F     		je	L25	 #,
 395              	L18:
 396              		.loc 1 182 0 is_stmt 0 discriminator 1
 397 03a3 8B442420 		movl	32(%esp), %eax	 # sp, tmp94
 398 03a7 8B4008   		movl	8(%eax), %eax	 # sp_2(D)->s_cnt, D.2929
 399 03aa 85C0     		testl	%eax, %eax	 # D.2929
 400 03ac 7946     		jns	L20	 #,
 401              		.loc 1 182 0 discriminator 2
 402 03ae A1F80100 		movl	LPBX1+504, %eax	 # *LPBX1, PROF_edge_counter.18
 402      00
 403 03b3 8B15FC01 		movl	LPBX1+508, %edx	 # *LPBX1, PROF_edge_counter.18
 403      0000
 404 03b9 83C001   		addl	$1, %eax	 #, PROF_edge_counter.18
 405 03bc 83D200   		adcl	$0, %edx	 #, PROF_edge_counter.18
 406 03bf A3F80100 		movl	%eax, LPBX1+504	 # PROF_edge_counter.18, *LPBX1
 406      00
 407 03c4 8915FC01 		movl	%edx, LPBX1+508	 # PROF_edge_counter.18, *LPBX1
GAS LISTING C:\cygwin\tmp\ccclv1xX.s 			page 10


 407      0000
 408 03ca 8B442420 		movl	32(%esp), %eax	 # sp, tmp95
 409 03ce 8B10     		movl	(%eax), %edx	 # sp_2(D)->s_queue.p_next, D.2931
 410 03d0 8B442420 		movl	32(%esp), %eax	 # sp, D.2932
 411 03d4 39C2     		cmpl	%eax, %edx	 # D.2932, D.2931
 412 03d6 753A     		jne	L25	 #,
 413              	L21:
 414              		.loc 1 178 0 is_stmt 1
 415 03d8 A1000200 		movl	LPBX1+512, %eax	 # *LPBX1, PROF_edge_counter.18
 415      00
 416 03dd 8B150402 		movl	LPBX1+516, %edx	 # *LPBX1, PROF_edge_counter.18
 416      0000
 417 03e3 83C001   		addl	$1, %eax	 #, PROF_edge_counter.18
 418 03e6 83D200   		adcl	$0, %edx	 #, PROF_edge_counter.18
 419 03e9 A3000200 		movl	%eax, LPBX1+512	 # PROF_edge_counter.18, *LPBX1
 419      00
 420 03ee 89150402 		movl	%edx, LPBX1+516	 # PROF_edge_counter.18, *LPBX1
 420      0000
 421              	L20:
 422 03f4 A1080200 		movl	LPBX1+520, %eax	 # *LPBX1, PROF_edge_counter.18
 422      00
 423 03f9 8B150C02 		movl	LPBX1+524, %edx	 # *LPBX1, PROF_edge_counter.18
 423      0000
 424 03ff 83C001   		addl	$1, %eax	 #, PROF_edge_counter.18
 425 0402 83D200   		adcl	$0, %edx	 #, PROF_edge_counter.18
 426 0405 A3080200 		movl	%eax, LPBX1+520	 # PROF_edge_counter.18, *LPBX1
 426      00
 427 040a 89150C02 		movl	%edx, LPBX1+524	 # PROF_edge_counter.18, *LPBX1
 427      0000
 428 0410 EB01     		jmp	L22	 #
 429              	L25:
 430 0412 90       		nop
 431              	L22:
 432              		.loc 1 187 0
 433 0413 8B442420 		movl	32(%esp), %eax	 # sp, tmp96
 434 0417 8B4008   		movl	8(%eax), %eax	 # sp_2(D)->s_cnt, D.2933
 435 041a 8D50FF   		leal	-1(%eax), %edx	 #, D.2934
 436 041d 8B442420 		movl	32(%esp), %eax	 # sp, tmp97
 437 0421 895008   		movl	%edx, 8(%eax)	 # D.2934, sp_2(D)->s_cnt
 438 0424 8B442420 		movl	32(%esp), %eax	 # sp, tmp98
 439 0428 8B4008   		movl	8(%eax), %eax	 # sp_2(D)->s_cnt, D.2935
 440 042b 85C0     		testl	%eax, %eax	 # D.2935
 441 042d 0F898B00 		jns	L23	 #,
 441      0000
 442 0433 A1100200 		movl	LPBX1+528, %eax	 # *LPBX1, PROF_edge_counter.18
 442      00
 443 0438 8B151402 		movl	LPBX1+532, %edx	 # *LPBX1, PROF_edge_counter.18
 443      0000
 444 043e 83C001   		addl	$1, %eax	 #, PROF_edge_counter.18
 445 0441 83D200   		adcl	$0, %edx	 #, PROF_edge_counter.18
 446 0444 A3100200 		movl	%eax, LPBX1+528	 # PROF_edge_counter.18, *LPBX1
 446      00
 447 0449 89151402 		movl	%edx, LPBX1+532	 # PROF_edge_counter.18, *LPBX1
 447      0000
 448              		.loc 1 188 0
 449 044f A1180000 		movl	_rlist+24, %eax	 # rlist.r_current, D.2938
 449      00
GAS LISTING C:\cygwin\tmp\ccclv1xX.s 			page 11


 450 0454 8B542420 		movl	32(%esp), %edx	 # sp, tmp99
 451 0458 895024   		movl	%edx, 36(%eax)	 # tmp99, D.2938_14->p_u.wtobjp
 452              		.loc 1 189 0
 453 045b 8B542420 		movl	32(%esp), %edx	 # sp, D.2939
 454 045f A1180000 		movl	_rlist+24, %eax	 # rlist.r_current, D.2940
 454      00
 455 0464 89542404 		movl	%edx, 4(%esp)	 # D.2939,
 456 0468 890424   		movl	%eax, (%esp)	 # D.2940,
 457 046b E8000000 		call	_queue_insert	 #
 457      00
 458 0470 A1180200 		movl	LPBX1+536, %eax	 # *LPBX1, PROF_edge_counter.18
 458      00
 459 0475 8B151C02 		movl	LPBX1+540, %edx	 # *LPBX1, PROF_edge_counter.18
 459      0000
 460 047b 83C001   		addl	$1, %eax	 #, PROF_edge_counter.18
 461 047e 83D200   		adcl	$0, %edx	 #, PROF_edge_counter.18
 462 0481 A3180200 		movl	%eax, LPBX1+536	 # PROF_edge_counter.18, *LPBX1
 462      00
 463 0486 89151C02 		movl	%edx, LPBX1+540	 # PROF_edge_counter.18, *LPBX1
 463      0000
 464              		.loc 1 190 0
 465 048c C7042403 		movl	$3, (%esp)	 #,
 465      000000
 466 0493 E8000000 		call	_chSchGoSleepS	 #
 466      00
 467              		.loc 1 191 0
 468 0498 A1180000 		movl	_rlist+24, %eax	 # rlist.r_current, D.2942
 468      00
 469 049d 8B4824   		movl	36(%eax), %ecx	 # D.2942_17->p_u.rdymsg, D.2941
 470 04a0 A1200200 		movl	LPBX1+544, %eax	 # *LPBX1, PROF_edge_counter.18
 470      00
 471 04a5 8B152402 		movl	LPBX1+548, %edx	 # *LPBX1, PROF_edge_counter.18
 471      0000
 472 04ab 83C001   		addl	$1, %eax	 #, PROF_edge_counter.18
 473 04ae 83D200   		adcl	$0, %edx	 #, PROF_edge_counter.18
 474 04b1 A3200200 		movl	%eax, LPBX1+544	 # PROF_edge_counter.18, *LPBX1
 474      00
 475 04b6 89152402 		movl	%edx, LPBX1+548	 # PROF_edge_counter.18, *LPBX1
 475      0000
 476 04bc EB21     		jmp	L24	 #
 477              	L23:
 478              		.loc 1 193 0
 479 04be B9000000 		movl	$0, %ecx	 #, D.2941
 479      00
 480 04c3 A1280200 		movl	LPBX1+552, %eax	 # *LPBX1, PROF_edge_counter.18
 480      00
 481 04c8 8B152C02 		movl	LPBX1+556, %edx	 # *LPBX1, PROF_edge_counter.18
 481      0000
 482 04ce 83C001   		addl	$1, %eax	 #, PROF_edge_counter.18
 483 04d1 83D200   		adcl	$0, %edx	 #, PROF_edge_counter.18
 484 04d4 A3280200 		movl	%eax, LPBX1+552	 # PROF_edge_counter.18, *LPBX1
 484      00
 485 04d9 89152C02 		movl	%edx, LPBX1+556	 # PROF_edge_counter.18, *LPBX1
 485      0000
 486              	L24:
 487 04df 89C8     		movl	%ecx, %eax	 # D.2941, <retval>
 488              		.loc 1 194 0
GAS LISTING C:\cygwin\tmp\ccclv1xX.s 			page 12


 489 04e1 83C41C   		addl	$28, %esp	 #,
 490              	LCFI9:
 491              		.cfi_def_cfa_offset 4
 492 04e4 C3       		ret
 493              		.cfi_endproc
 494              	LFE4:
 495              		.globl	_chSemWaitTimeout
 496              		.def	_chSemWaitTimeout;	.scl	2;	.type	32;	.endef
 497              	_chSemWaitTimeout:
 498              	LFB5:
 499              		.loc 1 215 0
 500              		.cfi_startproc
 501 04e5 83EC2C   		subl	$44, %esp	 #,
 502              	LCFI10:
 503              		.cfi_def_cfa_offset 48
 504              		.loc 1 215 0
 505 04e8 A1D00100 		movl	LPBX1+464, %eax	 # *LPBX1, PROF_edge_counter.17
 505      00
 506 04ed 8B15D401 		movl	LPBX1+468, %edx	 # *LPBX1, PROF_edge_counter.17
 506      0000
 507 04f3 83C001   		addl	$1, %eax	 #, PROF_edge_counter.17
 508 04f6 83D200   		adcl	$0, %edx	 #, PROF_edge_counter.17
 509 04f9 A3D00100 		movl	%eax, LPBX1+464	 # PROF_edge_counter.17, *LPBX1
 509      00
 510 04fe 8915D401 		movl	%edx, LPBX1+468	 # PROF_edge_counter.17, *LPBX1
 510      0000
 511              		.loc 1 218 0
 512              	/APP
 513              	 # 218 "../../os/kernel/src/chsem.c" 1
 514 0504 90       		nop
 515              	 # 0 "" 2
 516              	/NO_APP
 517 0505 A1D80100 		movl	LPBX1+472, %eax	 # *LPBX1, PROF_edge_counter.17
 517      00
 518 050a 8B15DC01 		movl	LPBX1+476, %edx	 # *LPBX1, PROF_edge_counter.17
 518      0000
 519 0510 83C001   		addl	$1, %eax	 #, PROF_edge_counter.17
 520 0513 83D200   		adcl	$0, %edx	 #, PROF_edge_counter.17
 521 0516 A3D80100 		movl	%eax, LPBX1+472	 # PROF_edge_counter.17, *LPBX1
 521      00
 522 051b 8915DC01 		movl	%edx, LPBX1+476	 # PROF_edge_counter.17, *LPBX1
 522      0000
 523              		.loc 1 219 0
 524 0521 8B442434 		movl	52(%esp), %eax	 # time, tmp69
 525 0525 89442404 		movl	%eax, 4(%esp)	 # tmp69,
 526 0529 8B442430 		movl	48(%esp), %eax	 # sp, tmp70
 527 052d 890424   		movl	%eax, (%esp)	 # tmp70,
 528 0530 E8450000 		call	_chSemWaitTimeoutS	 #
 528      00
 529 0535 8944241C 		movl	%eax, 28(%esp)	 # tmp71, msg
 530 0539 A1E00100 		movl	LPBX1+480, %eax	 # *LPBX1, PROF_edge_counter.17
 530      00
 531 053e 8B15E401 		movl	LPBX1+484, %edx	 # *LPBX1, PROF_edge_counter.17
 531      0000
 532 0544 83C001   		addl	$1, %eax	 #, PROF_edge_counter.17
 533 0547 83D200   		adcl	$0, %edx	 #, PROF_edge_counter.17
 534 054a A3E00100 		movl	%eax, LPBX1+480	 # PROF_edge_counter.17, *LPBX1
GAS LISTING C:\cygwin\tmp\ccclv1xX.s 			page 13


 534      00
 535 054f 8915E401 		movl	%edx, LPBX1+484	 # PROF_edge_counter.17, *LPBX1
 535      0000
 536              		.loc 1 220 0
 537              	/APP
 538              	 # 220 "../../os/kernel/src/chsem.c" 1
 539 0555 90       		nop
 540              	 # 0 "" 2
 541              	/NO_APP
 542 0556 A1E80100 		movl	LPBX1+488, %eax	 # *LPBX1, PROF_edge_counter.17
 542      00
 543 055b 8B15EC01 		movl	LPBX1+492, %edx	 # *LPBX1, PROF_edge_counter.17
 543      0000
 544 0561 83C001   		addl	$1, %eax	 #, PROF_edge_counter.17
 545 0564 83D200   		adcl	$0, %edx	 #, PROF_edge_counter.17
 546 0567 A3E80100 		movl	%eax, LPBX1+488	 # PROF_edge_counter.17, *LPBX1
 546      00
 547 056c 8915EC01 		movl	%edx, LPBX1+492	 # PROF_edge_counter.17, *LPBX1
 547      0000
 548              		.loc 1 221 0
 549 0572 8B44241C 		movl	28(%esp), %eax	 # msg, D.2915
 550              		.loc 1 222 0
 551 0576 83C42C   		addl	$44, %esp	 #,
 552              	LCFI11:
 553              		.cfi_def_cfa_offset 4
 554 0579 C3       		ret
 555              		.cfi_endproc
 556              	LFE5:
 557              		.globl	_chSemWaitTimeoutS
 558              		.def	_chSemWaitTimeoutS;	.scl	2;	.type	32;	.endef
 559              	_chSemWaitTimeoutS:
 560              	LFB6:
 561              		.loc 1 243 0
 562              		.cfi_startproc
 563 057a 83EC1C   		subl	$28, %esp	 #,
 564              	LCFI12:
 565              		.cfi_def_cfa_offset 32
 566              		.loc 1 247 0
 567 057d 8B442420 		movl	32(%esp), %eax	 # sp, tmp95
 568 0581 8B4008   		movl	8(%eax), %eax	 # sp_2(D)->s_cnt, D.2893
 569              		.loc 1 243 0
 570 0584 85C0     		testl	%eax, %eax	 # D.2893
 571 0586 782A     		js	L28	 #,
 572 0588 A1880100 		movl	LPBX1+392, %eax	 # *LPBX1, PROF_edge_counter.16
 572      00
 573 058d 8B158C01 		movl	LPBX1+396, %edx	 # *LPBX1, PROF_edge_counter.16
 573      0000
 574 0593 83C001   		addl	$1, %eax	 #, PROF_edge_counter.16
 575 0596 83D200   		adcl	$0, %edx	 #, PROF_edge_counter.16
 576 0599 A3880100 		movl	%eax, LPBX1+392	 # PROF_edge_counter.16, *LPBX1
 576      00
 577 059e 89158C01 		movl	%edx, LPBX1+396	 # PROF_edge_counter.16, *LPBX1
 577      0000
 578              		.loc 1 247 0
 579 05a4 8B442420 		movl	32(%esp), %eax	 # sp, tmp96
 580 05a8 8B10     		movl	(%eax), %edx	 # sp_2(D)->s_queue.p_next, D.2895
 581 05aa 8B442420 		movl	32(%esp), %eax	 # sp, D.2896
GAS LISTING C:\cygwin\tmp\ccclv1xX.s 			page 14


 582 05ae 39C2     		cmpl	%eax, %edx	 # D.2896, D.2895
 583 05b0 746F     		je	L36	 #,
 584              	L28:
 585              		.loc 1 247 0 is_stmt 0 discriminator 1
 586 05b2 8B442420 		movl	32(%esp), %eax	 # sp, tmp97
 587 05b6 8B4008   		movl	8(%eax), %eax	 # sp_2(D)->s_cnt, D.2897
 588 05b9 85C0     		testl	%eax, %eax	 # D.2897
 589 05bb 7946     		jns	L30	 #,
 590              		.loc 1 247 0 discriminator 2
 591 05bd A1900100 		movl	LPBX1+400, %eax	 # *LPBX1, PROF_edge_counter.16
 591      00
 592 05c2 8B159401 		movl	LPBX1+404, %edx	 # *LPBX1, PROF_edge_counter.16
 592      0000
 593 05c8 83C001   		addl	$1, %eax	 #, PROF_edge_counter.16
 594 05cb 83D200   		adcl	$0, %edx	 #, PROF_edge_counter.16
 595 05ce A3900100 		movl	%eax, LPBX1+400	 # PROF_edge_counter.16, *LPBX1
 595      00
 596 05d3 89159401 		movl	%edx, LPBX1+404	 # PROF_edge_counter.16, *LPBX1
 596      0000
 597 05d9 8B442420 		movl	32(%esp), %eax	 # sp, tmp98
 598 05dd 8B10     		movl	(%eax), %edx	 # sp_2(D)->s_queue.p_next, D.2899
 599 05df 8B442420 		movl	32(%esp), %eax	 # sp, D.2900
 600 05e3 39C2     		cmpl	%eax, %edx	 # D.2900, D.2899
 601 05e5 753A     		jne	L36	 #,
 602              	L31:
 603              		.loc 1 243 0 is_stmt 1
 604 05e7 A1980100 		movl	LPBX1+408, %eax	 # *LPBX1, PROF_edge_counter.16
 604      00
 605 05ec 8B159C01 		movl	LPBX1+412, %edx	 # *LPBX1, PROF_edge_counter.16
 605      0000
 606 05f2 83C001   		addl	$1, %eax	 #, PROF_edge_counter.16
 607 05f5 83D200   		adcl	$0, %edx	 #, PROF_edge_counter.16
 608 05f8 A3980100 		movl	%eax, LPBX1+408	 # PROF_edge_counter.16, *LPBX1
 608      00
 609 05fd 89159C01 		movl	%edx, LPBX1+412	 # PROF_edge_counter.16, *LPBX1
 609      0000
 610              	L30:
 611 0603 A1A00100 		movl	LPBX1+416, %eax	 # *LPBX1, PROF_edge_counter.16
 611      00
 612 0608 8B15A401 		movl	LPBX1+420, %edx	 # *LPBX1, PROF_edge_counter.16
 612      0000
 613 060e 83C001   		addl	$1, %eax	 #, PROF_edge_counter.16
 614 0611 83D200   		adcl	$0, %edx	 #, PROF_edge_counter.16
 615 0614 A3A00100 		movl	%eax, LPBX1+416	 # PROF_edge_counter.16, *LPBX1
 615      00
 616 0619 8915A401 		movl	%edx, LPBX1+420	 # PROF_edge_counter.16, *LPBX1
 616      0000
 617 061f EB01     		jmp	L32	 #
 618              	L36:
 619 0621 90       		nop
 620              	L32:
 621              		.loc 1 252 0
 622 0622 8B442420 		movl	32(%esp), %eax	 # sp, tmp99
 623 0626 8B4008   		movl	8(%eax), %eax	 # sp_2(D)->s_cnt, D.2901
 624 0629 8D50FF   		leal	-1(%eax), %edx	 #, D.2902
 625 062c 8B442420 		movl	32(%esp), %eax	 # sp, tmp100
 626 0630 895008   		movl	%edx, 8(%eax)	 # D.2902, sp_2(D)->s_cnt
GAS LISTING C:\cygwin\tmp\ccclv1xX.s 			page 15


 627 0633 8B442420 		movl	32(%esp), %eax	 # sp, tmp101
 628 0637 8B4008   		movl	8(%eax), %eax	 # sp_2(D)->s_cnt, D.2903
 629 063a 85C0     		testl	%eax, %eax	 # D.2903
 630 063c 0F89CB00 		jns	L33	 #,
 630      0000
 631              		.loc 1 253 0
 632 0642 837C2424 		cmpl	$0, 36(%esp)	 #, time
 632      00
 633 0647 7537     		jne	L34	 #,
 634              		.loc 1 254 0
 635 0649 8B442420 		movl	32(%esp), %eax	 # sp, tmp102
 636 064d 8B4008   		movl	8(%eax), %eax	 # sp_2(D)->s_cnt, D.2908
 637 0650 8D5001   		leal	1(%eax), %edx	 #, D.2909
 638 0653 8B442420 		movl	32(%esp), %eax	 # sp, tmp103
 639 0657 895008   		movl	%edx, 8(%eax)	 # D.2909, sp_2(D)->s_cnt
 640              		.loc 1 255 0
 641 065a B9FFFFFF 		movl	$-1, %ecx	 #, D.2910
 641      FF
 642 065f A1B00100 		movl	LPBX1+432, %eax	 # *LPBX1, PROF_edge_counter.16
 642      00
 643 0664 8B15B401 		movl	LPBX1+436, %edx	 # *LPBX1, PROF_edge_counter.16
 643      0000
 644 066a 83C001   		addl	$1, %eax	 #, PROF_edge_counter.16
 645 066d 83D200   		adcl	$0, %edx	 #, PROF_edge_counter.16
 646 0670 A3B00100 		movl	%eax, LPBX1+432	 # PROF_edge_counter.16, *LPBX1
 646      00
 647 0675 8915B401 		movl	%edx, LPBX1+436	 # PROF_edge_counter.16, *LPBX1
 647      0000
 648 067b E9AE0000 		jmp	L35	 #
 648      00
 649              	L34:
 650 0680 A1A80100 		movl	LPBX1+424, %eax	 # *LPBX1, PROF_edge_counter.16
 650      00
 651 0685 8B15AC01 		movl	LPBX1+428, %edx	 # *LPBX1, PROF_edge_counter.16
 651      0000
 652 068b 83C001   		addl	$1, %eax	 #, PROF_edge_counter.16
 653 068e 83D200   		adcl	$0, %edx	 #, PROF_edge_counter.16
 654 0691 A3A80100 		movl	%eax, LPBX1+424	 # PROF_edge_counter.16, *LPBX1
 654      00
 655 0696 8915AC01 		movl	%edx, LPBX1+428	 # PROF_edge_counter.16, *LPBX1
 655      0000
 656              		.loc 1 257 0
 657 069c A1180000 		movl	_rlist+24, %eax	 # rlist.r_current, D.2911
 657      00
 658 06a1 8B542420 		movl	32(%esp), %edx	 # sp, tmp104
 659 06a5 895024   		movl	%edx, 36(%eax)	 # tmp104, D.2911_18->p_u.wtobjp
 660              		.loc 1 258 0
 661 06a8 8B542420 		movl	32(%esp), %edx	 # sp, D.2912
 662 06ac A1180000 		movl	_rlist+24, %eax	 # rlist.r_current, D.2913
 662      00
 663 06b1 89542404 		movl	%edx, 4(%esp)	 # D.2912,
 664 06b5 890424   		movl	%eax, (%esp)	 # D.2913,
 665 06b8 E8000000 		call	_queue_insert	 #
 665      00
 666 06bd A1B80100 		movl	LPBX1+440, %eax	 # *LPBX1, PROF_edge_counter.16
 666      00
 667 06c2 8B15BC01 		movl	LPBX1+444, %edx	 # *LPBX1, PROF_edge_counter.16
GAS LISTING C:\cygwin\tmp\ccclv1xX.s 			page 16


 667      0000
 668 06c8 83C001   		addl	$1, %eax	 #, PROF_edge_counter.16
 669 06cb 83D200   		adcl	$0, %edx	 #, PROF_edge_counter.16
 670 06ce A3B80100 		movl	%eax, LPBX1+440	 # PROF_edge_counter.16, *LPBX1
 670      00
 671 06d3 8915BC01 		movl	%edx, LPBX1+444	 # PROF_edge_counter.16, *LPBX1
 671      0000
 672              		.loc 1 259 0
 673 06d9 8B442424 		movl	36(%esp), %eax	 # time, tmp105
 674 06dd 89442404 		movl	%eax, 4(%esp)	 # tmp105,
 675 06e1 C7042403 		movl	$3, (%esp)	 #,
 675      000000
 676 06e8 E8000000 		call	_chSchGoSleepTimeoutS	 #
 676      00
 677 06ed 89C1     		movl	%eax, %ecx	 #, D.2910
 678 06ef A1C00100 		movl	LPBX1+448, %eax	 # *LPBX1, PROF_edge_counter.16
 678      00
 679 06f4 8B15C401 		movl	LPBX1+452, %edx	 # *LPBX1, PROF_edge_counter.16
 679      0000
 680 06fa 83C001   		addl	$1, %eax	 #, PROF_edge_counter.16
 681 06fd 83D200   		adcl	$0, %edx	 #, PROF_edge_counter.16
 682 0700 A3C00100 		movl	%eax, LPBX1+448	 # PROF_edge_counter.16, *LPBX1
 682      00
 683 0705 8915C401 		movl	%edx, LPBX1+452	 # PROF_edge_counter.16, *LPBX1
 683      0000
 684 070b EB21     		jmp	L35	 #
 685              	L33:
 686              		.loc 1 261 0
 687 070d B9000000 		movl	$0, %ecx	 #, D.2910
 687      00
 688 0712 A1C80100 		movl	LPBX1+456, %eax	 # *LPBX1, PROF_edge_counter.16
 688      00
 689 0717 8B15CC01 		movl	LPBX1+460, %edx	 # *LPBX1, PROF_edge_counter.16
 689      0000
 690 071d 83C001   		addl	$1, %eax	 #, PROF_edge_counter.16
 691 0720 83D200   		adcl	$0, %edx	 #, PROF_edge_counter.16
 692 0723 A3C80100 		movl	%eax, LPBX1+456	 # PROF_edge_counter.16, *LPBX1
 692      00
 693 0728 8915CC01 		movl	%edx, LPBX1+460	 # PROF_edge_counter.16, *LPBX1
 693      0000
 694              	L35:
 695 072e 89C8     		movl	%ecx, %eax	 # D.2910, <retval>
 696              		.loc 1 262 0
 697 0730 83C41C   		addl	$28, %esp	 #,
 698              	LCFI13:
 699              		.cfi_def_cfa_offset 4
 700 0733 C3       		ret
 701              		.cfi_endproc
 702              	LFE6:
 703              		.globl	_chSemSignal
 704              		.def	_chSemSignal;	.scl	2;	.type	32;	.endef
 705              	_chSemSignal:
 706              	LFB7:
 707              		.loc 1 271 0
 708              		.cfi_startproc
 709 0734 83EC1C   		subl	$28, %esp	 #,
 710              	LCFI14:
GAS LISTING C:\cygwin\tmp\ccclv1xX.s 			page 17


 711              		.cfi_def_cfa_offset 32
 712              		.loc 1 274 0
 713 0737 8B442420 		movl	32(%esp), %eax	 # sp, tmp92
 714 073b 8B4008   		movl	8(%eax), %eax	 # sp_1(D)->s_cnt, D.2870
 715              		.loc 1 271 0
 716 073e 85C0     		testl	%eax, %eax	 # D.2870
 717 0740 782A     		js	L38	 #,
 718 0742 A1380100 		movl	LPBX1+312, %eax	 # *LPBX1, PROF_edge_counter.15
 718      00
 719 0747 8B153C01 		movl	LPBX1+316, %edx	 # *LPBX1, PROF_edge_counter.15
 719      0000
 720 074d 83C001   		addl	$1, %eax	 #, PROF_edge_counter.15
 721 0750 83D200   		adcl	$0, %edx	 #, PROF_edge_counter.15
 722 0753 A3380100 		movl	%eax, LPBX1+312	 # PROF_edge_counter.15, *LPBX1
 722      00
 723 0758 89153C01 		movl	%edx, LPBX1+316	 # PROF_edge_counter.15, *LPBX1
 723      0000
 724              		.loc 1 274 0
 725 075e 8B442420 		movl	32(%esp), %eax	 # sp, tmp93
 726 0762 8B10     		movl	(%eax), %edx	 # sp_1(D)->s_queue.p_next, D.2872
 727 0764 8B442420 		movl	32(%esp), %eax	 # sp, D.2873
 728 0768 39C2     		cmpl	%eax, %edx	 # D.2873, D.2872
 729 076a 7435     		je	L39	 #,
 730              	L38:
 731              		.loc 1 274 0 is_stmt 0 discriminator 1
 732 076c 8B442420 		movl	32(%esp), %eax	 # sp, tmp94
 733 0770 8B4008   		movl	8(%eax), %eax	 # sp_1(D)->s_cnt, D.2874
 734 0773 85C0     		testl	%eax, %eax	 # D.2874
 735 0775 7964     		jns	L40	 #,
 736              		.loc 1 274 0 discriminator 2
 737 0777 A1400100 		movl	LPBX1+320, %eax	 # *LPBX1, PROF_edge_counter.15
 737      00
 738 077c 8B154401 		movl	LPBX1+324, %edx	 # *LPBX1, PROF_edge_counter.15
 738      0000
 739 0782 83C001   		addl	$1, %eax	 #, PROF_edge_counter.15
 740 0785 83D200   		adcl	$0, %edx	 #, PROF_edge_counter.15
 741 0788 A3400100 		movl	%eax, LPBX1+320	 # PROF_edge_counter.15, *LPBX1
 741      00
 742 078d 89154401 		movl	%edx, LPBX1+324	 # PROF_edge_counter.15, *LPBX1
 742      0000
 743 0793 8B442420 		movl	32(%esp), %eax	 # sp, tmp95
 744 0797 8B10     		movl	(%eax), %edx	 # sp_1(D)->s_queue.p_next, D.2876
 745 0799 8B442420 		movl	32(%esp), %eax	 # sp, D.2877
 746 079d 39C2     		cmpl	%eax, %edx	 # D.2877, D.2876
 747 079f 741E     		je	L41	 #,
 748              	L39:
 749              		.loc 1 271 0 is_stmt 1
 750 07a1 A1500100 		movl	LPBX1+336, %eax	 # *LPBX1, PROF_edge_counter.15
 750      00
 751 07a6 8B155401 		movl	LPBX1+340, %edx	 # *LPBX1, PROF_edge_counter.15
 751      0000
 752 07ac 83C001   		addl	$1, %eax	 #, PROF_edge_counter.15
 753 07af 83D200   		adcl	$0, %edx	 #, PROF_edge_counter.15
 754 07b2 A3500100 		movl	%eax, LPBX1+336	 # PROF_edge_counter.15, *LPBX1
 754      00
 755 07b7 89155401 		movl	%edx, LPBX1+340	 # PROF_edge_counter.15, *LPBX1
 755      0000
GAS LISTING C:\cygwin\tmp\ccclv1xX.s 			page 18


 756 07bd EB38     		jmp	L42	 #
 757              	L41:
 758 07bf A1480100 		movl	LPBX1+328, %eax	 # *LPBX1, PROF_edge_counter.15
 758      00
 759 07c4 8B154C01 		movl	LPBX1+332, %edx	 # *LPBX1, PROF_edge_counter.15
 759      0000
 760 07ca 83C001   		addl	$1, %eax	 #, PROF_edge_counter.15
 761 07cd 83D200   		adcl	$0, %edx	 #, PROF_edge_counter.15
 762 07d0 A3480100 		movl	%eax, LPBX1+328	 # PROF_edge_counter.15, *LPBX1
 762      00
 763 07d5 89154C01 		movl	%edx, LPBX1+332	 # PROF_edge_counter.15, *LPBX1
 763      0000
 764              	L40:
 765 07db A1580100 		movl	LPBX1+344, %eax	 # *LPBX1, PROF_edge_counter.15
 765      00
 766 07e0 8B155C01 		movl	LPBX1+348, %edx	 # *LPBX1, PROF_edge_counter.15
 766      0000
 767 07e6 83C001   		addl	$1, %eax	 #, PROF_edge_counter.15
 768 07e9 83D200   		adcl	$0, %edx	 #, PROF_edge_counter.15
 769 07ec A3580100 		movl	%eax, LPBX1+344	 # PROF_edge_counter.15, *LPBX1
 769      00
 770 07f1 89155C01 		movl	%edx, LPBX1+348	 # PROF_edge_counter.15, *LPBX1
 770      0000
 771              	L42:
 772              		.loc 1 279 0
 773              	/APP
 774              	 # 279 "../../os/kernel/src/chsem.c" 1
 775 07f7 90       		nop
 776              	 # 0 "" 2
 777              	/NO_APP
 778 07f8 A1600100 		movl	LPBX1+352, %eax	 # *LPBX1, PROF_edge_counter.15
 778      00
 779 07fd 8B156401 		movl	LPBX1+356, %edx	 # *LPBX1, PROF_edge_counter.15
 779      0000
 780 0803 83C001   		addl	$1, %eax	 #, PROF_edge_counter.15
 781 0806 83D200   		adcl	$0, %edx	 #, PROF_edge_counter.15
 782 0809 A3600100 		movl	%eax, LPBX1+352	 # PROF_edge_counter.15, *LPBX1
 782      00
 783 080e 89156401 		movl	%edx, LPBX1+356	 # PROF_edge_counter.15, *LPBX1
 783      0000
 784              		.loc 1 280 0
 785 0814 8B442420 		movl	32(%esp), %eax	 # sp, tmp96
 786 0818 8B4008   		movl	8(%eax), %eax	 # sp_1(D)->s_cnt, D.2878
 787 081b 8D5001   		leal	1(%eax), %edx	 #, D.2879
 788 081e 8B442420 		movl	32(%esp), %eax	 # sp, tmp97
 789 0822 895008   		movl	%edx, 8(%eax)	 # D.2879, sp_1(D)->s_cnt
 790 0825 8B442420 		movl	32(%esp), %eax	 # sp, tmp98
 791 0829 8B4008   		movl	8(%eax), %eax	 # sp_1(D)->s_cnt, D.2880
 792 082c 85C0     		testl	%eax, %eax	 # D.2880
 793 082e 7F72     		jg	L43	 #,
 794 0830 A1680100 		movl	LPBX1+360, %eax	 # *LPBX1, PROF_edge_counter.15
 794      00
 795 0835 8B156C01 		movl	LPBX1+364, %edx	 # *LPBX1, PROF_edge_counter.15
 795      0000
 796 083b 83C001   		addl	$1, %eax	 #, PROF_edge_counter.15
 797 083e 83D200   		adcl	$0, %edx	 #, PROF_edge_counter.15
 798 0841 A3680100 		movl	%eax, LPBX1+360	 # PROF_edge_counter.15, *LPBX1
GAS LISTING C:\cygwin\tmp\ccclv1xX.s 			page 19


 798      00
 799 0846 89156C01 		movl	%edx, LPBX1+364	 # PROF_edge_counter.15, *LPBX1
 799      0000
 800              		.loc 1 281 0
 801 084c 8B442420 		movl	32(%esp), %eax	 # sp, D.2883
 802 0850 890424   		movl	%eax, (%esp)	 # D.2883,
 803 0853 E8000000 		call	_fifo_remove	 #
 803      00
 804 0858 89C1     		movl	%eax, %ecx	 #, D.2884
 805 085a A1700100 		movl	LPBX1+368, %eax	 # *LPBX1, PROF_edge_counter.15
 805      00
 806 085f 8B157401 		movl	LPBX1+372, %edx	 # *LPBX1, PROF_edge_counter.15
 806      0000
 807 0865 83C001   		addl	$1, %eax	 #, PROF_edge_counter.15
 808 0868 83D200   		adcl	$0, %edx	 #, PROF_edge_counter.15
 809 086b A3700100 		movl	%eax, LPBX1+368	 # PROF_edge_counter.15, *LPBX1
 809      00
 810 0870 89157401 		movl	%edx, LPBX1+372	 # PROF_edge_counter.15, *LPBX1
 810      0000
 811 0876 C7442404 		movl	$0, 4(%esp)	 #,
 811      00000000 
 812 087e 890C24   		movl	%ecx, (%esp)	 # D.2884,
 813 0881 E8000000 		call	_chSchWakeupS	 #
 813      00
 814 0886 A1780100 		movl	LPBX1+376, %eax	 # *LPBX1, PROF_edge_counter.15
 814      00
 815 088b 8B157C01 		movl	LPBX1+380, %edx	 # *LPBX1, PROF_edge_counter.15
 815      0000
 816 0891 83C001   		addl	$1, %eax	 #, PROF_edge_counter.15
 817 0894 83D200   		adcl	$0, %edx	 #, PROF_edge_counter.15
 818 0897 A3780100 		movl	%eax, LPBX1+376	 # PROF_edge_counter.15, *LPBX1
 818      00
 819 089c 89157C01 		movl	%edx, LPBX1+380	 # PROF_edge_counter.15, *LPBX1
 819      0000
 820              	L43:
 821              		.loc 1 282 0
 822              	/APP
 823              	 # 282 "../../os/kernel/src/chsem.c" 1
 824 08a2 90       		nop
 825              	 # 0 "" 2
 826              	/NO_APP
 827 08a3 A1800100 		movl	LPBX1+384, %eax	 # *LPBX1, PROF_edge_counter.15
 827      00
 828 08a8 8B158401 		movl	LPBX1+388, %edx	 # *LPBX1, PROF_edge_counter.15
 828      0000
 829 08ae 83C001   		addl	$1, %eax	 #, PROF_edge_counter.15
 830 08b1 83D200   		adcl	$0, %edx	 #, PROF_edge_counter.15
 831 08b4 A3800100 		movl	%eax, LPBX1+384	 # PROF_edge_counter.15, *LPBX1
 831      00
 832 08b9 89158401 		movl	%edx, LPBX1+388	 # PROF_edge_counter.15, *LPBX1
 832      0000
 833              		.loc 1 283 0
 834 08bf 83C41C   		addl	$28, %esp	 #,
 835              	LCFI15:
 836              		.cfi_def_cfa_offset 4
 837 08c2 C3       		ret
 838              		.cfi_endproc
GAS LISTING C:\cygwin\tmp\ccclv1xX.s 			page 20


 839              	LFE7:
 840              		.globl	_chSemSignalI
 841              		.def	_chSemSignalI;	.scl	2;	.type	32;	.endef
 842              	_chSemSignalI:
 843              	LFB8:
 844              		.loc 1 296 0
 845              		.cfi_startproc
 846 08c3 83EC2C   		subl	$44, %esp	 #,
 847              	LCFI16:
 848              		.cfi_def_cfa_offset 48
 849              		.loc 1 300 0
 850 08c6 8B442430 		movl	48(%esp), %eax	 # sp, tmp87
 851 08ca 8B4008   		movl	8(%eax), %eax	 # sp_1(D)->s_cnt, D.2848
 852              		.loc 1 296 0
 853 08cd 85C0     		testl	%eax, %eax	 # D.2848
 854 08cf 782A     		js	L45	 #,
 855 08d1 A1F80000 		movl	LPBX1+248, %eax	 # *LPBX1, PROF_edge_counter.14
 855      00
 856 08d6 8B15FC00 		movl	LPBX1+252, %edx	 # *LPBX1, PROF_edge_counter.14
 856      0000
 857 08dc 83C001   		addl	$1, %eax	 #, PROF_edge_counter.14
 858 08df 83D200   		adcl	$0, %edx	 #, PROF_edge_counter.14
 859 08e2 A3F80000 		movl	%eax, LPBX1+248	 # PROF_edge_counter.14, *LPBX1
 859      00
 860 08e7 8915FC00 		movl	%edx, LPBX1+252	 # PROF_edge_counter.14, *LPBX1
 860      0000
 861              		.loc 1 300 0
 862 08ed 8B442430 		movl	48(%esp), %eax	 # sp, tmp88
 863 08f1 8B10     		movl	(%eax), %edx	 # sp_1(D)->s_queue.p_next, D.2850
 864 08f3 8B442430 		movl	48(%esp), %eax	 # sp, D.2851
 865 08f7 39C2     		cmpl	%eax, %edx	 # D.2851, D.2850
 866 08f9 7435     		je	L46	 #,
 867              	L45:
 868              		.loc 1 300 0 is_stmt 0 discriminator 1
 869 08fb 8B442430 		movl	48(%esp), %eax	 # sp, tmp89
 870 08ff 8B4008   		movl	8(%eax), %eax	 # sp_1(D)->s_cnt, D.2852
 871 0902 85C0     		testl	%eax, %eax	 # D.2852
 872 0904 7964     		jns	L47	 #,
 873              		.loc 1 300 0 discriminator 2
 874 0906 A1000100 		movl	LPBX1+256, %eax	 # *LPBX1, PROF_edge_counter.14
 874      00
 875 090b 8B150401 		movl	LPBX1+260, %edx	 # *LPBX1, PROF_edge_counter.14
 875      0000
 876 0911 83C001   		addl	$1, %eax	 #, PROF_edge_counter.14
 877 0914 83D200   		adcl	$0, %edx	 #, PROF_edge_counter.14
 878 0917 A3000100 		movl	%eax, LPBX1+256	 # PROF_edge_counter.14, *LPBX1
 878      00
 879 091c 89150401 		movl	%edx, LPBX1+260	 # PROF_edge_counter.14, *LPBX1
 879      0000
 880 0922 8B442430 		movl	48(%esp), %eax	 # sp, tmp90
 881 0926 8B10     		movl	(%eax), %edx	 # sp_1(D)->s_queue.p_next, D.2854
 882 0928 8B442430 		movl	48(%esp), %eax	 # sp, D.2855
 883 092c 39C2     		cmpl	%eax, %edx	 # D.2855, D.2854
 884 092e 741E     		je	L48	 #,
 885              	L46:
 886              		.loc 1 296 0 is_stmt 1
 887 0930 A1100100 		movl	LPBX1+272, %eax	 # *LPBX1, PROF_edge_counter.14
GAS LISTING C:\cygwin\tmp\ccclv1xX.s 			page 21


 887      00
 888 0935 8B151401 		movl	LPBX1+276, %edx	 # *LPBX1, PROF_edge_counter.14
 888      0000
 889 093b 83C001   		addl	$1, %eax	 #, PROF_edge_counter.14
 890 093e 83D200   		adcl	$0, %edx	 #, PROF_edge_counter.14
 891 0941 A3100100 		movl	%eax, LPBX1+272	 # PROF_edge_counter.14, *LPBX1
 891      00
 892 0946 89151401 		movl	%edx, LPBX1+276	 # PROF_edge_counter.14, *LPBX1
 892      0000
 893 094c EB38     		jmp	L49	 #
 894              	L48:
 895 094e A1080100 		movl	LPBX1+264, %eax	 # *LPBX1, PROF_edge_counter.14
 895      00
 896 0953 8B150C01 		movl	LPBX1+268, %edx	 # *LPBX1, PROF_edge_counter.14
 896      0000
 897 0959 83C001   		addl	$1, %eax	 #, PROF_edge_counter.14
 898 095c 83D200   		adcl	$0, %edx	 #, PROF_edge_counter.14
 899 095f A3080100 		movl	%eax, LPBX1+264	 # PROF_edge_counter.14, *LPBX1
 899      00
 900 0964 89150C01 		movl	%edx, LPBX1+268	 # PROF_edge_counter.14, *LPBX1
 900      0000
 901              	L47:
 902 096a A1180100 		movl	LPBX1+280, %eax	 # *LPBX1, PROF_edge_counter.14
 902      00
 903 096f 8B151C01 		movl	LPBX1+284, %edx	 # *LPBX1, PROF_edge_counter.14
 903      0000
 904 0975 83C001   		addl	$1, %eax	 #, PROF_edge_counter.14
 905 0978 83D200   		adcl	$0, %edx	 #, PROF_edge_counter.14
 906 097b A3180100 		movl	%eax, LPBX1+280	 # PROF_edge_counter.14, *LPBX1
 906      00
 907 0980 89151C01 		movl	%edx, LPBX1+284	 # PROF_edge_counter.14, *LPBX1
 907      0000
 908              	L49:
 909              		.loc 1 305 0
 910 0986 8B442430 		movl	48(%esp), %eax	 # sp, tmp91
 911 098a 8B4008   		movl	8(%eax), %eax	 # sp_1(D)->s_cnt, D.2856
 912 098d 8D5001   		leal	1(%eax), %edx	 #, D.2857
 913 0990 8B442430 		movl	48(%esp), %eax	 # sp, tmp92
 914 0994 895008   		movl	%edx, 8(%eax)	 # D.2857, sp_1(D)->s_cnt
 915 0997 8B442430 		movl	48(%esp), %eax	 # sp, tmp93
 916 099b 8B4008   		movl	8(%eax), %eax	 # sp_1(D)->s_cnt, D.2858
 917 099e 85C0     		testl	%eax, %eax	 # D.2858
 918 09a0 7F7B     		jg	L44	 #,
 919 09a2 A1200100 		movl	LPBX1+288, %eax	 # *LPBX1, PROF_edge_counter.14
 919      00
 920 09a7 8B152401 		movl	LPBX1+292, %edx	 # *LPBX1, PROF_edge_counter.14
 920      0000
 921 09ad 83C001   		addl	$1, %eax	 #, PROF_edge_counter.14
 922 09b0 83D200   		adcl	$0, %edx	 #, PROF_edge_counter.14
 923 09b3 A3200100 		movl	%eax, LPBX1+288	 # PROF_edge_counter.14, *LPBX1
 923      00
 924 09b8 89152401 		movl	%edx, LPBX1+292	 # PROF_edge_counter.14, *LPBX1
 924      0000
 925              	LBB2:
 926              		.loc 1 308 0
 927 09be 8B442430 		movl	48(%esp), %eax	 # sp, D.2861
 928 09c2 890424   		movl	%eax, (%esp)	 # D.2861,
GAS LISTING C:\cygwin\tmp\ccclv1xX.s 			page 22


 929 09c5 E8000000 		call	_fifo_remove	 #
 929      00
 930 09ca 8944241C 		movl	%eax, 28(%esp)	 # tmp94, tp
 931 09ce A1280100 		movl	LPBX1+296, %eax	 # *LPBX1, PROF_edge_counter.14
 931      00
 932 09d3 8B152C01 		movl	LPBX1+300, %edx	 # *LPBX1, PROF_edge_counter.14
 932      0000
 933 09d9 83C001   		addl	$1, %eax	 #, PROF_edge_counter.14
 934 09dc 83D200   		adcl	$0, %edx	 #, PROF_edge_counter.14
 935 09df A3280100 		movl	%eax, LPBX1+296	 # PROF_edge_counter.14, *LPBX1
 935      00
 936 09e4 89152C01 		movl	%edx, LPBX1+300	 # PROF_edge_counter.14, *LPBX1
 936      0000
 937              		.loc 1 309 0
 938 09ea 8B44241C 		movl	28(%esp), %eax	 # tp, tmp95
 939 09ee C7402400 		movl	$0, 36(%eax)	 #, tp_14->p_u.rdymsg
 939      000000
 940              		.loc 1 310 0
 941 09f5 8B44241C 		movl	28(%esp), %eax	 # tp, tmp96
 942 09f9 890424   		movl	%eax, (%esp)	 # tmp96,
 943 09fc E8000000 		call	_chSchReadyI	 #
 943      00
 944 0a01 A1300100 		movl	LPBX1+304, %eax	 # *LPBX1, PROF_edge_counter.14
 944      00
 945 0a06 8B153401 		movl	LPBX1+308, %edx	 # *LPBX1, PROF_edge_counter.14
 945      0000
 946 0a0c 83C001   		addl	$1, %eax	 #, PROF_edge_counter.14
 947 0a0f 83D200   		adcl	$0, %edx	 #, PROF_edge_counter.14
 948 0a12 A3300100 		movl	%eax, LPBX1+304	 # PROF_edge_counter.14, *LPBX1
 948      00
 949 0a17 89153401 		movl	%edx, LPBX1+308	 # PROF_edge_counter.14, *LPBX1
 949      0000
 950              	L44:
 951              	LBE2:
 952              		.loc 1 312 0
 953 0a1d 83C42C   		addl	$44, %esp	 #,
 954              	LCFI17:
 955              		.cfi_def_cfa_offset 4
 956 0a20 C3       		ret
 957              		.cfi_endproc
 958              	LFE8:
 959              		.globl	_chSemAddCounterI
 960              		.def	_chSemAddCounterI;	.scl	2;	.type	32;	.endef
 961              	_chSemAddCounterI:
 962              	LFB9:
 963              		.loc 1 327 0
 964              		.cfi_startproc
 965 0a21 83EC1C   		subl	$28, %esp	 #,
 966              	LCFI18:
 967              		.cfi_def_cfa_offset 32
 968              		.loc 1 330 0
 969 0a24 837C2420 		cmpl	$0, 32(%esp)	 #, sp
 969      00
 970 0a29 7423     		je	L52	 #,
 971              		.loc 1 330 0 is_stmt 0 discriminator 1
 972 0a2b A1A00000 		movl	LPBX1+160, %eax	 # *LPBX1, PROF_edge_counter.13
 972      00
GAS LISTING C:\cygwin\tmp\ccclv1xX.s 			page 23


 973 0a30 8B15A400 		movl	LPBX1+164, %edx	 # *LPBX1, PROF_edge_counter.13
 973      0000
 974 0a36 83C001   		addl	$1, %eax	 #, PROF_edge_counter.13
 975 0a39 83D200   		adcl	$0, %edx	 #, PROF_edge_counter.13
 976 0a3c A3A00000 		movl	%eax, LPBX1+160	 # PROF_edge_counter.13, *LPBX1
 976      00
 977 0a41 8915A400 		movl	%edx, LPBX1+164	 # PROF_edge_counter.13, *LPBX1
 977      0000
 978 0a47 837C2424 		cmpl	$0, 36(%esp)	 #, n
 978      00
 979 0a4c 7F1C     		jg	L53	 #,
 980              	L52:
 981              		.loc 1 330 0 discriminator 2
 982 0a4e A1A80000 		movl	LPBX1+168, %eax	 # *LPBX1, PROF_edge_counter.13
 982      00
 983 0a53 8B15AC00 		movl	LPBX1+172, %edx	 # *LPBX1, PROF_edge_counter.13
 983      0000
 984 0a59 83C001   		addl	$1, %eax	 #, PROF_edge_counter.13
 985 0a5c 83D200   		adcl	$0, %edx	 #, PROF_edge_counter.13
 986 0a5f A3A80000 		movl	%eax, LPBX1+168	 # PROF_edge_counter.13, *LPBX1
 986      00
 987 0a64 8915AC00 		movl	%edx, LPBX1+172	 # PROF_edge_counter.13, *LPBX1
 987      0000
 988              	L53:
 989              		.loc 1 331 0 is_stmt 1
 990 0a6a 8B442420 		movl	32(%esp), %eax	 # sp, tmp97
 991 0a6e 8B4008   		movl	8(%eax), %eax	 # sp_2(D)->s_cnt, D.2824
 992              		.loc 1 327 0
 993 0a71 85C0     		testl	%eax, %eax	 # D.2824
 994 0a73 782E     		js	L54	 #,
 995 0a75 A1B00000 		movl	LPBX1+176, %eax	 # *LPBX1, PROF_edge_counter.13
 995      00
 996 0a7a 8B15B400 		movl	LPBX1+180, %edx	 # *LPBX1, PROF_edge_counter.13
 996      0000
 997 0a80 83C001   		addl	$1, %eax	 #, PROF_edge_counter.13
 998 0a83 83D200   		adcl	$0, %edx	 #, PROF_edge_counter.13
 999 0a86 A3B00000 		movl	%eax, LPBX1+176	 # PROF_edge_counter.13, *LPBX1
 999      00
 1000 0a8b 8915B400 		movl	%edx, LPBX1+180	 # PROF_edge_counter.13, *LPBX1
 1000      0000
 1001              		.loc 1 331 0
 1002 0a91 8B442420 		movl	32(%esp), %eax	 # sp, tmp98
 1003 0a95 8B10     		movl	(%eax), %edx	 # sp_2(D)->s_queue.p_next, D.2826
 1004 0a97 8B442420 		movl	32(%esp), %eax	 # sp, D.2827
 1005 0a9b 39C2     		cmpl	%eax, %edx	 # D.2827, D.2826
 1006 0a9d 0F842301 		je	L59	 #,
 1006      0000
 1007              	L54:
 1008              		.loc 1 331 0 is_stmt 0 discriminator 1
 1009 0aa3 8B442420 		movl	32(%esp), %eax	 # sp, tmp99
 1010 0aa7 8B4008   		movl	8(%eax), %eax	 # sp_2(D)->s_cnt, D.2828
 1011 0aaa 85C0     		testl	%eax, %eax	 # D.2828
 1012 0aac 794A     		jns	L56	 #,
 1013              		.loc 1 331 0 discriminator 2
 1014 0aae A1B80000 		movl	LPBX1+184, %eax	 # *LPBX1, PROF_edge_counter.13
 1014      00
 1015 0ab3 8B15BC00 		movl	LPBX1+188, %edx	 # *LPBX1, PROF_edge_counter.13
GAS LISTING C:\cygwin\tmp\ccclv1xX.s 			page 24


 1015      0000
 1016 0ab9 83C001   		addl	$1, %eax	 #, PROF_edge_counter.13
 1017 0abc 83D200   		adcl	$0, %edx	 #, PROF_edge_counter.13
 1018 0abf A3B80000 		movl	%eax, LPBX1+184	 # PROF_edge_counter.13, *LPBX1
 1018      00
 1019 0ac4 8915BC00 		movl	%edx, LPBX1+188	 # PROF_edge_counter.13, *LPBX1
 1019      0000
 1020 0aca 8B442420 		movl	32(%esp), %eax	 # sp, tmp100
 1021 0ace 8B10     		movl	(%eax), %edx	 # sp_2(D)->s_queue.p_next, D.2830
 1022 0ad0 8B442420 		movl	32(%esp), %eax	 # sp, D.2831
 1023 0ad4 39C2     		cmpl	%eax, %edx	 # D.2831, D.2830
 1024 0ad6 0F85EA00 		jne	L59	 #,
 1024      0000
 1025              	L57:
 1026              		.loc 1 327 0 is_stmt 1
 1027 0adc A1C00000 		movl	LPBX1+192, %eax	 # *LPBX1, PROF_edge_counter.13
 1027      00
 1028 0ae1 8B15C400 		movl	LPBX1+196, %edx	 # *LPBX1, PROF_edge_counter.13
 1028      0000
 1029 0ae7 83C001   		addl	$1, %eax	 #, PROF_edge_counter.13
 1030 0aea 83D200   		adcl	$0, %edx	 #, PROF_edge_counter.13
 1031 0aed A3C00000 		movl	%eax, LPBX1+192	 # PROF_edge_counter.13, *LPBX1
 1031      00
 1032 0af2 8915C400 		movl	%edx, LPBX1+196	 # PROF_edge_counter.13, *LPBX1
 1032      0000
 1033              	L56:
 1034 0af8 A1C80000 		movl	LPBX1+200, %eax	 # *LPBX1, PROF_edge_counter.13
 1034      00
 1035 0afd 8B15CC00 		movl	LPBX1+204, %edx	 # *LPBX1, PROF_edge_counter.13
 1035      0000
 1036 0b03 83C001   		addl	$1, %eax	 #, PROF_edge_counter.13
 1037 0b06 83D200   		adcl	$0, %edx	 #, PROF_edge_counter.13
 1038 0b09 A3C80000 		movl	%eax, LPBX1+200	 # PROF_edge_counter.13, *LPBX1
 1038      00
 1039 0b0e 8915CC00 		movl	%edx, LPBX1+204	 # PROF_edge_counter.13, *LPBX1
 1039      0000
 1040              		.loc 1 336 0
 1041 0b14 E9AD0000 		jmp	L59	 #
 1041      00
 1042              	L61:
 1043 0b19 A1E80000 		movl	LPBX1+232, %eax	 # *LPBX1, PROF_edge_counter.13
 1043      00
 1044 0b1e 8B15EC00 		movl	LPBX1+236, %edx	 # *LPBX1, PROF_edge_counter.13
 1044      0000
 1045 0b24 83C001   		addl	$1, %eax	 #, PROF_edge_counter.13
 1046 0b27 83D200   		adcl	$0, %edx	 #, PROF_edge_counter.13
 1047 0b2a A3E80000 		movl	%eax, LPBX1+232	 # PROF_edge_counter.13, *LPBX1
 1047      00
 1048 0b2f 8915EC00 		movl	%edx, LPBX1+236	 # PROF_edge_counter.13, *LPBX1
 1048      0000
 1049              		.loc 1 337 0
 1050 0b35 8B442420 		movl	32(%esp), %eax	 # sp, tmp101
 1051 0b39 8B4008   		movl	8(%eax), %eax	 # sp_2(D)->s_cnt, D.2832
 1052 0b3c 8D5001   		leal	1(%eax), %edx	 #, D.2833
 1053 0b3f 8B442420 		movl	32(%esp), %eax	 # sp, tmp102
 1054 0b43 895008   		movl	%edx, 8(%eax)	 # D.2833, sp_2(D)->s_cnt
 1055 0b46 8B442420 		movl	32(%esp), %eax	 # sp, tmp103
GAS LISTING C:\cygwin\tmp\ccclv1xX.s 			page 25


 1056 0b4a 8B4008   		movl	8(%eax), %eax	 # sp_2(D)->s_cnt, D.2834
 1057 0b4d 85C0     		testl	%eax, %eax	 # D.2834
 1058 0b4f 7F55     		jg	L60	 #,
 1059              		.loc 1 338 0
 1060 0b51 8B442420 		movl	32(%esp), %eax	 # sp, D.2837
 1061 0b55 890424   		movl	%eax, (%esp)	 # D.2837,
 1062 0b58 E8000000 		call	_fifo_remove	 #
 1062      00
 1063 0b5d 89C1     		movl	%eax, %ecx	 #, D.2838
 1064 0b5f A1D00000 		movl	LPBX1+208, %eax	 # *LPBX1, PROF_edge_counter.13
 1064      00
 1065 0b64 8B15D400 		movl	LPBX1+212, %edx	 # *LPBX1, PROF_edge_counter.13
 1065      0000
 1066 0b6a 83C001   		addl	$1, %eax	 #, PROF_edge_counter.13
 1067 0b6d 83D200   		adcl	$0, %edx	 #, PROF_edge_counter.13
 1068 0b70 A3D00000 		movl	%eax, LPBX1+208	 # PROF_edge_counter.13, *LPBX1
 1068      00
 1069 0b75 8915D400 		movl	%edx, LPBX1+212	 # PROF_edge_counter.13, *LPBX1
 1069      0000
 1070 0b7b 890C24   		movl	%ecx, (%esp)	 # D.2838,
 1071 0b7e E8000000 		call	_chSchReadyI	 #
 1071      00
 1072 0b83 C7402400 		movl	$0, 36(%eax)	 #, D.2839_19->p_u.rdymsg
 1072      000000
 1073 0b8a A1D80000 		movl	LPBX1+216, %eax	 # *LPBX1, PROF_edge_counter.13
 1073      00
 1074 0b8f 8B15DC00 		movl	LPBX1+220, %edx	 # *LPBX1, PROF_edge_counter.13
 1074      0000
 1075 0b95 83C001   		addl	$1, %eax	 #, PROF_edge_counter.13
 1076 0b98 83D200   		adcl	$0, %edx	 #, PROF_edge_counter.13
 1077 0b9b A3D80000 		movl	%eax, LPBX1+216	 # PROF_edge_counter.13, *LPBX1
 1077      00
 1078 0ba0 8915DC00 		movl	%edx, LPBX1+220	 # PROF_edge_counter.13, *LPBX1
 1078      0000
 1079              	L60:
 1080              		.loc 1 339 0
 1081 0ba6 FF4C2424 		decl	36(%esp)	 # n
 1082 0baa A1E00000 		movl	LPBX1+224, %eax	 # *LPBX1, PROF_edge_counter.13
 1082      00
 1083 0baf 8B15E400 		movl	LPBX1+228, %edx	 # *LPBX1, PROF_edge_counter.13
 1083      0000
 1084 0bb5 83C001   		addl	$1, %eax	 #, PROF_edge_counter.13
 1085 0bb8 83D200   		adcl	$0, %edx	 #, PROF_edge_counter.13
 1086 0bbb A3E00000 		movl	%eax, LPBX1+224	 # PROF_edge_counter.13, *LPBX1
 1086      00
 1087 0bc0 8915E400 		movl	%edx, LPBX1+228	 # PROF_edge_counter.13, *LPBX1
 1087      0000
 1088              	L59:
 1089              		.loc 1 336 0 discriminator 1
 1090 0bc6 837C2424 		cmpl	$0, 36(%esp)	 #, n
 1090      00
 1091 0bcb 0F8F48FF 		jg	L61	 #,
 1091      FFFF
 1092              		.loc 1 336 0 is_stmt 0
 1093 0bd1 A1F00000 		movl	LPBX1+240, %eax	 # *LPBX1, PROF_edge_counter.13
 1093      00
 1094 0bd6 8B15F400 		movl	LPBX1+244, %edx	 # *LPBX1, PROF_edge_counter.13
GAS LISTING C:\cygwin\tmp\ccclv1xX.s 			page 26


 1094      0000
 1095 0bdc 83C001   		addl	$1, %eax	 #, PROF_edge_counter.13
 1096 0bdf 83D200   		adcl	$0, %edx	 #, PROF_edge_counter.13
 1097 0be2 A3F00000 		movl	%eax, LPBX1+240	 # PROF_edge_counter.13, *LPBX1
 1097      00
 1098 0be7 8915F400 		movl	%edx, LPBX1+244	 # PROF_edge_counter.13, *LPBX1
 1098      0000
 1099              		.loc 1 341 0 is_stmt 1
 1100 0bed 83C41C   		addl	$28, %esp	 #,
 1101              	LCFI19:
 1102              		.cfi_def_cfa_offset 4
 1103 0bf0 C3       		ret
 1104              		.cfi_endproc
 1105              	LFE9:
 1106              		.globl	_chSemSignalWait
 1107              		.def	_chSemSignalWait;	.scl	2;	.type	32;	.endef
 1108              	_chSemSignalWait:
 1109              	LFB10:
 1110              		.loc 1 359 0
 1111              		.cfi_startproc
 1112 0bf1 83EC2C   		subl	$44, %esp	 #,
 1113              	LCFI20:
 1114              		.cfi_def_cfa_offset 48
 1115              		.loc 1 362 0
 1116 0bf4 837C2430 		cmpl	$0, 48(%esp)	 #, sps
 1116      00
 1117 0bf9 7423     		je	L63	 #,
 1118              		.loc 1 362 0 is_stmt 0 discriminator 1
 1119 0bfb A1000000 		movl	LPBX1, %eax	 # *LPBX1, PROF_edge_counter.12
 1119      00
 1120 0c00 8B150400 		movl	LPBX1+4, %edx	 # *LPBX1, PROF_edge_counter.12
 1120      0000
 1121 0c06 83C001   		addl	$1, %eax	 #, PROF_edge_counter.12
 1122 0c09 83D200   		adcl	$0, %edx	 #, PROF_edge_counter.12
 1123 0c0c A3000000 		movl	%eax, LPBX1	 # PROF_edge_counter.12, *LPBX1
 1123      00
 1124 0c11 89150400 		movl	%edx, LPBX1+4	 # PROF_edge_counter.12, *LPBX1
 1124      0000
 1125 0c17 837C2434 		cmpl	$0, 52(%esp)	 #, spw
 1125      00
 1126 0c1c 751C     		jne	L64	 #,
 1127              	L63:
 1128              		.loc 1 362 0 discriminator 2
 1129 0c1e A1080000 		movl	LPBX1+8, %eax	 # *LPBX1, PROF_edge_counter.12
 1129      00
 1130 0c23 8B150C00 		movl	LPBX1+12, %edx	 # *LPBX1, PROF_edge_counter.12
 1130      0000
 1131 0c29 83C001   		addl	$1, %eax	 #, PROF_edge_counter.12
 1132 0c2c 83D200   		adcl	$0, %edx	 #, PROF_edge_counter.12
 1133 0c2f A3080000 		movl	%eax, LPBX1+8	 # PROF_edge_counter.12, *LPBX1
 1133      00
 1134 0c34 89150C00 		movl	%edx, LPBX1+12	 # PROF_edge_counter.12, *LPBX1
 1134      0000
 1135              	L64:
 1136              		.loc 1 363 0 is_stmt 1
 1137 0c3a 8B442430 		movl	48(%esp), %eax	 # sps, tmp129
 1138 0c3e 8B4008   		movl	8(%eax), %eax	 # sps_2(D)->s_cnt, D.2776
GAS LISTING C:\cygwin\tmp\ccclv1xX.s 			page 27


 1139              		.loc 1 359 0
 1140 0c41 85C0     		testl	%eax, %eax	 # D.2776
 1141 0c43 782A     		js	L65	 #,
 1142 0c45 A1100000 		movl	LPBX1+16, %eax	 # *LPBX1, PROF_edge_counter.12
 1142      00
 1143 0c4a 8B151400 		movl	LPBX1+20, %edx	 # *LPBX1, PROF_edge_counter.12
 1143      0000
 1144 0c50 83C001   		addl	$1, %eax	 #, PROF_edge_counter.12
 1145 0c53 83D200   		adcl	$0, %edx	 #, PROF_edge_counter.12
 1146 0c56 A3100000 		movl	%eax, LPBX1+16	 # PROF_edge_counter.12, *LPBX1
 1146      00
 1147 0c5b 89151400 		movl	%edx, LPBX1+20	 # PROF_edge_counter.12, *LPBX1
 1147      0000
 1148              		.loc 1 363 0
 1149 0c61 8B442430 		movl	48(%esp), %eax	 # sps, tmp130
 1150 0c65 8B10     		movl	(%eax), %edx	 # sps_2(D)->s_queue.p_next, D.2778
 1151 0c67 8B442430 		movl	48(%esp), %eax	 # sps, D.2779
 1152 0c6b 39C2     		cmpl	%eax, %edx	 # D.2779, D.2778
 1153 0c6d 746F     		je	L78	 #,
 1154              	L65:
 1155              		.loc 1 363 0 is_stmt 0 discriminator 1
 1156 0c6f 8B442430 		movl	48(%esp), %eax	 # sps, tmp131
 1157 0c73 8B4008   		movl	8(%eax), %eax	 # sps_2(D)->s_cnt, D.2780
 1158 0c76 85C0     		testl	%eax, %eax	 # D.2780
 1159 0c78 7946     		jns	L67	 #,
 1160              		.loc 1 363 0 discriminator 2
 1161 0c7a A1180000 		movl	LPBX1+24, %eax	 # *LPBX1, PROF_edge_counter.12
 1161      00
 1162 0c7f 8B151C00 		movl	LPBX1+28, %edx	 # *LPBX1, PROF_edge_counter.12
 1162      0000
 1163 0c85 83C001   		addl	$1, %eax	 #, PROF_edge_counter.12
 1164 0c88 83D200   		adcl	$0, %edx	 #, PROF_edge_counter.12
 1165 0c8b A3180000 		movl	%eax, LPBX1+24	 # PROF_edge_counter.12, *LPBX1
 1165      00
 1166 0c90 89151C00 		movl	%edx, LPBX1+28	 # PROF_edge_counter.12, *LPBX1
 1166      0000
 1167 0c96 8B442430 		movl	48(%esp), %eax	 # sps, tmp132
 1168 0c9a 8B10     		movl	(%eax), %edx	 # sps_2(D)->s_queue.p_next, D.2782
 1169 0c9c 8B442430 		movl	48(%esp), %eax	 # sps, D.2783
 1170 0ca0 39C2     		cmpl	%eax, %edx	 # D.2783, D.2782
 1171 0ca2 753A     		jne	L78	 #,
 1172              	L68:
 1173              		.loc 1 359 0 is_stmt 1
 1174 0ca4 A1200000 		movl	LPBX1+32, %eax	 # *LPBX1, PROF_edge_counter.12
 1174      00
 1175 0ca9 8B152400 		movl	LPBX1+36, %edx	 # *LPBX1, PROF_edge_counter.12
 1175      0000
 1176 0caf 83C001   		addl	$1, %eax	 #, PROF_edge_counter.12
 1177 0cb2 83D200   		adcl	$0, %edx	 #, PROF_edge_counter.12
 1178 0cb5 A3200000 		movl	%eax, LPBX1+32	 # PROF_edge_counter.12, *LPBX1
 1178      00
 1179 0cba 89152400 		movl	%edx, LPBX1+36	 # PROF_edge_counter.12, *LPBX1
 1179      0000
 1180              	L67:
 1181 0cc0 A1280000 		movl	LPBX1+40, %eax	 # *LPBX1, PROF_edge_counter.12
 1181      00
 1182 0cc5 8B152C00 		movl	LPBX1+44, %edx	 # *LPBX1, PROF_edge_counter.12
GAS LISTING C:\cygwin\tmp\ccclv1xX.s 			page 28


 1182      0000
 1183 0ccb 83C001   		addl	$1, %eax	 #, PROF_edge_counter.12
 1184 0cce 83D200   		adcl	$0, %edx	 #, PROF_edge_counter.12
 1185 0cd1 A3280000 		movl	%eax, LPBX1+40	 # PROF_edge_counter.12, *LPBX1
 1185      00
 1186 0cd6 89152C00 		movl	%edx, LPBX1+44	 # PROF_edge_counter.12, *LPBX1
 1186      0000
 1187 0cdc EB01     		jmp	L69	 #
 1188              	L78:
 1189 0cde 90       		nop
 1190              	L69:
 1191              		.loc 1 367 0 discriminator 1
 1192 0cdf 8B442434 		movl	52(%esp), %eax	 # spw, tmp133
 1193 0ce3 8B4008   		movl	8(%eax), %eax	 # spw_3(D)->s_cnt, D.2789
 1194              		.loc 1 359 0 discriminator 1
 1195 0ce6 85C0     		testl	%eax, %eax	 # D.2789
 1196 0ce8 782A     		js	L70	 #,
 1197              		.loc 1 359 0 is_stmt 0
 1198 0cea A1300000 		movl	LPBX1+48, %eax	 # *LPBX1, PROF_edge_counter.12
 1198      00
 1199 0cef 8B153400 		movl	LPBX1+52, %edx	 # *LPBX1, PROF_edge_counter.12
 1199      0000
 1200 0cf5 83C001   		addl	$1, %eax	 #, PROF_edge_counter.12
 1201 0cf8 83D200   		adcl	$0, %edx	 #, PROF_edge_counter.12
 1202 0cfb A3300000 		movl	%eax, LPBX1+48	 # PROF_edge_counter.12, *LPBX1
 1202      00
 1203 0d00 89153400 		movl	%edx, LPBX1+52	 # PROF_edge_counter.12, *LPBX1
 1203      0000
 1204              		.loc 1 367 0 is_stmt 1
 1205 0d06 8B442434 		movl	52(%esp), %eax	 # spw, tmp134
 1206 0d0a 8B10     		movl	(%eax), %edx	 # spw_3(D)->s_queue.p_next, D.2791
 1207 0d0c 8B442434 		movl	52(%esp), %eax	 # spw, D.2792
 1208 0d10 39C2     		cmpl	%eax, %edx	 # D.2792, D.2791
 1209 0d12 7435     		je	L71	 #,
 1210              	L70:
 1211              		.loc 1 367 0 is_stmt 0 discriminator 1
 1212 0d14 8B442434 		movl	52(%esp), %eax	 # spw, tmp135
 1213 0d18 8B4008   		movl	8(%eax), %eax	 # spw_3(D)->s_cnt, D.2793
 1214 0d1b 85C0     		testl	%eax, %eax	 # D.2793
 1215 0d1d 7964     		jns	L72	 #,
 1216              		.loc 1 367 0 discriminator 2
 1217 0d1f A1380000 		movl	LPBX1+56, %eax	 # *LPBX1, PROF_edge_counter.12
 1217      00
 1218 0d24 8B153C00 		movl	LPBX1+60, %edx	 # *LPBX1, PROF_edge_counter.12
 1218      0000
 1219 0d2a 83C001   		addl	$1, %eax	 #, PROF_edge_counter.12
 1220 0d2d 83D200   		adcl	$0, %edx	 #, PROF_edge_counter.12
 1221 0d30 A3380000 		movl	%eax, LPBX1+56	 # PROF_edge_counter.12, *LPBX1
 1221      00
 1222 0d35 89153C00 		movl	%edx, LPBX1+60	 # PROF_edge_counter.12, *LPBX1
 1222      0000
 1223 0d3b 8B442434 		movl	52(%esp), %eax	 # spw, tmp136
 1224 0d3f 8B10     		movl	(%eax), %edx	 # spw_3(D)->s_queue.p_next, D.2795
 1225 0d41 8B442434 		movl	52(%esp), %eax	 # spw, D.2796
 1226 0d45 39C2     		cmpl	%eax, %edx	 # D.2796, D.2795
 1227 0d47 741E     		je	L73	 #,
 1228              	L71:
GAS LISTING C:\cygwin\tmp\ccclv1xX.s 			page 29


 1229              		.loc 1 359 0 is_stmt 1
 1230 0d49 A1480000 		movl	LPBX1+72, %eax	 # *LPBX1, PROF_edge_counter.12
 1230      00
 1231 0d4e 8B154C00 		movl	LPBX1+76, %edx	 # *LPBX1, PROF_edge_counter.12
 1231      0000
 1232 0d54 83C001   		addl	$1, %eax	 #, PROF_edge_counter.12
 1233 0d57 83D200   		adcl	$0, %edx	 #, PROF_edge_counter.12
 1234 0d5a A3480000 		movl	%eax, LPBX1+72	 # PROF_edge_counter.12, *LPBX1
 1234      00
 1235 0d5f 89154C00 		movl	%edx, LPBX1+76	 # PROF_edge_counter.12, *LPBX1
 1235      0000
 1236 0d65 EB38     		jmp	L74	 #
 1237              	L73:
 1238 0d67 A1400000 		movl	LPBX1+64, %eax	 # *LPBX1, PROF_edge_counter.12
 1238      00
 1239 0d6c 8B154400 		movl	LPBX1+68, %edx	 # *LPBX1, PROF_edge_counter.12
 1239      0000
 1240 0d72 83C001   		addl	$1, %eax	 #, PROF_edge_counter.12
 1241 0d75 83D200   		adcl	$0, %edx	 #, PROF_edge_counter.12
 1242 0d78 A3400000 		movl	%eax, LPBX1+64	 # PROF_edge_counter.12, *LPBX1
 1242      00
 1243 0d7d 89154400 		movl	%edx, LPBX1+68	 # PROF_edge_counter.12, *LPBX1
 1243      0000
 1244              	L72:
 1245 0d83 A1500000 		movl	LPBX1+80, %eax	 # *LPBX1, PROF_edge_counter.12
 1245      00
 1246 0d88 8B155400 		movl	LPBX1+84, %edx	 # *LPBX1, PROF_edge_counter.12
 1246      0000
 1247 0d8e 83C001   		addl	$1, %eax	 #, PROF_edge_counter.12
 1248 0d91 83D200   		adcl	$0, %edx	 #, PROF_edge_counter.12
 1249 0d94 A3500000 		movl	%eax, LPBX1+80	 # PROF_edge_counter.12, *LPBX1
 1249      00
 1250 0d99 89155400 		movl	%edx, LPBX1+84	 # PROF_edge_counter.12, *LPBX1
 1250      0000
 1251              	L74:
 1252              		.loc 1 372 0
 1253              	/APP
 1254              	 # 372 "../../os/kernel/src/chsem.c" 1
 1255 0d9f 90       		nop
 1256              	 # 0 "" 2
 1257              		.loc 1 373 0
 1258              	/NO_APP
 1259 0da0 8B442430 		movl	48(%esp), %eax	 # sps, tmp137
 1260 0da4 8B4008   		movl	8(%eax), %eax	 # sps_2(D)->s_cnt, D.2797
 1261 0da7 8D5001   		leal	1(%eax), %edx	 #, D.2798
 1262 0daa 8B442430 		movl	48(%esp), %eax	 # sps, tmp138
 1263 0dae 895008   		movl	%edx, 8(%eax)	 # D.2798, sps_2(D)->s_cnt
 1264 0db1 8B442430 		movl	48(%esp), %eax	 # sps, tmp139
 1265 0db5 8B4008   		movl	8(%eax), %eax	 # sps_2(D)->s_cnt, D.2799
 1266 0db8 85C0     		testl	%eax, %eax	 # D.2799
 1267 0dba 7F71     		jg	L75	 #,
 1268 0dbc A1580000 		movl	LPBX1+88, %eax	 # *LPBX1, PROF_edge_counter.12
 1268      00
 1269 0dc1 8B155C00 		movl	LPBX1+92, %edx	 # *LPBX1, PROF_edge_counter.12
 1269      0000
 1270 0dc7 83C001   		addl	$1, %eax	 #, PROF_edge_counter.12
 1271 0dca 83D200   		adcl	$0, %edx	 #, PROF_edge_counter.12
GAS LISTING C:\cygwin\tmp\ccclv1xX.s 			page 30


 1272 0dcd A3580000 		movl	%eax, LPBX1+88	 # PROF_edge_counter.12, *LPBX1
 1272      00
 1273 0dd2 89155C00 		movl	%edx, LPBX1+92	 # PROF_edge_counter.12, *LPBX1
 1273      0000
 1274              		.loc 1 374 0
 1275 0dd8 8B442430 		movl	48(%esp), %eax	 # sps, D.2802
 1276 0ddc 890424   		movl	%eax, (%esp)	 # D.2802,
 1277 0ddf E8000000 		call	_fifo_remove	 #
 1277      00
 1278 0de4 89C1     		movl	%eax, %ecx	 #, D.2803
 1279 0de6 A1600000 		movl	LPBX1+96, %eax	 # *LPBX1, PROF_edge_counter.12
 1279      00
 1280 0deb 8B156400 		movl	LPBX1+100, %edx	 # *LPBX1, PROF_edge_counter.12
 1280      0000
 1281 0df1 83C001   		addl	$1, %eax	 #, PROF_edge_counter.12
 1282 0df4 83D200   		adcl	$0, %edx	 #, PROF_edge_counter.12
 1283 0df7 A3600000 		movl	%eax, LPBX1+96	 # PROF_edge_counter.12, *LPBX1
 1283      00
 1284 0dfc 89156400 		movl	%edx, LPBX1+100	 # PROF_edge_counter.12, *LPBX1
 1284      0000
 1285 0e02 890C24   		movl	%ecx, (%esp)	 # D.2803,
 1286 0e05 E8000000 		call	_chSchReadyI	 #
 1286      00
 1287 0e0a C7402400 		movl	$0, 36(%eax)	 #, D.2804_27->p_u.rdymsg
 1287      000000
 1288 0e11 A1680000 		movl	LPBX1+104, %eax	 # *LPBX1, PROF_edge_counter.12
 1288      00
 1289 0e16 8B156C00 		movl	LPBX1+108, %edx	 # *LPBX1, PROF_edge_counter.12
 1289      0000
 1290 0e1c 83C001   		addl	$1, %eax	 #, PROF_edge_counter.12
 1291 0e1f 83D200   		adcl	$0, %edx	 #, PROF_edge_counter.12
 1292 0e22 A3680000 		movl	%eax, LPBX1+104	 # PROF_edge_counter.12, *LPBX1
 1292      00
 1293 0e27 89156C00 		movl	%edx, LPBX1+108	 # PROF_edge_counter.12, *LPBX1
 1293      0000
 1294              	L75:
 1295              		.loc 1 375 0
 1296 0e2d 8B442434 		movl	52(%esp), %eax	 # spw, tmp140
 1297 0e31 8B4008   		movl	8(%eax), %eax	 # spw_3(D)->s_cnt, D.2805
 1298 0e34 8D50FF   		leal	-1(%eax), %edx	 #, D.2806
 1299 0e37 8B442434 		movl	52(%esp), %eax	 # spw, tmp141
 1300 0e3b 895008   		movl	%edx, 8(%eax)	 # D.2806, spw_3(D)->s_cnt
 1301 0e3e 8B442434 		movl	52(%esp), %eax	 # spw, tmp142
 1302 0e42 8B4008   		movl	8(%eax), %eax	 # spw_3(D)->s_cnt, D.2807
 1303 0e45 85C0     		testl	%eax, %eax	 # D.2807
 1304 0e47 0F899500 		jns	L76	 #,
 1304      0000
 1305 0e4d A1700000 		movl	LPBX1+112, %eax	 # *LPBX1, PROF_edge_counter.12
 1305      00
 1306 0e52 8B157400 		movl	LPBX1+116, %edx	 # *LPBX1, PROF_edge_counter.12
 1306      0000
 1307 0e58 83C001   		addl	$1, %eax	 #, PROF_edge_counter.12
 1308 0e5b 83D200   		adcl	$0, %edx	 #, PROF_edge_counter.12
 1309 0e5e A3700000 		movl	%eax, LPBX1+112	 # PROF_edge_counter.12, *LPBX1
 1309      00
 1310 0e63 89157400 		movl	%edx, LPBX1+116	 # PROF_edge_counter.12, *LPBX1
 1310      0000
GAS LISTING C:\cygwin\tmp\ccclv1xX.s 			page 31


 1311              	LBB3:
 1312              		.loc 1 376 0
 1313 0e69 A1180000 		movl	_rlist+24, %eax	 # rlist.r_current, tmp143
 1313      00
 1314 0e6e 89442418 		movl	%eax, 24(%esp)	 # tmp143, ctp
 1315              		.loc 1 377 0
 1316 0e72 8B442434 		movl	52(%esp), %eax	 # spw, D.2810
 1317 0e76 89442404 		movl	%eax, 4(%esp)	 # D.2810,
 1318 0e7a 8B442418 		movl	24(%esp), %eax	 # ctp, tmp144
 1319 0e7e 890424   		movl	%eax, (%esp)	 # tmp144,
 1320 0e81 E8000000 		call	_queue_insert	 #
 1320      00
 1321 0e86 A1800000 		movl	LPBX1+128, %eax	 # *LPBX1, PROF_edge_counter.12
 1321      00
 1322 0e8b 8B158400 		movl	LPBX1+132, %edx	 # *LPBX1, PROF_edge_counter.12
 1322      0000
 1323 0e91 83C001   		addl	$1, %eax	 #, PROF_edge_counter.12
 1324 0e94 83D200   		adcl	$0, %edx	 #, PROF_edge_counter.12
 1325 0e97 A3800000 		movl	%eax, LPBX1+128	 # PROF_edge_counter.12, *LPBX1
 1325      00
 1326 0e9c 89158400 		movl	%edx, LPBX1+132	 # PROF_edge_counter.12, *LPBX1
 1326      0000
 1327              		.loc 1 378 0
 1328 0ea2 8B442418 		movl	24(%esp), %eax	 # ctp, tmp145
 1329 0ea6 8B542434 		movl	52(%esp), %edx	 # spw, tmp146
 1330 0eaa 895024   		movl	%edx, 36(%eax)	 # tmp146, ctp_31->p_u.wtobjp
 1331              		.loc 1 379 0
 1332 0ead C7042403 		movl	$3, (%esp)	 #,
 1332      000000
 1333 0eb4 E8000000 		call	_chSchGoSleepS	 #
 1333      00
 1334              		.loc 1 380 0
 1335 0eb9 8B442418 		movl	24(%esp), %eax	 # ctp, tmp147
 1336 0ebd 8B4024   		movl	36(%eax), %eax	 # ctp_31->p_u.rdymsg, tmp148
 1337 0ec0 8944241C 		movl	%eax, 28(%esp)	 # tmp148, msg
 1338 0ec4 A1880000 		movl	LPBX1+136, %eax	 # *LPBX1, PROF_edge_counter.12
 1338      00
 1339 0ec9 8B158C00 		movl	LPBX1+140, %edx	 # *LPBX1, PROF_edge_counter.12
 1339      0000
 1340 0ecf 83C001   		addl	$1, %eax	 #, PROF_edge_counter.12
 1341 0ed2 83D200   		adcl	$0, %edx	 #, PROF_edge_counter.12
 1342 0ed5 A3880000 		movl	%eax, LPBX1+136	 # PROF_edge_counter.12, *LPBX1
 1342      00
 1343 0eda 89158C00 		movl	%edx, LPBX1+140	 # PROF_edge_counter.12, *LPBX1
 1343      0000
 1344 0ee0 EB45     		jmp	L77	 #
 1345              	L76:
 1346 0ee2 A1780000 		movl	LPBX1+120, %eax	 # *LPBX1, PROF_edge_counter.12
 1346      00
 1347 0ee7 8B157C00 		movl	LPBX1+124, %edx	 # *LPBX1, PROF_edge_counter.12
 1347      0000
 1348 0eed 83C001   		addl	$1, %eax	 #, PROF_edge_counter.12
 1349 0ef0 83D200   		adcl	$0, %edx	 #, PROF_edge_counter.12
 1350 0ef3 A3780000 		movl	%eax, LPBX1+120	 # PROF_edge_counter.12, *LPBX1
 1350      00
 1351 0ef8 89157C00 		movl	%edx, LPBX1+124	 # PROF_edge_counter.12, *LPBX1
 1351      0000
GAS LISTING C:\cygwin\tmp\ccclv1xX.s 			page 32


 1352              	LBE3:
 1353              		.loc 1 383 0
 1354 0efe E8000000 		call	_chSchRescheduleS	 #
 1354      00
 1355              		.loc 1 384 0
 1356 0f03 C744241C 		movl	$0, 28(%esp)	 #, msg
 1356      00000000 
 1357 0f0b A1900000 		movl	LPBX1+144, %eax	 # *LPBX1, PROF_edge_counter.12
 1357      00
 1358 0f10 8B159400 		movl	LPBX1+148, %edx	 # *LPBX1, PROF_edge_counter.12
 1358      0000
 1359 0f16 83C001   		addl	$1, %eax	 #, PROF_edge_counter.12
 1360 0f19 83D200   		adcl	$0, %edx	 #, PROF_edge_counter.12
 1361 0f1c A3900000 		movl	%eax, LPBX1+144	 # PROF_edge_counter.12, *LPBX1
 1361      00
 1362 0f21 89159400 		movl	%edx, LPBX1+148	 # PROF_edge_counter.12, *LPBX1
 1362      0000
 1363              	L77:
 1364              		.loc 1 386 0
 1365              	/APP
 1366              	 # 386 "../../os/kernel/src/chsem.c" 1
 1367 0f27 90       		nop
 1368              	 # 0 "" 2
 1369              	/NO_APP
 1370 0f28 A1980000 		movl	LPBX1+152, %eax	 # *LPBX1, PROF_edge_counter.12
 1370      00
 1371 0f2d 8B159C00 		movl	LPBX1+156, %edx	 # *LPBX1, PROF_edge_counter.12
 1371      0000
 1372 0f33 83C001   		addl	$1, %eax	 #, PROF_edge_counter.12
 1373 0f36 83D200   		adcl	$0, %edx	 #, PROF_edge_counter.12
 1374 0f39 A3980000 		movl	%eax, LPBX1+152	 # PROF_edge_counter.12, *LPBX1
 1374      00
 1375 0f3e 89159C00 		movl	%edx, LPBX1+156	 # PROF_edge_counter.12, *LPBX1
 1375      0000
 1376              		.loc 1 387 0
 1377 0f44 8B44241C 		movl	28(%esp), %eax	 # msg, D.2812
 1378              		.loc 1 388 0
 1379 0f48 83C42C   		addl	$44, %esp	 #,
 1380              	LCFI21:
 1381              		.cfi_def_cfa_offset 4
 1382 0f4b C3       		ret
 1383              		.cfi_endproc
 1384              	LFE10:
 1385              	.lcomm LPBX1,736,32
 1386              		.section .rdata,"dr"
 1387              		.align 4
 1388              	LC0:
 1389 0000 433A5C64 		.ascii "C:\\develop\\gyro\\ChibiOS\\test\\coverage/../../os/kernel/src/chsem.gcda\0"
 1389      6576656C 
 1389      6F705C67 
 1389      79726F5C 
 1389      43686962 
 1390 0045 000000   		.data
 1391              		.align 32
 1392              	LC1:
 1393              	 # <anonymous>:
 1394 0000 0B000000 		.long	11
GAS LISTING C:\cygwin\tmp\ccclv1xX.s 			page 33


 1395              	 # <anonymous>:
 1396 0004 D237891D 		.long	495531986
 1397              	 # <anonymous>:
 1398 0008 14000000 		.long	20
 1399              	 # <anonymous>:
 1400 000c 0A000000 		.long	10
 1401              	 # <anonymous>:
 1402 0010 911A792A 		.long	712579729
 1403              	 # <anonymous>:
 1404 0014 0B000000 		.long	11
 1405              	 # <anonymous>:
 1406 0018 09000000 		.long	9
 1407              	 # <anonymous>:
 1408 001c 9E31E633 		.long	870723998
 1409              	 # <anonymous>:
 1410 0020 08000000 		.long	8
 1411              	 # <anonymous>:
 1412 0024 08000000 		.long	8
 1413              	 # <anonymous>:
 1414 0028 08AE17DE 		.long	-568873464
 1415              	 # <anonymous>:
 1416 002c 0A000000 		.long	10
 1417              	 # <anonymous>:
 1418 0030 07000000 		.long	7
 1419              	 # <anonymous>:
 1420 0034 F4EA5D81 		.long	-2124551436
 1421              	 # <anonymous>:
 1422 0038 09000000 		.long	9
 1423              	 # <anonymous>:
 1424 003c 06000000 		.long	6
 1425              	 # <anonymous>:
 1426 0040 317667AC 		.long	-1402505679
 1427              	 # <anonymous>:
 1428 0044 04000000 		.long	4
 1429              	 # <anonymous>:
 1430 0048 05000000 		.long	5
 1431              	 # <anonymous>:
 1432 004c EDA361B4 		.long	-1268669459
 1433              	 # <anonymous>:
 1434 0050 08000000 		.long	8
 1435              	 # <anonymous>:
 1436 0054 04000000 		.long	4
 1437              	 # <anonymous>:
 1438 0058 B564B99A 		.long	-1699126091
 1439              	 # <anonymous>:
 1440 005c 04000000 		.long	4
 1441              	 # <anonymous>:
 1442 0060 03000000 		.long	3
 1443              	 # <anonymous>:
 1444 0064 7110C5F1 		.long	-238743439
 1445              	 # <anonymous>:
 1446 0068 0A000000 		.long	10
 1447              	 # <anonymous>:
 1448 006c 02000000 		.long	2
 1449              	 # <anonymous>:
 1450 0070 9D64D7CE 		.long	-824744803
 1451              	 # <anonymous>:
GAS LISTING C:\cygwin\tmp\ccclv1xX.s 			page 34


 1452 0074 05000000 		.long	5
 1453              	 # <anonymous>:
 1454 0078 01000000 		.long	1
 1455              	 # <anonymous>:
 1456 007c E2371581 		.long	-2129315870
 1457              	 # <anonymous>:
 1458 0080 03000000 		.long	3
 1459 0084 00000000 		.align 32
 1459      00000000 
 1459      00000000 
 1459      00000000 
 1459      00000000 
 1460              	LPBX0:
 1461              	 # <anonymous>:
 1462 00a0 2A363034 		.long	875574826
 1463              	 # <anonymous>:
 1464 00a4 00000000 		.long	0
 1465              	 # <anonymous>:
 1466 00a8 EF1B7060 		.long	1617959919
 1467              	 # <anonymous>:
 1468 00ac 00000000 		.long	LC0
 1469              	 # <anonymous>:
 1470 00b0 0B000000 		.long	11
 1471              	 # <anonymous>:
 1472 00b4 00000000 		.long	LC1
 1473              	 # <anonymous>:
 1474 00b8 01000000 		.long	1
 1475              	 # <anonymous>:
 1476              	 # <anonymous>:
 1477 00bc 5C000000 		.long	92
 1478              	 # <anonymous>:
 1479 00c0 00000000 		.long	LPBX1
 1480              	 # <anonymous>:
 1481 00c4 00000000 		.long	___gcov_merge_add
 1482 00c8 00000000 		.space 12
 1482      00000000 
 1482      00000000 
 1483 00d4 00000000 		.text
 1483      00000000 
 1483      00000000 
 1484              		.def	__GLOBAL__sub_I_65535_0_chSemInit;	.scl	3;	.type	32;	.endef
 1485              	__GLOBAL__sub_I_65535_0_chSemInit:
 1486              	LFB11:
 1487              		.loc 1 388 0
 1488              		.cfi_startproc
 1489 0f4c 83EC1C   		subl	$28, %esp	 #,
 1490              	LCFI22:
 1491              		.cfi_def_cfa_offset 32
 1492              		.loc 1 388 0
 1493 0f4f C70424A0 		movl	$LPBX0, (%esp)	 #,
 1493      000000
 1494 0f56 E8000000 		call	___gcov_init	 #
 1494      00
 1495 0f5b 83C41C   		addl	$28, %esp	 #,
 1496              	LCFI23:
 1497              		.cfi_def_cfa_offset 4
 1498 0f5e C3       		ret
GAS LISTING C:\cygwin\tmp\ccclv1xX.s 			page 35


 1499              		.cfi_endproc
 1500              	LFE11:
 1501              		.section	.ctors,"w"
 1502              		.align 4
 1503 0000 4C0F0000 		.long	__GLOBAL__sub_I_65535_0_chSemInit
 1504              		.text
 1505              	Letext0:
 1506              		.file 2 "c:/mingw/bin/../lib/gcc/mingw32/4.6.2/../../../../include/stdint.h"
 1507              		.file 3 "../../os/ports/GCC/SIMIA32/chtypes.h"
 1508              		.file 4 "../../os/kernel/include/chlists.h"
 1509              		.file 5 "../../os/kernel/include/chthreads.h"
 1510              		.file 6 "../../os/ports/GCC/SIMIA32/chcore.h"
 1511              		.file 7 "../../os/kernel/include/chschd.h"
 1512              		.file 8 "../../os/kernel/include/chsem.h"
 1513              		.file 9 "../../os/kernel/include/chmtx.h"