GAS LISTING C:\cygwin\tmp\ccytH5Is.s 			page 1


   1              		.file	"chsys.c"
   2              	 # GNU C (GCC) version 4.6.2 (mingw32)
   3              	 #	compiled by GNU C version 4.6.2, GMP version 5.0.1, MPFR version 2.4.1, MPC version 0.8.1
   4              	 # GGC heuristics: --param ggc-min-expand=100 --param ggc-min-heapsize=131072
   5              	 # options passed:  -I . -I ../../os/ports/GCC/SIMIA32
   6              	 # -I ../../os/kernel/include -I ../../test -I ../../os/hal/include
   7              	 # -I ../../os/hal/platforms/Win32 -I ../../boards/simulator
   8              	 # -I ../../os/various -iprefix c:\mingw\bin\../lib/gcc/mingw32/4.6.2/
   9              	 # -MD ../../os/kernel/src/chsys.d -MF .dep/chsys.o.d -MP
  10              	 # -MQ ../../os/kernel/src/chsys.o -D SIMULATOR ../../os/kernel/src/chsys.c
  11              	 # -mtune=i386 -march=i386 -auxbase-strip ../../os/kernel/src/chsys.o -ggdb
  12              	 # -O0 -Wall -Wextra -Wstrict-prototypes -fomit-frame-pointer
  13              	 # -fprofile-arcs -ftest-coverage -fverbose-asm
  14              	 # options enabled:  -fasynchronous-unwind-tables -fauto-inc-dec
  15              	 # -fbranch-count-reg -fcommon -fdelete-null-pointer-checks
  16              	 # -fdwarf2-cfi-asm -fearly-inlining -feliminate-unused-debug-types
  17              	 # -ffunction-cse -fgcse-lm -fident -finline-functions-called-once
  18              	 # -fira-share-save-slots -fira-share-spill-slots -fivopts
  19              	 # -fkeep-inline-dllexport -fkeep-static-consts -fleading-underscore
  20              	 # -fmath-errno -fmerge-debug-strings -fmove-loop-invariants
  21              	 # -fomit-frame-pointer -fpeephole -fprefetch-loop-arrays -fprofile-arcs
  22              	 # -freg-struct-return -fsched-critical-path-heuristic
  23              	 # -fsched-dep-count-heuristic -fsched-group-heuristic -fsched-interblock
  24              	 # -fsched-last-insn-heuristic -fsched-rank-heuristic -fsched-spec
  25              	 # -fsched-spec-insn-heuristic -fsched-stalled-insns-dep
  26              	 # -fset-stack-executable -fshow-column -fsigned-zeros
  27              	 # -fsplit-ivs-in-unroller -fstrict-volatile-bitfields -ftest-coverage
  28              	 # -ftrapping-math -ftree-cselim -ftree-forwprop -ftree-loop-if-convert
  29              	 # -ftree-loop-im -ftree-loop-ivcanon -ftree-loop-optimize
  30              	 # -ftree-parallelize-loops= -ftree-phiprop -ftree-pta -ftree-reassoc
  31              	 # -ftree-scev-cprop -ftree-slp-vectorize -ftree-vect-loop-version
  32              	 # -funit-at-a-time -funwind-tables -fvect-cost-model -fverbose-asm
  33              	 # -fzero-initialized-in-bss -m32 -m80387 -m96bit-long-double
  34              	 # -maccumulate-outgoing-args -malign-double -malign-stringops
  35              	 # -mfancy-math-387 -mfp-ret-in-387 -mieee-fp -mno-red-zone -mno-sse4
  36              	 # -mpush-args -msahf -mstack-arg-probe
  37              	
  38              		.text
  39              	Ltext0:
  40              	 # Compiler executable checksum: c20aed7c018482d7b62efcd5dcab2a9d
  41              	
  42              		.comm	__idle_thread_wa, 16752, 5
  43              		.section .rdata,"dr"
  44              	LC0:
  45 0000 69646C65 		.ascii "idle\0"
  45      00
  46              		.text
  47              		.globl	__idle_thread
  48              		.def	__idle_thread;	.scl	2;	.type	32;	.endef
  49              	__idle_thread:
  50              	LFB0:
  51              		.file 1 "../../os/kernel/src/chsys.c"
  52              		.loc 1 54 0
  53              		.cfi_startproc
  54 0000 83EC0C   		subl	$12, %esp	 #,
  55              	LCFI0:
  56              		.cfi_def_cfa_offset 16
GAS LISTING C:\cygwin\tmp\ccytH5Is.s 			page 2


  57              		.loc 1 57 0
  58 0003 A1180000 		movl	_rlist+24, %eax	 # rlist.r_current, D.2757
  58      00
  59 0008 C7401800 		movl	$LC0, 24(%eax)	 #, D.2757_1->p_name
  59      000000
  60 000f A1C80000 		movl	LPBX1+104, %eax	 # *LPBX1, PROF_edge_counter.3
  60      00
  61 0014 8B15CC00 		movl	LPBX1+108, %edx	 # *LPBX1, PROF_edge_counter.3
  61      0000
  62 001a 83C001   		addl	$1, %eax	 #, PROF_edge_counter.3
  63 001d 83D200   		adcl	$0, %edx	 #, PROF_edge_counter.3
  64 0020 A3C80000 		movl	%eax, LPBX1+104	 # PROF_edge_counter.3, *LPBX1
  64      00
  65 0025 8915CC00 		movl	%edx, LPBX1+108	 # PROF_edge_counter.3, *LPBX1
  65      0000
  66              	L2:
  67              		.loc 1 59 0 discriminator 1
  68 002b E8000000 		call	_ChkIntSources	 #
  68      00
  69              		.loc 1 61 0 discriminator 1
  70 0030 A1D00000 		movl	LPBX1+112, %eax	 # *LPBX1, PROF_edge_counter.3
  70      00
  71 0035 8B15D400 		movl	LPBX1+116, %edx	 # *LPBX1, PROF_edge_counter.3
  71      0000
  72 003b 83C001   		addl	$1, %eax	 #, PROF_edge_counter.3
  73 003e 83D200   		adcl	$0, %edx	 #, PROF_edge_counter.3
  74 0041 A3D00000 		movl	%eax, LPBX1+112	 # PROF_edge_counter.3, *LPBX1
  74      00
  75 0046 8915D400 		movl	%edx, LPBX1+116	 # PROF_edge_counter.3, *LPBX1
  75      0000
  76 004c EBDD     		jmp	L2	 #
  77              		.cfi_endproc
  78              	LFE0:
  79              		.globl	_chSysInit
  80              		.def	_chSysInit;	.scl	2;	.type	32;	.endef
  81              	_chSysInit:
  82              	LFB1:
  83              		.loc 1 77 0
  84              		.cfi_startproc
  85 004e 83EC2C   		subl	$44, %esp	 #,
  86              	LCFI1:
  87              		.cfi_def_cfa_offset 48
  88              		.loc 1 77 0
  89 0051 A1880000 		movl	LPBX1+40, %eax	 # *LPBX1, PROF_edge_counter.2
  89      00
  90 0056 8B158C00 		movl	LPBX1+44, %edx	 # *LPBX1, PROF_edge_counter.2
  90      0000
  91 005c 83C001   		addl	$1, %eax	 #, PROF_edge_counter.2
  92 005f 83D200   		adcl	$0, %edx	 #, PROF_edge_counter.2
  93 0062 A3880000 		movl	%eax, LPBX1+40	 # PROF_edge_counter.2, *LPBX1
  93      00
  94 0067 89158C00 		movl	%edx, LPBX1+44	 # PROF_edge_counter.2, *LPBX1
  94      0000
  95              		.loc 1 84 0
  96 006d E8000000 		call	__scheduler_init	 #
  96      00
  97 0072 A1900000 		movl	LPBX1+48, %eax	 # *LPBX1, PROF_edge_counter.2
GAS LISTING C:\cygwin\tmp\ccytH5Is.s 			page 3


  97      00
  98 0077 8B159400 		movl	LPBX1+52, %edx	 # *LPBX1, PROF_edge_counter.2
  98      0000
  99 007d 83C001   		addl	$1, %eax	 #, PROF_edge_counter.2
 100 0080 83D200   		adcl	$0, %edx	 #, PROF_edge_counter.2
 101 0083 A3900000 		movl	%eax, LPBX1+48	 # PROF_edge_counter.2, *LPBX1
 101      00
 102 0088 89159400 		movl	%edx, LPBX1+52	 # PROF_edge_counter.2, *LPBX1
 102      0000
 103              		.loc 1 85 0
 104 008e E8000000 		call	__vt_init	 #
 104      00
 105 0093 A1980000 		movl	LPBX1+56, %eax	 # *LPBX1, PROF_edge_counter.2
 105      00
 106 0098 8B159C00 		movl	LPBX1+60, %edx	 # *LPBX1, PROF_edge_counter.2
 106      0000
 107 009e 83C001   		addl	$1, %eax	 #, PROF_edge_counter.2
 108 00a1 83D200   		adcl	$0, %edx	 #, PROF_edge_counter.2
 109 00a4 A3980000 		movl	%eax, LPBX1+56	 # PROF_edge_counter.2, *LPBX1
 109      00
 110 00a9 89159C00 		movl	%edx, LPBX1+60	 # PROF_edge_counter.2, *LPBX1
 110      0000
 111              		.loc 1 87 0
 112 00af E8000000 		call	__core_init	 #
 112      00
 113 00b4 A1A00000 		movl	LPBX1+64, %eax	 # *LPBX1, PROF_edge_counter.2
 113      00
 114 00b9 8B15A400 		movl	LPBX1+68, %edx	 # *LPBX1, PROF_edge_counter.2
 114      0000
 115 00bf 83C001   		addl	$1, %eax	 #, PROF_edge_counter.2
 116 00c2 83D200   		adcl	$0, %edx	 #, PROF_edge_counter.2
 117 00c5 A3A00000 		movl	%eax, LPBX1+64	 # PROF_edge_counter.2, *LPBX1
 117      00
 118 00ca 8915A400 		movl	%edx, LPBX1+68	 # PROF_edge_counter.2, *LPBX1
 118      0000
 119              		.loc 1 90 0
 120 00d0 E8000000 		call	__heap_init	 #
 120      00
 121 00d5 A1A80000 		movl	LPBX1+72, %eax	 # *LPBX1, PROF_edge_counter.2
 121      00
 122 00da 8B15AC00 		movl	LPBX1+76, %edx	 # *LPBX1, PROF_edge_counter.2
 122      0000
 123 00e0 83C001   		addl	$1, %eax	 #, PROF_edge_counter.2
 124 00e3 83D200   		adcl	$0, %edx	 #, PROF_edge_counter.2
 125 00e6 A3A80000 		movl	%eax, LPBX1+72	 # PROF_edge_counter.2, *LPBX1
 125      00
 126 00eb 8915AC00 		movl	%edx, LPBX1+76	 # PROF_edge_counter.2, *LPBX1
 126      0000
 127              		.loc 1 93 0
 128 00f1 E8000000 		call	__trace_init	 #
 128      00
 129 00f6 A1B00000 		movl	LPBX1+80, %eax	 # *LPBX1, PROF_edge_counter.2
 129      00
 130 00fb 8B15B400 		movl	LPBX1+84, %edx	 # *LPBX1, PROF_edge_counter.2
 130      0000
 131 0101 83C001   		addl	$1, %eax	 #, PROF_edge_counter.2
 132 0104 83D200   		adcl	$0, %edx	 #, PROF_edge_counter.2
GAS LISTING C:\cygwin\tmp\ccytH5Is.s 			page 4


 133 0107 A3B00000 		movl	%eax, LPBX1+80	 # PROF_edge_counter.2, *LPBX1
 133      00
 134 010c 8915B400 		movl	%edx, LPBX1+84	 # PROF_edge_counter.2, *LPBX1
 134      0000
 135              		.loc 1 97 0
 136 0112 C7442404 		movl	$64, 4(%esp)	 #,
 136      40000000 
 137 011a C7042400 		movl	$_mainthread.1849, (%esp)	 #,
 137      000000
 138 0121 E8000000 		call	__thread_init	 #
 138      00
 139 0126 89C1     		movl	%eax, %ecx	 #, D.2753
 140 0128 A1B80000 		movl	LPBX1+88, %eax	 # *LPBX1, PROF_edge_counter.2
 140      00
 141 012d 8B15BC00 		movl	LPBX1+92, %edx	 # *LPBX1, PROF_edge_counter.2
 141      0000
 142 0133 83C001   		addl	$1, %eax	 #, PROF_edge_counter.2
 143 0136 83D200   		adcl	$0, %edx	 #, PROF_edge_counter.2
 144 0139 A3B80000 		movl	%eax, LPBX1+88	 # PROF_edge_counter.2, *LPBX1
 144      00
 145 013e 8915BC00 		movl	%edx, LPBX1+92	 # PROF_edge_counter.2, *LPBX1
 145      0000
 146 0144 890D1800 		movl	%ecx, _rlist+24	 # D.2753, rlist.r_current
 146      0000
 147              		.loc 1 98 0
 148 014a A1180000 		movl	_rlist+24, %eax	 # rlist.r_current, D.2754
 148      00
 149 014f C6401C01 		movb	$1, 28(%eax)	 #, D.2754_2->p_state
 150              		.loc 1 108 0
 151 0153 A1180000 		movl	_rlist+24, %eax	 # rlist.r_current, D.2755
 151      00
 152 0158 C7401800 		movl	$_ch_debug, 24(%eax)	 #, D.2755_3->p_name
 152      000000
 153              		.loc 1 114 0
 154 015f B8000000 		movl	$__idle_thread, %eax	 #, _idle_thread.0
 154      00
 155 0164 C7442410 		movl	$0, 16(%esp)	 #,
 155      00000000 
 156 016c 8944240C 		movl	%eax, 12(%esp)	 # _idle_thread.0,
 157 0170 C7442408 		movl	$1, 8(%esp)	 #,
 157      01000000 
 158 0178 C7442404 		movl	$16752, 4(%esp)	 #,
 158      70410000 
 159 0180 C7042400 		movl	$__idle_thread_wa, (%esp)	 #,
 159      000000
 160 0187 E8000000 		call	_chThdCreateStatic	 #
 160      00
 161 018c A1C00000 		movl	LPBX1+96, %eax	 # *LPBX1, PROF_edge_counter.2
 161      00
 162 0191 8B15C400 		movl	LPBX1+100, %edx	 # *LPBX1, PROF_edge_counter.2
 162      0000
 163 0197 83C001   		addl	$1, %eax	 #, PROF_edge_counter.2
 164 019a 83D200   		adcl	$0, %edx	 #, PROF_edge_counter.2
 165 019d A3C00000 		movl	%eax, LPBX1+96	 # PROF_edge_counter.2, *LPBX1
 165      00
 166 01a2 8915C400 		movl	%edx, LPBX1+100	 # PROF_edge_counter.2, *LPBX1
 166      0000
GAS LISTING C:\cygwin\tmp\ccytH5Is.s 			page 5


 167              		.loc 1 117 0
 168 01a8 83C42C   		addl	$44, %esp	 #,
 169              	LCFI2:
 170              		.cfi_def_cfa_offset 4
 171 01ab C3       		ret
 172              		.cfi_endproc
 173              	LFE1:
 174              		.globl	_chSysTimerHandlerI
 175              		.def	_chSysTimerHandlerI;	.scl	2;	.type	32;	.endef
 176              	_chSysTimerHandlerI:
 177              	LFB2:
 178              		.loc 1 130 0
 179              		.cfi_startproc
 180 01ac 83EC2C   		subl	$44, %esp	 #,
 181              	LCFI3:
 182              		.cfi_def_cfa_offset 48
 183              		.loc 1 130 0
 184 01af A1600000 		movl	LPBX1, %eax	 # *LPBX1, PROF_edge_counter.1
 184      00
 185 01b4 8B156400 		movl	LPBX1+4, %edx	 # *LPBX1, PROF_edge_counter.1
 185      0000
 186 01ba 83C001   		addl	$1, %eax	 #, PROF_edge_counter.1
 187 01bd 83D200   		adcl	$0, %edx	 #, PROF_edge_counter.1
 188 01c0 A3600000 		movl	%eax, LPBX1	 # PROF_edge_counter.1, *LPBX1
 188      00
 189 01c5 89156400 		movl	%edx, LPBX1+4	 # PROF_edge_counter.1, *LPBX1
 189      0000
 190              		.loc 1 136 0
 191 01cb A1180000 		movl	_rlist+24, %eax	 # rlist.r_current, D.2731
 191      00
 192 01d0 8A401F   		movb	31(%eax), %al	 # D.2731_1->p_preempt, D.2732
 193 01d3 84C0     		testb	%al, %al	 # D.2732
 194 01d5 7428     		je	L5	 #,
 195              		.loc 1 138 0
 196 01d7 A1180000 		movl	_rlist+24, %eax	 # rlist.r_current, D.2735
 196      00
 197 01dc 8A501F   		movb	31(%eax), %dl	 # D.2735_3->p_preempt, D.2736
 198 01df 4A       		decl	%edx	 # D.2737
 199 01e0 88501F   		movb	%dl, 31(%eax)	 # D.2737, D.2735_3->p_preempt
 200 01e3 A1680000 		movl	LPBX1+8, %eax	 # *LPBX1, PROF_edge_counter.1
 200      00
 201 01e8 8B156C00 		movl	LPBX1+12, %edx	 # *LPBX1, PROF_edge_counter.1
 201      0000
 202 01ee 83C001   		addl	$1, %eax	 #, PROF_edge_counter.1
 203 01f1 83D200   		adcl	$0, %edx	 #, PROF_edge_counter.1
 204 01f4 A3680000 		movl	%eax, LPBX1+8	 # PROF_edge_counter.1, *LPBX1
 204      00
 205 01f9 89156C00 		movl	%edx, LPBX1+12	 # PROF_edge_counter.1, *LPBX1
 205      0000
 206              	L5:
 207              		.loc 1 141 0
 208 01ff A1180000 		movl	_rlist+24, %eax	 # rlist.r_current, D.2738
 208      00
 209 0204 8B5020   		movl	32(%eax), %edx	 # D.2738_6->p_time, D.2739
 210 0207 42       		incl	%edx	 # D.2740
 211 0208 895020   		movl	%edx, 32(%eax)	 # D.2740, D.2738_6->p_time
 212              		.loc 1 143 0
GAS LISTING C:\cygwin\tmp\ccytH5Is.s 			page 6


 213 020b A10C0000 		movl	_vtlist+12, %eax	 # vtlist.vt_systime, D.2741
 213      00
 214 0210 40       		incl	%eax	 # D.2742
 215 0211 A30C0000 		movl	%eax, _vtlist+12	 # D.2742, vtlist.vt_systime
 215      00
 216 0216 A1000000 		movl	_vtlist, %eax	 # vtlist.vt_next, D.2743
 216      00
 217 021b 3D000000 		cmpl	$_vtlist, %eax	 #, D.2743
 217      00
 218 0220 0F84B400 		je	L4	 #,
 218      0000
 219              	LBB2:
 220              		.loc 1 143 0 is_stmt 0 discriminator 1
 221 0226 A1000000 		movl	_vtlist, %eax	 # vtlist.vt_next, D.2746
 221      00
 222 022b 8B5008   		movl	8(%eax), %edx	 # D.2746_12->vt_time, D.2747
 223 022e 4A       		decl	%edx	 # D.2748
 224 022f 895008   		movl	%edx, 8(%eax)	 # D.2748, D.2746_12->vt_time
 225 0232 A1700000 		movl	LPBX1+16, %eax	 # *LPBX1, PROF_edge_counter.1
 225      00
 226 0237 8B157400 		movl	LPBX1+20, %edx	 # *LPBX1, PROF_edge_counter.1
 226      0000
 227 023d 83C001   		addl	$1, %eax	 #, PROF_edge_counter.1
 228 0240 83D200   		adcl	$0, %edx	 #, PROF_edge_counter.1
 229 0243 A3700000 		movl	%eax, LPBX1+16	 # PROF_edge_counter.1, *LPBX1
 229      00
 230 0248 89157400 		movl	%edx, LPBX1+20	 # PROF_edge_counter.1, *LPBX1
 230      0000
 231 024e EB5A     		jmp	L7	 #
 232              	L8:
 233              		.loc 1 143 0 discriminator 3
 234 0250 A1780000 		movl	LPBX1+24, %eax	 # *LPBX1, PROF_edge_counter.1
 234      00
 235 0255 8B157C00 		movl	LPBX1+28, %edx	 # *LPBX1, PROF_edge_counter.1
 235      0000
 236 025b 83C001   		addl	$1, %eax	 #, PROF_edge_counter.1
 237 025e 83D200   		adcl	$0, %edx	 #, PROF_edge_counter.1
 238 0261 A3780000 		movl	%eax, LPBX1+24	 # PROF_edge_counter.1, *LPBX1
 238      00
 239 0266 89157C00 		movl	%edx, LPBX1+28	 # PROF_edge_counter.1, *LPBX1
 239      0000
 240              	LBB3:
 241 026c 8B44241C 		movl	28(%esp), %eax	 # vtp, tmp87
 242 0270 8B400C   		movl	12(%eax), %eax	 # vtp_15->vt_func, tmp88
 243 0273 89442418 		movl	%eax, 24(%esp)	 # tmp88, fn
 244 0277 8B44241C 		movl	28(%esp), %eax	 # vtp, tmp89
 245 027b C7400C00 		movl	$0, 12(%eax)	 #, vtp_15->vt_func
 245      000000
 246 0282 8B44241C 		movl	28(%esp), %eax	 # vtp, tmp90
 247 0286 8B00     		movl	(%eax), %eax	 # vtp_15->vt_next, D.2749
 248 0288 C7400400 		movl	$_vtlist, 4(%eax)	 #, D.2749_18->vt_prev
 248      000000
 249 028f 8B44241C 		movl	28(%esp), %eax	 # vtp, tmp91
 250 0293 8B00     		movl	(%eax), %eax	 # vtp_15->vt_next, D.2750
 251 0295 A3000000 		movl	%eax, _vtlist	 # D.2750, vtlist.vt_next
 251      00
 252 029a 8B44241C 		movl	28(%esp), %eax	 # vtp, tmp92
GAS LISTING C:\cygwin\tmp\ccytH5Is.s 			page 7


 253 029e 8B4010   		movl	16(%eax), %eax	 # vtp_15->vt_par, D.2751
 254 02a1 890424   		movl	%eax, (%esp)	 # D.2751,
 255 02a4 8B442418 		movl	24(%esp), %eax	 # fn, tmp93
 256 02a8 FFD0     		call	*%eax	 # tmp93
 257              	L7:
 258              	LBE3:
 259              		.loc 1 143 0 discriminator 2
 260 02aa A1000000 		movl	_vtlist, %eax	 # vtlist.vt_next, tmp94
 260      00
 261 02af 8944241C 		movl	%eax, 28(%esp)	 # tmp94, vtp
 262 02b3 8B44241C 		movl	28(%esp), %eax	 # vtp, tmp95
 263 02b7 8B4008   		movl	8(%eax), %eax	 # vtp_15->vt_time, D.2752
 264 02ba 85C0     		testl	%eax, %eax	 # D.2752
 265 02bc 7492     		je	L8	 #,
 266              		.loc 1 143 0
 267 02be A1800000 		movl	LPBX1+32, %eax	 # *LPBX1, PROF_edge_counter.1
 267      00
 268 02c3 8B158400 		movl	LPBX1+36, %edx	 # *LPBX1, PROF_edge_counter.1
 268      0000
 269 02c9 83C001   		addl	$1, %eax	 #, PROF_edge_counter.1
 270 02cc 83D200   		adcl	$0, %edx	 #, PROF_edge_counter.1
 271 02cf A3800000 		movl	%eax, LPBX1+32	 # PROF_edge_counter.1, *LPBX1
 271      00
 272 02d4 89158400 		movl	%edx, LPBX1+36	 # PROF_edge_counter.1, *LPBX1
 272      0000
 273              	L4:
 274              	LBE2:
 275              		.loc 1 147 0 is_stmt 1
 276 02da 83C42C   		addl	$44, %esp	 #,
 277              	LCFI4:
 278              		.cfi_def_cfa_offset 4
 279 02dd C3       		ret
 280              		.cfi_endproc
 281              	LFE2:
 282              	.lcomm _mainthread.1849,72,32
 283              	.lcomm LPBX1,120,32
 284              		.section .rdata,"dr"
 285 0005 000000   		.align 4
 286              	LC1:
 287 0008 433A5C64 		.ascii "C:\\develop\\gyro\\ChibiOS\\test\\coverage/../../os/kernel/src/chsys.gcda\0"
 287      6576656C 
 287      6F705C67 
 287      79726F5C 
 287      43686962 
 288 004d 000000   		.data
 289              		.align 32
 290              	LC2:
 291              	 # <anonymous>:
 292 0000 03000000 		.long	3
 293              	 # <anonymous>:
 294 0004 34061321 		.long	554894900
 295              	 # <anonymous>:
 296 0008 05000000 		.long	5
 297              	 # <anonymous>:
 298 000c 02000000 		.long	2
 299              	 # <anonymous>:
 300 0010 A089D80A 		.long	181963168
GAS LISTING C:\cygwin\tmp\ccytH5Is.s 			page 8


 301              	 # <anonymous>:
 302 0014 08000000 		.long	8
 303              	 # <anonymous>:
 304 0018 01000000 		.long	1
 305              	 # <anonymous>:
 306 001c 596B7D9A 		.long	-1703056551
 307              	 # <anonymous>:
 308 0020 02000000 		.long	2
 309 0024 00000000 		.align 32
 309      00000000 
 309      00000000 
 309      00000000 
 309      00000000 
 310              	LPBX0:
 311              	 # <anonymous>:
 312 0040 2A363034 		.long	875574826
 313              	 # <anonymous>:
 314 0044 00000000 		.long	0
 315              	 # <anonymous>:
 316 0048 44127060 		.long	1617957444
 317              	 # <anonymous>:
 318 004c 08000000 		.long	LC1
 319              	 # <anonymous>:
 320 0050 03000000 		.long	3
 321              	 # <anonymous>:
 322 0054 00000000 		.long	LC2
 323              	 # <anonymous>:
 324 0058 01000000 		.long	1
 325              	 # <anonymous>:
 326              	 # <anonymous>:
 327 005c 0F000000 		.long	15
 328              	 # <anonymous>:
 329 0060 60000000 		.long	LPBX1
 330              	 # <anonymous>:
 331 0064 00000000 		.long	___gcov_merge_add
 332 0068 00000000 		.space 12
 332      00000000 
 332      00000000 
 333 0074 00000000 		.text
 333      00000000 
 333      00000000 
 334              		.def	__GLOBAL__sub_I_65535_0__idle_thread;	.scl	3;	.type	32;	.endef
 335              	__GLOBAL__sub_I_65535_0__idle_thread:
 336              	LFB3:
 337              		.loc 1 147 0
 338              		.cfi_startproc
 339 02de 83EC1C   		subl	$28, %esp	 #,
 340              	LCFI5:
 341              		.cfi_def_cfa_offset 32
 342              		.loc 1 147 0
 343 02e1 C7042440 		movl	$LPBX0, (%esp)	 #,
 343      000000
 344 02e8 E8000000 		call	___gcov_init	 #
 344      00
 345 02ed 83C41C   		addl	$28, %esp	 #,
 346              	LCFI6:
 347              		.cfi_def_cfa_offset 4
GAS LISTING C:\cygwin\tmp\ccytH5Is.s 			page 9


 348 02f0 C3       		ret
 349              		.cfi_endproc
 350              	LFE3:
 351              		.section	.ctors,"w"
 352              		.align 4
 353 0000 DE020000 		.long	__GLOBAL__sub_I_65535_0__idle_thread
 354              		.text
 355              	Letext0:
 356              		.file 2 "c:/mingw/bin/../lib/gcc/mingw32/4.6.2/../../../../include/stdint.h"
 357              		.file 3 "../../os/ports/GCC/SIMIA32/chtypes.h"
 358              		.file 4 "../../os/kernel/include/chlists.h"
 359              		.file 5 "../../os/kernel/include/chthreads.h"
 360              		.file 6 "../../os/ports/GCC/SIMIA32/chcore.h"
 361              		.file 7 "../../os/kernel/include/chvt.h"
 362              		.file 8 "../../os/kernel/include/chschd.h"
 363              		.file 9 "../../os/kernel/include/chmtx.h"
 364              		.file 10 "../../os/kernel/include/chregistry.h"
 365              		.file 11 "../../os/kernel/include/ch.h"