GAS LISTING C:\cygwin\tmp\ccBmZQuf.s 			page 1


   1              		.file	"chvt.c"
   2              	 # GNU C (GCC) version 4.6.2 (mingw32)
   3              	 #	compiled by GNU C version 4.6.2, GMP version 5.0.1, MPFR version 2.4.1, MPC version 0.8.1
   4              	 # GGC heuristics: --param ggc-min-expand=100 --param ggc-min-heapsize=131072
   5              	 # options passed:  -I . -I ../../os/ports/GCC/SIMIA32
   6              	 # -I ../../os/kernel/include -I ../../test -I ../../os/hal/include
   7              	 # -I ../../os/hal/platforms/Win32 -I ../../boards/simulator
   8              	 # -I ../../os/various -iprefix c:\mingw\bin\../lib/gcc/mingw32/4.6.2/
   9              	 # -MD ../../os/kernel/src/chvt.d -MF .dep/chvt.o.d -MP
  10              	 # -MQ ../../os/kernel/src/chvt.o -D SIMULATOR ../../os/kernel/src/chvt.c
  11              	 # -mtune=i386 -march=i386 -auxbase-strip ../../os/kernel/src/chvt.o -ggdb
  12              	 # -O0 -Wall -Wextra -Wstrict-prototypes -fomit-frame-pointer
  13              	 # -fprofile-arcs -ftest-coverage -fverbose-asm
  14              	 # options enabled:  -fasynchronous-unwind-tables -fauto-inc-dec
  15              	 # -fbranch-count-reg -fcommon -fdelete-null-pointer-checks
  16              	 # -fdwarf2-cfi-asm -fearly-inlining -feliminate-unused-debug-types
  17              	 # -ffunction-cse -fgcse-lm -fident -finline-functions-called-once
  18              	 # -fira-share-save-slots -fira-share-spill-slots -fivopts
  19              	 # -fkeep-inline-dllexport -fkeep-static-consts -fleading-underscore
  20              	 # -fmath-errno -fmerge-debug-strings -fmove-loop-invariants
  21              	 # -fomit-frame-pointer -fpeephole -fprefetch-loop-arrays -fprofile-arcs
  22              	 # -freg-struct-return -fsched-critical-path-heuristic
  23              	 # -fsched-dep-count-heuristic -fsched-group-heuristic -fsched-interblock
  24              	 # -fsched-last-insn-heuristic -fsched-rank-heuristic -fsched-spec
  25              	 # -fsched-spec-insn-heuristic -fsched-stalled-insns-dep
  26              	 # -fset-stack-executable -fshow-column -fsigned-zeros
  27              	 # -fsplit-ivs-in-unroller -fstrict-volatile-bitfields -ftest-coverage
  28              	 # -ftrapping-math -ftree-cselim -ftree-forwprop -ftree-loop-if-convert
  29              	 # -ftree-loop-im -ftree-loop-ivcanon -ftree-loop-optimize
  30              	 # -ftree-parallelize-loops= -ftree-phiprop -ftree-pta -ftree-reassoc
  31              	 # -ftree-scev-cprop -ftree-slp-vectorize -ftree-vect-loop-version
  32              	 # -funit-at-a-time -funwind-tables -fvect-cost-model -fverbose-asm
  33              	 # -fzero-initialized-in-bss -m32 -m80387 -m96bit-long-double
  34              	 # -maccumulate-outgoing-args -malign-double -malign-stringops
  35              	 # -mfancy-math-387 -mfp-ret-in-387 -mieee-fp -mno-red-zone -mno-sse4
  36              	 # -mpush-args -msahf -mstack-arg-probe
  37              	
  38              		.text
  39              	Ltext0:
  40              	 # Compiler executable checksum: c20aed7c018482d7b62efcd5dcab2a9d
  41              	
  42              		.comm	_vtlist, 16, 2
  43              		.globl	__vt_init
  44              		.def	__vt_init;	.scl	2;	.type	32;	.endef
  45              	__vt_init:
  46              	LFB0:
  47              		.file 1 "../../os/kernel/src/chvt.c"
  48              		.loc 1 43 0
  49              		.cfi_startproc
  50 0000 83EC04   		subl	$4, %esp	 #,
  51              	LCFI0:
  52              		.cfi_def_cfa_offset 8
  53              		.loc 1 43 0
  54 0003 A1700000 		movl	LPBX1+112, %eax	 # *LPBX1, PROF_edge_counter.7
  54      00
  55 0008 8B157400 		movl	LPBX1+116, %edx	 # *LPBX1, PROF_edge_counter.7
  55      0000
GAS LISTING C:\cygwin\tmp\ccBmZQuf.s 			page 2


  56 000e 83C001   		addl	$1, %eax	 #, PROF_edge_counter.7
  57 0011 83D200   		adcl	$0, %edx	 #, PROF_edge_counter.7
  58 0014 A3700000 		movl	%eax, LPBX1+112	 # PROF_edge_counter.7, *LPBX1
  58      00
  59 0019 89157400 		movl	%edx, LPBX1+116	 # PROF_edge_counter.7, *LPBX1
  59      0000
  60              		.loc 1 45 0
  61 001f C7050400 		movl	$_vtlist, _vtlist+4	 #, vtlist.vt_prev
  61      00000000 
  61      0000
  62 0029 A1040000 		movl	_vtlist+4, %eax	 # vtlist.vt_prev, D.2787
  62      00
  63 002e A3000000 		movl	%eax, _vtlist	 # D.2787, vtlist.vt_next
  63      00
  64              		.loc 1 46 0
  65 0033 C7050800 		movl	$-1, _vtlist+8	 #, vtlist.vt_time
  65      0000FFFF 
  65      FFFF
  66              		.loc 1 47 0
  67 003d C7050C00 		movl	$0, _vtlist+12	 #, vtlist.vt_systime
  67      00000000 
  67      0000
  68              		.loc 1 48 0
  69 0047 83C404   		addl	$4, %esp	 #,
  70              	LCFI1:
  71              		.cfi_def_cfa_offset 4
  72 004a C3       		ret
  73              		.cfi_endproc
  74              	LFE0:
  75              		.globl	_chVTSetI
  76              		.def	_chVTSetI;	.scl	2;	.type	32;	.endef
  77              	_chVTSetI:
  78              	LFB1:
  79              		.loc 1 69 0
  80              		.cfi_startproc
  81 004b 83EC14   		subl	$20, %esp	 #,
  82              	LCFI2:
  83              		.cfi_def_cfa_offset 24
  84              		.loc 1 73 0
  85 004e 837C2418 		cmpl	$0, 24(%esp)	 #, vtp
  85      00
  86 0053 7446     		je	L3	 #,
  87              		.loc 1 73 0 is_stmt 0 discriminator 1
  88 0055 A1400000 		movl	LPBX1+64, %eax	 # *LPBX1, PROF_edge_counter.6
  88      00
  89 005a 8B154400 		movl	LPBX1+68, %edx	 # *LPBX1, PROF_edge_counter.6
  89      0000
  90 0060 83C001   		addl	$1, %eax	 #, PROF_edge_counter.6
  91 0063 83D200   		adcl	$0, %edx	 #, PROF_edge_counter.6
  92 0066 A3400000 		movl	%eax, LPBX1+64	 # PROF_edge_counter.6, *LPBX1
  92      00
  93 006b 89154400 		movl	%edx, LPBX1+68	 # PROF_edge_counter.6, *LPBX1
  93      0000
  94 0071 837C2420 		cmpl	$0, 32(%esp)	 #, vtfunc
  94      00
  95 0076 7423     		je	L3	 #,
  96              		.loc 1 73 0 discriminator 3
GAS LISTING C:\cygwin\tmp\ccBmZQuf.s 			page 3


  97 0078 A1480000 		movl	LPBX1+72, %eax	 # *LPBX1, PROF_edge_counter.6
  97      00
  98 007d 8B154C00 		movl	LPBX1+76, %edx	 # *LPBX1, PROF_edge_counter.6
  98      0000
  99 0083 83C001   		addl	$1, %eax	 #, PROF_edge_counter.6
 100 0086 83D200   		adcl	$0, %edx	 #, PROF_edge_counter.6
 101 0089 A3480000 		movl	%eax, LPBX1+72	 # PROF_edge_counter.6, *LPBX1
 101      00
 102 008e 89154C00 		movl	%edx, LPBX1+76	 # PROF_edge_counter.6, *LPBX1
 102      0000
 103 0094 837C241C 		cmpl	$0, 28(%esp)	 #, time
 103      00
 104 0099 751C     		jne	L4	 #,
 105              	L3:
 106              		.loc 1 73 0 discriminator 2
 107 009b A1500000 		movl	LPBX1+80, %eax	 # *LPBX1, PROF_edge_counter.6
 107      00
 108 00a0 8B155400 		movl	LPBX1+84, %edx	 # *LPBX1, PROF_edge_counter.6
 108      0000
 109 00a6 83C001   		addl	$1, %eax	 #, PROF_edge_counter.6
 110 00a9 83D200   		adcl	$0, %edx	 #, PROF_edge_counter.6
 111 00ac A3500000 		movl	%eax, LPBX1+80	 # PROF_edge_counter.6, *LPBX1
 111      00
 112 00b1 89155400 		movl	%edx, LPBX1+84	 # PROF_edge_counter.6, *LPBX1
 112      0000
 113              	L4:
 114              		.loc 1 76 0 is_stmt 1
 115 00b7 8B442418 		movl	24(%esp), %eax	 # vtp, tmp81
 116 00bb 8B542424 		movl	36(%esp), %edx	 # par, tmp82
 117 00bf 895010   		movl	%edx, 16(%eax)	 # tmp82, vtp_3(D)->vt_par
 118              		.loc 1 77 0
 119 00c2 8B442418 		movl	24(%esp), %eax	 # vtp, tmp83
 120 00c6 8B542420 		movl	32(%esp), %edx	 # vtfunc, tmp84
 121 00ca 89500C   		movl	%edx, 12(%eax)	 # tmp84, vtp_3(D)->vt_func
 122              		.loc 1 78 0
 123 00cd A1000000 		movl	_vtlist, %eax	 # vtlist.vt_next, tmp85
 123      00
 124 00d2 8944240C 		movl	%eax, 12(%esp)	 # tmp85, p
 125              		.loc 1 79 0
 126 00d6 EB31     		jmp	L5	 #
 127              	L6:
 128 00d8 A1580000 		movl	LPBX1+88, %eax	 # *LPBX1, PROF_edge_counter.6
 128      00
 129 00dd 8B155C00 		movl	LPBX1+92, %edx	 # *LPBX1, PROF_edge_counter.6
 129      0000
 130 00e3 83C001   		addl	$1, %eax	 #, PROF_edge_counter.6
 131 00e6 83D200   		adcl	$0, %edx	 #, PROF_edge_counter.6
 132 00e9 A3580000 		movl	%eax, LPBX1+88	 # PROF_edge_counter.6, *LPBX1
 132      00
 133 00ee 89155C00 		movl	%edx, LPBX1+92	 # PROF_edge_counter.6, *LPBX1
 133      0000
 134              		.loc 1 80 0
 135 00f4 8B44240C 		movl	12(%esp), %eax	 # p, tmp86
 136 00f8 8B4008   		movl	8(%eax), %eax	 # p_2->vt_time, D.2777
 137 00fb 2944241C 		subl	%eax, 28(%esp)	 # D.2777, time
 138              		.loc 1 81 0
 139 00ff 8B44240C 		movl	12(%esp), %eax	 # p, tmp87
GAS LISTING C:\cygwin\tmp\ccBmZQuf.s 			page 4


 140 0103 8B00     		movl	(%eax), %eax	 # p_2->vt_next, tmp88
 141 0105 8944240C 		movl	%eax, 12(%esp)	 # tmp88, p
 142              	L5:
 143              		.loc 1 79 0 discriminator 1
 144 0109 8B44240C 		movl	12(%esp), %eax	 # p, tmp89
 145 010d 8B4008   		movl	8(%eax), %eax	 # p_2->vt_time, D.2778
 146 0110 3B44241C 		cmpl	28(%esp), %eax	 # time, D.2778
 147 0114 72C2     		jb	L6	 #,
 148              		.loc 1 79 0 is_stmt 0
 149 0116 A1600000 		movl	LPBX1+96, %eax	 # *LPBX1, PROF_edge_counter.6
 149      00
 150 011b 8B156400 		movl	LPBX1+100, %edx	 # *LPBX1, PROF_edge_counter.6
 150      0000
 151 0121 83C001   		addl	$1, %eax	 #, PROF_edge_counter.6
 152 0124 83D200   		adcl	$0, %edx	 #, PROF_edge_counter.6
 153 0127 A3600000 		movl	%eax, LPBX1+96	 # PROF_edge_counter.6, *LPBX1
 153      00
 154 012c 89156400 		movl	%edx, LPBX1+100	 # PROF_edge_counter.6, *LPBX1
 154      0000
 155              		.loc 1 84 0 is_stmt 1
 156 0132 8B442418 		movl	24(%esp), %eax	 # vtp, tmp90
 157 0136 8B54240C 		movl	12(%esp), %edx	 # p, tmp91
 158 013a 8910     		movl	%edx, (%eax)	 # tmp91, vtp_3(D)->vt_next
 159 013c 8B442418 		movl	24(%esp), %eax	 # vtp, tmp92
 160 0140 8B00     		movl	(%eax), %eax	 # vtp_3(D)->vt_next, D.2779
 161 0142 8B5004   		movl	4(%eax), %edx	 # D.2779_14->vt_prev, D.2780
 162 0145 8B442418 		movl	24(%esp), %eax	 # vtp, tmp93
 163 0149 895004   		movl	%edx, 4(%eax)	 # D.2780, vtp_3(D)->vt_prev
 164              		.loc 1 85 0
 165 014c 8B442418 		movl	24(%esp), %eax	 # vtp, tmp94
 166 0150 8B4004   		movl	4(%eax), %eax	 # vtp_3(D)->vt_prev, D.2781
 167 0153 8B54240C 		movl	12(%esp), %edx	 # p, tmp95
 168 0157 8B4C2418 		movl	24(%esp), %ecx	 # vtp, tmp96
 169 015b 894A04   		movl	%ecx, 4(%edx)	 # tmp96, p_2->vt_prev
 170 015e 8B54240C 		movl	12(%esp), %edx	 # p, tmp97
 171 0162 8B5204   		movl	4(%edx), %edx	 # p_2->vt_prev, D.2782
 172 0165 8910     		movl	%edx, (%eax)	 # D.2782, D.2781_16->vt_next
 173              		.loc 1 86 0
 174 0167 8B442418 		movl	24(%esp), %eax	 # vtp, tmp98
 175 016b 8B54241C 		movl	28(%esp), %edx	 # time, tmp99
 176 016f 895008   		movl	%edx, 8(%eax)	 # tmp99, vtp_3(D)->vt_time
 177              		.loc 1 87 0
 178 0172 817C240C 		cmpl	$_vtlist, 12(%esp)	 #, p
 178      00000000 
 179 017a 7430     		je	L2	 #,
 180              		.loc 1 88 0
 181 017c 8B44240C 		movl	12(%esp), %eax	 # p, tmp100
 182 0180 8B4008   		movl	8(%eax), %eax	 # p_2->vt_time, D.2785
 183 0183 89C2     		movl	%eax, %edx	 # D.2785, D.2786
 184 0185 2B54241C 		subl	28(%esp), %edx	 # time, D.2786
 185 0189 8B44240C 		movl	12(%esp), %eax	 # p, tmp101
 186 018d 895008   		movl	%edx, 8(%eax)	 # D.2786, p_2->vt_time
 187 0190 A1680000 		movl	LPBX1+104, %eax	 # *LPBX1, PROF_edge_counter.6
 187      00
 188 0195 8B156C00 		movl	LPBX1+108, %edx	 # *LPBX1, PROF_edge_counter.6
 188      0000
 189 019b 83C001   		addl	$1, %eax	 #, PROF_edge_counter.6
GAS LISTING C:\cygwin\tmp\ccBmZQuf.s 			page 5


 190 019e 83D200   		adcl	$0, %edx	 #, PROF_edge_counter.6
 191 01a1 A3680000 		movl	%eax, LPBX1+104	 # PROF_edge_counter.6, *LPBX1
 191      00
 192 01a6 89156C00 		movl	%edx, LPBX1+108	 # PROF_edge_counter.6, *LPBX1
 192      0000
 193              	L2:
 194              		.loc 1 89 0
 195 01ac 83C414   		addl	$20, %esp	 #,
 196              	LCFI3:
 197              		.cfi_def_cfa_offset 4
 198 01af C3       		ret
 199              		.cfi_endproc
 200              	LFE1:
 201              		.globl	_chVTResetI
 202              		.def	_chVTResetI;	.scl	2;	.type	32;	.endef
 203              	_chVTResetI:
 204              	LFB2:
 205              		.loc 1 99 0
 206              		.cfi_startproc
 207 01b0 83EC04   		subl	$4, %esp	 #,
 208              	LCFI4:
 209              		.cfi_def_cfa_offset 8
 210              		.loc 1 99 0
 211 01b3 A1300000 		movl	LPBX1+48, %eax	 # *LPBX1, PROF_edge_counter.5
 211      00
 212 01b8 8B153400 		movl	LPBX1+52, %edx	 # *LPBX1, PROF_edge_counter.5
 212      0000
 213 01be 83C001   		addl	$1, %eax	 #, PROF_edge_counter.5
 214 01c1 83D200   		adcl	$0, %edx	 #, PROF_edge_counter.5
 215 01c4 A3300000 		movl	%eax, LPBX1+48	 # PROF_edge_counter.5, *LPBX1
 215      00
 216 01c9 89153400 		movl	%edx, LPBX1+52	 # PROF_edge_counter.5, *LPBX1
 216      0000
 217              		.loc 1 107 0
 218 01cf 8B442408 		movl	8(%esp), %eax	 # vtp, tmp75
 219 01d3 8B00     		movl	(%eax), %eax	 # vtp_1(D)->vt_next, D.2759
 220 01d5 3D000000 		cmpl	$_vtlist, %eax	 #, D.2759
 220      00
 221 01da 7437     		je	L9	 #,
 222              		.loc 1 108 0
 223 01dc 8B442408 		movl	8(%esp), %eax	 # vtp, tmp76
 224 01e0 8B00     		movl	(%eax), %eax	 # vtp_1(D)->vt_next, D.2762
 225 01e2 8B542408 		movl	8(%esp), %edx	 # vtp, tmp77
 226 01e6 8B12     		movl	(%edx), %edx	 # vtp_1(D)->vt_next, D.2763
 227 01e8 8B4A08   		movl	8(%edx), %ecx	 # D.2763_5->vt_time, D.2764
 228 01eb 8B542408 		movl	8(%esp), %edx	 # vtp, tmp78
 229 01ef 8B5208   		movl	8(%edx), %edx	 # vtp_1(D)->vt_time, D.2765
 230 01f2 01CA     		addl	%ecx, %edx	 # D.2764, D.2766
 231 01f4 895008   		movl	%edx, 8(%eax)	 # D.2766, D.2762_4->vt_time
 232 01f7 A1380000 		movl	LPBX1+56, %eax	 # *LPBX1, PROF_edge_counter.5
 232      00
 233 01fc 8B153C00 		movl	LPBX1+60, %edx	 # *LPBX1, PROF_edge_counter.5
 233      0000
 234 0202 83C001   		addl	$1, %eax	 #, PROF_edge_counter.5
 235 0205 83D200   		adcl	$0, %edx	 #, PROF_edge_counter.5
 236 0208 A3380000 		movl	%eax, LPBX1+56	 # PROF_edge_counter.5, *LPBX1
 236      00
GAS LISTING C:\cygwin\tmp\ccBmZQuf.s 			page 6


 237 020d 89153C00 		movl	%edx, LPBX1+60	 # PROF_edge_counter.5, *LPBX1
 237      0000
 238              	L9:
 239              		.loc 1 109 0
 240 0213 8B442408 		movl	8(%esp), %eax	 # vtp, tmp79
 241 0217 8B4004   		movl	4(%eax), %eax	 # vtp_1(D)->vt_prev, D.2767
 242 021a 8B542408 		movl	8(%esp), %edx	 # vtp, tmp80
 243 021e 8B12     		movl	(%edx), %edx	 # vtp_1(D)->vt_next, D.2768
 244 0220 8910     		movl	%edx, (%eax)	 # D.2768, D.2767_9->vt_next
 245              		.loc 1 110 0
 246 0222 8B442408 		movl	8(%esp), %eax	 # vtp, tmp81
 247 0226 8B00     		movl	(%eax), %eax	 # vtp_1(D)->vt_next, D.2769
 248 0228 8B542408 		movl	8(%esp), %edx	 # vtp, tmp82
 249 022c 8B5204   		movl	4(%edx), %edx	 # vtp_1(D)->vt_prev, D.2770
 250 022f 895004   		movl	%edx, 4(%eax)	 # D.2770, D.2769_11->vt_prev
 251              		.loc 1 111 0
 252 0232 8B442408 		movl	8(%esp), %eax	 # vtp, tmp83
 253 0236 C7400C00 		movl	$0, 12(%eax)	 #, vtp_1(D)->vt_func
 253      000000
 254              		.loc 1 112 0
 255 023d 83C404   		addl	$4, %esp	 #,
 256              	LCFI5:
 257              		.cfi_def_cfa_offset 4
 258 0240 C3       		ret
 259              		.cfi_endproc
 260              	LFE2:
 261              		.globl	_chTimeIsWithin
 262              		.def	_chTimeIsWithin;	.scl	2;	.type	32;	.endef
 263              	_chTimeIsWithin:
 264              	LFB3:
 265              		.loc 1 127 0
 266              		.cfi_startproc
 267 0241 83EC14   		subl	$20, %esp	 #,
 268              	LCFI6:
 269              		.cfi_def_cfa_offset 24
 270              		.loc 1 129 0
 271 0244 A10C0000 		movl	_vtlist+12, %eax	 # vtlist.vt_systime, tmp76
 271      00
 272 0249 8944240C 		movl	%eax, 12(%esp)	 # tmp76, time
 273              		.loc 1 130 0
 274 024d 8B44241C 		movl	28(%esp), %eax	 # end, tmp77
 275 0251 3B442418 		cmpl	24(%esp), %eax	 # start, tmp77
 276 0255 7676     		jbe	L11	 #,
 277              		.loc 1 130 0 is_stmt 0 discriminator 1
 278 0257 8B44240C 		movl	12(%esp), %eax	 # time, tmp78
 279 025b 3B442418 		cmpl	24(%esp), %eax	 # start, tmp78
 280 025f 722D     		jb	L12	 #,
 281              		.loc 1 130 0 discriminator 3
 282 0261 A1000000 		movl	LPBX1, %eax	 # *LPBX1, PROF_edge_counter.4
 282      00
 283 0266 8B150400 		movl	LPBX1+4, %edx	 # *LPBX1, PROF_edge_counter.4
 283      0000
 284 026c 83C001   		addl	$1, %eax	 #, PROF_edge_counter.4
 285 026f 83D200   		adcl	$0, %edx	 #, PROF_edge_counter.4
 286 0272 A3000000 		movl	%eax, LPBX1	 # PROF_edge_counter.4, *LPBX1
 286      00
 287 0277 89150400 		movl	%edx, LPBX1+4	 # PROF_edge_counter.4, *LPBX1
GAS LISTING C:\cygwin\tmp\ccBmZQuf.s 			page 7


 287      0000
 288 027d 8B44240C 		movl	12(%esp), %eax	 # time, tmp79
 289 0281 3B44241C 		cmpl	28(%esp), %eax	 # end, tmp79
 290 0285 7307     		jae	L12	 #,
 291              		.loc 1 130 0 discriminator 1
 292 0287 B9010000 		movl	$1, %ecx	 #, iftmp.1
 292      00
 293 028c EB21     		jmp	L13	 #
 294              	L12:
 295              		.loc 1 130 0 discriminator 4
 296 028e B9000000 		movl	$0, %ecx	 #, iftmp.1
 296      00
 297 0293 A1080000 		movl	LPBX1+8, %eax	 # *LPBX1, PROF_edge_counter.4
 297      00
 298 0298 8B150C00 		movl	LPBX1+12, %edx	 # *LPBX1, PROF_edge_counter.4
 298      0000
 299 029e 83C001   		addl	$1, %eax	 #, PROF_edge_counter.4
 300 02a1 83D200   		adcl	$0, %edx	 #, PROF_edge_counter.4
 301 02a4 A3080000 		movl	%eax, LPBX1+8	 # PROF_edge_counter.4, *LPBX1
 301      00
 302 02a9 89150C00 		movl	%edx, LPBX1+12	 # PROF_edge_counter.4, *LPBX1
 302      0000
 303              	L13:
 304              		.loc 1 130 0 discriminator 5
 305 02af A1100000 		movl	LPBX1+16, %eax	 # *LPBX1, PROF_edge_counter.4
 305      00
 306 02b4 8B151400 		movl	LPBX1+20, %edx	 # *LPBX1, PROF_edge_counter.4
 306      0000
 307 02ba 83C001   		addl	$1, %eax	 #, PROF_edge_counter.4
 308 02bd 83D200   		adcl	$0, %edx	 #, PROF_edge_counter.4
 309 02c0 A3100000 		movl	%eax, LPBX1+16	 # PROF_edge_counter.4, *LPBX1
 309      00
 310 02c5 89151400 		movl	%edx, LPBX1+20	 # PROF_edge_counter.4, *LPBX1
 310      0000
 311 02cb EB74     		jmp	L14	 #
 312              	L11:
 313              		.loc 1 130 0 discriminator 2
 314 02cd 8B44240C 		movl	12(%esp), %eax	 # time, tmp80
 315 02d1 3B442418 		cmpl	24(%esp), %eax	 # start, tmp80
 316 02d5 7326     		jae	L15	 #,
 317              		.loc 1 130 0
 318 02d7 A1180000 		movl	LPBX1+24, %eax	 # *LPBX1, PROF_edge_counter.4
 318      00
 319 02dc 8B151C00 		movl	LPBX1+28, %edx	 # *LPBX1, PROF_edge_counter.4
 319      0000
 320 02e2 83C001   		addl	$1, %eax	 #, PROF_edge_counter.4
 321 02e5 83D200   		adcl	$0, %edx	 #, PROF_edge_counter.4
 322 02e8 A3180000 		movl	%eax, LPBX1+24	 # PROF_edge_counter.4, *LPBX1
 322      00
 323 02ed 89151C00 		movl	%edx, LPBX1+28	 # PROF_edge_counter.4, *LPBX1
 323      0000
 324              		.loc 1 131 0 is_stmt 1
 325 02f3 8B44240C 		movl	12(%esp), %eax	 # time, tmp81
 326 02f7 3B44241C 		cmpl	28(%esp), %eax	 # end, tmp81
 327 02fb 7307     		jae	L16	 #,
 328              	L15:
 329              		.loc 1 130 0 discriminator 6
GAS LISTING C:\cygwin\tmp\ccBmZQuf.s 			page 8


 330 02fd B9010000 		movl	$1, %ecx	 #, iftmp.2
 330      00
 331 0302 EB21     		jmp	L17	 #
 332              	L16:
 333              		.loc 1 130 0 is_stmt 0
 334 0304 B9000000 		movl	$0, %ecx	 #, iftmp.2
 334      00
 335 0309 A1200000 		movl	LPBX1+32, %eax	 # *LPBX1, PROF_edge_counter.4
 335      00
 336 030e 8B152400 		movl	LPBX1+36, %edx	 # *LPBX1, PROF_edge_counter.4
 336      0000
 337 0314 83C001   		addl	$1, %eax	 #, PROF_edge_counter.4
 338 0317 83D200   		adcl	$0, %edx	 #, PROF_edge_counter.4
 339 031a A3200000 		movl	%eax, LPBX1+32	 # PROF_edge_counter.4, *LPBX1
 339      00
 340 031f 89152400 		movl	%edx, LPBX1+36	 # PROF_edge_counter.4, *LPBX1
 340      0000
 341              	L17:
 342              		.loc 1 130 0 discriminator 7
 343 0325 A1280000 		movl	LPBX1+40, %eax	 # *LPBX1, PROF_edge_counter.4
 343      00
 344 032a 8B152C00 		movl	LPBX1+44, %edx	 # *LPBX1, PROF_edge_counter.4
 344      0000
 345 0330 83C001   		addl	$1, %eax	 #, PROF_edge_counter.4
 346 0333 83D200   		adcl	$0, %edx	 #, PROF_edge_counter.4
 347 0336 A3280000 		movl	%eax, LPBX1+40	 # PROF_edge_counter.4, *LPBX1
 347      00
 348 033b 89152C00 		movl	%edx, LPBX1+44	 # PROF_edge_counter.4, *LPBX1
 348      0000
 349              	L14:
 350              		.loc 1 130 0 discriminator 8
 351 0341 88C8     		movb	%cl, %al	 # iftmp.0, D.2736
 352              		.loc 1 132 0 is_stmt 1 discriminator 8
 353 0343 83C414   		addl	$20, %esp	 #,
 354              	LCFI7:
 355              		.cfi_def_cfa_offset 4
 356 0346 C3       		ret
 357              		.cfi_endproc
 358              	LFE3:
 359              	.lcomm LPBX1,120,32
 360              		.section .rdata,"dr"
 361              		.align 4
 362              	LC0:
 363 0000 433A5C64 		.ascii "C:\\develop\\gyro\\ChibiOS\\test\\coverage/../../os/kernel/src/chvt.gcda\0"
 363      6576656C 
 363      6F705C67 
 363      79726F5C 
 363      43686962 
 364              		.data
 365              		.align 32
 366              	LC1:
 367              	 # <anonymous>:
 368 0000 04000000 		.long	4
 369              	 # <anonymous>:
 370 0004 99411E99 		.long	-1726070375
 371              	 # <anonymous>:
 372 0008 06000000 		.long	6
GAS LISTING C:\cygwin\tmp\ccBmZQuf.s 			page 9


 373              	 # <anonymous>:
 374 000c 03000000 		.long	3
 375              	 # <anonymous>:
 376 0010 490B64D8 		.long	-664532151
 377              	 # <anonymous>:
 378 0014 02000000 		.long	2
 379              	 # <anonymous>:
 380 0018 02000000 		.long	2
 381              	 # <anonymous>:
 382 001c 1B10181F 		.long	521670683
 383              	 # <anonymous>:
 384 0020 06000000 		.long	6
 385              	 # <anonymous>:
 386 0024 01000000 		.long	1
 387              	 # <anonymous>:
 388 0028 C2A1DA67 		.long	1742381506
 389              	 # <anonymous>:
 390 002c 01000000 		.long	1
 391 0030 00000000 		.align 32
 391      00000000 
 391      00000000 
 391      00000000 
 392              	LPBX0:
 393              	 # <anonymous>:
 394 0040 2A363034 		.long	875574826
 395              	 # <anonymous>:
 396 0044 00000000 		.long	0
 397              	 # <anonymous>:
 398 0048 9D157060 		.long	1617958301
 399              	 # <anonymous>:
 400 004c 00000000 		.long	LC0
 401              	 # <anonymous>:
 402 0050 04000000 		.long	4
 403              	 # <anonymous>:
 404 0054 00000000 		.long	LC1
 405              	 # <anonymous>:
 406 0058 01000000 		.long	1
 407              	 # <anonymous>:
 408              	 # <anonymous>:
 409 005c 0F000000 		.long	15
 410              	 # <anonymous>:
 411 0060 00000000 		.long	LPBX1
 412              	 # <anonymous>:
 413 0064 00000000 		.long	___gcov_merge_add
 414 0068 00000000 		.space 12
 414      00000000 
 414      00000000 
 415 0074 00000000 		.text
 415      00000000 
 415      00000000 
 416              		.def	__GLOBAL__sub_I_65535_0__vt_init;	.scl	3;	.type	32;	.endef
 417              	__GLOBAL__sub_I_65535_0__vt_init:
 418              	LFB4:
 419              		.loc 1 132 0
 420              		.cfi_startproc
 421 0347 83EC1C   		subl	$28, %esp	 #,
 422              	LCFI8:
GAS LISTING C:\cygwin\tmp\ccBmZQuf.s 			page 10


 423              		.cfi_def_cfa_offset 32
 424              		.loc 1 132 0
 425 034a C7042440 		movl	$LPBX0, (%esp)	 #,
 425      000000
 426 0351 E8000000 		call	___gcov_init	 #
 426      00
 427 0356 83C41C   		addl	$28, %esp	 #,
 428              	LCFI9:
 429              		.cfi_def_cfa_offset 4
 430 0359 C3       		ret
 431              		.cfi_endproc
 432              	LFE4:
 433              		.section	.ctors,"w"
 434              		.align 4
 435 0000 47030000 		.long	__GLOBAL__sub_I_65535_0__vt_init
 436              		.text
 437              	Letext0:
 438              		.file 2 "c:/mingw/bin/../lib/gcc/mingw32/4.6.2/../../../../include/stdint.h"
 439              		.file 3 "../../os/ports/GCC/SIMIA32/chtypes.h"
 440              		.file 4 "../../os/kernel/include/chvt.h"