GAS LISTING C:\cygwin\tmp\ccztN46C.s 			page 1


   1              		.file	"console.c"
   2              	 # GNU C (GCC) version 4.6.2 (mingw32)
   3              	 #	compiled by GNU C version 4.6.2, GMP version 5.0.1, MPFR version 2.4.1, MPC version 0.8.1
   4              	 # GGC heuristics: --param ggc-min-expand=100 --param ggc-min-heapsize=131072
   5              	 # options passed:  -I . -I ../../os/ports/GCC/SIMIA32
   6              	 # -I ../../os/kernel/include -I ../../test -I ../../os/hal/include
   7              	 # -I ../../os/hal/platforms/Win32 -I ../../boards/simulator
   8              	 # -I ../../os/various -iprefix c:\mingw\bin\../lib/gcc/mingw32/4.6.2/
   9              	 # -MD ../../os/hal/platforms/Win32/console.d -MF .dep/console.o.d -MP
  10              	 # -MQ ../../os/hal/platforms/Win32/console.o -D SIMULATOR
  11              	 # ../../os/hal/platforms/Win32/console.c -mtune=i386 -march=i386
  12              	 # -auxbase-strip ../../os/hal/platforms/Win32/console.o -ggdb -O0 -Wall
  13              	 # -Wextra -Wstrict-prototypes -fomit-frame-pointer -fprofile-arcs
  14              	 # -ftest-coverage -fverbose-asm
  15              	 # options enabled:  -fasynchronous-unwind-tables -fauto-inc-dec
  16              	 # -fbranch-count-reg -fcommon -fdelete-null-pointer-checks
  17              	 # -fdwarf2-cfi-asm -fearly-inlining -feliminate-unused-debug-types
  18              	 # -ffunction-cse -fgcse-lm -fident -finline-functions-called-once
  19              	 # -fira-share-save-slots -fira-share-spill-slots -fivopts
  20              	 # -fkeep-inline-dllexport -fkeep-static-consts -fleading-underscore
  21              	 # -fmath-errno -fmerge-debug-strings -fmove-loop-invariants
  22              	 # -fomit-frame-pointer -fpeephole -fprefetch-loop-arrays -fprofile-arcs
  23              	 # -freg-struct-return -fsched-critical-path-heuristic
  24              	 # -fsched-dep-count-heuristic -fsched-group-heuristic -fsched-interblock
  25              	 # -fsched-last-insn-heuristic -fsched-rank-heuristic -fsched-spec
  26              	 # -fsched-spec-insn-heuristic -fsched-stalled-insns-dep
  27              	 # -fset-stack-executable -fshow-column -fsigned-zeros
  28              	 # -fsplit-ivs-in-unroller -fstrict-volatile-bitfields -ftest-coverage
  29              	 # -ftrapping-math -ftree-cselim -ftree-forwprop -ftree-loop-if-convert
  30              	 # -ftree-loop-im -ftree-loop-ivcanon -ftree-loop-optimize
  31              	 # -ftree-parallelize-loops= -ftree-phiprop -ftree-pta -ftree-reassoc
  32              	 # -ftree-scev-cprop -ftree-slp-vectorize -ftree-vect-loop-version
  33              	 # -funit-at-a-time -funwind-tables -fvect-cost-model -fverbose-asm
  34              	 # -fzero-initialized-in-bss -m32 -m80387 -m96bit-long-double
  35              	 # -maccumulate-outgoing-args -malign-double -malign-stringops
  36              	 # -mfancy-math-387 -mfp-ret-in-387 -mieee-fp -mno-red-zone -mno-sse4
  37              	 # -mpush-args -msahf -mstack-arg-probe
  38              	
  39              		.text
  40              	Ltext0:
  41              	 # Compiler executable checksum: c20aed7c018482d7b62efcd5dcab2a9d
  42              	
  43              		.comm	_CD1, 4, 2
  44              		.def	_writes;	.scl	3;	.type	32;	.endef
  45              	_writes:
  46              	LFB6:
  47              		.file 1 "../../os/hal/platforms/Win32/console.c"
  48              		.loc 1 50 0
  49              		.cfi_startproc
  50 0000 83EC2C   		subl	$44, %esp	 #,
  51              	LCFI0:
  52              		.cfi_def_cfa_offset 48
  53              		.loc 1 50 0
  54 0003 A1780000 		movl	LPBX1+120, %eax	 # *LPBX1, PROF_edge_counter.8
  54      00
  55 0008 8B157C00 		movl	LPBX1+124, %edx	 # *LPBX1, PROF_edge_counter.8
  55      0000
GAS LISTING C:\cygwin\tmp\ccztN46C.s 			page 2


  56 000e 83C001   		addl	$1, %eax	 #, PROF_edge_counter.8
  57 0011 83D200   		adcl	$0, %edx	 #, PROF_edge_counter.8
  58 0014 A3780000 		movl	%eax, LPBX1+120	 # PROF_edge_counter.8, *LPBX1
  58      00
  59 0019 89157C00 		movl	%edx, LPBX1+124	 # PROF_edge_counter.8, *LPBX1
  59      0000
  60              		.loc 1 54 0
  61 001f A1000000 		movl	__imp___iob, %eax	 #, tmp67
  61      00
  62 0024 83C020   		addl	$32, %eax	 #, tmp68
  63 0027 8944240C 		movl	%eax, 12(%esp)	 # tmp68,
  64 002b 8B442438 		movl	56(%esp), %eax	 # n, tmp69
  65 002f 89442408 		movl	%eax, 8(%esp)	 # tmp69,
  66 0033 C7442404 		movl	$1, 4(%esp)	 #,
  66      01000000 
  67 003b 8B442434 		movl	52(%esp), %eax	 # bp, tmp70
  68 003f 890424   		movl	%eax, (%esp)	 # tmp70,
  69 0042 E8000000 		call	_fwrite	 #
  69      00
  70 0047 8944241C 		movl	%eax, 28(%esp)	 # tmp71, ret
  71 004b A1800000 		movl	LPBX1+128, %eax	 # *LPBX1, PROF_edge_counter.8
  71      00
  72 0050 8B158400 		movl	LPBX1+132, %edx	 # *LPBX1, PROF_edge_counter.8
  72      0000
  73 0056 83C001   		addl	$1, %eax	 #, PROF_edge_counter.8
  74 0059 83D200   		adcl	$0, %edx	 #, PROF_edge_counter.8
  75 005c A3800000 		movl	%eax, LPBX1+128	 # PROF_edge_counter.8, *LPBX1
  75      00
  76 0061 89158400 		movl	%edx, LPBX1+132	 # PROF_edge_counter.8, *LPBX1
  76      0000
  77              		.loc 1 55 0
  78 0067 A1000000 		movl	__imp___iob, %eax	 #, tmp72
  78      00
  79 006c 83C020   		addl	$32, %eax	 #, tmp73
  80 006f 890424   		movl	%eax, (%esp)	 # tmp73,
  81 0072 E8000000 		call	_fflush	 #
  81      00
  82 0077 A1880000 		movl	LPBX1+136, %eax	 # *LPBX1, PROF_edge_counter.8
  82      00
  83 007c 8B158C00 		movl	LPBX1+140, %edx	 # *LPBX1, PROF_edge_counter.8
  83      0000
  84 0082 83C001   		addl	$1, %eax	 #, PROF_edge_counter.8
  85 0085 83D200   		adcl	$0, %edx	 #, PROF_edge_counter.8
  86 0088 A3880000 		movl	%eax, LPBX1+136	 # PROF_edge_counter.8, *LPBX1
  86      00
  87 008d 89158C00 		movl	%edx, LPBX1+140	 # PROF_edge_counter.8, *LPBX1
  87      0000
  88              		.loc 1 56 0
  89 0093 8B44241C 		movl	28(%esp), %eax	 # ret, D.3425
  90              		.loc 1 57 0
  91 0097 83C42C   		addl	$44, %esp	 #,
  92              	LCFI1:
  93              		.cfi_def_cfa_offset 4
  94 009a C3       		ret
  95              		.cfi_endproc
  96              	LFE6:
  97              		.def	_reads;	.scl	3;	.type	32;	.endef
GAS LISTING C:\cygwin\tmp\ccztN46C.s 			page 3


  98              	_reads:
  99              	LFB7:
 100              		.loc 1 59 0
 101              		.cfi_startproc
 102 009b 83EC1C   		subl	$28, %esp	 #,
 103              	LCFI2:
 104              		.cfi_def_cfa_offset 32
 105              		.loc 1 59 0
 106 009e A1680000 		movl	LPBX1+104, %eax	 # *LPBX1, PROF_edge_counter.7
 106      00
 107 00a3 8B156C00 		movl	LPBX1+108, %edx	 # *LPBX1, PROF_edge_counter.7
 107      0000
 108 00a9 83C001   		addl	$1, %eax	 #, PROF_edge_counter.7
 109 00ac 83D200   		adcl	$0, %edx	 #, PROF_edge_counter.7
 110 00af A3680000 		movl	%eax, LPBX1+104	 # PROF_edge_counter.7, *LPBX1
 110      00
 111 00b4 89156C00 		movl	%edx, LPBX1+108	 # PROF_edge_counter.7, *LPBX1
 111      0000
 112              		.loc 1 62 0
 113 00ba A1000000 		movl	__imp___iob, %eax	 #, tmp65
 113      00
 114 00bf 8944240C 		movl	%eax, 12(%esp)	 # tmp65,
 115 00c3 8B442428 		movl	40(%esp), %eax	 # n, tmp66
 116 00c7 89442408 		movl	%eax, 8(%esp)	 # tmp66,
 117 00cb C7442404 		movl	$1, 4(%esp)	 #,
 117      01000000 
 118 00d3 8B442424 		movl	36(%esp), %eax	 # bp, tmp67
 119 00d7 890424   		movl	%eax, (%esp)	 # tmp67,
 120 00da E8000000 		call	_fread	 #
 120      00
 121 00df 89C1     		movl	%eax, %ecx	 #, D.3423
 122 00e1 A1700000 		movl	LPBX1+112, %eax	 # *LPBX1, PROF_edge_counter.7
 122      00
 123 00e6 8B157400 		movl	LPBX1+116, %edx	 # *LPBX1, PROF_edge_counter.7
 123      0000
 124 00ec 83C001   		addl	$1, %eax	 #, PROF_edge_counter.7
 125 00ef 83D200   		adcl	$0, %edx	 #, PROF_edge_counter.7
 126 00f2 A3700000 		movl	%eax, LPBX1+112	 # PROF_edge_counter.7, *LPBX1
 126      00
 127 00f7 89157400 		movl	%edx, LPBX1+116	 # PROF_edge_counter.7, *LPBX1
 127      0000
 128 00fd 89C8     		movl	%ecx, %eax	 # D.3423, <retval>
 129              		.loc 1 63 0
 130 00ff 83C41C   		addl	$28, %esp	 #,
 131              	LCFI3:
 132              		.cfi_def_cfa_offset 4
 133 0102 C3       		ret
 134              		.cfi_endproc
 135              	LFE7:
 136              		.def	_putwouldblock;	.scl	3;	.type	32;	.endef
 137              	_putwouldblock:
 138              	LFB8:
 139              		.loc 1 65 0
 140              		.cfi_startproc
 141 0103 83EC04   		subl	$4, %esp	 #,
 142              	LCFI4:
 143              		.cfi_def_cfa_offset 8
GAS LISTING C:\cygwin\tmp\ccztN46C.s 			page 4


 144              		.loc 1 65 0
 145 0106 A1600000 		movl	LPBX1+96, %eax	 # *LPBX1, PROF_edge_counter.6
 145      00
 146 010b 8B156400 		movl	LPBX1+100, %edx	 # *LPBX1, PROF_edge_counter.6
 146      0000
 147 0111 83C001   		addl	$1, %eax	 #, PROF_edge_counter.6
 148 0114 83D200   		adcl	$0, %edx	 #, PROF_edge_counter.6
 149 0117 A3600000 		movl	%eax, LPBX1+96	 # PROF_edge_counter.6, *LPBX1
 149      00
 150 011c 89156400 		movl	%edx, LPBX1+100	 # PROF_edge_counter.6, *LPBX1
 150      0000
 151              		.loc 1 68 0
 152 0122 B000     		movb	$0, %al	 #, D.3421
 153              		.loc 1 69 0
 154 0124 83C404   		addl	$4, %esp	 #,
 155              	LCFI5:
 156              		.cfi_def_cfa_offset 4
 157 0127 C3       		ret
 158              		.cfi_endproc
 159              	LFE8:
 160              		.def	_getwouldblock;	.scl	3;	.type	32;	.endef
 161              	_getwouldblock:
 162              	LFB9:
 163              		.loc 1 71 0
 164              		.cfi_startproc
 165 0128 83EC04   		subl	$4, %esp	 #,
 166              	LCFI6:
 167              		.cfi_def_cfa_offset 8
 168              		.loc 1 71 0
 169 012b A1580000 		movl	LPBX1+88, %eax	 # *LPBX1, PROF_edge_counter.5
 169      00
 170 0130 8B155C00 		movl	LPBX1+92, %edx	 # *LPBX1, PROF_edge_counter.5
 170      0000
 171 0136 83C001   		addl	$1, %eax	 #, PROF_edge_counter.5
 172 0139 83D200   		adcl	$0, %edx	 #, PROF_edge_counter.5
 173 013c A3580000 		movl	%eax, LPBX1+88	 # PROF_edge_counter.5, *LPBX1
 173      00
 174 0141 89155C00 		movl	%edx, LPBX1+92	 # PROF_edge_counter.5, *LPBX1
 174      0000
 175              		.loc 1 74 0
 176 0147 B001     		movb	$1, %al	 #, D.3419
 177              		.loc 1 75 0
 178 0149 83C404   		addl	$4, %esp	 #,
 179              	LCFI7:
 180              		.cfi_def_cfa_offset 4
 181 014c C3       		ret
 182              		.cfi_endproc
 183              	LFE9:
 184              		.def	_putt;	.scl	3;	.type	32;	.endef
 185              	_putt:
 186              	LFB10:
 187              		.loc 1 77 0
 188              		.cfi_startproc
 189 014d 83EC2C   		subl	$44, %esp	 #,
 190              	LCFI8:
 191              		.cfi_def_cfa_offset 48
 192 0150 8B442434 		movl	52(%esp), %eax	 # b, tmp68
GAS LISTING C:\cygwin\tmp\ccztN46C.s 			page 5


 193 0154 8844241C 		movb	%al, 28(%esp)	 # tmp68, b
 194              		.loc 1 77 0
 195 0158 A1400000 		movl	LPBX1+64, %eax	 # *LPBX1, PROF_edge_counter.4
 195      00
 196 015d 8B154400 		movl	LPBX1+68, %edx	 # *LPBX1, PROF_edge_counter.4
 196      0000
 197 0163 83C001   		addl	$1, %eax	 #, PROF_edge_counter.4
 198 0166 83D200   		adcl	$0, %edx	 #, PROF_edge_counter.4
 199 0169 A3400000 		movl	%eax, LPBX1+64	 # PROF_edge_counter.4, *LPBX1
 199      00
 200 016e 89154400 		movl	%edx, LPBX1+68	 # PROF_edge_counter.4, *LPBX1
 200      0000
 201              		.loc 1 81 0
 202 0174 0FB64424 		movzbl	28(%esp), %eax	 # b, D.3416
 202      1C
 203 0179 8B150000 		movl	__imp___iob, %edx	 #, tmp69
 203      0000
 204 017f 83C220   		addl	$32, %edx	 #, tmp70
 205 0182 89542404 		movl	%edx, 4(%esp)	 # tmp70,
 206 0186 890424   		movl	%eax, (%esp)	 # D.3416,
 207 0189 E8000000 		call	_fputc	 #
 207      00
 208 018e A1480000 		movl	LPBX1+72, %eax	 # *LPBX1, PROF_edge_counter.4
 208      00
 209 0193 8B154C00 		movl	LPBX1+76, %edx	 # *LPBX1, PROF_edge_counter.4
 209      0000
 210 0199 83C001   		addl	$1, %eax	 #, PROF_edge_counter.4
 211 019c 83D200   		adcl	$0, %edx	 #, PROF_edge_counter.4
 212 019f A3480000 		movl	%eax, LPBX1+72	 # PROF_edge_counter.4, *LPBX1
 212      00
 213 01a4 89154C00 		movl	%edx, LPBX1+76	 # PROF_edge_counter.4, *LPBX1
 213      0000
 214              		.loc 1 82 0
 215 01aa A1000000 		movl	__imp___iob, %eax	 #, tmp71
 215      00
 216 01af 83C020   		addl	$32, %eax	 #, tmp72
 217 01b2 890424   		movl	%eax, (%esp)	 # tmp72,
 218 01b5 E8000000 		call	_fflush	 #
 218      00
 219 01ba A1500000 		movl	LPBX1+80, %eax	 # *LPBX1, PROF_edge_counter.4
 219      00
 220 01bf 8B155400 		movl	LPBX1+84, %edx	 # *LPBX1, PROF_edge_counter.4
 220      0000
 221 01c5 83C001   		addl	$1, %eax	 #, PROF_edge_counter.4
 222 01c8 83D200   		adcl	$0, %edx	 #, PROF_edge_counter.4
 223 01cb A3500000 		movl	%eax, LPBX1+80	 # PROF_edge_counter.4, *LPBX1
 223      00
 224 01d0 89155400 		movl	%edx, LPBX1+84	 # PROF_edge_counter.4, *LPBX1
 224      0000
 225              		.loc 1 83 0
 226 01d6 B8000000 		movl	$0, %eax	 #, D.3417
 226      00
 227              		.loc 1 84 0
 228 01db 83C42C   		addl	$44, %esp	 #,
 229              	LCFI9:
 230              		.cfi_def_cfa_offset 4
 231 01de C3       		ret
GAS LISTING C:\cygwin\tmp\ccztN46C.s 			page 6


 232              		.cfi_endproc
 233              	LFE10:
 234              		.def	_gett;	.scl	3;	.type	32;	.endef
 235              	_gett:
 236              	LFB11:
 237              		.loc 1 86 0
 238              		.cfi_startproc
 239 01df 83EC1C   		subl	$28, %esp	 #,
 240              	LCFI10:
 241              		.cfi_def_cfa_offset 32
 242              		.loc 1 86 0
 243 01e2 A1300000 		movl	LPBX1+48, %eax	 # *LPBX1, PROF_edge_counter.3
 243      00
 244 01e7 8B153400 		movl	LPBX1+52, %edx	 # *LPBX1, PROF_edge_counter.3
 244      0000
 245 01ed 83C001   		addl	$1, %eax	 #, PROF_edge_counter.3
 246 01f0 83D200   		adcl	$0, %edx	 #, PROF_edge_counter.3
 247 01f3 A3300000 		movl	%eax, LPBX1+48	 # PROF_edge_counter.3, *LPBX1
 247      00
 248 01f8 89153400 		movl	%edx, LPBX1+52	 # PROF_edge_counter.3, *LPBX1
 248      0000
 249              		.loc 1 90 0
 250 01fe A1000000 		movl	__imp___iob, %eax	 #, tmp65
 250      00
 251 0203 890424   		movl	%eax, (%esp)	 # tmp65,
 252 0206 E8000000 		call	_fgetc	 #
 252      00
 253 020b 89C1     		movl	%eax, %ecx	 #, D.3414
 254 020d A1380000 		movl	LPBX1+56, %eax	 # *LPBX1, PROF_edge_counter.3
 254      00
 255 0212 8B153C00 		movl	LPBX1+60, %edx	 # *LPBX1, PROF_edge_counter.3
 255      0000
 256 0218 83C001   		addl	$1, %eax	 #, PROF_edge_counter.3
 257 021b 83D200   		adcl	$0, %edx	 #, PROF_edge_counter.3
 258 021e A3380000 		movl	%eax, LPBX1+56	 # PROF_edge_counter.3, *LPBX1
 258      00
 259 0223 89153C00 		movl	%edx, LPBX1+60	 # PROF_edge_counter.3, *LPBX1
 259      0000
 260 0229 89C8     		movl	%ecx, %eax	 # D.3414, <retval>
 261              		.loc 1 91 0
 262 022b 83C41C   		addl	$28, %esp	 #,
 263              	LCFI11:
 264              		.cfi_def_cfa_offset 4
 265 022e C3       		ret
 266              		.cfi_endproc
 267              	LFE11:
 268              		.def	_writet;	.scl	3;	.type	32;	.endef
 269              	_writet:
 270              	LFB12:
 271              		.loc 1 93 0
 272              		.cfi_startproc
 273 022f 83EC2C   		subl	$44, %esp	 #,
 274              	LCFI12:
 275              		.cfi_def_cfa_offset 48
 276              		.loc 1 93 0
 277 0232 A1180000 		movl	LPBX1+24, %eax	 # *LPBX1, PROF_edge_counter.2
 277      00
GAS LISTING C:\cygwin\tmp\ccztN46C.s 			page 7


 278 0237 8B151C00 		movl	LPBX1+28, %edx	 # *LPBX1, PROF_edge_counter.2
 278      0000
 279 023d 83C001   		addl	$1, %eax	 #, PROF_edge_counter.2
 280 0240 83D200   		adcl	$0, %edx	 #, PROF_edge_counter.2
 281 0243 A3180000 		movl	%eax, LPBX1+24	 # PROF_edge_counter.2, *LPBX1
 281      00
 282 0248 89151C00 		movl	%edx, LPBX1+28	 # PROF_edge_counter.2, *LPBX1
 282      0000
 283              		.loc 1 98 0
 284 024e A1000000 		movl	__imp___iob, %eax	 #, tmp67
 284      00
 285 0253 83C020   		addl	$32, %eax	 #, tmp68
 286 0256 8944240C 		movl	%eax, 12(%esp)	 # tmp68,
 287 025a 8B442438 		movl	56(%esp), %eax	 # n, tmp69
 288 025e 89442408 		movl	%eax, 8(%esp)	 # tmp69,
 289 0262 C7442404 		movl	$1, 4(%esp)	 #,
 289      01000000 
 290 026a 8B442434 		movl	52(%esp), %eax	 # bp, tmp70
 291 026e 890424   		movl	%eax, (%esp)	 # tmp70,
 292 0271 E8000000 		call	_fwrite	 #
 292      00
 293 0276 8944241C 		movl	%eax, 28(%esp)	 # tmp71, ret
 294 027a A1200000 		movl	LPBX1+32, %eax	 # *LPBX1, PROF_edge_counter.2
 294      00
 295 027f 8B152400 		movl	LPBX1+36, %edx	 # *LPBX1, PROF_edge_counter.2
 295      0000
 296 0285 83C001   		addl	$1, %eax	 #, PROF_edge_counter.2
 297 0288 83D200   		adcl	$0, %edx	 #, PROF_edge_counter.2
 298 028b A3200000 		movl	%eax, LPBX1+32	 # PROF_edge_counter.2, *LPBX1
 298      00
 299 0290 89152400 		movl	%edx, LPBX1+36	 # PROF_edge_counter.2, *LPBX1
 299      0000
 300              		.loc 1 99 0
 301 0296 A1000000 		movl	__imp___iob, %eax	 #, tmp72
 301      00
 302 029b 83C020   		addl	$32, %eax	 #, tmp73
 303 029e 890424   		movl	%eax, (%esp)	 # tmp73,
 304 02a1 E8000000 		call	_fflush	 #
 304      00
 305 02a6 A1280000 		movl	LPBX1+40, %eax	 # *LPBX1, PROF_edge_counter.2
 305      00
 306 02ab 8B152C00 		movl	LPBX1+44, %edx	 # *LPBX1, PROF_edge_counter.2
 306      0000
 307 02b1 83C001   		addl	$1, %eax	 #, PROF_edge_counter.2
 308 02b4 83D200   		adcl	$0, %edx	 #, PROF_edge_counter.2
 309 02b7 A3280000 		movl	%eax, LPBX1+40	 # PROF_edge_counter.2, *LPBX1
 309      00
 310 02bc 89152C00 		movl	%edx, LPBX1+44	 # PROF_edge_counter.2, *LPBX1
 310      0000
 311              		.loc 1 100 0
 312 02c2 8B44241C 		movl	28(%esp), %eax	 # ret, D.3412
 313              		.loc 1 101 0
 314 02c6 83C42C   		addl	$44, %esp	 #,
 315              	LCFI13:
 316              		.cfi_def_cfa_offset 4
 317 02c9 C3       		ret
 318              		.cfi_endproc
GAS LISTING C:\cygwin\tmp\ccztN46C.s 			page 8


 319              	LFE12:
 320              		.def	_readt;	.scl	3;	.type	32;	.endef
 321              	_readt:
 322              	LFB13:
 323              		.loc 1 103 0
 324              		.cfi_startproc
 325 02ca 83EC1C   		subl	$28, %esp	 #,
 326              	LCFI14:
 327              		.cfi_def_cfa_offset 32
 328              		.loc 1 103 0
 329 02cd A1080000 		movl	LPBX1+8, %eax	 # *LPBX1, PROF_edge_counter.1
 329      00
 330 02d2 8B150C00 		movl	LPBX1+12, %edx	 # *LPBX1, PROF_edge_counter.1
 330      0000
 331 02d8 83C001   		addl	$1, %eax	 #, PROF_edge_counter.1
 332 02db 83D200   		adcl	$0, %edx	 #, PROF_edge_counter.1
 333 02de A3080000 		movl	%eax, LPBX1+8	 # PROF_edge_counter.1, *LPBX1
 333      00
 334 02e3 89150C00 		movl	%edx, LPBX1+12	 # PROF_edge_counter.1, *LPBX1
 334      0000
 335              		.loc 1 107 0
 336 02e9 A1000000 		movl	__imp___iob, %eax	 #, tmp65
 336      00
 337 02ee 8944240C 		movl	%eax, 12(%esp)	 # tmp65,
 338 02f2 8B442428 		movl	40(%esp), %eax	 # n, tmp66
 339 02f6 89442408 		movl	%eax, 8(%esp)	 # tmp66,
 340 02fa C7442404 		movl	$1, 4(%esp)	 #,
 340      01000000 
 341 0302 8B442424 		movl	36(%esp), %eax	 # bp, tmp67
 342 0306 890424   		movl	%eax, (%esp)	 # tmp67,
 343 0309 E8000000 		call	_fread	 #
 343      00
 344 030e 89C1     		movl	%eax, %ecx	 #, D.3410
 345 0310 A1100000 		movl	LPBX1+16, %eax	 # *LPBX1, PROF_edge_counter.1
 345      00
 346 0315 8B151400 		movl	LPBX1+20, %edx	 # *LPBX1, PROF_edge_counter.1
 346      0000
 347 031b 83C001   		addl	$1, %eax	 #, PROF_edge_counter.1
 348 031e 83D200   		adcl	$0, %edx	 #, PROF_edge_counter.1
 349 0321 A3100000 		movl	%eax, LPBX1+16	 # PROF_edge_counter.1, *LPBX1
 349      00
 350 0326 89151400 		movl	%edx, LPBX1+20	 # PROF_edge_counter.1, *LPBX1
 350      0000
 351 032c 89C8     		movl	%ecx, %eax	 # D.3410, <retval>
 352              		.loc 1 108 0
 353 032e 83C41C   		addl	$28, %esp	 #,
 354              	LCFI15:
 355              		.cfi_def_cfa_offset 4
 356 0331 C3       		ret
 357              		.cfi_endproc
 358              	LFE13:
 359              		.section .rdata,"dr"
 360              		.align 32
 361              	_vmt:
 362              	 # write:
 363 0000 00000000 		.long	_writes
 364              	 # read:
GAS LISTING C:\cygwin\tmp\ccztN46C.s 			page 9


 365 0004 9B000000 		.long	_reads
 366              	 # put:
 367 0008 03010000 		.long	_putwouldblock
 368              	 # get:
 369 000c 28010000 		.long	_getwouldblock
 370              	 # putt:
 371 0010 4D010000 		.long	_putt
 372              	 # gett:
 373 0014 DF010000 		.long	_gett
 374              	 # writet:
 375 0018 2F020000 		.long	_writet
 376              	 # readt:
 377 001c CA020000 		.long	_readt
 378              		.text
 379              		.globl	_conInit
 380              		.def	_conInit;	.scl	2;	.type	32;	.endef
 381              	_conInit:
 382              	LFB14:
 383              		.loc 1 122 0
 384              		.cfi_startproc
 385 0332 83EC04   		subl	$4, %esp	 #,
 386              	LCFI16:
 387              		.cfi_def_cfa_offset 8
 388              		.loc 1 122 0
 389 0335 A1000000 		movl	LPBX1, %eax	 # *LPBX1, PROF_edge_counter.0
 389      00
 390 033a 8B150400 		movl	LPBX1+4, %edx	 # *LPBX1, PROF_edge_counter.0
 390      0000
 391 0340 83C001   		addl	$1, %eax	 #, PROF_edge_counter.0
 392 0343 83D200   		adcl	$0, %edx	 #, PROF_edge_counter.0
 393 0346 A3000000 		movl	%eax, LPBX1	 # PROF_edge_counter.0, *LPBX1
 393      00
 394 034b 89150400 		movl	%edx, LPBX1+4	 # PROF_edge_counter.0, *LPBX1
 394      0000
 395              		.loc 1 124 0
 396 0351 C7050000 		movl	$_vmt, _CD1	 #, CD1.vmt
 396      00000000 
 396      0000
 397              		.loc 1 126 0
 398 035b 83C404   		addl	$4, %esp	 #,
 399              	LCFI17:
 400              		.cfi_def_cfa_offset 4
 401 035e C3       		ret
 402              		.cfi_endproc
 403              	LFE14:
 404              	.lcomm LPBX1,144,32
 405              		.section .rdata,"dr"
 406              		.align 4
 407              	LC0:
 408 0020 433A5C64 		.ascii "C:\\develop\\gyro\\ChibiOS\\test\\coverage/../../os/hal/platforms/Win32/console.gcda\0"
 408      6576656C 
 408      6F705C67 
 408      79726F5C 
 408      43686962 
 409 0070 00000000 		.data
 409      00000000 
 409      00000000 
GAS LISTING C:\cygwin\tmp\ccztN46C.s 			page 10


 409      00000000 
 410              		.align 32
 411              	LC1:
 412              	 # <anonymous>:
 413 0000 0F000000 		.long	15
 414              	 # <anonymous>:
 415 0004 A320F9C5 		.long	-973528925
 416              	 # <anonymous>:
 417 0008 01000000 		.long	1
 418              	 # <anonymous>:
 419 000c 0E000000 		.long	14
 420              	 # <anonymous>:
 421 0010 F70D2988 		.long	-2010575369
 422              	 # <anonymous>:
 423 0014 02000000 		.long	2
 424              	 # <anonymous>:
 425 0018 0D000000 		.long	13
 426              	 # <anonymous>:
 427 001c D6D27BA0 		.long	-1602497834
 428              	 # <anonymous>:
 429 0020 03000000 		.long	3
 430              	 # <anonymous>:
 431 0024 0C000000 		.long	12
 432              	 # <anonymous>:
 433 0028 E6963E40 		.long	1077843686
 434              	 # <anonymous>:
 435 002c 02000000 		.long	2
 436              	 # <anonymous>:
 437 0030 0B000000 		.long	11
 438              	 # <anonymous>:
 439 0034 E3FA0AA3 		.long	-1559561501
 440              	 # <anonymous>:
 441 0038 03000000 		.long	3
 442              	 # <anonymous>:
 443 003c 0A000000 		.long	10
 444              	 # <anonymous>:
 445 0040 E7C87687 		.long	-2022258457
 446              	 # <anonymous>:
 447 0044 01000000 		.long	1
 448              	 # <anonymous>:
 449 0048 09000000 		.long	9
 450              	 # <anonymous>:
 451 004c A63076FD 		.long	-42585946
 452              	 # <anonymous>:
 453 0050 01000000 		.long	1
 454              	 # <anonymous>:
 455 0054 08000000 		.long	8
 456              	 # <anonymous>:
 457 0058 28B0E7A6 		.long	-1494765528
 458              	 # <anonymous>:
 459 005c 02000000 		.long	2
 460              	 # <anonymous>:
 461 0060 07000000 		.long	7
 462              	 # <anonymous>:
 463 0064 3338ADA3 		.long	-1548928973
 464              	 # <anonymous>:
 465 0068 03000000 		.long	3
GAS LISTING C:\cygwin\tmp\ccztN46C.s 			page 11


 466 006c 00000000 		.align 32
 466      00000000 
 466      00000000 
 466      00000000 
 466      00000000 
 467              	LPBX0:
 468              	 # <anonymous>:
 469 0080 2A363034 		.long	875574826
 470              	 # <anonymous>:
 471 0084 00000000 		.long	0
 472              	 # <anonymous>:
 473 0088 A7C5FA66 		.long	1727710631
 474              	 # <anonymous>:
 475 008c 20000000 		.long	LC0
 476              	 # <anonymous>:
 477 0090 09000000 		.long	9
 478              	 # <anonymous>:
 479 0094 00000000 		.long	LC1
 480              	 # <anonymous>:
 481 0098 01000000 		.long	1
 482              	 # <anonymous>:
 483              	 # <anonymous>:
 484 009c 12000000 		.long	18
 485              	 # <anonymous>:
 486 00a0 00000000 		.long	LPBX1
 487              	 # <anonymous>:
 488 00a4 00000000 		.long	___gcov_merge_add
 489 00a8 00000000 		.space 12
 489      00000000 
 489      00000000 
 490 00b4 00000000 		.text
 490      00000000 
 490      00000000 
 491              		.def	__GLOBAL__sub_I_65535_0_conInit;	.scl	3;	.type	32;	.endef
 492              	__GLOBAL__sub_I_65535_0_conInit:
 493              	LFB15:
 494              		.loc 1 126 0
 495              		.cfi_startproc
 496 035f 83EC1C   		subl	$28, %esp	 #,
 497              	LCFI18:
 498              		.cfi_def_cfa_offset 32
 499              		.loc 1 126 0
 500 0362 C7042480 		movl	$LPBX0, (%esp)	 #,
 500      000000
 501 0369 E8000000 		call	___gcov_init	 #
 501      00
 502 036e 83C41C   		addl	$28, %esp	 #,
 503              	LCFI19:
 504              		.cfi_def_cfa_offset 4
 505 0371 C3       		ret
 506              		.cfi_endproc
 507              	LFE15:
 508              		.section	.ctors,"w"
 509              		.align 4
 510 0000 5F030000 		.long	__GLOBAL__sub_I_65535_0_conInit
 511              		.text
 512              	Letext0:
GAS LISTING C:\cygwin\tmp\ccztN46C.s 			page 12


 513              		.file 2 "c:/mingw/bin/../lib/gcc/mingw32/4.6.2/../../../../include/stdio.h"
 514              		.file 3 "c:/mingw/bin/../lib/gcc/mingw32/4.6.2/include/stddef.h"
 515              		.file 4 "c:/mingw/bin/../lib/gcc/mingw32/4.6.2/../../../../include/stdint.h"
 516              		.file 5 "../../os/ports/GCC/SIMIA32/chtypes.h"
 517              		.file 6 "../../os/hal/include/io_channel.h"
 518              		.file 7 "../../os/hal/platforms/Win32/console.h"
 519 0372 9090     		.section	.debug_info,"dr"
 520              	Ldebug_info0:
 521 0000 C8060000 		.long	0x6c8
 522 0004 0200     		.word	0x2
 523 0006 00000000 		.secrel32	Ldebug_abbrev0
 524 000a 04       		.byte	0x4
 525 000b 01       		.uleb128 0x1
 526 000c 474E5520 		.ascii "GNU C 4.6.2\0"
 526      4320342E 
 526      362E3200 
 527 0018 01       		.byte	0x1
 528 0019 2E2E2F2E 		.ascii "../../os/hal/platforms/Win32/console.c\0"
 528      2E2F6F73 
 528      2F68616C 
 528      2F706C61 
 528      74666F72 
 529 0040 433A5C64 		.ascii "C:\\develop\\gyro\\ChibiOS\\test\\coverage\0"
 529      6576656C 
 529      6F705C67 
 529      79726F5C 
 529      43686962 
 530 0066 00000000 		.long	Ltext0
 531 006a 72030000 		.long	Letext0
 532 006e 00000000 		.secrel32	Ldebug_line0
 533 0072 02       		.uleb128 0x2
 534 0073 73697A65 		.ascii "size_t\0"
 534      5F7400
 535 007a 03       		.byte	0x3
 536 007b D4       		.byte	0xd4
 537 007c 80000000 		.long	0x80
 538 0080 03       		.uleb128 0x3
 539 0081 04       		.byte	0x4
 540 0082 07       		.byte	0x7
 541 0083 756E7369 		.ascii "unsigned int\0"
 541      676E6564 
 541      20696E74 
 541      00
 542 0090 03       		.uleb128 0x3
 543 0091 02       		.byte	0x2
 544 0092 07       		.byte	0x7
 545 0093 73686F72 		.ascii "short unsigned int\0"
 545      7420756E 
 545      7369676E 
 545      65642069 
 545      6E7400
 546 00a6 03       		.uleb128 0x3
 547 00a7 01       		.byte	0x1
 548 00a8 06       		.byte	0x6
 549 00a9 63686172 		.ascii "char\0"
 549      00
 550 00ae 04       		.uleb128 0x4
GAS LISTING C:\cygwin\tmp\ccztN46C.s 			page 13


 551 00af 5F696F62 		.ascii "_iobuf\0"
 551      756600
 552 00b6 20       		.byte	0x20
 553 00b7 02       		.byte	0x2
 554 00b8 81       		.byte	0x81
 555 00b9 45010000 		.long	0x145
 556 00bd 05       		.uleb128 0x5
 557 00be 5F707472 		.ascii "_ptr\0"
 557      00
 558 00c3 02       		.byte	0x2
 559 00c4 83       		.byte	0x83
 560 00c5 45010000 		.long	0x145
 561 00c9 02       		.byte	0x2
 562 00ca 23       		.byte	0x23
 563 00cb 00       		.uleb128 0
 564 00cc 05       		.uleb128 0x5
 565 00cd 5F636E74 		.ascii "_cnt\0"
 565      00
 566 00d2 02       		.byte	0x2
 567 00d3 84       		.byte	0x84
 568 00d4 4B010000 		.long	0x14b
 569 00d8 02       		.byte	0x2
 570 00d9 23       		.byte	0x23
 571 00da 04       		.uleb128 0x4
 572 00db 05       		.uleb128 0x5
 573 00dc 5F626173 		.ascii "_base\0"
 573      6500
 574 00e2 02       		.byte	0x2
 575 00e3 85       		.byte	0x85
 576 00e4 45010000 		.long	0x145
 577 00e8 02       		.byte	0x2
 578 00e9 23       		.byte	0x23
 579 00ea 08       		.uleb128 0x8
 580 00eb 05       		.uleb128 0x5
 581 00ec 5F666C61 		.ascii "_flag\0"
 581      6700
 582 00f2 02       		.byte	0x2
 583 00f3 86       		.byte	0x86
 584 00f4 4B010000 		.long	0x14b
 585 00f8 02       		.byte	0x2
 586 00f9 23       		.byte	0x23
 587 00fa 0C       		.uleb128 0xc
 588 00fb 05       		.uleb128 0x5
 589 00fc 5F66696C 		.ascii "_file\0"
 589      6500
 590 0102 02       		.byte	0x2
 591 0103 87       		.byte	0x87
 592 0104 4B010000 		.long	0x14b
 593 0108 02       		.byte	0x2
 594 0109 23       		.byte	0x23
 595 010a 10       		.uleb128 0x10
 596 010b 05       		.uleb128 0x5
 597 010c 5F636861 		.ascii "_charbuf\0"
 597      72627566 
 597      00
 598 0115 02       		.byte	0x2
 599 0116 88       		.byte	0x88
GAS LISTING C:\cygwin\tmp\ccztN46C.s 			page 14


 600 0117 4B010000 		.long	0x14b
 601 011b 02       		.byte	0x2
 602 011c 23       		.byte	0x23
 603 011d 14       		.uleb128 0x14
 604 011e 05       		.uleb128 0x5
 605 011f 5F627566 		.ascii "_bufsiz\0"
 605      73697A00 
 606 0127 02       		.byte	0x2
 607 0128 89       		.byte	0x89
 608 0129 4B010000 		.long	0x14b
 609 012d 02       		.byte	0x2
 610 012e 23       		.byte	0x23
 611 012f 18       		.uleb128 0x18
 612 0130 05       		.uleb128 0x5
 613 0131 5F746D70 		.ascii "_tmpfname\0"
 613      666E616D 
 613      6500
 614 013b 02       		.byte	0x2
 615 013c 8A       		.byte	0x8a
 616 013d 45010000 		.long	0x145
 617 0141 02       		.byte	0x2
 618 0142 23       		.byte	0x23
 619 0143 1C       		.uleb128 0x1c
 620 0144 00       		.byte	0
 621 0145 06       		.uleb128 0x6
 622 0146 04       		.byte	0x4
 623 0147 A6000000 		.long	0xa6
 624 014b 03       		.uleb128 0x3
 625 014c 04       		.byte	0x4
 626 014d 05       		.byte	0x5
 627 014e 696E7400 		.ascii "int\0"
 628 0152 02       		.uleb128 0x2
 629 0153 46494C45 		.ascii "FILE\0"
 629      00
 630 0158 02       		.byte	0x2
 631 0159 8B       		.byte	0x8b
 632 015a AE000000 		.long	0xae
 633 015e 03       		.uleb128 0x3
 634 015f 08       		.byte	0x8
 635 0160 05       		.byte	0x5
 636 0161 6C6F6E67 		.ascii "long long int\0"
 636      206C6F6E 
 636      6720696E 
 636      7400
 637 016f 03       		.uleb128 0x3
 638 0170 04       		.byte	0x4
 639 0171 05       		.byte	0x5
 640 0172 6C6F6E67 		.ascii "long int\0"
 640      20696E74 
 640      00
 641 017b 03       		.uleb128 0x3
 642 017c 02       		.byte	0x2
 643 017d 05       		.byte	0x5
 644 017e 73686F72 		.ascii "short int\0"
 644      7420696E 
 644      7400
 645 0188 03       		.uleb128 0x3
GAS LISTING C:\cygwin\tmp\ccztN46C.s 			page 15


 646 0189 01       		.byte	0x1
 647 018a 06       		.byte	0x6
 648 018b 7369676E 		.ascii "signed char\0"
 648      65642063 
 648      68617200 
 649 0197 02       		.uleb128 0x2
 650 0198 75696E74 		.ascii "uint8_t\0"
 650      385F7400 
 651 01a0 04       		.byte	0x4
 652 01a1 1C       		.byte	0x1c
 653 01a2 A6010000 		.long	0x1a6
 654 01a6 03       		.uleb128 0x3
 655 01a7 01       		.byte	0x1
 656 01a8 08       		.byte	0x8
 657 01a9 756E7369 		.ascii "unsigned char\0"
 657      676E6564 
 657      20636861 
 657      7200
 658 01b7 02       		.uleb128 0x2
 659 01b8 696E7433 		.ascii "int32_t\0"
 659      325F7400 
 660 01c0 04       		.byte	0x4
 661 01c1 1F       		.byte	0x1f
 662 01c2 4B010000 		.long	0x14b
 663 01c6 02       		.uleb128 0x2
 664 01c7 75696E74 		.ascii "uint32_t\0"
 664      33325F74 
 664      00
 665 01d0 04       		.byte	0x4
 666 01d1 20       		.byte	0x20
 667 01d2 80000000 		.long	0x80
 668 01d6 03       		.uleb128 0x3
 669 01d7 08       		.byte	0x8
 670 01d8 07       		.byte	0x7
 671 01d9 6C6F6E67 		.ascii "long long unsigned int\0"
 671      206C6F6E 
 671      6720756E 
 671      7369676E 
 671      65642069 
 672 01f0 02       		.uleb128 0x2
 673 01f1 626F6F6C 		.ascii "bool_t\0"
 673      5F7400
 674 01f8 05       		.byte	0x5
 675 01f9 1C       		.byte	0x1c
 676 01fa FE010000 		.long	0x1fe
 677 01fe 03       		.uleb128 0x3
 678 01ff 01       		.byte	0x1
 679 0200 02       		.byte	0x2
 680 0201 5F426F6F 		.ascii "_Bool\0"
 680      6C00
 681 0207 02       		.uleb128 0x2
 682 0208 6D73675F 		.ascii "msg_t\0"
 682      7400
 683 020e 05       		.byte	0x5
 684 020f 22       		.byte	0x22
 685 0210 B7010000 		.long	0x1b7
 686 0214 02       		.uleb128 0x2
GAS LISTING C:\cygwin\tmp\ccztN46C.s 			page 16


 687 0215 73797374 		.ascii "systime_t\0"
 687      696D655F 
 687      7400
 688 021f 05       		.byte	0x5
 689 0220 26       		.byte	0x26
 690 0221 C6010000 		.long	0x1c6
 691 0225 07       		.uleb128 0x7
 692 0226 04       		.byte	0x4
 693 0227 06       		.uleb128 0x6
 694 0228 04       		.byte	0x4
 695 0229 2D020000 		.long	0x22d
 696 022d 08       		.uleb128 0x8
 697 022e 01       		.byte	0x1
 698 022f 07020000 		.long	0x207
 699 0233 3D020000 		.long	0x23d
 700 0237 09       		.uleb128 0x9
 701 0238 25020000 		.long	0x225
 702 023c 00       		.byte	0
 703 023d 06       		.uleb128 0x6
 704 023e 04       		.byte	0x4
 705 023f 97010000 		.long	0x197
 706 0243 08       		.uleb128 0x8
 707 0244 01       		.byte	0x1
 708 0245 72000000 		.long	0x72
 709 0249 5D020000 		.long	0x25d
 710 024d 09       		.uleb128 0x9
 711 024e 25020000 		.long	0x225
 712 0252 09       		.uleb128 0x9
 713 0253 5D020000 		.long	0x25d
 714 0257 09       		.uleb128 0x9
 715 0258 72000000 		.long	0x72
 716 025c 00       		.byte	0
 717 025d 06       		.uleb128 0x6
 718 025e 04       		.byte	0x4
 719 025f 63020000 		.long	0x263
 720 0263 0A       		.uleb128 0xa
 721 0264 97010000 		.long	0x197
 722 0268 06       		.uleb128 0x6
 723 0269 04       		.byte	0x4
 724 026a 43020000 		.long	0x243
 725 026e 08       		.uleb128 0x8
 726 026f 01       		.byte	0x1
 727 0270 72000000 		.long	0x72
 728 0274 88020000 		.long	0x288
 729 0278 09       		.uleb128 0x9
 730 0279 25020000 		.long	0x225
 731 027d 09       		.uleb128 0x9
 732 027e 3D020000 		.long	0x23d
 733 0282 09       		.uleb128 0x9
 734 0283 72000000 		.long	0x72
 735 0287 00       		.byte	0
 736 0288 06       		.uleb128 0x6
 737 0289 04       		.byte	0x4
 738 028a 6E020000 		.long	0x26e
 739 028e 08       		.uleb128 0x8
 740 028f 01       		.byte	0x1
 741 0290 07020000 		.long	0x207
GAS LISTING C:\cygwin\tmp\ccztN46C.s 			page 17


 742 0294 A3020000 		.long	0x2a3
 743 0298 09       		.uleb128 0x9
 744 0299 25020000 		.long	0x225
 745 029d 09       		.uleb128 0x9
 746 029e 97010000 		.long	0x197
 747 02a2 00       		.byte	0
 748 02a3 06       		.uleb128 0x6
 749 02a4 04       		.byte	0x4
 750 02a5 8E020000 		.long	0x28e
 751 02a9 04       		.uleb128 0x4
 752 02aa 42617365 		.ascii "BaseChannelVMT\0"
 752      4368616E 
 752      6E656C56 
 752      4D5400
 753 02b9 20       		.byte	0x20
 754 02ba 06       		.byte	0x6
 755 02bb 47       		.byte	0x47
 756 02bc 3B030000 		.long	0x33b
 757 02c0 05       		.uleb128 0x5
 758 02c1 77726974 		.ascii "write\0"
 758      6500
 759 02c7 06       		.byte	0x6
 760 02c8 48       		.byte	0x48
 761 02c9 68020000 		.long	0x268
 762 02cd 02       		.byte	0x2
 763 02ce 23       		.byte	0x23
 764 02cf 00       		.uleb128 0
 765 02d0 05       		.uleb128 0x5
 766 02d1 72656164 		.ascii "read\0"
 766      00
 767 02d6 06       		.byte	0x6
 768 02d7 48       		.byte	0x48
 769 02d8 88020000 		.long	0x288
 770 02dc 02       		.byte	0x2
 771 02dd 23       		.byte	0x23
 772 02de 04       		.uleb128 0x4
 773 02df 05       		.uleb128 0x5
 774 02e0 70757400 		.ascii "put\0"
 775 02e4 06       		.byte	0x6
 776 02e5 48       		.byte	0x48
 777 02e6 A3020000 		.long	0x2a3
 778 02ea 02       		.byte	0x2
 779 02eb 23       		.byte	0x23
 780 02ec 08       		.uleb128 0x8
 781 02ed 05       		.uleb128 0x5
 782 02ee 67657400 		.ascii "get\0"
 783 02f2 06       		.byte	0x6
 784 02f3 48       		.byte	0x48
 785 02f4 27020000 		.long	0x227
 786 02f8 02       		.byte	0x2
 787 02f9 23       		.byte	0x23
 788 02fa 0C       		.uleb128 0xc
 789 02fb 05       		.uleb128 0x5
 790 02fc 70757474 		.ascii "putt\0"
 790      00
 791 0301 06       		.byte	0x6
 792 0302 48       		.byte	0x48
GAS LISTING C:\cygwin\tmp\ccztN46C.s 			page 18


 793 0303 55030000 		.long	0x355
 794 0307 02       		.byte	0x2
 795 0308 23       		.byte	0x23
 796 0309 10       		.uleb128 0x10
 797 030a 05       		.uleb128 0x5
 798 030b 67657474 		.ascii "gett\0"
 798      00
 799 0310 06       		.byte	0x6
 800 0311 48       		.byte	0x48
 801 0312 70030000 		.long	0x370
 802 0316 02       		.byte	0x2
 803 0317 23       		.byte	0x23
 804 0318 14       		.uleb128 0x14
 805 0319 05       		.uleb128 0x5
 806 031a 77726974 		.ascii "writet\0"
 806      657400
 807 0321 06       		.byte	0x6
 808 0322 48       		.byte	0x48
 809 0323 95030000 		.long	0x395
 810 0327 02       		.byte	0x2
 811 0328 23       		.byte	0x23
 812 0329 18       		.uleb128 0x18
 813 032a 05       		.uleb128 0x5
 814 032b 72656164 		.ascii "readt\0"
 814      7400
 815 0331 06       		.byte	0x6
 816 0332 48       		.byte	0x48
 817 0333 BA030000 		.long	0x3ba
 818 0337 02       		.byte	0x2
 819 0338 23       		.byte	0x23
 820 0339 1C       		.uleb128 0x1c
 821 033a 00       		.byte	0
 822 033b 08       		.uleb128 0x8
 823 033c 01       		.byte	0x1
 824 033d 07020000 		.long	0x207
 825 0341 55030000 		.long	0x355
 826 0345 09       		.uleb128 0x9
 827 0346 25020000 		.long	0x225
 828 034a 09       		.uleb128 0x9
 829 034b 97010000 		.long	0x197
 830 034f 09       		.uleb128 0x9
 831 0350 14020000 		.long	0x214
 832 0354 00       		.byte	0
 833 0355 06       		.uleb128 0x6
 834 0356 04       		.byte	0x4
 835 0357 3B030000 		.long	0x33b
 836 035b 08       		.uleb128 0x8
 837 035c 01       		.byte	0x1
 838 035d 07020000 		.long	0x207
 839 0361 70030000 		.long	0x370
 840 0365 09       		.uleb128 0x9
 841 0366 25020000 		.long	0x225
 842 036a 09       		.uleb128 0x9
 843 036b 14020000 		.long	0x214
 844 036f 00       		.byte	0
 845 0370 06       		.uleb128 0x6
 846 0371 04       		.byte	0x4
GAS LISTING C:\cygwin\tmp\ccztN46C.s 			page 19


 847 0372 5B030000 		.long	0x35b
 848 0376 08       		.uleb128 0x8
 849 0377 01       		.byte	0x1
 850 0378 72000000 		.long	0x72
 851 037c 95030000 		.long	0x395
 852 0380 09       		.uleb128 0x9
 853 0381 25020000 		.long	0x225
 854 0385 09       		.uleb128 0x9
 855 0386 5D020000 		.long	0x25d
 856 038a 09       		.uleb128 0x9
 857 038b 72000000 		.long	0x72
 858 038f 09       		.uleb128 0x9
 859 0390 14020000 		.long	0x214
 860 0394 00       		.byte	0
 861 0395 06       		.uleb128 0x6
 862 0396 04       		.byte	0x4
 863 0397 76030000 		.long	0x376
 864 039b 08       		.uleb128 0x8
 865 039c 01       		.byte	0x1
 866 039d 72000000 		.long	0x72
 867 03a1 BA030000 		.long	0x3ba
 868 03a5 09       		.uleb128 0x9
 869 03a6 25020000 		.long	0x225
 870 03aa 09       		.uleb128 0x9
 871 03ab 3D020000 		.long	0x23d
 872 03af 09       		.uleb128 0x9
 873 03b0 72000000 		.long	0x72
 874 03b4 09       		.uleb128 0x9
 875 03b5 14020000 		.long	0x214
 876 03b9 00       		.byte	0
 877 03ba 06       		.uleb128 0x6
 878 03bb 04       		.byte	0x4
 879 03bc 9B030000 		.long	0x39b
 880 03c0 0B       		.uleb128 0xb
 881 03c1 04       		.byte	0x4
 882 03c2 06       		.byte	0x6
 883 03c3 52       		.byte	0x52
 884 03c4 D7030000 		.long	0x3d7
 885 03c8 05       		.uleb128 0x5
 886 03c9 766D7400 		.ascii "vmt\0"
 887 03cd 06       		.byte	0x6
 888 03ce 54       		.byte	0x54
 889 03cf D7030000 		.long	0x3d7
 890 03d3 02       		.byte	0x2
 891 03d4 23       		.byte	0x23
 892 03d5 00       		.uleb128 0
 893 03d6 00       		.byte	0
 894 03d7 06       		.uleb128 0x6
 895 03d8 04       		.byte	0x4
 896 03d9 DD030000 		.long	0x3dd
 897 03dd 0A       		.uleb128 0xa
 898 03de A9020000 		.long	0x2a9
 899 03e2 02       		.uleb128 0x2
 900 03e3 42617365 		.ascii "BaseChannel\0"
 900      4368616E 
 900      6E656C00 
 901 03ef 06       		.byte	0x6
GAS LISTING C:\cygwin\tmp\ccztN46C.s 			page 20


 902 03f0 56       		.byte	0x56
 903 03f1 C0030000 		.long	0x3c0
 904 03f5 0C       		.uleb128 0xc
 905 03f6 77726974 		.ascii "writes\0"
 905      657300
 906 03fd 01       		.byte	0x1
 907 03fe 32       		.byte	0x32
 908 03ff 01       		.byte	0x1
 909 0400 72000000 		.long	0x72
 910 0404 00000000 		.long	LFB6
 911 0408 9B000000 		.long	LFE6
 912 040c 00000000 		.secrel32	LLST0
 913 0410 49040000 		.long	0x449
 914 0414 0D       		.uleb128 0xd
 915 0415 697000   		.ascii "ip\0"
 916 0418 01       		.byte	0x1
 917 0419 32       		.byte	0x32
 918 041a 25020000 		.long	0x225
 919 041e 02       		.byte	0x2
 920 041f 91       		.byte	0x91
 921 0420 00       		.sleb128 0
 922 0421 0D       		.uleb128 0xd
 923 0422 627000   		.ascii "bp\0"
 924 0425 01       		.byte	0x1
 925 0426 32       		.byte	0x32
 926 0427 5D020000 		.long	0x25d
 927 042b 02       		.byte	0x2
 928 042c 91       		.byte	0x91
 929 042d 04       		.sleb128 4
 930 042e 0D       		.uleb128 0xd
 931 042f 6E00     		.ascii "n\0"
 932 0431 01       		.byte	0x1
 933 0432 32       		.byte	0x32
 934 0433 72000000 		.long	0x72
 935 0437 02       		.byte	0x2
 936 0438 91       		.byte	0x91
 937 0439 08       		.sleb128 8
 938 043a 0E       		.uleb128 0xe
 939 043b 72657400 		.ascii "ret\0"
 940 043f 01       		.byte	0x1
 941 0440 33       		.byte	0x33
 942 0441 72000000 		.long	0x72
 943 0445 02       		.byte	0x2
 944 0446 91       		.byte	0x91
 945 0447 6C       		.sleb128 -20
 946 0448 00       		.byte	0
 947 0449 0C       		.uleb128 0xc
 948 044a 72656164 		.ascii "reads\0"
 948      7300
 949 0450 01       		.byte	0x1
 950 0451 3B       		.byte	0x3b
 951 0452 01       		.byte	0x1
 952 0453 72000000 		.long	0x72
 953 0457 9B000000 		.long	LFB7
 954 045b 03010000 		.long	LFE7
 955 045f 2C000000 		.secrel32	LLST1
 956 0463 8E040000 		.long	0x48e
GAS LISTING C:\cygwin\tmp\ccztN46C.s 			page 21


 957 0467 0D       		.uleb128 0xd
 958 0468 697000   		.ascii "ip\0"
 959 046b 01       		.byte	0x1
 960 046c 3B       		.byte	0x3b
 961 046d 25020000 		.long	0x225
 962 0471 02       		.byte	0x2
 963 0472 91       		.byte	0x91
 964 0473 00       		.sleb128 0
 965 0474 0D       		.uleb128 0xd
 966 0475 627000   		.ascii "bp\0"
 967 0478 01       		.byte	0x1
 968 0479 3B       		.byte	0x3b
 969 047a 3D020000 		.long	0x23d
 970 047e 02       		.byte	0x2
 971 047f 91       		.byte	0x91
 972 0480 04       		.sleb128 4
 973 0481 0D       		.uleb128 0xd
 974 0482 6E00     		.ascii "n\0"
 975 0484 01       		.byte	0x1
 976 0485 3B       		.byte	0x3b
 977 0486 72000000 		.long	0x72
 978 048a 02       		.byte	0x2
 979 048b 91       		.byte	0x91
 980 048c 08       		.sleb128 8
 981 048d 00       		.byte	0
 982 048e 0C       		.uleb128 0xc
 983 048f 70757477 		.ascii "putwouldblock\0"
 983      6F756C64 
 983      626C6F63 
 983      6B00
 984 049d 01       		.byte	0x1
 985 049e 41       		.byte	0x41
 986 049f 01       		.byte	0x1
 987 04a0 F0010000 		.long	0x1f0
 988 04a4 03010000 		.long	LFB8
 989 04a8 28010000 		.long	LFE8
 990 04ac 58000000 		.secrel32	LLST2
 991 04b0 C2040000 		.long	0x4c2
 992 04b4 0D       		.uleb128 0xd
 993 04b5 697000   		.ascii "ip\0"
 994 04b8 01       		.byte	0x1
 995 04b9 41       		.byte	0x41
 996 04ba 25020000 		.long	0x225
 997 04be 02       		.byte	0x2
 998 04bf 91       		.byte	0x91
 999 04c0 00       		.sleb128 0
 1000 04c1 00       		.byte	0
 1001 04c2 0C       		.uleb128 0xc
 1002 04c3 67657477 		.ascii "getwouldblock\0"
 1002      6F756C64 
 1002      626C6F63 
 1002      6B00
 1003 04d1 01       		.byte	0x1
 1004 04d2 47       		.byte	0x47
 1005 04d3 01       		.byte	0x1
 1006 04d4 F0010000 		.long	0x1f0
 1007 04d8 28010000 		.long	LFB9
GAS LISTING C:\cygwin\tmp\ccztN46C.s 			page 22


 1008 04dc 4D010000 		.long	LFE9
 1009 04e0 84000000 		.secrel32	LLST3
 1010 04e4 F6040000 		.long	0x4f6
 1011 04e8 0D       		.uleb128 0xd
 1012 04e9 697000   		.ascii "ip\0"
 1013 04ec 01       		.byte	0x1
 1014 04ed 47       		.byte	0x47
 1015 04ee 25020000 		.long	0x225
 1016 04f2 02       		.byte	0x2
 1017 04f3 91       		.byte	0x91
 1018 04f4 00       		.sleb128 0
 1019 04f5 00       		.byte	0
 1020 04f6 0C       		.uleb128 0xc
 1021 04f7 70757474 		.ascii "putt\0"
 1021      00
 1022 04fc 01       		.byte	0x1
 1023 04fd 4D       		.byte	0x4d
 1024 04fe 01       		.byte	0x1
 1025 04ff 07020000 		.long	0x207
 1026 0503 4D010000 		.long	LFB10
 1027 0507 DF010000 		.long	LFE10
 1028 050b B0000000 		.secrel32	LLST4
 1029 050f 3C050000 		.long	0x53c
 1030 0513 0D       		.uleb128 0xd
 1031 0514 697000   		.ascii "ip\0"
 1032 0517 01       		.byte	0x1
 1033 0518 4D       		.byte	0x4d
 1034 0519 25020000 		.long	0x225
 1035 051d 02       		.byte	0x2
 1036 051e 91       		.byte	0x91
 1037 051f 00       		.sleb128 0
 1038 0520 0D       		.uleb128 0xd
 1039 0521 6200     		.ascii "b\0"
 1040 0523 01       		.byte	0x1
 1041 0524 4D       		.byte	0x4d
 1042 0525 97010000 		.long	0x197
 1043 0529 02       		.byte	0x2
 1044 052a 91       		.byte	0x91
 1045 052b 6C       		.sleb128 -20
 1046 052c 0D       		.uleb128 0xd
 1047 052d 74696D65 		.ascii "time\0"
 1047      00
 1048 0532 01       		.byte	0x1
 1049 0533 4D       		.byte	0x4d
 1050 0534 14020000 		.long	0x214
 1051 0538 02       		.byte	0x2
 1052 0539 91       		.byte	0x91
 1053 053a 08       		.sleb128 8
 1054 053b 00       		.byte	0
 1055 053c 0C       		.uleb128 0xc
 1056 053d 67657474 		.ascii "gett\0"
 1056      00
 1057 0542 01       		.byte	0x1
 1058 0543 56       		.byte	0x56
 1059 0544 01       		.byte	0x1
 1060 0545 07020000 		.long	0x207
 1061 0549 DF010000 		.long	LFB11
GAS LISTING C:\cygwin\tmp\ccztN46C.s 			page 23


 1062 054d 2F020000 		.long	LFE11
 1063 0551 DC000000 		.secrel32	LLST5
 1064 0555 76050000 		.long	0x576
 1065 0559 0D       		.uleb128 0xd
 1066 055a 697000   		.ascii "ip\0"
 1067 055d 01       		.byte	0x1
 1068 055e 56       		.byte	0x56
 1069 055f 25020000 		.long	0x225
 1070 0563 02       		.byte	0x2
 1071 0564 91       		.byte	0x91
 1072 0565 00       		.sleb128 0
 1073 0566 0D       		.uleb128 0xd
 1074 0567 74696D65 		.ascii "time\0"
 1074      00
 1075 056c 01       		.byte	0x1
 1076 056d 56       		.byte	0x56
 1077 056e 14020000 		.long	0x214
 1078 0572 02       		.byte	0x2
 1079 0573 91       		.byte	0x91
 1080 0574 04       		.sleb128 4
 1081 0575 00       		.byte	0
 1082 0576 0C       		.uleb128 0xc
 1083 0577 77726974 		.ascii "writet\0"
 1083      657400
 1084 057e 01       		.byte	0x1
 1085 057f 5D       		.byte	0x5d
 1086 0580 01       		.byte	0x1
 1087 0581 72000000 		.long	0x72
 1088 0585 2F020000 		.long	LFB12
 1089 0589 CA020000 		.long	LFE12
 1090 058d 08010000 		.secrel32	LLST6
 1091 0591 D9050000 		.long	0x5d9
 1092 0595 0D       		.uleb128 0xd
 1093 0596 697000   		.ascii "ip\0"
 1094 0599 01       		.byte	0x1
 1095 059a 5D       		.byte	0x5d
 1096 059b 25020000 		.long	0x225
 1097 059f 02       		.byte	0x2
 1098 05a0 91       		.byte	0x91
 1099 05a1 00       		.sleb128 0
 1100 05a2 0D       		.uleb128 0xd
 1101 05a3 627000   		.ascii "bp\0"
 1102 05a6 01       		.byte	0x1
 1103 05a7 5D       		.byte	0x5d
 1104 05a8 5D020000 		.long	0x25d
 1105 05ac 02       		.byte	0x2
 1106 05ad 91       		.byte	0x91
 1107 05ae 04       		.sleb128 4
 1108 05af 0D       		.uleb128 0xd
 1109 05b0 6E00     		.ascii "n\0"
 1110 05b2 01       		.byte	0x1
 1111 05b3 5D       		.byte	0x5d
 1112 05b4 72000000 		.long	0x72
 1113 05b8 02       		.byte	0x2
 1114 05b9 91       		.byte	0x91
 1115 05ba 08       		.sleb128 8
 1116 05bb 0D       		.uleb128 0xd
GAS LISTING C:\cygwin\tmp\ccztN46C.s 			page 24


 1117 05bc 74696D65 		.ascii "time\0"
 1117      00
 1118 05c1 01       		.byte	0x1
 1119 05c2 5D       		.byte	0x5d
 1120 05c3 14020000 		.long	0x214
 1121 05c7 02       		.byte	0x2
 1122 05c8 91       		.byte	0x91
 1123 05c9 0C       		.sleb128 12
 1124 05ca 0E       		.uleb128 0xe
 1125 05cb 72657400 		.ascii "ret\0"
 1126 05cf 01       		.byte	0x1
 1127 05d0 5E       		.byte	0x5e
 1128 05d1 72000000 		.long	0x72
 1129 05d5 02       		.byte	0x2
 1130 05d6 91       		.byte	0x91
 1131 05d7 6C       		.sleb128 -20
 1132 05d8 00       		.byte	0
 1133 05d9 0C       		.uleb128 0xc
 1134 05da 72656164 		.ascii "readt\0"
 1134      7400
 1135 05e0 01       		.byte	0x1
 1136 05e1 67       		.byte	0x67
 1137 05e2 01       		.byte	0x1
 1138 05e3 72000000 		.long	0x72
 1139 05e7 CA020000 		.long	LFB13
 1140 05eb 32030000 		.long	LFE13
 1141 05ef 34010000 		.secrel32	LLST7
 1142 05f3 2D060000 		.long	0x62d
 1143 05f7 0D       		.uleb128 0xd
 1144 05f8 697000   		.ascii "ip\0"
 1145 05fb 01       		.byte	0x1
 1146 05fc 67       		.byte	0x67
 1147 05fd 25020000 		.long	0x225
 1148 0601 02       		.byte	0x2
 1149 0602 91       		.byte	0x91
 1150 0603 00       		.sleb128 0
 1151 0604 0D       		.uleb128 0xd
 1152 0605 627000   		.ascii "bp\0"
 1153 0608 01       		.byte	0x1
 1154 0609 67       		.byte	0x67
 1155 060a 3D020000 		.long	0x23d
 1156 060e 02       		.byte	0x2
 1157 060f 91       		.byte	0x91
 1158 0610 04       		.sleb128 4
 1159 0611 0D       		.uleb128 0xd
 1160 0612 6E00     		.ascii "n\0"
 1161 0614 01       		.byte	0x1
 1162 0615 67       		.byte	0x67
 1163 0616 72000000 		.long	0x72
 1164 061a 02       		.byte	0x2
 1165 061b 91       		.byte	0x91
 1166 061c 08       		.sleb128 8
 1167 061d 0D       		.uleb128 0xd
 1168 061e 74696D65 		.ascii "time\0"
 1168      00
 1169 0623 01       		.byte	0x1
 1170 0624 67       		.byte	0x67
GAS LISTING C:\cygwin\tmp\ccztN46C.s 			page 25


 1171 0625 14020000 		.long	0x214
 1172 0629 02       		.byte	0x2
 1173 062a 91       		.byte	0x91
 1174 062b 0C       		.sleb128 12
 1175 062c 00       		.byte	0
 1176 062d 0F       		.uleb128 0xf
 1177 062e 01       		.byte	0x1
 1178 062f 636F6E49 		.ascii "conInit\0"
 1178      6E697400 
 1179 0637 01       		.byte	0x1
 1180 0638 7A       		.byte	0x7a
 1181 0639 01       		.byte	0x1
 1182 063a 32030000 		.long	LFB14
 1183 063e 5F030000 		.long	LFE14
 1184 0642 60010000 		.secrel32	LLST8
 1185 0646 10       		.uleb128 0x10
 1186 0647 5F474C4F 		.ascii "_GLOBAL__sub_I_65535_0_conInit\0"
 1186      42414C5F 
 1186      5F737562 
 1186      5F495F36 
 1186      35353335 
 1187 0666 01       		.byte	0x1
 1188 0667 01       		.byte	0x1
 1189 0668 5F030000 		.long	LFB15
 1190 066c 72030000 		.long	LFE15
 1191 0670 8C010000 		.secrel32	LLST9
 1192 0674 11       		.uleb128 0x11
 1193 0675 52010000 		.long	0x152
 1194 0679 7F060000 		.long	0x67f
 1195 067d 12       		.uleb128 0x12
 1196 067e 00       		.byte	0
 1197 067f 13       		.uleb128 0x13
 1198 0680 5F696F62 		.ascii "_iob\0"
 1198      00
 1199 0685 02       		.byte	0x2
 1200 0686 9A       		.byte	0x9a
 1201 0687 74060000 		.long	0x674
 1202 068b 01       		.byte	0x1
 1203 068c 01       		.byte	0x1
 1204 068d 13       		.uleb128 0x13
 1205 068e 43443100 		.ascii "CD1\0"
 1206 0692 07       		.byte	0x7
 1207 0693 38       		.byte	0x38
 1208 0694 E2030000 		.long	0x3e2
 1209 0698 01       		.byte	0x1
 1210 0699 01       		.byte	0x1
 1211 069a 0E       		.uleb128 0xe
 1212 069b 766D7400 		.ascii "vmt\0"
 1213 069f 01       		.byte	0x1
 1214 06a0 6E       		.byte	0x6e
 1215 06a1 DD030000 		.long	0x3dd
 1216 06a5 05       		.byte	0x5
 1217 06a6 03       		.byte	0x3
 1218 06a7 00000000 		.long	_vmt
 1219 06ab 13       		.uleb128 0x13
 1220 06ac 5F696F62 		.ascii "_iob\0"
 1220      00
GAS LISTING C:\cygwin\tmp\ccztN46C.s 			page 26


 1221 06b1 02       		.byte	0x2
 1222 06b2 9A       		.byte	0x9a
 1223 06b3 74060000 		.long	0x674
 1224 06b7 01       		.byte	0x1
 1225 06b8 01       		.byte	0x1
 1226 06b9 14       		.uleb128 0x14
 1227 06ba 43443100 		.ascii "CD1\0"
 1228 06be 01       		.byte	0x1
 1229 06bf 27       		.byte	0x27
 1230 06c0 E2030000 		.long	0x3e2
 1231 06c4 01       		.byte	0x1
 1232 06c5 05       		.byte	0x5
 1233 06c6 03       		.byte	0x3
 1234 06c7 00000000 		.long	_CD1
 1235 06cb 00       		.byte	0
 1236              		.section	.debug_abbrev,"dr"
 1237              	Ldebug_abbrev0:
 1238 0000 01       		.uleb128 0x1
 1239 0001 11       		.uleb128 0x11
 1240 0002 01       		.byte	0x1
 1241 0003 25       		.uleb128 0x25
 1242 0004 08       		.uleb128 0x8
 1243 0005 13       		.uleb128 0x13
 1244 0006 0B       		.uleb128 0xb
 1245 0007 03       		.uleb128 0x3
 1246 0008 08       		.uleb128 0x8
 1247 0009 1B       		.uleb128 0x1b
 1248 000a 08       		.uleb128 0x8
 1249 000b 11       		.uleb128 0x11
 1250 000c 01       		.uleb128 0x1
 1251 000d 12       		.uleb128 0x12
 1252 000e 01       		.uleb128 0x1
 1253 000f 10       		.uleb128 0x10
 1254 0010 06       		.uleb128 0x6
 1255 0011 00       		.byte	0
 1256 0012 00       		.byte	0
 1257 0013 02       		.uleb128 0x2
 1258 0014 16       		.uleb128 0x16
 1259 0015 00       		.byte	0
 1260 0016 03       		.uleb128 0x3
 1261 0017 08       		.uleb128 0x8
 1262 0018 3A       		.uleb128 0x3a
 1263 0019 0B       		.uleb128 0xb
 1264 001a 3B       		.uleb128 0x3b
 1265 001b 0B       		.uleb128 0xb
 1266 001c 49       		.uleb128 0x49
 1267 001d 13       		.uleb128 0x13
 1268 001e 00       		.byte	0
 1269 001f 00       		.byte	0
 1270 0020 03       		.uleb128 0x3
 1271 0021 24       		.uleb128 0x24
 1272 0022 00       		.byte	0
 1273 0023 0B       		.uleb128 0xb
 1274 0024 0B       		.uleb128 0xb
 1275 0025 3E       		.uleb128 0x3e
 1276 0026 0B       		.uleb128 0xb
 1277 0027 03       		.uleb128 0x3
GAS LISTING C:\cygwin\tmp\ccztN46C.s 			page 27


 1278 0028 08       		.uleb128 0x8
 1279 0029 00       		.byte	0
 1280 002a 00       		.byte	0
 1281 002b 04       		.uleb128 0x4
 1282 002c 13       		.uleb128 0x13
 1283 002d 01       		.byte	0x1
 1284 002e 03       		.uleb128 0x3
 1285 002f 08       		.uleb128 0x8
 1286 0030 0B       		.uleb128 0xb
 1287 0031 0B       		.uleb128 0xb
 1288 0032 3A       		.uleb128 0x3a
 1289 0033 0B       		.uleb128 0xb
 1290 0034 3B       		.uleb128 0x3b
 1291 0035 0B       		.uleb128 0xb
 1292 0036 01       		.uleb128 0x1
 1293 0037 13       		.uleb128 0x13
 1294 0038 00       		.byte	0
 1295 0039 00       		.byte	0
 1296 003a 05       		.uleb128 0x5
 1297 003b 0D       		.uleb128 0xd
 1298 003c 00       		.byte	0
 1299 003d 03       		.uleb128 0x3
 1300 003e 08       		.uleb128 0x8
 1301 003f 3A       		.uleb128 0x3a
 1302 0040 0B       		.uleb128 0xb
 1303 0041 3B       		.uleb128 0x3b
 1304 0042 0B       		.uleb128 0xb
 1305 0043 49       		.uleb128 0x49
 1306 0044 13       		.uleb128 0x13
 1307 0045 38       		.uleb128 0x38
 1308 0046 0A       		.uleb128 0xa
 1309 0047 00       		.byte	0
 1310 0048 00       		.byte	0
 1311 0049 06       		.uleb128 0x6
 1312 004a 0F       		.uleb128 0xf
 1313 004b 00       		.byte	0
 1314 004c 0B       		.uleb128 0xb
 1315 004d 0B       		.uleb128 0xb
 1316 004e 49       		.uleb128 0x49
 1317 004f 13       		.uleb128 0x13
 1318 0050 00       		.byte	0
 1319 0051 00       		.byte	0
 1320 0052 07       		.uleb128 0x7
 1321 0053 0F       		.uleb128 0xf
 1322 0054 00       		.byte	0
 1323 0055 0B       		.uleb128 0xb
 1324 0056 0B       		.uleb128 0xb
 1325 0057 00       		.byte	0
 1326 0058 00       		.byte	0
 1327 0059 08       		.uleb128 0x8
 1328 005a 15       		.uleb128 0x15
 1329 005b 01       		.byte	0x1
 1330 005c 27       		.uleb128 0x27
 1331 005d 0C       		.uleb128 0xc
 1332 005e 49       		.uleb128 0x49
 1333 005f 13       		.uleb128 0x13
 1334 0060 01       		.uleb128 0x1
GAS LISTING C:\cygwin\tmp\ccztN46C.s 			page 28


 1335 0061 13       		.uleb128 0x13
 1336 0062 00       		.byte	0
 1337 0063 00       		.byte	0
 1338 0064 09       		.uleb128 0x9
 1339 0065 05       		.uleb128 0x5
 1340 0066 00       		.byte	0
 1341 0067 49       		.uleb128 0x49
 1342 0068 13       		.uleb128 0x13
 1343 0069 00       		.byte	0
 1344 006a 00       		.byte	0
 1345 006b 0A       		.uleb128 0xa
 1346 006c 26       		.uleb128 0x26
 1347 006d 00       		.byte	0
 1348 006e 49       		.uleb128 0x49
 1349 006f 13       		.uleb128 0x13
 1350 0070 00       		.byte	0
 1351 0071 00       		.byte	0
 1352 0072 0B       		.uleb128 0xb
 1353 0073 13       		.uleb128 0x13
 1354 0074 01       		.byte	0x1
 1355 0075 0B       		.uleb128 0xb
 1356 0076 0B       		.uleb128 0xb
 1357 0077 3A       		.uleb128 0x3a
 1358 0078 0B       		.uleb128 0xb
 1359 0079 3B       		.uleb128 0x3b
 1360 007a 0B       		.uleb128 0xb
 1361 007b 01       		.uleb128 0x1
 1362 007c 13       		.uleb128 0x13
 1363 007d 00       		.byte	0
 1364 007e 00       		.byte	0
 1365 007f 0C       		.uleb128 0xc
 1366 0080 2E       		.uleb128 0x2e
 1367 0081 01       		.byte	0x1
 1368 0082 03       		.uleb128 0x3
 1369 0083 08       		.uleb128 0x8
 1370 0084 3A       		.uleb128 0x3a
 1371 0085 0B       		.uleb128 0xb
 1372 0086 3B       		.uleb128 0x3b
 1373 0087 0B       		.uleb128 0xb
 1374 0088 27       		.uleb128 0x27
 1375 0089 0C       		.uleb128 0xc
 1376 008a 49       		.uleb128 0x49
 1377 008b 13       		.uleb128 0x13
 1378 008c 11       		.uleb128 0x11
 1379 008d 01       		.uleb128 0x1
 1380 008e 12       		.uleb128 0x12
 1381 008f 01       		.uleb128 0x1
 1382 0090 40       		.uleb128 0x40
 1383 0091 06       		.uleb128 0x6
 1384 0092 01       		.uleb128 0x1
 1385 0093 13       		.uleb128 0x13
 1386 0094 00       		.byte	0
 1387 0095 00       		.byte	0
 1388 0096 0D       		.uleb128 0xd
 1389 0097 05       		.uleb128 0x5
 1390 0098 00       		.byte	0
 1391 0099 03       		.uleb128 0x3
GAS LISTING C:\cygwin\tmp\ccztN46C.s 			page 29


 1392 009a 08       		.uleb128 0x8
 1393 009b 3A       		.uleb128 0x3a
 1394 009c 0B       		.uleb128 0xb
 1395 009d 3B       		.uleb128 0x3b
 1396 009e 0B       		.uleb128 0xb
 1397 009f 49       		.uleb128 0x49
 1398 00a0 13       		.uleb128 0x13
 1399 00a1 02       		.uleb128 0x2
 1400 00a2 0A       		.uleb128 0xa
 1401 00a3 00       		.byte	0
 1402 00a4 00       		.byte	0
 1403 00a5 0E       		.uleb128 0xe
 1404 00a6 34       		.uleb128 0x34
 1405 00a7 00       		.byte	0
 1406 00a8 03       		.uleb128 0x3
 1407 00a9 08       		.uleb128 0x8
 1408 00aa 3A       		.uleb128 0x3a
 1409 00ab 0B       		.uleb128 0xb
 1410 00ac 3B       		.uleb128 0x3b
 1411 00ad 0B       		.uleb128 0xb
 1412 00ae 49       		.uleb128 0x49
 1413 00af 13       		.uleb128 0x13
 1414 00b0 02       		.uleb128 0x2
 1415 00b1 0A       		.uleb128 0xa
 1416 00b2 00       		.byte	0
 1417 00b3 00       		.byte	0
 1418 00b4 0F       		.uleb128 0xf
 1419 00b5 2E       		.uleb128 0x2e
 1420 00b6 00       		.byte	0
 1421 00b7 3F       		.uleb128 0x3f
 1422 00b8 0C       		.uleb128 0xc
 1423 00b9 03       		.uleb128 0x3
 1424 00ba 08       		.uleb128 0x8
 1425 00bb 3A       		.uleb128 0x3a
 1426 00bc 0B       		.uleb128 0xb
 1427 00bd 3B       		.uleb128 0x3b
 1428 00be 0B       		.uleb128 0xb
 1429 00bf 27       		.uleb128 0x27
 1430 00c0 0C       		.uleb128 0xc
 1431 00c1 11       		.uleb128 0x11
 1432 00c2 01       		.uleb128 0x1
 1433 00c3 12       		.uleb128 0x12
 1434 00c4 01       		.uleb128 0x1
 1435 00c5 40       		.uleb128 0x40
 1436 00c6 06       		.uleb128 0x6
 1437 00c7 00       		.byte	0
 1438 00c8 00       		.byte	0
 1439 00c9 10       		.uleb128 0x10
 1440 00ca 2E       		.uleb128 0x2e
 1441 00cb 00       		.byte	0
 1442 00cc 03       		.uleb128 0x3
 1443 00cd 08       		.uleb128 0x8
 1444 00ce 27       		.uleb128 0x27
 1445 00cf 0C       		.uleb128 0xc
 1446 00d0 34       		.uleb128 0x34
 1447 00d1 0C       		.uleb128 0xc
 1448 00d2 11       		.uleb128 0x11
GAS LISTING C:\cygwin\tmp\ccztN46C.s 			page 30


 1449 00d3 01       		.uleb128 0x1
 1450 00d4 12       		.uleb128 0x12
 1451 00d5 01       		.uleb128 0x1
 1452 00d6 40       		.uleb128 0x40
 1453 00d7 06       		.uleb128 0x6
 1454 00d8 00       		.byte	0
 1455 00d9 00       		.byte	0
 1456 00da 11       		.uleb128 0x11
 1457 00db 01       		.uleb128 0x1
 1458 00dc 01       		.byte	0x1
 1459 00dd 49       		.uleb128 0x49
 1460 00de 13       		.uleb128 0x13
 1461 00df 01       		.uleb128 0x1
 1462 00e0 13       		.uleb128 0x13
 1463 00e1 00       		.byte	0
 1464 00e2 00       		.byte	0
 1465 00e3 12       		.uleb128 0x12
 1466 00e4 21       		.uleb128 0x21
 1467 00e5 00       		.byte	0
 1468 00e6 00       		.byte	0
 1469 00e7 00       		.byte	0
 1470 00e8 13       		.uleb128 0x13
 1471 00e9 34       		.uleb128 0x34
 1472 00ea 00       		.byte	0
 1473 00eb 03       		.uleb128 0x3
 1474 00ec 08       		.uleb128 0x8
 1475 00ed 3A       		.uleb128 0x3a
 1476 00ee 0B       		.uleb128 0xb
 1477 00ef 3B       		.uleb128 0x3b
 1478 00f0 0B       		.uleb128 0xb
 1479 00f1 49       		.uleb128 0x49
 1480 00f2 13       		.uleb128 0x13
 1481 00f3 3F       		.uleb128 0x3f
 1482 00f4 0C       		.uleb128 0xc
 1483 00f5 3C       		.uleb128 0x3c
 1484 00f6 0C       		.uleb128 0xc
 1485 00f7 00       		.byte	0
 1486 00f8 00       		.byte	0
 1487 00f9 14       		.uleb128 0x14
 1488 00fa 34       		.uleb128 0x34
 1489 00fb 00       		.byte	0
 1490 00fc 03       		.uleb128 0x3
 1491 00fd 08       		.uleb128 0x8
 1492 00fe 3A       		.uleb128 0x3a
 1493 00ff 0B       		.uleb128 0xb
 1494 0100 3B       		.uleb128 0x3b
 1495 0101 0B       		.uleb128 0xb
 1496 0102 49       		.uleb128 0x49
 1497 0103 13       		.uleb128 0x13
 1498 0104 3F       		.uleb128 0x3f
 1499 0105 0C       		.uleb128 0xc
 1500 0106 02       		.uleb128 0x2
 1501 0107 0A       		.uleb128 0xa
 1502 0108 00       		.byte	0
 1503 0109 00       		.byte	0
 1504 010a 00       		.byte	0
 1505              		.section	.debug_loc,"dr"
GAS LISTING C:\cygwin\tmp\ccztN46C.s 			page 31


 1506              	Ldebug_loc0:
 1507              	LLST0:
 1508 0000 00000000 		.long	LFB6-Ltext0
 1509 0004 03000000 		.long	LCFI0-Ltext0
 1510 0008 0200     		.word	0x2
 1511 000a 74       		.byte	0x74
 1512 000b 04       		.sleb128 4
 1513 000c 03000000 		.long	LCFI0-Ltext0
 1514 0010 9A000000 		.long	LCFI1-Ltext0
 1515 0014 0200     		.word	0x2
 1516 0016 74       		.byte	0x74
 1517 0017 30       		.sleb128 48
 1518 0018 9A000000 		.long	LCFI1-Ltext0
 1519 001c 9B000000 		.long	LFE6-Ltext0
 1520 0020 0200     		.word	0x2
 1521 0022 74       		.byte	0x74
 1522 0023 04       		.sleb128 4
 1523 0024 00000000 		.long	0
 1524 0028 00000000 		.long	0
 1525              	LLST1:
 1526 002c 9B000000 		.long	LFB7-Ltext0
 1527 0030 9E000000 		.long	LCFI2-Ltext0
 1528 0034 0200     		.word	0x2
 1529 0036 74       		.byte	0x74
 1530 0037 04       		.sleb128 4
 1531 0038 9E000000 		.long	LCFI2-Ltext0
 1532 003c 02010000 		.long	LCFI3-Ltext0
 1533 0040 0200     		.word	0x2
 1534 0042 74       		.byte	0x74
 1535 0043 20       		.sleb128 32
 1536 0044 02010000 		.long	LCFI3-Ltext0
 1537 0048 03010000 		.long	LFE7-Ltext0
 1538 004c 0200     		.word	0x2
 1539 004e 74       		.byte	0x74
 1540 004f 04       		.sleb128 4
 1541 0050 00000000 		.long	0
 1542 0054 00000000 		.long	0
 1543              	LLST2:
 1544 0058 03010000 		.long	LFB8-Ltext0
 1545 005c 06010000 		.long	LCFI4-Ltext0
 1546 0060 0200     		.word	0x2
 1547 0062 74       		.byte	0x74
 1548 0063 04       		.sleb128 4
 1549 0064 06010000 		.long	LCFI4-Ltext0
 1550 0068 27010000 		.long	LCFI5-Ltext0
 1551 006c 0200     		.word	0x2
 1552 006e 74       		.byte	0x74
 1553 006f 08       		.sleb128 8
 1554 0070 27010000 		.long	LCFI5-Ltext0
 1555 0074 28010000 		.long	LFE8-Ltext0
 1556 0078 0200     		.word	0x2
 1557 007a 74       		.byte	0x74
 1558 007b 04       		.sleb128 4
 1559 007c 00000000 		.long	0
 1560 0080 00000000 		.long	0
 1561              	LLST3:
 1562 0084 28010000 		.long	LFB9-Ltext0
GAS LISTING C:\cygwin\tmp\ccztN46C.s 			page 32


 1563 0088 2B010000 		.long	LCFI6-Ltext0
 1564 008c 0200     		.word	0x2
 1565 008e 74       		.byte	0x74
 1566 008f 04       		.sleb128 4
 1567 0090 2B010000 		.long	LCFI6-Ltext0
 1568 0094 4C010000 		.long	LCFI7-Ltext0
 1569 0098 0200     		.word	0x2
 1570 009a 74       		.byte	0x74
 1571 009b 08       		.sleb128 8
 1572 009c 4C010000 		.long	LCFI7-Ltext0
 1573 00a0 4D010000 		.long	LFE9-Ltext0
 1574 00a4 0200     		.word	0x2
 1575 00a6 74       		.byte	0x74
 1576 00a7 04       		.sleb128 4
 1577 00a8 00000000 		.long	0
 1578 00ac 00000000 		.long	0
 1579              	LLST4:
 1580 00b0 4D010000 		.long	LFB10-Ltext0
 1581 00b4 50010000 		.long	LCFI8-Ltext0
 1582 00b8 0200     		.word	0x2
 1583 00ba 74       		.byte	0x74
 1584 00bb 04       		.sleb128 4
 1585 00bc 50010000 		.long	LCFI8-Ltext0
 1586 00c0 DE010000 		.long	LCFI9-Ltext0
 1587 00c4 0200     		.word	0x2
 1588 00c6 74       		.byte	0x74
 1589 00c7 30       		.sleb128 48
 1590 00c8 DE010000 		.long	LCFI9-Ltext0
 1591 00cc DF010000 		.long	LFE10-Ltext0
 1592 00d0 0200     		.word	0x2
 1593 00d2 74       		.byte	0x74
 1594 00d3 04       		.sleb128 4
 1595 00d4 00000000 		.long	0
 1596 00d8 00000000 		.long	0
 1597              	LLST5:
 1598 00dc DF010000 		.long	LFB11-Ltext0
 1599 00e0 E2010000 		.long	LCFI10-Ltext0
 1600 00e4 0200     		.word	0x2
 1601 00e6 74       		.byte	0x74
 1602 00e7 04       		.sleb128 4
 1603 00e8 E2010000 		.long	LCFI10-Ltext0
 1604 00ec 2E020000 		.long	LCFI11-Ltext0
 1605 00f0 0200     		.word	0x2
 1606 00f2 74       		.byte	0x74
 1607 00f3 20       		.sleb128 32
 1608 00f4 2E020000 		.long	LCFI11-Ltext0
 1609 00f8 2F020000 		.long	LFE11-Ltext0
 1610 00fc 0200     		.word	0x2
 1611 00fe 74       		.byte	0x74
 1612 00ff 04       		.sleb128 4
 1613 0100 00000000 		.long	0
 1614 0104 00000000 		.long	0
 1615              	LLST6:
 1616 0108 2F020000 		.long	LFB12-Ltext0
 1617 010c 32020000 		.long	LCFI12-Ltext0
 1618 0110 0200     		.word	0x2
 1619 0112 74       		.byte	0x74
GAS LISTING C:\cygwin\tmp\ccztN46C.s 			page 33


 1620 0113 04       		.sleb128 4
 1621 0114 32020000 		.long	LCFI12-Ltext0
 1622 0118 C9020000 		.long	LCFI13-Ltext0
 1623 011c 0200     		.word	0x2
 1624 011e 74       		.byte	0x74
 1625 011f 30       		.sleb128 48
 1626 0120 C9020000 		.long	LCFI13-Ltext0
 1627 0124 CA020000 		.long	LFE12-Ltext0
 1628 0128 0200     		.word	0x2
 1629 012a 74       		.byte	0x74
 1630 012b 04       		.sleb128 4
 1631 012c 00000000 		.long	0
 1632 0130 00000000 		.long	0
 1633              	LLST7:
 1634 0134 CA020000 		.long	LFB13-Ltext0
 1635 0138 CD020000 		.long	LCFI14-Ltext0
 1636 013c 0200     		.word	0x2
 1637 013e 74       		.byte	0x74
 1638 013f 04       		.sleb128 4
 1639 0140 CD020000 		.long	LCFI14-Ltext0
 1640 0144 31030000 		.long	LCFI15-Ltext0
 1641 0148 0200     		.word	0x2
 1642 014a 74       		.byte	0x74
 1643 014b 20       		.sleb128 32
 1644 014c 31030000 		.long	LCFI15-Ltext0
 1645 0150 32030000 		.long	LFE13-Ltext0
 1646 0154 0200     		.word	0x2
 1647 0156 74       		.byte	0x74
 1648 0157 04       		.sleb128 4
 1649 0158 00000000 		.long	0
 1650 015c 00000000 		.long	0
 1651              	LLST8:
 1652 0160 32030000 		.long	LFB14-Ltext0
 1653 0164 35030000 		.long	LCFI16-Ltext0
 1654 0168 0200     		.word	0x2
 1655 016a 74       		.byte	0x74
 1656 016b 04       		.sleb128 4
 1657 016c 35030000 		.long	LCFI16-Ltext0
 1658 0170 5E030000 		.long	LCFI17-Ltext0
 1659 0174 0200     		.word	0x2
 1660 0176 74       		.byte	0x74
 1661 0177 08       		.sleb128 8
 1662 0178 5E030000 		.long	LCFI17-Ltext0
 1663 017c 5F030000 		.long	LFE14-Ltext0
 1664 0180 0200     		.word	0x2
 1665 0182 74       		.byte	0x74
 1666 0183 04       		.sleb128 4
 1667 0184 00000000 		.long	0
 1668 0188 00000000 		.long	0
 1669              	LLST9:
 1670 018c 5F030000 		.long	LFB15-Ltext0
 1671 0190 62030000 		.long	LCFI18-Ltext0
 1672 0194 0200     		.word	0x2
 1673 0196 74       		.byte	0x74
 1674 0197 04       		.sleb128 4
 1675 0198 62030000 		.long	LCFI18-Ltext0
 1676 019c 71030000 		.long	LCFI19-Ltext0
GAS LISTING C:\cygwin\tmp\ccztN46C.s 			page 34


 1677 01a0 0200     		.word	0x2
 1678 01a2 74       		.byte	0x74
 1679 01a3 20       		.sleb128 32
 1680 01a4 71030000 		.long	LCFI19-Ltext0
 1681 01a8 72030000 		.long	LFE15-Ltext0
 1682 01ac 0200     		.word	0x2
 1683 01ae 74       		.byte	0x74
 1684 01af 04       		.sleb128 4
 1685 01b0 00000000 		.long	0
 1686 01b4 00000000 		.long	0
 1687              		.section	.debug_aranges,"dr"
 1688 0000 1C000000 		.long	0x1c
 1689 0004 0200     		.word	0x2
 1690 0006 00000000 		.secrel32	Ldebug_info0
 1691 000a 04       		.byte	0x4
 1692 000b 00       		.byte	0
 1693 000c 0000     		.word	0
 1694 000e 0000     		.word	0
 1695 0010 00000000 		.long	Ltext0
 1696 0014 72030000 		.long	Letext0-Ltext0
 1697 0018 00000000 		.long	0
 1698 001c 00000000 		.long	0
 1699              		.section	.debug_line,"dr"
 1700              	Ldebug_line0:
 1701              		.def	_fwrite;	.scl	2;	.type	32;	.endef
 1702              		.def	_fflush;	.scl	2;	.type	32;	.endef
 1703              		.def	_fread;	.scl	2;	.type	32;	.endef
 1704              		.def	_fputc;	.scl	2;	.type	32;	.endef
 1705              		.def	_fgetc;	.scl	2;	.type	32;	.endef
 1706              		.def	___gcov_merge_add;	.scl	2;	.type	32;	.endef
 1707 0000 7F010000 		.def	___gcov_init;	.scl	2;	.type	32;	.endef
 1707      02002201 
 1707      00000101 
 1707      FB0E0D00 
 1707      01010101 
GAS LISTING C:\cygwin\tmp\ccztN46C.s 			page 35


DEFINED SYMBOLS
                            *ABS*:00000000 console.c
                            *COM*:00000004 _CD1
C:\cygwin\tmp\ccztN46C.s:45     .text:00000000 _writes
C:\cygwin\tmp\ccztN46C.s:98     .text:0000009b _reads
C:\cygwin\tmp\ccztN46C.s:137    .text:00000103 _putwouldblock
C:\cygwin\tmp\ccztN46C.s:161    .text:00000128 _getwouldblock
C:\cygwin\tmp\ccztN46C.s:185    .text:0000014d _putt
C:\cygwin\tmp\ccztN46C.s:235    .text:000001df _gett
C:\cygwin\tmp\ccztN46C.s:269    .text:0000022f _writet
C:\cygwin\tmp\ccztN46C.s:321    .text:000002ca _readt
C:\cygwin\tmp\ccztN46C.s:361    .rdata:00000000 _vmt
C:\cygwin\tmp\ccztN46C.s:381    .text:00000332 _conInit
C:\cygwin\tmp\ccztN46C.s:492    .text:0000035f __GLOBAL__sub_I_65535_0_conInit

UNDEFINED SYMBOLS
__imp___iob
_fwrite
_fflush
_fread
_fputc
_fgetc
___gcov_merge_add
___gcov_init
