GAS LISTING C:\cygwin\tmp\ccztN46C.s 			page 1


   1              		.file	"console.c"
   2              	 # GNU C (GCC) version 4.6.2 (mingw32)
   3              	 #	compiled by GNU C version 4.6.2, GMP version 5.0.1, MPFR version 2.4.1, MPC version 0.8.1
   4              	 # GGC heuristics: --param ggc-min-expand=100 --param ggc-min-heapsize=131072
   5              	 # options passed:  -I . -I ../../os/ports/GCC/SIMIA32
   6              	 # -I ../../os/kernel/include -I ../../test -I ../../os/hal/include
   7              	 # -I ../../os/hal/platforms/Win32 -I ../../boards/simulator
   8              	 # -I ../../os/various -iprefix c:\mingw\bin\../lib/gcc/mingw32/4.6.2/
   9              	 # -MD ../../os/hal/platforms/Win32/console.d -MF .dep/console.o.d -MP
  10              	 # -MQ ../../os/hal/platforms/Win32/console.o -D SIMULATOR
  11              	 # ../../os/hal/platforms/Win32/console.c -mtune=i386 -march=i386
  12              	 # -auxbase-strip ../../os/hal/platforms/Win32/console.o -ggdb -O0 -Wall
  13              	 # -Wextra -Wstrict-prototypes -fomit-frame-pointer -fprofile-arcs
  14              	 # -ftest-coverage -fverbose-asm
  15              	 # options enabled:  -fasynchronous-unwind-tables -fauto-inc-dec
  16              	 # -fbranch-count-reg -fcommon -fdelete-null-pointer-checks
  17              	 # -fdwarf2-cfi-asm -fearly-inlining -feliminate-unused-debug-types
  18              	 # -ffunction-cse -fgcse-lm -fident -finline-functions-called-once
  19              	 # -fira-share-save-slots -fira-share-spill-slots -fivopts
  20              	 # -fkeep-inline-dllexport -fkeep-static-consts -fleading-underscore
  21              	 # -fmath-errno -fmerge-debug-strings -fmove-loop-invariants
  22              	 # -fomit-frame-pointer -fpeephole -fprefetch-loop-arrays -fprofile-arcs
  23              	 # -freg-struct-return -fsched-critical-path-heuristic
  24              	 # -fsched-dep-count-heuristic -fsched-group-heuristic -fsched-interblock
  25              	 # -fsched-last-insn-heuristic -fsched-rank-heuristic -fsched-spec
  26              	 # -fsched-spec-insn-heuristic -fsched-stalled-insns-dep
  27              	 # -fset-stack-executable -fshow-column -fsigned-zeros
  28              	 # -fsplit-ivs-in-unroller -fstrict-volatile-bitfields -ftest-coverage
  29              	 # -ftrapping-math -ftree-cselim -ftree-forwprop -ftree-loop-if-convert
  30              	 # -ftree-loop-im -ftree-loop-ivcanon -ftree-loop-optimize
  31              	 # -ftree-parallelize-loops= -ftree-phiprop -ftree-pta -ftree-reassoc
  32              	 # -ftree-scev-cprop -ftree-slp-vectorize -ftree-vect-loop-version
  33              	 # -funit-at-a-time -funwind-tables -fvect-cost-model -fverbose-asm
  34              	 # -fzero-initialized-in-bss -m32 -m80387 -m96bit-long-double
  35              	 # -maccumulate-outgoing-args -malign-double -malign-stringops
  36              	 # -mfancy-math-387 -mfp-ret-in-387 -mieee-fp -mno-red-zone -mno-sse4
  37              	 # -mpush-args -msahf -mstack-arg-probe
  38              	
  39              		.text
  40              	Ltext0:
  41              	 # Compiler executable checksum: c20aed7c018482d7b62efcd5dcab2a9d
  42              	
  43              		.comm	_CD1, 4, 2
  44              		.def	_writes;	.scl	3;	.type	32;	.endef
  45              	_writes:
  46              	LFB6:
  47              		.file 1 "../../os/hal/platforms/Win32/console.c"
  48              		.loc 1 50 0
  49              		.cfi_startproc
  50 0000 83EC2C   		subl	$44, %esp	 #,
  51              	LCFI0:
  52              		.cfi_def_cfa_offset 48
  53              		.loc 1 50 0
  54 0003 A1780000 		movl	LPBX1+120, %eax	 # *LPBX1, PROF_edge_counter.8
  54      00
  55 0008 8B157C00 		movl	LPBX1+124, %edx	 # *LPBX1, PROF_edge_counter.8
  55      0000
GAS LISTING C:\cygwin\tmp\ccztN46C.s 			page 2


  56 000e 83C001   		addl	$1, %eax	 #, PROF_edge_counter.8
  57 0011 83D200   		adcl	$0, %edx	 #, PROF_edge_counter.8
  58 0014 A3780000 		movl	%eax, LPBX1+120	 # PROF_edge_counter.8, *LPBX1
  58      00
  59 0019 89157C00 		movl	%edx, LPBX1+124	 # PROF_edge_counter.8, *LPBX1
  59      0000
  60              		.loc 1 54 0
  61 001f A1000000 		movl	__imp___iob, %eax	 #, tmp67
  61      00
  62 0024 83C020   		addl	$32, %eax	 #, tmp68
  63 0027 8944240C 		movl	%eax, 12(%esp)	 # tmp68,
  64 002b 8B442438 		movl	56(%esp), %eax	 # n, tmp69
  65 002f 89442408 		movl	%eax, 8(%esp)	 # tmp69,
  66 0033 C7442404 		movl	$1, 4(%esp)	 #,
  66      01000000 
  67 003b 8B442434 		movl	52(%esp), %eax	 # bp, tmp70
  68 003f 890424   		movl	%eax, (%esp)	 # tmp70,
  69 0042 E8000000 		call	_fwrite	 #
  69      00
  70 0047 8944241C 		movl	%eax, 28(%esp)	 # tmp71, ret
  71 004b A1800000 		movl	LPBX1+128, %eax	 # *LPBX1, PROF_edge_counter.8
  71      00
  72 0050 8B158400 		movl	LPBX1+132, %edx	 # *LPBX1, PROF_edge_counter.8
  72      0000
  73 0056 83C001   		addl	$1, %eax	 #, PROF_edge_counter.8
  74 0059 83D200   		adcl	$0, %edx	 #, PROF_edge_counter.8
  75 005c A3800000 		movl	%eax, LPBX1+128	 # PROF_edge_counter.8, *LPBX1
  75      00
  76 0061 89158400 		movl	%edx, LPBX1+132	 # PROF_edge_counter.8, *LPBX1
  76      0000
  77              		.loc 1 55 0
  78 0067 A1000000 		movl	__imp___iob, %eax	 #, tmp72
  78      00
  79 006c 83C020   		addl	$32, %eax	 #, tmp73
  80 006f 890424   		movl	%eax, (%esp)	 # tmp73,
  81 0072 E8000000 		call	_fflush	 #
  81      00
  82 0077 A1880000 		movl	LPBX1+136, %eax	 # *LPBX1, PROF_edge_counter.8
  82      00
  83 007c 8B158C00 		movl	LPBX1+140, %edx	 # *LPBX1, PROF_edge_counter.8
  83      0000
  84 0082 83C001   		addl	$1, %eax	 #, PROF_edge_counter.8
  85 0085 83D200   		adcl	$0, %edx	 #, PROF_edge_counter.8
  86 0088 A3880000 		movl	%eax, LPBX1+136	 # PROF_edge_counter.8, *LPBX1
  86      00
  87 008d 89158C00 		movl	%edx, LPBX1+140	 # PROF_edge_counter.8, *LPBX1
  87      0000
  88              		.loc 1 56 0
  89 0093 8B44241C 		movl	28(%esp), %eax	 # ret, D.3425
  90              		.loc 1 57 0
  91 0097 83C42C   		addl	$44, %esp	 #,
  92              	LCFI1:
  93              		.cfi_def_cfa_offset 4
  94 009a C3       		ret
  95              		.cfi_endproc
  96              	LFE6:
  97              		.def	_reads;	.scl	3;	.type	32;	.endef
GAS LISTING C:\cygwin\tmp\ccztN46C.s 			page 3


  98              	_reads:
  99              	LFB7:
 100              		.loc 1 59 0
 101              		.cfi_startproc
 102 009b 83EC1C   		subl	$28, %esp	 #,
 103              	LCFI2:
 104              		.cfi_def_cfa_offset 32
 105              		.loc 1 59 0
 106 009e A1680000 		movl	LPBX1+104, %eax	 # *LPBX1, PROF_edge_counter.7
 106      00
 107 00a3 8B156C00 		movl	LPBX1+108, %edx	 # *LPBX1, PROF_edge_counter.7
 107      0000
 108 00a9 83C001   		addl	$1, %eax	 #, PROF_edge_counter.7
 109 00ac 83D200   		adcl	$0, %edx	 #, PROF_edge_counter.7
 110 00af A3680000 		movl	%eax, LPBX1+104	 # PROF_edge_counter.7, *LPBX1
 110      00
 111 00b4 89156C00 		movl	%edx, LPBX1+108	 # PROF_edge_counter.7, *LPBX1
 111      0000
 112              		.loc 1 62 0
 113 00ba A1000000 		movl	__imp___iob, %eax	 #, tmp65
 113      00
 114 00bf 8944240C 		movl	%eax, 12(%esp)	 # tmp65,
 115 00c3 8B442428 		movl	40(%esp), %eax	 # n, tmp66
 116 00c7 89442408 		movl	%eax, 8(%esp)	 # tmp66,
 117 00cb C7442404 		movl	$1, 4(%esp)	 #,
 117      01000000 
 118 00d3 8B442424 		movl	36(%esp), %eax	 # bp, tmp67
 119 00d7 890424   		movl	%eax, (%esp)	 # tmp67,
 120 00da E8000000 		call	_fread	 #
 120      00
 121 00df 89C1     		movl	%eax, %ecx	 #, D.3423
 122 00e1 A1700000 		movl	LPBX1+112, %eax	 # *LPBX1, PROF_edge_counter.7
 122      00
 123 00e6 8B157400 		movl	LPBX1+116, %edx	 # *LPBX1, PROF_edge_counter.7
 123      0000
 124 00ec 83C001   		addl	$1, %eax	 #, PROF_edge_counter.7
 125 00ef 83D200   		adcl	$0, %edx	 #, PROF_edge_counter.7
 126 00f2 A3700000 		movl	%eax, LPBX1+112	 # PROF_edge_counter.7, *LPBX1
 126      00
 127 00f7 89157400 		movl	%edx, LPBX1+116	 # PROF_edge_counter.7, *LPBX1
 127      0000
 128 00fd 89C8     		movl	%ecx, %eax	 # D.3423, <retval>
 129              		.loc 1 63 0
 130 00ff 83C41C   		addl	$28, %esp	 #,
 131              	LCFI3:
 132              		.cfi_def_cfa_offset 4
 133 0102 C3       		ret
 134              		.cfi_endproc
 135              	LFE7:
 136              		.def	_putwouldblock;	.scl	3;	.type	32;	.endef
 137              	_putwouldblock:
 138              	LFB8:
 139              		.loc 1 65 0
 140              		.cfi_startproc
 141 0103 83EC04   		subl	$4, %esp	 #,
 142              	LCFI4:
 143              		.cfi_def_cfa_offset 8
GAS LISTING C:\cygwin\tmp\ccztN46C.s 			page 4


 144              		.loc 1 65 0
 145 0106 A1600000 		movl	LPBX1+96, %eax	 # *LPBX1, PROF_edge_counter.6
 145      00
 146 010b 8B156400 		movl	LPBX1+100, %edx	 # *LPBX1, PROF_edge_counter.6
 146      0000
 147 0111 83C001   		addl	$1, %eax	 #, PROF_edge_counter.6
 148 0114 83D200   		adcl	$0, %edx	 #, PROF_edge_counter.6
 149 0117 A3600000 		movl	%eax, LPBX1+96	 # PROF_edge_counter.6, *LPBX1
 149      00
 150 011c 89156400 		movl	%edx, LPBX1+100	 # PROF_edge_counter.6, *LPBX1
 150      0000
 151              		.loc 1 68 0
 152 0122 B000     		movb	$0, %al	 #, D.3421
 153              		.loc 1 69 0
 154 0124 83C404   		addl	$4, %esp	 #,
 155              	LCFI5:
 156              		.cfi_def_cfa_offset 4
 157 0127 C3       		ret
 158              		.cfi_endproc
 159              	LFE8:
 160              		.def	_getwouldblock;	.scl	3;	.type	32;	.endef
 161              	_getwouldblock:
 162              	LFB9:
 163              		.loc 1 71 0
 164              		.cfi_startproc
 165 0128 83EC04   		subl	$4, %esp	 #,
 166              	LCFI6:
 167              		.cfi_def_cfa_offset 8
 168              		.loc 1 71 0
 169 012b A1580000 		movl	LPBX1+88, %eax	 # *LPBX1, PROF_edge_counter.5
 169      00
 170 0130 8B155C00 		movl	LPBX1+92, %edx	 # *LPBX1, PROF_edge_counter.5
 170      0000
 171 0136 83C001   		addl	$1, %eax	 #, PROF_edge_counter.5
 172 0139 83D200   		adcl	$0, %edx	 #, PROF_edge_counter.5
 173 013c A3580000 		movl	%eax, LPBX1+88	 # PROF_edge_counter.5, *LPBX1
 173      00
 174 0141 89155C00 		movl	%edx, LPBX1+92	 # PROF_edge_counter.5, *LPBX1
 174      0000
 175              		.loc 1 74 0
 176 0147 B001     		movb	$1, %al	 #, D.3419
 177              		.loc 1 75 0
 178 0149 83C404   		addl	$4, %esp	 #,
 179              	LCFI7:
 180              		.cfi_def_cfa_offset 4
 181 014c C3       		ret
 182              		.cfi_endproc
 183              	LFE9:
 184              		.def	_putt;	.scl	3;	.type	32;	.endef
 185              	_putt:
 186              	LFB10:
 187              		.loc 1 77 0
 188              		.cfi_startproc
 189 014d 83EC2C   		subl	$44, %esp	 #,
 190              	LCFI8:
 191              		.cfi_def_cfa_offset 48
 192 0150 8B442434 		movl	52(%esp), %eax	 # b, tmp68
GAS LISTING C:\cygwin\tmp\ccztN46C.s 			page 5


 193 0154 8844241C 		movb	%al, 28(%esp)	 # tmp68, b
 194              		.loc 1 77 0
 195 0158 A1400000 		movl	LPBX1+64, %eax	 # *LPBX1, PROF_edge_counter.4
 195      00
 196 015d 8B154400 		movl	LPBX1+68, %edx	 # *LPBX1, PROF_edge_counter.4
 196      0000
 197 0163 83C001   		addl	$1, %eax	 #, PROF_edge_counter.4
 198 0166 83D200   		adcl	$0, %edx	 #, PROF_edge_counter.4
 199 0169 A3400000 		movl	%eax, LPBX1+64	 # PROF_edge_counter.4, *LPBX1
 199      00
 200 016e 89154400 		movl	%edx, LPBX1+68	 # PROF_edge_counter.4, *LPBX1
 200      0000
 201              		.loc 1 81 0
 202 0174 0FB64424 		movzbl	28(%esp), %eax	 # b, D.3416
 202      1C
 203 0179 8B150000 		movl	__imp___iob, %edx	 #, tmp69
 203      0000
 204 017f 83C220   		addl	$32, %edx	 #, tmp70
 205 0182 89542404 		movl	%edx, 4(%esp)	 # tmp70,
 206 0186 890424   		movl	%eax, (%esp)	 # D.3416,
 207 0189 E8000000 		call	_fputc	 #
 207      00
 208 018e A1480000 		movl	LPBX1+72, %eax	 # *LPBX1, PROF_edge_counter.4
 208      00
 209 0193 8B154C00 		movl	LPBX1+76, %edx	 # *LPBX1, PROF_edge_counter.4
 209      0000
 210 0199 83C001   		addl	$1, %eax	 #, PROF_edge_counter.4
 211 019c 83D200   		adcl	$0, %edx	 #, PROF_edge_counter.4
 212 019f A3480000 		movl	%eax, LPBX1+72	 # PROF_edge_counter.4, *LPBX1
 212      00
 213 01a4 89154C00 		movl	%edx, LPBX1+76	 # PROF_edge_counter.4, *LPBX1
 213      0000
 214              		.loc 1 82 0
 215 01aa A1000000 		movl	__imp___iob, %eax	 #, tmp71
 215      00
 216 01af 83C020   		addl	$32, %eax	 #, tmp72
 217 01b2 890424   		movl	%eax, (%esp)	 # tmp72,
 218 01b5 E8000000 		call	_fflush	 #
 218      00
 219 01ba A1500000 		movl	LPBX1+80, %eax	 # *LPBX1, PROF_edge_counter.4
 219      00
 220 01bf 8B155400 		movl	LPBX1+84, %edx	 # *LPBX1, PROF_edge_counter.4
 220      0000
 221 01c5 83C001   		addl	$1, %eax	 #, PROF_edge_counter.4
 222 01c8 83D200   		adcl	$0, %edx	 #, PROF_edge_counter.4
 223 01cb A3500000 		movl	%eax, LPBX1+80	 # PROF_edge_counter.4, *LPBX1
 223      00
 224 01d0 89155400 		movl	%edx, LPBX1+84	 # PROF_edge_counter.4, *LPBX1
 224      0000
 225              		.loc 1 83 0
 226 01d6 B8000000 		movl	$0, %eax	 #, D.3417
 226      00
 227              		.loc 1 84 0
 228 01db 83C42C   		addl	$44, %esp	 #,
 229              	LCFI9:
 230              		.cfi_def_cfa_offset 4
 231 01de C3       		ret
GAS LISTING C:\cygwin\tmp\ccztN46C.s 			page 6


 232              		.cfi_endproc
 233              	LFE10:
 234              		.def	_gett;	.scl	3;	.type	32;	.endef
 235              	_gett:
 236              	LFB11:
 237              		.loc 1 86 0
 238              		.cfi_startproc
 239 01df 83EC1C   		subl	$28, %esp	 #,
 240              	LCFI10:
 241              		.cfi_def_cfa_offset 32
 242              		.loc 1 86 0
 243 01e2 A1300000 		movl	LPBX1+48, %eax	 # *LPBX1, PROF_edge_counter.3
 243      00
 244 01e7 8B153400 		movl	LPBX1+52, %edx	 # *LPBX1, PROF_edge_counter.3
 244      0000
 245 01ed 83C001   		addl	$1, %eax	 #, PROF_edge_counter.3
 246 01f0 83D200   		adcl	$0, %edx	 #, PROF_edge_counter.3
 247 01f3 A3300000 		movl	%eax, LPBX1+48	 # PROF_edge_counter.3, *LPBX1
 247      00
 248 01f8 89153400 		movl	%edx, LPBX1+52	 # PROF_edge_counter.3, *LPBX1
 248      0000
 249              		.loc 1 90 0
 250 01fe A1000000 		movl	__imp___iob, %eax	 #, tmp65
 250      00
 251 0203 890424   		movl	%eax, (%esp)	 # tmp65,
 252 0206 E8000000 		call	_fgetc	 #
 252      00
 253 020b 89C1     		movl	%eax, %ecx	 #, D.3414
 254 020d A1380000 		movl	LPBX1+56, %eax	 # *LPBX1, PROF_edge_counter.3
 254      00
 255 0212 8B153C00 		movl	LPBX1+60, %edx	 # *LPBX1, PROF_edge_counter.3
 255      0000
 256 0218 83C001   		addl	$1, %eax	 #, PROF_edge_counter.3
 257 021b 83D200   		adcl	$0, %edx	 #, PROF_edge_counter.3
 258 021e A3380000 		movl	%eax, LPBX1+56	 # PROF_edge_counter.3, *LPBX1
 258      00
 259 0223 89153C00 		movl	%edx, LPBX1+60	 # PROF_edge_counter.3, *LPBX1
 259      0000
 260 0229 89C8     		movl	%ecx, %eax	 # D.3414, <retval>
 261              		.loc 1 91 0
 262 022b 83C41C   		addl	$28, %esp	 #,
 263              	LCFI11:
 264              		.cfi_def_cfa_offset 4
 265 022e C3       		ret
 266              		.cfi_endproc
 267              	LFE11:
 268              		.def	_writet;	.scl	3;	.type	32;	.endef
 269              	_writet:
 270              	LFB12:
 271              		.loc 1 93 0
 272              		.cfi_startproc
 273 022f 83EC2C   		subl	$44, %esp	 #,
 274              	LCFI12:
 275              		.cfi_def_cfa_offset 48
 276              		.loc 1 93 0
 277 0232 A1180000 		movl	LPBX1+24, %eax	 # *LPBX1, PROF_edge_counter.2
 277      00
GAS LISTING C:\cygwin\tmp\ccztN46C.s 			page 7


 278 0237 8B151C00 		movl	LPBX1+28, %edx	 # *LPBX1, PROF_edge_counter.2
 278      0000
 279 023d 83C001   		addl	$1, %eax	 #, PROF_edge_counter.2
 280 0240 83D200   		adcl	$0, %edx	 #, PROF_edge_counter.2
 281 0243 A3180000 		movl	%eax, LPBX1+24	 # PROF_edge_counter.2, *LPBX1
 281      00
 282 0248 89151C00 		movl	%edx, LPBX1+28	 # PROF_edge_counter.2, *LPBX1
 282      0000
 283              		.loc 1 98 0
 284 024e A1000000 		movl	__imp___iob, %eax	 #, tmp67
 284      00
 285 0253 83C020   		addl	$32, %eax	 #, tmp68
 286 0256 8944240C 		movl	%eax, 12(%esp)	 # tmp68,
 287 025a 8B442438 		movl	56(%esp), %eax	 # n, tmp69
 288 025e 89442408 		movl	%eax, 8(%esp)	 # tmp69,
 289 0262 C7442404 		movl	$1, 4(%esp)	 #,
 289      01000000 
 290 026a 8B442434 		movl	52(%esp), %eax	 # bp, tmp70
 291 026e 890424   		movl	%eax, (%esp)	 # tmp70,
 292 0271 E8000000 		call	_fwrite	 #
 292      00
 293 0276 8944241C 		movl	%eax, 28(%esp)	 # tmp71, ret
 294 027a A1200000 		movl	LPBX1+32, %eax	 # *LPBX1, PROF_edge_counter.2
 294      00
 295 027f 8B152400 		movl	LPBX1+36, %edx	 # *LPBX1, PROF_edge_counter.2
 295      0000
 296 0285 83C001   		addl	$1, %eax	 #, PROF_edge_counter.2
 297 0288 83D200   		adcl	$0, %edx	 #, PROF_edge_counter.2
 298 028b A3200000 		movl	%eax, LPBX1+32	 # PROF_edge_counter.2, *LPBX1
 298      00
 299 0290 89152400 		movl	%edx, LPBX1+36	 # PROF_edge_counter.2, *LPBX1
 299      0000
 300              		.loc 1 99 0
 301 0296 A1000000 		movl	__imp___iob, %eax	 #, tmp72
 301      00
 302 029b 83C020   		addl	$32, %eax	 #, tmp73
 303 029e 890424   		movl	%eax, (%esp)	 # tmp73,
 304 02a1 E8000000 		call	_fflush	 #
 304      00
 305 02a6 A1280000 		movl	LPBX1+40, %eax	 # *LPBX1, PROF_edge_counter.2
 305      00
 306 02ab 8B152C00 		movl	LPBX1+44, %edx	 # *LPBX1, PROF_edge_counter.2
 306      0000
 307 02b1 83C001   		addl	$1, %eax	 #, PROF_edge_counter.2
 308 02b4 83D200   		adcl	$0, %edx	 #, PROF_edge_counter.2
 309 02b7 A3280000 		movl	%eax, LPBX1+40	 # PROF_edge_counter.2, *LPBX1
 309      00
 310 02bc 89152C00 		movl	%edx, LPBX1+44	 # PROF_edge_counter.2, *LPBX1
 310      0000
 311              		.loc 1 100 0
 312 02c2 8B44241C 		movl	28(%esp), %eax	 # ret, D.3412
 313              		.loc 1 101 0
 314 02c6 83C42C   		addl	$44, %esp	 #,
 315              	LCFI13:
 316              		.cfi_def_cfa_offset 4
 317 02c9 C3       		ret
 318              		.cfi_endproc
GAS LISTING C:\cygwin\tmp\ccztN46C.s 			page 8


 319              	LFE12:
 320              		.def	_readt;	.scl	3;	.type	32;	.endef
 321              	_readt:
 322              	LFB13:
 323              		.loc 1 103 0
 324              		.cfi_startproc
 325 02ca 83EC1C   		subl	$28, %esp	 #,
 326              	LCFI14:
 327              		.cfi_def_cfa_offset 32
 328              		.loc 1 103 0
 329 02cd A1080000 		movl	LPBX1+8, %eax	 # *LPBX1, PROF_edge_counter.1
 329      00
 330 02d2 8B150C00 		movl	LPBX1+12, %edx	 # *LPBX1, PROF_edge_counter.1
 330      0000
 331 02d8 83C001   		addl	$1, %eax	 #, PROF_edge_counter.1
 332 02db 83D200   		adcl	$0, %edx	 #, PROF_edge_counter.1
 333 02de A3080000 		movl	%eax, LPBX1+8	 # PROF_edge_counter.1, *LPBX1
 333      00
 334 02e3 89150C00 		movl	%edx, LPBX1+12	 # PROF_edge_counter.1, *LPBX1
 334      0000
 335              		.loc 1 107 0
 336 02e9 A1000000 		movl	__imp___iob, %eax	 #, tmp65
 336      00
 337 02ee 8944240C 		movl	%eax, 12(%esp)	 # tmp65,
 338 02f2 8B442428 		movl	40(%esp), %eax	 # n, tmp66
 339 02f6 89442408 		movl	%eax, 8(%esp)	 # tmp66,
 340 02fa C7442404 		movl	$1, 4(%esp)	 #,
 340      01000000 
 341 0302 8B442424 		movl	36(%esp), %eax	 # bp, tmp67
 342 0306 890424   		movl	%eax, (%esp)	 # tmp67,
 343 0309 E8000000 		call	_fread	 #
 343      00
 344 030e 89C1     		movl	%eax, %ecx	 #, D.3410
 345 0310 A1100000 		movl	LPBX1+16, %eax	 # *LPBX1, PROF_edge_counter.1
 345      00
 346 0315 8B151400 		movl	LPBX1+20, %edx	 # *LPBX1, PROF_edge_counter.1
 346      0000
 347 031b 83C001   		addl	$1, %eax	 #, PROF_edge_counter.1
 348 031e 83D200   		adcl	$0, %edx	 #, PROF_edge_counter.1
 349 0321 A3100000 		movl	%eax, LPBX1+16	 # PROF_edge_counter.1, *LPBX1
 349      00
 350 0326 89151400 		movl	%edx, LPBX1+20	 # PROF_edge_counter.1, *LPBX1
 350      0000
 351 032c 89C8     		movl	%ecx, %eax	 # D.3410, <retval>
 352              		.loc 1 108 0
 353 032e 83C41C   		addl	$28, %esp	 #,
 354              	LCFI15:
 355              		.cfi_def_cfa_offset 4
 356 0331 C3       		ret
 357              		.cfi_endproc
 358              	LFE13:
 359              		.section .rdata,"dr"
 360              		.align 32
 361              	_vmt:
 362              	 # write:
 363 0000 00000000 		.long	_writes
 364              	 # read:
GAS LISTING C:\cygwin\tmp\ccztN46C.s 			page 9


 365 0004 9B000000 		.long	_reads
 366              	 # put:
 367 0008 03010000 		.long	_putwouldblock
 368              	 # get:
 369 000c 28010000 		.long	_getwouldblock
 370              	 # putt:
 371 0010 4D010000 		.long	_putt
 372              	 # gett:
 373 0014 DF010000 		.long	_gett
 374              	 # writet:
 375 0018 2F020000 		.long	_writet
 376              	 # readt:
 377 001c CA020000 		.long	_readt
 378              		.text
 379              		.globl	_conInit
 380              		.def	_conInit;	.scl	2;	.type	32;	.endef
 381              	_conInit:
 382              	LFB14:
 383              		.loc 1 122 0
 384              		.cfi_startproc
 385 0332 83EC04   		subl	$4, %esp	 #,
 386              	LCFI16:
 387              		.cfi_def_cfa_offset 8
 388              		.loc 1 122 0
 389 0335 A1000000 		movl	LPBX1, %eax	 # *LPBX1, PROF_edge_counter.0
 389      00
 390 033a 8B150400 		movl	LPBX1+4, %edx	 # *LPBX1, PROF_edge_counter.0
 390      0000
 391 0340 83C001   		addl	$1, %eax	 #, PROF_edge_counter.0
 392 0343 83D200   		adcl	$0, %edx	 #, PROF_edge_counter.0
 393 0346 A3000000 		movl	%eax, LPBX1	 # PROF_edge_counter.0, *LPBX1
 393      00
 394 034b 89150400 		movl	%edx, LPBX1+4	 # PROF_edge_counter.0, *LPBX1
 394      0000
 395              		.loc 1 124 0
 396 0351 C7050000 		movl	$_vmt, _CD1	 #, CD1.vmt
 396      00000000 
 396      0000
 397              		.loc 1 126 0
 398 035b 83C404   		addl	$4, %esp	 #,
 399              	LCFI17:
 400              		.cfi_def_cfa_offset 4
 401 035e C3       		ret
 402              		.cfi_endproc
 403              	LFE14:
 404              	.lcomm LPBX1,144,32
 405              		.section .rdata,"dr"
 406              		.align 4
 407              	LC0:
 408 0020 433A5C64 		.ascii "C:\\develop\\gyro\\ChibiOS\\test\\coverage/../../os/hal/platforms/Win32/console.gcda\0"
 408      6576656C 
 408      6F705C67 
 408      79726F5C 
 408      43686962 
 409 0070 00000000 		.data
 409      00000000 
 409      00000000 
GAS LISTING C:\cygwin\tmp\ccztN46C.s 			page 10


 409      00000000 
 410              		.align 32
 411              	LC1:
 412              	 # <anonymous>:
 413 0000 0F000000 		.long	15
 414              	 # <anonymous>:
 415 0004 A320F9C5 		.long	-973528925
 416              	 # <anonymous>:
 417 0008 01000000 		.long	1
 418              	 # <anonymous>:
 419 000c 0E000000 		.long	14
 420              	 # <anonymous>:
 421 0010 F70D2988 		.long	-2010575369
 422              	 # <anonymous>:
 423 0014 02000000 		.long	2
 424              	 # <anonymous>:
 425 0018 0D000000 		.long	13
 426              	 # <anonymous>:
 427 001c D6D27BA0 		.long	-1602497834
 428              	 # <anonymous>:
 429 0020 03000000 		.long	3
 430              	 # <anonymous>:
 431 0024 0C000000 		.long	12
 432              	 # <anonymous>:
 433 0028 E6963E40 		.long	1077843686
 434              	 # <anonymous>:
 435 002c 02000000 		.long	2
 436              	 # <anonymous>:
 437 0030 0B000000 		.long	11
 438              	 # <anonymous>:
 439 0034 E3FA0AA3 		.long	-1559561501
 440              	 # <anonymous>:
 441 0038 03000000 		.long	3
 442              	 # <anonymous>:
 443 003c 0A000000 		.long	10
 444              	 # <anonymous>:
 445 0040 E7C87687 		.long	-2022258457
 446              	 # <anonymous>:
 447 0044 01000000 		.long	1
 448              	 # <anonymous>:
 449 0048 09000000 		.long	9
 450              	 # <anonymous>:
 451 004c A63076FD 		.long	-42585946
 452              	 # <anonymous>:
 453 0050 01000000 		.long	1
 454              	 # <anonymous>:
 455 0054 08000000 		.long	8
 456              	 # <anonymous>:
 457 0058 28B0E7A6 		.long	-1494765528
 458              	 # <anonymous>:
 459 005c 02000000 		.long	2
 460              	 # <anonymous>:
 461 0060 07000000 		.long	7
 462              	 # <anonymous>:
 463 0064 3338ADA3 		.long	-1548928973
 464              	 # <anonymous>:
 465 0068 03000000 		.long	3
GAS LISTING C:\cygwin\tmp\ccztN46C.s 			page 11


 466 006c 00000000 		.align 32
 466      00000000 
 466      00000000 
 466      00000000 
 466      00000000 
 467              	LPBX0:
 468              	 # <anonymous>:
 469 0080 2A363034 		.long	875574826
 470              	 # <anonymous>:
 471 0084 00000000 		.long	0
 472              	 # <anonymous>:
 473 0088 A7C5FA66 		.long	1727710631
 474              	 # <anonymous>:
 475 008c 20000000 		.long	LC0
 476              	 # <anonymous>:
 477 0090 09000000 		.long	9
 478              	 # <anonymous>:
 479 0094 00000000 		.long	LC1
 480              	 # <anonymous>:
 481 0098 01000000 		.long	1
 482              	 # <anonymous>:
 483              	 # <anonymous>:
 484 009c 12000000 		.long	18
 485              	 # <anonymous>:
 486 00a0 00000000 		.long	LPBX1
 487              	 # <anonymous>:
 488 00a4 00000000 		.long	___gcov_merge_add
 489 00a8 00000000 		.space 12
 489      00000000 
 489      00000000 
 490 00b4 00000000 		.text
 490      00000000 
 490      00000000 
 491              		.def	__GLOBAL__sub_I_65535_0_conInit;	.scl	3;	.type	32;	.endef
 492              	__GLOBAL__sub_I_65535_0_conInit:
 493              	LFB15:
 494              		.loc 1 126 0
 495              		.cfi_startproc
 496 035f 83EC1C   		subl	$28, %esp	 #,
 497              	LCFI18:
 498              		.cfi_def_cfa_offset 32
 499              		.loc 1 126 0
 500 0362 C7042480 		movl	$LPBX0, (%esp)	 #,
 500      000000
 501 0369 E8000000 		call	___gcov_init	 #
 501      00
 502 036e 83C41C   		addl	$28, %esp	 #,
 503              	LCFI19:
 504              		.cfi_def_cfa_offset 4
 505 0371 C3       		ret
 506              		.cfi_endproc
 507              	LFE15:
 508              		.section	.ctors,"w"
 509              		.align 4
 510 0000 5F030000 		.long	__GLOBAL__sub_I_65535_0_conInit
 511              		.text
 512              	Letext0:
GAS LISTING C:\cygwin\tmp\ccztN46C.s 			page 12


 513              		.file 2 "c:/mingw/bin/../lib/gcc/mingw32/4.6.2/../../../../include/stdio.h"
 514              		.file 3 "c:/mingw/bin/../lib/gcc/mingw32/4.6.2/include/stddef.h"
 515              		.file 4 "c:/mingw/bin/../lib/gcc/mingw32/4.6.2/../../../../include/stdint.h"
 516              		.file 5 "../../os/ports/GCC/SIMIA32/chtypes.h"
 517              		.file 6 "../../os/hal/include/io_channel.h"
 518              		.file 7 "../../os/hal/platforms/Win32/console.h"