GAS LISTING C:\cygwin\tmp\ccnuomUQ.s 			page 1


   1              		.file	"hal_lld.c"
   2              	 # GNU C (GCC) version 4.6.2 (mingw32)
   3              	 #	compiled by GNU C version 4.6.2, GMP version 5.0.1, MPFR version 2.4.1, MPC version 0.8.1
   4              	 # GGC heuristics: --param ggc-min-expand=100 --param ggc-min-heapsize=131072
   5              	 # options passed:  -I . -I ../../os/ports/GCC/SIMIA32
   6              	 # -I ../../os/kernel/include -I ../../test -I ../../os/hal/include
   7              	 # -I ../../os/hal/platforms/Win32 -I ../../boards/simulator
   8              	 # -I ../../os/various -iprefix c:\mingw\bin\../lib/gcc/mingw32/4.6.2/
   9              	 # -MD ../../os/hal/platforms/Win32/hal_lld.d -MF .dep/hal_lld.o.d -MP
  10              	 # -MQ ../../os/hal/platforms/Win32/hal_lld.o -D SIMULATOR
  11              	 # ../../os/hal/platforms/Win32/hal_lld.c -mtune=i386 -march=i386
  12              	 # -auxbase-strip ../../os/hal/platforms/Win32/hal_lld.o -ggdb -O0 -Wall
  13              	 # -Wextra -Wstrict-prototypes -fomit-frame-pointer -fprofile-arcs
  14              	 # -ftest-coverage -fverbose-asm
  15              	 # options enabled:  -fasynchronous-unwind-tables -fauto-inc-dec
  16              	 # -fbranch-count-reg -fcommon -fdelete-null-pointer-checks
  17              	 # -fdwarf2-cfi-asm -fearly-inlining -feliminate-unused-debug-types
  18              	 # -ffunction-cse -fgcse-lm -fident -finline-functions-called-once
  19              	 # -fira-share-save-slots -fira-share-spill-slots -fivopts
  20              	 # -fkeep-inline-dllexport -fkeep-static-consts -fleading-underscore
  21              	 # -fmath-errno -fmerge-debug-strings -fmove-loop-invariants
  22              	 # -fomit-frame-pointer -fpeephole -fprefetch-loop-arrays -fprofile-arcs
  23              	 # -freg-struct-return -fsched-critical-path-heuristic
  24              	 # -fsched-dep-count-heuristic -fsched-group-heuristic -fsched-interblock
  25              	 # -fsched-last-insn-heuristic -fsched-rank-heuristic -fsched-spec
  26              	 # -fsched-spec-insn-heuristic -fsched-stalled-insns-dep
  27              	 # -fset-stack-executable -fshow-column -fsigned-zeros
  28              	 # -fsplit-ivs-in-unroller -fstrict-volatile-bitfields -ftest-coverage
  29              	 # -ftrapping-math -ftree-cselim -ftree-forwprop -ftree-loop-if-convert
  30              	 # -ftree-loop-im -ftree-loop-ivcanon -ftree-loop-optimize
  31              	 # -ftree-parallelize-loops= -ftree-phiprop -ftree-pta -ftree-reassoc
  32              	 # -ftree-scev-cprop -ftree-slp-vectorize -ftree-vect-loop-version
  33              	 # -funit-at-a-time -funwind-tables -fvect-cost-model -fverbose-asm
  34              	 # -fzero-initialized-in-bss -m32 -m80387 -m96bit-long-double
  35              	 # -maccumulate-outgoing-args -malign-double -malign-stringops
  36              	 # -mfancy-math-387 -mfp-ret-in-387 -mieee-fp -mno-red-zone -mno-sse4
  37              	 # -mpush-args -msahf -mstack-arg-probe
  38              	
  39              		.text
  40              	Ltext0:
  41              	 # Compiler executable checksum: c20aed7c018482d7b62efcd5dcab2a9d
  42              	
  43              	.lcomm _nextcnt,8,8
  44              	.lcomm _slice,8,8
  45              		.section .rdata,"dr"
  46              		.align 4
  47              	LC0:
  48 0000 556E6162 		.ascii "Unable to locate a winsock DLL\0"
  48      6C652074 
  48      6F206C6F 
  48      63617465 
  48      20612077 
  49              	LC1:
  50 001f 43686962 		.ascii "ChibiOS/RT simulator (Win32)\0"
  50      694F532F 
  50      52542073 
  50      696D756C 
GAS LISTING C:\cygwin\tmp\ccnuomUQ.s 			page 2


  50      61746F72 
  51              		.align 4
  52              	LC2:
  53 003c 51756572 		.ascii "QueryPerformanceFrequency() error\0"
  53      79506572 
  53      666F726D 
  53      616E6365 
  53      46726571 
  54              		.def	___divdi3;	.scl	2;	.type	32;	.endef
  55              		.text
  56              		.globl	_hal_lld_init
  57              		.def	_hal_lld_init;	.scl	2;	.type	32;	.endef
  58              	_hal_lld_init:
  59              	LFB9:
  60              		.file 1 "../../os/hal/platforms/Win32/hal_lld.c"
  61              		.loc 1 57 0
  62              		.cfi_startproc
  63 0000 53       		pushl	%ebx	 #
  64              	LCFI0:
  65              		.cfi_def_cfa_offset 8
  66              		.cfi_offset 3, -8
  67 0001 81ECA801 		subl	$424, %esp	 #,
  67      0000
  68              	LCFI1:
  69              		.cfi_def_cfa_offset 432
  70              		.loc 1 57 0
  71 0007 A1580000 		movl	LPBX1+56, %eax	 # *LPBX1, PROF_edge_counter.1
  71      00
  72 000c 8B155C00 		movl	LPBX1+60, %edx	 # *LPBX1, PROF_edge_counter.1
  72      0000
  73 0012 83C001   		addl	$1, %eax	 #, PROF_edge_counter.1
  74 0015 83D200   		adcl	$0, %edx	 #, PROF_edge_counter.1
  75 0018 A3580000 		movl	%eax, LPBX1+56	 # PROF_edge_counter.1, *LPBX1
  75      00
  76 001d 89155C00 		movl	%edx, LPBX1+60	 # PROF_edge_counter.1, *LPBX1
  76      0000
  77              		.loc 1 61 0
  78 0023 8D442410 		leal	16(%esp), %eax	 #, tmp86
  79 0027 89442404 		movl	%eax, 4(%esp)	 # tmp86,
  80 002b C7042402 		movl	$2, (%esp)	 #,
  80      000000
  81 0032 E8000000 		call	_WSAStartup@8	 #
  81      00
  82 0037 83EC08   		subl	$8, %esp	 #,
  83 003a 85C0     		testl	%eax, %eax	 # D.36598
  84 003c 7450     		je	L2	 #,
  85 003e A1600000 		movl	LPBX1+64, %eax	 # *LPBX1, PROF_edge_counter.1
  85      00
  86 0043 8B156400 		movl	LPBX1+68, %edx	 # *LPBX1, PROF_edge_counter.1
  86      0000
  87 0049 83C001   		addl	$1, %eax	 #, PROF_edge_counter.1
  88 004c 83D200   		adcl	$0, %edx	 #, PROF_edge_counter.1
  89 004f A3600000 		movl	%eax, LPBX1+64	 # PROF_edge_counter.1, *LPBX1
  89      00
  90 0054 89156400 		movl	%edx, LPBX1+68	 # PROF_edge_counter.1, *LPBX1
  90      0000
  91              		.loc 1 62 0
GAS LISTING C:\cygwin\tmp\ccnuomUQ.s 			page 3


  92 005a C7042400 		movl	$LC0, (%esp)	 #,
  92      000000
  93 0061 E8000000 		call	_puts	 #
  93      00
  94 0066 A1700000 		movl	LPBX1+80, %eax	 # *LPBX1, PROF_edge_counter.1
  94      00
  95 006b 8B157400 		movl	LPBX1+84, %edx	 # *LPBX1, PROF_edge_counter.1
  95      0000
  96 0071 83C001   		addl	$1, %eax	 #, PROF_edge_counter.1
  97 0074 83D200   		adcl	$0, %edx	 #, PROF_edge_counter.1
  98 0077 A3700000 		movl	%eax, LPBX1+80	 # PROF_edge_counter.1, *LPBX1
  98      00
  99 007c 89157400 		movl	%edx, LPBX1+84	 # PROF_edge_counter.1, *LPBX1
  99      0000
 100              		.loc 1 63 0
 101 0082 C7042401 		movl	$1, (%esp)	 #,
 101      000000
 102 0089 E8000000 		call	_exit	 #
 102      00
 103              	L2:
 104 008e A1680000 		movl	LPBX1+72, %eax	 # *LPBX1, PROF_edge_counter.1
 104      00
 105 0093 8B156C00 		movl	LPBX1+76, %edx	 # *LPBX1, PROF_edge_counter.1
 105      0000
 106 0099 83C001   		addl	$1, %eax	 #, PROF_edge_counter.1
 107 009c 83D200   		adcl	$0, %edx	 #, PROF_edge_counter.1
 108 009f A3680000 		movl	%eax, LPBX1+72	 # PROF_edge_counter.1, *LPBX1
 108      00
 109 00a4 89156C00 		movl	%edx, LPBX1+76	 # PROF_edge_counter.1, *LPBX1
 109      0000
 110              		.loc 1 66 0
 111 00aa C704241F 		movl	$LC1, (%esp)	 #,
 111      000000
 112 00b1 E8000000 		call	_puts	 #
 112      00
 113 00b6 A1780000 		movl	LPBX1+88, %eax	 # *LPBX1, PROF_edge_counter.1
 113      00
 114 00bb 8B157C00 		movl	LPBX1+92, %edx	 # *LPBX1, PROF_edge_counter.1
 114      0000
 115 00c1 83C001   		addl	$1, %eax	 #, PROF_edge_counter.1
 116 00c4 83D200   		adcl	$0, %edx	 #, PROF_edge_counter.1
 117 00c7 A3780000 		movl	%eax, LPBX1+88	 # PROF_edge_counter.1, *LPBX1
 117      00
 118 00cc 89157C00 		movl	%edx, LPBX1+92	 # PROF_edge_counter.1, *LPBX1
 118      0000
 119              		.loc 1 67 0
 120 00d2 C7042408 		movl	$_slice, (%esp)	 #,
 120      000000
 121 00d9 E8000000 		call	_QueryPerformanceFrequency@4	 #
 121      00
 122 00de 83EC04   		subl	$4, %esp	 #,
 123 00e1 85C0     		testl	%eax, %eax	 # D.36601
 124 00e3 7550     		jne	L3	 #,
 125 00e5 A1800000 		movl	LPBX1+96, %eax	 # *LPBX1, PROF_edge_counter.1
 125      00
 126 00ea 8B158400 		movl	LPBX1+100, %edx	 # *LPBX1, PROF_edge_counter.1
 126      0000
GAS LISTING C:\cygwin\tmp\ccnuomUQ.s 			page 4


 127 00f0 83C001   		addl	$1, %eax	 #, PROF_edge_counter.1
 128 00f3 83D200   		adcl	$0, %edx	 #, PROF_edge_counter.1
 129 00f6 A3800000 		movl	%eax, LPBX1+96	 # PROF_edge_counter.1, *LPBX1
 129      00
 130 00fb 89158400 		movl	%edx, LPBX1+100	 # PROF_edge_counter.1, *LPBX1
 130      0000
 131              		.loc 1 68 0
 132 0101 C704243C 		movl	$LC2, (%esp)	 #,
 132      000000
 133 0108 E8000000 		call	_printf	 #
 133      00
 134 010d A1900000 		movl	LPBX1+112, %eax	 # *LPBX1, PROF_edge_counter.1
 134      00
 135 0112 8B159400 		movl	LPBX1+116, %edx	 # *LPBX1, PROF_edge_counter.1
 135      0000
 136 0118 83C001   		addl	$1, %eax	 #, PROF_edge_counter.1
 137 011b 83D200   		adcl	$0, %edx	 #, PROF_edge_counter.1
 138 011e A3900000 		movl	%eax, LPBX1+112	 # PROF_edge_counter.1, *LPBX1
 138      00
 139 0123 89159400 		movl	%edx, LPBX1+116	 # PROF_edge_counter.1, *LPBX1
 139      0000
 140              		.loc 1 69 0
 141 0129 C7042401 		movl	$1, (%esp)	 #,
 141      000000
 142 0130 E8000000 		call	_exit	 #
 142      00
 143              	L3:
 144 0135 A1880000 		movl	LPBX1+104, %eax	 # *LPBX1, PROF_edge_counter.1
 144      00
 145 013a 8B158C00 		movl	LPBX1+108, %edx	 # *LPBX1, PROF_edge_counter.1
 145      0000
 146 0140 83C001   		addl	$1, %eax	 #, PROF_edge_counter.1
 147 0143 83D200   		adcl	$0, %edx	 #, PROF_edge_counter.1
 148 0146 A3880000 		movl	%eax, LPBX1+104	 # PROF_edge_counter.1, *LPBX1
 148      00
 149 014b 89158C00 		movl	%edx, LPBX1+108	 # PROF_edge_counter.1, *LPBX1
 149      0000
 150              		.loc 1 71 0
 151 0151 A1080000 		movl	_slice, %eax	 # slice.QuadPart, D.36604
 151      00
 152 0156 8B150C00 		movl	_slice+4, %edx	 # slice.QuadPart, D.36604
 152      0000
 153 015c C7442408 		movl	$1000, 8(%esp)	 #,
 153      E8030000 
 154 0164 C744240C 		movl	$0, 12(%esp)	 #,
 154      00000000 
 155 016c 890424   		movl	%eax, (%esp)	 # D.36604,
 156 016f 89542404 		movl	%edx, 4(%esp)	 # D.36604,
 157 0173 E8000000 		call	___divdi3	 #
 157      00
 158 0178 A3080000 		movl	%eax, _slice	 # D.36605, slice.QuadPart
 158      00
 159 017d 89150C00 		movl	%edx, _slice+4	 # D.36605, slice.QuadPart
 159      0000
 160              		.loc 1 72 0
 161 0183 C7042400 		movl	$_nextcnt, (%esp)	 #,
 161      000000
GAS LISTING C:\cygwin\tmp\ccnuomUQ.s 			page 5


 162 018a E8000000 		call	_QueryPerformanceCounter@4	 #
 162      00
 163 018f 83EC04   		subl	$4, %esp	 #,
 164 0192 A1980000 		movl	LPBX1+120, %eax	 # *LPBX1, PROF_edge_counter.1
 164      00
 165 0197 8B159C00 		movl	LPBX1+124, %edx	 # *LPBX1, PROF_edge_counter.1
 165      0000
 166 019d 83C001   		addl	$1, %eax	 #, PROF_edge_counter.1
 167 01a0 83D200   		adcl	$0, %edx	 #, PROF_edge_counter.1
 168 01a3 A3980000 		movl	%eax, LPBX1+120	 # PROF_edge_counter.1, *LPBX1
 168      00
 169 01a8 89159C00 		movl	%edx, LPBX1+124	 # PROF_edge_counter.1, *LPBX1
 169      0000
 170              		.loc 1 73 0
 171 01ae 8B0D0000 		movl	_nextcnt, %ecx	 # nextcnt.QuadPart, D.36606
 171      0000
 172 01b4 8B1D0400 		movl	_nextcnt+4, %ebx	 # nextcnt.QuadPart, D.36606
 172      0000
 173 01ba A1080000 		movl	_slice, %eax	 # slice.QuadPart, D.36607
 173      00
 174 01bf 8B150C00 		movl	_slice+4, %edx	 # slice.QuadPart, D.36607
 174      0000
 175 01c5 01C8     		addl	%ecx, %eax	 # D.36606, D.36608
 176 01c7 11DA     		adcl	%ebx, %edx	 # D.36606, D.36608
 177 01c9 A3000000 		movl	%eax, _nextcnt	 # D.36608, nextcnt.QuadPart
 177      00
 178 01ce 89150400 		movl	%edx, _nextcnt+4	 # D.36608, nextcnt.QuadPart
 178      0000
 179              		.loc 1 75 0
 180 01d4 A1000000 		movl	__imp___iob, %eax	 #, tmp90
 180      00
 181 01d9 83C020   		addl	$32, %eax	 #, tmp91
 182 01dc 890424   		movl	%eax, (%esp)	 # tmp91,
 183 01df E8000000 		call	_fflush	 #
 183      00
 184 01e4 A1A00000 		movl	LPBX1+128, %eax	 # *LPBX1, PROF_edge_counter.1
 184      00
 185 01e9 8B15A400 		movl	LPBX1+132, %edx	 # *LPBX1, PROF_edge_counter.1
 185      0000
 186 01ef 83C001   		addl	$1, %eax	 #, PROF_edge_counter.1
 187 01f2 83D200   		adcl	$0, %edx	 #, PROF_edge_counter.1
 188 01f5 A3A00000 		movl	%eax, LPBX1+128	 # PROF_edge_counter.1, *LPBX1
 188      00
 189 01fa 8915A400 		movl	%edx, LPBX1+132	 # PROF_edge_counter.1, *LPBX1
 189      0000
 190              		.loc 1 76 0
 191 0200 81C4A801 		addl	$424, %esp	 #,
 191      0000
 192              	LCFI2:
 193              		.cfi_def_cfa_offset 8
 194 0206 5B       		popl	%ebx	 #
 195              	LCFI3:
 196              		.cfi_def_cfa_offset 4
 197              		.cfi_restore 3
 198 0207 C3       		ret
 199              		.cfi_endproc
 200              	LFE9:
GAS LISTING C:\cygwin\tmp\ccnuomUQ.s 			page 6


 201              		.globl	_ChkIntSources
 202              		.def	_ChkIntSources;	.scl	2;	.type	32;	.endef
 203              	_ChkIntSources:
 204              	LFB10:
 205              		.loc 1 81 0
 206              		.cfi_startproc
 207 0208 53       		pushl	%ebx	 #
 208              	LCFI4:
 209              		.cfi_def_cfa_offset 8
 210              		.cfi_offset 3, -8
 211 0209 83EC28   		subl	$40, %esp	 #,
 212              	LCFI5:
 213              		.cfi_def_cfa_offset 48
 214              		.loc 1 81 0
 215 020c A1200000 		movl	LPBX1, %eax	 # *LPBX1, PROF_edge_counter.0
 215      00
 216 0211 8B152400 		movl	LPBX1+4, %edx	 # *LPBX1, PROF_edge_counter.0
 216      0000
 217 0217 83C001   		addl	$1, %eax	 #, PROF_edge_counter.0
 218 021a 83D200   		adcl	$0, %edx	 #, PROF_edge_counter.0
 219 021d A3200000 		movl	%eax, LPBX1	 # PROF_edge_counter.0, *LPBX1
 219      00
 220 0222 89152400 		movl	%edx, LPBX1+4	 # PROF_edge_counter.0, *LPBX1
 220      0000
 221              		.loc 1 95 0
 222 0228 8D442418 		leal	24(%esp), %eax	 #, tmp79
 223 022c 890424   		movl	%eax, (%esp)	 # tmp79,
 224 022f E8000000 		call	_QueryPerformanceCounter@4	 #
 224      00
 225 0234 83EC04   		subl	$4, %esp	 #,
 226 0237 A1280000 		movl	LPBX1+8, %eax	 # *LPBX1, PROF_edge_counter.0
 226      00
 227 023c 8B152C00 		movl	LPBX1+12, %edx	 # *LPBX1, PROF_edge_counter.0
 227      0000
 228 0242 83C001   		addl	$1, %eax	 #, PROF_edge_counter.0
 229 0245 83D200   		adcl	$0, %edx	 #, PROF_edge_counter.0
 230 0248 A3280000 		movl	%eax, LPBX1+8	 # PROF_edge_counter.0, *LPBX1
 230      00
 231 024d 89152C00 		movl	%edx, LPBX1+12	 # PROF_edge_counter.0, *LPBX1
 231      0000
 232              		.loc 1 96 0
 233 0253 8B4C2418 		movl	24(%esp), %ecx	 # n.QuadPart, D.36588
 234 0257 8B5C241C 		movl	28(%esp), %ebx	 # n.QuadPart, D.36588
 235 025b A1000000 		movl	_nextcnt, %eax	 # nextcnt.QuadPart, D.36589
 235      00
 236 0260 8B150400 		movl	_nextcnt+4, %edx	 # nextcnt.QuadPart, D.36589
 236      0000
 237 0266 39D3     		cmpl	%edx, %ebx	 # D.36589, D.36588
 238 0268 0F8CD300 		jl	L4	 #,
 238      0000
 239 026e 39D3     		cmpl	%edx, %ebx	 # D.36589, D.36588
 240 0270 7F08     		jg	L7	 #,
 241 0272 39C1     		cmpl	%eax, %ecx	 # D.36589, D.36588
 242 0274 0F86C700 		jbe	L4	 #,
 242      0000
 243              	L7:
 244 027a A1300000 		movl	LPBX1+16, %eax	 # *LPBX1, PROF_edge_counter.0
GAS LISTING C:\cygwin\tmp\ccnuomUQ.s 			page 7


 244      00
 245 027f 8B153400 		movl	LPBX1+20, %edx	 # *LPBX1, PROF_edge_counter.0
 245      0000
 246 0285 83C001   		addl	$1, %eax	 #, PROF_edge_counter.0
 247 0288 83D200   		adcl	$0, %edx	 #, PROF_edge_counter.0
 248 028b A3300000 		movl	%eax, LPBX1+16	 # PROF_edge_counter.0, *LPBX1
 248      00
 249 0290 89153400 		movl	%edx, LPBX1+20	 # PROF_edge_counter.0, *LPBX1
 249      0000
 250              		.loc 1 97 0
 251 0296 8B0D0000 		movl	_nextcnt, %ecx	 # nextcnt.QuadPart, D.36592
 251      0000
 252 029c 8B1D0400 		movl	_nextcnt+4, %ebx	 # nextcnt.QuadPart, D.36592
 252      0000
 253 02a2 A1080000 		movl	_slice, %eax	 # slice.QuadPart, D.36593
 253      00
 254 02a7 8B150C00 		movl	_slice+4, %edx	 # slice.QuadPart, D.36593
 254      0000
 255 02ad 01C8     		addl	%ecx, %eax	 # D.36592, D.36594
 256 02af 11DA     		adcl	%ebx, %edx	 # D.36592, D.36594
 257 02b1 A3000000 		movl	%eax, _nextcnt	 # D.36594, nextcnt.QuadPart
 257      00
 258 02b6 89150400 		movl	%edx, _nextcnt+4	 # D.36594, nextcnt.QuadPart
 258      0000
 259              		.loc 1 102 0
 260 02bc E8000000 		call	_chSysTimerHandlerI	 #
 260      00
 261 02c1 A1380000 		movl	LPBX1+24, %eax	 # *LPBX1, PROF_edge_counter.0
 261      00
 262 02c6 8B153C00 		movl	LPBX1+28, %edx	 # *LPBX1, PROF_edge_counter.0
 262      0000
 263 02cc 83C001   		addl	$1, %eax	 #, PROF_edge_counter.0
 264 02cf 83D200   		adcl	$0, %edx	 #, PROF_edge_counter.0
 265 02d2 A3380000 		movl	%eax, LPBX1+24	 # PROF_edge_counter.0, *LPBX1
 265      00
 266 02d7 89153C00 		movl	%edx, LPBX1+28	 # PROF_edge_counter.0, *LPBX1
 266      0000
 267              		.loc 1 108 0
 268 02dd E8000000 		call	_chSchIsPreemptionRequired	 #
 268      00
 269 02e2 88C1     		movb	%al, %cl	 #, D.36595
 270 02e4 A1400000 		movl	LPBX1+32, %eax	 # *LPBX1, PROF_edge_counter.0
 270      00
 271 02e9 8B154400 		movl	LPBX1+36, %edx	 # *LPBX1, PROF_edge_counter.0
 271      0000
 272 02ef 83C001   		addl	$1, %eax	 #, PROF_edge_counter.0
 273 02f2 83D200   		adcl	$0, %edx	 #, PROF_edge_counter.0
 274 02f5 A3400000 		movl	%eax, LPBX1+32	 # PROF_edge_counter.0, *LPBX1
 274      00
 275 02fa 89154400 		movl	%edx, LPBX1+36	 # PROF_edge_counter.0, *LPBX1
 275      0000
 276 0300 84C9     		testb	%cl, %cl	 # D.36595
 277 0302 743D     		je	L4	 #,
 278 0304 A1480000 		movl	LPBX1+40, %eax	 # *LPBX1, PROF_edge_counter.0
 278      00
 279 0309 8B154C00 		movl	LPBX1+44, %edx	 # *LPBX1, PROF_edge_counter.0
 279      0000
GAS LISTING C:\cygwin\tmp\ccnuomUQ.s 			page 8


 280 030f 83C001   		addl	$1, %eax	 #, PROF_edge_counter.0
 281 0312 83D200   		adcl	$0, %edx	 #, PROF_edge_counter.0
 282 0315 A3480000 		movl	%eax, LPBX1+40	 # PROF_edge_counter.0, *LPBX1
 282      00
 283 031a 89154C00 		movl	%edx, LPBX1+44	 # PROF_edge_counter.0, *LPBX1
 283      0000
 284              		.loc 1 109 0
 285 0320 E8000000 		call	_chSchDoReschedule	 #
 285      00
 286 0325 A1500000 		movl	LPBX1+48, %eax	 # *LPBX1, PROF_edge_counter.0
 286      00
 287 032a 8B155400 		movl	LPBX1+52, %edx	 # *LPBX1, PROF_edge_counter.0
 287      0000
 288 0330 83C001   		addl	$1, %eax	 #, PROF_edge_counter.0
 289 0333 83D200   		adcl	$0, %edx	 #, PROF_edge_counter.0
 290 0336 A3500000 		movl	%eax, LPBX1+48	 # PROF_edge_counter.0, *LPBX1
 290      00
 291 033b 89155400 		movl	%edx, LPBX1+52	 # PROF_edge_counter.0, *LPBX1
 291      0000
 292              	L4:
 293              		.loc 1 112 0
 294 0341 83C428   		addl	$40, %esp	 #,
 295              	LCFI6:
 296              		.cfi_def_cfa_offset 8
 297 0344 5B       		popl	%ebx	 #
 298              	LCFI7:
 299              		.cfi_def_cfa_offset 4
 300              		.cfi_restore 3
 301 0345 C3       		ret
 302              		.cfi_endproc
 303              	LFE10:
 304              	.lcomm LPBX1,136,32
 305              		.section .rdata,"dr"
 306 005e 0000     		.align 4
 307              	LC3:
 308 0060 433A5C64 		.ascii "C:\\develop\\gyro\\ChibiOS\\test\\coverage/../../os/hal/platforms/Win32/hal_lld.gcda\0"
 308      6576656C 
 308      6F705C67 
 308      79726F5C 
 308      43686962 
 309              		.data
 310              		.align 4
 311              	LC4:
 312              	 # <anonymous>:
 313 0000 0B000000 		.long	11
 314              	 # <anonymous>:
 315 0004 0AD99863 		.long	1670961418
 316              	 # <anonymous>:
 317 0008 07000000 		.long	7
 318              	 # <anonymous>:
 319 000c 0A000000 		.long	10
 320              	 # <anonymous>:
 321 0010 6F390067 		.long	1728067951
 322              	 # <anonymous>:
 323 0014 0A000000 		.long	10
 324 0018 00000000 		.align 32
 324      00000000 
GAS LISTING C:\cygwin\tmp\ccnuomUQ.s 			page 9


 325              	LPBX0:
 326              	 # <anonymous>:
 327 0020 2A363034 		.long	875574826
 328              	 # <anonymous>:
 329 0024 00000000 		.long	0
 330              	 # <anonymous>:
 331 0028 91BEFA66 		.long	1727708817
 332              	 # <anonymous>:
 333 002c 60000000 		.long	LC3
 334              	 # <anonymous>:
 335 0030 02000000 		.long	2
 336              	 # <anonymous>:
 337 0034 00000000 		.long	LC4
 338              	 # <anonymous>:
 339 0038 01000000 		.long	1
 340              	 # <anonymous>:
 341              	 # <anonymous>:
 342 003c 11000000 		.long	17
 343              	 # <anonymous>:
 344 0040 20000000 		.long	LPBX1
 345              	 # <anonymous>:
 346 0044 00000000 		.long	___gcov_merge_add
 347 0048 00000000 		.space 12
 347      00000000 
 347      00000000 
 348 0054 00000000 		.text
 348      00000000 
 348      00000000 
 349              		.def	__GLOBAL__sub_I_65535_0_hal_lld_init;	.scl	3;	.type	32;	.endef
 350              	__GLOBAL__sub_I_65535_0_hal_lld_init:
 351              	LFB11:
 352              		.loc 1 112 0
 353              		.cfi_startproc
 354 0346 83EC1C   		subl	$28, %esp	 #,
 355              	LCFI8:
 356              		.cfi_def_cfa_offset 32
 357              		.loc 1 112 0
 358 0349 C7042420 		movl	$LPBX0, (%esp)	 #,
 358      000000
 359 0350 E8000000 		call	___gcov_init	 #
 359      00
 360 0355 83C41C   		addl	$28, %esp	 #,
 361              	LCFI9:
 362              		.cfi_def_cfa_offset 4
 363 0358 C3       		ret
 364              		.cfi_endproc
 365              	LFE11:
 366              		.section	.ctors,"w"
 367              		.align 4
 368 0000 46030000 		.long	__GLOBAL__sub_I_65535_0_hal_lld_init
 369              		.text
 370              	Letext0:
 371              		.file 2 "c:/mingw/bin/../lib/gcc/mingw32/4.6.2/../../../../include/windef.h"
 372              		.file 3 "c:/mingw/bin/../lib/gcc/mingw32/4.6.2/../../../../include/winnt.h"
 373              		.file 4 "c:/mingw/bin/../lib/gcc/mingw32/4.6.2/../../../../include/winsock2.h"
 374              		.file 5 "c:/mingw/bin/../lib/gcc/mingw32/4.6.2/../../../../include/stdio.h"
 375              		.file 6 "c:/mingw/bin/../lib/gcc/mingw32/4.6.2/../../../../include/wtypes.h"
GAS LISTING C:\cygwin\tmp\ccnuomUQ.s 			page 10

