GAS LISTING C:\cygwin\tmp\ccnuomUQ.s 			page 1


   1              		.file	"hal_lld.c"
   2              	 # GNU C (GCC) version 4.6.2 (mingw32)
   3              	 #	compiled by GNU C version 4.6.2, GMP version 5.0.1, MPFR version 2.4.1, MPC version 0.8.1
   4              	 # GGC heuristics: --param ggc-min-expand=100 --param ggc-min-heapsize=131072
   5              	 # options passed:  -I . -I ../../os/ports/GCC/SIMIA32
   6              	 # -I ../../os/kernel/include -I ../../test -I ../../os/hal/include
   7              	 # -I ../../os/hal/platforms/Win32 -I ../../boards/simulator
   8              	 # -I ../../os/various -iprefix c:\mingw\bin\../lib/gcc/mingw32/4.6.2/
   9              	 # -MD ../../os/hal/platforms/Win32/hal_lld.d -MF .dep/hal_lld.o.d -MP
  10              	 # -MQ ../../os/hal/platforms/Win32/hal_lld.o -D SIMULATOR
  11              	 # ../../os/hal/platforms/Win32/hal_lld.c -mtune=i386 -march=i386
  12              	 # -auxbase-strip ../../os/hal/platforms/Win32/hal_lld.o -ggdb -O0 -Wall
  13              	 # -Wextra -Wstrict-prototypes -fomit-frame-pointer -fprofile-arcs
  14              	 # -ftest-coverage -fverbose-asm
  15              	 # options enabled:  -fasynchronous-unwind-tables -fauto-inc-dec
  16              	 # -fbranch-count-reg -fcommon -fdelete-null-pointer-checks
  17              	 # -fdwarf2-cfi-asm -fearly-inlining -feliminate-unused-debug-types
  18              	 # -ffunction-cse -fgcse-lm -fident -finline-functions-called-once
  19              	 # -fira-share-save-slots -fira-share-spill-slots -fivopts
  20              	 # -fkeep-inline-dllexport -fkeep-static-consts -fleading-underscore
  21              	 # -fmath-errno -fmerge-debug-strings -fmove-loop-invariants
  22              	 # -fomit-frame-pointer -fpeephole -fprefetch-loop-arrays -fprofile-arcs
  23              	 # -freg-struct-return -fsched-critical-path-heuristic
  24              	 # -fsched-dep-count-heuristic -fsched-group-heuristic -fsched-interblock
  25              	 # -fsched-last-insn-heuristic -fsched-rank-heuristic -fsched-spec
  26              	 # -fsched-spec-insn-heuristic -fsched-stalled-insns-dep
  27              	 # -fset-stack-executable -fshow-column -fsigned-zeros
  28              	 # -fsplit-ivs-in-unroller -fstrict-volatile-bitfields -ftest-coverage
  29              	 # -ftrapping-math -ftree-cselim -ftree-forwprop -ftree-loop-if-convert
  30              	 # -ftree-loop-im -ftree-loop-ivcanon -ftree-loop-optimize
  31              	 # -ftree-parallelize-loops= -ftree-phiprop -ftree-pta -ftree-reassoc
  32              	 # -ftree-scev-cprop -ftree-slp-vectorize -ftree-vect-loop-version
  33              	 # -funit-at-a-time -funwind-tables -fvect-cost-model -fverbose-asm
  34              	 # -fzero-initialized-in-bss -m32 -m80387 -m96bit-long-double
  35              	 # -maccumulate-outgoing-args -malign-double -malign-stringops
  36              	 # -mfancy-math-387 -mfp-ret-in-387 -mieee-fp -mno-red-zone -mno-sse4
  37              	 # -mpush-args -msahf -mstack-arg-probe
  38              	
  39              		.text
  40              	Ltext0:
  41              	 # Compiler executable checksum: c20aed7c018482d7b62efcd5dcab2a9d
  42              	
  43              	.lcomm _nextcnt,8,8
  44              	.lcomm _slice,8,8
  45              		.section .rdata,"dr"
  46              		.align 4
  47              	LC0:
  48 0000 556E6162 		.ascii "Unable to locate a winsock DLL\0"
  48      6C652074 
  48      6F206C6F 
  48      63617465 
  48      20612077 
  49              	LC1:
  50 001f 43686962 		.ascii "ChibiOS/RT simulator (Win32)\0"
  50      694F532F 
  50      52542073 
  50      696D756C 
GAS LISTING C:\cygwin\tmp\ccnuomUQ.s 			page 2


  50      61746F72 
  51              		.align 4
  52              	LC2:
  53 003c 51756572 		.ascii "QueryPerformanceFrequency() error\0"
  53      79506572 
  53      666F726D 
  53      616E6365 
  53      46726571 
  54              		.def	___divdi3;	.scl	2;	.type	32;	.endef
  55              		.text
  56              		.globl	_hal_lld_init
  57              		.def	_hal_lld_init;	.scl	2;	.type	32;	.endef
  58              	_hal_lld_init:
  59              	LFB9:
  60              		.file 1 "../../os/hal/platforms/Win32/hal_lld.c"
  61              		.loc 1 57 0
  62              		.cfi_startproc
  63 0000 53       		pushl	%ebx	 #
  64              	LCFI0:
  65              		.cfi_def_cfa_offset 8
  66              		.cfi_offset 3, -8
  67 0001 81ECA801 		subl	$424, %esp	 #,
  67      0000
  68              	LCFI1:
  69              		.cfi_def_cfa_offset 432
  70              		.loc 1 57 0
  71 0007 A1580000 		movl	LPBX1+56, %eax	 # *LPBX1, PROF_edge_counter.1
  71      00
  72 000c 8B155C00 		movl	LPBX1+60, %edx	 # *LPBX1, PROF_edge_counter.1
  72      0000
  73 0012 83C001   		addl	$1, %eax	 #, PROF_edge_counter.1
  74 0015 83D200   		adcl	$0, %edx	 #, PROF_edge_counter.1
  75 0018 A3580000 		movl	%eax, LPBX1+56	 # PROF_edge_counter.1, *LPBX1
  75      00
  76 001d 89155C00 		movl	%edx, LPBX1+60	 # PROF_edge_counter.1, *LPBX1
  76      0000
  77              		.loc 1 61 0
  78 0023 8D442410 		leal	16(%esp), %eax	 #, tmp86
  79 0027 89442404 		movl	%eax, 4(%esp)	 # tmp86,
  80 002b C7042402 		movl	$2, (%esp)	 #,
  80      000000
  81 0032 E8000000 		call	_WSAStartup@8	 #
  81      00
  82 0037 83EC08   		subl	$8, %esp	 #,
  83 003a 85C0     		testl	%eax, %eax	 # D.36598
  84 003c 7450     		je	L2	 #,
  85 003e A1600000 		movl	LPBX1+64, %eax	 # *LPBX1, PROF_edge_counter.1
  85      00
  86 0043 8B156400 		movl	LPBX1+68, %edx	 # *LPBX1, PROF_edge_counter.1
  86      0000
  87 0049 83C001   		addl	$1, %eax	 #, PROF_edge_counter.1
  88 004c 83D200   		adcl	$0, %edx	 #, PROF_edge_counter.1
  89 004f A3600000 		movl	%eax, LPBX1+64	 # PROF_edge_counter.1, *LPBX1
  89      00
  90 0054 89156400 		movl	%edx, LPBX1+68	 # PROF_edge_counter.1, *LPBX1
  90      0000
  91              		.loc 1 62 0
GAS LISTING C:\cygwin\tmp\ccnuomUQ.s 			page 3


  92 005a C7042400 		movl	$LC0, (%esp)	 #,
  92      000000
  93 0061 E8000000 		call	_puts	 #
  93      00
  94 0066 A1700000 		movl	LPBX1+80, %eax	 # *LPBX1, PROF_edge_counter.1
  94      00
  95 006b 8B157400 		movl	LPBX1+84, %edx	 # *LPBX1, PROF_edge_counter.1
  95      0000
  96 0071 83C001   		addl	$1, %eax	 #, PROF_edge_counter.1
  97 0074 83D200   		adcl	$0, %edx	 #, PROF_edge_counter.1
  98 0077 A3700000 		movl	%eax, LPBX1+80	 # PROF_edge_counter.1, *LPBX1
  98      00
  99 007c 89157400 		movl	%edx, LPBX1+84	 # PROF_edge_counter.1, *LPBX1
  99      0000
 100              		.loc 1 63 0
 101 0082 C7042401 		movl	$1, (%esp)	 #,
 101      000000
 102 0089 E8000000 		call	_exit	 #
 102      00
 103              	L2:
 104 008e A1680000 		movl	LPBX1+72, %eax	 # *LPBX1, PROF_edge_counter.1
 104      00
 105 0093 8B156C00 		movl	LPBX1+76, %edx	 # *LPBX1, PROF_edge_counter.1
 105      0000
 106 0099 83C001   		addl	$1, %eax	 #, PROF_edge_counter.1
 107 009c 83D200   		adcl	$0, %edx	 #, PROF_edge_counter.1
 108 009f A3680000 		movl	%eax, LPBX1+72	 # PROF_edge_counter.1, *LPBX1
 108      00
 109 00a4 89156C00 		movl	%edx, LPBX1+76	 # PROF_edge_counter.1, *LPBX1
 109      0000
 110              		.loc 1 66 0
 111 00aa C704241F 		movl	$LC1, (%esp)	 #,
 111      000000
 112 00b1 E8000000 		call	_puts	 #
 112      00
 113 00b6 A1780000 		movl	LPBX1+88, %eax	 # *LPBX1, PROF_edge_counter.1
 113      00
 114 00bb 8B157C00 		movl	LPBX1+92, %edx	 # *LPBX1, PROF_edge_counter.1
 114      0000
 115 00c1 83C001   		addl	$1, %eax	 #, PROF_edge_counter.1
 116 00c4 83D200   		adcl	$0, %edx	 #, PROF_edge_counter.1
 117 00c7 A3780000 		movl	%eax, LPBX1+88	 # PROF_edge_counter.1, *LPBX1
 117      00
 118 00cc 89157C00 		movl	%edx, LPBX1+92	 # PROF_edge_counter.1, *LPBX1
 118      0000
 119              		.loc 1 67 0
 120 00d2 C7042408 		movl	$_slice, (%esp)	 #,
 120      000000
 121 00d9 E8000000 		call	_QueryPerformanceFrequency@4	 #
 121      00
 122 00de 83EC04   		subl	$4, %esp	 #,
 123 00e1 85C0     		testl	%eax, %eax	 # D.36601
 124 00e3 7550     		jne	L3	 #,
 125 00e5 A1800000 		movl	LPBX1+96, %eax	 # *LPBX1, PROF_edge_counter.1
 125      00
 126 00ea 8B158400 		movl	LPBX1+100, %edx	 # *LPBX1, PROF_edge_counter.1
 126      0000
GAS LISTING C:\cygwin\tmp\ccnuomUQ.s 			page 4


 127 00f0 83C001   		addl	$1, %eax	 #, PROF_edge_counter.1
 128 00f3 83D200   		adcl	$0, %edx	 #, PROF_edge_counter.1
 129 00f6 A3800000 		movl	%eax, LPBX1+96	 # PROF_edge_counter.1, *LPBX1
 129      00
 130 00fb 89158400 		movl	%edx, LPBX1+100	 # PROF_edge_counter.1, *LPBX1
 130      0000
 131              		.loc 1 68 0
 132 0101 C704243C 		movl	$LC2, (%esp)	 #,
 132      000000
 133 0108 E8000000 		call	_printf	 #
 133      00
 134 010d A1900000 		movl	LPBX1+112, %eax	 # *LPBX1, PROF_edge_counter.1
 134      00
 135 0112 8B159400 		movl	LPBX1+116, %edx	 # *LPBX1, PROF_edge_counter.1
 135      0000
 136 0118 83C001   		addl	$1, %eax	 #, PROF_edge_counter.1
 137 011b 83D200   		adcl	$0, %edx	 #, PROF_edge_counter.1
 138 011e A3900000 		movl	%eax, LPBX1+112	 # PROF_edge_counter.1, *LPBX1
 138      00
 139 0123 89159400 		movl	%edx, LPBX1+116	 # PROF_edge_counter.1, *LPBX1
 139      0000
 140              		.loc 1 69 0
 141 0129 C7042401 		movl	$1, (%esp)	 #,
 141      000000
 142 0130 E8000000 		call	_exit	 #
 142      00
 143              	L3:
 144 0135 A1880000 		movl	LPBX1+104, %eax	 # *LPBX1, PROF_edge_counter.1
 144      00
 145 013a 8B158C00 		movl	LPBX1+108, %edx	 # *LPBX1, PROF_edge_counter.1
 145      0000
 146 0140 83C001   		addl	$1, %eax	 #, PROF_edge_counter.1
 147 0143 83D200   		adcl	$0, %edx	 #, PROF_edge_counter.1
 148 0146 A3880000 		movl	%eax, LPBX1+104	 # PROF_edge_counter.1, *LPBX1
 148      00
 149 014b 89158C00 		movl	%edx, LPBX1+108	 # PROF_edge_counter.1, *LPBX1
 149      0000
 150              		.loc 1 71 0
 151 0151 A1080000 		movl	_slice, %eax	 # slice.QuadPart, D.36604
 151      00
 152 0156 8B150C00 		movl	_slice+4, %edx	 # slice.QuadPart, D.36604
 152      0000
 153 015c C7442408 		movl	$1000, 8(%esp)	 #,
 153      E8030000 
 154 0164 C744240C 		movl	$0, 12(%esp)	 #,
 154      00000000 
 155 016c 890424   		movl	%eax, (%esp)	 # D.36604,
 156 016f 89542404 		movl	%edx, 4(%esp)	 # D.36604,
 157 0173 E8000000 		call	___divdi3	 #
 157      00
 158 0178 A3080000 		movl	%eax, _slice	 # D.36605, slice.QuadPart
 158      00
 159 017d 89150C00 		movl	%edx, _slice+4	 # D.36605, slice.QuadPart
 159      0000
 160              		.loc 1 72 0
 161 0183 C7042400 		movl	$_nextcnt, (%esp)	 #,
 161      000000
GAS LISTING C:\cygwin\tmp\ccnuomUQ.s 			page 5


 162 018a E8000000 		call	_QueryPerformanceCounter@4	 #
 162      00
 163 018f 83EC04   		subl	$4, %esp	 #,
 164 0192 A1980000 		movl	LPBX1+120, %eax	 # *LPBX1, PROF_edge_counter.1
 164      00
 165 0197 8B159C00 		movl	LPBX1+124, %edx	 # *LPBX1, PROF_edge_counter.1
 165      0000
 166 019d 83C001   		addl	$1, %eax	 #, PROF_edge_counter.1
 167 01a0 83D200   		adcl	$0, %edx	 #, PROF_edge_counter.1
 168 01a3 A3980000 		movl	%eax, LPBX1+120	 # PROF_edge_counter.1, *LPBX1
 168      00
 169 01a8 89159C00 		movl	%edx, LPBX1+124	 # PROF_edge_counter.1, *LPBX1
 169      0000
 170              		.loc 1 73 0
 171 01ae 8B0D0000 		movl	_nextcnt, %ecx	 # nextcnt.QuadPart, D.36606
 171      0000
 172 01b4 8B1D0400 		movl	_nextcnt+4, %ebx	 # nextcnt.QuadPart, D.36606
 172      0000
 173 01ba A1080000 		movl	_slice, %eax	 # slice.QuadPart, D.36607
 173      00
 174 01bf 8B150C00 		movl	_slice+4, %edx	 # slice.QuadPart, D.36607
 174      0000
 175 01c5 01C8     		addl	%ecx, %eax	 # D.36606, D.36608
 176 01c7 11DA     		adcl	%ebx, %edx	 # D.36606, D.36608
 177 01c9 A3000000 		movl	%eax, _nextcnt	 # D.36608, nextcnt.QuadPart
 177      00
 178 01ce 89150400 		movl	%edx, _nextcnt+4	 # D.36608, nextcnt.QuadPart
 178      0000
 179              		.loc 1 75 0
 180 01d4 A1000000 		movl	__imp___iob, %eax	 #, tmp90
 180      00
 181 01d9 83C020   		addl	$32, %eax	 #, tmp91
 182 01dc 890424   		movl	%eax, (%esp)	 # tmp91,
 183 01df E8000000 		call	_fflush	 #
 183      00
 184 01e4 A1A00000 		movl	LPBX1+128, %eax	 # *LPBX1, PROF_edge_counter.1
 184      00
 185 01e9 8B15A400 		movl	LPBX1+132, %edx	 # *LPBX1, PROF_edge_counter.1
 185      0000
 186 01ef 83C001   		addl	$1, %eax	 #, PROF_edge_counter.1
 187 01f2 83D200   		adcl	$0, %edx	 #, PROF_edge_counter.1
 188 01f5 A3A00000 		movl	%eax, LPBX1+128	 # PROF_edge_counter.1, *LPBX1
 188      00
 189 01fa 8915A400 		movl	%edx, LPBX1+132	 # PROF_edge_counter.1, *LPBX1
 189      0000
 190              		.loc 1 76 0
 191 0200 81C4A801 		addl	$424, %esp	 #,
 191      0000
 192              	LCFI2:
 193              		.cfi_def_cfa_offset 8
 194 0206 5B       		popl	%ebx	 #
 195              	LCFI3:
 196              		.cfi_def_cfa_offset 4
 197              		.cfi_restore 3
 198 0207 C3       		ret
 199              		.cfi_endproc
 200              	LFE9:
GAS LISTING C:\cygwin\tmp\ccnuomUQ.s 			page 6


 201              		.globl	_ChkIntSources
 202              		.def	_ChkIntSources;	.scl	2;	.type	32;	.endef
 203              	_ChkIntSources:
 204              	LFB10:
 205              		.loc 1 81 0
 206              		.cfi_startproc
 207 0208 53       		pushl	%ebx	 #
 208              	LCFI4:
 209              		.cfi_def_cfa_offset 8
 210              		.cfi_offset 3, -8
 211 0209 83EC28   		subl	$40, %esp	 #,
 212              	LCFI5:
 213              		.cfi_def_cfa_offset 48
 214              		.loc 1 81 0
 215 020c A1200000 		movl	LPBX1, %eax	 # *LPBX1, PROF_edge_counter.0
 215      00
 216 0211 8B152400 		movl	LPBX1+4, %edx	 # *LPBX1, PROF_edge_counter.0
 216      0000
 217 0217 83C001   		addl	$1, %eax	 #, PROF_edge_counter.0
 218 021a 83D200   		adcl	$0, %edx	 #, PROF_edge_counter.0
 219 021d A3200000 		movl	%eax, LPBX1	 # PROF_edge_counter.0, *LPBX1
 219      00
 220 0222 89152400 		movl	%edx, LPBX1+4	 # PROF_edge_counter.0, *LPBX1
 220      0000
 221              		.loc 1 95 0
 222 0228 8D442418 		leal	24(%esp), %eax	 #, tmp79
 223 022c 890424   		movl	%eax, (%esp)	 # tmp79,
 224 022f E8000000 		call	_QueryPerformanceCounter@4	 #
 224      00
 225 0234 83EC04   		subl	$4, %esp	 #,
 226 0237 A1280000 		movl	LPBX1+8, %eax	 # *LPBX1, PROF_edge_counter.0
 226      00
 227 023c 8B152C00 		movl	LPBX1+12, %edx	 # *LPBX1, PROF_edge_counter.0
 227      0000
 228 0242 83C001   		addl	$1, %eax	 #, PROF_edge_counter.0
 229 0245 83D200   		adcl	$0, %edx	 #, PROF_edge_counter.0
 230 0248 A3280000 		movl	%eax, LPBX1+8	 # PROF_edge_counter.0, *LPBX1
 230      00
 231 024d 89152C00 		movl	%edx, LPBX1+12	 # PROF_edge_counter.0, *LPBX1
 231      0000
 232              		.loc 1 96 0
 233 0253 8B4C2418 		movl	24(%esp), %ecx	 # n.QuadPart, D.36588
 234 0257 8B5C241C 		movl	28(%esp), %ebx	 # n.QuadPart, D.36588
 235 025b A1000000 		movl	_nextcnt, %eax	 # nextcnt.QuadPart, D.36589
 235      00
 236 0260 8B150400 		movl	_nextcnt+4, %edx	 # nextcnt.QuadPart, D.36589
 236      0000
 237 0266 39D3     		cmpl	%edx, %ebx	 # D.36589, D.36588
 238 0268 0F8CD300 		jl	L4	 #,
 238      0000
 239 026e 39D3     		cmpl	%edx, %ebx	 # D.36589, D.36588
 240 0270 7F08     		jg	L7	 #,
 241 0272 39C1     		cmpl	%eax, %ecx	 # D.36589, D.36588
 242 0274 0F86C700 		jbe	L4	 #,
 242      0000
 243              	L7:
 244 027a A1300000 		movl	LPBX1+16, %eax	 # *LPBX1, PROF_edge_counter.0
GAS LISTING C:\cygwin\tmp\ccnuomUQ.s 			page 7


 244      00
 245 027f 8B153400 		movl	LPBX1+20, %edx	 # *LPBX1, PROF_edge_counter.0
 245      0000
 246 0285 83C001   		addl	$1, %eax	 #, PROF_edge_counter.0
 247 0288 83D200   		adcl	$0, %edx	 #, PROF_edge_counter.0
 248 028b A3300000 		movl	%eax, LPBX1+16	 # PROF_edge_counter.0, *LPBX1
 248      00
 249 0290 89153400 		movl	%edx, LPBX1+20	 # PROF_edge_counter.0, *LPBX1
 249      0000
 250              		.loc 1 97 0
 251 0296 8B0D0000 		movl	_nextcnt, %ecx	 # nextcnt.QuadPart, D.36592
 251      0000
 252 029c 8B1D0400 		movl	_nextcnt+4, %ebx	 # nextcnt.QuadPart, D.36592
 252      0000
 253 02a2 A1080000 		movl	_slice, %eax	 # slice.QuadPart, D.36593
 253      00
 254 02a7 8B150C00 		movl	_slice+4, %edx	 # slice.QuadPart, D.36593
 254      0000
 255 02ad 01C8     		addl	%ecx, %eax	 # D.36592, D.36594
 256 02af 11DA     		adcl	%ebx, %edx	 # D.36592, D.36594
 257 02b1 A3000000 		movl	%eax, _nextcnt	 # D.36594, nextcnt.QuadPart
 257      00
 258 02b6 89150400 		movl	%edx, _nextcnt+4	 # D.36594, nextcnt.QuadPart
 258      0000
 259              		.loc 1 102 0
 260 02bc E8000000 		call	_chSysTimerHandlerI	 #
 260      00
 261 02c1 A1380000 		movl	LPBX1+24, %eax	 # *LPBX1, PROF_edge_counter.0
 261      00
 262 02c6 8B153C00 		movl	LPBX1+28, %edx	 # *LPBX1, PROF_edge_counter.0
 262      0000
 263 02cc 83C001   		addl	$1, %eax	 #, PROF_edge_counter.0
 264 02cf 83D200   		adcl	$0, %edx	 #, PROF_edge_counter.0
 265 02d2 A3380000 		movl	%eax, LPBX1+24	 # PROF_edge_counter.0, *LPBX1
 265      00
 266 02d7 89153C00 		movl	%edx, LPBX1+28	 # PROF_edge_counter.0, *LPBX1
 266      0000
 267              		.loc 1 108 0
 268 02dd E8000000 		call	_chSchIsPreemptionRequired	 #
 268      00
 269 02e2 88C1     		movb	%al, %cl	 #, D.36595
 270 02e4 A1400000 		movl	LPBX1+32, %eax	 # *LPBX1, PROF_edge_counter.0
 270      00
 271 02e9 8B154400 		movl	LPBX1+36, %edx	 # *LPBX1, PROF_edge_counter.0
 271      0000
 272 02ef 83C001   		addl	$1, %eax	 #, PROF_edge_counter.0
 273 02f2 83D200   		adcl	$0, %edx	 #, PROF_edge_counter.0
 274 02f5 A3400000 		movl	%eax, LPBX1+32	 # PROF_edge_counter.0, *LPBX1
 274      00
 275 02fa 89154400 		movl	%edx, LPBX1+36	 # PROF_edge_counter.0, *LPBX1
 275      0000
 276 0300 84C9     		testb	%cl, %cl	 # D.36595
 277 0302 743D     		je	L4	 #,
 278 0304 A1480000 		movl	LPBX1+40, %eax	 # *LPBX1, PROF_edge_counter.0
 278      00
 279 0309 8B154C00 		movl	LPBX1+44, %edx	 # *LPBX1, PROF_edge_counter.0
 279      0000
GAS LISTING C:\cygwin\tmp\ccnuomUQ.s 			page 8


 280 030f 83C001   		addl	$1, %eax	 #, PROF_edge_counter.0
 281 0312 83D200   		adcl	$0, %edx	 #, PROF_edge_counter.0
 282 0315 A3480000 		movl	%eax, LPBX1+40	 # PROF_edge_counter.0, *LPBX1
 282      00
 283 031a 89154C00 		movl	%edx, LPBX1+44	 # PROF_edge_counter.0, *LPBX1
 283      0000
 284              		.loc 1 109 0
 285 0320 E8000000 		call	_chSchDoReschedule	 #
 285      00
 286 0325 A1500000 		movl	LPBX1+48, %eax	 # *LPBX1, PROF_edge_counter.0
 286      00
 287 032a 8B155400 		movl	LPBX1+52, %edx	 # *LPBX1, PROF_edge_counter.0
 287      0000
 288 0330 83C001   		addl	$1, %eax	 #, PROF_edge_counter.0
 289 0333 83D200   		adcl	$0, %edx	 #, PROF_edge_counter.0
 290 0336 A3500000 		movl	%eax, LPBX1+48	 # PROF_edge_counter.0, *LPBX1
 290      00
 291 033b 89155400 		movl	%edx, LPBX1+52	 # PROF_edge_counter.0, *LPBX1
 291      0000
 292              	L4:
 293              		.loc 1 112 0
 294 0341 83C428   		addl	$40, %esp	 #,
 295              	LCFI6:
 296              		.cfi_def_cfa_offset 8
 297 0344 5B       		popl	%ebx	 #
 298              	LCFI7:
 299              		.cfi_def_cfa_offset 4
 300              		.cfi_restore 3
 301 0345 C3       		ret
 302              		.cfi_endproc
 303              	LFE10:
 304              	.lcomm LPBX1,136,32
 305              		.section .rdata,"dr"
 306 005e 0000     		.align 4
 307              	LC3:
 308 0060 433A5C64 		.ascii "C:\\develop\\gyro\\ChibiOS\\test\\coverage/../../os/hal/platforms/Win32/hal_lld.gcda\0"
 308      6576656C 
 308      6F705C67 
 308      79726F5C 
 308      43686962 
 309              		.data
 310              		.align 4
 311              	LC4:
 312              	 # <anonymous>:
 313 0000 0B000000 		.long	11
 314              	 # <anonymous>:
 315 0004 0AD99863 		.long	1670961418
 316              	 # <anonymous>:
 317 0008 07000000 		.long	7
 318              	 # <anonymous>:
 319 000c 0A000000 		.long	10
 320              	 # <anonymous>:
 321 0010 6F390067 		.long	1728067951
 322              	 # <anonymous>:
 323 0014 0A000000 		.long	10
 324 0018 00000000 		.align 32
 324      00000000 
GAS LISTING C:\cygwin\tmp\ccnuomUQ.s 			page 9


 325              	LPBX0:
 326              	 # <anonymous>:
 327 0020 2A363034 		.long	875574826
 328              	 # <anonymous>:
 329 0024 00000000 		.long	0
 330              	 # <anonymous>:
 331 0028 91BEFA66 		.long	1727708817
 332              	 # <anonymous>:
 333 002c 60000000 		.long	LC3
 334              	 # <anonymous>:
 335 0030 02000000 		.long	2
 336              	 # <anonymous>:
 337 0034 00000000 		.long	LC4
 338              	 # <anonymous>:
 339 0038 01000000 		.long	1
 340              	 # <anonymous>:
 341              	 # <anonymous>:
 342 003c 11000000 		.long	17
 343              	 # <anonymous>:
 344 0040 20000000 		.long	LPBX1
 345              	 # <anonymous>:
 346 0044 00000000 		.long	___gcov_merge_add
 347 0048 00000000 		.space 12
 347      00000000 
 347      00000000 
 348 0054 00000000 		.text
 348      00000000 
 348      00000000 
 349              		.def	__GLOBAL__sub_I_65535_0_hal_lld_init;	.scl	3;	.type	32;	.endef
 350              	__GLOBAL__sub_I_65535_0_hal_lld_init:
 351              	LFB11:
 352              		.loc 1 112 0
 353              		.cfi_startproc
 354 0346 83EC1C   		subl	$28, %esp	 #,
 355              	LCFI8:
 356              		.cfi_def_cfa_offset 32
 357              		.loc 1 112 0
 358 0349 C7042420 		movl	$LPBX0, (%esp)	 #,
 358      000000
 359 0350 E8000000 		call	___gcov_init	 #
 359      00
 360 0355 83C41C   		addl	$28, %esp	 #,
 361              	LCFI9:
 362              		.cfi_def_cfa_offset 4
 363 0358 C3       		ret
 364              		.cfi_endproc
 365              	LFE11:
 366              		.section	.ctors,"w"
 367              		.align 4
 368 0000 46030000 		.long	__GLOBAL__sub_I_65535_0_hal_lld_init
 369              		.text
 370              	Letext0:
 371              		.file 2 "c:/mingw/bin/../lib/gcc/mingw32/4.6.2/../../../../include/windef.h"
 372              		.file 3 "c:/mingw/bin/../lib/gcc/mingw32/4.6.2/../../../../include/winnt.h"
 373              		.file 4 "c:/mingw/bin/../lib/gcc/mingw32/4.6.2/../../../../include/winsock2.h"
 374              		.file 5 "c:/mingw/bin/../lib/gcc/mingw32/4.6.2/../../../../include/stdio.h"
 375              		.file 6 "c:/mingw/bin/../lib/gcc/mingw32/4.6.2/../../../../include/wtypes.h"
GAS LISTING C:\cygwin\tmp\ccnuomUQ.s 			page 10


 376 0359 909090   		.section	.debug_info,"dr"
 377              	Ldebug_info0:
 378 0000 0D070000 		.long	0x70d
 379 0004 0200     		.word	0x2
 380 0006 00000000 		.secrel32	Ldebug_abbrev0
 381 000a 04       		.byte	0x4
 382 000b 01       		.uleb128 0x1
 383 000c 474E5520 		.ascii "GNU C 4.6.2\0"
 383      4320342E 
 383      362E3200 
 384 0018 01       		.byte	0x1
 385 0019 2E2E2F2E 		.ascii "../../os/hal/platforms/Win32/hal_lld.c\0"
 385      2E2F6F73 
 385      2F68616C 
 385      2F706C61 
 385      74666F72 
 386 0040 433A5C64 		.ascii "C:\\develop\\gyro\\ChibiOS\\test\\coverage\0"
 386      6576656C 
 386      6F705C67 
 386      79726F5C 
 386      43686962 
 387 0066 00000000 		.long	Ltext0
 388 006a 59030000 		.long	Letext0
 389 006e 00000000 		.secrel32	Ldebug_line0
 390 0072 02       		.uleb128 0x2
 391 0073 04       		.byte	0x4
 392 0074 05       		.byte	0x5
 393 0075 696E7400 		.ascii "int\0"
 394 0079 02       		.uleb128 0x2
 395 007a 04       		.byte	0x4
 396 007b 07       		.byte	0x7
 397 007c 756E7369 		.ascii "unsigned int\0"
 397      676E6564 
 397      20696E74 
 397      00
 398 0089 02       		.uleb128 0x2
 399 008a 02       		.byte	0x2
 400 008b 07       		.byte	0x7
 401 008c 73686F72 		.ascii "short unsigned int\0"
 401      7420756E 
 401      7369676E 
 401      65642069 
 401      6E7400
 402 009f 02       		.uleb128 0x2
 403 00a0 01       		.byte	0x1
 404 00a1 06       		.byte	0x6
 405 00a2 7369676E 		.ascii "signed char\0"
 405      65642063 
 405      68617200 
 406 00ae 02       		.uleb128 0x2
 407 00af 01       		.byte	0x1
 408 00b0 08       		.byte	0x8
 409 00b1 756E7369 		.ascii "unsigned char\0"
 409      676E6564 
 409      20636861 
 409      7200
 410 00bf 02       		.uleb128 0x2
GAS LISTING C:\cygwin\tmp\ccnuomUQ.s 			page 11


 411 00c0 02       		.byte	0x2
 412 00c1 05       		.byte	0x5
 413 00c2 73686F72 		.ascii "short int\0"
 413      7420696E 
 413      7400
 414 00cc 02       		.uleb128 0x2
 415 00cd 08       		.byte	0x8
 416 00ce 05       		.byte	0x5
 417 00cf 6C6F6E67 		.ascii "long long int\0"
 417      206C6F6E 
 417      6720696E 
 417      7400
 418 00dd 02       		.uleb128 0x2
 419 00de 08       		.byte	0x8
 420 00df 07       		.byte	0x7
 421 00e0 6C6F6E67 		.ascii "long long unsigned int\0"
 421      206C6F6E 
 421      6720756E 
 421      7369676E 
 421      65642069 
 422 00f7 02       		.uleb128 0x2
 423 00f8 01       		.byte	0x1
 424 00f9 02       		.byte	0x2
 425 00fa 5F426F6F 		.ascii "_Bool\0"
 425      6C00
 426 0100 02       		.uleb128 0x2
 427 0101 01       		.byte	0x1
 428 0102 06       		.byte	0x6
 429 0103 63686172 		.ascii "char\0"
 429      00
 430 0108 03       		.uleb128 0x3
 431 0109 44574F52 		.ascii "DWORD\0"
 431      4400
 432 010f 02       		.byte	0x2
 433 0110 E5       		.byte	0xe5
 434 0111 15010000 		.long	0x115
 435 0115 02       		.uleb128 0x2
 436 0116 04       		.byte	0x4
 437 0117 07       		.byte	0x7
 438 0118 6C6F6E67 		.ascii "long unsigned int\0"
 438      20756E73 
 438      69676E65 
 438      6420696E 
 438      7400
 439 012a 03       		.uleb128 0x3
 440 012b 574F5244 		.ascii "WORD\0"
 440      00
 441 0130 02       		.byte	0x2
 442 0131 F1       		.byte	0xf1
 443 0132 89000000 		.long	0x89
 444 0136 02       		.uleb128 0x2
 445 0137 04       		.byte	0x4
 446 0138 04       		.byte	0x4
 447 0139 666C6F61 		.ascii "float\0"
 447      7400
 448 013f 02       		.uleb128 0x2
 449 0140 04       		.byte	0x4
GAS LISTING C:\cygwin\tmp\ccnuomUQ.s 			page 12


 450 0141 05       		.byte	0x5
 451 0142 6C6F6E67 		.ascii "long int\0"
 451      20696E74 
 451      00
 452 014b 03       		.uleb128 0x3
 453 014c 4C4F4E47 		.ascii "LONG\0"
 453      00
 454 0151 03       		.byte	0x3
 455 0152 4F       		.byte	0x4f
 456 0153 3F010000 		.long	0x13f
 457 0157 04       		.uleb128 0x4
 458 0158 04       		.byte	0x4
 459 0159 00010000 		.long	0x100
 460 015d 03       		.uleb128 0x3
 461 015e 4C4F4E47 		.ascii "LONGLONG\0"
 461      4C4F4E47 
 461      00
 462 0167 03       		.byte	0x3
 463 0168 A7       		.byte	0xa7
 464 0169 CC000000 		.long	0xcc
 465 016d 05       		.uleb128 0x5
 466 016e 08       		.byte	0x8
 467 016f 03       		.byte	0x3
 468 0170 6F09     		.word	0x96f
 469 0172 99010000 		.long	0x199
 470 0176 06       		.uleb128 0x6
 471 0177 4C6F7750 		.ascii "LowPart\0"
 471      61727400 
 472 017f 03       		.byte	0x3
 473 0180 7009     		.word	0x970
 474 0182 08010000 		.long	0x108
 475 0186 02       		.byte	0x2
 476 0187 23       		.byte	0x23
 477 0188 00       		.uleb128 0
 478 0189 07       		.uleb128 0x7
 479 018a 00000000 		.secrel32	LASF0
 480 018e 03       		.byte	0x3
 481 018f 7109     		.word	0x971
 482 0191 4B010000 		.long	0x14b
 483 0195 02       		.byte	0x2
 484 0196 23       		.byte	0x23
 485 0197 04       		.uleb128 0x4
 486 0198 00       		.byte	0
 487 0199 05       		.uleb128 0x5
 488 019a 08       		.byte	0x8
 489 019b 03       		.byte	0x3
 490 019c 7409     		.word	0x974
 491 019e C5010000 		.long	0x1c5
 492 01a2 06       		.uleb128 0x6
 493 01a3 4C6F7750 		.ascii "LowPart\0"
 493      61727400 
 494 01ab 03       		.byte	0x3
 495 01ac 7509     		.word	0x975
 496 01ae 08010000 		.long	0x108
 497 01b2 02       		.byte	0x2
 498 01b3 23       		.byte	0x23
 499 01b4 00       		.uleb128 0
GAS LISTING C:\cygwin\tmp\ccnuomUQ.s 			page 13


 500 01b5 07       		.uleb128 0x7
 501 01b6 00000000 		.secrel32	LASF0
 502 01ba 03       		.byte	0x3
 503 01bb 7609     		.word	0x976
 504 01bd 4B010000 		.long	0x14b
 505 01c1 02       		.byte	0x2
 506 01c2 23       		.byte	0x23
 507 01c3 04       		.uleb128 0x4
 508 01c4 00       		.byte	0
 509 01c5 08       		.uleb128 0x8
 510 01c6 5F4C4152 		.ascii "_LARGE_INTEGER\0"
 510      47455F49 
 510      4E544547 
 510      455200
 511 01d5 08       		.byte	0x8
 512 01d6 03       		.byte	0x3
 513 01d7 6E09     		.word	0x96e
 514 01d9 FE010000 		.long	0x1fe
 515 01dd 09       		.uleb128 0x9
 516 01de 7500     		.ascii "u\0"
 517 01e0 03       		.byte	0x3
 518 01e1 7209     		.word	0x972
 519 01e3 6D010000 		.long	0x16d
 520 01e7 0A       		.uleb128 0xa
 521 01e8 99010000 		.long	0x199
 522 01ec 09       		.uleb128 0x9
 523 01ed 51756164 		.ascii "QuadPart\0"
 523      50617274 
 523      00
 524 01f6 03       		.byte	0x3
 525 01f7 7909     		.word	0x979
 526 01f9 5D010000 		.long	0x15d
 527 01fd 00       		.byte	0
 528 01fe 0B       		.uleb128 0xb
 529 01ff 4C415247 		.ascii "LARGE_INTEGER\0"
 529      455F494E 
 529      54454745 
 529      5200
 530 020d 03       		.byte	0x3
 531 020e 7A09     		.word	0x97a
 532 0210 C5010000 		.long	0x1c5
 533 0214 0C       		.uleb128 0xc
 534 0215 57534144 		.ascii "WSAData\0"
 534      61746100 
 535 021d 9001     		.word	0x190
 536 021f 04       		.byte	0x4
 537 0220 0601     		.word	0x106
 538 0222 CE020000 		.long	0x2ce
 539 0226 06       		.uleb128 0x6
 540 0227 77566572 		.ascii "wVersion\0"
 540      73696F6E 
 540      00
 541 0230 04       		.byte	0x4
 542 0231 0701     		.word	0x107
 543 0233 2A010000 		.long	0x12a
 544 0237 02       		.byte	0x2
 545 0238 23       		.byte	0x23
GAS LISTING C:\cygwin\tmp\ccnuomUQ.s 			page 14


 546 0239 00       		.uleb128 0
 547 023a 06       		.uleb128 0x6
 548 023b 77486967 		.ascii "wHighVersion\0"
 548      68566572 
 548      73696F6E 
 548      00
 549 0248 04       		.byte	0x4
 550 0249 0801     		.word	0x108
 551 024b 2A010000 		.long	0x12a
 552 024f 02       		.byte	0x2
 553 0250 23       		.byte	0x23
 554 0251 02       		.uleb128 0x2
 555 0252 06       		.uleb128 0x6
 556 0253 737A4465 		.ascii "szDescription\0"
 556      73637269 
 556      7074696F 
 556      6E00
 557 0261 04       		.byte	0x4
 558 0262 0901     		.word	0x109
 559 0264 CE020000 		.long	0x2ce
 560 0268 02       		.byte	0x2
 561 0269 23       		.byte	0x23
 562 026a 04       		.uleb128 0x4
 563 026b 06       		.uleb128 0x6
 564 026c 737A5379 		.ascii "szSystemStatus\0"
 564      7374656D 
 564      53746174 
 564      757300
 565 027b 04       		.byte	0x4
 566 027c 0A01     		.word	0x10a
 567 027e DF020000 		.long	0x2df
 568 0282 03       		.byte	0x3
 569 0283 23       		.byte	0x23
 570 0284 8502     		.uleb128 0x105
 571 0286 06       		.uleb128 0x6
 572 0287 694D6178 		.ascii "iMaxSockets\0"
 572      536F636B 
 572      65747300 
 573 0293 04       		.byte	0x4
 574 0294 0B01     		.word	0x10b
 575 0296 89000000 		.long	0x89
 576 029a 03       		.byte	0x3
 577 029b 23       		.byte	0x23
 578 029c 8603     		.uleb128 0x186
 579 029e 06       		.uleb128 0x6
 580 029f 694D6178 		.ascii "iMaxUdpDg\0"
 580      55647044 
 580      6700
 581 02a9 04       		.byte	0x4
 582 02aa 0C01     		.word	0x10c
 583 02ac 89000000 		.long	0x89
 584 02b0 03       		.byte	0x3
 585 02b1 23       		.byte	0x23
 586 02b2 8803     		.uleb128 0x188
 587 02b4 06       		.uleb128 0x6
 588 02b5 6C705665 		.ascii "lpVendorInfo\0"
 588      6E646F72 
GAS LISTING C:\cygwin\tmp\ccnuomUQ.s 			page 15


 588      496E666F 
 588      00
 589 02c2 04       		.byte	0x4
 590 02c3 0D01     		.word	0x10d
 591 02c5 57010000 		.long	0x157
 592 02c9 03       		.byte	0x3
 593 02ca 23       		.byte	0x23
 594 02cb 8C03     		.uleb128 0x18c
 595 02cd 00       		.byte	0
 596 02ce 0D       		.uleb128 0xd
 597 02cf 00010000 		.long	0x100
 598 02d3 DF020000 		.long	0x2df
 599 02d7 0E       		.uleb128 0xe
 600 02d8 79000000 		.long	0x79
 601 02dc 0001     		.word	0x100
 602 02de 00       		.byte	0
 603 02df 0D       		.uleb128 0xd
 604 02e0 00010000 		.long	0x100
 605 02e4 EF020000 		.long	0x2ef
 606 02e8 0F       		.uleb128 0xf
 607 02e9 79000000 		.long	0x79
 608 02ed 80       		.byte	0x80
 609 02ee 00       		.byte	0
 610 02ef 0B       		.uleb128 0xb
 611 02f0 57534144 		.ascii "WSADATA\0"
 611      41544100 
 612 02f8 04       		.byte	0x4
 613 02f9 0E01     		.word	0x10e
 614 02fb 14020000 		.long	0x214
 615 02ff 02       		.uleb128 0x2
 616 0300 08       		.byte	0x8
 617 0301 04       		.byte	0x4
 618 0302 646F7562 		.ascii "double\0"
 618      6C6500
 619 0309 10       		.uleb128 0x10
 620 030a 56415245 		.ascii "VARENUM\0"
 620      4E554D00 
 621 0312 04       		.byte	0x4
 622 0313 06       		.byte	0x6
 623 0314 73       		.byte	0x73
 624 0315 85050000 		.long	0x585
 625 0319 11       		.uleb128 0x11
 626 031a 56545F45 		.ascii "VT_EMPTY\0"
 626      4D505459 
 626      00
 627 0323 00       		.sleb128 0
 628 0324 11       		.uleb128 0x11
 629 0325 56545F4E 		.ascii "VT_NULL\0"
 629      554C4C00 
 630 032d 01       		.sleb128 1
 631 032e 11       		.uleb128 0x11
 632 032f 56545F49 		.ascii "VT_I2\0"
 632      3200
 633 0335 02       		.sleb128 2
 634 0336 11       		.uleb128 0x11
 635 0337 56545F49 		.ascii "VT_I4\0"
 635      3400
GAS LISTING C:\cygwin\tmp\ccnuomUQ.s 			page 16


 636 033d 03       		.sleb128 3
 637 033e 11       		.uleb128 0x11
 638 033f 56545F52 		.ascii "VT_R4\0"
 638      3400
 639 0345 04       		.sleb128 4
 640 0346 11       		.uleb128 0x11
 641 0347 56545F52 		.ascii "VT_R8\0"
 641      3800
 642 034d 05       		.sleb128 5
 643 034e 11       		.uleb128 0x11
 644 034f 56545F43 		.ascii "VT_CY\0"
 644      5900
 645 0355 06       		.sleb128 6
 646 0356 11       		.uleb128 0x11
 647 0357 56545F44 		.ascii "VT_DATE\0"
 647      41544500 
 648 035f 07       		.sleb128 7
 649 0360 11       		.uleb128 0x11
 650 0361 56545F42 		.ascii "VT_BSTR\0"
 650      53545200 
 651 0369 08       		.sleb128 8
 652 036a 11       		.uleb128 0x11
 653 036b 56545F44 		.ascii "VT_DISPATCH\0"
 653      49535041 
 653      54434800 
 654 0377 09       		.sleb128 9
 655 0378 11       		.uleb128 0x11
 656 0379 56545F45 		.ascii "VT_ERROR\0"
 656      52524F52 
 656      00
 657 0382 0A       		.sleb128 10
 658 0383 11       		.uleb128 0x11
 659 0384 56545F42 		.ascii "VT_BOOL\0"
 659      4F4F4C00 
 660 038c 0B       		.sleb128 11
 661 038d 11       		.uleb128 0x11
 662 038e 56545F56 		.ascii "VT_VARIANT\0"
 662      41524941 
 662      4E5400
 663 0399 0C       		.sleb128 12
 664 039a 11       		.uleb128 0x11
 665 039b 56545F55 		.ascii "VT_UNKNOWN\0"
 665      4E4B4E4F 
 665      574E00
 666 03a6 0D       		.sleb128 13
 667 03a7 11       		.uleb128 0x11
 668 03a8 56545F44 		.ascii "VT_DECIMAL\0"
 668      4543494D 
 668      414C00
 669 03b3 0E       		.sleb128 14
 670 03b4 11       		.uleb128 0x11
 671 03b5 56545F49 		.ascii "VT_I1\0"
 671      3100
 672 03bb 10       		.sleb128 16
 673 03bc 11       		.uleb128 0x11
 674 03bd 56545F55 		.ascii "VT_UI1\0"
 674      493100
GAS LISTING C:\cygwin\tmp\ccnuomUQ.s 			page 17


 675 03c4 11       		.sleb128 17
 676 03c5 11       		.uleb128 0x11
 677 03c6 56545F55 		.ascii "VT_UI2\0"
 677      493200
 678 03cd 12       		.sleb128 18
 679 03ce 11       		.uleb128 0x11
 680 03cf 56545F55 		.ascii "VT_UI4\0"
 680      493400
 681 03d6 13       		.sleb128 19
 682 03d7 11       		.uleb128 0x11
 683 03d8 56545F49 		.ascii "VT_I8\0"
 683      3800
 684 03de 14       		.sleb128 20
 685 03df 11       		.uleb128 0x11
 686 03e0 56545F55 		.ascii "VT_UI8\0"
 686      493800
 687 03e7 15       		.sleb128 21
 688 03e8 11       		.uleb128 0x11
 689 03e9 56545F49 		.ascii "VT_INT\0"
 689      4E5400
 690 03f0 16       		.sleb128 22
 691 03f1 11       		.uleb128 0x11
 692 03f2 56545F55 		.ascii "VT_UINT\0"
 692      494E5400 
 693 03fa 17       		.sleb128 23
 694 03fb 11       		.uleb128 0x11
 695 03fc 56545F56 		.ascii "VT_VOID\0"
 695      4F494400 
 696 0404 18       		.sleb128 24
 697 0405 11       		.uleb128 0x11
 698 0406 56545F48 		.ascii "VT_HRESULT\0"
 698      52455355 
 698      4C5400
 699 0411 19       		.sleb128 25
 700 0412 11       		.uleb128 0x11
 701 0413 56545F50 		.ascii "VT_PTR\0"
 701      545200
 702 041a 1A       		.sleb128 26
 703 041b 11       		.uleb128 0x11
 704 041c 56545F53 		.ascii "VT_SAFEARRAY\0"
 704      41464541 
 704      52524159 
 704      00
 705 0429 1B       		.sleb128 27
 706 042a 11       		.uleb128 0x11
 707 042b 56545F43 		.ascii "VT_CARRAY\0"
 707      41525241 
 707      5900
 708 0435 1C       		.sleb128 28
 709 0436 11       		.uleb128 0x11
 710 0437 56545F55 		.ascii "VT_USERDEFINED\0"
 710      53455244 
 710      4546494E 
 710      454400
 711 0446 1D       		.sleb128 29
 712 0447 11       		.uleb128 0x11
 713 0448 56545F4C 		.ascii "VT_LPSTR\0"
GAS LISTING C:\cygwin\tmp\ccnuomUQ.s 			page 18


 713      50535452 
 713      00
 714 0451 1E       		.sleb128 30
 715 0452 11       		.uleb128 0x11
 716 0453 56545F4C 		.ascii "VT_LPWSTR\0"
 716      50575354 
 716      5200
 717 045d 1F       		.sleb128 31
 718 045e 11       		.uleb128 0x11
 719 045f 56545F52 		.ascii "VT_RECORD\0"
 719      45434F52 
 719      4400
 720 0469 24       		.sleb128 36
 721 046a 11       		.uleb128 0x11
 722 046b 56545F49 		.ascii "VT_INT_PTR\0"
 722      4E545F50 
 722      545200
 723 0476 25       		.sleb128 37
 724 0477 11       		.uleb128 0x11
 725 0478 56545F55 		.ascii "VT_UINT_PTR\0"
 725      494E545F 
 725      50545200 
 726 0484 26       		.sleb128 38
 727 0485 11       		.uleb128 0x11
 728 0486 56545F46 		.ascii "VT_FILETIME\0"
 728      494C4554 
 728      494D4500 
 729 0492 C000     		.sleb128 64
 730 0494 11       		.uleb128 0x11
 731 0495 56545F42 		.ascii "VT_BLOB\0"
 731      4C4F4200 
 732 049d C100     		.sleb128 65
 733 049f 11       		.uleb128 0x11
 734 04a0 56545F53 		.ascii "VT_STREAM\0"
 734      54524541 
 734      4D00
 735 04aa C200     		.sleb128 66
 736 04ac 11       		.uleb128 0x11
 737 04ad 56545F53 		.ascii "VT_STORAGE\0"
 737      544F5241 
 737      474500
 738 04b8 C300     		.sleb128 67
 739 04ba 11       		.uleb128 0x11
 740 04bb 56545F53 		.ascii "VT_STREAMED_OBJECT\0"
 740      54524541 
 740      4D45445F 
 740      4F424A45 
 740      435400
 741 04ce C400     		.sleb128 68
 742 04d0 11       		.uleb128 0x11
 743 04d1 56545F53 		.ascii "VT_STORED_OBJECT\0"
 743      544F5245 
 743      445F4F42 
 743      4A454354 
 743      00
 744 04e2 C500     		.sleb128 69
 745 04e4 11       		.uleb128 0x11
GAS LISTING C:\cygwin\tmp\ccnuomUQ.s 			page 19


 746 04e5 56545F42 		.ascii "VT_BLOB_OBJECT\0"
 746      4C4F425F 
 746      4F424A45 
 746      435400
 747 04f4 C600     		.sleb128 70
 748 04f6 11       		.uleb128 0x11
 749 04f7 56545F43 		.ascii "VT_CF\0"
 749      4600
 750 04fd C700     		.sleb128 71
 751 04ff 11       		.uleb128 0x11
 752 0500 56545F43 		.ascii "VT_CLSID\0"
 752      4C534944 
 752      00
 753 0509 C800     		.sleb128 72
 754 050b 11       		.uleb128 0x11
 755 050c 56545F42 		.ascii "VT_BSTR_BLOB\0"
 755      5354525F 
 755      424C4F42 
 755      00
 756 0519 FF1F     		.sleb128 4095
 757 051b 11       		.uleb128 0x11
 758 051c 56545F56 		.ascii "VT_VECTOR\0"
 758      4543544F 
 758      5200
 759 0526 8020     		.sleb128 4096
 760 0528 11       		.uleb128 0x11
 761 0529 56545F41 		.ascii "VT_ARRAY\0"
 761      52524159 
 761      00
 762 0532 80C000   		.sleb128 8192
 763 0535 11       		.uleb128 0x11
 764 0536 56545F42 		.ascii "VT_BYREF\0"
 764      59524546 
 764      00
 765 053f 808001   		.sleb128 16384
 766 0542 11       		.uleb128 0x11
 767 0543 56545F52 		.ascii "VT_RESERVED\0"
 767      45534552 
 767      56454400 
 768 054f 808002   		.sleb128 32768
 769 0552 11       		.uleb128 0x11
 770 0553 56545F49 		.ascii "VT_ILLEGAL\0"
 770      4C4C4547 
 770      414C00
 771 055e FFFF03   		.sleb128 65535
 772 0561 11       		.uleb128 0x11
 773 0562 56545F49 		.ascii "VT_ILLEGALMASKED\0"
 773      4C4C4547 
 773      414C4D41 
 773      534B4544 
 773      00
 774 0573 FF1F     		.sleb128 4095
 775 0575 11       		.uleb128 0x11
 776 0576 56545F54 		.ascii "VT_TYPEMASK\0"
 776      5950454D 
 776      41534B00 
 777 0582 FF1F     		.sleb128 4095
GAS LISTING C:\cygwin\tmp\ccnuomUQ.s 			page 20


 778 0584 00       		.byte	0
 779 0585 12       		.uleb128 0x12
 780 0586 5F696F62 		.ascii "_iobuf\0"
 780      756600
 781 058d 20       		.byte	0x20
 782 058e 05       		.byte	0x5
 783 058f 81       		.byte	0x81
 784 0590 1C060000 		.long	0x61c
 785 0594 13       		.uleb128 0x13
 786 0595 5F707472 		.ascii "_ptr\0"
 786      00
 787 059a 05       		.byte	0x5
 788 059b 83       		.byte	0x83
 789 059c 57010000 		.long	0x157
 790 05a0 02       		.byte	0x2
 791 05a1 23       		.byte	0x23
 792 05a2 00       		.uleb128 0
 793 05a3 13       		.uleb128 0x13
 794 05a4 5F636E74 		.ascii "_cnt\0"
 794      00
 795 05a9 05       		.byte	0x5
 796 05aa 84       		.byte	0x84
 797 05ab 72000000 		.long	0x72
 798 05af 02       		.byte	0x2
 799 05b0 23       		.byte	0x23
 800 05b1 04       		.uleb128 0x4
 801 05b2 13       		.uleb128 0x13
 802 05b3 5F626173 		.ascii "_base\0"
 802      6500
 803 05b9 05       		.byte	0x5
 804 05ba 85       		.byte	0x85
 805 05bb 57010000 		.long	0x157
 806 05bf 02       		.byte	0x2
 807 05c0 23       		.byte	0x23
 808 05c1 08       		.uleb128 0x8
 809 05c2 13       		.uleb128 0x13
 810 05c3 5F666C61 		.ascii "_flag\0"
 810      6700
 811 05c9 05       		.byte	0x5
 812 05ca 86       		.byte	0x86
 813 05cb 72000000 		.long	0x72
 814 05cf 02       		.byte	0x2
 815 05d0 23       		.byte	0x23
 816 05d1 0C       		.uleb128 0xc
 817 05d2 13       		.uleb128 0x13
 818 05d3 5F66696C 		.ascii "_file\0"
 818      6500
 819 05d9 05       		.byte	0x5
 820 05da 87       		.byte	0x87
 821 05db 72000000 		.long	0x72
 822 05df 02       		.byte	0x2
 823 05e0 23       		.byte	0x23
 824 05e1 10       		.uleb128 0x10
 825 05e2 13       		.uleb128 0x13
 826 05e3 5F636861 		.ascii "_charbuf\0"
 826      72627566 
 826      00
GAS LISTING C:\cygwin\tmp\ccnuomUQ.s 			page 21


 827 05ec 05       		.byte	0x5
 828 05ed 88       		.byte	0x88
 829 05ee 72000000 		.long	0x72
 830 05f2 02       		.byte	0x2
 831 05f3 23       		.byte	0x23
 832 05f4 14       		.uleb128 0x14
 833 05f5 13       		.uleb128 0x13
 834 05f6 5F627566 		.ascii "_bufsiz\0"
 834      73697A00 
 835 05fe 05       		.byte	0x5
 836 05ff 89       		.byte	0x89
 837 0600 72000000 		.long	0x72
 838 0604 02       		.byte	0x2
 839 0605 23       		.byte	0x23
 840 0606 18       		.uleb128 0x18
 841 0607 13       		.uleb128 0x13
 842 0608 5F746D70 		.ascii "_tmpfname\0"
 842      666E616D 
 842      6500
 843 0612 05       		.byte	0x5
 844 0613 8A       		.byte	0x8a
 845 0614 57010000 		.long	0x157
 846 0618 02       		.byte	0x2
 847 0619 23       		.byte	0x23
 848 061a 1C       		.uleb128 0x1c
 849 061b 00       		.byte	0
 850 061c 03       		.uleb128 0x3
 851 061d 46494C45 		.ascii "FILE\0"
 851      00
 852 0622 05       		.byte	0x5
 853 0623 8B       		.byte	0x8b
 854 0624 85050000 		.long	0x585
 855 0628 14       		.uleb128 0x14
 856 0629 01       		.byte	0x1
 857 062a 68616C5F 		.ascii "hal_lld_init\0"
 857      6C6C645F 
 857      696E6974 
 857      00
 858 0637 01       		.byte	0x1
 859 0638 39       		.byte	0x39
 860 0639 01       		.byte	0x1
 861 063a 00000000 		.long	LFB9
 862 063e 08020000 		.long	LFE9
 863 0642 00000000 		.secrel32	LLST0
 864 0646 5E060000 		.long	0x65e
 865 064a 15       		.uleb128 0x15
 866 064b 77736144 		.ascii "wsaData\0"
 866      61746100 
 867 0653 01       		.byte	0x1
 868 0654 3A       		.byte	0x3a
 869 0655 EF020000 		.long	0x2ef
 870 0659 03       		.byte	0x3
 871 065a 91       		.byte	0x91
 872 065b E07C     		.sleb128 -416
 873 065d 00       		.byte	0
 874 065e 14       		.uleb128 0x14
 875 065f 01       		.byte	0x1
GAS LISTING C:\cygwin\tmp\ccnuomUQ.s 			page 22


 876 0660 43686B49 		.ascii "ChkIntSources\0"
 876      6E74536F 
 876      75726365 
 876      7300
 877 066e 01       		.byte	0x1
 878 066f 51       		.byte	0x51
 879 0670 01       		.byte	0x1
 880 0671 08020000 		.long	LFB10
 881 0675 46030000 		.long	LFE10
 882 0679 45000000 		.secrel32	LLST1
 883 067d 8E060000 		.long	0x68e
 884 0681 15       		.uleb128 0x15
 885 0682 6E00     		.ascii "n\0"
 886 0684 01       		.byte	0x1
 887 0685 52       		.byte	0x52
 888 0686 FE010000 		.long	0x1fe
 889 068a 02       		.byte	0x2
 890 068b 91       		.byte	0x91
 891 068c 68       		.sleb128 -24
 892 068d 00       		.byte	0
 893 068e 16       		.uleb128 0x16
 894 068f 5F474C4F 		.ascii "_GLOBAL__sub_I_65535_0_hal_lld_init\0"
 894      42414C5F 
 894      5F737562 
 894      5F495F36 
 894      35353335 
 895 06b3 01       		.byte	0x1
 896 06b4 01       		.byte	0x1
 897 06b5 46030000 		.long	LFB11
 898 06b9 59030000 		.long	LFE11
 899 06bd 89000000 		.secrel32	LLST2
 900 06c1 0D       		.uleb128 0xd
 901 06c2 1C060000 		.long	0x61c
 902 06c6 CC060000 		.long	0x6cc
 903 06ca 17       		.uleb128 0x17
 904 06cb 00       		.byte	0
 905 06cc 18       		.uleb128 0x18
 906 06cd 5F696F62 		.ascii "_iob\0"
 906      00
 907 06d2 05       		.byte	0x5
 908 06d3 9A       		.byte	0x9a
 909 06d4 C1060000 		.long	0x6c1
 910 06d8 01       		.byte	0x1
 911 06d9 01       		.byte	0x1
 912 06da 15       		.uleb128 0x15
 913 06db 6E657874 		.ascii "nextcnt\0"
 913      636E7400 
 914 06e3 01       		.byte	0x1
 915 06e4 27       		.byte	0x27
 916 06e5 FE010000 		.long	0x1fe
 917 06e9 05       		.byte	0x5
 918 06ea 03       		.byte	0x3
 919 06eb 00000000 		.long	_nextcnt
 920 06ef 15       		.uleb128 0x15
 921 06f0 736C6963 		.ascii "slice\0"
 921      6500
 922 06f6 01       		.byte	0x1
GAS LISTING C:\cygwin\tmp\ccnuomUQ.s 			page 23


 923 06f7 28       		.byte	0x28
 924 06f8 FE010000 		.long	0x1fe
 925 06fc 05       		.byte	0x5
 926 06fd 03       		.byte	0x3
 927 06fe 08000000 		.long	_slice
 928 0702 18       		.uleb128 0x18
 929 0703 5F696F62 		.ascii "_iob\0"
 929      00
 930 0708 05       		.byte	0x5
 931 0709 9A       		.byte	0x9a
 932 070a C1060000 		.long	0x6c1
 933 070e 01       		.byte	0x1
 934 070f 01       		.byte	0x1
 935 0710 00       		.byte	0
 936              		.section	.debug_abbrev,"dr"
 937              	Ldebug_abbrev0:
 938 0000 01       		.uleb128 0x1
 939 0001 11       		.uleb128 0x11
 940 0002 01       		.byte	0x1
 941 0003 25       		.uleb128 0x25
 942 0004 08       		.uleb128 0x8
 943 0005 13       		.uleb128 0x13
 944 0006 0B       		.uleb128 0xb
 945 0007 03       		.uleb128 0x3
 946 0008 08       		.uleb128 0x8
 947 0009 1B       		.uleb128 0x1b
 948 000a 08       		.uleb128 0x8
 949 000b 11       		.uleb128 0x11
 950 000c 01       		.uleb128 0x1
 951 000d 12       		.uleb128 0x12
 952 000e 01       		.uleb128 0x1
 953 000f 10       		.uleb128 0x10
 954 0010 06       		.uleb128 0x6
 955 0011 00       		.byte	0
 956 0012 00       		.byte	0
 957 0013 02       		.uleb128 0x2
 958 0014 24       		.uleb128 0x24
 959 0015 00       		.byte	0
 960 0016 0B       		.uleb128 0xb
 961 0017 0B       		.uleb128 0xb
 962 0018 3E       		.uleb128 0x3e
 963 0019 0B       		.uleb128 0xb
 964 001a 03       		.uleb128 0x3
 965 001b 08       		.uleb128 0x8
 966 001c 00       		.byte	0
 967 001d 00       		.byte	0
 968 001e 03       		.uleb128 0x3
 969 001f 16       		.uleb128 0x16
 970 0020 00       		.byte	0
 971 0021 03       		.uleb128 0x3
 972 0022 08       		.uleb128 0x8
 973 0023 3A       		.uleb128 0x3a
 974 0024 0B       		.uleb128 0xb
 975 0025 3B       		.uleb128 0x3b
 976 0026 0B       		.uleb128 0xb
 977 0027 49       		.uleb128 0x49
 978 0028 13       		.uleb128 0x13
GAS LISTING C:\cygwin\tmp\ccnuomUQ.s 			page 24


 979 0029 00       		.byte	0
 980 002a 00       		.byte	0
 981 002b 04       		.uleb128 0x4
 982 002c 0F       		.uleb128 0xf
 983 002d 00       		.byte	0
 984 002e 0B       		.uleb128 0xb
 985 002f 0B       		.uleb128 0xb
 986 0030 49       		.uleb128 0x49
 987 0031 13       		.uleb128 0x13
 988 0032 00       		.byte	0
 989 0033 00       		.byte	0
 990 0034 05       		.uleb128 0x5
 991 0035 13       		.uleb128 0x13
 992 0036 01       		.byte	0x1
 993 0037 0B       		.uleb128 0xb
 994 0038 0B       		.uleb128 0xb
 995 0039 3A       		.uleb128 0x3a
 996 003a 0B       		.uleb128 0xb
 997 003b 3B       		.uleb128 0x3b
 998 003c 05       		.uleb128 0x5
 999 003d 01       		.uleb128 0x1
 1000 003e 13       		.uleb128 0x13
 1001 003f 00       		.byte	0
 1002 0040 00       		.byte	0
 1003 0041 06       		.uleb128 0x6
 1004 0042 0D       		.uleb128 0xd
 1005 0043 00       		.byte	0
 1006 0044 03       		.uleb128 0x3
 1007 0045 08       		.uleb128 0x8
 1008 0046 3A       		.uleb128 0x3a
 1009 0047 0B       		.uleb128 0xb
 1010 0048 3B       		.uleb128 0x3b
 1011 0049 05       		.uleb128 0x5
 1012 004a 49       		.uleb128 0x49
 1013 004b 13       		.uleb128 0x13
 1014 004c 38       		.uleb128 0x38
 1015 004d 0A       		.uleb128 0xa
 1016 004e 00       		.byte	0
 1017 004f 00       		.byte	0
 1018 0050 07       		.uleb128 0x7
 1019 0051 0D       		.uleb128 0xd
 1020 0052 00       		.byte	0
 1021 0053 03       		.uleb128 0x3
 1022 0054 0E       		.uleb128 0xe
 1023 0055 3A       		.uleb128 0x3a
 1024 0056 0B       		.uleb128 0xb
 1025 0057 3B       		.uleb128 0x3b
 1026 0058 05       		.uleb128 0x5
 1027 0059 49       		.uleb128 0x49
 1028 005a 13       		.uleb128 0x13
 1029 005b 38       		.uleb128 0x38
 1030 005c 0A       		.uleb128 0xa
 1031 005d 00       		.byte	0
 1032 005e 00       		.byte	0
 1033 005f 08       		.uleb128 0x8
 1034 0060 17       		.uleb128 0x17
 1035 0061 01       		.byte	0x1
GAS LISTING C:\cygwin\tmp\ccnuomUQ.s 			page 25


 1036 0062 03       		.uleb128 0x3
 1037 0063 08       		.uleb128 0x8
 1038 0064 0B       		.uleb128 0xb
 1039 0065 0B       		.uleb128 0xb
 1040 0066 3A       		.uleb128 0x3a
 1041 0067 0B       		.uleb128 0xb
 1042 0068 3B       		.uleb128 0x3b
 1043 0069 05       		.uleb128 0x5
 1044 006a 01       		.uleb128 0x1
 1045 006b 13       		.uleb128 0x13
 1046 006c 00       		.byte	0
 1047 006d 00       		.byte	0
 1048 006e 09       		.uleb128 0x9
 1049 006f 0D       		.uleb128 0xd
 1050 0070 00       		.byte	0
 1051 0071 03       		.uleb128 0x3
 1052 0072 08       		.uleb128 0x8
 1053 0073 3A       		.uleb128 0x3a
 1054 0074 0B       		.uleb128 0xb
 1055 0075 3B       		.uleb128 0x3b
 1056 0076 05       		.uleb128 0x5
 1057 0077 49       		.uleb128 0x49
 1058 0078 13       		.uleb128 0x13
 1059 0079 00       		.byte	0
 1060 007a 00       		.byte	0
 1061 007b 0A       		.uleb128 0xa
 1062 007c 0D       		.uleb128 0xd
 1063 007d 00       		.byte	0
 1064 007e 49       		.uleb128 0x49
 1065 007f 13       		.uleb128 0x13
 1066 0080 00       		.byte	0
 1067 0081 00       		.byte	0
 1068 0082 0B       		.uleb128 0xb
 1069 0083 16       		.uleb128 0x16
 1070 0084 00       		.byte	0
 1071 0085 03       		.uleb128 0x3
 1072 0086 08       		.uleb128 0x8
 1073 0087 3A       		.uleb128 0x3a
 1074 0088 0B       		.uleb128 0xb
 1075 0089 3B       		.uleb128 0x3b
 1076 008a 05       		.uleb128 0x5
 1077 008b 49       		.uleb128 0x49
 1078 008c 13       		.uleb128 0x13
 1079 008d 00       		.byte	0
 1080 008e 00       		.byte	0
 1081 008f 0C       		.uleb128 0xc
 1082 0090 13       		.uleb128 0x13
 1083 0091 01       		.byte	0x1
 1084 0092 03       		.uleb128 0x3
 1085 0093 08       		.uleb128 0x8
 1086 0094 0B       		.uleb128 0xb
 1087 0095 05       		.uleb128 0x5
 1088 0096 3A       		.uleb128 0x3a
 1089 0097 0B       		.uleb128 0xb
 1090 0098 3B       		.uleb128 0x3b
 1091 0099 05       		.uleb128 0x5
 1092 009a 01       		.uleb128 0x1
GAS LISTING C:\cygwin\tmp\ccnuomUQ.s 			page 26


 1093 009b 13       		.uleb128 0x13
 1094 009c 00       		.byte	0
 1095 009d 00       		.byte	0
 1096 009e 0D       		.uleb128 0xd
 1097 009f 01       		.uleb128 0x1
 1098 00a0 01       		.byte	0x1
 1099 00a1 49       		.uleb128 0x49
 1100 00a2 13       		.uleb128 0x13
 1101 00a3 01       		.uleb128 0x1
 1102 00a4 13       		.uleb128 0x13
 1103 00a5 00       		.byte	0
 1104 00a6 00       		.byte	0
 1105 00a7 0E       		.uleb128 0xe
 1106 00a8 21       		.uleb128 0x21
 1107 00a9 00       		.byte	0
 1108 00aa 49       		.uleb128 0x49
 1109 00ab 13       		.uleb128 0x13
 1110 00ac 2F       		.uleb128 0x2f
 1111 00ad 05       		.uleb128 0x5
 1112 00ae 00       		.byte	0
 1113 00af 00       		.byte	0
 1114 00b0 0F       		.uleb128 0xf
 1115 00b1 21       		.uleb128 0x21
 1116 00b2 00       		.byte	0
 1117 00b3 49       		.uleb128 0x49
 1118 00b4 13       		.uleb128 0x13
 1119 00b5 2F       		.uleb128 0x2f
 1120 00b6 0B       		.uleb128 0xb
 1121 00b7 00       		.byte	0
 1122 00b8 00       		.byte	0
 1123 00b9 10       		.uleb128 0x10
 1124 00ba 04       		.uleb128 0x4
 1125 00bb 01       		.byte	0x1
 1126 00bc 03       		.uleb128 0x3
 1127 00bd 08       		.uleb128 0x8
 1128 00be 0B       		.uleb128 0xb
 1129 00bf 0B       		.uleb128 0xb
 1130 00c0 3A       		.uleb128 0x3a
 1131 00c1 0B       		.uleb128 0xb
 1132 00c2 3B       		.uleb128 0x3b
 1133 00c3 0B       		.uleb128 0xb
 1134 00c4 01       		.uleb128 0x1
 1135 00c5 13       		.uleb128 0x13
 1136 00c6 00       		.byte	0
 1137 00c7 00       		.byte	0
 1138 00c8 11       		.uleb128 0x11
 1139 00c9 28       		.uleb128 0x28
 1140 00ca 00       		.byte	0
 1141 00cb 03       		.uleb128 0x3
 1142 00cc 08       		.uleb128 0x8
 1143 00cd 1C       		.uleb128 0x1c
 1144 00ce 0D       		.uleb128 0xd
 1145 00cf 00       		.byte	0
 1146 00d0 00       		.byte	0
 1147 00d1 12       		.uleb128 0x12
 1148 00d2 13       		.uleb128 0x13
 1149 00d3 01       		.byte	0x1
GAS LISTING C:\cygwin\tmp\ccnuomUQ.s 			page 27


 1150 00d4 03       		.uleb128 0x3
 1151 00d5 08       		.uleb128 0x8
 1152 00d6 0B       		.uleb128 0xb
 1153 00d7 0B       		.uleb128 0xb
 1154 00d8 3A       		.uleb128 0x3a
 1155 00d9 0B       		.uleb128 0xb
 1156 00da 3B       		.uleb128 0x3b
 1157 00db 0B       		.uleb128 0xb
 1158 00dc 01       		.uleb128 0x1
 1159 00dd 13       		.uleb128 0x13
 1160 00de 00       		.byte	0
 1161 00df 00       		.byte	0
 1162 00e0 13       		.uleb128 0x13
 1163 00e1 0D       		.uleb128 0xd
 1164 00e2 00       		.byte	0
 1165 00e3 03       		.uleb128 0x3
 1166 00e4 08       		.uleb128 0x8
 1167 00e5 3A       		.uleb128 0x3a
 1168 00e6 0B       		.uleb128 0xb
 1169 00e7 3B       		.uleb128 0x3b
 1170 00e8 0B       		.uleb128 0xb
 1171 00e9 49       		.uleb128 0x49
 1172 00ea 13       		.uleb128 0x13
 1173 00eb 38       		.uleb128 0x38
 1174 00ec 0A       		.uleb128 0xa
 1175 00ed 00       		.byte	0
 1176 00ee 00       		.byte	0
 1177 00ef 14       		.uleb128 0x14
 1178 00f0 2E       		.uleb128 0x2e
 1179 00f1 01       		.byte	0x1
 1180 00f2 3F       		.uleb128 0x3f
 1181 00f3 0C       		.uleb128 0xc
 1182 00f4 03       		.uleb128 0x3
 1183 00f5 08       		.uleb128 0x8
 1184 00f6 3A       		.uleb128 0x3a
 1185 00f7 0B       		.uleb128 0xb
 1186 00f8 3B       		.uleb128 0x3b
 1187 00f9 0B       		.uleb128 0xb
 1188 00fa 27       		.uleb128 0x27
 1189 00fb 0C       		.uleb128 0xc
 1190 00fc 11       		.uleb128 0x11
 1191 00fd 01       		.uleb128 0x1
 1192 00fe 12       		.uleb128 0x12
 1193 00ff 01       		.uleb128 0x1
 1194 0100 40       		.uleb128 0x40
 1195 0101 06       		.uleb128 0x6
 1196 0102 01       		.uleb128 0x1
 1197 0103 13       		.uleb128 0x13
 1198 0104 00       		.byte	0
 1199 0105 00       		.byte	0
 1200 0106 15       		.uleb128 0x15
 1201 0107 34       		.uleb128 0x34
 1202 0108 00       		.byte	0
 1203 0109 03       		.uleb128 0x3
 1204 010a 08       		.uleb128 0x8
 1205 010b 3A       		.uleb128 0x3a
 1206 010c 0B       		.uleb128 0xb
GAS LISTING C:\cygwin\tmp\ccnuomUQ.s 			page 28


 1207 010d 3B       		.uleb128 0x3b
 1208 010e 0B       		.uleb128 0xb
 1209 010f 49       		.uleb128 0x49
 1210 0110 13       		.uleb128 0x13
 1211 0111 02       		.uleb128 0x2
 1212 0112 0A       		.uleb128 0xa
 1213 0113 00       		.byte	0
 1214 0114 00       		.byte	0
 1215 0115 16       		.uleb128 0x16
 1216 0116 2E       		.uleb128 0x2e
 1217 0117 00       		.byte	0
 1218 0118 03       		.uleb128 0x3
 1219 0119 08       		.uleb128 0x8
 1220 011a 27       		.uleb128 0x27
 1221 011b 0C       		.uleb128 0xc
 1222 011c 34       		.uleb128 0x34
 1223 011d 0C       		.uleb128 0xc
 1224 011e 11       		.uleb128 0x11
 1225 011f 01       		.uleb128 0x1
 1226 0120 12       		.uleb128 0x12
 1227 0121 01       		.uleb128 0x1
 1228 0122 40       		.uleb128 0x40
 1229 0123 06       		.uleb128 0x6
 1230 0124 00       		.byte	0
 1231 0125 00       		.byte	0
 1232 0126 17       		.uleb128 0x17
 1233 0127 21       		.uleb128 0x21
 1234 0128 00       		.byte	0
 1235 0129 00       		.byte	0
 1236 012a 00       		.byte	0
 1237 012b 18       		.uleb128 0x18
 1238 012c 34       		.uleb128 0x34
 1239 012d 00       		.byte	0
 1240 012e 03       		.uleb128 0x3
 1241 012f 08       		.uleb128 0x8
 1242 0130 3A       		.uleb128 0x3a
 1243 0131 0B       		.uleb128 0xb
 1244 0132 3B       		.uleb128 0x3b
 1245 0133 0B       		.uleb128 0xb
 1246 0134 49       		.uleb128 0x49
 1247 0135 13       		.uleb128 0x13
 1248 0136 3F       		.uleb128 0x3f
 1249 0137 0C       		.uleb128 0xc
 1250 0138 3C       		.uleb128 0x3c
 1251 0139 0C       		.uleb128 0xc
 1252 013a 00       		.byte	0
 1253 013b 00       		.byte	0
 1254 013c 00       		.byte	0
 1255              		.section	.debug_loc,"dr"
 1256              	Ldebug_loc0:
 1257              	LLST0:
 1258 0000 00000000 		.long	LFB9-Ltext0
 1259 0004 01000000 		.long	LCFI0-Ltext0
 1260 0008 0200     		.word	0x2
 1261 000a 74       		.byte	0x74
 1262 000b 04       		.sleb128 4
 1263 000c 01000000 		.long	LCFI0-Ltext0
GAS LISTING C:\cygwin\tmp\ccnuomUQ.s 			page 29


 1264 0010 07000000 		.long	LCFI1-Ltext0
 1265 0014 0200     		.word	0x2
 1266 0016 74       		.byte	0x74
 1267 0017 08       		.sleb128 8
 1268 0018 07000000 		.long	LCFI1-Ltext0
 1269 001c 06020000 		.long	LCFI2-Ltext0
 1270 0020 0300     		.word	0x3
 1271 0022 74       		.byte	0x74
 1272 0023 B003     		.sleb128 432
 1273 0025 06020000 		.long	LCFI2-Ltext0
 1274 0029 07020000 		.long	LCFI3-Ltext0
 1275 002d 0200     		.word	0x2
 1276 002f 74       		.byte	0x74
 1277 0030 08       		.sleb128 8
 1278 0031 07020000 		.long	LCFI3-Ltext0
 1279 0035 08020000 		.long	LFE9-Ltext0
 1280 0039 0200     		.word	0x2
 1281 003b 74       		.byte	0x74
 1282 003c 04       		.sleb128 4
 1283 003d 00000000 		.long	0
 1284 0041 00000000 		.long	0
 1285              	LLST1:
 1286 0045 08020000 		.long	LFB10-Ltext0
 1287 0049 09020000 		.long	LCFI4-Ltext0
 1288 004d 0200     		.word	0x2
 1289 004f 74       		.byte	0x74
 1290 0050 04       		.sleb128 4
 1291 0051 09020000 		.long	LCFI4-Ltext0
 1292 0055 0C020000 		.long	LCFI5-Ltext0
 1293 0059 0200     		.word	0x2
 1294 005b 74       		.byte	0x74
 1295 005c 08       		.sleb128 8
 1296 005d 0C020000 		.long	LCFI5-Ltext0
 1297 0061 44030000 		.long	LCFI6-Ltext0
 1298 0065 0200     		.word	0x2
 1299 0067 74       		.byte	0x74
 1300 0068 30       		.sleb128 48
 1301 0069 44030000 		.long	LCFI6-Ltext0
 1302 006d 45030000 		.long	LCFI7-Ltext0
 1303 0071 0200     		.word	0x2
 1304 0073 74       		.byte	0x74
 1305 0074 08       		.sleb128 8
 1306 0075 45030000 		.long	LCFI7-Ltext0
 1307 0079 46030000 		.long	LFE10-Ltext0
 1308 007d 0200     		.word	0x2
 1309 007f 74       		.byte	0x74
 1310 0080 04       		.sleb128 4
 1311 0081 00000000 		.long	0
 1312 0085 00000000 		.long	0
 1313              	LLST2:
 1314 0089 46030000 		.long	LFB11-Ltext0
 1315 008d 49030000 		.long	LCFI8-Ltext0
 1316 0091 0200     		.word	0x2
 1317 0093 74       		.byte	0x74
 1318 0094 04       		.sleb128 4
 1319 0095 49030000 		.long	LCFI8-Ltext0
 1320 0099 58030000 		.long	LCFI9-Ltext0
GAS LISTING C:\cygwin\tmp\ccnuomUQ.s 			page 30


 1321 009d 0200     		.word	0x2
 1322 009f 74       		.byte	0x74
 1323 00a0 20       		.sleb128 32
 1324 00a1 58030000 		.long	LCFI9-Ltext0
 1325 00a5 59030000 		.long	LFE11-Ltext0
 1326 00a9 0200     		.word	0x2
 1327 00ab 74       		.byte	0x74
 1328 00ac 04       		.sleb128 4
 1329 00ad 00000000 		.long	0
 1330 00b1 00000000 		.long	0
 1331              		.section	.debug_aranges,"dr"
 1332 0000 1C000000 		.long	0x1c
 1333 0004 0200     		.word	0x2
 1334 0006 00000000 		.secrel32	Ldebug_info0
 1335 000a 04       		.byte	0x4
 1336 000b 00       		.byte	0
 1337 000c 0000     		.word	0
 1338 000e 0000     		.word	0
 1339 0010 00000000 		.long	Ltext0
 1340 0014 59030000 		.long	Letext0-Ltext0
 1341 0018 00000000 		.long	0
 1342 001c 00000000 		.long	0
 1343              		.section	.debug_line,"dr"
 1344              	Ldebug_line0:
 1345 0000 04010000 		.section	.debug_str,"dr"
 1345      0200B300 
 1345      00000101 
 1345      FB0E0D00 
 1345      01010101 
 1346              	LASF0:
 1347 0000 48696768 		.ascii "HighPart\0"
 1347      50617274 
 1347      00
 1348              		.def	_puts;	.scl	2;	.type	32;	.endef
 1349              		.def	_WSAStartup@8;	.scl	2;	.type	32;	.endef
 1350              		.def	_exit;	.scl	2;	.type	32;	.endef
 1351              		.def	_QueryPerformanceFrequency@4;	.scl	2;	.type	32;	.endef
 1352              		.def	_printf;	.scl	2;	.type	32;	.endef
 1353              		.def	_QueryPerformanceCounter@4;	.scl	2;	.type	32;	.endef
 1354              		.def	_fflush;	.scl	2;	.type	32;	.endef
 1355              		.def	_chSysTimerHandlerI;	.scl	2;	.type	32;	.endef
 1356              		.def	_chSchIsPreemptionRequired;	.scl	2;	.type	32;	.endef
 1357              		.def	_chSchDoReschedule;	.scl	2;	.type	32;	.endef
 1358              		.def	___gcov_merge_add;	.scl	2;	.type	32;	.endef
 1359              		.def	___gcov_init;	.scl	2;	.type	32;	.endef
GAS LISTING C:\cygwin\tmp\ccnuomUQ.s 			page 31


DEFINED SYMBOLS
                            *ABS*:00000000 hal_lld.c
C:\cygwin\tmp\ccnuomUQ.s:43     .bss:00000000 _nextcnt
C:\cygwin\tmp\ccnuomUQ.s:44     .bss:00000008 _slice
C:\cygwin\tmp\ccnuomUQ.s:58     .text:00000000 _hal_lld_init
C:\cygwin\tmp\ccnuomUQ.s:203    .text:00000208 _ChkIntSources
C:\cygwin\tmp\ccnuomUQ.s:350    .text:00000346 __GLOBAL__sub_I_65535_0_hal_lld_init

UNDEFINED SYMBOLS
___divdi3
__imp___iob
_puts
_WSAStartup@8
_exit
_QueryPerformanceFrequency@4
_printf
_QueryPerformanceCounter@4
_fflush
_chSysTimerHandlerI
_chSchIsPreemptionRequired
_chSchDoReschedule
___gcov_merge_add
___gcov_init
