ARM GAS  C:\cygwin\tmp\ccKB5hP3.s 			page 1


   1              		.syntax unified
   2              		.cpu cortex-m4
   3              		.fpu softvfp
   4              		.eabi_attribute 20, 1
   5              		.eabi_attribute 21, 1
   6              		.eabi_attribute 23, 3
   7              		.eabi_attribute 24, 1
   8              		.eabi_attribute 25, 1
   9              		.eabi_attribute 26, 1
  10              		.eabi_attribute 30, 2
  11              		.eabi_attribute 34, 1
  12              		.eabi_attribute 18, 4
  13              		.thumb
  14              		.file	"chthreads.c"
  15              		.text
  16              	.Ltext0:
  17              		.cfi_sections	.debug_frame
  18              		.section	.text._thread_init,"ax",%progbits
  19              		.align	2
  20              		.p2align 4,,15
  21              		.global	_thread_init
  22              		.thumb
  23              		.thumb_func
  24              		.type	_thread_init, %function
  25              	_thread_init:
  26              	.LFB7:
  27              		.file 1 "../../../os/kernel/src/chthreads.c"
  28              		.loc 1 69 0
  29              		.cfi_startproc
  30              		@ args = 0, pretend = 0, frame = 0
  31              		@ frame_needed = 0, uses_anonymous_args = 0
  32              		@ link register save eliminated.
  33              	.LVL0:
  34 0000 2DE9F001 		push	{r4, r5, r6, r7, r8}
  35              	.LCFI0:
  36              		.cfi_def_cfa_offset 20
  37              		.cfi_offset 4, -20
  38              		.cfi_offset 5, -16
  39              		.cfi_offset 6, -12
  40              		.cfi_offset 7, -8
  41              		.cfi_offset 8, -4
  42              		.loc 1 92 0
  43 0004 40F20004 		movw	r4, #:lower16:rlist
  44 0008 C0F20004 		movt	r4, #:upper16:rlist
  45              		.loc 1 73 0
  46 000c 0022     		movs	r2, #0
  47              		.loc 1 92 0
  48 000e 6569     		ldr	r5, [r4, #20]
  49              		.loc 1 78 0
  50 0010 4164     		str	r1, [r0, #68]
  51              		.loc 1 92 0
  52 0012 0461     		str	r4, [r0, #16]
  53              		.loc 1 98 0
  54 0014 00F13006 		add	r6, r0, #48
  55              		.loc 1 71 0
  56 0018 8160     		str	r1, [r0, #8]
  57              		.loc 1 95 0
ARM GAS  C:\cygwin\tmp\ccKB5hP3.s 			page 2


  58 001a 00F12C0C 		add	ip, r0, #44
  59              		.loc 1 101 0
  60 001e 00F14C07 		add	r7, r0, #76
  61              		.loc 1 92 0
  62 0022 4561     		str	r5, [r0, #20]
  63              		.loc 1 72 0
  64 0024 4FF00208 		mov	r8, #2
  65              		.loc 1 92 0
  66 0028 6061     		str	r0, [r4, #20]
  67              		.loc 1 88 0
  68 002a 0121     		movs	r1, #1
  69              	.LVL1:
  70              		.loc 1 75 0
  71 002c 1424     		movs	r4, #20
  72              		.loc 1 72 0
  73 002e 80F82080 		strb	r8, [r0, #32]
  74              		.loc 1 73 0
  75 0032 80F82120 		strb	r2, [r0, #33]
  76              		.loc 1 75 0
  77 0036 80F82340 		strb	r4, [r0, #35]
  78              		.loc 1 79 0
  79 003a 0264     		str	r2, [r0, #64]
  80              		.loc 1 82 0
  81 003c C263     		str	r2, [r0, #60]
  82              		.loc 1 85 0
  83 003e 4262     		str	r2, [r0, #36]
  84              		.loc 1 88 0
  85 0040 80F82210 		strb	r1, [r0, #34]
  86              		.loc 1 91 0
  87 0044 8261     		str	r2, [r0, #24]
  88              		.loc 1 92 0
  89 0046 2861     		str	r0, [r5, #16]
  90              		.loc 1 95 0
  91 0048 C0F82CC0 		str	ip, [r0, #44]
  92              		.loc 1 98 0
  93 004c 4663     		str	r6, [r0, #52]
  94 004e 0663     		str	r6, [r0, #48]
  95              		.loc 1 101 0
  96 0050 C761     		str	r7, [r0, #28]
  97              		.loc 1 107 0
  98 0052 BDE8F001 		pop	{r4, r5, r6, r7, r8}
  99 0056 7047     		bx	lr
 100              		.cfi_endproc
 101              	.LFE7:
 102              		.size	_thread_init, .-_thread_init
 103 0058 AFF30080 		.section	.text._thread_memfill,"ax",%progbits
 103      AFF30080 
 104              		.align	2
 105              		.p2align 4,,15
 106              		.global	_thread_memfill
 107              		.thumb
 108              		.thumb_func
 109              		.type	_thread_memfill, %function
 110              	_thread_memfill:
 111              	.LFB8:
 112              		.loc 1 119 0
 113              		.cfi_startproc
ARM GAS  C:\cygwin\tmp\ccKB5hP3.s 			page 3


 114              		@ args = 0, pretend = 0, frame = 0
 115              		@ frame_needed = 0, uses_anonymous_args = 0
 116              		@ link register save eliminated.
 117              	.LVL2:
 118              		.loc 1 121 0
 119 0000 8842     		cmp	r0, r1
 120 0002 03D2     		bcs	.L2
 121              	.L6:
 122              		.loc 1 122 0
 123 0004 00F8012B 		strb	r2, [r0], #1
 124              	.LVL3:
 125              		.loc 1 121 0
 126 0008 8842     		cmp	r0, r1
 127 000a FBD1     		bne	.L6
 128              	.L2:
 129 000c 7047     		bx	lr
 130              		.cfi_endproc
 131              	.LFE8:
 132              		.size	_thread_memfill, .-_thread_memfill
 133 000e 00BF     		.section	.text.chThdCreateI,"ax",%progbits
 134              		.align	2
 135              		.p2align 4,,15
 136              		.global	chThdCreateI
 137              		.thumb
 138              		.thumb_func
 139              		.type	chThdCreateI, %function
 140              	chThdCreateI:
 141              	.LFB9:
 142              		.loc 1 151 0
 143              		.cfi_startproc
 144              		@ args = 4, pretend = 0, frame = 0
 145              		@ frame_needed = 0, uses_anonymous_args = 0
 146              	.LVL4:
 147 0000 2DE9F047 		push	{r4, r5, r6, r7, r8, r9, sl, lr}
 148              	.LCFI1:
 149              		.cfi_def_cfa_offset 32
 150              		.cfi_offset 4, -32
 151              		.cfi_offset 5, -28
 152              		.cfi_offset 6, -24
 153              		.cfi_offset 7, -20
 154              		.cfi_offset 8, -16
 155              		.cfi_offset 9, -12
 156              		.cfi_offset 10, -8
 157              		.cfi_offset 14, -4
 158              		.loc 1 151 0
 159 0004 0446     		mov	r4, r0
 160              	.LVL5:
 161 0006 0D46     		mov	r5, r1
 162 0008 9046     		mov	r8, r2
 163 000a 9946     		mov	r9, r3
 164              		.loc 1 155 0
 165 000c FFF7FEFF 		bl	chDbgCheckClassI
 166              	.LVL6:
 167              		.loc 1 157 0
 168 0010 002C     		cmp	r4, #0
 169 0012 18BF     		it	ne
 170 0014 AF2D     		cmpne	r5, #175
ARM GAS  C:\cygwin\tmp\ccKB5hP3.s 			page 4


 171 0016 0AD9     		bls	.L10
 172              		.loc 1 157 0 is_stmt 0 discriminator 2
 173 0018 B8F17F0F 		cmp	r8, #127
 174 001c 94BF     		ite	ls
 175 001e 0023     		movls	r3, #0
 176 0020 0123     		movhi	r3, #1
 177 0022 B9F1000F 		cmp	r9, #0
 178 0026 08BF     		it	eq
 179 0028 43F00103 		orreq	r3, r3, #1
 180 002c 13B1     		cbz	r3, .L11
 181              	.L10:
 182              		.loc 1 157 0 discriminator 1
 183 002e 1B48     		ldr	r0, .L15
 184 0030 FFF7FEFF 		bl	chDbgPanic
 185              	.LVL7:
 186              	.L11:
 187              	.LBB16:
 188              	.LBB17:
 189              		.loc 1 92 0 is_stmt 1
 190 0034 1A4E     		ldr	r6, .L15+4
 191              	.LBE17:
 192              	.LBE16:
 193              		.loc 1 160 0
 194 0036 A5F12403 		sub	r3, r5, #36
 195 003a E718     		adds	r7, r4, r3
 196              	.LBB21:
 197              	.LBB18:
 198              		.loc 1 92 0
 199 003c 7169     		ldr	r1, [r6, #20]
 200              	.LBE18:
 201              	.LBE21:
 202              		.loc 1 160 0
 203 003e E760     		str	r7, [r4, #12]
 204 0040 44F80390 		str	r9, [r4, r3]
 205 0044 089B     		ldr	r3, [sp, #32]
 206 0046 7B60     		str	r3, [r7, #4]
 207 0048 164B     		ldr	r3, .L15+8
 208 004a 3B62     		str	r3, [r7, #32]
 209              	.LVL8:
 210              	.LBB22:
 211              	.LBB19:
 212              		.loc 1 72 0
 213 004c 0223     		movs	r3, #2
 214 004e 84F82030 		strb	r3, [r4, #32]
 215              		.loc 1 75 0
 216 0052 1423     		movs	r3, #20
 217              		.loc 1 73 0
 218 0054 0025     		movs	r5, #0
 219              	.LVL9:
 220              		.loc 1 98 0
 221 0056 04F13002 		add	r2, r4, #48
 222              		.loc 1 95 0
 223 005a 04F12C0A 		add	sl, r4, #44
 224              		.loc 1 101 0
 225 005e 04F14C0C 		add	ip, r4, #76
 226              		.loc 1 75 0
 227 0062 84F82330 		strb	r3, [r4, #35]
ARM GAS  C:\cygwin\tmp\ccKB5hP3.s 			page 5


 228              		.loc 1 88 0
 229 0066 0123     		movs	r3, #1
 230              		.loc 1 92 0
 231 0068 2661     		str	r6, [r4, #16]
 232              		.loc 1 71 0
 233 006a C4F80880 		str	r8, [r4, #8]
 234              		.loc 1 92 0
 235 006e 6161     		str	r1, [r4, #20]
 236              	.LBE19:
 237              	.LBE22:
 238              		.loc 1 162 0
 239 0070 2046     		mov	r0, r4
 240              	.LBB23:
 241              	.LBB20:
 242              		.loc 1 92 0
 243 0072 7461     		str	r4, [r6, #20]
 244              		.loc 1 73 0
 245 0074 84F82150 		strb	r5, [r4, #33]
 246              		.loc 1 78 0
 247 0078 C4F84480 		str	r8, [r4, #68]
 248              		.loc 1 79 0
 249 007c 2564     		str	r5, [r4, #64]
 250              		.loc 1 82 0
 251 007e E563     		str	r5, [r4, #60]
 252              		.loc 1 85 0
 253 0080 6562     		str	r5, [r4, #36]
 254              		.loc 1 88 0
 255 0082 84F82230 		strb	r3, [r4, #34]
 256              		.loc 1 91 0
 257 0086 A561     		str	r5, [r4, #24]
 258              		.loc 1 92 0
 259 0088 0C61     		str	r4, [r1, #16]
 260              		.loc 1 95 0
 261 008a C4F82CA0 		str	sl, [r4, #44]
 262              		.loc 1 98 0
 263 008e 6263     		str	r2, [r4, #52]
 264 0090 2263     		str	r2, [r4, #48]
 265              		.loc 1 101 0
 266 0092 C4F81CC0 		str	ip, [r4, #28]
 267              	.LBE20:
 268              	.LBE23:
 269              		.loc 1 162 0
 270 0096 BDE8F087 		pop	{r4, r5, r6, r7, r8, r9, sl, pc}
 271              	.L16:
 272 009a 00BF     		.align	2
 273              	.L15:
 274 009c 00000000 		.word	.LC0
 275 00a0 00000000 		.word	rlist
 276 00a4 00000000 		.word	_port_thread_start
 277              		.cfi_endproc
 278              	.LFE9:
 279              		.size	chThdCreateI, .-chThdCreateI
 280 00a8 AFF30080 		.section	.text.chThdCreateStatic,"ax",%progbits
 280      AFF30080 
 281              		.align	2
 282              		.p2align 4,,15
 283              		.global	chThdCreateStatic
ARM GAS  C:\cygwin\tmp\ccKB5hP3.s 			page 6


 284              		.thumb
 285              		.thumb_func
 286              		.type	chThdCreateStatic, %function
 287              	chThdCreateStatic:
 288              	.LFB10:
 289              		.loc 1 181 0
 290              		.cfi_startproc
 291              		@ args = 4, pretend = 0, frame = 0
 292              		@ frame_needed = 0, uses_anonymous_args = 0
 293              	.LVL10:
 294 0000 2DE9F04F 		push	{r4, r5, r6, r7, r8, r9, sl, fp, lr}
 295              	.LCFI2:
 296              		.cfi_def_cfa_offset 36
 297              		.cfi_offset 4, -36
 298              		.cfi_offset 5, -32
 299              		.cfi_offset 6, -28
 300              		.cfi_offset 7, -24
 301              		.cfi_offset 8, -20
 302              		.cfi_offset 9, -16
 303              		.cfi_offset 10, -12
 304              		.cfi_offset 11, -8
 305              		.cfi_offset 14, -4
 306 0004 8046     		mov	r8, r0
 307 0006 83B0     		sub	sp, sp, #12
 308              	.LCFI3:
 309              		.cfi_def_cfa_offset 48
 310              		.loc 1 181 0
 311 0008 8946     		mov	r9, r1
 312 000a 9246     		mov	sl, r2
 313 000c 9B46     		mov	fp, r3
 314              		.loc 1 185 0
 315 000e 00F14C07 		add	r7, r0, #76
 316              	.LVL11:
 317              		.loc 1 180 0
 318 0012 00F10104 		add	r4, r0, #1
 319 0016 00F14D06 		add	r6, r0, #77
 320              	.LBB24:
 321              	.LBB25:
 322              		.loc 1 122 0
 323 001a FF25     		movs	r5, #255
 324              	.LVL12:
 325              	.L18:
 326 001c 04F8015C 		strb	r5, [r4, #-1]
 327 0020 0134     		adds	r4, r4, #1
 328              		.loc 1 121 0
 329 0022 B442     		cmp	r4, r6
 330 0024 FAD1     		bne	.L18
 331              	.LBE25:
 332              	.LBE24:
 333              		.loc 1 188 0
 334 0026 08EB0904 		add	r4, r8, r9
 335              	.LVL13:
 336              	.LBB26:
 337              	.LBB27:
 338              		.loc 1 121 0
 339 002a A742     		cmp	r7, r4
 340 002c 04D2     		bcs	.L21
ARM GAS  C:\cygwin\tmp\ccKB5hP3.s 			page 7


 341              		.loc 1 122 0
 342 002e 5525     		movs	r5, #85
 343              	.LVL14:
 344              	.L22:
 345 0030 07F8015B 		strb	r5, [r7], #1
 346              	.LVL15:
 347              		.loc 1 121 0
 348 0034 A742     		cmp	r7, r4
 349 0036 FBD1     		bne	.L22
 350              	.L21:
 351              	.LBE27:
 352              	.LBE26:
 353              	.LBB28:
 354              		.loc 1 192 0
 355 0038 2023     		movs	r3, #32
 356              	.LVL16:
 357              	@ 192 "../../../os/kernel/src/chthreads.c" 1
 358 003a 83F31188 		msr     BASEPRI, r3
 359              	@ 0 "" 2
 360              	.LVL17:
 361              		.thumb
 362              	.LBE28:
 363 003e FFF7FEFF 		bl	dbg_check_lock
 364              	.LVL18:
 365              		.loc 1 193 0
 366 0042 0C98     		ldr	r0, [sp, #48]
 367 0044 5B46     		mov	r3, fp
 368 0046 5246     		mov	r2, sl
 369 0048 4946     		mov	r1, r9
 370 004a 0090     		str	r0, [sp, #0]
 371 004c 4046     		mov	r0, r8
 372 004e FFF7FEFF 		bl	chThdCreateI
 373              	.LVL19:
 374 0052 0021     		movs	r1, #0
 375 0054 0446     		mov	r4, r0
 376              	.LVL20:
 377 0056 FFF7FEFF 		bl	chSchWakeupS
 378              	.LVL21:
 379              		.loc 1 194 0
 380 005a FFF7FEFF 		bl	dbg_check_unlock
 381              	.LVL22:
 382              	.LBB29:
 383 005e 0023     		movs	r3, #0
 384              	.LVL23:
 385              	@ 194 "../../../os/kernel/src/chthreads.c" 1
 386 0060 83F31188 		msr     BASEPRI, r3
 387              	@ 0 "" 2
 388              	.LVL24:
 389              		.thumb
 390              	.LBE29:
 391              		.loc 1 196 0
 392 0064 2046     		mov	r0, r4
 393 0066 03B0     		add	sp, sp, #12
 394 0068 BDE8F08F 		pop	{r4, r5, r6, r7, r8, r9, sl, fp, pc}
 395              		.cfi_endproc
 396              	.LFE10:
 397              		.size	chThdCreateStatic, .-chThdCreateStatic
ARM GAS  C:\cygwin\tmp\ccKB5hP3.s 			page 8


 398 006c AFF30080 		.section	.text.chThdSetPriority,"ax",%progbits
 399              		.align	2
 400              		.p2align 4,,15
 401              		.global	chThdSetPriority
 402              		.thumb
 403              		.thumb_func
 404              		.type	chThdSetPriority, %function
 405              	chThdSetPriority:
 406              	.LFB11:
 407              		.loc 1 210 0
 408              		.cfi_startproc
 409              		@ args = 0, pretend = 0, frame = 0
 410              		@ frame_needed = 0, uses_anonymous_args = 0
 411              	.LVL25:
 412              		.loc 1 213 0
 413 0000 7F28     		cmp	r0, #127
 414              		.loc 1 210 0
 415 0002 38B5     		push	{r3, r4, r5, lr}
 416              	.LCFI4:
 417              		.cfi_def_cfa_offset 16
 418              		.cfi_offset 3, -16
 419              		.cfi_offset 4, -12
 420              		.cfi_offset 5, -8
 421              		.cfi_offset 14, -4
 422              		.loc 1 210 0
 423 0004 0446     		mov	r4, r0
 424              		.loc 1 213 0
 425 0006 17D8     		bhi	.L30
 426              	.LVL26:
 427              	.L27:
 428              	.LBB30:
 429              		.loc 1 215 0
 430 0008 2023     		movs	r3, #32
 431              	.LVL27:
 432              	@ 215 "../../../os/kernel/src/chthreads.c" 1
 433 000a 83F31188 		msr     BASEPRI, r3
 434              	@ 0 "" 2
 435              	.LVL28:
 436              		.thumb
 437              	.LBE30:
 438 000e FFF7FEFF 		bl	dbg_check_lock
 439              	.LVL29:
 440              		.loc 1 217 0
 441 0012 0B4B     		ldr	r3, .L31
 442 0014 9B69     		ldr	r3, [r3, #24]
 443 0016 5D6C     		ldr	r5, [r3, #68]
 444              	.LVL30:
 445              		.loc 1 218 0
 446 0018 9A68     		ldr	r2, [r3, #8]
 447 001a 9542     		cmp	r5, r2
 448 001c 01D0     		beq	.L28
 449              		.loc 1 218 0 is_stmt 0 discriminator 1
 450 001e 9442     		cmp	r4, r2
 451 0020 00D9     		bls	.L29
 452              	.L28:
 453              		.loc 1 219 0 is_stmt 1
 454 0022 9C60     		str	r4, [r3, #8]
ARM GAS  C:\cygwin\tmp\ccKB5hP3.s 			page 9


 455              	.L29:
 456              		.loc 1 220 0
 457 0024 5C64     		str	r4, [r3, #68]
 458              		.loc 1 225 0
 459 0026 FFF7FEFF 		bl	chSchRescheduleS
 460              	.LVL31:
 461              		.loc 1 226 0
 462 002a FFF7FEFF 		bl	dbg_check_unlock
 463              	.LVL32:
 464              	.LBB31:
 465 002e 0023     		movs	r3, #0
 466              	.LVL33:
 467              	@ 226 "../../../os/kernel/src/chthreads.c" 1
 468 0030 83F31188 		msr     BASEPRI, r3
 469              	@ 0 "" 2
 470              	.LVL34:
 471              		.thumb
 472              	.LBE31:
 473              		.loc 1 228 0
 474 0034 2846     		mov	r0, r5
 475 0036 38BD     		pop	{r3, r4, r5, pc}
 476              	.LVL35:
 477              	.L30:
 478              		.loc 1 213 0 discriminator 1
 479 0038 0248     		ldr	r0, .L31+4
 480              	.LVL36:
 481 003a FFF7FEFF 		bl	chDbgPanic
 482              	.LVL37:
 483 003e E3E7     		b	.L27
 484              	.L32:
 485              		.align	2
 486              	.L31:
 487 0040 00000000 		.word	rlist
 488 0044 14000000 		.word	.LC1
 489              		.cfi_endproc
 490              	.LFE11:
 491              		.size	chThdSetPriority, .-chThdSetPriority
 492 0048 AFF30080 		.section	.text.chThdResume,"ax",%progbits
 492      AFF30080 
 493              		.align	2
 494              		.p2align 4,,15
 495              		.global	chThdResume
 496              		.thumb
 497              		.thumb_func
 498              		.type	chThdResume, %function
 499              	chThdResume:
 500              	.LFB12:
 501              		.loc 1 243 0
 502              		.cfi_startproc
 503              		@ args = 0, pretend = 0, frame = 0
 504              		@ frame_needed = 0, uses_anonymous_args = 0
 505              	.LVL38:
 506 0000 10B5     		push	{r4, lr}
 507              	.LCFI5:
 508              		.cfi_def_cfa_offset 8
 509              		.cfi_offset 4, -8
 510              		.cfi_offset 14, -4
ARM GAS  C:\cygwin\tmp\ccKB5hP3.s 			page 10


 511              	.LBB32:
 512              		.loc 1 245 0
 513 0002 2023     		movs	r3, #32
 514              	.LVL39:
 515              	.LBE32:
 516              		.loc 1 243 0
 517 0004 0446     		mov	r4, r0
 518              	.LBB33:
 519              		.loc 1 245 0
 520              	@ 245 "../../../os/kernel/src/chthreads.c" 1
 521 0006 83F31188 		msr     BASEPRI, r3
 522              	@ 0 "" 2
 523              	.LVL40:
 524              		.thumb
 525              	.LBE33:
 526 000a FFF7FEFF 		bl	dbg_check_lock
 527              	.LVL41:
 528              		.loc 1 246 0
 529 000e 94F82030 		ldrb	r3, [r4, #32]	@ zero_extendqisi2
 530 0012 022B     		cmp	r3, #2
 531 0014 02D0     		beq	.L34
 532              		.loc 1 246 0 is_stmt 0 discriminator 1
 533 0016 0748     		ldr	r0, .L38
 534 0018 FFF7FEFF 		bl	chDbgPanic
 535              	.LVL42:
 536              	.L34:
 537              		.loc 1 249 0 is_stmt 1
 538 001c 2046     		mov	r0, r4
 539 001e 0021     		movs	r1, #0
 540 0020 FFF7FEFF 		bl	chSchWakeupS
 541              	.LVL43:
 542              		.loc 1 250 0
 543 0024 FFF7FEFF 		bl	dbg_check_unlock
 544              	.LVL44:
 545              	.LBB34:
 546 0028 0023     		movs	r3, #0
 547              	.LVL45:
 548              	@ 250 "../../../os/kernel/src/chthreads.c" 1
 549 002a 83F31188 		msr     BASEPRI, r3
 550              	@ 0 "" 2
 551              	.LVL46:
 552              		.thumb
 553              	.LBE34:
 554              		.loc 1 252 0
 555 002e 2046     		mov	r0, r4
 556 0030 10BD     		pop	{r4, pc}
 557              	.L39:
 558 0032 00BF     		.align	2
 559              	.L38:
 560 0034 2C000000 		.word	.LC2
 561              		.cfi_endproc
 562              	.LFE12:
 563              		.size	chThdResume, .-chThdResume
 564 0038 AFF30080 		.section	.text.chThdTerminate,"ax",%progbits
 564      AFF30080 
 565              		.align	2
 566              		.p2align 4,,15
ARM GAS  C:\cygwin\tmp\ccKB5hP3.s 			page 11


 567              		.global	chThdTerminate
 568              		.thumb
 569              		.thumb_func
 570              		.type	chThdTerminate, %function
 571              	chThdTerminate:
 572              	.LFB13:
 573              		.loc 1 266 0
 574              		.cfi_startproc
 575              		@ args = 0, pretend = 0, frame = 0
 576              		@ frame_needed = 0, uses_anonymous_args = 0
 577              	.LVL47:
 578 0000 10B5     		push	{r4, lr}
 579              	.LCFI6:
 580              		.cfi_def_cfa_offset 8
 581              		.cfi_offset 4, -8
 582              		.cfi_offset 14, -4
 583              	.LBB35:
 584              		.loc 1 268 0
 585 0002 2023     		movs	r3, #32
 586              	.LVL48:
 587              	.LBE35:
 588              		.loc 1 266 0
 589 0004 0446     		mov	r4, r0
 590              	.LBB36:
 591              		.loc 1 268 0
 592              	@ 268 "../../../os/kernel/src/chthreads.c" 1
 593 0006 83F31188 		msr     BASEPRI, r3
 594              	@ 0 "" 2
 595              	.LVL49:
 596              		.thumb
 597              	.LBE36:
 598 000a FFF7FEFF 		bl	dbg_check_lock
 599              	.LVL50:
 600              		.loc 1 269 0
 601 000e 94F82130 		ldrb	r3, [r4, #33]	@ zero_extendqisi2
 602 0012 43F00403 		orr	r3, r3, #4
 603 0016 84F82130 		strb	r3, [r4, #33]
 604              		.loc 1 270 0
 605 001a FFF7FEFF 		bl	dbg_check_unlock
 606              	.LVL51:
 607              	.LBB37:
 608 001e 0023     		movs	r3, #0
 609              	.LVL52:
 610              	@ 270 "../../../os/kernel/src/chthreads.c" 1
 611 0020 83F31188 		msr     BASEPRI, r3
 612              	@ 0 "" 2
 613              	.LVL53:
 614              		.thumb
 615 0024 10BD     		pop	{r4, pc}
 616              	.LBE37:
 617              		.cfi_endproc
 618              	.LFE13:
 619              		.size	chThdTerminate, .-chThdTerminate
 620 0026 00BFAFF3 		.section	.text.chThdSleep,"ax",%progbits
 620      0080AFF3 
 620      0080
 621              		.align	2
ARM GAS  C:\cygwin\tmp\ccKB5hP3.s 			page 12


 622              		.p2align 4,,15
 623              		.global	chThdSleep
 624              		.thumb
 625              		.thumb_func
 626              		.type	chThdSleep, %function
 627              	chThdSleep:
 628              	.LFB14:
 629              		.loc 1 285 0
 630              		.cfi_startproc
 631              		@ args = 0, pretend = 0, frame = 0
 632              		@ frame_needed = 0, uses_anonymous_args = 0
 633              	.LVL54:
 634 0000 10B5     		push	{r4, lr}
 635              	.LCFI7:
 636              		.cfi_def_cfa_offset 8
 637              		.cfi_offset 4, -8
 638              		.cfi_offset 14, -4
 639              		.loc 1 287 0
 640 0002 0446     		mov	r4, r0
 641 0004 10B9     		cbnz	r0, .L42
 642              		.loc 1 287 0 is_stmt 0 discriminator 1
 643 0006 0948     		ldr	r0, .L43
 644              	.LVL55:
 645 0008 FFF7FEFF 		bl	chDbgPanic
 646              	.LVL56:
 647              	.L42:
 648              	.LBB38:
 649              		.loc 1 289 0 is_stmt 1
 650 000c 2023     		movs	r3, #32
 651              	.LVL57:
 652              	@ 289 "../../../os/kernel/src/chthreads.c" 1
 653 000e 83F31188 		msr     BASEPRI, r3
 654              	@ 0 "" 2
 655              	.LVL58:
 656              		.thumb
 657              	.LBE38:
 658 0012 FFF7FEFF 		bl	dbg_check_lock
 659              	.LVL59:
 660              		.loc 1 290 0
 661 0016 2146     		mov	r1, r4
 662 0018 0620     		movs	r0, #6
 663 001a FFF7FEFF 		bl	chSchGoSleepTimeoutS
 664              	.LVL60:
 665              		.loc 1 291 0
 666 001e FFF7FEFF 		bl	dbg_check_unlock
 667              	.LVL61:
 668              	.LBB39:
 669 0022 0023     		movs	r3, #0
 670              	.LVL62:
 671              	@ 291 "../../../os/kernel/src/chthreads.c" 1
 672 0024 83F31188 		msr     BASEPRI, r3
 673              	@ 0 "" 2
 674              	.LVL63:
 675              		.thumb
 676 0028 10BD     		pop	{r4, pc}
 677              	.L44:
 678 002a 00BF     		.align	2
ARM GAS  C:\cygwin\tmp\ccKB5hP3.s 			page 13


 679              	.L43:
 680 002c 40000000 		.word	.LC3
 681              	.LBE39:
 682              		.cfi_endproc
 683              	.LFE14:
 684              		.size	chThdSleep, .-chThdSleep
 685              		.section	.text.chThdSleepUntil,"ax",%progbits
 686              		.align	2
 687              		.p2align 4,,15
 688              		.global	chThdSleepUntil
 689              		.thumb
 690              		.thumb_func
 691              		.type	chThdSleepUntil, %function
 692              	chThdSleepUntil:
 693              	.LFB15:
 694              		.loc 1 302 0
 695              		.cfi_startproc
 696              		@ args = 0, pretend = 0, frame = 0
 697              		@ frame_needed = 0, uses_anonymous_args = 0
 698              	.LVL64:
 699 0000 10B5     		push	{r4, lr}
 700              	.LCFI8:
 701              		.cfi_def_cfa_offset 8
 702              		.cfi_offset 4, -8
 703              		.cfi_offset 14, -4
 704              	.LBB40:
 705              		.loc 1 304 0
 706 0002 2023     		movs	r3, #32
 707              	.LVL65:
 708              	.LBE40:
 709              		.loc 1 302 0
 710 0004 0446     		mov	r4, r0
 711              	.LBB41:
 712              		.loc 1 304 0
 713              	@ 304 "../../../os/kernel/src/chthreads.c" 1
 714 0006 83F31188 		msr     BASEPRI, r3
 715              	@ 0 "" 2
 716              	.LVL66:
 717              		.thumb
 718              	.LBE41:
 719 000a FFF7FEFF 		bl	dbg_check_lock
 720              	.LVL67:
 721              		.loc 1 305 0
 722 000e 064B     		ldr	r3, .L50
 723 0010 D968     		ldr	r1, [r3, #12]
 724              	.LVL68:
 725 0012 611A     		subs	r1, r4, r1
 726              	.LVL69:
 727 0014 02D0     		beq	.L46
 728              		.loc 1 306 0
 729 0016 0620     		movs	r0, #6
 730 0018 FFF7FEFF 		bl	chSchGoSleepTimeoutS
 731              	.LVL70:
 732              	.L46:
 733              		.loc 1 307 0
 734 001c FFF7FEFF 		bl	dbg_check_unlock
 735              	.LVL71:
ARM GAS  C:\cygwin\tmp\ccKB5hP3.s 			page 14


 736              	.LBB42:
 737 0020 0023     		movs	r3, #0
 738              	.LVL72:
 739              	@ 307 "../../../os/kernel/src/chthreads.c" 1
 740 0022 83F31188 		msr     BASEPRI, r3
 741              	@ 0 "" 2
 742              	.LVL73:
 743              		.thumb
 744 0026 10BD     		pop	{r4, pc}
 745              	.L51:
 746              		.align	2
 747              	.L50:
 748 0028 00000000 		.word	vtlist
 749              	.LBE42:
 750              		.cfi_endproc
 751              	.LFE15:
 752              		.size	chThdSleepUntil, .-chThdSleepUntil
 753 002c AFF30080 		.section	.text.chThdYield,"ax",%progbits
 754              		.align	2
 755              		.p2align 4,,15
 756              		.global	chThdYield
 757              		.thumb
 758              		.thumb_func
 759              		.type	chThdYield, %function
 760              	chThdYield:
 761              	.LFB16:
 762              		.loc 1 317 0
 763              		.cfi_startproc
 764              		@ args = 0, pretend = 0, frame = 0
 765              		@ frame_needed = 0, uses_anonymous_args = 0
 766 0000 08B5     		push	{r3, lr}
 767              	.LCFI9:
 768              		.cfi_def_cfa_offset 8
 769              		.cfi_offset 3, -8
 770              		.cfi_offset 14, -4
 771              	.LBB43:
 772              		.loc 1 319 0
 773 0002 2023     		movs	r3, #32
 774              	.LVL74:
 775              	@ 319 "../../../os/kernel/src/chthreads.c" 1
 776 0004 83F31188 		msr     BASEPRI, r3
 777              	@ 0 "" 2
 778              	.LVL75:
 779              		.thumb
 780              	.LBE43:
 781 0008 FFF7FEFF 		bl	dbg_check_lock
 782              	.LVL76:
 783              		.loc 1 320 0
 784 000c 074B     		ldr	r3, .L54
 785 000e 1A68     		ldr	r2, [r3, #0]
 786 0010 9B69     		ldr	r3, [r3, #24]
 787 0012 9268     		ldr	r2, [r2, #8]
 788 0014 9B68     		ldr	r3, [r3, #8]
 789 0016 9A42     		cmp	r2, r3
 790 0018 01D3     		bcc	.L53
 791              		.loc 1 320 0 is_stmt 0 discriminator 1
 792 001a FFF7FEFF 		bl	chSchDoRescheduleBehind
ARM GAS  C:\cygwin\tmp\ccKB5hP3.s 			page 15


 793              	.LVL77:
 794              	.L53:
 795              		.loc 1 321 0 is_stmt 1
 796 001e FFF7FEFF 		bl	dbg_check_unlock
 797              	.LVL78:
 798              	.LBB44:
 799 0022 0023     		movs	r3, #0
 800              	.LVL79:
 801              	@ 321 "../../../os/kernel/src/chthreads.c" 1
 802 0024 83F31188 		msr     BASEPRI, r3
 803              	@ 0 "" 2
 804              	.LVL80:
 805              		.thumb
 806 0028 08BD     		pop	{r3, pc}
 807              	.L55:
 808 002a 00BF     		.align	2
 809              	.L54:
 810 002c 00000000 		.word	rlist
 811              	.LBE44:
 812              		.cfi_endproc
 813              	.LFE16:
 814              		.size	chThdYield, .-chThdYield
 815              		.section	.text.chThdExitS,"ax",%progbits
 816              		.align	2
 817              		.p2align 4,,15
 818              		.global	chThdExitS
 819              		.thumb
 820              		.thumb_func
 821              		.type	chThdExitS, %function
 822              	chThdExitS:
 823              	.LFB18:
 824              		.loc 1 359 0
 825              		.cfi_startproc
 826              		@ args = 0, pretend = 0, frame = 0
 827              		@ frame_needed = 0, uses_anonymous_args = 0
 828              	.LVL81:
 829 0000 38B5     		push	{r3, r4, r5, lr}
 830              	.LCFI10:
 831              		.cfi_def_cfa_offset 16
 832              		.cfi_offset 3, -16
 833              		.cfi_offset 4, -12
 834              		.cfi_offset 5, -8
 835              		.cfi_offset 14, -4
 836              		.loc 1 360 0
 837 0002 104B     		ldr	r3, .L64
 838 0004 9C69     		ldr	r4, [r3, #24]
 839              	.LVL82:
 840              		.loc 1 367 0
 841 0006 2546     		mov	r5, r4
 842              		.loc 1 362 0
 843 0008 A062     		str	r0, [r4, #40]
 844              		.loc 1 367 0
 845 000a 55F82C0F 		ldr	r0, [r5, #44]!
 846              	.LVL83:
 847 000e A842     		cmp	r0, r5
 848 0010 06D0     		beq	.L61
 849              	.LVL84:
ARM GAS  C:\cygwin\tmp\ccKB5hP3.s 			page 16


 850              	.L62:
 851              	.LBB45:
 852              	.LBB46:
 853              		.file 2 "../../../os/kernel/include/chinline.h"
 854              		.loc 2 82 0
 855 0012 0368     		ldr	r3, [r0, #0]
 856 0014 E362     		str	r3, [r4, #44]
 857              	.LBE46:
 858              	.LBE45:
 859              		.loc 1 368 0
 860 0016 FFF7FEFF 		bl	chSchReadyI
 861              	.LVL85:
 862              		.loc 1 367 0
 863 001a E06A     		ldr	r0, [r4, #44]
 864 001c A842     		cmp	r0, r5
 865 001e F8D1     		bne	.L62
 866              	.LVL86:
 867              	.L61:
 868              		.loc 1 373 0
 869 0020 94F82130 		ldrb	r3, [r4, #33]	@ zero_extendqisi2
 870 0024 9B07     		lsls	r3, r3, #30
 871 0026 04D1     		bne	.L59
 872              		.loc 1 374 0
 873 0028 6369     		ldr	r3, [r4, #20]
 874 002a 2269     		ldr	r2, [r4, #16]
 875 002c 1A61     		str	r2, [r3, #16]
 876 002e 2269     		ldr	r2, [r4, #16]
 877 0030 5361     		str	r3, [r2, #20]
 878              	.L59:
 879              		.loc 1 376 0
 880 0032 0E20     		movs	r0, #14
 881 0034 FFF7FEFF 		bl	chSchGoSleepS
 882              	.LVL87:
 883              		.loc 1 378 0
 884 0038 0348     		ldr	r0, .L64+4
 885              		.loc 1 379 0
 886 003a BDE83840 		pop	{r3, r4, r5, lr}
 887              		.loc 1 378 0
 888 003e FFF7FEBF 		b	chDbgPanic
 889              	.LVL88:
 890              	.L65:
 891 0042 00BF     		.align	2
 892              	.L64:
 893 0044 00000000 		.word	rlist
 894 0048 50000000 		.word	.LC4
 895              		.cfi_endproc
 896              	.LFE18:
 897              		.size	chThdExitS, .-chThdExitS
 898 004c AFF30080 		.section	.text.chThdExit,"ax",%progbits
 899              		.align	2
 900              		.p2align 4,,15
 901              		.global	chThdExit
 902              		.thumb
 903              		.thumb_func
 904              		.type	chThdExit, %function
 905              	chThdExit:
 906              	.LFB17:
ARM GAS  C:\cygwin\tmp\ccKB5hP3.s 			page 17


 907              		.loc 1 338 0
 908              		.cfi_startproc
 909              		@ args = 0, pretend = 0, frame = 0
 910              		@ frame_needed = 0, uses_anonymous_args = 0
 911              	.LVL89:
 912 0000 10B5     		push	{r4, lr}
 913              	.LCFI11:
 914              		.cfi_def_cfa_offset 8
 915              		.cfi_offset 4, -8
 916              		.cfi_offset 14, -4
 917              	.LBB47:
 918              		.loc 1 340 0
 919 0002 2023     		movs	r3, #32
 920              	.LVL90:
 921              	.LBE47:
 922              		.loc 1 338 0
 923 0004 0446     		mov	r4, r0
 924              	.LBB48:
 925              		.loc 1 340 0
 926              	@ 340 "../../../os/kernel/src/chthreads.c" 1
 927 0006 83F31188 		msr     BASEPRI, r3
 928              	@ 0 "" 2
 929              	.LVL91:
 930              		.thumb
 931              	.LBE48:
 932 000a FFF7FEFF 		bl	dbg_check_lock
 933              	.LVL92:
 934              		.loc 1 341 0
 935 000e 2046     		mov	r0, r4
 936              		.loc 1 343 0
 937 0010 BDE81040 		pop	{r4, lr}
 938              		.loc 1 341 0
 939 0014 FFF7FEBF 		b	chThdExitS
 940              	.LVL93:
 941              		.cfi_endproc
 942              	.LFE17:
 943              		.size	chThdExit, .-chThdExit
 944 0018 AFF30080 		.section	.text.chThdWait,"ax",%progbits
 944      AFF30080 
 945              		.align	2
 946              		.p2align 4,,15
 947              		.global	chThdWait
 948              		.thumb
 949              		.thumb_func
 950              		.type	chThdWait, %function
 951              	chThdWait:
 952              	.LFB19:
 953              		.loc 1 413 0
 954              		.cfi_startproc
 955              		@ args = 0, pretend = 0, frame = 0
 956              		@ frame_needed = 0, uses_anonymous_args = 0
 957              	.LVL94:
 958 0000 38B5     		push	{r3, r4, r5, lr}
 959              	.LCFI12:
 960              		.cfi_def_cfa_offset 16
 961              		.cfi_offset 3, -16
 962              		.cfi_offset 4, -12
ARM GAS  C:\cygwin\tmp\ccKB5hP3.s 			page 18


 963              		.cfi_offset 5, -8
 964              		.cfi_offset 14, -4
 965              		.loc 1 416 0
 966 0002 0446     		mov	r4, r0
 967 0004 48B3     		cbz	r0, .L75
 968              	.LVL95:
 969              	.L68:
 970              	.LBB49:
 971              		.loc 1 418 0
 972 0006 2023     		movs	r3, #32
 973              	.LVL96:
 974              	@ 418 "../../../os/kernel/src/chthreads.c" 1
 975 0008 83F31188 		msr     BASEPRI, r3
 976              	@ 0 "" 2
 977              	.LVL97:
 978              		.thumb
 979              	.LBE49:
 980              		.loc 1 419 0
 981 000c 154D     		ldr	r5, .L78
 982              		.loc 1 418 0
 983 000e FFF7FEFF 		bl	dbg_check_lock
 984              	.LVL98:
 985              		.loc 1 419 0
 986 0012 AB69     		ldr	r3, [r5, #24]
 987 0014 A342     		cmp	r3, r4
 988 0016 1CD0     		beq	.L76
 989              	.L69:
 990              		.loc 1 421 0
 991 0018 94F82230 		ldrb	r3, [r4, #34]	@ zero_extendqisi2
 992 001c ABB1     		cbz	r3, .L77
 993              	.L70:
 994              		.loc 1 423 0
 995 001e 94F82030 		ldrb	r3, [r4, #32]	@ zero_extendqisi2
 996 0022 0E2B     		cmp	r3, #14
 997 0024 06D0     		beq	.L71
 998              		.loc 1 424 0
 999 0026 AB69     		ldr	r3, [r5, #24]
 1000              	.LVL99:
 1001              	.LBB50:
 1002              	.LBB51:
 1003              		.loc 2 75 0
 1004 0028 E26A     		ldr	r2, [r4, #44]
 1005              	.LBE51:
 1006              	.LBE50:
 1007              		.loc 1 425 0
 1008 002a 0720     		movs	r0, #7
 1009              	.LBB53:
 1010              	.LBB52:
 1011              		.loc 2 75 0
 1012 002c 1A60     		str	r2, [r3, #0]
 1013              		.loc 2 76 0
 1014 002e E362     		str	r3, [r4, #44]
 1015              	.LBE52:
 1016              	.LBE53:
 1017              		.loc 1 425 0
 1018 0030 FFF7FEFF 		bl	chSchGoSleepS
 1019              	.LVL100:
ARM GAS  C:\cygwin\tmp\ccKB5hP3.s 			page 19


 1020              	.L71:
 1021              		.loc 1 427 0
 1022 0034 A56A     		ldr	r5, [r4, #40]
 1023              	.LVL101:
 1024              		.loc 1 428 0
 1025 0036 FFF7FEFF 		bl	dbg_check_unlock
 1026              	.LVL102:
 1027              	.LBB54:
 1028 003a 0023     		movs	r3, #0
 1029              	.LVL103:
 1030              	@ 428 "../../../os/kernel/src/chthreads.c" 1
 1031 003c 83F31188 		msr     BASEPRI, r3
 1032              	@ 0 "" 2
 1033              	.LVL104:
 1034              		.thumb
 1035              	.LBE54:
 1036              		.loc 1 430 0
 1037 0040 2046     		mov	r0, r4
 1038 0042 FFF7FEFF 		bl	chThdRelease
 1039              	.LVL105:
 1040              		.loc 1 433 0
 1041 0046 2846     		mov	r0, r5
 1042 0048 38BD     		pop	{r3, r4, r5, pc}
 1043              	.LVL106:
 1044              	.L77:
 1045              		.loc 1 421 0 discriminator 1
 1046 004a 0748     		ldr	r0, .L78+4
 1047 004c FFF7FEFF 		bl	chDbgPanic
 1048              	.LVL107:
 1049 0050 E5E7     		b	.L70
 1050              	.L76:
 1051              		.loc 1 419 0 discriminator 1
 1052 0052 0648     		ldr	r0, .L78+8
 1053 0054 FFF7FEFF 		bl	chDbgPanic
 1054              	.LVL108:
 1055 0058 DEE7     		b	.L69
 1056              	.LVL109:
 1057              	.L75:
 1058              		.loc 1 416 0 discriminator 1
 1059 005a 0548     		ldr	r0, .L78+12
 1060              	.LVL110:
 1061 005c FFF7FEFF 		bl	chDbgPanic
 1062              	.LVL111:
 1063 0060 D1E7     		b	.L68
 1064              	.L79:
 1065 0062 00BF     		.align	2
 1066              	.L78:
 1067 0064 00000000 		.word	rlist
 1068 0068 84000000 		.word	.LC7
 1069 006c 74000000 		.word	.LC6
 1070 0070 64000000 		.word	.LC5
 1071              		.cfi_endproc
 1072              	.LFE19:
 1073              		.size	chThdWait, .-chThdWait
 1074 0074 AFF30080 		.section	.rodata.str1.4,"aMS",%progbits,1
 1074      AFF30080 
 1074      AFF30080 
ARM GAS  C:\cygwin\tmp\ccKB5hP3.s 			page 20


 1075              		.align	2
 1076              	.LC0:
 1077 0000 22636854 		.ascii	"\"chThdCreateI\"()\000"
 1077      68644372 
 1077      65617465 
 1077      49222829 
 1077      00
 1078 0011 000000   		.space	3
 1079              	.LC1:
 1080 0014 22636854 		.ascii	"\"chThdSetPriority\"()\000"
 1080      68645365 
 1080      74507269 
 1080      6F726974 
 1080      79222829 
 1081 0029 000000   		.space	3
 1082              	.LC2:
 1083 002c 63685468 		.ascii	"chThdResume(), #1\000"
 1083      64526573 
 1083      756D6528 
 1083      292C2023 
 1083      3100
 1084 003e 0000     		.space	2
 1085              	.LC3:
 1086 0040 22636854 		.ascii	"\"chThdSleep\"()\000"
 1086      6864536C 
 1086      65657022 
 1086      282900
 1087 004f 00       		.space	1
 1088              	.LC4:
 1089 0050 63685468 		.ascii	"chThdExitS(), #1\000"
 1089      64457869 
 1089      74532829 
 1089      2C202331 
 1089      00
 1090 0061 000000   		.space	3
 1091              	.LC5:
 1092 0064 22636854 		.ascii	"\"chThdWait\"()\000"
 1092      68645761 
 1092      69742228 
 1092      2900
 1093 0072 0000     		.space	2
 1094              	.LC6:
 1095 0074 63685468 		.ascii	"chThdWait(), #1\000"
 1095      64576169 
 1095      7428292C 
 1095      20233100 
 1096              	.LC7:
 1097 0084 63685468 		.ascii	"chThdWait(), #2\000"
 1097      64576169 
 1097      7428292C 
 1097      20233200 
 1098              		.text
 1099              	.Letext0:
 1100              		.file 3 "c:\\chibinew\\tools\\yagarto-tools\\yagarto-20121222\\bin\\../lib/gcc/arm-none-eabi/4.7.2
 1101              		.file 4 "c:/chibinew/tools/yagarto-tools/yagarto-20121222/lib/gcc/../../arm-none-eabi/sys-include/
 1102              		.file 5 "../../../os/ports/GCC/ARMCMx/chtypes.h"
 1103              		.file 6 "../../../os/kernel/include/chlists.h"
ARM GAS  C:\cygwin\tmp\ccKB5hP3.s 			page 21


 1104              		.file 7 "../../../os/kernel/include/chthreads.h"
 1105              		.file 8 "../../../os/ports/GCC/ARMCMx/chcore_v7m.h"
 1106              		.file 9 "../../../os/kernel/include/chvt.h"
 1107              		.file 10 "../../../os/kernel/include/chschd.h"
 1108              		.file 11 "../../../os/kernel/include/chmtx.h"
 1109              		.file 12 "../../../os/kernel/include/chdebug.h"
 1110              		.file 13 "../../../os/kernel/include/chdynamic.h"