ARM GAS  C:\cygwin\tmp\cc5UuvPy.s 			page 1


   1              		.syntax unified
   2              		.cpu cortex-m4
   3              		.fpu softvfp
   4              		.eabi_attribute 20, 1
   5              		.eabi_attribute 21, 1
   6              		.eabi_attribute 23, 3
   7              		.eabi_attribute 24, 1
   8              		.eabi_attribute 25, 1
   9              		.eabi_attribute 26, 1
  10              		.eabi_attribute 30, 2
  11              		.eabi_attribute 34, 1
  12              		.eabi_attribute 18, 4
  13              		.thumb
  14              		.file	"hal.c"
  15              		.text
  16              	.Ltext0:
  17              		.cfi_sections	.debug_frame
  18              		.section	.text.halInit,"ax",%progbits
  19              		.align	2
  20              		.p2align 4,,15
  21              		.global	halInit
  22              		.thumb
  23              		.thumb_func
  24              		.type	halInit, %function
  25              	halInit:
  26              	.LFB118:
  27              		.file 1 "../../../os/hal/src/hal.c"
  28              		.loc 1 61 0
  29              		.cfi_startproc
  30              		@ args = 0, pretend = 0, frame = 0
  31              		@ frame_needed = 0, uses_anonymous_args = 0
  32 0000 08B5     		push	{r3, lr}
  33              	.LCFI0:
  34              		.cfi_def_cfa_offset 8
  35              		.cfi_offset 3, -8
  36              		.cfi_offset 14, -4
  37              		.loc 1 63 0
  38 0002 FFF7FEFF 		bl	hal_lld_init
  39              	.LVL0:
  40              		.loc 1 69 0
  41 0006 40F20000 		movw	r0, #:lower16:pal_default_config
  42 000a C0F20000 		movt	r0, #:upper16:pal_default_config
  43 000e FFF7FEFF 		bl	_pal_lld_init
  44              	.LVL1:
  45              		.loc 1 102 0
  46 0012 FFF7FEFF 		bl	spiInit
  47              	.LVL2:
  48              		.loc 1 105 0
  49 0016 FFF7FEFF 		bl	uartInit
  50              	.LVL3:
  51              		.loc 1 108 0
  52 001a FFF7FEFF 		bl	usbInit
  53              	.LVL4:
  54              		.loc 1 114 0
  55 001e FFF7FEFF 		bl	sduInit
  56              	.LVL5:
  57              		.loc 1 121 0
ARM GAS  C:\cygwin\tmp\cc5UuvPy.s 			page 2


  58 0022 BDE80840 		pop	{r3, lr}
  59              		.loc 1 120 0
  60 0026 FFF7FEBF 		b	boardInit
  61              	.LVL6:
  62              		.cfi_endproc
  63              	.LFE118:
  64              		.size	halInit, .-halInit
  65              		.section	.text.halIsCounterWithin,"ax",%progbits
  66              		.align	2
  67              		.p2align 4,,15
  68              		.global	halIsCounterWithin
  69              		.thumb
  70              		.thumb_func
  71              		.type	halIsCounterWithin, %function
  72              	halIsCounterWithin:
  73              	.LFB119:
  74              		.loc 1 167 0
  75              		.cfi_startproc
  76              		@ args = 0, pretend = 0, frame = 0
  77              		@ frame_needed = 0, uses_anonymous_args = 0
  78              		@ link register save eliminated.
  79              	.LVL7:
  80              		.loc 1 168 0
  81 0000 4FF48053 		mov	r3, #4096
  82 0004 CEF20003 		movt	r3, 57344
  83              		.loc 1 170 0
  84 0008 8142     		cmp	r1, r0
  85              		.loc 1 167 0
  86 000a 0246     		mov	r2, r0
  87              		.loc 1 168 0
  88 000c 5B68     		ldr	r3, [r3, #4]
  89              	.LVL8:
  90              		.loc 1 170 0
  91 000e 09D8     		bhi	.L6
  92              		.loc 1 171 0 discriminator 2
  93 0010 8342     		cmp	r3, r0
  94 0012 34BF     		ite	cc
  95 0014 0022     		movcc	r2, #0
  96 0016 0122     		movcs	r2, #1
  97 0018 8B42     		cmp	r3, r1
  98 001a 2CBF     		ite	cs
  99 001c 1046     		movcs	r0, r2
 100 001e 42F00100 		orrcc	r0, r2, #1
 101              	.LVL9:
 102              		.loc 1 172 0 discriminator 2
 103 0022 7047     		bx	lr
 104              	.LVL10:
 105              	.L6:
 106              		.loc 1 170 0 discriminator 1
 107 0024 8B42     		cmp	r3, r1
 108 0026 2CBF     		ite	cs
 109 0028 0020     		movcs	r0, #0
 110              	.LVL11:
 111 002a 0120     		movcc	r0, #1
 112 002c 9342     		cmp	r3, r2
 113 002e 38BF     		it	cc
 114 0030 0020     		movcc	r0, #0
ARM GAS  C:\cygwin\tmp\cc5UuvPy.s 			page 3


 115 0032 7047     		bx	lr
 116              		.cfi_endproc
 117              	.LFE119:
 118              		.size	halIsCounterWithin, .-halIsCounterWithin
 119 0034 AFF30080 		.section	.text.halPolledDelay,"ax",%progbits
 119      AFF30080 
 119      AFF30080 
 120              		.align	2
 121              		.p2align 4,,15
 122              		.global	halPolledDelay
 123              		.thumb
 124              		.thumb_func
 125              		.type	halPolledDelay, %function
 126              	halPolledDelay:
 127              	.LFB120:
 128              		.loc 1 186 0
 129              		.cfi_startproc
 130              		@ args = 0, pretend = 0, frame = 0
 131              		@ frame_needed = 0, uses_anonymous_args = 0
 132              		@ link register save eliminated.
 133              	.LVL12:
 134              		.loc 1 187 0
 135 0000 4FF48053 		mov	r3, #4096
 136 0004 CEF20003 		movt	r3, 57344
 137              		.loc 1 186 0
 138 0008 10B4     		push	{r4}
 139              	.LCFI1:
 140              		.cfi_def_cfa_offset 4
 141              		.cfi_offset 4, -4
 142              		.loc 1 187 0
 143 000a 5A68     		ldr	r2, [r3, #4]
 144              	.LVL13:
 145              	.LBB4:
 146              	.LBB5:
 147              		.loc 1 168 0
 148 000c 1C46     		mov	r4, r3
 149              	.LBE5:
 150              	.LBE4:
 151              		.loc 1 188 0
 152 000e 8018     		adds	r0, r0, r2
 153              	.LVL14:
 154              	.L10:
 155              	.LBB8:
 156              	.LBB6:
 157              		.loc 1 170 0 discriminator 1
 158 0010 8242     		cmp	r2, r0
 159              		.loc 1 168 0 discriminator 1
 160 0012 6368     		ldr	r3, [r4, #4]
 161              	.LVL15:
 162              		.loc 1 170 0 discriminator 1
 163 0014 0AD2     		bcs	.L8
 164              		.loc 1 170 0 is_stmt 0
 165 0016 9842     		cmp	r0, r3
 166 0018 94BF     		ite	ls
 167 001a 0021     		movls	r1, #0
 168 001c 0121     		movhi	r1, #1
 169 001e 9A42     		cmp	r2, r3
ARM GAS  C:\cygwin\tmp\cc5UuvPy.s 			page 4


 170 0020 88BF     		it	hi
 171 0022 0021     		movhi	r1, #0
 172              	.LBE6:
 173              	.LBE8:
 174              		.loc 1 189 0 is_stmt 1
 175 0024 0029     		cmp	r1, #0
 176 0026 F3D1     		bne	.L10
 177              	.L12:
 178              		.loc 1 191 0
 179 0028 10BC     		pop	{r4}
 180 002a 7047     		bx	lr
 181              	.L8:
 182              	.LBB9:
 183              	.LBB7:
 184              		.loc 1 171 0
 185 002c 9A42     		cmp	r2, r3
 186 002e 8CBF     		ite	hi
 187 0030 0021     		movhi	r1, #0
 188 0032 0121     		movls	r1, #1
 189 0034 9842     		cmp	r0, r3
 190 0036 88BF     		it	hi
 191 0038 41F00101 		orrhi	r1, r1, #1
 192              	.LBE7:
 193              	.LBE9:
 194              		.loc 1 189 0
 195 003c 0029     		cmp	r1, #0
 196 003e E7D1     		bne	.L10
 197 0040 F2E7     		b	.L12
 198              		.cfi_endproc
 199              	.LFE120:
 200              		.size	halPolledDelay, .-halPolledDelay
 201 0042 00BFAFF3 		.text
 201      0080AFF3 
 201      0080AFF3 
 201      0080
 202              	.Letext0:
 203              		.file 2 "c:/chibinew/tools/yagarto-tools/yagarto-20121222/lib/gcc/../../arm-none-eabi/sys-include/
 204              		.file 3 "../../../os/ports/GCC/ARMCMx/chtypes.h"
 205              		.file 4 "../../../os/ports/common/ARMCMx/nvic.h"
 206              		.file 5 "../../../os/hal/platforms/STM32F30x/hal_lld.h"
 207              		.file 6 "../../../os/hal/platforms/STM32/GPIOv2/pal_lld.h"
 208              		.file 7 "../../../os/ports/common/ARMCMx/CMSIS/include/core_cm4.h"
 209              		.file 8 "../../../os/hal/include/spi.h"
 210              		.file 9 "../../../os/hal/include/uart.h"
 211              		.file 10 "../../../os/hal/include/usb.h"
 212              		.file 11 "../../../os/hal/include/serial_usb.h"
 213              		.file 12 "../../../boards/ST_STM32F3_DISCOVERY/board.h"
 214              		.section	.debug_info,"",%progbits
 215              	.Ldebug_info0:
 216 0000 D6030000 		.4byte	0x3d6
 217 0004 0200     		.2byte	0x2
 218 0006 00000000 		.4byte	.Ldebug_abbrev0
 219 000a 04       		.byte	0x4
 220 000b 01       		.uleb128 0x1
 221 000c BE010000 		.4byte	.LASF52
 222 0010 01       		.byte	0x1
 223 0011 2A000000 		.4byte	.LASF53
ARM GAS  C:\cygwin\tmp\cc5UuvPy.s 			page 5


 224 0015 06020000 		.4byte	.LASF54
 225 0019 40000000 		.4byte	.Ldebug_ranges0+0x40
 226 001d 00000000 		.4byte	0
 227 0021 00000000 		.4byte	0
 228 0025 00000000 		.4byte	.Ldebug_line0
 229 0029 02       		.uleb128 0x2
 230 002a 04       		.byte	0x4
 231 002b 05       		.byte	0x5
 232 002c 696E7400 		.ascii	"int\000"
 233 0030 03       		.uleb128 0x3
 234 0031 04       		.byte	0x4
 235 0032 07       		.byte	0x7
 236 0033 6B000000 		.4byte	.LASF0
 237 0037 03       		.uleb128 0x3
 238 0038 01       		.byte	0x1
 239 0039 06       		.byte	0x6
 240 003a 39020000 		.4byte	.LASF1
 241 003e 03       		.uleb128 0x3
 242 003f 01       		.byte	0x1
 243 0040 08       		.byte	0x8
 244 0041 BD000000 		.4byte	.LASF2
 245 0045 03       		.uleb128 0x3
 246 0046 02       		.byte	0x2
 247 0047 05       		.byte	0x5
 248 0048 D7010000 		.4byte	.LASF3
 249 004c 03       		.uleb128 0x3
 250 004d 02       		.byte	0x2
 251 004e 07       		.byte	0x7
 252 004f 58000000 		.4byte	.LASF4
 253 0053 04       		.uleb128 0x4
 254 0054 98010000 		.4byte	.LASF6
 255 0058 02       		.byte	0x2
 256 0059 4F       		.byte	0x4f
 257 005a 5E000000 		.4byte	0x5e
 258 005e 03       		.uleb128 0x3
 259 005f 04       		.byte	0x4
 260 0060 05       		.byte	0x5
 261 0061 F7010000 		.4byte	.LASF5
 262 0065 04       		.uleb128 0x4
 263 0066 FD000000 		.4byte	.LASF7
 264 006a 02       		.byte	0x2
 265 006b 50       		.byte	0x50
 266 006c 70000000 		.4byte	0x70
 267 0070 03       		.uleb128 0x3
 268 0071 04       		.byte	0x4
 269 0072 07       		.byte	0x7
 270 0073 E6000000 		.4byte	.LASF8
 271 0077 03       		.uleb128 0x3
 272 0078 08       		.byte	0x8
 273 0079 05       		.byte	0x5
 274 007a 00000000 		.4byte	.LASF9
 275 007e 03       		.uleb128 0x3
 276 007f 08       		.byte	0x8
 277 0080 07       		.byte	0x7
 278 0081 54020000 		.4byte	.LASF10
 279 0085 04       		.uleb128 0x4
 280 0086 7F000000 		.4byte	.LASF11
ARM GAS  C:\cygwin\tmp\cc5UuvPy.s 			page 6


 281 008a 03       		.byte	0x3
 282 008b 24       		.byte	0x24
 283 008c 90000000 		.4byte	0x90
 284 0090 03       		.uleb128 0x3
 285 0091 01       		.byte	0x1
 286 0092 02       		.byte	0x2
 287 0093 4E020000 		.4byte	.LASF12
 288 0097 04       		.uleb128 0x4
 289 0098 9E000000 		.4byte	.LASF13
 290 009c 04       		.byte	0x4
 291 009d 33       		.byte	0x33
 292 009e A2000000 		.4byte	0xa2
 293 00a2 05       		.uleb128 0x5
 294 00a3 65000000 		.4byte	0x65
 295 00a7 03       		.uleb128 0x3
 296 00a8 04       		.byte	0x4
 297 00a9 07       		.byte	0x7
 298 00aa A0010000 		.4byte	.LASF14
 299 00ae 06       		.uleb128 0x6
 300 00af 20       		.byte	0x20
 301 00b0 04       		.byte	0x4
 302 00b1 FF       		.byte	0xff
 303 00b2 2F010000 		.4byte	0x12f
 304 00b6 07       		.uleb128 0x7
 305 00b7 80010000 		.4byte	.LASF15
 306 00bb 04       		.byte	0x4
 307 00bc 0001     		.2byte	0x100
 308 00be 97000000 		.4byte	0x97
 309 00c2 02       		.byte	0x2
 310 00c3 23       		.byte	0x23
 311 00c4 00       		.uleb128 0
 312 00c5 07       		.uleb128 0x7
 313 00c6 46010000 		.4byte	.LASF16
 314 00ca 04       		.byte	0x4
 315 00cb 0101     		.2byte	0x101
 316 00cd 97000000 		.4byte	0x97
 317 00d1 02       		.byte	0x2
 318 00d2 23       		.byte	0x23
 319 00d3 04       		.uleb128 0x4
 320 00d4 07       		.uleb128 0x7
 321 00d5 06010000 		.4byte	.LASF17
 322 00d9 04       		.byte	0x4
 323 00da 0201     		.2byte	0x102
 324 00dc 97000000 		.4byte	0x97
 325 00e0 02       		.byte	0x2
 326 00e1 23       		.byte	0x23
 327 00e2 08       		.uleb128 0x8
 328 00e3 07       		.uleb128 0x7
 329 00e4 8E000000 		.4byte	.LASF18
 330 00e8 04       		.byte	0x4
 331 00e9 0301     		.2byte	0x103
 332 00eb 97000000 		.4byte	0x97
 333 00ef 02       		.byte	0x2
 334 00f0 23       		.byte	0x23
 335 00f1 0C       		.uleb128 0xc
 336 00f2 07       		.uleb128 0x7
 337 00f3 95000000 		.4byte	.LASF19
ARM GAS  C:\cygwin\tmp\cc5UuvPy.s 			page 7


 338 00f7 04       		.byte	0x4
 339 00f8 0401     		.2byte	0x104
 340 00fa 97000000 		.4byte	0x97
 341 00fe 02       		.byte	0x2
 342 00ff 23       		.byte	0x23
 343 0100 10       		.uleb128 0x10
 344 0101 07       		.uleb128 0x7
 345 0102 3F010000 		.4byte	.LASF20
 346 0106 04       		.byte	0x4
 347 0107 0501     		.2byte	0x105
 348 0109 97000000 		.4byte	0x97
 349 010d 02       		.byte	0x2
 350 010e 23       		.byte	0x23
 351 010f 14       		.uleb128 0x14
 352 0110 07       		.uleb128 0x7
 353 0111 1A010000 		.4byte	.LASF21
 354 0115 04       		.byte	0x4
 355 0116 0601     		.2byte	0x106
 356 0118 97000000 		.4byte	0x97
 357 011c 02       		.byte	0x2
 358 011d 23       		.byte	0x23
 359 011e 18       		.uleb128 0x18
 360 011f 07       		.uleb128 0x7
 361 0120 B9010000 		.4byte	.LASF22
 362 0124 04       		.byte	0x4
 363 0125 0701     		.2byte	0x107
 364 0127 97000000 		.4byte	0x97
 365 012b 02       		.byte	0x2
 366 012c 23       		.byte	0x23
 367 012d 1C       		.uleb128 0x1c
 368 012e 00       		.byte	0
 369 012f 08       		.uleb128 0x8
 370 0130 E8010000 		.4byte	.LASF23
 371 0134 04       		.byte	0x4
 372 0135 0801     		.2byte	0x108
 373 0137 AE000000 		.4byte	0xae
 374 013b 03       		.uleb128 0x3
 375 013c 01       		.byte	0x1
 376 013d 08       		.byte	0x8
 377 013e 71010000 		.4byte	.LASF24
 378 0142 05       		.uleb128 0x5
 379 0143 53000000 		.4byte	0x53
 380 0147 08       		.uleb128 0x8
 381 0148 66010000 		.4byte	.LASF25
 382 014c 05       		.byte	0x5
 383 014d EA04     		.2byte	0x4ea
 384 014f 65000000 		.4byte	0x65
 385 0153 06       		.uleb128 0x6
 386 0154 1C       		.byte	0x1c
 387 0155 06       		.byte	0x6
 388 0156 A9       		.byte	0xa9
 389 0157 BE010000 		.4byte	0x1be
 390 015b 09       		.uleb128 0x9
 391 015c 00020000 		.4byte	.LASF26
 392 0160 06       		.byte	0x6
 393 0161 AB       		.byte	0xab
 394 0162 65000000 		.4byte	0x65
ARM GAS  C:\cygwin\tmp\cc5UuvPy.s 			page 8


 395 0166 02       		.byte	0x2
 396 0167 23       		.byte	0x23
 397 0168 00       		.uleb128 0
 398 0169 09       		.uleb128 0x9
 399 016a 78000000 		.4byte	.LASF27
 400 016e 06       		.byte	0x6
 401 016f AD       		.byte	0xad
 402 0170 65000000 		.4byte	0x65
 403 0174 02       		.byte	0x2
 404 0175 23       		.byte	0x23
 405 0176 04       		.uleb128 0x4
 406 0177 09       		.uleb128 0x9
 407 0178 A9010000 		.4byte	.LASF28
 408 017c 06       		.byte	0x6
 409 017d AF       		.byte	0xaf
 410 017e 65000000 		.4byte	0x65
 411 0182 02       		.byte	0x2
 412 0183 23       		.byte	0x23
 413 0184 08       		.uleb128 0x8
 414 0185 09       		.uleb128 0x9
 415 0186 4D010000 		.4byte	.LASF29
 416 018a 06       		.byte	0x6
 417 018b B1       		.byte	0xb1
 418 018c 65000000 		.4byte	0x65
 419 0190 02       		.byte	0x2
 420 0191 23       		.byte	0x23
 421 0192 0C       		.uleb128 0xc
 422 0193 0A       		.uleb128 0xa
 423 0194 6F647200 		.ascii	"odr\000"
 424 0198 06       		.byte	0x6
 425 0199 B3       		.byte	0xb3
 426 019a 65000000 		.4byte	0x65
 427 019e 02       		.byte	0x2
 428 019f 23       		.byte	0x23
 429 01a0 10       		.uleb128 0x10
 430 01a1 09       		.uleb128 0x9
 431 01a2 61010000 		.4byte	.LASF30
 432 01a6 06       		.byte	0x6
 433 01a7 B5       		.byte	0xb5
 434 01a8 65000000 		.4byte	0x65
 435 01ac 02       		.byte	0x2
 436 01ad 23       		.byte	0x23
 437 01ae 14       		.uleb128 0x14
 438 01af 09       		.uleb128 0x9
 439 01b0 F8000000 		.4byte	.LASF31
 440 01b4 06       		.byte	0x6
 441 01b5 B7       		.byte	0xb7
 442 01b6 65000000 		.4byte	0x65
 443 01ba 02       		.byte	0x2
 444 01bb 23       		.byte	0x23
 445 01bc 18       		.uleb128 0x18
 446 01bd 00       		.byte	0
 447 01be 04       		.uleb128 0x4
 448 01bf CB000000 		.4byte	.LASF32
 449 01c3 06       		.byte	0x6
 450 01c4 B8       		.byte	0xb8
 451 01c5 53010000 		.4byte	0x153
ARM GAS  C:\cygwin\tmp\cc5UuvPy.s 			page 9


 452 01c9 06       		.uleb128 0x6
 453 01ca A8       		.byte	0xa8
 454 01cb 06       		.byte	0x6
 455 01cc C1       		.byte	0xc1
 456 01cd 27020000 		.4byte	0x227
 457 01d1 09       		.uleb128 0x9
 458 01d2 F0010000 		.4byte	.LASF33
 459 01d6 06       		.byte	0x6
 460 01d7 C3       		.byte	0xc3
 461 01d8 BE010000 		.4byte	0x1be
 462 01dc 02       		.byte	0x2
 463 01dd 23       		.byte	0x23
 464 01de 00       		.uleb128 0
 465 01df 09       		.uleb128 0x9
 466 01e0 5A010000 		.4byte	.LASF34
 467 01e4 06       		.byte	0x6
 468 01e5 C5       		.byte	0xc5
 469 01e6 BE010000 		.4byte	0x1be
 470 01ea 02       		.byte	0x2
 471 01eb 23       		.byte	0x23
 472 01ec 1C       		.uleb128 0x1c
 473 01ed 09       		.uleb128 0x9
 474 01ee E1010000 		.4byte	.LASF35
 475 01f2 06       		.byte	0x6
 476 01f3 C7       		.byte	0xc7
 477 01f4 BE010000 		.4byte	0x1be
 478 01f8 02       		.byte	0x2
 479 01f9 23       		.byte	0x23
 480 01fa 38       		.uleb128 0x38
 481 01fb 09       		.uleb128 0x9
 482 01fc 23000000 		.4byte	.LASF36
 483 0200 06       		.byte	0x6
 484 0201 C9       		.byte	0xc9
 485 0202 BE010000 		.4byte	0x1be
 486 0206 02       		.byte	0x2
 487 0207 23       		.byte	0x23
 488 0208 54       		.uleb128 0x54
 489 0209 09       		.uleb128 0x9
 490 020a B6000000 		.4byte	.LASF37
 491 020e 06       		.byte	0x6
 492 020f CC       		.byte	0xcc
 493 0210 BE010000 		.4byte	0x1be
 494 0214 02       		.byte	0x2
 495 0215 23       		.byte	0x23
 496 0216 70       		.uleb128 0x70
 497 0217 09       		.uleb128 0x9
 498 0218 53010000 		.4byte	.LASF38
 499 021c 06       		.byte	0x6
 500 021d D0       		.byte	0xd0
 501 021e BE010000 		.4byte	0x1be
 502 0222 03       		.byte	0x3
 503 0223 23       		.byte	0x23
 504 0224 8C01     		.uleb128 0x8c
 505 0226 00       		.byte	0
 506 0227 04       		.uleb128 0x4
 507 0228 22010000 		.4byte	.LASF39
 508 022c 06       		.byte	0x6
ARM GAS  C:\cygwin\tmp\cc5UuvPy.s 			page 10


 509 022d DE       		.byte	0xde
 510 022e C9010000 		.4byte	0x1c9
 511 0232 0B       		.uleb128 0xb
 512 0233 01       		.byte	0x1
 513 0234 85010000 		.4byte	.LASF55
 514 0238 01       		.byte	0x1
 515 0239 A7       		.byte	0xa7
 516 023a 01       		.byte	0x1
 517 023b 85000000 		.4byte	0x85
 518 023f 01       		.byte	0x1
 519 0240 66020000 		.4byte	0x266
 520 0244 0C       		.uleb128 0xc
 521 0245 52000000 		.4byte	.LASF40
 522 0249 01       		.byte	0x1
 523 024a A7       		.byte	0xa7
 524 024b 47010000 		.4byte	0x147
 525 024f 0D       		.uleb128 0xd
 526 0250 656E6400 		.ascii	"end\000"
 527 0254 01       		.byte	0x1
 528 0255 A7       		.byte	0xa7
 529 0256 47010000 		.4byte	0x147
 530 025a 0E       		.uleb128 0xe
 531 025b 6E6F7700 		.ascii	"now\000"
 532 025f 01       		.byte	0x1
 533 0260 A8       		.byte	0xa8
 534 0261 47010000 		.4byte	0x147
 535 0265 00       		.byte	0
 536 0266 0F       		.uleb128 0xf
 537 0267 01       		.byte	0x1
 538 0268 AE000000 		.4byte	.LASF41
 539 026c 01       		.byte	0x1
 540 026d 3D       		.byte	0x3d
 541 026e 01       		.byte	0x1
 542 026f 00000000 		.4byte	.LFB118
 543 0273 2A000000 		.4byte	.LFE118
 544 0277 00000000 		.4byte	.LLST0
 545 027b 01       		.byte	0x1
 546 027c C1020000 		.4byte	0x2c1
 547 0280 10       		.uleb128 0x10
 548 0281 06000000 		.4byte	.LVL0
 549 0285 7E030000 		.4byte	0x37e
 550 0289 10       		.uleb128 0x10
 551 028a 12000000 		.4byte	.LVL1
 552 028e 89030000 		.4byte	0x389
 553 0292 10       		.uleb128 0x10
 554 0293 16000000 		.4byte	.LVL2
 555 0297 A4030000 		.4byte	0x3a4
 556 029b 10       		.uleb128 0x10
 557 029c 1A000000 		.4byte	.LVL3
 558 02a0 AF030000 		.4byte	0x3af
 559 02a4 10       		.uleb128 0x10
 560 02a5 1E000000 		.4byte	.LVL4
 561 02a9 B9030000 		.4byte	0x3b9
 562 02ad 10       		.uleb128 0x10
 563 02ae 22000000 		.4byte	.LVL5
 564 02b2 C4030000 		.4byte	0x3c4
 565 02b6 11       		.uleb128 0x11
ARM GAS  C:\cygwin\tmp\cc5UuvPy.s 			page 11


 566 02b7 2A000000 		.4byte	.LVL6
 567 02bb 01       		.byte	0x1
 568 02bc CE030000 		.4byte	0x3ce
 569 02c0 00       		.byte	0
 570 02c1 12       		.uleb128 0x12
 571 02c2 32020000 		.4byte	0x232
 572 02c6 00000000 		.4byte	.LFB119
 573 02ca 34000000 		.4byte	.LFE119
 574 02ce 02       		.byte	0x2
 575 02cf 7D       		.byte	0x7d
 576 02d0 00       		.sleb128 0
 577 02d1 01       		.byte	0x1
 578 02d2 EE020000 		.4byte	0x2ee
 579 02d6 13       		.uleb128 0x13
 580 02d7 44020000 		.4byte	0x244
 581 02db 20000000 		.4byte	.LLST1
 582 02df 14       		.uleb128 0x14
 583 02e0 4F020000 		.4byte	0x24f
 584 02e4 01       		.byte	0x1
 585 02e5 51       		.byte	0x51
 586 02e6 15       		.uleb128 0x15
 587 02e7 5A020000 		.4byte	0x25a
 588 02eb 01       		.byte	0x1
 589 02ec 53       		.byte	0x53
 590 02ed 00       		.byte	0
 591 02ee 0F       		.uleb128 0xf
 592 02ef 01       		.byte	0x1
 593 02f0 0E000000 		.4byte	.LASF42
 594 02f4 01       		.byte	0x1
 595 02f5 BA       		.byte	0xba
 596 02f6 01       		.byte	0x1
 597 02f7 00000000 		.4byte	.LFB120
 598 02fb 42000000 		.4byte	.LFE120
 599 02ff 57000000 		.4byte	.LLST2
 600 0303 01       		.byte	0x1
 601 0304 5D030000 		.4byte	0x35d
 602 0308 16       		.uleb128 0x16
 603 0309 1D000000 		.4byte	.LASF56
 604 030d 01       		.byte	0x1
 605 030e BA       		.byte	0xba
 606 030f 47010000 		.4byte	0x147
 607 0313 77000000 		.4byte	.LLST3
 608 0317 17       		.uleb128 0x17
 609 0318 52000000 		.4byte	.LASF40
 610 031c 01       		.byte	0x1
 611 031d BB       		.byte	0xbb
 612 031e 47010000 		.4byte	0x147
 613 0322 01       		.byte	0x1
 614 0323 52       		.byte	0x52
 615 0324 17       		.uleb128 0x17
 616 0325 B1010000 		.4byte	.LASF43
 617 0329 01       		.byte	0x1
 618 032a BC       		.byte	0xbc
 619 032b 47010000 		.4byte	0x147
 620 032f 01       		.byte	0x1
 621 0330 50       		.byte	0x50
 622 0331 18       		.uleb128 0x18
ARM GAS  C:\cygwin\tmp\cc5UuvPy.s 			page 12


 623 0332 32020000 		.4byte	0x232
 624 0336 0C000000 		.4byte	.LBB4
 625 033a 00000000 		.4byte	.Ldebug_ranges0+0
 626 033e 01       		.byte	0x1
 627 033f BD       		.byte	0xbd
 628 0340 14       		.uleb128 0x14
 629 0341 4F020000 		.4byte	0x24f
 630 0345 01       		.byte	0x1
 631 0346 50       		.byte	0x50
 632 0347 14       		.uleb128 0x14
 633 0348 44020000 		.4byte	0x244
 634 034c 01       		.byte	0x1
 635 034d 52       		.byte	0x52
 636 034e 19       		.uleb128 0x19
 637 034f 20000000 		.4byte	.Ldebug_ranges0+0x20
 638 0353 15       		.uleb128 0x15
 639 0354 5A020000 		.4byte	0x25a
 640 0358 01       		.byte	0x1
 641 0359 53       		.byte	0x53
 642 035a 00       		.byte	0
 643 035b 00       		.byte	0
 644 035c 00       		.byte	0
 645 035d 1A       		.uleb128 0x1a
 646 035e 0D010000 		.4byte	.LASF44
 647 0362 07       		.byte	0x7
 648 0363 9806     		.2byte	0x698
 649 0365 42010000 		.4byte	0x142
 650 0369 01       		.byte	0x1
 651 036a 01       		.byte	0x1
 652 036b 1A       		.uleb128 0x1a
 653 036c 2C010000 		.4byte	.LASF45
 654 0370 06       		.byte	0x6
 655 0371 BA01     		.2byte	0x1ba
 656 0373 79030000 		.4byte	0x379
 657 0377 01       		.byte	0x1
 658 0378 01       		.byte	0x1
 659 0379 1B       		.uleb128 0x1b
 660 037a 27020000 		.4byte	0x227
 661 037e 1C       		.uleb128 0x1c
 662 037f 01       		.byte	0x1
 663 0380 CA010000 		.4byte	.LASF46
 664 0384 05       		.byte	0x5
 665 0385 1305     		.2byte	0x513
 666 0387 01       		.byte	0x1
 667 0388 01       		.byte	0x1
 668 0389 1D       		.uleb128 0x1d
 669 038a 01       		.byte	0x1
 670 038b 44000000 		.4byte	.LASF57
 671 038f 06       		.byte	0x6
 672 0390 BF01     		.2byte	0x1bf
 673 0392 01       		.byte	0x1
 674 0393 01       		.byte	0x1
 675 0394 9E030000 		.4byte	0x39e
 676 0398 1E       		.uleb128 0x1e
 677 0399 9E030000 		.4byte	0x39e
 678 039d 00       		.byte	0
 679 039e 1F       		.uleb128 0x1f
ARM GAS  C:\cygwin\tmp\cc5UuvPy.s 			page 13


 680 039f 04       		.byte	0x4
 681 03a0 79030000 		.4byte	0x379
 682 03a4 1C       		.uleb128 0x1c
 683 03a5 01       		.byte	0x1
 684 03a6 A6000000 		.4byte	.LASF47
 685 03aa 08       		.byte	0x8
 686 03ab 2601     		.2byte	0x126
 687 03ad 01       		.byte	0x1
 688 03ae 01       		.byte	0x1
 689 03af 20       		.uleb128 0x20
 690 03b0 01       		.byte	0x1
 691 03b1 45020000 		.4byte	.LASF48
 692 03b5 09       		.byte	0x9
 693 03b6 66       		.byte	0x66
 694 03b7 01       		.byte	0x1
 695 03b8 01       		.byte	0x1
 696 03b9 1C       		.uleb128 0x1c
 697 03ba 01       		.byte	0x1
 698 03bb 86000000 		.4byte	.LASF49
 699 03bf 0A       		.byte	0xa
 700 03c0 1B02     		.2byte	0x21b
 701 03c2 01       		.byte	0x1
 702 03c3 01       		.byte	0x1
 703 03c4 20       		.uleb128 0x20
 704 03c5 01       		.byte	0x1
 705 03c6 DE000000 		.4byte	.LASF50
 706 03ca 0B       		.byte	0xb
 707 03cb 9B       		.byte	0x9b
 708 03cc 01       		.byte	0x1
 709 03cd 01       		.byte	0x1
 710 03ce 1C       		.uleb128 0x1c
 711 03cf 01       		.byte	0x1
 712 03d0 76010000 		.4byte	.LASF51
 713 03d4 0C       		.byte	0xc
 714 03d5 7D03     		.2byte	0x37d
 715 03d7 01       		.byte	0x1
 716 03d8 01       		.byte	0x1
 717 03d9 00       		.byte	0
 718              		.section	.debug_abbrev,"",%progbits
 719              	.Ldebug_abbrev0:
 720 0000 01       		.uleb128 0x1
 721 0001 11       		.uleb128 0x11
 722 0002 01       		.byte	0x1
 723 0003 25       		.uleb128 0x25
 724 0004 0E       		.uleb128 0xe
 725 0005 13       		.uleb128 0x13
 726 0006 0B       		.uleb128 0xb
 727 0007 03       		.uleb128 0x3
 728 0008 0E       		.uleb128 0xe
 729 0009 1B       		.uleb128 0x1b
 730 000a 0E       		.uleb128 0xe
 731 000b 55       		.uleb128 0x55
 732 000c 06       		.uleb128 0x6
 733 000d 11       		.uleb128 0x11
 734 000e 01       		.uleb128 0x1
 735 000f 52       		.uleb128 0x52
 736 0010 01       		.uleb128 0x1
ARM GAS  C:\cygwin\tmp\cc5UuvPy.s 			page 14


 737 0011 10       		.uleb128 0x10
 738 0012 06       		.uleb128 0x6
 739 0013 00       		.byte	0
 740 0014 00       		.byte	0
 741 0015 02       		.uleb128 0x2
 742 0016 24       		.uleb128 0x24
 743 0017 00       		.byte	0
 744 0018 0B       		.uleb128 0xb
 745 0019 0B       		.uleb128 0xb
 746 001a 3E       		.uleb128 0x3e
 747 001b 0B       		.uleb128 0xb
 748 001c 03       		.uleb128 0x3
 749 001d 08       		.uleb128 0x8
 750 001e 00       		.byte	0
 751 001f 00       		.byte	0
 752 0020 03       		.uleb128 0x3
 753 0021 24       		.uleb128 0x24
 754 0022 00       		.byte	0
 755 0023 0B       		.uleb128 0xb
 756 0024 0B       		.uleb128 0xb
 757 0025 3E       		.uleb128 0x3e
 758 0026 0B       		.uleb128 0xb
 759 0027 03       		.uleb128 0x3
 760 0028 0E       		.uleb128 0xe
 761 0029 00       		.byte	0
 762 002a 00       		.byte	0
 763 002b 04       		.uleb128 0x4
 764 002c 16       		.uleb128 0x16
 765 002d 00       		.byte	0
 766 002e 03       		.uleb128 0x3
 767 002f 0E       		.uleb128 0xe
 768 0030 3A       		.uleb128 0x3a
 769 0031 0B       		.uleb128 0xb
 770 0032 3B       		.uleb128 0x3b
 771 0033 0B       		.uleb128 0xb
 772 0034 49       		.uleb128 0x49
 773 0035 13       		.uleb128 0x13
 774 0036 00       		.byte	0
 775 0037 00       		.byte	0
 776 0038 05       		.uleb128 0x5
 777 0039 35       		.uleb128 0x35
 778 003a 00       		.byte	0
 779 003b 49       		.uleb128 0x49
 780 003c 13       		.uleb128 0x13
 781 003d 00       		.byte	0
 782 003e 00       		.byte	0
 783 003f 06       		.uleb128 0x6
 784 0040 13       		.uleb128 0x13
 785 0041 01       		.byte	0x1
 786 0042 0B       		.uleb128 0xb
 787 0043 0B       		.uleb128 0xb
 788 0044 3A       		.uleb128 0x3a
 789 0045 0B       		.uleb128 0xb
 790 0046 3B       		.uleb128 0x3b
 791 0047 0B       		.uleb128 0xb
 792 0048 01       		.uleb128 0x1
 793 0049 13       		.uleb128 0x13
ARM GAS  C:\cygwin\tmp\cc5UuvPy.s 			page 15


 794 004a 00       		.byte	0
 795 004b 00       		.byte	0
 796 004c 07       		.uleb128 0x7
 797 004d 0D       		.uleb128 0xd
 798 004e 00       		.byte	0
 799 004f 03       		.uleb128 0x3
 800 0050 0E       		.uleb128 0xe
 801 0051 3A       		.uleb128 0x3a
 802 0052 0B       		.uleb128 0xb
 803 0053 3B       		.uleb128 0x3b
 804 0054 05       		.uleb128 0x5
 805 0055 49       		.uleb128 0x49
 806 0056 13       		.uleb128 0x13
 807 0057 38       		.uleb128 0x38
 808 0058 0A       		.uleb128 0xa
 809 0059 00       		.byte	0
 810 005a 00       		.byte	0
 811 005b 08       		.uleb128 0x8
 812 005c 16       		.uleb128 0x16
 813 005d 00       		.byte	0
 814 005e 03       		.uleb128 0x3
 815 005f 0E       		.uleb128 0xe
 816 0060 3A       		.uleb128 0x3a
 817 0061 0B       		.uleb128 0xb
 818 0062 3B       		.uleb128 0x3b
 819 0063 05       		.uleb128 0x5
 820 0064 49       		.uleb128 0x49
 821 0065 13       		.uleb128 0x13
 822 0066 00       		.byte	0
 823 0067 00       		.byte	0
 824 0068 09       		.uleb128 0x9
 825 0069 0D       		.uleb128 0xd
 826 006a 00       		.byte	0
 827 006b 03       		.uleb128 0x3
 828 006c 0E       		.uleb128 0xe
 829 006d 3A       		.uleb128 0x3a
 830 006e 0B       		.uleb128 0xb
 831 006f 3B       		.uleb128 0x3b
 832 0070 0B       		.uleb128 0xb
 833 0071 49       		.uleb128 0x49
 834 0072 13       		.uleb128 0x13
 835 0073 38       		.uleb128 0x38
 836 0074 0A       		.uleb128 0xa
 837 0075 00       		.byte	0
 838 0076 00       		.byte	0
 839 0077 0A       		.uleb128 0xa
 840 0078 0D       		.uleb128 0xd
 841 0079 00       		.byte	0
 842 007a 03       		.uleb128 0x3
 843 007b 08       		.uleb128 0x8
 844 007c 3A       		.uleb128 0x3a
 845 007d 0B       		.uleb128 0xb
 846 007e 3B       		.uleb128 0x3b
 847 007f 0B       		.uleb128 0xb
 848 0080 49       		.uleb128 0x49
 849 0081 13       		.uleb128 0x13
 850 0082 38       		.uleb128 0x38
ARM GAS  C:\cygwin\tmp\cc5UuvPy.s 			page 16


 851 0083 0A       		.uleb128 0xa
 852 0084 00       		.byte	0
 853 0085 00       		.byte	0
 854 0086 0B       		.uleb128 0xb
 855 0087 2E       		.uleb128 0x2e
 856 0088 01       		.byte	0x1
 857 0089 3F       		.uleb128 0x3f
 858 008a 0C       		.uleb128 0xc
 859 008b 03       		.uleb128 0x3
 860 008c 0E       		.uleb128 0xe
 861 008d 3A       		.uleb128 0x3a
 862 008e 0B       		.uleb128 0xb
 863 008f 3B       		.uleb128 0x3b
 864 0090 0B       		.uleb128 0xb
 865 0091 27       		.uleb128 0x27
 866 0092 0C       		.uleb128 0xc
 867 0093 49       		.uleb128 0x49
 868 0094 13       		.uleb128 0x13
 869 0095 20       		.uleb128 0x20
 870 0096 0B       		.uleb128 0xb
 871 0097 01       		.uleb128 0x1
 872 0098 13       		.uleb128 0x13
 873 0099 00       		.byte	0
 874 009a 00       		.byte	0
 875 009b 0C       		.uleb128 0xc
 876 009c 05       		.uleb128 0x5
 877 009d 00       		.byte	0
 878 009e 03       		.uleb128 0x3
 879 009f 0E       		.uleb128 0xe
 880 00a0 3A       		.uleb128 0x3a
 881 00a1 0B       		.uleb128 0xb
 882 00a2 3B       		.uleb128 0x3b
 883 00a3 0B       		.uleb128 0xb
 884 00a4 49       		.uleb128 0x49
 885 00a5 13       		.uleb128 0x13
 886 00a6 00       		.byte	0
 887 00a7 00       		.byte	0
 888 00a8 0D       		.uleb128 0xd
 889 00a9 05       		.uleb128 0x5
 890 00aa 00       		.byte	0
 891 00ab 03       		.uleb128 0x3
 892 00ac 08       		.uleb128 0x8
 893 00ad 3A       		.uleb128 0x3a
 894 00ae 0B       		.uleb128 0xb
 895 00af 3B       		.uleb128 0x3b
 896 00b0 0B       		.uleb128 0xb
 897 00b1 49       		.uleb128 0x49
 898 00b2 13       		.uleb128 0x13
 899 00b3 00       		.byte	0
 900 00b4 00       		.byte	0
 901 00b5 0E       		.uleb128 0xe
 902 00b6 34       		.uleb128 0x34
 903 00b7 00       		.byte	0
 904 00b8 03       		.uleb128 0x3
 905 00b9 08       		.uleb128 0x8
 906 00ba 3A       		.uleb128 0x3a
 907 00bb 0B       		.uleb128 0xb
ARM GAS  C:\cygwin\tmp\cc5UuvPy.s 			page 17


 908 00bc 3B       		.uleb128 0x3b
 909 00bd 0B       		.uleb128 0xb
 910 00be 49       		.uleb128 0x49
 911 00bf 13       		.uleb128 0x13
 912 00c0 00       		.byte	0
 913 00c1 00       		.byte	0
 914 00c2 0F       		.uleb128 0xf
 915 00c3 2E       		.uleb128 0x2e
 916 00c4 01       		.byte	0x1
 917 00c5 3F       		.uleb128 0x3f
 918 00c6 0C       		.uleb128 0xc
 919 00c7 03       		.uleb128 0x3
 920 00c8 0E       		.uleb128 0xe
 921 00c9 3A       		.uleb128 0x3a
 922 00ca 0B       		.uleb128 0xb
 923 00cb 3B       		.uleb128 0x3b
 924 00cc 0B       		.uleb128 0xb
 925 00cd 27       		.uleb128 0x27
 926 00ce 0C       		.uleb128 0xc
 927 00cf 11       		.uleb128 0x11
 928 00d0 01       		.uleb128 0x1
 929 00d1 12       		.uleb128 0x12
 930 00d2 01       		.uleb128 0x1
 931 00d3 40       		.uleb128 0x40
 932 00d4 06       		.uleb128 0x6
 933 00d5 9742     		.uleb128 0x2117
 934 00d7 0C       		.uleb128 0xc
 935 00d8 01       		.uleb128 0x1
 936 00d9 13       		.uleb128 0x13
 937 00da 00       		.byte	0
 938 00db 00       		.byte	0
 939 00dc 10       		.uleb128 0x10
 940 00dd 898201   		.uleb128 0x4109
 941 00e0 00       		.byte	0
 942 00e1 11       		.uleb128 0x11
 943 00e2 01       		.uleb128 0x1
 944 00e3 31       		.uleb128 0x31
 945 00e4 13       		.uleb128 0x13
 946 00e5 00       		.byte	0
 947 00e6 00       		.byte	0
 948 00e7 11       		.uleb128 0x11
 949 00e8 898201   		.uleb128 0x4109
 950 00eb 00       		.byte	0
 951 00ec 11       		.uleb128 0x11
 952 00ed 01       		.uleb128 0x1
 953 00ee 9542     		.uleb128 0x2115
 954 00f0 0C       		.uleb128 0xc
 955 00f1 31       		.uleb128 0x31
 956 00f2 13       		.uleb128 0x13
 957 00f3 00       		.byte	0
 958 00f4 00       		.byte	0
 959 00f5 12       		.uleb128 0x12
 960 00f6 2E       		.uleb128 0x2e
 961 00f7 01       		.byte	0x1
 962 00f8 31       		.uleb128 0x31
 963 00f9 13       		.uleb128 0x13
 964 00fa 11       		.uleb128 0x11
ARM GAS  C:\cygwin\tmp\cc5UuvPy.s 			page 18


 965 00fb 01       		.uleb128 0x1
 966 00fc 12       		.uleb128 0x12
 967 00fd 01       		.uleb128 0x1
 968 00fe 40       		.uleb128 0x40
 969 00ff 0A       		.uleb128 0xa
 970 0100 9742     		.uleb128 0x2117
 971 0102 0C       		.uleb128 0xc
 972 0103 01       		.uleb128 0x1
 973 0104 13       		.uleb128 0x13
 974 0105 00       		.byte	0
 975 0106 00       		.byte	0
 976 0107 13       		.uleb128 0x13
 977 0108 05       		.uleb128 0x5
 978 0109 00       		.byte	0
 979 010a 31       		.uleb128 0x31
 980 010b 13       		.uleb128 0x13
 981 010c 02       		.uleb128 0x2
 982 010d 06       		.uleb128 0x6
 983 010e 00       		.byte	0
 984 010f 00       		.byte	0
 985 0110 14       		.uleb128 0x14
 986 0111 05       		.uleb128 0x5
 987 0112 00       		.byte	0
 988 0113 31       		.uleb128 0x31
 989 0114 13       		.uleb128 0x13
 990 0115 02       		.uleb128 0x2
 991 0116 0A       		.uleb128 0xa
 992 0117 00       		.byte	0
 993 0118 00       		.byte	0
 994 0119 15       		.uleb128 0x15
 995 011a 34       		.uleb128 0x34
 996 011b 00       		.byte	0
 997 011c 31       		.uleb128 0x31
 998 011d 13       		.uleb128 0x13
 999 011e 02       		.uleb128 0x2
 1000 011f 0A       		.uleb128 0xa
 1001 0120 00       		.byte	0
 1002 0121 00       		.byte	0
 1003 0122 16       		.uleb128 0x16
 1004 0123 05       		.uleb128 0x5
 1005 0124 00       		.byte	0
 1006 0125 03       		.uleb128 0x3
 1007 0126 0E       		.uleb128 0xe
 1008 0127 3A       		.uleb128 0x3a
 1009 0128 0B       		.uleb128 0xb
 1010 0129 3B       		.uleb128 0x3b
 1011 012a 0B       		.uleb128 0xb
 1012 012b 49       		.uleb128 0x49
 1013 012c 13       		.uleb128 0x13
 1014 012d 02       		.uleb128 0x2
 1015 012e 06       		.uleb128 0x6
 1016 012f 00       		.byte	0
 1017 0130 00       		.byte	0
 1018 0131 17       		.uleb128 0x17
 1019 0132 34       		.uleb128 0x34
 1020 0133 00       		.byte	0
 1021 0134 03       		.uleb128 0x3
ARM GAS  C:\cygwin\tmp\cc5UuvPy.s 			page 19


 1022 0135 0E       		.uleb128 0xe
 1023 0136 3A       		.uleb128 0x3a
 1024 0137 0B       		.uleb128 0xb
 1025 0138 3B       		.uleb128 0x3b
 1026 0139 0B       		.uleb128 0xb
 1027 013a 49       		.uleb128 0x49
 1028 013b 13       		.uleb128 0x13
 1029 013c 02       		.uleb128 0x2
 1030 013d 0A       		.uleb128 0xa
 1031 013e 00       		.byte	0
 1032 013f 00       		.byte	0
 1033 0140 18       		.uleb128 0x18
 1034 0141 1D       		.uleb128 0x1d
 1035 0142 01       		.byte	0x1
 1036 0143 31       		.uleb128 0x31
 1037 0144 13       		.uleb128 0x13
 1038 0145 52       		.uleb128 0x52
 1039 0146 01       		.uleb128 0x1
 1040 0147 55       		.uleb128 0x55
 1041 0148 06       		.uleb128 0x6
 1042 0149 58       		.uleb128 0x58
 1043 014a 0B       		.uleb128 0xb
 1044 014b 59       		.uleb128 0x59
 1045 014c 0B       		.uleb128 0xb
 1046 014d 00       		.byte	0
 1047 014e 00       		.byte	0
 1048 014f 19       		.uleb128 0x19
 1049 0150 0B       		.uleb128 0xb
 1050 0151 01       		.byte	0x1
 1051 0152 55       		.uleb128 0x55
 1052 0153 06       		.uleb128 0x6
 1053 0154 00       		.byte	0
 1054 0155 00       		.byte	0
 1055 0156 1A       		.uleb128 0x1a
 1056 0157 34       		.uleb128 0x34
 1057 0158 00       		.byte	0
 1058 0159 03       		.uleb128 0x3
 1059 015a 0E       		.uleb128 0xe
 1060 015b 3A       		.uleb128 0x3a
 1061 015c 0B       		.uleb128 0xb
 1062 015d 3B       		.uleb128 0x3b
 1063 015e 05       		.uleb128 0x5
 1064 015f 49       		.uleb128 0x49
 1065 0160 13       		.uleb128 0x13
 1066 0161 3F       		.uleb128 0x3f
 1067 0162 0C       		.uleb128 0xc
 1068 0163 3C       		.uleb128 0x3c
 1069 0164 0C       		.uleb128 0xc
 1070 0165 00       		.byte	0
 1071 0166 00       		.byte	0
 1072 0167 1B       		.uleb128 0x1b
 1073 0168 26       		.uleb128 0x26
 1074 0169 00       		.byte	0
 1075 016a 49       		.uleb128 0x49
 1076 016b 13       		.uleb128 0x13
 1077 016c 00       		.byte	0
 1078 016d 00       		.byte	0
ARM GAS  C:\cygwin\tmp\cc5UuvPy.s 			page 20


 1079 016e 1C       		.uleb128 0x1c
 1080 016f 2E       		.uleb128 0x2e
 1081 0170 00       		.byte	0
 1082 0171 3F       		.uleb128 0x3f
 1083 0172 0C       		.uleb128 0xc
 1084 0173 03       		.uleb128 0x3
 1085 0174 0E       		.uleb128 0xe
 1086 0175 3A       		.uleb128 0x3a
 1087 0176 0B       		.uleb128 0xb
 1088 0177 3B       		.uleb128 0x3b
 1089 0178 05       		.uleb128 0x5
 1090 0179 27       		.uleb128 0x27
 1091 017a 0C       		.uleb128 0xc
 1092 017b 3C       		.uleb128 0x3c
 1093 017c 0C       		.uleb128 0xc
 1094 017d 00       		.byte	0
 1095 017e 00       		.byte	0
 1096 017f 1D       		.uleb128 0x1d
 1097 0180 2E       		.uleb128 0x2e
 1098 0181 01       		.byte	0x1
 1099 0182 3F       		.uleb128 0x3f
 1100 0183 0C       		.uleb128 0xc
 1101 0184 03       		.uleb128 0x3
 1102 0185 0E       		.uleb128 0xe
 1103 0186 3A       		.uleb128 0x3a
 1104 0187 0B       		.uleb128 0xb
 1105 0188 3B       		.uleb128 0x3b
 1106 0189 05       		.uleb128 0x5
 1107 018a 27       		.uleb128 0x27
 1108 018b 0C       		.uleb128 0xc
 1109 018c 3C       		.uleb128 0x3c
 1110 018d 0C       		.uleb128 0xc
 1111 018e 01       		.uleb128 0x1
 1112 018f 13       		.uleb128 0x13
 1113 0190 00       		.byte	0
 1114 0191 00       		.byte	0
 1115 0192 1E       		.uleb128 0x1e
 1116 0193 05       		.uleb128 0x5
 1117 0194 00       		.byte	0
 1118 0195 49       		.uleb128 0x49
 1119 0196 13       		.uleb128 0x13
 1120 0197 00       		.byte	0
 1121 0198 00       		.byte	0
 1122 0199 1F       		.uleb128 0x1f
 1123 019a 0F       		.uleb128 0xf
 1124 019b 00       		.byte	0
 1125 019c 0B       		.uleb128 0xb
 1126 019d 0B       		.uleb128 0xb
 1127 019e 49       		.uleb128 0x49
 1128 019f 13       		.uleb128 0x13
 1129 01a0 00       		.byte	0
 1130 01a1 00       		.byte	0
 1131 01a2 20       		.uleb128 0x20
 1132 01a3 2E       		.uleb128 0x2e
 1133 01a4 00       		.byte	0
 1134 01a5 3F       		.uleb128 0x3f
 1135 01a6 0C       		.uleb128 0xc
ARM GAS  C:\cygwin\tmp\cc5UuvPy.s 			page 21


 1136 01a7 03       		.uleb128 0x3
 1137 01a8 0E       		.uleb128 0xe
 1138 01a9 3A       		.uleb128 0x3a
 1139 01aa 0B       		.uleb128 0xb
 1140 01ab 3B       		.uleb128 0x3b
 1141 01ac 0B       		.uleb128 0xb
 1142 01ad 27       		.uleb128 0x27
 1143 01ae 0C       		.uleb128 0xc
 1144 01af 3C       		.uleb128 0x3c
 1145 01b0 0C       		.uleb128 0xc
 1146 01b1 00       		.byte	0
 1147 01b2 00       		.byte	0
 1148 01b3 00       		.byte	0
 1149              		.section	.debug_loc,"",%progbits
 1150              	.Ldebug_loc0:
 1151              	.LLST0:
 1152 0000 00000000 		.4byte	.LFB118
 1153 0004 02000000 		.4byte	.LCFI0
 1154 0008 0200     		.2byte	0x2
 1155 000a 7D       		.byte	0x7d
 1156 000b 00       		.sleb128 0
 1157 000c 02000000 		.4byte	.LCFI0
 1158 0010 2A000000 		.4byte	.LFE118
 1159 0014 0200     		.2byte	0x2
 1160 0016 7D       		.byte	0x7d
 1161 0017 08       		.sleb128 8
 1162 0018 00000000 		.4byte	0
 1163 001c 00000000 		.4byte	0
 1164              	.LLST1:
 1165 0020 00000000 		.4byte	.LVL7
 1166 0024 22000000 		.4byte	.LVL9
 1167 0028 0100     		.2byte	0x1
 1168 002a 50       		.byte	0x50
 1169 002b 22000000 		.4byte	.LVL9
 1170 002f 24000000 		.4byte	.LVL10
 1171 0033 0400     		.2byte	0x4
 1172 0035 F3       		.byte	0xf3
 1173 0036 01       		.uleb128 0x1
 1174 0037 50       		.byte	0x50
 1175 0038 9F       		.byte	0x9f
 1176 0039 24000000 		.4byte	.LVL10
 1177 003d 2A000000 		.4byte	.LVL11
 1178 0041 0100     		.2byte	0x1
 1179 0043 50       		.byte	0x50
 1180 0044 2A000000 		.4byte	.LVL11
 1181 0048 34000000 		.4byte	.LFE119
 1182 004c 0100     		.2byte	0x1
 1183 004e 52       		.byte	0x52
 1184 004f 00000000 		.4byte	0
 1185 0053 00000000 		.4byte	0
 1186              	.LLST2:
 1187 0057 00000000 		.4byte	.LFB120
 1188 005b 0A000000 		.4byte	.LCFI1
 1189 005f 0200     		.2byte	0x2
 1190 0061 7D       		.byte	0x7d
 1191 0062 00       		.sleb128 0
 1192 0063 0A000000 		.4byte	.LCFI1
ARM GAS  C:\cygwin\tmp\cc5UuvPy.s 			page 22


 1193 0067 42000000 		.4byte	.LFE120
 1194 006b 0200     		.2byte	0x2
 1195 006d 7D       		.byte	0x7d
 1196 006e 04       		.sleb128 4
 1197 006f 00000000 		.4byte	0
 1198 0073 00000000 		.4byte	0
 1199              	.LLST3:
 1200 0077 00000000 		.4byte	.LVL12
 1201 007b 10000000 		.4byte	.LVL14
 1202 007f 0100     		.2byte	0x1
 1203 0081 50       		.byte	0x50
 1204 0082 10000000 		.4byte	.LVL14
 1205 0086 42000000 		.4byte	.LFE120
 1206 008a 0400     		.2byte	0x4
 1207 008c F3       		.byte	0xf3
 1208 008d 01       		.uleb128 0x1
 1209 008e 50       		.byte	0x50
 1210 008f 9F       		.byte	0x9f
 1211 0090 00000000 		.4byte	0
 1212 0094 00000000 		.4byte	0
 1213              		.section	.debug_aranges,"",%progbits
 1214 0000 2C000000 		.4byte	0x2c
 1215 0004 0200     		.2byte	0x2
 1216 0006 00000000 		.4byte	.Ldebug_info0
 1217 000a 04       		.byte	0x4
 1218 000b 00       		.byte	0
 1219 000c 0000     		.2byte	0
 1220 000e 0000     		.2byte	0
 1221 0010 00000000 		.4byte	.LFB118
 1222 0014 2A000000 		.4byte	.LFE118-.LFB118
 1223 0018 00000000 		.4byte	.LFB119
 1224 001c 34000000 		.4byte	.LFE119-.LFB119
 1225 0020 00000000 		.4byte	.LFB120
 1226 0024 42000000 		.4byte	.LFE120-.LFB120
 1227 0028 00000000 		.4byte	0
 1228 002c 00000000 		.4byte	0
 1229              		.section	.debug_ranges,"",%progbits
 1230              	.Ldebug_ranges0:
 1231 0000 0C000000 		.4byte	.LBB4
 1232 0004 0E000000 		.4byte	.LBE4
 1233 0008 10000000 		.4byte	.LBB8
 1234 000c 24000000 		.4byte	.LBE8
 1235 0010 2C000000 		.4byte	.LBB9
 1236 0014 3C000000 		.4byte	.LBE9
 1237 0018 00000000 		.4byte	0
 1238 001c 00000000 		.4byte	0
 1239 0020 0C000000 		.4byte	.LBB5
 1240 0024 0E000000 		.4byte	.LBE5
 1241 0028 10000000 		.4byte	.LBB6
 1242 002c 24000000 		.4byte	.LBE6
 1243 0030 2C000000 		.4byte	.LBB7
 1244 0034 3C000000 		.4byte	.LBE7
 1245 0038 00000000 		.4byte	0
 1246 003c 00000000 		.4byte	0
 1247 0040 00000000 		.4byte	.LFB118
 1248 0044 2A000000 		.4byte	.LFE118
 1249 0048 00000000 		.4byte	.LFB119
ARM GAS  C:\cygwin\tmp\cc5UuvPy.s 			page 23


 1250 004c 34000000 		.4byte	.LFE119
 1251 0050 00000000 		.4byte	.LFB120
 1252 0054 42000000 		.4byte	.LFE120
 1253 0058 00000000 		.4byte	0
 1254 005c 00000000 		.4byte	0
 1255              		.section	.debug_line,"",%progbits
 1256              	.Ldebug_line0:
 1257 0000 78020000 		.section	.debug_str,"MS",%progbits,1
 1257      0200FE01 
 1257      00000201 
 1257      FB0E0D00 
 1257      01010101 
 1258              	.LASF9:
 1259 0000 6C6F6E67 		.ascii	"long long int\000"
 1259      206C6F6E 
 1259      6720696E 
 1259      7400
 1260              	.LASF42:
 1261 000e 68616C50 		.ascii	"halPolledDelay\000"
 1261      6F6C6C65 
 1261      6444656C 
 1261      617900
 1262              	.LASF56:
 1263 001d 7469636B 		.ascii	"ticks\000"
 1263      7300
 1264              	.LASF36:
 1265 0023 50444461 		.ascii	"PDData\000"
 1265      746100
 1266              	.LASF53:
 1267 002a 2E2E2F2E 		.ascii	"../../../os/hal/src/hal.c\000"
 1267      2E2F2E2E 
 1267      2F6F732F 
 1267      68616C2F 
 1267      7372632F 
 1268              	.LASF57:
 1269 0044 5F70616C 		.ascii	"_pal_lld_init\000"
 1269      5F6C6C64 
 1269      5F696E69 
 1269      7400
 1270              	.LASF40:
 1271 0052 73746172 		.ascii	"start\000"
 1271      7400
 1272              	.LASF4:
 1273 0058 73686F72 		.ascii	"short unsigned int\000"
 1273      7420756E 
 1273      7369676E 
 1273      65642069 
 1273      6E7400
 1274              	.LASF0:
 1275 006b 756E7369 		.ascii	"unsigned int\000"
 1275      676E6564 
 1275      20696E74 
 1275      00
 1276              	.LASF27:
 1277 0078 6F747970 		.ascii	"otyper\000"
 1277      657200
 1278              	.LASF11:
ARM GAS  C:\cygwin\tmp\cc5UuvPy.s 			page 24


 1279 007f 626F6F6C 		.ascii	"bool_t\000"
 1279      5F7400
 1280              	.LASF49:
 1281 0086 75736249 		.ascii	"usbInit\000"
 1281      6E697400 
 1282              	.LASF18:
 1283 008e 45584343 		.ascii	"EXCCNT\000"
 1283      4E5400
 1284              	.LASF19:
 1285 0095 534C4545 		.ascii	"SLEEPCNT\000"
 1285      50434E54 
 1285      00
 1286              	.LASF13:
 1287 009e 494F5245 		.ascii	"IOREG32\000"
 1287      47333200 
 1288              	.LASF47:
 1289 00a6 73706949 		.ascii	"spiInit\000"
 1289      6E697400 
 1290              	.LASF41:
 1291 00ae 68616C49 		.ascii	"halInit\000"
 1291      6E697400 
 1292              	.LASF37:
 1293 00b6 50454461 		.ascii	"PEData\000"
 1293      746100
 1294              	.LASF2:
 1295 00bd 756E7369 		.ascii	"unsigned char\000"
 1295      676E6564 
 1295      20636861 
 1295      7200
 1296              	.LASF32:
 1297 00cb 73746D33 		.ascii	"stm32_gpio_setup_t\000"
 1297      325F6770 
 1297      696F5F73 
 1297      65747570 
 1297      5F7400
 1298              	.LASF50:
 1299 00de 73647549 		.ascii	"sduInit\000"
 1299      6E697400 
 1300              	.LASF8:
 1301 00e6 6C6F6E67 		.ascii	"long unsigned int\000"
 1301      20756E73 
 1301      69676E65 
 1301      6420696E 
 1301      7400
 1302              	.LASF31:
 1303 00f8 61667268 		.ascii	"afrh\000"
 1303      00
 1304              	.LASF7:
 1305 00fd 75696E74 		.ascii	"uint32_t\000"
 1305      33325F74 
 1305      00
 1306              	.LASF17:
 1307 0106 43504943 		.ascii	"CPICNT\000"
 1307      4E5400
 1308              	.LASF44:
 1309 010d 49544D5F 		.ascii	"ITM_RxBuffer\000"
 1309      52784275 
ARM GAS  C:\cygwin\tmp\cc5UuvPy.s 			page 25


 1309      66666572 
 1309      00
 1310              	.LASF21:
 1311 011a 464F4C44 		.ascii	"FOLDCNT\000"
 1311      434E5400 
 1312              	.LASF39:
 1313 0122 50414C43 		.ascii	"PALConfig\000"
 1313      6F6E6669 
 1313      6700
 1314              	.LASF45:
 1315 012c 70616C5F 		.ascii	"pal_default_config\000"
 1315      64656661 
 1315      756C745F 
 1315      636F6E66 
 1315      696700
 1316              	.LASF20:
 1317 013f 4C535543 		.ascii	"LSUCNT\000"
 1317      4E5400
 1318              	.LASF16:
 1319 0146 43594343 		.ascii	"CYCCNT\000"
 1319      4E5400
 1320              	.LASF29:
 1321 014d 70757064 		.ascii	"pupdr\000"
 1321      7200
 1322              	.LASF38:
 1323 0153 50464461 		.ascii	"PFData\000"
 1323      746100
 1324              	.LASF34:
 1325 015a 50424461 		.ascii	"PBData\000"
 1325      746100
 1326              	.LASF30:
 1327 0161 6166726C 		.ascii	"afrl\000"
 1327      00
 1328              	.LASF25:
 1329 0166 68616C72 		.ascii	"halrtcnt_t\000"
 1329      74636E74 
 1329      5F7400
 1330              	.LASF24:
 1331 0171 63686172 		.ascii	"char\000"
 1331      00
 1332              	.LASF51:
 1333 0176 626F6172 		.ascii	"boardInit\000"
 1333      64496E69 
 1333      7400
 1334              	.LASF15:
 1335 0180 4354524C 		.ascii	"CTRL\000"
 1335      00
 1336              	.LASF55:
 1337 0185 68616C49 		.ascii	"halIsCounterWithin\000"
 1337      73436F75 
 1337      6E746572 
 1337      57697468 
 1337      696E00
 1338              	.LASF6:
 1339 0198 696E7433 		.ascii	"int32_t\000"
 1339      325F7400 
 1340              	.LASF14:
ARM GAS  C:\cygwin\tmp\cc5UuvPy.s 			page 26


 1341 01a0 73697A65 		.ascii	"sizetype\000"
 1341      74797065 
 1341      00
 1342              	.LASF28:
 1343 01a9 6F737065 		.ascii	"ospeedr\000"
 1343      65647200 
 1344              	.LASF43:
 1345 01b1 74696D65 		.ascii	"timeout\000"
 1345      6F757400 
 1346              	.LASF22:
 1347 01b9 50435352 		.ascii	"PCSR\000"
 1347      00
 1348              	.LASF52:
 1349 01be 474E5520 		.ascii	"GNU C 4.7.2\000"
 1349      4320342E 
 1349      372E3200 
 1350              	.LASF46:
 1351 01ca 68616C5F 		.ascii	"hal_lld_init\000"
 1351      6C6C645F 
 1351      696E6974 
 1351      00
 1352              	.LASF3:
 1353 01d7 73686F72 		.ascii	"short int\000"
 1353      7420696E 
 1353      7400
 1354              	.LASF35:
 1355 01e1 50434461 		.ascii	"PCData\000"
 1355      746100
 1356              	.LASF23:
 1357 01e8 434D785F 		.ascii	"CMx_DWT\000"
 1357      44575400 
 1358              	.LASF33:
 1359 01f0 50414461 		.ascii	"PAData\000"
 1359      746100
 1360              	.LASF5:
 1361 01f7 6C6F6E67 		.ascii	"long int\000"
 1361      20696E74 
 1361      00
 1362              	.LASF26:
 1363 0200 6D6F6465 		.ascii	"moder\000"
 1363      7200
 1364              	.LASF54:
 1365 0206 433A5C64 		.ascii	"C:\\develop\\gyro\\ChibiOS\\testhal_wrk\\STM32F30x\\"
 1365      6576656C 
 1365      6F705C67 
 1365      79726F5C 
 1365      43686962 
 1366 0234 55415254 		.ascii	"UART\000"
 1366      00
 1367              	.LASF1:
 1368 0239 7369676E 		.ascii	"signed char\000"
 1368      65642063 
 1368      68617200 
 1369              	.LASF48:
 1370 0245 75617274 		.ascii	"uartInit\000"
 1370      496E6974 
 1370      00
ARM GAS  C:\cygwin\tmp\cc5UuvPy.s 			page 27


 1371              	.LASF12:
 1372 024e 5F426F6F 		.ascii	"_Bool\000"
 1372      6C00
 1373              	.LASF10:
 1374 0254 6C6F6E67 		.ascii	"long long unsigned int\000"
 1374      206C6F6E 
 1374      6720756E 
 1374      7369676E 
 1374      65642069 
 1375              		.ident	"GCC: (GNU) 4.7.2"
ARM GAS  C:\cygwin\tmp\cc5UuvPy.s 			page 28


DEFINED SYMBOLS
                            *ABS*:00000000 hal.c
C:\cygwin\tmp\cc5UuvPy.s:19     .text.halInit:00000000 $t
C:\cygwin\tmp\cc5UuvPy.s:25     .text.halInit:00000000 halInit
C:\cygwin\tmp\cc5UuvPy.s:66     .text.halIsCounterWithin:00000000 $t
C:\cygwin\tmp\cc5UuvPy.s:72     .text.halIsCounterWithin:00000000 halIsCounterWithin
C:\cygwin\tmp\cc5UuvPy.s:120    .text.halPolledDelay:00000000 $t
C:\cygwin\tmp\cc5UuvPy.s:126    .text.halPolledDelay:00000000 halPolledDelay
                     .debug_frame:00000010 $d

UNDEFINED SYMBOLS
hal_lld_init
pal_default_config
_pal_lld_init
spiInit
uartInit
usbInit
sduInit
boardInit
