ARM GAS  C:\cygwin\tmp\cc5UuvPy.s 			page 1


   1              		.syntax unified
   2              		.cpu cortex-m4
   3              		.fpu softvfp
   4              		.eabi_attribute 20, 1
   5              		.eabi_attribute 21, 1
   6              		.eabi_attribute 23, 3
   7              		.eabi_attribute 24, 1
   8              		.eabi_attribute 25, 1
   9              		.eabi_attribute 26, 1
  10              		.eabi_attribute 30, 2
  11              		.eabi_attribute 34, 1
  12              		.eabi_attribute 18, 4
  13              		.thumb
  14              		.file	"hal.c"
  15              		.text
  16              	.Ltext0:
  17              		.cfi_sections	.debug_frame
  18              		.section	.text.halInit,"ax",%progbits
  19              		.align	2
  20              		.p2align 4,,15
  21              		.global	halInit
  22              		.thumb
  23              		.thumb_func
  24              		.type	halInit, %function
  25              	halInit:
  26              	.LFB118:
  27              		.file 1 "../../../os/hal/src/hal.c"
  28              		.loc 1 61 0
  29              		.cfi_startproc
  30              		@ args = 0, pretend = 0, frame = 0
  31              		@ frame_needed = 0, uses_anonymous_args = 0
  32 0000 08B5     		push	{r3, lr}
  33              	.LCFI0:
  34              		.cfi_def_cfa_offset 8
  35              		.cfi_offset 3, -8
  36              		.cfi_offset 14, -4
  37              		.loc 1 63 0
  38 0002 FFF7FEFF 		bl	hal_lld_init
  39              	.LVL0:
  40              		.loc 1 69 0
  41 0006 40F20000 		movw	r0, #:lower16:pal_default_config
  42 000a C0F20000 		movt	r0, #:upper16:pal_default_config
  43 000e FFF7FEFF 		bl	_pal_lld_init
  44              	.LVL1:
  45              		.loc 1 102 0
  46 0012 FFF7FEFF 		bl	spiInit
  47              	.LVL2:
  48              		.loc 1 105 0
  49 0016 FFF7FEFF 		bl	uartInit
  50              	.LVL3:
  51              		.loc 1 108 0
  52 001a FFF7FEFF 		bl	usbInit
  53              	.LVL4:
  54              		.loc 1 114 0
  55 001e FFF7FEFF 		bl	sduInit
  56              	.LVL5:
  57              		.loc 1 121 0
ARM GAS  C:\cygwin\tmp\cc5UuvPy.s 			page 2


  58 0022 BDE80840 		pop	{r3, lr}
  59              		.loc 1 120 0
  60 0026 FFF7FEBF 		b	boardInit
  61              	.LVL6:
  62              		.cfi_endproc
  63              	.LFE118:
  64              		.size	halInit, .-halInit
  65              		.section	.text.halIsCounterWithin,"ax",%progbits
  66              		.align	2
  67              		.p2align 4,,15
  68              		.global	halIsCounterWithin
  69              		.thumb
  70              		.thumb_func
  71              		.type	halIsCounterWithin, %function
  72              	halIsCounterWithin:
  73              	.LFB119:
  74              		.loc 1 167 0
  75              		.cfi_startproc
  76              		@ args = 0, pretend = 0, frame = 0
  77              		@ frame_needed = 0, uses_anonymous_args = 0
  78              		@ link register save eliminated.
  79              	.LVL7:
  80              		.loc 1 168 0
  81 0000 4FF48053 		mov	r3, #4096
  82 0004 CEF20003 		movt	r3, 57344
  83              		.loc 1 170 0
  84 0008 8142     		cmp	r1, r0
  85              		.loc 1 167 0
  86 000a 0246     		mov	r2, r0
  87              		.loc 1 168 0
  88 000c 5B68     		ldr	r3, [r3, #4]
  89              	.LVL8:
  90              		.loc 1 170 0
  91 000e 09D8     		bhi	.L6
  92              		.loc 1 171 0 discriminator 2
  93 0010 8342     		cmp	r3, r0
  94 0012 34BF     		ite	cc
  95 0014 0022     		movcc	r2, #0
  96 0016 0122     		movcs	r2, #1
  97 0018 8B42     		cmp	r3, r1
  98 001a 2CBF     		ite	cs
  99 001c 1046     		movcs	r0, r2
 100 001e 42F00100 		orrcc	r0, r2, #1
 101              	.LVL9:
 102              		.loc 1 172 0 discriminator 2
 103 0022 7047     		bx	lr
 104              	.LVL10:
 105              	.L6:
 106              		.loc 1 170 0 discriminator 1
 107 0024 8B42     		cmp	r3, r1
 108 0026 2CBF     		ite	cs
 109 0028 0020     		movcs	r0, #0
 110              	.LVL11:
 111 002a 0120     		movcc	r0, #1
 112 002c 9342     		cmp	r3, r2
 113 002e 38BF     		it	cc
 114 0030 0020     		movcc	r0, #0
ARM GAS  C:\cygwin\tmp\cc5UuvPy.s 			page 3


 115 0032 7047     		bx	lr
 116              		.cfi_endproc
 117              	.LFE119:
 118              		.size	halIsCounterWithin, .-halIsCounterWithin
 119 0034 AFF30080 		.section	.text.halPolledDelay,"ax",%progbits
 119      AFF30080 
 119      AFF30080 
 120              		.align	2
 121              		.p2align 4,,15
 122              		.global	halPolledDelay
 123              		.thumb
 124              		.thumb_func
 125              		.type	halPolledDelay, %function
 126              	halPolledDelay:
 127              	.LFB120:
 128              		.loc 1 186 0
 129              		.cfi_startproc
 130              		@ args = 0, pretend = 0, frame = 0
 131              		@ frame_needed = 0, uses_anonymous_args = 0
 132              		@ link register save eliminated.
 133              	.LVL12:
 134              		.loc 1 187 0
 135 0000 4FF48053 		mov	r3, #4096
 136 0004 CEF20003 		movt	r3, 57344
 137              		.loc 1 186 0
 138 0008 10B4     		push	{r4}
 139              	.LCFI1:
 140              		.cfi_def_cfa_offset 4
 141              		.cfi_offset 4, -4
 142              		.loc 1 187 0
 143 000a 5A68     		ldr	r2, [r3, #4]
 144              	.LVL13:
 145              	.LBB4:
 146              	.LBB5:
 147              		.loc 1 168 0
 148 000c 1C46     		mov	r4, r3
 149              	.LBE5:
 150              	.LBE4:
 151              		.loc 1 188 0
 152 000e 8018     		adds	r0, r0, r2
 153              	.LVL14:
 154              	.L10:
 155              	.LBB8:
 156              	.LBB6:
 157              		.loc 1 170 0 discriminator 1
 158 0010 8242     		cmp	r2, r0
 159              		.loc 1 168 0 discriminator 1
 160 0012 6368     		ldr	r3, [r4, #4]
 161              	.LVL15:
 162              		.loc 1 170 0 discriminator 1
 163 0014 0AD2     		bcs	.L8
 164              		.loc 1 170 0 is_stmt 0
 165 0016 9842     		cmp	r0, r3
 166 0018 94BF     		ite	ls
 167 001a 0021     		movls	r1, #0
 168 001c 0121     		movhi	r1, #1
 169 001e 9A42     		cmp	r2, r3
ARM GAS  C:\cygwin\tmp\cc5UuvPy.s 			page 4


 170 0020 88BF     		it	hi
 171 0022 0021     		movhi	r1, #0
 172              	.LBE6:
 173              	.LBE8:
 174              		.loc 1 189 0 is_stmt 1
 175 0024 0029     		cmp	r1, #0
 176 0026 F3D1     		bne	.L10
 177              	.L12:
 178              		.loc 1 191 0
 179 0028 10BC     		pop	{r4}
 180 002a 7047     		bx	lr
 181              	.L8:
 182              	.LBB9:
 183              	.LBB7:
 184              		.loc 1 171 0
 185 002c 9A42     		cmp	r2, r3
 186 002e 8CBF     		ite	hi
 187 0030 0021     		movhi	r1, #0
 188 0032 0121     		movls	r1, #1
 189 0034 9842     		cmp	r0, r3
 190 0036 88BF     		it	hi
 191 0038 41F00101 		orrhi	r1, r1, #1
 192              	.LBE7:
 193              	.LBE9:
 194              		.loc 1 189 0
 195 003c 0029     		cmp	r1, #0
 196 003e E7D1     		bne	.L10
 197 0040 F2E7     		b	.L12
 198              		.cfi_endproc
 199              	.LFE120:
 200              		.size	halPolledDelay, .-halPolledDelay
 201 0042 00BFAFF3 		.text
 201      0080AFF3 
 201      0080AFF3 
 201      0080
 202              	.Letext0:
 203              		.file 2 "c:/chibinew/tools/yagarto-tools/yagarto-20121222/lib/gcc/../../arm-none-eabi/sys-include/
 204              		.file 3 "../../../os/ports/GCC/ARMCMx/chtypes.h"
 205              		.file 4 "../../../os/ports/common/ARMCMx/nvic.h"
 206              		.file 5 "../../../os/hal/platforms/STM32F30x/hal_lld.h"
 207              		.file 6 "../../../os/hal/platforms/STM32/GPIOv2/pal_lld.h"
 208              		.file 7 "../../../os/ports/common/ARMCMx/CMSIS/include/core_cm4.h"
 209              		.file 8 "../../../os/hal/include/spi.h"
 210              		.file 9 "../../../os/hal/include/uart.h"
 211              		.file 10 "../../../os/hal/include/usb.h"
 212              		.file 11 "../../../os/hal/include/serial_usb.h"
 213              		.file 12 "../../../boards/ST_STM32F3_DISCOVERY/board.h"