ARM GAS  C:\cygwin\tmp\cc13kgnP.s 			page 1


   1              		.syntax unified
   2              		.cpu cortex-m4
   3              		.fpu softvfp
   4              		.eabi_attribute 20, 1
   5              		.eabi_attribute 21, 1
   6              		.eabi_attribute 23, 3
   7              		.eabi_attribute 24, 1
   8              		.eabi_attribute 25, 1
   9              		.eabi_attribute 26, 1
  10              		.eabi_attribute 30, 2
  11              		.eabi_attribute 34, 1
  12              		.eabi_attribute 18, 4
  13              		.thumb
  14              		.file	"main.c"
  15              		.text
  16              	.Ltext0:
  17              		.cfi_sections	.debug_frame
  18              		.section	.text.ledoff,"ax",%progbits
  19              		.align	2
  20              		.p2align 4,,15
  21              		.thumb
  22              		.thumb_func
  23              		.type	ledoff, %function
  24              	ledoff:
  25              	.LFB119:
  26              		.file 1 "main.c"
  27              		.loc 1 35 0
  28              		.cfi_startproc
  29              		@ args = 0, pretend = 0, frame = 0
  30              		@ frame_needed = 0, uses_anonymous_args = 0
  31              		@ link register save eliminated.
  32              	.LVL0:
  33              		.loc 1 38 0
  34 0000 4FF48053 		mov	r3, #4096
  35 0004 C4F60003 		movt	r3, 18432
  36 0008 4FF40072 		mov	r2, #512
  37 000c 5A83     		strh	r2, [r3, #26]	@ movhi
  38 000e 7047     		bx	lr
  39              		.cfi_endproc
  40              	.LFE119:
  41              		.size	ledoff, .-ledoff
  42              		.section	.text.txend1,"ax",%progbits
  43              		.align	2
  44              		.p2align 4,,15
  45              		.thumb
  46              		.thumb_func
  47              		.type	txend1, %function
  48              	txend1:
  49              	.LFB120:
  50              		.loc 1 45 0
  51              		.cfi_startproc
  52              		@ args = 0, pretend = 0, frame = 0
  53              		@ frame_needed = 0, uses_anonymous_args = 0
  54              		@ link register save eliminated.
  55              	.LVL1:
  56              		.loc 1 48 0
  57 0000 4FF48053 		mov	r3, #4096
ARM GAS  C:\cygwin\tmp\cc13kgnP.s 			page 2


  58 0004 C4F60003 		movt	r3, 18432
  59 0008 4FF40072 		mov	r2, #512
  60 000c 1A83     		strh	r2, [r3, #24]	@ movhi
  61 000e 7047     		bx	lr
  62              		.cfi_endproc
  63              	.LFE120:
  64              		.size	txend1, .-txend1
  65              		.section	.text.rxerr,"ax",%progbits
  66              		.align	2
  67              		.p2align 4,,15
  68              		.thumb
  69              		.thumb_func
  70              		.type	rxerr, %function
  71              	rxerr:
  72              	.LFB122:
  73              		.loc 1 69 0
  74              		.cfi_startproc
  75              		@ args = 0, pretend = 0, frame = 0
  76              		@ frame_needed = 0, uses_anonymous_args = 0
  77              		@ link register save eliminated.
  78              	.LVL2:
  79 0000 7047     		bx	lr
  80              		.cfi_endproc
  81              	.LFE122:
  82              		.size	rxerr, .-rxerr
  83 0002 00BFAFF3 		.section	.text.rxend,"ax",%progbits
  83      0080AFF3 
  83      0080AFF3 
  83      0080
  84              		.align	2
  85              		.p2align 4,,15
  86              		.thumb
  87              		.thumb_func
  88              		.type	rxend, %function
  89              	rxend:
  90              	.LFB124:
  91              		.loc 1 95 0
  92              		.cfi_startproc
  93              		@ args = 0, pretend = 0, frame = 0
  94              		@ frame_needed = 0, uses_anonymous_args = 0
  95              		@ link register save eliminated.
  96              	.LVL3:
  97 0000 7047     		bx	lr
  98              		.cfi_endproc
  99              	.LFE124:
 100              		.size	rxend, .-rxend
 101 0002 00BFAFF3 		.section	.text.rxchar,"ax",%progbits
 101      0080AFF3 
 101      0080AFF3 
 101      0080
 102              		.align	2
 103              		.p2align 4,,15
 104              		.thumb
 105              		.thumb_func
 106              		.type	rxchar, %function
 107              	rxchar:
 108              	.LFB123:
ARM GAS  C:\cygwin\tmp\cc13kgnP.s 			page 3


 109              		.loc 1 79 0
 110              		.cfi_startproc
 111              		@ args = 0, pretend = 0, frame = 0
 112              		@ frame_needed = 0, uses_anonymous_args = 0
 113              	.LVL4:
 114              		.loc 1 79 0
 115 0000 08B5     		push	{r3, lr}
 116              	.LCFI0:
 117              		.cfi_def_cfa_offset 8
 118              		.cfi_offset 3, -8
 119              		.cfi_offset 14, -4
 120              		.loc 1 84 0
 121 0002 4FF48053 		mov	r3, #4096
 122 0006 C4F60003 		movt	r3, 18432
 123 000a 4FF40072 		mov	r2, #512
 124 000e 1A83     		strh	r2, [r3, #24]	@ movhi
 125              	.LBB2:
 126              		.loc 1 85 0
 127 0010 2023     		movs	r3, #32
 128              	.LVL5:
 129              	@ 85 "main.c" 1
 130 0012 83F31188 		msr     BASEPRI, r3
 131              	@ 0 "" 2
 132              	.LVL6:
 133              		.thumb
 134              	.LBE2:
 135 0016 FFF7FEFF 		bl	dbg_check_lock_from_isr
 136              	.LVL7:
 137              		.loc 1 86 0
 138 001a 0848     		ldr	r0, .L11
 139 001c C368     		ldr	r3, [r0, #12]
 140 001e 0BB1     		cbz	r3, .L6
 141              		.loc 1 87 0
 142 0020 FFF7FEFF 		bl	chVTResetI
 143              	.LVL8:
 144              	.L6:
 145              		.loc 1 88 0
 146 0024 0023     		movs	r3, #0
 147 0026 0548     		ldr	r0, .L11
 148 0028 054A     		ldr	r2, .L11+4
 149 002a C821     		movs	r1, #200
 150 002c FFF7FEFF 		bl	chVTSetI
 151              	.LVL9:
 152              		.loc 1 89 0
 153 0030 FFF7FEFF 		bl	dbg_check_unlock_from_isr
 154              	.LVL10:
 155              	.LBB3:
 156 0034 0023     		movs	r3, #0
 157              	.LVL11:
 158              	@ 89 "main.c" 1
 159 0036 83F31188 		msr     BASEPRI, r3
 160              	@ 0 "" 2
 161              	.LVL12:
 162              		.thumb
 163 003a 08BD     		pop	{r3, pc}
 164              	.L12:
 165              		.align	2
ARM GAS  C:\cygwin\tmp\cc13kgnP.s 			page 4


 166              	.L11:
 167 003c 00000000 		.word	.LANCHOR0
 168 0040 00000000 		.word	ledoff
 169              	.LBE3:
 170              		.cfi_endproc
 171              	.LFE123:
 172              		.size	rxchar, .-rxchar
 173 0044 AFF30080 		.section	.text.txend2,"ax",%progbits
 173      AFF30080 
 173      AFF30080 
 174              		.align	2
 175              		.p2align 4,,15
 176              		.thumb
 177              		.thumb_func
 178              		.type	txend2, %function
 179              	txend2:
 180              	.LFB121:
 181              		.loc 1 54 0
 182              		.cfi_startproc
 183              		@ args = 0, pretend = 0, frame = 0
 184              		@ frame_needed = 0, uses_anonymous_args = 0
 185              	.LVL13:
 186 0000 08B5     		push	{r3, lr}
 187              	.LCFI1:
 188              		.cfi_def_cfa_offset 8
 189              		.cfi_offset 3, -8
 190              		.cfi_offset 14, -4
 191              		.loc 1 57 0
 192 0002 4FF48053 		mov	r3, #4096
 193 0006 C4F60003 		movt	r3, 18432
 194 000a 4FF40072 		mov	r2, #512
 195 000e 5A83     		strh	r2, [r3, #26]	@ movhi
 196              	.LBB4:
 197              		.loc 1 58 0
 198 0010 2023     		movs	r3, #32
 199              	.LVL14:
 200              	@ 58 "main.c" 1
 201 0012 83F31188 		msr     BASEPRI, r3
 202              	@ 0 "" 2
 203              	.LVL15:
 204              		.thumb
 205              	.LBE4:
 206 0016 FFF7FEFF 		bl	dbg_check_lock_from_isr
 207              	.LVL16:
 208              		.loc 1 59 0
 209 001a 0948     		ldr	r0, .L18
 210 001c C368     		ldr	r3, [r0, #12]
 211 001e 0BB1     		cbz	r3, .L14
 212              		.loc 1 60 0
 213 0020 FFF7FEFF 		bl	chVTResetI
 214              	.LVL17:
 215              	.L14:
 216              		.loc 1 61 0
 217 0024 0023     		movs	r3, #0
 218 0026 0648     		ldr	r0, .L18
 219 0028 064A     		ldr	r2, .L18+4
 220 002a 41F28831 		movw	r1, #5000
ARM GAS  C:\cygwin\tmp\cc13kgnP.s 			page 5


 221 002e FFF7FEFF 		bl	chVTSetI
 222              	.LVL18:
 223              		.loc 1 62 0
 224 0032 FFF7FEFF 		bl	dbg_check_unlock_from_isr
 225              	.LVL19:
 226              	.LBB5:
 227 0036 0023     		movs	r3, #0
 228              	.LVL20:
 229              	@ 62 "main.c" 1
 230 0038 83F31188 		msr     BASEPRI, r3
 231              	@ 0 "" 2
 232              	.LVL21:
 233              		.thumb
 234 003c 08BD     		pop	{r3, pc}
 235              	.L19:
 236 003e 00BF     		.align	2
 237              	.L18:
 238 0040 00000000 		.word	.LANCHOR1
 239 0044 00000000 		.word	restart
 240              	.LBE5:
 241              		.cfi_endproc
 242              	.LFE121:
 243              		.size	txend2, .-txend2
 244 0048 AFF30080 		.section	.text.restart,"ax",%progbits
 244      AFF30080 
 245              		.align	2
 246              		.p2align 4,,15
 247              		.thumb
 248              		.thumb_func
 249              		.type	restart, %function
 250              	restart:
 251              	.LFB118:
 252              		.loc 1 26 0
 253              		.cfi_startproc
 254              		@ args = 0, pretend = 0, frame = 0
 255              		@ frame_needed = 0, uses_anonymous_args = 0
 256              	.LVL22:
 257 0000 08B5     		push	{r3, lr}
 258              	.LCFI2:
 259              		.cfi_def_cfa_offset 8
 260              		.cfi_offset 3, -8
 261              		.cfi_offset 14, -4
 262              	.LBB6:
 263              		.loc 1 30 0
 264 0002 2023     		movs	r3, #32
 265              	.LVL23:
 266              	@ 30 "main.c" 1
 267 0004 83F31188 		msr     BASEPRI, r3
 268              	@ 0 "" 2
 269              	.LVL24:
 270              		.thumb
 271              	.LBE6:
 272 0008 FFF7FEFF 		bl	dbg_check_lock_from_isr
 273              	.LVL25:
 274              		.loc 1 31 0
 275 000c 40F20000 		movw	r0, #:lower16:UARTD1
 276 0010 40F20002 		movw	r2, #:lower16:.LC0
ARM GAS  C:\cygwin\tmp\cc13kgnP.s 			page 6


 277 0014 C0F20000 		movt	r0, #:upper16:UARTD1
 278 0018 0E21     		movs	r1, #14
 279 001a C0F20002 		movt	r2, #:upper16:.LC0
 280 001e FFF7FEFF 		bl	uartStartSendI
 281              	.LVL26:
 282              		.loc 1 32 0
 283 0022 FFF7FEFF 		bl	dbg_check_unlock_from_isr
 284              	.LVL27:
 285              	.LBB7:
 286 0026 0023     		movs	r3, #0
 287              	.LVL28:
 288              	@ 32 "main.c" 1
 289 0028 83F31188 		msr     BASEPRI, r3
 290              	@ 0 "" 2
 291              	.LVL29:
 292              		.thumb
 293 002c 08BD     		pop	{r3, pc}
 294              	.LBE7:
 295              		.cfi_endproc
 296              	.LFE118:
 297              		.size	restart, .-restart
 298 002e 00BF     		.section	.text.startup.main,"ax",%progbits
 299              		.align	2
 300              		.p2align 4,,15
 301              		.global	main
 302              		.thumb
 303              		.thumb_func
 304              		.type	main, %function
 305              	main:
 306              	.LFB125:
 307              		.loc 1 118 0
 308              		.cfi_startproc
 309              		@ Volatile: function does not return.
 310              		@ args = 0, pretend = 0, frame = 0
 311              		@ frame_needed = 0, uses_anonymous_args = 0
 312 0000 08B5     		push	{r3, lr}
 313              	.LCFI3:
 314              		.cfi_def_cfa_offset 8
 315              		.cfi_offset 3, -8
 316              		.cfi_offset 14, -4
 317              		.loc 1 127 0
 318 0002 FFF7FEFF 		bl	halInit
 319              	.LVL30:
 320              		.loc 1 128 0
 321 0006 FFF7FEFF 		bl	chSysInit
 322              	.LVL31:
 323              		.loc 1 133 0
 324 000a 0E48     		ldr	r0, .L23
 325 000c 0E49     		ldr	r1, .L23+4
 326 000e FFF7FEFF 		bl	uartStart
 327              	.LVL32:
 328              		.loc 1 134 0
 329 0012 4FF09040 		mov	r0, #1207959552
 330 0016 4FF40071 		mov	r1, #512
 331 001a 8222     		movs	r2, #130
 332 001c FFF7FEFF 		bl	_pal_lld_setgroupmode
 333              	.LVL33:
ARM GAS  C:\cygwin\tmp\cc13kgnP.s 			page 7


 334              		.loc 1 135 0
 335 0020 4FF09040 		mov	r0, #1207959552
 336 0024 4FF48061 		mov	r1, #1024
 337 0028 8222     		movs	r2, #130
 338 002a FFF7FEFF 		bl	_pal_lld_setgroupmode
 339              	.LVL34:
 340              		.loc 1 140 0
 341 002e 0548     		ldr	r0, .L23
 342 0030 064A     		ldr	r2, .L23+8
 343 0032 0D21     		movs	r1, #13
 344 0034 FFF7FEFF 		bl	uartStartSend
 345              	.LVL35:
 346              	.L22:
 347              		.loc 1 146 0 discriminator 1
 348 0038 4FF4FA70 		mov	r0, #500
 349 003c FFF7FEFF 		bl	chThdSleep
 350              	.LVL36:
 351 0040 FAE7     		b	.L22
 352              	.L24:
 353 0042 00BF     		.align	2
 354              	.L23:
 355 0044 00000000 		.word	UARTD1
 356 0048 00000000 		.word	.LANCHOR2
 357 004c 10000000 		.word	.LC1
 358              		.cfi_endproc
 359              	.LFE125:
 360              		.size	main, .-main
 361              		.section	.bss.vt1,"aw",%nobits
 362              		.align	2
 363              		.set	.LANCHOR1,. + 0
 364              		.type	vt1, %object
 365              		.size	vt1, 20
 366              	vt1:
 367 0000 00000000 		.space	20
 367      00000000 
 367      00000000 
 367      00000000 
 367      00000000 
 368              		.section	.bss.vt2,"aw",%nobits
 369              		.align	2
 370              		.set	.LANCHOR0,. + 0
 371              		.type	vt2, %object
 372              		.size	vt2, 20
 373              	vt2:
 374 0000 00000000 		.space	20
 374      00000000 
 374      00000000 
 374      00000000 
 374      00000000 
 375              		.section	.rodata.str1.4,"aMS",%progbits,1
 376              		.align	2
 377              	.LC0:
 378 0000 48656C6C 		.ascii	"Hello World!\015\012\000"
 378      6F20576F 
 378      726C6421 
 378      0D0A00
 379 000f 00       		.space	1
ARM GAS  C:\cygwin\tmp\cc13kgnP.s 			page 8


 380              	.LC1:
 381 0010 53746172 		.ascii	"Starting...\015\012\000"
 381      74696E67 
 381      2E2E2E0D 
 381      0A00
 382 001e 0000     		.section	.data.uart_cfg_1,"aw",%progbits
 383              		.align	2
 384              		.set	.LANCHOR2,. + 0
 385              		.type	uart_cfg_1, %object
 386              		.size	uart_cfg_1, 36
 387              	uart_cfg_1:
 388 0000 00000000 		.word	txend1
 389 0004 00000000 		.word	txend2
 390 0008 00000000 		.word	rxend
 391 000c 00000000 		.word	rxchar
 392 0010 00000000 		.word	rxerr
 393 0014 00960000 		.word	38400
 394 0018 00000000 		.word	0
 395 001c 00400000 		.word	16384
 396 0020 00000000 		.word	0
 397              		.text
 398              	.Letext0:
 399              		.file 2 "c:\\chibinew\\tools\\yagarto-tools\\yagarto-20121222\\bin\\../lib/gcc/arm-none-eabi/4.7.2
 400              		.file 3 "c:/chibinew/tools/yagarto-tools/yagarto-20121222/lib/gcc/../../arm-none-eabi/sys-include/
 401              		.file 4 "../../../os/ports/GCC/ARMCMx/chtypes.h"
 402              		.file 5 "../../../os/kernel/include/chvt.h"
 403              		.file 6 "../../../os/hal/platforms/STM32F30x/stm32f30x.h"
 404              		.file 7 "../../../os/hal/platforms/STM32F30x/stm32_dma.h"
 405              		.file 8 "../../../os/hal/platforms/STM32/GPIOv2/pal_lld.h"
 406              		.file 9 "../../../os/hal/include/uart.h"
 407              		.file 10 "../../../os/hal/platforms/STM32/USARTv2/uart_lld.h"
 408              		.file 11 "../../../os/ports/common/ARMCMx/CMSIS/include/core_cm4.h"
 409              		.file 12 "../../../os/kernel/include/chdebug.h"
 410              		.file 13 "../../../os/hal/include/hal.h"
 411              		.file 14 "../../../os/kernel/include/chsys.h"
 412              		.file 15 "../../../os/kernel/include/chthreads.h"