ARM GAS  C:\cygwin\tmp\cc13kgnP.s 			page 1


   1              		.syntax unified
   2              		.cpu cortex-m4
   3              		.fpu softvfp
   4              		.eabi_attribute 20, 1
   5              		.eabi_attribute 21, 1
   6              		.eabi_attribute 23, 3
   7              		.eabi_attribute 24, 1
   8              		.eabi_attribute 25, 1
   9              		.eabi_attribute 26, 1
  10              		.eabi_attribute 30, 2
  11              		.eabi_attribute 34, 1
  12              		.eabi_attribute 18, 4
  13              		.thumb
  14              		.file	"main.c"
  15              		.text
  16              	.Ltext0:
  17              		.cfi_sections	.debug_frame
  18              		.section	.text.ledoff,"ax",%progbits
  19              		.align	2
  20              		.p2align 4,,15
  21              		.thumb
  22              		.thumb_func
  23              		.type	ledoff, %function
  24              	ledoff:
  25              	.LFB119:
  26              		.file 1 "main.c"
  27              		.loc 1 35 0
  28              		.cfi_startproc
  29              		@ args = 0, pretend = 0, frame = 0
  30              		@ frame_needed = 0, uses_anonymous_args = 0
  31              		@ link register save eliminated.
  32              	.LVL0:
  33              		.loc 1 38 0
  34 0000 4FF48053 		mov	r3, #4096
  35 0004 C4F60003 		movt	r3, 18432
  36 0008 4FF40072 		mov	r2, #512
  37 000c 5A83     		strh	r2, [r3, #26]	@ movhi
  38 000e 7047     		bx	lr
  39              		.cfi_endproc
  40              	.LFE119:
  41              		.size	ledoff, .-ledoff
  42              		.section	.text.txend1,"ax",%progbits
  43              		.align	2
  44              		.p2align 4,,15
  45              		.thumb
  46              		.thumb_func
  47              		.type	txend1, %function
  48              	txend1:
  49              	.LFB120:
  50              		.loc 1 45 0
  51              		.cfi_startproc
  52              		@ args = 0, pretend = 0, frame = 0
  53              		@ frame_needed = 0, uses_anonymous_args = 0
  54              		@ link register save eliminated.
  55              	.LVL1:
  56              		.loc 1 48 0
  57 0000 4FF48053 		mov	r3, #4096
ARM GAS  C:\cygwin\tmp\cc13kgnP.s 			page 2


  58 0004 C4F60003 		movt	r3, 18432
  59 0008 4FF40072 		mov	r2, #512
  60 000c 1A83     		strh	r2, [r3, #24]	@ movhi
  61 000e 7047     		bx	lr
  62              		.cfi_endproc
  63              	.LFE120:
  64              		.size	txend1, .-txend1
  65              		.section	.text.rxerr,"ax",%progbits
  66              		.align	2
  67              		.p2align 4,,15
  68              		.thumb
  69              		.thumb_func
  70              		.type	rxerr, %function
  71              	rxerr:
  72              	.LFB122:
  73              		.loc 1 69 0
  74              		.cfi_startproc
  75              		@ args = 0, pretend = 0, frame = 0
  76              		@ frame_needed = 0, uses_anonymous_args = 0
  77              		@ link register save eliminated.
  78              	.LVL2:
  79 0000 7047     		bx	lr
  80              		.cfi_endproc
  81              	.LFE122:
  82              		.size	rxerr, .-rxerr
  83 0002 00BFAFF3 		.section	.text.rxend,"ax",%progbits
  83      0080AFF3 
  83      0080AFF3 
  83      0080
  84              		.align	2
  85              		.p2align 4,,15
  86              		.thumb
  87              		.thumb_func
  88              		.type	rxend, %function
  89              	rxend:
  90              	.LFB124:
  91              		.loc 1 95 0
  92              		.cfi_startproc
  93              		@ args = 0, pretend = 0, frame = 0
  94              		@ frame_needed = 0, uses_anonymous_args = 0
  95              		@ link register save eliminated.
  96              	.LVL3:
  97 0000 7047     		bx	lr
  98              		.cfi_endproc
  99              	.LFE124:
 100              		.size	rxend, .-rxend
 101 0002 00BFAFF3 		.section	.text.rxchar,"ax",%progbits
 101      0080AFF3 
 101      0080AFF3 
 101      0080
 102              		.align	2
 103              		.p2align 4,,15
 104              		.thumb
 105              		.thumb_func
 106              		.type	rxchar, %function
 107              	rxchar:
 108              	.LFB123:
ARM GAS  C:\cygwin\tmp\cc13kgnP.s 			page 3


 109              		.loc 1 79 0
 110              		.cfi_startproc
 111              		@ args = 0, pretend = 0, frame = 0
 112              		@ frame_needed = 0, uses_anonymous_args = 0
 113              	.LVL4:
 114              		.loc 1 79 0
 115 0000 08B5     		push	{r3, lr}
 116              	.LCFI0:
 117              		.cfi_def_cfa_offset 8
 118              		.cfi_offset 3, -8
 119              		.cfi_offset 14, -4
 120              		.loc 1 84 0
 121 0002 4FF48053 		mov	r3, #4096
 122 0006 C4F60003 		movt	r3, 18432
 123 000a 4FF40072 		mov	r2, #512
 124 000e 1A83     		strh	r2, [r3, #24]	@ movhi
 125              	.LBB2:
 126              		.loc 1 85 0
 127 0010 2023     		movs	r3, #32
 128              	.LVL5:
 129              	@ 85 "main.c" 1
 130 0012 83F31188 		msr     BASEPRI, r3
 131              	@ 0 "" 2
 132              	.LVL6:
 133              		.thumb
 134              	.LBE2:
 135 0016 FFF7FEFF 		bl	dbg_check_lock_from_isr
 136              	.LVL7:
 137              		.loc 1 86 0
 138 001a 0848     		ldr	r0, .L11
 139 001c C368     		ldr	r3, [r0, #12]
 140 001e 0BB1     		cbz	r3, .L6
 141              		.loc 1 87 0
 142 0020 FFF7FEFF 		bl	chVTResetI
 143              	.LVL8:
 144              	.L6:
 145              		.loc 1 88 0
 146 0024 0023     		movs	r3, #0
 147 0026 0548     		ldr	r0, .L11
 148 0028 054A     		ldr	r2, .L11+4
 149 002a C821     		movs	r1, #200
 150 002c FFF7FEFF 		bl	chVTSetI
 151              	.LVL9:
 152              		.loc 1 89 0
 153 0030 FFF7FEFF 		bl	dbg_check_unlock_from_isr
 154              	.LVL10:
 155              	.LBB3:
 156 0034 0023     		movs	r3, #0
 157              	.LVL11:
 158              	@ 89 "main.c" 1
 159 0036 83F31188 		msr     BASEPRI, r3
 160              	@ 0 "" 2
 161              	.LVL12:
 162              		.thumb
 163 003a 08BD     		pop	{r3, pc}
 164              	.L12:
 165              		.align	2
ARM GAS  C:\cygwin\tmp\cc13kgnP.s 			page 4


 166              	.L11:
 167 003c 00000000 		.word	.LANCHOR0
 168 0040 00000000 		.word	ledoff
 169              	.LBE3:
 170              		.cfi_endproc
 171              	.LFE123:
 172              		.size	rxchar, .-rxchar
 173 0044 AFF30080 		.section	.text.txend2,"ax",%progbits
 173      AFF30080 
 173      AFF30080 
 174              		.align	2
 175              		.p2align 4,,15
 176              		.thumb
 177              		.thumb_func
 178              		.type	txend2, %function
 179              	txend2:
 180              	.LFB121:
 181              		.loc 1 54 0
 182              		.cfi_startproc
 183              		@ args = 0, pretend = 0, frame = 0
 184              		@ frame_needed = 0, uses_anonymous_args = 0
 185              	.LVL13:
 186 0000 08B5     		push	{r3, lr}
 187              	.LCFI1:
 188              		.cfi_def_cfa_offset 8
 189              		.cfi_offset 3, -8
 190              		.cfi_offset 14, -4
 191              		.loc 1 57 0
 192 0002 4FF48053 		mov	r3, #4096
 193 0006 C4F60003 		movt	r3, 18432
 194 000a 4FF40072 		mov	r2, #512
 195 000e 5A83     		strh	r2, [r3, #26]	@ movhi
 196              	.LBB4:
 197              		.loc 1 58 0
 198 0010 2023     		movs	r3, #32
 199              	.LVL14:
 200              	@ 58 "main.c" 1
 201 0012 83F31188 		msr     BASEPRI, r3
 202              	@ 0 "" 2
 203              	.LVL15:
 204              		.thumb
 205              	.LBE4:
 206 0016 FFF7FEFF 		bl	dbg_check_lock_from_isr
 207              	.LVL16:
 208              		.loc 1 59 0
 209 001a 0948     		ldr	r0, .L18
 210 001c C368     		ldr	r3, [r0, #12]
 211 001e 0BB1     		cbz	r3, .L14
 212              		.loc 1 60 0
 213 0020 FFF7FEFF 		bl	chVTResetI
 214              	.LVL17:
 215              	.L14:
 216              		.loc 1 61 0
 217 0024 0023     		movs	r3, #0
 218 0026 0648     		ldr	r0, .L18
 219 0028 064A     		ldr	r2, .L18+4
 220 002a 41F28831 		movw	r1, #5000
ARM GAS  C:\cygwin\tmp\cc13kgnP.s 			page 5


 221 002e FFF7FEFF 		bl	chVTSetI
 222              	.LVL18:
 223              		.loc 1 62 0
 224 0032 FFF7FEFF 		bl	dbg_check_unlock_from_isr
 225              	.LVL19:
 226              	.LBB5:
 227 0036 0023     		movs	r3, #0
 228              	.LVL20:
 229              	@ 62 "main.c" 1
 230 0038 83F31188 		msr     BASEPRI, r3
 231              	@ 0 "" 2
 232              	.LVL21:
 233              		.thumb
 234 003c 08BD     		pop	{r3, pc}
 235              	.L19:
 236 003e 00BF     		.align	2
 237              	.L18:
 238 0040 00000000 		.word	.LANCHOR1
 239 0044 00000000 		.word	restart
 240              	.LBE5:
 241              		.cfi_endproc
 242              	.LFE121:
 243              		.size	txend2, .-txend2
 244 0048 AFF30080 		.section	.text.restart,"ax",%progbits
 244      AFF30080 
 245              		.align	2
 246              		.p2align 4,,15
 247              		.thumb
 248              		.thumb_func
 249              		.type	restart, %function
 250              	restart:
 251              	.LFB118:
 252              		.loc 1 26 0
 253              		.cfi_startproc
 254              		@ args = 0, pretend = 0, frame = 0
 255              		@ frame_needed = 0, uses_anonymous_args = 0
 256              	.LVL22:
 257 0000 08B5     		push	{r3, lr}
 258              	.LCFI2:
 259              		.cfi_def_cfa_offset 8
 260              		.cfi_offset 3, -8
 261              		.cfi_offset 14, -4
 262              	.LBB6:
 263              		.loc 1 30 0
 264 0002 2023     		movs	r3, #32
 265              	.LVL23:
 266              	@ 30 "main.c" 1
 267 0004 83F31188 		msr     BASEPRI, r3
 268              	@ 0 "" 2
 269              	.LVL24:
 270              		.thumb
 271              	.LBE6:
 272 0008 FFF7FEFF 		bl	dbg_check_lock_from_isr
 273              	.LVL25:
 274              		.loc 1 31 0
 275 000c 40F20000 		movw	r0, #:lower16:UARTD1
 276 0010 40F20002 		movw	r2, #:lower16:.LC0
ARM GAS  C:\cygwin\tmp\cc13kgnP.s 			page 6


 277 0014 C0F20000 		movt	r0, #:upper16:UARTD1
 278 0018 0E21     		movs	r1, #14
 279 001a C0F20002 		movt	r2, #:upper16:.LC0
 280 001e FFF7FEFF 		bl	uartStartSendI
 281              	.LVL26:
 282              		.loc 1 32 0
 283 0022 FFF7FEFF 		bl	dbg_check_unlock_from_isr
 284              	.LVL27:
 285              	.LBB7:
 286 0026 0023     		movs	r3, #0
 287              	.LVL28:
 288              	@ 32 "main.c" 1
 289 0028 83F31188 		msr     BASEPRI, r3
 290              	@ 0 "" 2
 291              	.LVL29:
 292              		.thumb
 293 002c 08BD     		pop	{r3, pc}
 294              	.LBE7:
 295              		.cfi_endproc
 296              	.LFE118:
 297              		.size	restart, .-restart
 298 002e 00BF     		.section	.text.startup.main,"ax",%progbits
 299              		.align	2
 300              		.p2align 4,,15
 301              		.global	main
 302              		.thumb
 303              		.thumb_func
 304              		.type	main, %function
 305              	main:
 306              	.LFB125:
 307              		.loc 1 118 0
 308              		.cfi_startproc
 309              		@ Volatile: function does not return.
 310              		@ args = 0, pretend = 0, frame = 0
 311              		@ frame_needed = 0, uses_anonymous_args = 0
 312 0000 08B5     		push	{r3, lr}
 313              	.LCFI3:
 314              		.cfi_def_cfa_offset 8
 315              		.cfi_offset 3, -8
 316              		.cfi_offset 14, -4
 317              		.loc 1 127 0
 318 0002 FFF7FEFF 		bl	halInit
 319              	.LVL30:
 320              		.loc 1 128 0
 321 0006 FFF7FEFF 		bl	chSysInit
 322              	.LVL31:
 323              		.loc 1 133 0
 324 000a 0E48     		ldr	r0, .L23
 325 000c 0E49     		ldr	r1, .L23+4
 326 000e FFF7FEFF 		bl	uartStart
 327              	.LVL32:
 328              		.loc 1 134 0
 329 0012 4FF09040 		mov	r0, #1207959552
 330 0016 4FF40071 		mov	r1, #512
 331 001a 8222     		movs	r2, #130
 332 001c FFF7FEFF 		bl	_pal_lld_setgroupmode
 333              	.LVL33:
ARM GAS  C:\cygwin\tmp\cc13kgnP.s 			page 7


 334              		.loc 1 135 0
 335 0020 4FF09040 		mov	r0, #1207959552
 336 0024 4FF48061 		mov	r1, #1024
 337 0028 8222     		movs	r2, #130
 338 002a FFF7FEFF 		bl	_pal_lld_setgroupmode
 339              	.LVL34:
 340              		.loc 1 140 0
 341 002e 0548     		ldr	r0, .L23
 342 0030 064A     		ldr	r2, .L23+8
 343 0032 0D21     		movs	r1, #13
 344 0034 FFF7FEFF 		bl	uartStartSend
 345              	.LVL35:
 346              	.L22:
 347              		.loc 1 146 0 discriminator 1
 348 0038 4FF4FA70 		mov	r0, #500
 349 003c FFF7FEFF 		bl	chThdSleep
 350              	.LVL36:
 351 0040 FAE7     		b	.L22
 352              	.L24:
 353 0042 00BF     		.align	2
 354              	.L23:
 355 0044 00000000 		.word	UARTD1
 356 0048 00000000 		.word	.LANCHOR2
 357 004c 10000000 		.word	.LC1
 358              		.cfi_endproc
 359              	.LFE125:
 360              		.size	main, .-main
 361              		.section	.bss.vt1,"aw",%nobits
 362              		.align	2
 363              		.set	.LANCHOR1,. + 0
 364              		.type	vt1, %object
 365              		.size	vt1, 20
 366              	vt1:
 367 0000 00000000 		.space	20
 367      00000000 
 367      00000000 
 367      00000000 
 367      00000000 
 368              		.section	.bss.vt2,"aw",%nobits
 369              		.align	2
 370              		.set	.LANCHOR0,. + 0
 371              		.type	vt2, %object
 372              		.size	vt2, 20
 373              	vt2:
 374 0000 00000000 		.space	20
 374      00000000 
 374      00000000 
 374      00000000 
 374      00000000 
 375              		.section	.rodata.str1.4,"aMS",%progbits,1
 376              		.align	2
 377              	.LC0:
 378 0000 48656C6C 		.ascii	"Hello World!\015\012\000"
 378      6F20576F 
 378      726C6421 
 378      0D0A00
 379 000f 00       		.space	1
ARM GAS  C:\cygwin\tmp\cc13kgnP.s 			page 8


 380              	.LC1:
 381 0010 53746172 		.ascii	"Starting...\015\012\000"
 381      74696E67 
 381      2E2E2E0D 
 381      0A00
 382 001e 0000     		.section	.data.uart_cfg_1,"aw",%progbits
 383              		.align	2
 384              		.set	.LANCHOR2,. + 0
 385              		.type	uart_cfg_1, %object
 386              		.size	uart_cfg_1, 36
 387              	uart_cfg_1:
 388 0000 00000000 		.word	txend1
 389 0004 00000000 		.word	txend2
 390 0008 00000000 		.word	rxend
 391 000c 00000000 		.word	rxchar
 392 0010 00000000 		.word	rxerr
 393 0014 00960000 		.word	38400
 394 0018 00000000 		.word	0
 395 001c 00400000 		.word	16384
 396 0020 00000000 		.word	0
 397              		.text
 398              	.Letext0:
 399              		.file 2 "c:\\chibinew\\tools\\yagarto-tools\\yagarto-20121222\\bin\\../lib/gcc/arm-none-eabi/4.7.2
 400              		.file 3 "c:/chibinew/tools/yagarto-tools/yagarto-20121222/lib/gcc/../../arm-none-eabi/sys-include/
 401              		.file 4 "../../../os/ports/GCC/ARMCMx/chtypes.h"
 402              		.file 5 "../../../os/kernel/include/chvt.h"
 403              		.file 6 "../../../os/hal/platforms/STM32F30x/stm32f30x.h"
 404              		.file 7 "../../../os/hal/platforms/STM32F30x/stm32_dma.h"
 405              		.file 8 "../../../os/hal/platforms/STM32/GPIOv2/pal_lld.h"
 406              		.file 9 "../../../os/hal/include/uart.h"
 407              		.file 10 "../../../os/hal/platforms/STM32/USARTv2/uart_lld.h"
 408              		.file 11 "../../../os/ports/common/ARMCMx/CMSIS/include/core_cm4.h"
 409              		.file 12 "../../../os/kernel/include/chdebug.h"
 410              		.file 13 "../../../os/hal/include/hal.h"
 411              		.file 14 "../../../os/kernel/include/chsys.h"
 412              		.file 15 "../../../os/kernel/include/chthreads.h"
 413              		.section	.debug_info,"",%progbits
 414              	.Ldebug_info0:
 415 0000 120B0000 		.4byte	0xb12
 416 0004 0200     		.2byte	0x2
 417 0006 00000000 		.4byte	.Ldebug_abbrev0
 418 000a 04       		.byte	0x4
 419 000b 01       		.uleb128 0x1
 420 000c 6E020000 		.4byte	.LASF110
 421 0010 01       		.byte	0x1
 422 0011 7A020000 		.4byte	.LASF111
 423 0015 1E040000 		.4byte	.LASF112
 424 0019 00000000 		.4byte	.Ldebug_ranges0+0
 425 001d 00000000 		.4byte	0
 426 0021 00000000 		.4byte	0
 427 0025 00000000 		.4byte	.Ldebug_line0
 428 0029 02       		.uleb128 0x2
 429 002a 04       		.byte	0x4
 430 002b 05       		.byte	0x5
 431 002c 696E7400 		.ascii	"int\000"
 432 0030 03       		.uleb128 0x3
 433 0031 2B000000 		.4byte	.LASF2
ARM GAS  C:\cygwin\tmp\cc13kgnP.s 			page 9


 434 0035 02       		.byte	0x2
 435 0036 D5       		.byte	0xd5
 436 0037 3B000000 		.4byte	0x3b
 437 003b 04       		.uleb128 0x4
 438 003c 04       		.byte	0x4
 439 003d 07       		.byte	0x7
 440 003e 68010000 		.4byte	.LASF0
 441 0042 04       		.uleb128 0x4
 442 0043 01       		.byte	0x1
 443 0044 06       		.byte	0x6
 444 0045 AA000000 		.4byte	.LASF1
 445 0049 03       		.uleb128 0x3
 446 004a 51040000 		.4byte	.LASF3
 447 004e 03       		.byte	0x3
 448 004f 2A       		.byte	0x2a
 449 0050 54000000 		.4byte	0x54
 450 0054 04       		.uleb128 0x4
 451 0055 01       		.byte	0x1
 452 0056 08       		.byte	0x8
 453 0057 0F030000 		.4byte	.LASF4
 454 005b 04       		.uleb128 0x4
 455 005c 02       		.byte	0x2
 456 005d 05       		.byte	0x5
 457 005e 1D030000 		.4byte	.LASF5
 458 0062 03       		.uleb128 0x3
 459 0063 7D010000 		.4byte	.LASF6
 460 0067 03       		.byte	0x3
 461 0068 36       		.byte	0x36
 462 0069 6D000000 		.4byte	0x6d
 463 006d 04       		.uleb128 0x4
 464 006e 02       		.byte	0x2
 465 006f 07       		.byte	0x7
 466 0070 C3010000 		.4byte	.LASF7
 467 0074 03       		.uleb128 0x3
 468 0075 07030000 		.4byte	.LASF8
 469 0079 03       		.byte	0x3
 470 007a 4F       		.byte	0x4f
 471 007b 7F000000 		.4byte	0x7f
 472 007f 04       		.uleb128 0x4
 473 0080 04       		.byte	0x4
 474 0081 05       		.byte	0x5
 475 0082 EF000000 		.4byte	.LASF9
 476 0086 03       		.uleb128 0x3
 477 0087 4B030000 		.4byte	.LASF10
 478 008b 03       		.byte	0x3
 479 008c 50       		.byte	0x50
 480 008d 91000000 		.4byte	0x91
 481 0091 04       		.uleb128 0x4
 482 0092 04       		.byte	0x4
 483 0093 07       		.byte	0x7
 484 0094 8B010000 		.4byte	.LASF11
 485 0098 04       		.uleb128 0x4
 486 0099 08       		.byte	0x8
 487 009a 05       		.byte	0x5
 488 009b 9C000000 		.4byte	.LASF12
 489 009f 04       		.uleb128 0x4
 490 00a0 08       		.byte	0x8
ARM GAS  C:\cygwin\tmp\cc13kgnP.s 			page 10


 491 00a1 07       		.byte	0x7
 492 00a2 56000000 		.4byte	.LASF13
 493 00a6 04       		.uleb128 0x4
 494 00a7 01       		.byte	0x1
 495 00a8 02       		.byte	0x2
 496 00a9 01030000 		.4byte	.LASF14
 497 00ad 03       		.uleb128 0x3
 498 00ae 89030000 		.4byte	.LASF15
 499 00b2 04       		.byte	0x4
 500 00b3 2E       		.byte	0x2e
 501 00b4 86000000 		.4byte	0x86
 502 00b8 05       		.uleb128 0x5
 503 00b9 04       		.byte	0x4
 504 00ba 06       		.uleb128 0x6
 505 00bb 86000000 		.4byte	0x86
 506 00bf 04       		.uleb128 0x4
 507 00c0 04       		.byte	0x4
 508 00c1 07       		.byte	0x7
 509 00c2 14020000 		.4byte	.LASF16
 510 00c6 03       		.uleb128 0x3
 511 00c7 9A030000 		.4byte	.LASF17
 512 00cb 05       		.byte	0x5
 513 00cc 4E       		.byte	0x4e
 514 00cd D1000000 		.4byte	0xd1
 515 00d1 07       		.uleb128 0x7
 516 00d2 04       		.byte	0x4
 517 00d3 D7000000 		.4byte	0xd7
 518 00d7 08       		.uleb128 0x8
 519 00d8 01       		.byte	0x1
 520 00d9 E3000000 		.4byte	0xe3
 521 00dd 09       		.uleb128 0x9
 522 00de B8000000 		.4byte	0xb8
 523 00e2 00       		.byte	0
 524 00e3 03       		.uleb128 0x3
 525 00e4 54030000 		.4byte	.LASF18
 526 00e8 05       		.byte	0x5
 527 00e9 53       		.byte	0x53
 528 00ea EE000000 		.4byte	0xee
 529 00ee 0A       		.uleb128 0xa
 530 00ef 54030000 		.4byte	.LASF18
 531 00f3 14       		.byte	0x14
 532 00f4 05       		.byte	0x5
 533 00f5 5A       		.byte	0x5a
 534 00f6 41010000 		.4byte	0x141
 535 00fa 0B       		.uleb128 0xb
 536 00fb 75010000 		.4byte	.LASF19
 537 00ff 05       		.byte	0x5
 538 0100 5B       		.byte	0x5b
 539 0101 41010000 		.4byte	0x141
 540 0105 02       		.byte	0x2
 541 0106 23       		.byte	0x23
 542 0107 00       		.uleb128 0
 543 0108 0B       		.uleb128 0xb
 544 0109 39010000 		.4byte	.LASF20
 545 010d 05       		.byte	0x5
 546 010e 5D       		.byte	0x5d
 547 010f 41010000 		.4byte	0x141
ARM GAS  C:\cygwin\tmp\cc13kgnP.s 			page 11


 548 0113 02       		.byte	0x2
 549 0114 23       		.byte	0x23
 550 0115 04       		.uleb128 0x4
 551 0116 0B       		.uleb128 0xb
 552 0117 0C020000 		.4byte	.LASF21
 553 011b 05       		.byte	0x5
 554 011c 5F       		.byte	0x5f
 555 011d AD000000 		.4byte	0xad
 556 0121 02       		.byte	0x2
 557 0122 23       		.byte	0x23
 558 0123 08       		.uleb128 0x8
 559 0124 0B       		.uleb128 0xb
 560 0125 8D040000 		.4byte	.LASF22
 561 0129 05       		.byte	0x5
 562 012a 60       		.byte	0x60
 563 012b C6000000 		.4byte	0xc6
 564 012f 02       		.byte	0x2
 565 0130 23       		.byte	0x23
 566 0131 0C       		.uleb128 0xc
 567 0132 0B       		.uleb128 0xb
 568 0133 02040000 		.4byte	.LASF23
 569 0137 05       		.byte	0x5
 570 0138 62       		.byte	0x62
 571 0139 B8000000 		.4byte	0xb8
 572 013d 02       		.byte	0x2
 573 013e 23       		.byte	0x23
 574 013f 10       		.uleb128 0x10
 575 0140 00       		.byte	0
 576 0141 07       		.uleb128 0x7
 577 0142 04       		.byte	0x4
 578 0143 E3000000 		.4byte	0xe3
 579 0147 04       		.uleb128 0x4
 580 0148 01       		.byte	0x1
 581 0149 08       		.byte	0x8
 582 014a 66030000 		.4byte	.LASF24
 583 014e 06       		.uleb128 0x6
 584 014f 62000000 		.4byte	0x62
 585 0153 06       		.uleb128 0x6
 586 0154 74000000 		.4byte	0x74
 587 0158 0C       		.uleb128 0xc
 588 0159 10       		.byte	0x10
 589 015a 06       		.byte	0x6
 590 015b E501     		.2byte	0x1e5
 591 015d 9E010000 		.4byte	0x19e
 592 0161 0D       		.uleb128 0xd
 593 0162 43435200 		.ascii	"CCR\000"
 594 0166 06       		.byte	0x6
 595 0167 E701     		.2byte	0x1e7
 596 0169 BA000000 		.4byte	0xba
 597 016d 02       		.byte	0x2
 598 016e 23       		.byte	0x23
 599 016f 00       		.uleb128 0
 600 0170 0E       		.uleb128 0xe
 601 0171 09040000 		.4byte	.LASF25
 602 0175 06       		.byte	0x6
 603 0176 E801     		.2byte	0x1e8
 604 0178 BA000000 		.4byte	0xba
ARM GAS  C:\cygwin\tmp\cc13kgnP.s 			page 12


 605 017c 02       		.byte	0x2
 606 017d 23       		.byte	0x23
 607 017e 04       		.uleb128 0x4
 608 017f 0E       		.uleb128 0xe
 609 0180 86010000 		.4byte	.LASF26
 610 0184 06       		.byte	0x6
 611 0185 E901     		.2byte	0x1e9
 612 0187 BA000000 		.4byte	0xba
 613 018b 02       		.byte	0x2
 614 018c 23       		.byte	0x23
 615 018d 08       		.uleb128 0x8
 616 018e 0E       		.uleb128 0xe
 617 018f FA010000 		.4byte	.LASF27
 618 0193 06       		.byte	0x6
 619 0194 EA01     		.2byte	0x1ea
 620 0196 BA000000 		.4byte	0xba
 621 019a 02       		.byte	0x2
 622 019b 23       		.byte	0x23
 623 019c 0C       		.uleb128 0xc
 624 019d 00       		.byte	0
 625 019e 0F       		.uleb128 0xf
 626 019f 93020000 		.4byte	.LASF28
 627 01a3 06       		.byte	0x6
 628 01a4 EB01     		.2byte	0x1eb
 629 01a6 58010000 		.4byte	0x158
 630 01aa 0C       		.uleb128 0xc
 631 01ab 04       		.byte	0x4
 632 01ac 06       		.byte	0x6
 633 01ad 4D02     		.2byte	0x24d
 634 01af D2010000 		.4byte	0x1d2
 635 01b3 0D       		.uleb128 0xd
 636 01b4 73657400 		.ascii	"set\000"
 637 01b8 06       		.byte	0x6
 638 01b9 4E02     		.2byte	0x24e
 639 01bb 62000000 		.4byte	0x62
 640 01bf 02       		.byte	0x2
 641 01c0 23       		.byte	0x23
 642 01c1 00       		.uleb128 0
 643 01c2 0E       		.uleb128 0xe
 644 01c3 1D020000 		.4byte	.LASF29
 645 01c7 06       		.byte	0x6
 646 01c8 4F02     		.2byte	0x24f
 647 01ca 62000000 		.4byte	0x62
 648 01ce 02       		.byte	0x2
 649 01cf 23       		.byte	0x23
 650 01d0 02       		.uleb128 0x2
 651 01d1 00       		.byte	0
 652 01d2 10       		.uleb128 0x10
 653 01d3 04       		.byte	0x4
 654 01d4 06       		.byte	0x6
 655 01d5 4B02     		.2byte	0x24b
 656 01d7 F0010000 		.4byte	0x1f0
 657 01db 11       		.uleb128 0x11
 658 01dc 5700     		.ascii	"W\000"
 659 01de 06       		.byte	0x6
 660 01df 4C02     		.2byte	0x24c
 661 01e1 86000000 		.4byte	0x86
ARM GAS  C:\cygwin\tmp\cc13kgnP.s 			page 13


 662 01e5 11       		.uleb128 0x11
 663 01e6 4800     		.ascii	"H\000"
 664 01e8 06       		.byte	0x6
 665 01e9 5002     		.2byte	0x250
 666 01eb AA010000 		.4byte	0x1aa
 667 01ef 00       		.byte	0
 668 01f0 0C       		.uleb128 0xc
 669 01f1 28       		.byte	0x28
 670 01f2 06       		.byte	0x6
 671 01f3 4302     		.2byte	0x243
 672 01f5 90020000 		.4byte	0x290
 673 01f9 0E       		.uleb128 0xe
 674 01fa 50000000 		.4byte	.LASF30
 675 01fe 06       		.byte	0x6
 676 01ff 4502     		.2byte	0x245
 677 0201 BA000000 		.4byte	0xba
 678 0205 02       		.byte	0x2
 679 0206 23       		.byte	0x23
 680 0207 00       		.uleb128 0
 681 0208 0E       		.uleb128 0xe
 682 0209 3C000000 		.4byte	.LASF31
 683 020d 06       		.byte	0x6
 684 020e 4602     		.2byte	0x246
 685 0210 BA000000 		.4byte	0xba
 686 0214 02       		.byte	0x2
 687 0215 23       		.byte	0x23
 688 0216 04       		.uleb128 0x4
 689 0217 0E       		.uleb128 0xe
 690 0218 25010000 		.4byte	.LASF32
 691 021c 06       		.byte	0x6
 692 021d 4702     		.2byte	0x247
 693 021f BA000000 		.4byte	0xba
 694 0223 02       		.byte	0x2
 695 0224 23       		.byte	0x23
 696 0225 08       		.uleb128 0x8
 697 0226 0E       		.uleb128 0xe
 698 0227 06000000 		.4byte	.LASF33
 699 022b 06       		.byte	0x6
 700 022c 4802     		.2byte	0x248
 701 022e BA000000 		.4byte	0xba
 702 0232 02       		.byte	0x2
 703 0233 23       		.byte	0x23
 704 0234 0C       		.uleb128 0xc
 705 0235 0D       		.uleb128 0xd
 706 0236 49445200 		.ascii	"IDR\000"
 707 023a 06       		.byte	0x6
 708 023b 4902     		.2byte	0x249
 709 023d BA000000 		.4byte	0xba
 710 0241 02       		.byte	0x2
 711 0242 23       		.byte	0x23
 712 0243 10       		.uleb128 0x10
 713 0244 0D       		.uleb128 0xd
 714 0245 4F445200 		.ascii	"ODR\000"
 715 0249 06       		.byte	0x6
 716 024a 4A02     		.2byte	0x24a
 717 024c BA000000 		.4byte	0xba
 718 0250 02       		.byte	0x2
ARM GAS  C:\cygwin\tmp\cc13kgnP.s 			page 14


 719 0251 23       		.byte	0x23
 720 0252 14       		.uleb128 0x14
 721 0253 0E       		.uleb128 0xe
 722 0254 BF000000 		.4byte	.LASF34
 723 0258 06       		.byte	0x6
 724 0259 5102     		.2byte	0x251
 725 025b 90020000 		.4byte	0x290
 726 025f 02       		.byte	0x2
 727 0260 23       		.byte	0x23
 728 0261 18       		.uleb128 0x18
 729 0262 0E       		.uleb128 0xe
 730 0263 17000000 		.4byte	.LASF35
 731 0267 06       		.byte	0x6
 732 0268 5202     		.2byte	0x252
 733 026a BA000000 		.4byte	0xba
 734 026e 02       		.byte	0x2
 735 026f 23       		.byte	0x23
 736 0270 1C       		.uleb128 0x1c
 737 0271 0E       		.uleb128 0xe
 738 0272 A7020000 		.4byte	.LASF36
 739 0276 06       		.byte	0x6
 740 0277 5302     		.2byte	0x253
 741 0279 BA000000 		.4byte	0xba
 742 027d 02       		.byte	0x2
 743 027e 23       		.byte	0x23
 744 027f 20       		.uleb128 0x20
 745 0280 0E       		.uleb128 0xe
 746 0281 61030000 		.4byte	.LASF37
 747 0285 06       		.byte	0x6
 748 0286 5402     		.2byte	0x254
 749 0288 BA000000 		.4byte	0xba
 750 028c 02       		.byte	0x2
 751 028d 23       		.byte	0x23
 752 028e 24       		.uleb128 0x24
 753 028f 00       		.byte	0
 754 0290 06       		.uleb128 0x6
 755 0291 D2010000 		.4byte	0x1d2
 756 0295 0F       		.uleb128 0xf
 757 0296 9D010000 		.4byte	.LASF38
 758 029a 06       		.byte	0x6
 759 029b 5502     		.2byte	0x255
 760 029d F0010000 		.4byte	0x1f0
 761 02a1 0C       		.uleb128 0xc
 762 02a2 2C       		.byte	0x2c
 763 02a3 06       		.byte	0x6
 764 02a4 3103     		.2byte	0x331
 765 02a6 9B030000 		.4byte	0x39b
 766 02aa 0D       		.uleb128 0xd
 767 02ab 43523100 		.ascii	"CR1\000"
 768 02af 06       		.byte	0x6
 769 02b0 3303     		.2byte	0x333
 770 02b2 BA000000 		.4byte	0xba
 771 02b6 02       		.byte	0x2
 772 02b7 23       		.byte	0x23
 773 02b8 00       		.uleb128 0
 774 02b9 0D       		.uleb128 0xd
 775 02ba 43523200 		.ascii	"CR2\000"
ARM GAS  C:\cygwin\tmp\cc13kgnP.s 			page 15


 776 02be 06       		.byte	0x6
 777 02bf 3403     		.2byte	0x334
 778 02c1 BA000000 		.4byte	0xba
 779 02c5 02       		.byte	0x2
 780 02c6 23       		.byte	0x23
 781 02c7 04       		.uleb128 0x4
 782 02c8 0D       		.uleb128 0xd
 783 02c9 43523300 		.ascii	"CR3\000"
 784 02cd 06       		.byte	0x6
 785 02ce 3503     		.2byte	0x335
 786 02d0 BA000000 		.4byte	0xba
 787 02d4 02       		.byte	0x2
 788 02d5 23       		.byte	0x23
 789 02d6 08       		.uleb128 0x8
 790 02d7 0D       		.uleb128 0xd
 791 02d8 42525200 		.ascii	"BRR\000"
 792 02dc 06       		.byte	0x6
 793 02dd 3603     		.2byte	0x336
 794 02df 4E010000 		.4byte	0x14e
 795 02e3 02       		.byte	0x2
 796 02e4 23       		.byte	0x23
 797 02e5 0C       		.uleb128 0xc
 798 02e6 0E       		.uleb128 0xe
 799 02e7 B2020000 		.4byte	.LASF39
 800 02eb 06       		.byte	0x6
 801 02ec 3703     		.2byte	0x337
 802 02ee 62000000 		.4byte	0x62
 803 02f2 02       		.byte	0x2
 804 02f3 23       		.byte	0x23
 805 02f4 0E       		.uleb128 0xe
 806 02f5 0E       		.uleb128 0xe
 807 02f6 CE000000 		.4byte	.LASF40
 808 02fa 06       		.byte	0x6
 809 02fb 3803     		.2byte	0x338
 810 02fd 4E010000 		.4byte	0x14e
 811 0301 02       		.byte	0x2
 812 0302 23       		.byte	0x23
 813 0303 10       		.uleb128 0x10
 814 0304 0E       		.uleb128 0xe
 815 0305 BC020000 		.4byte	.LASF41
 816 0309 06       		.byte	0x6
 817 030a 3903     		.2byte	0x339
 818 030c 62000000 		.4byte	0x62
 819 0310 02       		.byte	0x2
 820 0311 23       		.byte	0x23
 821 0312 12       		.uleb128 0x12
 822 0313 0E       		.uleb128 0xe
 823 0314 B8030000 		.4byte	.LASF42
 824 0318 06       		.byte	0x6
 825 0319 3A03     		.2byte	0x33a
 826 031b BA000000 		.4byte	0xba
 827 031f 02       		.byte	0x2
 828 0320 23       		.byte	0x23
 829 0321 14       		.uleb128 0x14
 830 0322 0D       		.uleb128 0xd
 831 0323 52515200 		.ascii	"RQR\000"
 832 0327 06       		.byte	0x6
ARM GAS  C:\cygwin\tmp\cc13kgnP.s 			page 16


 833 0328 3B03     		.2byte	0x33b
 834 032a 4E010000 		.4byte	0x14e
 835 032e 02       		.byte	0x2
 836 032f 23       		.byte	0x23
 837 0330 18       		.uleb128 0x18
 838 0331 0E       		.uleb128 0xe
 839 0332 C6020000 		.4byte	.LASF43
 840 0336 06       		.byte	0x6
 841 0337 3C03     		.2byte	0x33c
 842 0339 62000000 		.4byte	0x62
 843 033d 02       		.byte	0x2
 844 033e 23       		.byte	0x23
 845 033f 1A       		.uleb128 0x1a
 846 0340 0D       		.uleb128 0xd
 847 0341 49535200 		.ascii	"ISR\000"
 848 0345 06       		.byte	0x6
 849 0346 3D03     		.2byte	0x33d
 850 0348 BA000000 		.4byte	0xba
 851 034c 02       		.byte	0x2
 852 034d 23       		.byte	0x23
 853 034e 1C       		.uleb128 0x1c
 854 034f 0D       		.uleb128 0xd
 855 0350 49435200 		.ascii	"ICR\000"
 856 0354 06       		.byte	0x6
 857 0355 3E03     		.2byte	0x33e
 858 0357 BA000000 		.4byte	0xba
 859 035b 02       		.byte	0x2
 860 035c 23       		.byte	0x23
 861 035d 20       		.uleb128 0x20
 862 035e 0D       		.uleb128 0xd
 863 035f 52445200 		.ascii	"RDR\000"
 864 0363 06       		.byte	0x6
 865 0364 3F03     		.2byte	0x33f
 866 0366 4E010000 		.4byte	0x14e
 867 036a 02       		.byte	0x2
 868 036b 23       		.byte	0x23
 869 036c 24       		.uleb128 0x24
 870 036d 0E       		.uleb128 0xe
 871 036e D0020000 		.4byte	.LASF44
 872 0372 06       		.byte	0x6
 873 0373 4003     		.2byte	0x340
 874 0375 62000000 		.4byte	0x62
 875 0379 02       		.byte	0x2
 876 037a 23       		.byte	0x23
 877 037b 26       		.uleb128 0x26
 878 037c 0D       		.uleb128 0xd
 879 037d 54445200 		.ascii	"TDR\000"
 880 0381 06       		.byte	0x6
 881 0382 4103     		.2byte	0x341
 882 0384 4E010000 		.4byte	0x14e
 883 0388 02       		.byte	0x2
 884 0389 23       		.byte	0x23
 885 038a 28       		.uleb128 0x28
 886 038b 0E       		.uleb128 0xe
 887 038c DA020000 		.4byte	.LASF45
 888 0390 06       		.byte	0x6
 889 0391 4203     		.2byte	0x342
ARM GAS  C:\cygwin\tmp\cc13kgnP.s 			page 17


 890 0393 62000000 		.4byte	0x62
 891 0397 02       		.byte	0x2
 892 0398 23       		.byte	0x23
 893 0399 2A       		.uleb128 0x2a
 894 039a 00       		.byte	0
 895 039b 0F       		.uleb128 0xf
 896 039c EC010000 		.4byte	.LASF46
 897 03a0 06       		.byte	0x6
 898 03a1 4303     		.2byte	0x343
 899 03a3 A1020000 		.4byte	0x2a1
 900 03a7 12       		.uleb128 0x12
 901 03a8 0C       		.byte	0xc
 902 03a9 07       		.byte	0x7
 903 03aa C5       		.byte	0xc5
 904 03ab F6030000 		.4byte	0x3f6
 905 03af 0B       		.uleb128 0xb
 906 03b0 33030000 		.4byte	.LASF47
 907 03b4 07       		.byte	0x7
 908 03b5 C6       		.byte	0xc6
 909 03b6 F6030000 		.4byte	0x3f6
 910 03ba 02       		.byte	0x2
 911 03bb 23       		.byte	0x23
 912 03bc 00       		.uleb128 0
 913 03bd 0B       		.uleb128 0xb
 914 03be 46030000 		.4byte	.LASF48
 915 03c2 07       		.byte	0x7
 916 03c3 C7       		.byte	0xc7
 917 03c4 FC030000 		.4byte	0x3fc
 918 03c8 02       		.byte	0x2
 919 03c9 23       		.byte	0x23
 920 03ca 04       		.uleb128 0x4
 921 03cb 0B       		.uleb128 0xb
 922 03cc BC010000 		.4byte	.LASF49
 923 03d0 07       		.byte	0x7
 924 03d1 C8       		.byte	0xc8
 925 03d2 49000000 		.4byte	0x49
 926 03d6 02       		.byte	0x2
 927 03d7 23       		.byte	0x23
 928 03d8 08       		.uleb128 0x8
 929 03d9 0B       		.uleb128 0xb
 930 03da F8030000 		.4byte	.LASF50
 931 03de 07       		.byte	0x7
 932 03df CA       		.byte	0xca
 933 03e0 49000000 		.4byte	0x49
 934 03e4 02       		.byte	0x2
 935 03e5 23       		.byte	0x23
 936 03e6 09       		.uleb128 0x9
 937 03e7 0B       		.uleb128 0xb
 938 03e8 77000000 		.4byte	.LASF51
 939 03ec 07       		.byte	0x7
 940 03ed CB       		.byte	0xcb
 941 03ee 49000000 		.4byte	0x49
 942 03f2 02       		.byte	0x2
 943 03f3 23       		.byte	0x23
 944 03f4 0A       		.uleb128 0xa
 945 03f5 00       		.byte	0
 946 03f6 07       		.uleb128 0x7
ARM GAS  C:\cygwin\tmp\cc13kgnP.s 			page 18


 947 03f7 04       		.byte	0x4
 948 03f8 9E010000 		.4byte	0x19e
 949 03fc 07       		.uleb128 0x7
 950 03fd 04       		.byte	0x4
 951 03fe BA000000 		.4byte	0xba
 952 0402 03       		.uleb128 0x3
 953 0403 E4020000 		.4byte	.LASF52
 954 0407 07       		.byte	0x7
 955 0408 CC       		.byte	0xcc
 956 0409 A7030000 		.4byte	0x3a7
 957 040d 03       		.uleb128 0x3
 958 040e 43000000 		.4byte	.LASF53
 959 0412 08       		.byte	0x8
 960 0413 EE       		.byte	0xee
 961 0414 86000000 		.4byte	0x86
 962 0418 03       		.uleb128 0x3
 963 0419 84040000 		.4byte	.LASF54
 964 041d 08       		.byte	0x8
 965 041e F3       		.byte	0xf3
 966 041f 86000000 		.4byte	0x86
 967 0423 03       		.uleb128 0x3
 968 0424 BD030000 		.4byte	.LASF55
 969 0428 08       		.byte	0x8
 970 0429 FB       		.byte	0xfb
 971 042a 2E040000 		.4byte	0x42e
 972 042e 07       		.uleb128 0x7
 973 042f 04       		.byte	0x4
 974 0430 95020000 		.4byte	0x295
 975 0434 07       		.uleb128 0x7
 976 0435 04       		.byte	0x4
 977 0436 3A040000 		.4byte	0x43a
 978 043a 13       		.uleb128 0x13
 979 043b 02040000 		.4byte	0x402
 980 043f 14       		.uleb128 0x14
 981 0440 01       		.byte	0x1
 982 0441 09       		.byte	0x9
 983 0442 41       		.byte	0x41
 984 0443 5A040000 		.4byte	0x45a
 985 0447 15       		.uleb128 0x15
 986 0448 D6010000 		.4byte	.LASF56
 987 044c 00       		.sleb128 0
 988 044d 15       		.uleb128 0x15
 989 044e E2010000 		.4byte	.LASF57
 990 0452 01       		.sleb128 1
 991 0453 15       		.uleb128 0x15
 992 0454 48010000 		.4byte	.LASF58
 993 0458 02       		.sleb128 2
 994 0459 00       		.byte	0
 995 045a 03       		.uleb128 0x3
 996 045b 27030000 		.4byte	.LASF59
 997 045f 09       		.byte	0x9
 998 0460 45       		.byte	0x45
 999 0461 3F040000 		.4byte	0x43f
 1000 0465 14       		.uleb128 0x14
 1001 0466 01       		.byte	0x1
 1002 0467 09       		.byte	0x9
 1003 0468 4A       		.byte	0x4a
ARM GAS  C:\cygwin\tmp\cc13kgnP.s 			page 19


 1004 0469 80040000 		.4byte	0x480
 1005 046d 15       		.uleb128 0x15
 1006 046e AB030000 		.4byte	.LASF60
 1007 0472 00       		.sleb128 0
 1008 0473 15       		.uleb128 0x15
 1009 0474 53010000 		.4byte	.LASF61
 1010 0478 01       		.sleb128 1
 1011 0479 15       		.uleb128 0x15
 1012 047a 95040000 		.4byte	.LASF62
 1013 047e 02       		.sleb128 2
 1014 047f 00       		.byte	0
 1015 0480 03       		.uleb128 0x3
 1016 0481 59020000 		.4byte	.LASF63
 1017 0485 09       		.byte	0x9
 1018 0486 4E       		.byte	0x4e
 1019 0487 65040000 		.4byte	0x465
 1020 048b 14       		.uleb128 0x14
 1021 048c 01       		.byte	0x1
 1022 048d 09       		.byte	0x9
 1023 048e 53       		.byte	0x53
 1024 048f A6040000 		.4byte	0x4a6
 1025 0493 15       		.uleb128 0x15
 1026 0494 72030000 		.4byte	.LASF64
 1027 0498 00       		.sleb128 0
 1028 0499 15       		.uleb128 0x15
 1029 049a 1C000000 		.4byte	.LASF65
 1030 049e 01       		.sleb128 1
 1031 049f 15       		.uleb128 0x15
 1032 04a0 23020000 		.4byte	.LASF66
 1033 04a4 02       		.sleb128 2
 1034 04a5 00       		.byte	0
 1035 04a6 03       		.uleb128 0x3
 1036 04a7 06010000 		.4byte	.LASF67
 1037 04ab 09       		.byte	0x9
 1038 04ac 57       		.byte	0x57
 1039 04ad 8B040000 		.4byte	0x48b
 1040 04b1 0F       		.uleb128 0xf
 1041 04b2 2D010000 		.4byte	.LASF68
 1042 04b6 0A       		.byte	0xa
 1043 04b7 3001     		.2byte	0x130
 1044 04b9 86000000 		.4byte	0x86
 1045 04bd 0F       		.uleb128 0xf
 1046 04be 1A010000 		.4byte	.LASF69
 1047 04c2 0A       		.byte	0xa
 1048 04c3 3501     		.2byte	0x135
 1049 04c5 C9040000 		.4byte	0x4c9
 1050 04c9 16       		.uleb128 0x16
 1051 04ca 1A010000 		.4byte	.LASF69
 1052 04ce 1C       		.byte	0x1c
 1053 04cf 0A       		.byte	0xa
 1054 04d0 7D01     		.2byte	0x17d
 1055 04d2 5E050000 		.4byte	0x55e
 1056 04d6 0E       		.uleb128 0xe
 1057 04d7 E1000000 		.4byte	.LASF70
 1058 04db 0A       		.byte	0xa
 1059 04dc 8101     		.2byte	0x181
 1060 04de 5A040000 		.4byte	0x45a
ARM GAS  C:\cygwin\tmp\cc13kgnP.s 			page 20


 1061 04e2 02       		.byte	0x2
 1062 04e3 23       		.byte	0x23
 1063 04e4 00       		.uleb128 0
 1064 04e5 0E       		.uleb128 0xe
 1065 04e6 E7000000 		.4byte	.LASF71
 1066 04ea 0A       		.byte	0xa
 1067 04eb 8501     		.2byte	0x185
 1068 04ed 80040000 		.4byte	0x480
 1069 04f1 02       		.byte	0x2
 1070 04f2 23       		.byte	0x23
 1071 04f3 01       		.uleb128 0x1
 1072 04f4 0E       		.uleb128 0xe
 1073 04f5 D9000000 		.4byte	.LASF72
 1074 04f9 0A       		.byte	0xa
 1075 04fa 8901     		.2byte	0x189
 1076 04fc A6040000 		.4byte	0x4a6
 1077 0500 02       		.byte	0x2
 1078 0501 23       		.byte	0x23
 1079 0502 02       		.uleb128 0x2
 1080 0503 0E       		.uleb128 0xe
 1081 0504 6B030000 		.4byte	.LASF73
 1082 0508 0A       		.byte	0xa
 1083 0509 8D01     		.2byte	0x18d
 1084 050b 65060000 		.4byte	0x665
 1085 050f 02       		.byte	0x2
 1086 0510 23       		.byte	0x23
 1087 0511 04       		.uleb128 0x4
 1088 0512 0E       		.uleb128 0xe
 1089 0513 62010000 		.4byte	.LASF74
 1090 0517 0A       		.byte	0xa
 1091 0518 9501     		.2byte	0x195
 1092 051a 70060000 		.4byte	0x670
 1093 051e 02       		.byte	0x2
 1094 051f 23       		.byte	0x23
 1095 0520 08       		.uleb128 0x8
 1096 0521 0E       		.uleb128 0xe
 1097 0522 71040000 		.4byte	.LASF75
 1098 0526 0A       		.byte	0xa
 1099 0527 9901     		.2byte	0x199
 1100 0529 86000000 		.4byte	0x86
 1101 052d 02       		.byte	0x2
 1102 052e 23       		.byte	0x23
 1103 052f 0C       		.uleb128 0xc
 1104 0530 0E       		.uleb128 0xe
 1105 0531 00000000 		.4byte	.LASF76
 1106 0535 0A       		.byte	0xa
 1107 0536 9D01     		.2byte	0x19d
 1108 0538 34040000 		.4byte	0x434
 1109 053c 02       		.byte	0x2
 1110 053d 23       		.byte	0x23
 1111 053e 10       		.uleb128 0x10
 1112 053f 0E       		.uleb128 0xe
 1113 0540 14010000 		.4byte	.LASF77
 1114 0544 0A       		.byte	0xa
 1115 0545 A101     		.2byte	0x1a1
 1116 0547 34040000 		.4byte	0x434
 1117 054b 02       		.byte	0x2
ARM GAS  C:\cygwin\tmp\cc13kgnP.s 			page 21


 1118 054c 23       		.byte	0x23
 1119 054d 14       		.uleb128 0x14
 1120 054e 0E       		.uleb128 0xe
 1121 054f 96000000 		.4byte	.LASF78
 1122 0553 0A       		.byte	0xa
 1123 0554 A501     		.2byte	0x1a5
 1124 0556 4E010000 		.4byte	0x14e
 1125 055a 02       		.byte	0x2
 1126 055b 23       		.byte	0x23
 1127 055c 18       		.uleb128 0x18
 1128 055d 00       		.byte	0
 1129 055e 0F       		.uleb128 0xf
 1130 055f B6000000 		.4byte	.LASF79
 1131 0563 0A       		.byte	0xa
 1132 0564 3C01     		.2byte	0x13c
 1133 0566 6A050000 		.4byte	0x56a
 1134 056a 07       		.uleb128 0x7
 1135 056b 04       		.byte	0x4
 1136 056c 70050000 		.4byte	0x570
 1137 0570 08       		.uleb128 0x8
 1138 0571 01       		.byte	0x1
 1139 0572 7C050000 		.4byte	0x57c
 1140 0576 09       		.uleb128 0x9
 1141 0577 7C050000 		.4byte	0x57c
 1142 057b 00       		.byte	0
 1143 057c 07       		.uleb128 0x7
 1144 057d 04       		.byte	0x4
 1145 057e BD040000 		.4byte	0x4bd
 1146 0582 0F       		.uleb128 0xf
 1147 0583 6D000000 		.4byte	.LASF80
 1148 0587 0A       		.byte	0xa
 1149 0588 4401     		.2byte	0x144
 1150 058a 8E050000 		.4byte	0x58e
 1151 058e 07       		.uleb128 0x7
 1152 058f 04       		.byte	0x4
 1153 0590 94050000 		.4byte	0x594
 1154 0594 08       		.uleb128 0x8
 1155 0595 01       		.byte	0x1
 1156 0596 A5050000 		.4byte	0x5a5
 1157 059a 09       		.uleb128 0x9
 1158 059b 7C050000 		.4byte	0x57c
 1159 059f 09       		.uleb128 0x9
 1160 05a0 62000000 		.4byte	0x62
 1161 05a4 00       		.byte	0
 1162 05a5 0F       		.uleb128 0xf
 1163 05a6 B2010000 		.4byte	.LASF81
 1164 05aa 0A       		.byte	0xa
 1165 05ab 4C01     		.2byte	0x14c
 1166 05ad B1050000 		.4byte	0x5b1
 1167 05b1 07       		.uleb128 0x7
 1168 05b2 04       		.byte	0x4
 1169 05b3 B7050000 		.4byte	0x5b7
 1170 05b7 08       		.uleb128 0x8
 1171 05b8 01       		.byte	0x1
 1172 05b9 C8050000 		.4byte	0x5c8
 1173 05bd 09       		.uleb128 0x9
 1174 05be 7C050000 		.4byte	0x57c
ARM GAS  C:\cygwin\tmp\cc13kgnP.s 			page 22


 1175 05c2 09       		.uleb128 0x9
 1176 05c3 B1040000 		.4byte	0x4b1
 1177 05c7 00       		.byte	0
 1178 05c8 0C       		.uleb128 0xc
 1179 05c9 24       		.byte	0x24
 1180 05ca 0A       		.byte	0xa
 1181 05cb 5201     		.2byte	0x152
 1182 05cd 59060000 		.4byte	0x659
 1183 05d1 0E       		.uleb128 0xe
 1184 05d2 7F030000 		.4byte	.LASF82
 1185 05d6 0A       		.byte	0xa
 1186 05d7 5601     		.2byte	0x156
 1187 05d9 5E050000 		.4byte	0x55e
 1188 05dd 02       		.byte	0x2
 1189 05de 23       		.byte	0x23
 1190 05df 00       		.uleb128 0
 1191 05e0 0E       		.uleb128 0xe
 1192 05e1 F7020000 		.4byte	.LASF83
 1193 05e5 0A       		.byte	0xa
 1194 05e6 5A01     		.2byte	0x15a
 1195 05e8 5E050000 		.4byte	0x55e
 1196 05ec 02       		.byte	0x2
 1197 05ed 23       		.byte	0x23
 1198 05ee 04       		.uleb128 0x4
 1199 05ef 0E       		.uleb128 0xe
 1200 05f0 50020000 		.4byte	.LASF84
 1201 05f4 0A       		.byte	0xa
 1202 05f5 5E01     		.2byte	0x15e
 1203 05f7 5E050000 		.4byte	0x55e
 1204 05fb 02       		.byte	0x2
 1205 05fc 23       		.byte	0x23
 1206 05fd 08       		.uleb128 0x8
 1207 05fe 0E       		.uleb128 0xe
 1208 05ff 32000000 		.4byte	.LASF85
 1209 0603 0A       		.byte	0xa
 1210 0604 6201     		.2byte	0x162
 1211 0606 82050000 		.4byte	0x582
 1212 060a 02       		.byte	0x2
 1213 060b 23       		.byte	0x23
 1214 060c 0C       		.uleb128 0xc
 1215 060d 0E       		.uleb128 0xe
 1216 060e 34020000 		.4byte	.LASF86
 1217 0612 0A       		.byte	0xa
 1218 0613 6601     		.2byte	0x166
 1219 0615 A5050000 		.4byte	0x5a5
 1220 0619 02       		.byte	0x2
 1221 061a 23       		.byte	0x23
 1222 061b 10       		.uleb128 0x10
 1223 061c 0E       		.uleb128 0xe
 1224 061d 79040000 		.4byte	.LASF87
 1225 0621 0A       		.byte	0xa
 1226 0622 6B01     		.2byte	0x16b
 1227 0624 86000000 		.4byte	0x86
 1228 0628 02       		.byte	0x2
 1229 0629 23       		.byte	0x23
 1230 062a 14       		.uleb128 0x14
 1231 062b 0D       		.uleb128 0xd
ARM GAS  C:\cygwin\tmp\cc13kgnP.s 			page 23


 1232 062c 63723100 		.ascii	"cr1\000"
 1233 0630 0A       		.byte	0xa
 1234 0631 6F01     		.2byte	0x16f
 1235 0633 86000000 		.4byte	0x86
 1236 0637 02       		.byte	0x2
 1237 0638 23       		.byte	0x23
 1238 0639 18       		.uleb128 0x18
 1239 063a 0D       		.uleb128 0xd
 1240 063b 63723200 		.ascii	"cr2\000"
 1241 063f 0A       		.byte	0xa
 1242 0640 7301     		.2byte	0x173
 1243 0642 86000000 		.4byte	0x86
 1244 0646 02       		.byte	0x2
 1245 0647 23       		.byte	0x23
 1246 0648 1C       		.uleb128 0x1c
 1247 0649 0D       		.uleb128 0xd
 1248 064a 63723300 		.ascii	"cr3\000"
 1249 064e 0A       		.byte	0xa
 1250 064f 7701     		.2byte	0x177
 1251 0651 86000000 		.4byte	0x86
 1252 0655 02       		.byte	0x2
 1253 0656 23       		.byte	0x23
 1254 0657 20       		.uleb128 0x20
 1255 0658 00       		.byte	0
 1256 0659 0F       		.uleb128 0xf
 1257 065a 7E000000 		.4byte	.LASF88
 1258 065e 0A       		.byte	0xa
 1259 065f 7801     		.2byte	0x178
 1260 0661 C8050000 		.4byte	0x5c8
 1261 0665 07       		.uleb128 0x7
 1262 0666 04       		.byte	0x4
 1263 0667 6B060000 		.4byte	0x66b
 1264 066b 13       		.uleb128 0x13
 1265 066c 59060000 		.4byte	0x659
 1266 0670 07       		.uleb128 0x7
 1267 0671 04       		.byte	0x4
 1268 0672 9B030000 		.4byte	0x39b
 1269 0676 17       		.uleb128 0x17
 1270 0677 67020000 		.4byte	.LASF89
 1271 067b 01       		.byte	0x1
 1272 067c 23       		.byte	0x23
 1273 067d 01       		.byte	0x1
 1274 067e 00000000 		.4byte	.LFB119
 1275 0682 10000000 		.4byte	.LFE119
 1276 0686 02       		.byte	0x2
 1277 0687 7D       		.byte	0x7d
 1278 0688 00       		.sleb128 0
 1279 0689 01       		.byte	0x1
 1280 068a 9A060000 		.4byte	0x69a
 1281 068e 18       		.uleb128 0x18
 1282 068f 7000     		.ascii	"p\000"
 1283 0691 01       		.byte	0x1
 1284 0692 23       		.byte	0x23
 1285 0693 B8000000 		.4byte	0xb8
 1286 0697 01       		.byte	0x1
 1287 0698 50       		.byte	0x50
 1288 0699 00       		.byte	0
ARM GAS  C:\cygwin\tmp\cc13kgnP.s 			page 24


 1289 069a 17       		.uleb128 0x17
 1290 069b 41010000 		.4byte	.LASF90
 1291 069f 01       		.byte	0x1
 1292 06a0 2D       		.byte	0x2d
 1293 06a1 01       		.byte	0x1
 1294 06a2 00000000 		.4byte	.LFB120
 1295 06a6 10000000 		.4byte	.LFE120
 1296 06aa 02       		.byte	0x2
 1297 06ab 7D       		.byte	0x7d
 1298 06ac 00       		.sleb128 0
 1299 06ad 01       		.byte	0x1
 1300 06ae C0060000 		.4byte	0x6c0
 1301 06b2 19       		.uleb128 0x19
 1302 06b3 06020000 		.4byte	.LASF91
 1303 06b7 01       		.byte	0x1
 1304 06b8 2D       		.byte	0x2d
 1305 06b9 7C050000 		.4byte	0x57c
 1306 06bd 01       		.byte	0x1
 1307 06be 50       		.byte	0x50
 1308 06bf 00       		.byte	0
 1309 06c0 17       		.uleb128 0x17
 1310 06c1 D3000000 		.4byte	.LASF92
 1311 06c5 01       		.byte	0x1
 1312 06c6 45       		.byte	0x45
 1313 06c7 01       		.byte	0x1
 1314 06c8 00000000 		.4byte	.LFB122
 1315 06cc 02000000 		.4byte	.LFE122
 1316 06d0 02       		.byte	0x2
 1317 06d1 7D       		.byte	0x7d
 1318 06d2 00       		.sleb128 0
 1319 06d3 01       		.byte	0x1
 1320 06d4 F1060000 		.4byte	0x6f1
 1321 06d8 19       		.uleb128 0x19
 1322 06d9 06020000 		.4byte	.LASF91
 1323 06dd 01       		.byte	0x1
 1324 06de 45       		.byte	0x45
 1325 06df 7C050000 		.4byte	0x57c
 1326 06e3 01       		.byte	0x1
 1327 06e4 50       		.byte	0x50
 1328 06e5 18       		.uleb128 0x18
 1329 06e6 6500     		.ascii	"e\000"
 1330 06e8 01       		.byte	0x1
 1331 06e9 45       		.byte	0x45
 1332 06ea B1040000 		.4byte	0x4b1
 1333 06ee 01       		.byte	0x1
 1334 06ef 51       		.byte	0x51
 1335 06f0 00       		.byte	0
 1336 06f1 17       		.uleb128 0x17
 1337 06f2 AC020000 		.4byte	.LASF93
 1338 06f6 01       		.byte	0x1
 1339 06f7 5F       		.byte	0x5f
 1340 06f8 01       		.byte	0x1
 1341 06f9 00000000 		.4byte	.LFB124
 1342 06fd 02000000 		.4byte	.LFE124
 1343 0701 02       		.byte	0x2
 1344 0702 7D       		.byte	0x7d
 1345 0703 00       		.sleb128 0
ARM GAS  C:\cygwin\tmp\cc13kgnP.s 			page 25


 1346 0704 01       		.byte	0x1
 1347 0705 17070000 		.4byte	0x717
 1348 0709 19       		.uleb128 0x19
 1349 070a 06020000 		.4byte	.LASF91
 1350 070e 01       		.byte	0x1
 1351 070f 5F       		.byte	0x5f
 1352 0710 7C050000 		.4byte	0x57c
 1353 0714 01       		.byte	0x1
 1354 0715 50       		.byte	0x50
 1355 0716 00       		.byte	0
 1356 0717 1A       		.uleb128 0x1a
 1357 0718 8C020000 		.4byte	.LASF94
 1358 071c 01       		.byte	0x1
 1359 071d 4F       		.byte	0x4f
 1360 071e 01       		.byte	0x1
 1361 071f 00000000 		.4byte	.LFB123
 1362 0723 44000000 		.4byte	.LFE123
 1363 0727 00000000 		.4byte	.LLST0
 1364 072b 01       		.byte	0x1
 1365 072c DB070000 		.4byte	0x7db
 1366 0730 1B       		.uleb128 0x1b
 1367 0731 06020000 		.4byte	.LASF91
 1368 0735 01       		.byte	0x1
 1369 0736 4F       		.byte	0x4f
 1370 0737 7C050000 		.4byte	0x57c
 1371 073b 20000000 		.4byte	.LLST1
 1372 073f 1C       		.uleb128 0x1c
 1373 0740 6300     		.ascii	"c\000"
 1374 0742 01       		.byte	0x1
 1375 0743 4F       		.byte	0x4f
 1376 0744 62000000 		.4byte	0x62
 1377 0748 41000000 		.4byte	.LLST2
 1378 074c 1D       		.uleb128 0x1d
 1379 074d 10000000 		.4byte	.LBB2
 1380 0751 16000000 		.4byte	.LBE2
 1381 0755 69070000 		.4byte	0x769
 1382 0759 1E       		.uleb128 0x1e
 1383 075a 746D7000 		.ascii	"tmp\000"
 1384 075e 01       		.byte	0x1
 1385 075f 55       		.byte	0x55
 1386 0760 86000000 		.4byte	0x86
 1387 0764 62000000 		.4byte	.LLST3
 1388 0768 00       		.byte	0
 1389 0769 1D       		.uleb128 0x1d
 1390 076a 34000000 		.4byte	.LBB3
 1391 076e 44000000 		.4byte	.LBE3
 1392 0772 86070000 		.4byte	0x786
 1393 0776 1E       		.uleb128 0x1e
 1394 0777 746D7000 		.ascii	"tmp\000"
 1395 077b 01       		.byte	0x1
 1396 077c 59       		.byte	0x59
 1397 077d 86000000 		.4byte	0x86
 1398 0781 75000000 		.4byte	.LLST4
 1399 0785 00       		.byte	0
 1400 0786 1F       		.uleb128 0x1f
 1401 0787 1A000000 		.4byte	.LVL7
 1402 078b 2A0A0000 		.4byte	0xa2a
ARM GAS  C:\cygwin\tmp\cc13kgnP.s 			page 26


 1403 078f 20       		.uleb128 0x20
 1404 0790 24000000 		.4byte	.LVL8
 1405 0794 340A0000 		.4byte	0xa34
 1406 0798 A6070000 		.4byte	0x7a6
 1407 079c 21       		.uleb128 0x21
 1408 079d 01       		.byte	0x1
 1409 079e 50       		.byte	0x50
 1410 079f 05       		.byte	0x5
 1411 07a0 03       		.byte	0x3
 1412 07a1 00000000 		.4byte	.LANCHOR0
 1413 07a5 00       		.byte	0
 1414 07a6 20       		.uleb128 0x20
 1415 07a7 30000000 		.4byte	.LVL9
 1416 07ab 480A0000 		.4byte	0xa48
 1417 07af D1070000 		.4byte	0x7d1
 1418 07b3 21       		.uleb128 0x21
 1419 07b4 01       		.byte	0x1
 1420 07b5 53       		.byte	0x53
 1421 07b6 01       		.byte	0x1
 1422 07b7 30       		.byte	0x30
 1423 07b8 21       		.uleb128 0x21
 1424 07b9 01       		.byte	0x1
 1425 07ba 52       		.byte	0x52
 1426 07bb 05       		.byte	0x5
 1427 07bc 03       		.byte	0x3
 1428 07bd 00000000 		.4byte	ledoff
 1429 07c1 21       		.uleb128 0x21
 1430 07c2 01       		.byte	0x1
 1431 07c3 51       		.byte	0x51
 1432 07c4 02       		.byte	0x2
 1433 07c5 08       		.byte	0x8
 1434 07c6 C8       		.byte	0xc8
 1435 07c7 21       		.uleb128 0x21
 1436 07c8 01       		.byte	0x1
 1437 07c9 50       		.byte	0x50
 1438 07ca 05       		.byte	0x5
 1439 07cb 03       		.byte	0x3
 1440 07cc 00000000 		.4byte	.LANCHOR0
 1441 07d0 00       		.byte	0
 1442 07d1 1F       		.uleb128 0x1f
 1443 07d2 34000000 		.4byte	.LVL10
 1444 07d6 6B0A0000 		.4byte	0xa6b
 1445 07da 00       		.byte	0
 1446 07db 1A       		.uleb128 0x1a
 1447 07dc 93030000 		.4byte	.LASF95
 1448 07e0 01       		.byte	0x1
 1449 07e1 36       		.byte	0x36
 1450 07e2 01       		.byte	0x1
 1451 07e3 00000000 		.4byte	.LFB121
 1452 07e7 48000000 		.4byte	.LFE121
 1453 07eb 88000000 		.4byte	.LLST5
 1454 07ef 01       		.byte	0x1
 1455 07f0 93080000 		.4byte	0x893
 1456 07f4 1B       		.uleb128 0x1b
 1457 07f5 06020000 		.4byte	.LASF91
 1458 07f9 01       		.byte	0x1
 1459 07fa 36       		.byte	0x36
ARM GAS  C:\cygwin\tmp\cc13kgnP.s 			page 27


 1460 07fb 7C050000 		.4byte	0x57c
 1461 07ff A8000000 		.4byte	.LLST6
 1462 0803 1D       		.uleb128 0x1d
 1463 0804 10000000 		.4byte	.LBB4
 1464 0808 16000000 		.4byte	.LBE4
 1465 080c 20080000 		.4byte	0x820
 1466 0810 1E       		.uleb128 0x1e
 1467 0811 746D7000 		.ascii	"tmp\000"
 1468 0815 01       		.byte	0x1
 1469 0816 3A       		.byte	0x3a
 1470 0817 86000000 		.4byte	0x86
 1471 081b C9000000 		.4byte	.LLST7
 1472 081f 00       		.byte	0
 1473 0820 1D       		.uleb128 0x1d
 1474 0821 36000000 		.4byte	.LBB5
 1475 0825 48000000 		.4byte	.LBE5
 1476 0829 3D080000 		.4byte	0x83d
 1477 082d 1E       		.uleb128 0x1e
 1478 082e 746D7000 		.ascii	"tmp\000"
 1479 0832 01       		.byte	0x1
 1480 0833 3E       		.byte	0x3e
 1481 0834 86000000 		.4byte	0x86
 1482 0838 DC000000 		.4byte	.LLST8
 1483 083c 00       		.byte	0
 1484 083d 1F       		.uleb128 0x1f
 1485 083e 1A000000 		.4byte	.LVL16
 1486 0842 2A0A0000 		.4byte	0xa2a
 1487 0846 20       		.uleb128 0x20
 1488 0847 24000000 		.4byte	.LVL17
 1489 084b 340A0000 		.4byte	0xa34
 1490 084f 5D080000 		.4byte	0x85d
 1491 0853 21       		.uleb128 0x21
 1492 0854 01       		.byte	0x1
 1493 0855 50       		.byte	0x50
 1494 0856 05       		.byte	0x5
 1495 0857 03       		.byte	0x3
 1496 0858 00000000 		.4byte	.LANCHOR1
 1497 085c 00       		.byte	0
 1498 085d 20       		.uleb128 0x20
 1499 085e 32000000 		.4byte	.LVL18
 1500 0862 480A0000 		.4byte	0xa48
 1501 0866 89080000 		.4byte	0x889
 1502 086a 21       		.uleb128 0x21
 1503 086b 01       		.byte	0x1
 1504 086c 53       		.byte	0x53
 1505 086d 01       		.byte	0x1
 1506 086e 30       		.byte	0x30
 1507 086f 21       		.uleb128 0x21
 1508 0870 01       		.byte	0x1
 1509 0871 52       		.byte	0x52
 1510 0872 05       		.byte	0x5
 1511 0873 03       		.byte	0x3
 1512 0874 00000000 		.4byte	restart
 1513 0878 21       		.uleb128 0x21
 1514 0879 01       		.byte	0x1
 1515 087a 51       		.byte	0x51
 1516 087b 03       		.byte	0x3
ARM GAS  C:\cygwin\tmp\cc13kgnP.s 			page 28


 1517 087c 0A       		.byte	0xa
 1518 087d 8813     		.2byte	0x1388
 1519 087f 21       		.uleb128 0x21
 1520 0880 01       		.byte	0x1
 1521 0881 50       		.byte	0x50
 1522 0882 05       		.byte	0x5
 1523 0883 03       		.byte	0x3
 1524 0884 00000000 		.4byte	.LANCHOR1
 1525 0888 00       		.byte	0
 1526 0889 1F       		.uleb128 0x1f
 1527 088a 36000000 		.4byte	.LVL19
 1528 088e 6B0A0000 		.4byte	0xa6b
 1529 0892 00       		.byte	0
 1530 0893 1A       		.uleb128 0x1a
 1531 0894 A3030000 		.4byte	.LASF96
 1532 0898 01       		.byte	0x1
 1533 0899 1A       		.byte	0x1a
 1534 089a 01       		.byte	0x1
 1535 089b 00000000 		.4byte	.LFB118
 1536 089f 2E000000 		.4byte	.LFE118
 1537 08a3 EF000000 		.4byte	.LLST9
 1538 08a7 01       		.byte	0x1
 1539 08a8 22090000 		.4byte	0x922
 1540 08ac 1C       		.uleb128 0x1c
 1541 08ad 7000     		.ascii	"p\000"
 1542 08af 01       		.byte	0x1
 1543 08b0 1A       		.byte	0x1a
 1544 08b1 B8000000 		.4byte	0xb8
 1545 08b5 0F010000 		.4byte	.LLST10
 1546 08b9 1D       		.uleb128 0x1d
 1547 08ba 02000000 		.4byte	.LBB6
 1548 08be 08000000 		.4byte	.LBE6
 1549 08c2 D6080000 		.4byte	0x8d6
 1550 08c6 1E       		.uleb128 0x1e
 1551 08c7 746D7000 		.ascii	"tmp\000"
 1552 08cb 01       		.byte	0x1
 1553 08cc 1E       		.byte	0x1e
 1554 08cd 86000000 		.4byte	0x86
 1555 08d1 30010000 		.4byte	.LLST11
 1556 08d5 00       		.byte	0
 1557 08d6 1D       		.uleb128 0x1d
 1558 08d7 26000000 		.4byte	.LBB7
 1559 08db 2E000000 		.4byte	.LBE7
 1560 08df F3080000 		.4byte	0x8f3
 1561 08e3 1E       		.uleb128 0x1e
 1562 08e4 746D7000 		.ascii	"tmp\000"
 1563 08e8 01       		.byte	0x1
 1564 08e9 20       		.byte	0x20
 1565 08ea 86000000 		.4byte	0x86
 1566 08ee 43010000 		.4byte	.LLST12
 1567 08f2 00       		.byte	0
 1568 08f3 1F       		.uleb128 0x1f
 1569 08f4 0C000000 		.4byte	.LVL25
 1570 08f8 2A0A0000 		.4byte	0xa2a
 1571 08fc 20       		.uleb128 0x20
 1572 08fd 22000000 		.4byte	.LVL26
 1573 0901 750A0000 		.4byte	0xa75
ARM GAS  C:\cygwin\tmp\cc13kgnP.s 			page 29


 1574 0905 18090000 		.4byte	0x918
 1575 0909 21       		.uleb128 0x21
 1576 090a 01       		.byte	0x1
 1577 090b 52       		.byte	0x52
 1578 090c 05       		.byte	0x5
 1579 090d 03       		.byte	0x3
 1580 090e 00000000 		.4byte	.LC0
 1581 0912 21       		.uleb128 0x21
 1582 0913 01       		.byte	0x1
 1583 0914 51       		.byte	0x51
 1584 0915 01       		.byte	0x1
 1585 0916 3E       		.byte	0x3e
 1586 0917 00       		.byte	0
 1587 0918 1F       		.uleb128 0x1f
 1588 0919 26000000 		.4byte	.LVL27
 1589 091d 6B0A0000 		.4byte	0xa6b
 1590 0921 00       		.byte	0
 1591 0922 22       		.uleb128 0x22
 1592 0923 01       		.byte	0x1
 1593 0924 7F040000 		.4byte	.LASF113
 1594 0928 01       		.byte	0x1
 1595 0929 76       		.byte	0x76
 1596 092a 01       		.byte	0x1
 1597 092b 29000000 		.4byte	0x29
 1598 092f 00000000 		.4byte	.LFB125
 1599 0933 50000000 		.4byte	.LFE125
 1600 0937 56010000 		.4byte	.LLST13
 1601 093b 01       		.byte	0x1
 1602 093c DB090000 		.4byte	0x9db
 1603 0940 1F       		.uleb128 0x1f
 1604 0941 06000000 		.4byte	.LVL30
 1605 0945 9A0A0000 		.4byte	0xa9a
 1606 0949 1F       		.uleb128 0x1f
 1607 094a 0A000000 		.4byte	.LVL31
 1608 094e A40A0000 		.4byte	0xaa4
 1609 0952 20       		.uleb128 0x20
 1610 0953 12000000 		.4byte	.LVL32
 1611 0957 AE0A0000 		.4byte	0xaae
 1612 095b 69090000 		.4byte	0x969
 1613 095f 21       		.uleb128 0x21
 1614 0960 01       		.byte	0x1
 1615 0961 51       		.byte	0x51
 1616 0962 05       		.byte	0x5
 1617 0963 03       		.byte	0x3
 1618 0964 00000000 		.4byte	.LANCHOR2
 1619 0968 00       		.byte	0
 1620 0969 20       		.uleb128 0x20
 1621 096a 20000000 		.4byte	.LVL33
 1622 096e C70A0000 		.4byte	0xac7
 1623 0972 8B090000 		.4byte	0x98b
 1624 0976 21       		.uleb128 0x21
 1625 0977 01       		.byte	0x1
 1626 0978 52       		.byte	0x52
 1627 0979 02       		.byte	0x2
 1628 097a 08       		.byte	0x8
 1629 097b 82       		.byte	0x82
 1630 097c 21       		.uleb128 0x21
ARM GAS  C:\cygwin\tmp\cc13kgnP.s 			page 30


 1631 097d 01       		.byte	0x1
 1632 097e 51       		.byte	0x51
 1633 097f 03       		.byte	0x3
 1634 0980 0A       		.byte	0xa
 1635 0981 0002     		.2byte	0x200
 1636 0983 21       		.uleb128 0x21
 1637 0984 01       		.byte	0x1
 1638 0985 50       		.byte	0x50
 1639 0986 03       		.byte	0x3
 1640 0987 42       		.byte	0x42
 1641 0988 4A       		.byte	0x4a
 1642 0989 24       		.byte	0x24
 1643 098a 00       		.byte	0
 1644 098b 20       		.uleb128 0x20
 1645 098c 2E000000 		.4byte	.LVL34
 1646 0990 C70A0000 		.4byte	0xac7
 1647 0994 AD090000 		.4byte	0x9ad
 1648 0998 21       		.uleb128 0x21
 1649 0999 01       		.byte	0x1
 1650 099a 52       		.byte	0x52
 1651 099b 02       		.byte	0x2
 1652 099c 08       		.byte	0x8
 1653 099d 82       		.byte	0x82
 1654 099e 21       		.uleb128 0x21
 1655 099f 01       		.byte	0x1
 1656 09a0 51       		.byte	0x51
 1657 09a1 03       		.byte	0x3
 1658 09a2 0A       		.byte	0xa
 1659 09a3 0004     		.2byte	0x400
 1660 09a5 21       		.uleb128 0x21
 1661 09a6 01       		.byte	0x1
 1662 09a7 50       		.byte	0x50
 1663 09a8 03       		.byte	0x3
 1664 09a9 42       		.byte	0x42
 1665 09aa 4A       		.byte	0x4a
 1666 09ab 24       		.byte	0x24
 1667 09ac 00       		.byte	0
 1668 09ad 20       		.uleb128 0x20
 1669 09ae 38000000 		.4byte	.LVL35
 1670 09b2 E60A0000 		.4byte	0xae6
 1671 09b6 C9090000 		.4byte	0x9c9
 1672 09ba 21       		.uleb128 0x21
 1673 09bb 01       		.byte	0x1
 1674 09bc 52       		.byte	0x52
 1675 09bd 05       		.byte	0x5
 1676 09be 03       		.byte	0x3
 1677 09bf 10000000 		.4byte	.LC1
 1678 09c3 21       		.uleb128 0x21
 1679 09c4 01       		.byte	0x1
 1680 09c5 51       		.byte	0x51
 1681 09c6 01       		.byte	0x1
 1682 09c7 3D       		.byte	0x3d
 1683 09c8 00       		.byte	0
 1684 09c9 23       		.uleb128 0x23
 1685 09ca 40000000 		.4byte	.LVL36
 1686 09ce 040B0000 		.4byte	0xb04
 1687 09d2 21       		.uleb128 0x21
ARM GAS  C:\cygwin\tmp\cc13kgnP.s 			page 31


 1688 09d3 01       		.byte	0x1
 1689 09d4 50       		.byte	0x50
 1690 09d5 03       		.byte	0x3
 1691 09d6 0A       		.byte	0xa
 1692 09d7 F401     		.2byte	0x1f4
 1693 09d9 00       		.byte	0
 1694 09da 00       		.byte	0
 1695 09db 24       		.uleb128 0x24
 1696 09dc 76743100 		.ascii	"vt1\000"
 1697 09e0 01       		.byte	0x1
 1698 09e1 18       		.byte	0x18
 1699 09e2 E3000000 		.4byte	0xe3
 1700 09e6 05       		.byte	0x5
 1701 09e7 03       		.byte	0x3
 1702 09e8 00000000 		.4byte	vt1
 1703 09ec 24       		.uleb128 0x24
 1704 09ed 76743200 		.ascii	"vt2\000"
 1705 09f1 01       		.byte	0x1
 1706 09f2 18       		.byte	0x18
 1707 09f3 E3000000 		.4byte	0xe3
 1708 09f7 05       		.byte	0x5
 1709 09f8 03       		.byte	0x3
 1710 09f9 00000000 		.4byte	vt2
 1711 09fd 25       		.uleb128 0x25
 1712 09fe 81020000 		.4byte	.LASF97
 1713 0a02 01       		.byte	0x1
 1714 0a03 67       		.byte	0x67
 1715 0a04 59060000 		.4byte	0x659
 1716 0a08 05       		.byte	0x5
 1717 0a09 03       		.byte	0x3
 1718 0a0a 00000000 		.4byte	uart_cfg_1
 1719 0a0e 26       		.uleb128 0x26
 1720 0a0f 89000000 		.4byte	.LASF98
 1721 0a13 0B       		.byte	0xb
 1722 0a14 9806     		.2byte	0x698
 1723 0a16 53010000 		.4byte	0x153
 1724 0a1a 01       		.byte	0x1
 1725 0a1b 01       		.byte	0x1
 1726 0a1c 26       		.uleb128 0x26
 1727 0a1d FF010000 		.4byte	.LASF99
 1728 0a21 0A       		.byte	0xa
 1729 0a22 B101     		.2byte	0x1b1
 1730 0a24 BD040000 		.4byte	0x4bd
 1731 0a28 01       		.byte	0x1
 1732 0a29 01       		.byte	0x1
 1733 0a2a 27       		.uleb128 0x27
 1734 0a2b 01       		.byte	0x1
 1735 0a2c 59040000 		.4byte	.LASF102
 1736 0a30 0C       		.byte	0xc
 1737 0a31 E2       		.byte	0xe2
 1738 0a32 01       		.byte	0x1
 1739 0a33 01       		.byte	0x1
 1740 0a34 28       		.uleb128 0x28
 1741 0a35 01       		.byte	0x1
 1742 0a36 3B030000 		.4byte	.LASF100
 1743 0a3a 05       		.byte	0x5
 1744 0a3b DB       		.byte	0xdb
ARM GAS  C:\cygwin\tmp\cc13kgnP.s 			page 32


 1745 0a3c 01       		.byte	0x1
 1746 0a3d 01       		.byte	0x1
 1747 0a3e 480A0000 		.4byte	0xa48
 1748 0a42 09       		.uleb128 0x9
 1749 0a43 41010000 		.4byte	0x141
 1750 0a47 00       		.byte	0
 1751 0a48 28       		.uleb128 0x28
 1752 0a49 01       		.byte	0x1
 1753 0a4a 3D020000 		.4byte	.LASF101
 1754 0a4e 05       		.byte	0x5
 1755 0a4f DA       		.byte	0xda
 1756 0a50 01       		.byte	0x1
 1757 0a51 01       		.byte	0x1
 1758 0a52 6B0A0000 		.4byte	0xa6b
 1759 0a56 09       		.uleb128 0x9
 1760 0a57 41010000 		.4byte	0x141
 1761 0a5b 09       		.uleb128 0x9
 1762 0a5c AD000000 		.4byte	0xad
 1763 0a60 09       		.uleb128 0x9
 1764 0a61 C6000000 		.4byte	0xc6
 1765 0a65 09       		.uleb128 0x9
 1766 0a66 B8000000 		.4byte	0xb8
 1767 0a6a 00       		.byte	0
 1768 0a6b 27       		.uleb128 0x27
 1769 0a6c 01       		.byte	0x1
 1770 0a6d DE030000 		.4byte	.LASF103
 1771 0a71 0C       		.byte	0xc
 1772 0a72 E3       		.byte	0xe3
 1773 0a73 01       		.byte	0x1
 1774 0a74 01       		.byte	0x1
 1775 0a75 28       		.uleb128 0x28
 1776 0a76 01       		.byte	0x1
 1777 0a77 0F040000 		.4byte	.LASF104
 1778 0a7b 09       		.byte	0x9
 1779 0a7c 6B       		.byte	0x6b
 1780 0a7d 01       		.byte	0x1
 1781 0a7e 01       		.byte	0x1
 1782 0a7f 930A0000 		.4byte	0xa93
 1783 0a83 09       		.uleb128 0x9
 1784 0a84 7C050000 		.4byte	0x57c
 1785 0a88 09       		.uleb128 0x9
 1786 0a89 30000000 		.4byte	0x30
 1787 0a8d 09       		.uleb128 0x9
 1788 0a8e 930A0000 		.4byte	0xa93
 1789 0a92 00       		.byte	0
 1790 0a93 07       		.uleb128 0x7
 1791 0a94 04       		.byte	0x4
 1792 0a95 990A0000 		.4byte	0xa99
 1793 0a99 29       		.uleb128 0x29
 1794 0a9a 27       		.uleb128 0x27
 1795 0a9b 01       		.byte	0x1
 1796 0a9c AA010000 		.4byte	.LASF105
 1797 0aa0 0D       		.byte	0xd
 1798 0aa1 C9       		.byte	0xc9
 1799 0aa2 01       		.byte	0x1
 1800 0aa3 01       		.byte	0x1
 1801 0aa4 27       		.uleb128 0x27
ARM GAS  C:\cygwin\tmp\cc13kgnP.s 			page 33


 1802 0aa5 01       		.byte	0x1
 1803 0aa6 C4000000 		.4byte	.LASF106
 1804 0aaa 0E       		.byte	0xe
 1805 0aab EF       		.byte	0xef
 1806 0aac 01       		.byte	0x1
 1807 0aad 01       		.byte	0x1
 1808 0aae 28       		.uleb128 0x28
 1809 0aaf 01       		.byte	0x1
 1810 0ab0 46020000 		.4byte	.LASF107
 1811 0ab4 09       		.byte	0x9
 1812 0ab5 68       		.byte	0x68
 1813 0ab6 01       		.byte	0x1
 1814 0ab7 01       		.byte	0x1
 1815 0ab8 C70A0000 		.4byte	0xac7
 1816 0abc 09       		.uleb128 0x9
 1817 0abd 7C050000 		.4byte	0x57c
 1818 0ac1 09       		.uleb128 0x9
 1819 0ac2 65060000 		.4byte	0x665
 1820 0ac6 00       		.byte	0
 1821 0ac7 2A       		.uleb128 0x2a
 1822 0ac8 01       		.byte	0x1
 1823 0ac9 C8030000 		.4byte	.LASF108
 1824 0acd 08       		.byte	0x8
 1825 0ace C001     		.2byte	0x1c0
 1826 0ad0 01       		.byte	0x1
 1827 0ad1 01       		.byte	0x1
 1828 0ad2 E60A0000 		.4byte	0xae6
 1829 0ad6 09       		.uleb128 0x9
 1830 0ad7 23040000 		.4byte	0x423
 1831 0adb 09       		.uleb128 0x9
 1832 0adc 0D040000 		.4byte	0x40d
 1833 0ae0 09       		.uleb128 0x9
 1834 0ae1 18040000 		.4byte	0x418
 1835 0ae5 00       		.byte	0
 1836 0ae6 28       		.uleb128 0x28
 1837 0ae7 01       		.byte	0x1
 1838 0ae8 F8000000 		.4byte	.LASF109
 1839 0aec 09       		.byte	0x9
 1840 0aed 6A       		.byte	0x6a
 1841 0aee 01       		.byte	0x1
 1842 0aef 01       		.byte	0x1
 1843 0af0 040B0000 		.4byte	0xb04
 1844 0af4 09       		.uleb128 0x9
 1845 0af5 7C050000 		.4byte	0x57c
 1846 0af9 09       		.uleb128 0x9
 1847 0afa 30000000 		.4byte	0x30
 1848 0afe 09       		.uleb128 0x9
 1849 0aff 930A0000 		.4byte	0xa93
 1850 0b03 00       		.byte	0
 1851 0b04 2B       		.uleb128 0x2b
 1852 0b05 01       		.byte	0x1
 1853 0b06 0C000000 		.4byte	.LASF114
 1854 0b0a 0F       		.byte	0xf
 1855 0b0b 6E01     		.2byte	0x16e
 1856 0b0d 01       		.byte	0x1
 1857 0b0e 01       		.byte	0x1
 1858 0b0f 09       		.uleb128 0x9
ARM GAS  C:\cygwin\tmp\cc13kgnP.s 			page 34


 1859 0b10 AD000000 		.4byte	0xad
 1860 0b14 00       		.byte	0
 1861 0b15 00       		.byte	0
 1862              		.section	.debug_abbrev,"",%progbits
 1863              	.Ldebug_abbrev0:
 1864 0000 01       		.uleb128 0x1
 1865 0001 11       		.uleb128 0x11
 1866 0002 01       		.byte	0x1
 1867 0003 25       		.uleb128 0x25
 1868 0004 0E       		.uleb128 0xe
 1869 0005 13       		.uleb128 0x13
 1870 0006 0B       		.uleb128 0xb
 1871 0007 03       		.uleb128 0x3
 1872 0008 0E       		.uleb128 0xe
 1873 0009 1B       		.uleb128 0x1b
 1874 000a 0E       		.uleb128 0xe
 1875 000b 55       		.uleb128 0x55
 1876 000c 06       		.uleb128 0x6
 1877 000d 11       		.uleb128 0x11
 1878 000e 01       		.uleb128 0x1
 1879 000f 52       		.uleb128 0x52
 1880 0010 01       		.uleb128 0x1
 1881 0011 10       		.uleb128 0x10
 1882 0012 06       		.uleb128 0x6
 1883 0013 00       		.byte	0
 1884 0014 00       		.byte	0
 1885 0015 02       		.uleb128 0x2
 1886 0016 24       		.uleb128 0x24
 1887 0017 00       		.byte	0
 1888 0018 0B       		.uleb128 0xb
 1889 0019 0B       		.uleb128 0xb
 1890 001a 3E       		.uleb128 0x3e
 1891 001b 0B       		.uleb128 0xb
 1892 001c 03       		.uleb128 0x3
 1893 001d 08       		.uleb128 0x8
 1894 001e 00       		.byte	0
 1895 001f 00       		.byte	0
 1896 0020 03       		.uleb128 0x3
 1897 0021 16       		.uleb128 0x16
 1898 0022 00       		.byte	0
 1899 0023 03       		.uleb128 0x3
 1900 0024 0E       		.uleb128 0xe
 1901 0025 3A       		.uleb128 0x3a
 1902 0026 0B       		.uleb128 0xb
 1903 0027 3B       		.uleb128 0x3b
 1904 0028 0B       		.uleb128 0xb
 1905 0029 49       		.uleb128 0x49
 1906 002a 13       		.uleb128 0x13
 1907 002b 00       		.byte	0
 1908 002c 00       		.byte	0
 1909 002d 04       		.uleb128 0x4
 1910 002e 24       		.uleb128 0x24
 1911 002f 00       		.byte	0
 1912 0030 0B       		.uleb128 0xb
 1913 0031 0B       		.uleb128 0xb
 1914 0032 3E       		.uleb128 0x3e
 1915 0033 0B       		.uleb128 0xb
ARM GAS  C:\cygwin\tmp\cc13kgnP.s 			page 35


 1916 0034 03       		.uleb128 0x3
 1917 0035 0E       		.uleb128 0xe
 1918 0036 00       		.byte	0
 1919 0037 00       		.byte	0
 1920 0038 05       		.uleb128 0x5
 1921 0039 0F       		.uleb128 0xf
 1922 003a 00       		.byte	0
 1923 003b 0B       		.uleb128 0xb
 1924 003c 0B       		.uleb128 0xb
 1925 003d 00       		.byte	0
 1926 003e 00       		.byte	0
 1927 003f 06       		.uleb128 0x6
 1928 0040 35       		.uleb128 0x35
 1929 0041 00       		.byte	0
 1930 0042 49       		.uleb128 0x49
 1931 0043 13       		.uleb128 0x13
 1932 0044 00       		.byte	0
 1933 0045 00       		.byte	0
 1934 0046 07       		.uleb128 0x7
 1935 0047 0F       		.uleb128 0xf
 1936 0048 00       		.byte	0
 1937 0049 0B       		.uleb128 0xb
 1938 004a 0B       		.uleb128 0xb
 1939 004b 49       		.uleb128 0x49
 1940 004c 13       		.uleb128 0x13
 1941 004d 00       		.byte	0
 1942 004e 00       		.byte	0
 1943 004f 08       		.uleb128 0x8
 1944 0050 15       		.uleb128 0x15
 1945 0051 01       		.byte	0x1
 1946 0052 27       		.uleb128 0x27
 1947 0053 0C       		.uleb128 0xc
 1948 0054 01       		.uleb128 0x1
 1949 0055 13       		.uleb128 0x13
 1950 0056 00       		.byte	0
 1951 0057 00       		.byte	0
 1952 0058 09       		.uleb128 0x9
 1953 0059 05       		.uleb128 0x5
 1954 005a 00       		.byte	0
 1955 005b 49       		.uleb128 0x49
 1956 005c 13       		.uleb128 0x13
 1957 005d 00       		.byte	0
 1958 005e 00       		.byte	0
 1959 005f 0A       		.uleb128 0xa
 1960 0060 13       		.uleb128 0x13
 1961 0061 01       		.byte	0x1
 1962 0062 03       		.uleb128 0x3
 1963 0063 0E       		.uleb128 0xe
 1964 0064 0B       		.uleb128 0xb
 1965 0065 0B       		.uleb128 0xb
 1966 0066 3A       		.uleb128 0x3a
 1967 0067 0B       		.uleb128 0xb
 1968 0068 3B       		.uleb128 0x3b
 1969 0069 0B       		.uleb128 0xb
 1970 006a 01       		.uleb128 0x1
 1971 006b 13       		.uleb128 0x13
 1972 006c 00       		.byte	0
ARM GAS  C:\cygwin\tmp\cc13kgnP.s 			page 36


 1973 006d 00       		.byte	0
 1974 006e 0B       		.uleb128 0xb
 1975 006f 0D       		.uleb128 0xd
 1976 0070 00       		.byte	0
 1977 0071 03       		.uleb128 0x3
 1978 0072 0E       		.uleb128 0xe
 1979 0073 3A       		.uleb128 0x3a
 1980 0074 0B       		.uleb128 0xb
 1981 0075 3B       		.uleb128 0x3b
 1982 0076 0B       		.uleb128 0xb
 1983 0077 49       		.uleb128 0x49
 1984 0078 13       		.uleb128 0x13
 1985 0079 38       		.uleb128 0x38
 1986 007a 0A       		.uleb128 0xa
 1987 007b 00       		.byte	0
 1988 007c 00       		.byte	0
 1989 007d 0C       		.uleb128 0xc
 1990 007e 13       		.uleb128 0x13
 1991 007f 01       		.byte	0x1
 1992 0080 0B       		.uleb128 0xb
 1993 0081 0B       		.uleb128 0xb
 1994 0082 3A       		.uleb128 0x3a
 1995 0083 0B       		.uleb128 0xb
 1996 0084 3B       		.uleb128 0x3b
 1997 0085 05       		.uleb128 0x5
 1998 0086 01       		.uleb128 0x1
 1999 0087 13       		.uleb128 0x13
 2000 0088 00       		.byte	0
 2001 0089 00       		.byte	0
 2002 008a 0D       		.uleb128 0xd
 2003 008b 0D       		.uleb128 0xd
 2004 008c 00       		.byte	0
 2005 008d 03       		.uleb128 0x3
 2006 008e 08       		.uleb128 0x8
 2007 008f 3A       		.uleb128 0x3a
 2008 0090 0B       		.uleb128 0xb
 2009 0091 3B       		.uleb128 0x3b
 2010 0092 05       		.uleb128 0x5
 2011 0093 49       		.uleb128 0x49
 2012 0094 13       		.uleb128 0x13
 2013 0095 38       		.uleb128 0x38
 2014 0096 0A       		.uleb128 0xa
 2015 0097 00       		.byte	0
 2016 0098 00       		.byte	0
 2017 0099 0E       		.uleb128 0xe
 2018 009a 0D       		.uleb128 0xd
 2019 009b 00       		.byte	0
 2020 009c 03       		.uleb128 0x3
 2021 009d 0E       		.uleb128 0xe
 2022 009e 3A       		.uleb128 0x3a
 2023 009f 0B       		.uleb128 0xb
 2024 00a0 3B       		.uleb128 0x3b
 2025 00a1 05       		.uleb128 0x5
 2026 00a2 49       		.uleb128 0x49
 2027 00a3 13       		.uleb128 0x13
 2028 00a4 38       		.uleb128 0x38
 2029 00a5 0A       		.uleb128 0xa
ARM GAS  C:\cygwin\tmp\cc13kgnP.s 			page 37


 2030 00a6 00       		.byte	0
 2031 00a7 00       		.byte	0
 2032 00a8 0F       		.uleb128 0xf
 2033 00a9 16       		.uleb128 0x16
 2034 00aa 00       		.byte	0
 2035 00ab 03       		.uleb128 0x3
 2036 00ac 0E       		.uleb128 0xe
 2037 00ad 3A       		.uleb128 0x3a
 2038 00ae 0B       		.uleb128 0xb
 2039 00af 3B       		.uleb128 0x3b
 2040 00b0 05       		.uleb128 0x5
 2041 00b1 49       		.uleb128 0x49
 2042 00b2 13       		.uleb128 0x13
 2043 00b3 00       		.byte	0
 2044 00b4 00       		.byte	0
 2045 00b5 10       		.uleb128 0x10
 2046 00b6 17       		.uleb128 0x17
 2047 00b7 01       		.byte	0x1
 2048 00b8 0B       		.uleb128 0xb
 2049 00b9 0B       		.uleb128 0xb
 2050 00ba 3A       		.uleb128 0x3a
 2051 00bb 0B       		.uleb128 0xb
 2052 00bc 3B       		.uleb128 0x3b
 2053 00bd 05       		.uleb128 0x5
 2054 00be 01       		.uleb128 0x1
 2055 00bf 13       		.uleb128 0x13
 2056 00c0 00       		.byte	0
 2057 00c1 00       		.byte	0
 2058 00c2 11       		.uleb128 0x11
 2059 00c3 0D       		.uleb128 0xd
 2060 00c4 00       		.byte	0
 2061 00c5 03       		.uleb128 0x3
 2062 00c6 08       		.uleb128 0x8
 2063 00c7 3A       		.uleb128 0x3a
 2064 00c8 0B       		.uleb128 0xb
 2065 00c9 3B       		.uleb128 0x3b
 2066 00ca 05       		.uleb128 0x5
 2067 00cb 49       		.uleb128 0x49
 2068 00cc 13       		.uleb128 0x13
 2069 00cd 00       		.byte	0
 2070 00ce 00       		.byte	0
 2071 00cf 12       		.uleb128 0x12
 2072 00d0 13       		.uleb128 0x13
 2073 00d1 01       		.byte	0x1
 2074 00d2 0B       		.uleb128 0xb
 2075 00d3 0B       		.uleb128 0xb
 2076 00d4 3A       		.uleb128 0x3a
 2077 00d5 0B       		.uleb128 0xb
 2078 00d6 3B       		.uleb128 0x3b
 2079 00d7 0B       		.uleb128 0xb
 2080 00d8 01       		.uleb128 0x1
 2081 00d9 13       		.uleb128 0x13
 2082 00da 00       		.byte	0
 2083 00db 00       		.byte	0
 2084 00dc 13       		.uleb128 0x13
 2085 00dd 26       		.uleb128 0x26
 2086 00de 00       		.byte	0
ARM GAS  C:\cygwin\tmp\cc13kgnP.s 			page 38


 2087 00df 49       		.uleb128 0x49
 2088 00e0 13       		.uleb128 0x13
 2089 00e1 00       		.byte	0
 2090 00e2 00       		.byte	0
 2091 00e3 14       		.uleb128 0x14
 2092 00e4 04       		.uleb128 0x4
 2093 00e5 01       		.byte	0x1
 2094 00e6 0B       		.uleb128 0xb
 2095 00e7 0B       		.uleb128 0xb
 2096 00e8 3A       		.uleb128 0x3a
 2097 00e9 0B       		.uleb128 0xb
 2098 00ea 3B       		.uleb128 0x3b
 2099 00eb 0B       		.uleb128 0xb
 2100 00ec 01       		.uleb128 0x1
 2101 00ed 13       		.uleb128 0x13
 2102 00ee 00       		.byte	0
 2103 00ef 00       		.byte	0
 2104 00f0 15       		.uleb128 0x15
 2105 00f1 28       		.uleb128 0x28
 2106 00f2 00       		.byte	0
 2107 00f3 03       		.uleb128 0x3
 2108 00f4 0E       		.uleb128 0xe
 2109 00f5 1C       		.uleb128 0x1c
 2110 00f6 0D       		.uleb128 0xd
 2111 00f7 00       		.byte	0
 2112 00f8 00       		.byte	0
 2113 00f9 16       		.uleb128 0x16
 2114 00fa 13       		.uleb128 0x13
 2115 00fb 01       		.byte	0x1
 2116 00fc 03       		.uleb128 0x3
 2117 00fd 0E       		.uleb128 0xe
 2118 00fe 0B       		.uleb128 0xb
 2119 00ff 0B       		.uleb128 0xb
 2120 0100 3A       		.uleb128 0x3a
 2121 0101 0B       		.uleb128 0xb
 2122 0102 3B       		.uleb128 0x3b
 2123 0103 05       		.uleb128 0x5
 2124 0104 01       		.uleb128 0x1
 2125 0105 13       		.uleb128 0x13
 2126 0106 00       		.byte	0
 2127 0107 00       		.byte	0
 2128 0108 17       		.uleb128 0x17
 2129 0109 2E       		.uleb128 0x2e
 2130 010a 01       		.byte	0x1
 2131 010b 03       		.uleb128 0x3
 2132 010c 0E       		.uleb128 0xe
 2133 010d 3A       		.uleb128 0x3a
 2134 010e 0B       		.uleb128 0xb
 2135 010f 3B       		.uleb128 0x3b
 2136 0110 0B       		.uleb128 0xb
 2137 0111 27       		.uleb128 0x27
 2138 0112 0C       		.uleb128 0xc
 2139 0113 11       		.uleb128 0x11
 2140 0114 01       		.uleb128 0x1
 2141 0115 12       		.uleb128 0x12
 2142 0116 01       		.uleb128 0x1
 2143 0117 40       		.uleb128 0x40
ARM GAS  C:\cygwin\tmp\cc13kgnP.s 			page 39


 2144 0118 0A       		.uleb128 0xa
 2145 0119 9742     		.uleb128 0x2117
 2146 011b 0C       		.uleb128 0xc
 2147 011c 01       		.uleb128 0x1
 2148 011d 13       		.uleb128 0x13
 2149 011e 00       		.byte	0
 2150 011f 00       		.byte	0
 2151 0120 18       		.uleb128 0x18
 2152 0121 05       		.uleb128 0x5
 2153 0122 00       		.byte	0
 2154 0123 03       		.uleb128 0x3
 2155 0124 08       		.uleb128 0x8
 2156 0125 3A       		.uleb128 0x3a
 2157 0126 0B       		.uleb128 0xb
 2158 0127 3B       		.uleb128 0x3b
 2159 0128 0B       		.uleb128 0xb
 2160 0129 49       		.uleb128 0x49
 2161 012a 13       		.uleb128 0x13
 2162 012b 02       		.uleb128 0x2
 2163 012c 0A       		.uleb128 0xa
 2164 012d 00       		.byte	0
 2165 012e 00       		.byte	0
 2166 012f 19       		.uleb128 0x19
 2167 0130 05       		.uleb128 0x5
 2168 0131 00       		.byte	0
 2169 0132 03       		.uleb128 0x3
 2170 0133 0E       		.uleb128 0xe
 2171 0134 3A       		.uleb128 0x3a
 2172 0135 0B       		.uleb128 0xb
 2173 0136 3B       		.uleb128 0x3b
 2174 0137 0B       		.uleb128 0xb
 2175 0138 49       		.uleb128 0x49
 2176 0139 13       		.uleb128 0x13
 2177 013a 02       		.uleb128 0x2
 2178 013b 0A       		.uleb128 0xa
 2179 013c 00       		.byte	0
 2180 013d 00       		.byte	0
 2181 013e 1A       		.uleb128 0x1a
 2182 013f 2E       		.uleb128 0x2e
 2183 0140 01       		.byte	0x1
 2184 0141 03       		.uleb128 0x3
 2185 0142 0E       		.uleb128 0xe
 2186 0143 3A       		.uleb128 0x3a
 2187 0144 0B       		.uleb128 0xb
 2188 0145 3B       		.uleb128 0x3b
 2189 0146 0B       		.uleb128 0xb
 2190 0147 27       		.uleb128 0x27
 2191 0148 0C       		.uleb128 0xc
 2192 0149 11       		.uleb128 0x11
 2193 014a 01       		.uleb128 0x1
 2194 014b 12       		.uleb128 0x12
 2195 014c 01       		.uleb128 0x1
 2196 014d 40       		.uleb128 0x40
 2197 014e 06       		.uleb128 0x6
 2198 014f 9742     		.uleb128 0x2117
 2199 0151 0C       		.uleb128 0xc
 2200 0152 01       		.uleb128 0x1
ARM GAS  C:\cygwin\tmp\cc13kgnP.s 			page 40


 2201 0153 13       		.uleb128 0x13
 2202 0154 00       		.byte	0
 2203 0155 00       		.byte	0
 2204 0156 1B       		.uleb128 0x1b
 2205 0157 05       		.uleb128 0x5
 2206 0158 00       		.byte	0
 2207 0159 03       		.uleb128 0x3
 2208 015a 0E       		.uleb128 0xe
 2209 015b 3A       		.uleb128 0x3a
 2210 015c 0B       		.uleb128 0xb
 2211 015d 3B       		.uleb128 0x3b
 2212 015e 0B       		.uleb128 0xb
 2213 015f 49       		.uleb128 0x49
 2214 0160 13       		.uleb128 0x13
 2215 0161 02       		.uleb128 0x2
 2216 0162 06       		.uleb128 0x6
 2217 0163 00       		.byte	0
 2218 0164 00       		.byte	0
 2219 0165 1C       		.uleb128 0x1c
 2220 0166 05       		.uleb128 0x5
 2221 0167 00       		.byte	0
 2222 0168 03       		.uleb128 0x3
 2223 0169 08       		.uleb128 0x8
 2224 016a 3A       		.uleb128 0x3a
 2225 016b 0B       		.uleb128 0xb
 2226 016c 3B       		.uleb128 0x3b
 2227 016d 0B       		.uleb128 0xb
 2228 016e 49       		.uleb128 0x49
 2229 016f 13       		.uleb128 0x13
 2230 0170 02       		.uleb128 0x2
 2231 0171 06       		.uleb128 0x6
 2232 0172 00       		.byte	0
 2233 0173 00       		.byte	0
 2234 0174 1D       		.uleb128 0x1d
 2235 0175 0B       		.uleb128 0xb
 2236 0176 01       		.byte	0x1
 2237 0177 11       		.uleb128 0x11
 2238 0178 01       		.uleb128 0x1
 2239 0179 12       		.uleb128 0x12
 2240 017a 01       		.uleb128 0x1
 2241 017b 01       		.uleb128 0x1
 2242 017c 13       		.uleb128 0x13
 2243 017d 00       		.byte	0
 2244 017e 00       		.byte	0
 2245 017f 1E       		.uleb128 0x1e
 2246 0180 34       		.uleb128 0x34
 2247 0181 00       		.byte	0
 2248 0182 03       		.uleb128 0x3
 2249 0183 08       		.uleb128 0x8
 2250 0184 3A       		.uleb128 0x3a
 2251 0185 0B       		.uleb128 0xb
 2252 0186 3B       		.uleb128 0x3b
 2253 0187 0B       		.uleb128 0xb
 2254 0188 49       		.uleb128 0x49
 2255 0189 13       		.uleb128 0x13
 2256 018a 02       		.uleb128 0x2
 2257 018b 06       		.uleb128 0x6
ARM GAS  C:\cygwin\tmp\cc13kgnP.s 			page 41


 2258 018c 00       		.byte	0
 2259 018d 00       		.byte	0
 2260 018e 1F       		.uleb128 0x1f
 2261 018f 898201   		.uleb128 0x4109
 2262 0192 00       		.byte	0
 2263 0193 11       		.uleb128 0x11
 2264 0194 01       		.uleb128 0x1
 2265 0195 31       		.uleb128 0x31
 2266 0196 13       		.uleb128 0x13
 2267 0197 00       		.byte	0
 2268 0198 00       		.byte	0
 2269 0199 20       		.uleb128 0x20
 2270 019a 898201   		.uleb128 0x4109
 2271 019d 01       		.byte	0x1
 2272 019e 11       		.uleb128 0x11
 2273 019f 01       		.uleb128 0x1
 2274 01a0 31       		.uleb128 0x31
 2275 01a1 13       		.uleb128 0x13
 2276 01a2 01       		.uleb128 0x1
 2277 01a3 13       		.uleb128 0x13
 2278 01a4 00       		.byte	0
 2279 01a5 00       		.byte	0
 2280 01a6 21       		.uleb128 0x21
 2281 01a7 8A8201   		.uleb128 0x410a
 2282 01aa 00       		.byte	0
 2283 01ab 02       		.uleb128 0x2
 2284 01ac 0A       		.uleb128 0xa
 2285 01ad 9142     		.uleb128 0x2111
 2286 01af 0A       		.uleb128 0xa
 2287 01b0 00       		.byte	0
 2288 01b1 00       		.byte	0
 2289 01b2 22       		.uleb128 0x22
 2290 01b3 2E       		.uleb128 0x2e
 2291 01b4 01       		.byte	0x1
 2292 01b5 3F       		.uleb128 0x3f
 2293 01b6 0C       		.uleb128 0xc
 2294 01b7 03       		.uleb128 0x3
 2295 01b8 0E       		.uleb128 0xe
 2296 01b9 3A       		.uleb128 0x3a
 2297 01ba 0B       		.uleb128 0xb
 2298 01bb 3B       		.uleb128 0x3b
 2299 01bc 0B       		.uleb128 0xb
 2300 01bd 27       		.uleb128 0x27
 2301 01be 0C       		.uleb128 0xc
 2302 01bf 49       		.uleb128 0x49
 2303 01c0 13       		.uleb128 0x13
 2304 01c1 11       		.uleb128 0x11
 2305 01c2 01       		.uleb128 0x1
 2306 01c3 12       		.uleb128 0x12
 2307 01c4 01       		.uleb128 0x1
 2308 01c5 40       		.uleb128 0x40
 2309 01c6 06       		.uleb128 0x6
 2310 01c7 9742     		.uleb128 0x2117
 2311 01c9 0C       		.uleb128 0xc
 2312 01ca 01       		.uleb128 0x1
 2313 01cb 13       		.uleb128 0x13
 2314 01cc 00       		.byte	0
ARM GAS  C:\cygwin\tmp\cc13kgnP.s 			page 42


 2315 01cd 00       		.byte	0
 2316 01ce 23       		.uleb128 0x23
 2317 01cf 898201   		.uleb128 0x4109
 2318 01d2 01       		.byte	0x1
 2319 01d3 11       		.uleb128 0x11
 2320 01d4 01       		.uleb128 0x1
 2321 01d5 31       		.uleb128 0x31
 2322 01d6 13       		.uleb128 0x13
 2323 01d7 00       		.byte	0
 2324 01d8 00       		.byte	0
 2325 01d9 24       		.uleb128 0x24
 2326 01da 34       		.uleb128 0x34
 2327 01db 00       		.byte	0
 2328 01dc 03       		.uleb128 0x3
 2329 01dd 08       		.uleb128 0x8
 2330 01de 3A       		.uleb128 0x3a
 2331 01df 0B       		.uleb128 0xb
 2332 01e0 3B       		.uleb128 0x3b
 2333 01e1 0B       		.uleb128 0xb
 2334 01e2 49       		.uleb128 0x49
 2335 01e3 13       		.uleb128 0x13
 2336 01e4 02       		.uleb128 0x2
 2337 01e5 0A       		.uleb128 0xa
 2338 01e6 00       		.byte	0
 2339 01e7 00       		.byte	0
 2340 01e8 25       		.uleb128 0x25
 2341 01e9 34       		.uleb128 0x34
 2342 01ea 00       		.byte	0
 2343 01eb 03       		.uleb128 0x3
 2344 01ec 0E       		.uleb128 0xe
 2345 01ed 3A       		.uleb128 0x3a
 2346 01ee 0B       		.uleb128 0xb
 2347 01ef 3B       		.uleb128 0x3b
 2348 01f0 0B       		.uleb128 0xb
 2349 01f1 49       		.uleb128 0x49
 2350 01f2 13       		.uleb128 0x13
 2351 01f3 02       		.uleb128 0x2
 2352 01f4 0A       		.uleb128 0xa
 2353 01f5 00       		.byte	0
 2354 01f6 00       		.byte	0
 2355 01f7 26       		.uleb128 0x26
 2356 01f8 34       		.uleb128 0x34
 2357 01f9 00       		.byte	0
 2358 01fa 03       		.uleb128 0x3
 2359 01fb 0E       		.uleb128 0xe
 2360 01fc 3A       		.uleb128 0x3a
 2361 01fd 0B       		.uleb128 0xb
 2362 01fe 3B       		.uleb128 0x3b
 2363 01ff 05       		.uleb128 0x5
 2364 0200 49       		.uleb128 0x49
 2365 0201 13       		.uleb128 0x13
 2366 0202 3F       		.uleb128 0x3f
 2367 0203 0C       		.uleb128 0xc
 2368 0204 3C       		.uleb128 0x3c
 2369 0205 0C       		.uleb128 0xc
 2370 0206 00       		.byte	0
 2371 0207 00       		.byte	0
ARM GAS  C:\cygwin\tmp\cc13kgnP.s 			page 43


 2372 0208 27       		.uleb128 0x27
 2373 0209 2E       		.uleb128 0x2e
 2374 020a 00       		.byte	0
 2375 020b 3F       		.uleb128 0x3f
 2376 020c 0C       		.uleb128 0xc
 2377 020d 03       		.uleb128 0x3
 2378 020e 0E       		.uleb128 0xe
 2379 020f 3A       		.uleb128 0x3a
 2380 0210 0B       		.uleb128 0xb
 2381 0211 3B       		.uleb128 0x3b
 2382 0212 0B       		.uleb128 0xb
 2383 0213 27       		.uleb128 0x27
 2384 0214 0C       		.uleb128 0xc
 2385 0215 3C       		.uleb128 0x3c
 2386 0216 0C       		.uleb128 0xc
 2387 0217 00       		.byte	0
 2388 0218 00       		.byte	0
 2389 0219 28       		.uleb128 0x28
 2390 021a 2E       		.uleb128 0x2e
 2391 021b 01       		.byte	0x1
 2392 021c 3F       		.uleb128 0x3f
 2393 021d 0C       		.uleb128 0xc
 2394 021e 03       		.uleb128 0x3
 2395 021f 0E       		.uleb128 0xe
 2396 0220 3A       		.uleb128 0x3a
 2397 0221 0B       		.uleb128 0xb
 2398 0222 3B       		.uleb128 0x3b
 2399 0223 0B       		.uleb128 0xb
 2400 0224 27       		.uleb128 0x27
 2401 0225 0C       		.uleb128 0xc
 2402 0226 3C       		.uleb128 0x3c
 2403 0227 0C       		.uleb128 0xc
 2404 0228 01       		.uleb128 0x1
 2405 0229 13       		.uleb128 0x13
 2406 022a 00       		.byte	0
 2407 022b 00       		.byte	0
 2408 022c 29       		.uleb128 0x29
 2409 022d 26       		.uleb128 0x26
 2410 022e 00       		.byte	0
 2411 022f 00       		.byte	0
 2412 0230 00       		.byte	0
 2413 0231 2A       		.uleb128 0x2a
 2414 0232 2E       		.uleb128 0x2e
 2415 0233 01       		.byte	0x1
 2416 0234 3F       		.uleb128 0x3f
 2417 0235 0C       		.uleb128 0xc
 2418 0236 03       		.uleb128 0x3
 2419 0237 0E       		.uleb128 0xe
 2420 0238 3A       		.uleb128 0x3a
 2421 0239 0B       		.uleb128 0xb
 2422 023a 3B       		.uleb128 0x3b
 2423 023b 05       		.uleb128 0x5
 2424 023c 27       		.uleb128 0x27
 2425 023d 0C       		.uleb128 0xc
 2426 023e 3C       		.uleb128 0x3c
 2427 023f 0C       		.uleb128 0xc
 2428 0240 01       		.uleb128 0x1
ARM GAS  C:\cygwin\tmp\cc13kgnP.s 			page 44


 2429 0241 13       		.uleb128 0x13
 2430 0242 00       		.byte	0
 2431 0243 00       		.byte	0
 2432 0244 2B       		.uleb128 0x2b
 2433 0245 2E       		.uleb128 0x2e
 2434 0246 01       		.byte	0x1
 2435 0247 3F       		.uleb128 0x3f
 2436 0248 0C       		.uleb128 0xc
 2437 0249 03       		.uleb128 0x3
 2438 024a 0E       		.uleb128 0xe
 2439 024b 3A       		.uleb128 0x3a
 2440 024c 0B       		.uleb128 0xb
 2441 024d 3B       		.uleb128 0x3b
 2442 024e 05       		.uleb128 0x5
 2443 024f 27       		.uleb128 0x27
 2444 0250 0C       		.uleb128 0xc
 2445 0251 3C       		.uleb128 0x3c
 2446 0252 0C       		.uleb128 0xc
 2447 0253 00       		.byte	0
 2448 0254 00       		.byte	0
 2449 0255 00       		.byte	0
 2450              		.section	.debug_loc,"",%progbits
 2451              	.Ldebug_loc0:
 2452              	.LLST0:
 2453 0000 00000000 		.4byte	.LFB123
 2454 0004 02000000 		.4byte	.LCFI0
 2455 0008 0200     		.2byte	0x2
 2456 000a 7D       		.byte	0x7d
 2457 000b 00       		.sleb128 0
 2458 000c 02000000 		.4byte	.LCFI0
 2459 0010 44000000 		.4byte	.LFE123
 2460 0014 0200     		.2byte	0x2
 2461 0016 7D       		.byte	0x7d
 2462 0017 08       		.sleb128 8
 2463 0018 00000000 		.4byte	0
 2464 001c 00000000 		.4byte	0
 2465              	.LLST1:
 2466 0020 00000000 		.4byte	.LVL4
 2467 0024 19000000 		.4byte	.LVL7-1
 2468 0028 0100     		.2byte	0x1
 2469 002a 50       		.byte	0x50
 2470 002b 19000000 		.4byte	.LVL7-1
 2471 002f 44000000 		.4byte	.LFE123
 2472 0033 0400     		.2byte	0x4
 2473 0035 F3       		.byte	0xf3
 2474 0036 01       		.uleb128 0x1
 2475 0037 50       		.byte	0x50
 2476 0038 9F       		.byte	0x9f
 2477 0039 00000000 		.4byte	0
 2478 003d 00000000 		.4byte	0
 2479              	.LLST2:
 2480 0041 00000000 		.4byte	.LVL4
 2481 0045 19000000 		.4byte	.LVL7-1
 2482 0049 0100     		.2byte	0x1
 2483 004b 51       		.byte	0x51
 2484 004c 19000000 		.4byte	.LVL7-1
 2485 0050 44000000 		.4byte	.LFE123
ARM GAS  C:\cygwin\tmp\cc13kgnP.s 			page 45


 2486 0054 0400     		.2byte	0x4
 2487 0056 F3       		.byte	0xf3
 2488 0057 01       		.uleb128 0x1
 2489 0058 51       		.byte	0x51
 2490 0059 9F       		.byte	0x9f
 2491 005a 00000000 		.4byte	0
 2492 005e 00000000 		.4byte	0
 2493              	.LLST3:
 2494 0062 16000000 		.4byte	.LVL6
 2495 0066 19000000 		.4byte	.LVL7-1
 2496 006a 0100     		.2byte	0x1
 2497 006c 53       		.byte	0x53
 2498 006d 00000000 		.4byte	0
 2499 0071 00000000 		.4byte	0
 2500              	.LLST4:
 2501 0075 3A000000 		.4byte	.LVL12
 2502 0079 44000000 		.4byte	.LFE123
 2503 007d 0100     		.2byte	0x1
 2504 007f 53       		.byte	0x53
 2505 0080 00000000 		.4byte	0
 2506 0084 00000000 		.4byte	0
 2507              	.LLST5:
 2508 0088 00000000 		.4byte	.LFB121
 2509 008c 02000000 		.4byte	.LCFI1
 2510 0090 0200     		.2byte	0x2
 2511 0092 7D       		.byte	0x7d
 2512 0093 00       		.sleb128 0
 2513 0094 02000000 		.4byte	.LCFI1
 2514 0098 48000000 		.4byte	.LFE121
 2515 009c 0200     		.2byte	0x2
 2516 009e 7D       		.byte	0x7d
 2517 009f 08       		.sleb128 8
 2518 00a0 00000000 		.4byte	0
 2519 00a4 00000000 		.4byte	0
 2520              	.LLST6:
 2521 00a8 00000000 		.4byte	.LVL13
 2522 00ac 19000000 		.4byte	.LVL16-1
 2523 00b0 0100     		.2byte	0x1
 2524 00b2 50       		.byte	0x50
 2525 00b3 19000000 		.4byte	.LVL16-1
 2526 00b7 48000000 		.4byte	.LFE121
 2527 00bb 0400     		.2byte	0x4
 2528 00bd F3       		.byte	0xf3
 2529 00be 01       		.uleb128 0x1
 2530 00bf 50       		.byte	0x50
 2531 00c0 9F       		.byte	0x9f
 2532 00c1 00000000 		.4byte	0
 2533 00c5 00000000 		.4byte	0
 2534              	.LLST7:
 2535 00c9 16000000 		.4byte	.LVL15
 2536 00cd 19000000 		.4byte	.LVL16-1
 2537 00d1 0100     		.2byte	0x1
 2538 00d3 53       		.byte	0x53
 2539 00d4 00000000 		.4byte	0
 2540 00d8 00000000 		.4byte	0
 2541              	.LLST8:
 2542 00dc 3C000000 		.4byte	.LVL21
ARM GAS  C:\cygwin\tmp\cc13kgnP.s 			page 46


 2543 00e0 48000000 		.4byte	.LFE121
 2544 00e4 0100     		.2byte	0x1
 2545 00e6 53       		.byte	0x53
 2546 00e7 00000000 		.4byte	0
 2547 00eb 00000000 		.4byte	0
 2548              	.LLST9:
 2549 00ef 00000000 		.4byte	.LFB118
 2550 00f3 02000000 		.4byte	.LCFI2
 2551 00f7 0200     		.2byte	0x2
 2552 00f9 7D       		.byte	0x7d
 2553 00fa 00       		.sleb128 0
 2554 00fb 02000000 		.4byte	.LCFI2
 2555 00ff 2E000000 		.4byte	.LFE118
 2556 0103 0200     		.2byte	0x2
 2557 0105 7D       		.byte	0x7d
 2558 0106 08       		.sleb128 8
 2559 0107 00000000 		.4byte	0
 2560 010b 00000000 		.4byte	0
 2561              	.LLST10:
 2562 010f 00000000 		.4byte	.LVL22
 2563 0113 0B000000 		.4byte	.LVL25-1
 2564 0117 0100     		.2byte	0x1
 2565 0119 50       		.byte	0x50
 2566 011a 0B000000 		.4byte	.LVL25-1
 2567 011e 2E000000 		.4byte	.LFE118
 2568 0122 0400     		.2byte	0x4
 2569 0124 F3       		.byte	0xf3
 2570 0125 01       		.uleb128 0x1
 2571 0126 50       		.byte	0x50
 2572 0127 9F       		.byte	0x9f
 2573 0128 00000000 		.4byte	0
 2574 012c 00000000 		.4byte	0
 2575              	.LLST11:
 2576 0130 08000000 		.4byte	.LVL24
 2577 0134 0B000000 		.4byte	.LVL25-1
 2578 0138 0100     		.2byte	0x1
 2579 013a 53       		.byte	0x53
 2580 013b 00000000 		.4byte	0
 2581 013f 00000000 		.4byte	0
 2582              	.LLST12:
 2583 0143 2C000000 		.4byte	.LVL29
 2584 0147 2E000000 		.4byte	.LFE118
 2585 014b 0100     		.2byte	0x1
 2586 014d 53       		.byte	0x53
 2587 014e 00000000 		.4byte	0
 2588 0152 00000000 		.4byte	0
 2589              	.LLST13:
 2590 0156 00000000 		.4byte	.LFB125
 2591 015a 02000000 		.4byte	.LCFI3
 2592 015e 0200     		.2byte	0x2
 2593 0160 7D       		.byte	0x7d
 2594 0161 00       		.sleb128 0
 2595 0162 02000000 		.4byte	.LCFI3
 2596 0166 50000000 		.4byte	.LFE125
 2597 016a 0200     		.2byte	0x2
 2598 016c 7D       		.byte	0x7d
 2599 016d 08       		.sleb128 8
ARM GAS  C:\cygwin\tmp\cc13kgnP.s 			page 47


 2600 016e 00000000 		.4byte	0
 2601 0172 00000000 		.4byte	0
 2602              		.section	.debug_aranges,"",%progbits
 2603 0000 54000000 		.4byte	0x54
 2604 0004 0200     		.2byte	0x2
 2605 0006 00000000 		.4byte	.Ldebug_info0
 2606 000a 04       		.byte	0x4
 2607 000b 00       		.byte	0
 2608 000c 0000     		.2byte	0
 2609 000e 0000     		.2byte	0
 2610 0010 00000000 		.4byte	.LFB119
 2611 0014 10000000 		.4byte	.LFE119-.LFB119
 2612 0018 00000000 		.4byte	.LFB120
 2613 001c 10000000 		.4byte	.LFE120-.LFB120
 2614 0020 00000000 		.4byte	.LFB122
 2615 0024 02000000 		.4byte	.LFE122-.LFB122
 2616 0028 00000000 		.4byte	.LFB124
 2617 002c 02000000 		.4byte	.LFE124-.LFB124
 2618 0030 00000000 		.4byte	.LFB123
 2619 0034 44000000 		.4byte	.LFE123-.LFB123
 2620 0038 00000000 		.4byte	.LFB121
 2621 003c 48000000 		.4byte	.LFE121-.LFB121
 2622 0040 00000000 		.4byte	.LFB118
 2623 0044 2E000000 		.4byte	.LFE118-.LFB118
 2624 0048 00000000 		.4byte	.LFB125
 2625 004c 50000000 		.4byte	.LFE125-.LFB125
 2626 0050 00000000 		.4byte	0
 2627 0054 00000000 		.4byte	0
 2628              		.section	.debug_ranges,"",%progbits
 2629              	.Ldebug_ranges0:
 2630 0000 00000000 		.4byte	.LFB119
 2631 0004 10000000 		.4byte	.LFE119
 2632 0008 00000000 		.4byte	.LFB120
 2633 000c 10000000 		.4byte	.LFE120
 2634 0010 00000000 		.4byte	.LFB122
 2635 0014 02000000 		.4byte	.LFE122
 2636 0018 00000000 		.4byte	.LFB124
 2637 001c 02000000 		.4byte	.LFE124
 2638 0020 00000000 		.4byte	.LFB123
 2639 0024 44000000 		.4byte	.LFE123
 2640 0028 00000000 		.4byte	.LFB121
 2641 002c 48000000 		.4byte	.LFE121
 2642 0030 00000000 		.4byte	.LFB118
 2643 0034 2E000000 		.4byte	.LFE118
 2644 0038 00000000 		.4byte	.LFB125
 2645 003c 50000000 		.4byte	.LFE125
 2646 0040 00000000 		.4byte	0
 2647 0044 00000000 		.4byte	0
 2648              		.section	.debug_line,"",%progbits
 2649              	.Ldebug_line0:
 2650 0000 14030000 		.section	.debug_str,"MS",%progbits,1
 2650      02007302 
 2650      00000201 
 2650      FB0E0D00 
 2650      01010101 
 2651              	.LASF76:
 2652 0000 646D6172 		.ascii	"dmarx\000"
ARM GAS  C:\cygwin\tmp\cc13kgnP.s 			page 48


 2652      7800
 2653              	.LASF33:
 2654 0006 50555044 		.ascii	"PUPDR\000"
 2654      5200
 2655              	.LASF114:
 2656 000c 63685468 		.ascii	"chThdSleep\000"
 2656      64536C65 
 2656      657000
 2657              	.LASF35:
 2658 0017 4C434B52 		.ascii	"LCKR\000"
 2658      00
 2659              	.LASF65:
 2660 001c 55415254 		.ascii	"UART_RX_ACTIVE\000"
 2660      5F52585F 
 2660      41435449 
 2660      564500
 2661              	.LASF2:
 2662 002b 73697A65 		.ascii	"size_t\000"
 2662      5F7400
 2663              	.LASF85:
 2664 0032 72786368 		.ascii	"rxchar_cb\000"
 2664      61725F63 
 2664      6200
 2665              	.LASF31:
 2666 003c 4F545950 		.ascii	"OTYPER\000"
 2666      455200
 2667              	.LASF53:
 2668 0043 696F706F 		.ascii	"ioportmask_t\000"
 2668      72746D61 
 2668      736B5F74 
 2668      00
 2669              	.LASF30:
 2670 0050 4D4F4445 		.ascii	"MODER\000"
 2670      5200
 2671              	.LASF13:
 2672 0056 6C6F6E67 		.ascii	"long long unsigned int\000"
 2672      206C6F6E 
 2672      6720756E 
 2672      7369676E 
 2672      65642069 
 2673              	.LASF80:
 2674 006d 75617274 		.ascii	"uartccb_t\000"
 2674      6363625F 
 2674      7400
 2675              	.LASF51:
 2676 0077 76656374 		.ascii	"vector\000"
 2676      6F7200
 2677              	.LASF88:
 2678 007e 55415254 		.ascii	"UARTConfig\000"
 2678      436F6E66 
 2678      696700
 2679              	.LASF98:
 2680 0089 49544D5F 		.ascii	"ITM_RxBuffer\000"
 2680      52784275 
 2680      66666572 
 2680      00
 2681              	.LASF78:
ARM GAS  C:\cygwin\tmp\cc13kgnP.s 			page 49


 2682 0096 72786275 		.ascii	"rxbuf\000"
 2682      6600
 2683              	.LASF12:
 2684 009c 6C6F6E67 		.ascii	"long long int\000"
 2684      206C6F6E 
 2684      6720696E 
 2684      7400
 2685              	.LASF1:
 2686 00aa 7369676E 		.ascii	"signed char\000"
 2686      65642063 
 2686      68617200 
 2687              	.LASF79:
 2688 00b6 75617274 		.ascii	"uartcb_t\000"
 2688      63625F74 
 2688      00
 2689              	.LASF34:
 2690 00bf 42535252 		.ascii	"BSRR\000"
 2690      00
 2691              	.LASF106:
 2692 00c4 63685379 		.ascii	"chSysInit\000"
 2692      73496E69 
 2692      7400
 2693              	.LASF40:
 2694 00ce 47545052 		.ascii	"GTPR\000"
 2694      00
 2695              	.LASF92:
 2696 00d3 72786572 		.ascii	"rxerr\000"
 2696      7200
 2697              	.LASF72:
 2698 00d9 72787374 		.ascii	"rxstate\000"
 2698      61746500 
 2699              	.LASF70:
 2700 00e1 73746174 		.ascii	"state\000"
 2700      6500
 2701              	.LASF71:
 2702 00e7 74787374 		.ascii	"txstate\000"
 2702      61746500 
 2703              	.LASF9:
 2704 00ef 6C6F6E67 		.ascii	"long int\000"
 2704      20696E74 
 2704      00
 2705              	.LASF109:
 2706 00f8 75617274 		.ascii	"uartStartSend\000"
 2706      53746172 
 2706      7453656E 
 2706      6400
 2707              	.LASF67:
 2708 0106 75617274 		.ascii	"uartrxstate_t\000"
 2708      72787374 
 2708      6174655F 
 2708      7400
 2709              	.LASF77:
 2710 0114 646D6174 		.ascii	"dmatx\000"
 2710      7800
 2711              	.LASF69:
 2712 011a 55415254 		.ascii	"UARTDriver\000"
 2712      44726976 
ARM GAS  C:\cygwin\tmp\cc13kgnP.s 			page 50


 2712      657200
 2713              	.LASF32:
 2714 0125 4F535045 		.ascii	"OSPEEDR\000"
 2714      45445200 
 2715              	.LASF68:
 2716 012d 75617274 		.ascii	"uartflags_t\000"
 2716      666C6167 
 2716      735F7400 
 2717              	.LASF20:
 2718 0139 76745F70 		.ascii	"vt_prev\000"
 2718      72657600 
 2719              	.LASF90:
 2720 0141 7478656E 		.ascii	"txend1\000"
 2720      643100
 2721              	.LASF58:
 2722 0148 55415254 		.ascii	"UART_READY\000"
 2722      5F524541 
 2722      445900
 2723              	.LASF61:
 2724 0153 55415254 		.ascii	"UART_TX_ACTIVE\000"
 2724      5F54585F 
 2724      41435449 
 2724      564500
 2725              	.LASF74:
 2726 0162 75736172 		.ascii	"usart\000"
 2726      7400
 2727              	.LASF0:
 2728 0168 756E7369 		.ascii	"unsigned int\000"
 2728      676E6564 
 2728      20696E74 
 2728      00
 2729              	.LASF19:
 2730 0175 76745F6E 		.ascii	"vt_next\000"
 2730      65787400 
 2731              	.LASF6:
 2732 017d 75696E74 		.ascii	"uint16_t\000"
 2732      31365F74 
 2732      00
 2733              	.LASF26:
 2734 0186 43504152 		.ascii	"CPAR\000"
 2734      00
 2735              	.LASF11:
 2736 018b 6C6F6E67 		.ascii	"long unsigned int\000"
 2736      20756E73 
 2736      69676E65 
 2736      6420696E 
 2736      7400
 2737              	.LASF38:
 2738 019d 4750494F 		.ascii	"GPIO_TypeDef\000"
 2738      5F547970 
 2738      65446566 
 2738      00
 2739              	.LASF105:
 2740 01aa 68616C49 		.ascii	"halInit\000"
 2740      6E697400 
 2741              	.LASF81:
 2742 01b2 75617274 		.ascii	"uartecb_t\000"
ARM GAS  C:\cygwin\tmp\cc13kgnP.s 			page 51


 2742      6563625F 
 2742      7400
 2743              	.LASF49:
 2744 01bc 69736869 		.ascii	"ishift\000"
 2744      667400
 2745              	.LASF7:
 2746 01c3 73686F72 		.ascii	"short unsigned int\000"
 2746      7420756E 
 2746      7369676E 
 2746      65642069 
 2746      6E7400
 2747              	.LASF56:
 2748 01d6 55415254 		.ascii	"UART_UNINIT\000"
 2748      5F554E49 
 2748      4E495400 
 2749              	.LASF57:
 2750 01e2 55415254 		.ascii	"UART_STOP\000"
 2750      5F53544F 
 2750      5000
 2751              	.LASF46:
 2752 01ec 55534152 		.ascii	"USART_TypeDef\000"
 2752      545F5479 
 2752      70654465 
 2752      6600
 2753              	.LASF27:
 2754 01fa 434D4152 		.ascii	"CMAR\000"
 2754      00
 2755              	.LASF99:
 2756 01ff 55415254 		.ascii	"UARTD1\000"
 2756      443100
 2757              	.LASF91:
 2758 0206 75617274 		.ascii	"uartp\000"
 2758      7000
 2759              	.LASF21:
 2760 020c 76745F74 		.ascii	"vt_time\000"
 2760      696D6500 
 2761              	.LASF16:
 2762 0214 73697A65 		.ascii	"sizetype\000"
 2762      74797065 
 2762      00
 2763              	.LASF29:
 2764 021d 636C6561 		.ascii	"clear\000"
 2764      7200
 2765              	.LASF66:
 2766 0223 55415254 		.ascii	"UART_RX_COMPLETE\000"
 2766      5F52585F 
 2766      434F4D50 
 2766      4C455445 
 2766      00
 2767              	.LASF86:
 2768 0234 72786572 		.ascii	"rxerr_cb\000"
 2768      725F6362 
 2768      00
 2769              	.LASF101:
 2770 023d 63685654 		.ascii	"chVTSetI\000"
 2770      53657449 
 2770      00
ARM GAS  C:\cygwin\tmp\cc13kgnP.s 			page 52


 2771              	.LASF107:
 2772 0246 75617274 		.ascii	"uartStart\000"
 2772      53746172 
 2772      7400
 2773              	.LASF84:
 2774 0250 7278656E 		.ascii	"rxend_cb\000"
 2774      645F6362 
 2774      00
 2775              	.LASF63:
 2776 0259 75617274 		.ascii	"uarttxstate_t\000"
 2776      74787374 
 2776      6174655F 
 2776      7400
 2777              	.LASF89:
 2778 0267 6C65646F 		.ascii	"ledoff\000"
 2778      666600
 2779              	.LASF110:
 2780 026e 474E5520 		.ascii	"GNU C 4.7.2\000"
 2780      4320342E 
 2780      372E3200 
 2781              	.LASF111:
 2782 027a 6D61696E 		.ascii	"main.c\000"
 2782      2E6300
 2783              	.LASF97:
 2784 0281 75617274 		.ascii	"uart_cfg_1\000"
 2784      5F636667 
 2784      5F3100
 2785              	.LASF94:
 2786 028c 72786368 		.ascii	"rxchar\000"
 2786      617200
 2787              	.LASF28:
 2788 0293 444D415F 		.ascii	"DMA_Channel_TypeDef\000"
 2788      4368616E 
 2788      6E656C5F 
 2788      54797065 
 2788      44656600 
 2789              	.LASF36:
 2790 02a7 4146524C 		.ascii	"AFRL\000"
 2790      00
 2791              	.LASF93:
 2792 02ac 7278656E 		.ascii	"rxend\000"
 2792      6400
 2793              	.LASF39:
 2794 02b2 52455345 		.ascii	"RESERVED1\000"
 2794      52564544 
 2794      3100
 2795              	.LASF41:
 2796 02bc 52455345 		.ascii	"RESERVED2\000"
 2796      52564544 
 2796      3200
 2797              	.LASF43:
 2798 02c6 52455345 		.ascii	"RESERVED3\000"
 2798      52564544 
 2798      3300
 2799              	.LASF44:
 2800 02d0 52455345 		.ascii	"RESERVED4\000"
 2800      52564544 
ARM GAS  C:\cygwin\tmp\cc13kgnP.s 			page 53


 2800      3400
 2801              	.LASF45:
 2802 02da 52455345 		.ascii	"RESERVED5\000"
 2802      52564544 
 2802      3500
 2803              	.LASF52:
 2804 02e4 73746D33 		.ascii	"stm32_dma_stream_t\000"
 2804      325F646D 
 2804      615F7374 
 2804      7265616D 
 2804      5F7400
 2805              	.LASF83:
 2806 02f7 7478656E 		.ascii	"txend2_cb\000"
 2806      64325F63 
 2806      6200
 2807              	.LASF14:
 2808 0301 5F426F6F 		.ascii	"_Bool\000"
 2808      6C00
 2809              	.LASF8:
 2810 0307 696E7433 		.ascii	"int32_t\000"
 2810      325F7400 
 2811              	.LASF4:
 2812 030f 756E7369 		.ascii	"unsigned char\000"
 2812      676E6564 
 2812      20636861 
 2812      7200
 2813              	.LASF5:
 2814 031d 73686F72 		.ascii	"short int\000"
 2814      7420696E 
 2814      7400
 2815              	.LASF59:
 2816 0327 75617274 		.ascii	"uartstate_t\000"
 2816      73746174 
 2816      655F7400 
 2817              	.LASF47:
 2818 0333 6368616E 		.ascii	"channel\000"
 2818      6E656C00 
 2819              	.LASF100:
 2820 033b 63685654 		.ascii	"chVTResetI\000"
 2820      52657365 
 2820      744900
 2821              	.LASF48:
 2822 0346 69666372 		.ascii	"ifcr\000"
 2822      00
 2823              	.LASF10:
 2824 034b 75696E74 		.ascii	"uint32_t\000"
 2824      33325F74 
 2824      00
 2825              	.LASF18:
 2826 0354 56697274 		.ascii	"VirtualTimer\000"
 2826      75616C54 
 2826      696D6572 
 2826      00
 2827              	.LASF37:
 2828 0361 41465248 		.ascii	"AFRH\000"
 2828      00
 2829              	.LASF24:
ARM GAS  C:\cygwin\tmp\cc13kgnP.s 			page 54


 2830 0366 63686172 		.ascii	"char\000"
 2830      00
 2831              	.LASF73:
 2832 036b 636F6E66 		.ascii	"config\000"
 2832      696700
 2833              	.LASF64:
 2834 0372 55415254 		.ascii	"UART_RX_IDLE\000"
 2834      5F52585F 
 2834      49444C45 
 2834      00
 2835              	.LASF82:
 2836 037f 7478656E 		.ascii	"txend1_cb\000"
 2836      64315F63 
 2836      6200
 2837              	.LASF15:
 2838 0389 73797374 		.ascii	"systime_t\000"
 2838      696D655F 
 2838      7400
 2839              	.LASF95:
 2840 0393 7478656E 		.ascii	"txend2\000"
 2840      643200
 2841              	.LASF17:
 2842 039a 76746675 		.ascii	"vtfunc_t\000"
 2842      6E635F74 
 2842      00
 2843              	.LASF96:
 2844 03a3 72657374 		.ascii	"restart\000"
 2844      61727400 
 2845              	.LASF60:
 2846 03ab 55415254 		.ascii	"UART_TX_IDLE\000"
 2846      5F54585F 
 2846      49444C45 
 2846      00
 2847              	.LASF42:
 2848 03b8 52544F52 		.ascii	"RTOR\000"
 2848      00
 2849              	.LASF55:
 2850 03bd 696F706F 		.ascii	"ioportid_t\000"
 2850      72746964 
 2850      5F7400
 2851              	.LASF108:
 2852 03c8 5F70616C 		.ascii	"_pal_lld_setgroupmode\000"
 2852      5F6C6C64 
 2852      5F736574 
 2852      67726F75 
 2852      706D6F64 
 2853              	.LASF103:
 2854 03de 6462675F 		.ascii	"dbg_check_unlock_from_isr\000"
 2854      63686563 
 2854      6B5F756E 
 2854      6C6F636B 
 2854      5F66726F 
 2855              	.LASF50:
 2856 03f8 73656C66 		.ascii	"selfindex\000"
 2856      696E6465 
 2856      7800
 2857              	.LASF23:
ARM GAS  C:\cygwin\tmp\cc13kgnP.s 			page 55


 2858 0402 76745F70 		.ascii	"vt_par\000"
 2858      617200
 2859              	.LASF25:
 2860 0409 434E4454 		.ascii	"CNDTR\000"
 2860      5200
 2861              	.LASF104:
 2862 040f 75617274 		.ascii	"uartStartSendI\000"
 2862      53746172 
 2862      7453656E 
 2862      644900
 2863              	.LASF112:
 2864 041e 433A5C64 		.ascii	"C:\\develop\\gyro\\ChibiOS\\testhal_wrk\\STM32F30x\\"
 2864      6576656C 
 2864      6F705C67 
 2864      79726F5C 
 2864      43686962 
 2865 044c 55415254 		.ascii	"UART\000"
 2865      00
 2866              	.LASF3:
 2867 0451 75696E74 		.ascii	"uint8_t\000"
 2867      385F7400 
 2868              	.LASF102:
 2869 0459 6462675F 		.ascii	"dbg_check_lock_from_isr\000"
 2869      63686563 
 2869      6B5F6C6F 
 2869      636B5F66 
 2869      726F6D5F 
 2870              	.LASF75:
 2871 0471 646D616D 		.ascii	"dmamode\000"
 2871      6F646500 
 2872              	.LASF87:
 2873 0479 73706565 		.ascii	"speed\000"
 2873      6400
 2874              	.LASF113:
 2875 047f 6D61696E 		.ascii	"main\000"
 2875      00
 2876              	.LASF54:
 2877 0484 696F6D6F 		.ascii	"iomode_t\000"
 2877      64655F74 
 2877      00
 2878              	.LASF22:
 2879 048d 76745F66 		.ascii	"vt_func\000"
 2879      756E6300 
 2880              	.LASF62:
 2881 0495 55415254 		.ascii	"UART_TX_COMPLETE\000"
 2881      5F54585F 
 2881      434F4D50 
 2881      4C455445 
 2881      00
 2882              		.ident	"GCC: (GNU) 4.7.2"
ARM GAS  C:\cygwin\tmp\cc13kgnP.s 			page 56


DEFINED SYMBOLS
                            *ABS*:00000000 main.c
C:\cygwin\tmp\cc13kgnP.s:19     .text.ledoff:00000000 $t
C:\cygwin\tmp\cc13kgnP.s:24     .text.ledoff:00000000 ledoff
C:\cygwin\tmp\cc13kgnP.s:43     .text.txend1:00000000 $t
C:\cygwin\tmp\cc13kgnP.s:48     .text.txend1:00000000 txend1
C:\cygwin\tmp\cc13kgnP.s:66     .text.rxerr:00000000 $t
C:\cygwin\tmp\cc13kgnP.s:71     .text.rxerr:00000000 rxerr
C:\cygwin\tmp\cc13kgnP.s:84     .text.rxend:00000000 $t
C:\cygwin\tmp\cc13kgnP.s:89     .text.rxend:00000000 rxend
C:\cygwin\tmp\cc13kgnP.s:102    .text.rxchar:00000000 $t
C:\cygwin\tmp\cc13kgnP.s:107    .text.rxchar:00000000 rxchar
C:\cygwin\tmp\cc13kgnP.s:167    .text.rxchar:0000003c $d
C:\cygwin\tmp\cc13kgnP.s:174    .text.txend2:00000000 $t
C:\cygwin\tmp\cc13kgnP.s:179    .text.txend2:00000000 txend2
C:\cygwin\tmp\cc13kgnP.s:238    .text.txend2:00000040 $d
C:\cygwin\tmp\cc13kgnP.s:250    .text.restart:00000000 restart
C:\cygwin\tmp\cc13kgnP.s:245    .text.restart:00000000 $t
C:\cygwin\tmp\cc13kgnP.s:377    .rodata.str1.4:00000000 .LC0
C:\cygwin\tmp\cc13kgnP.s:299    .text.startup.main:00000000 $t
C:\cygwin\tmp\cc13kgnP.s:305    .text.startup.main:00000000 main
C:\cygwin\tmp\cc13kgnP.s:355    .text.startup.main:00000044 $d
C:\cygwin\tmp\cc13kgnP.s:362    .bss.vt1:00000000 $d
C:\cygwin\tmp\cc13kgnP.s:366    .bss.vt1:00000000 vt1
C:\cygwin\tmp\cc13kgnP.s:369    .bss.vt2:00000000 $d
C:\cygwin\tmp\cc13kgnP.s:373    .bss.vt2:00000000 vt2
C:\cygwin\tmp\cc13kgnP.s:376    .rodata.str1.4:00000000 $d
C:\cygwin\tmp\cc13kgnP.s:383    .data.uart_cfg_1:00000000 $d
C:\cygwin\tmp\cc13kgnP.s:387    .data.uart_cfg_1:00000000 uart_cfg_1
                     .debug_frame:00000010 $d
C:\cygwin\tmp\cc13kgnP.s:173    .text.rxchar:00000044 $t
C:\cygwin\tmp\cc13kgnP.s:244    .text.txend2:00000048 $t

UNDEFINED SYMBOLS
dbg_check_lock_from_isr
chVTResetI
chVTSetI
dbg_check_unlock_from_isr
UARTD1
uartStartSendI
halInit
chSysInit
uartStart
_pal_lld_setgroupmode
uartStartSend
chThdSleep
