ARM GAS  C:\cygwin\tmp\ccSwGmbi.s 			page 1


   1              		.syntax unified
   2              		.cpu cortex-m4
   3              		.fpu softvfp
   4              		.eabi_attribute 20, 1
   5              		.eabi_attribute 21, 1
   6              		.eabi_attribute 23, 3
   7              		.eabi_attribute 24, 1
   8              		.eabi_attribute 25, 1
   9              		.eabi_attribute 26, 1
  10              		.eabi_attribute 30, 2
  11              		.eabi_attribute 34, 1
  12              		.eabi_attribute 18, 4
  13              		.thumb
  14              		.file	"serial_usb.c"
  15              		.text
  16              	.Ltext0:
  17              		.cfi_sections	.debug_frame
  18              		.section	.text.onotify,"ax",%progbits
  19              		.align	2
  20              		.p2align 4,,15
  21              		.thumb
  22              		.thumb_func
  23              		.type	onotify, %function
  24              	onotify:
  25              	.LFB127:
  26              		.file 1 "../../../os/hal/src/serial_usb.c"
  27              		.loc 1 144 0
  28              		.cfi_startproc
  29              		@ args = 0, pretend = 0, frame = 0
  30              		@ frame_needed = 0, uses_anonymous_args = 0
  31              	.LVL0:
  32 0000 70B5     		push	{r4, r5, r6, lr}
  33              	.LCFI0:
  34              		.cfi_def_cfa_offset 16
  35              		.cfi_offset 4, -16
  36              		.cfi_offset 5, -12
  37              		.cfi_offset 6, -8
  38              		.cfi_offset 14, -4
  39              		.loc 1 146 0
  40 0002 046A     		ldr	r4, [r0, #32]
  41              	.LVL1:
  42              		.loc 1 150 0
  43 0004 D4F85432 		ldr	r3, [r4, #596]
  44 0008 1B68     		ldr	r3, [r3, #0]
  45 000a 1A78     		ldrb	r2, [r3, #0]	@ zero_extendqisi2
  46 000c 042A     		cmp	r2, #4
  47 000e 00D0     		beq	.L7
  48              	.L1:
  49 0010 70BD     		pop	{r4, r5, r6, pc}
  50              	.L7:
  51              		.loc 1 155 0
  52 0012 9D89     		ldrh	r5, [r3, #12]
  53 0014 05F00205 		and	r5, r5, #2
  54 0018 ADB2     		uxth	r5, r5
  55 001a 002D     		cmp	r5, #0
  56 001c F8D1     		bne	.L1
  57              		.loc 1 156 0 discriminator 1
ARM GAS  C:\cygwin\tmp\ccSwGmbi.s 			page 2


  58 001e 216C     		ldr	r1, [r4, #64]
  59 0020 E26B     		ldr	r2, [r4, #60]
  60 0022 A36B     		ldr	r3, [r4, #56]
  61 0024 8A1A     		subs	r2, r1, r2
  62              	.LVL2:
  63              		.loc 1 155 0 discriminator 1
  64 0026 D61A     		subs	r6, r2, r3
  65              	.LVL3:
  66 0028 F2D0     		beq	.L1
  67              		.loc 1 157 0
  68 002a FFF7FEFF 		bl	dbg_check_unlock
  69              	.LVL4:
  70              	.LBB2:
  71 002e 2B46     		mov	r3, r5
  72              	.LVL5:
  73              	@ 157 "../../../os/hal/src/serial_usb.c" 1
  74 0030 83F31188 		msr     BASEPRI, r3
  75              	@ 0 "" 2
  76              	.LVL6:
  77              		.thumb
  78              	.LBE2:
  79              		.loc 1 159 0
  80 0034 D4F85422 		ldr	r2, [r4, #596]
  81 0038 3346     		mov	r3, r6
  82              	.LVL7:
  83 003a 1068     		ldr	r0, [r2, #0]
  84 003c 0121     		movs	r1, #1
  85 003e 04F13002 		add	r2, r4, #48
  86 0042 FFF7FEFF 		bl	usbPrepareQueuedTransmit
  87              	.LVL8:
  88              	.LBB3:
  89              		.loc 1 163 0
  90 0046 2023     		movs	r3, #32
  91              	.LVL9:
  92              	@ 163 "../../../os/hal/src/serial_usb.c" 1
  93 0048 83F31188 		msr     BASEPRI, r3
  94              	@ 0 "" 2
  95              	.LVL10:
  96              		.thumb
  97              	.LBE3:
  98 004c FFF7FEFF 		bl	dbg_check_lock
  99              	.LVL11:
 100              		.loc 1 164 0
 101 0050 D4F85432 		ldr	r3, [r4, #596]
 102 0054 1868     		ldr	r0, [r3, #0]
 103 0056 0121     		movs	r1, #1
 104              		.loc 1 166 0
 105 0058 BDE87040 		pop	{r4, r5, r6, lr}
 106              		.loc 1 164 0
 107 005c FFF7FEBF 		b	usbStartTransmitI
 108              	.LVL12:
 109              		.cfi_endproc
 110              	.LFE127:
 111              		.size	onotify, .-onotify
 112              		.section	.text.inotify,"ax",%progbits
 113              		.align	2
 114              		.p2align 4,,15
ARM GAS  C:\cygwin\tmp\ccSwGmbi.s 			page 3


 115              		.thumb
 116              		.thumb_func
 117              		.type	inotify, %function
 118              	inotify:
 119              	.LFB126:
 120              		.loc 1 114 0
 121              		.cfi_startproc
 122              		@ args = 0, pretend = 0, frame = 0
 123              		@ frame_needed = 0, uses_anonymous_args = 0
 124              	.LVL13:
 125 0000 F8B5     		push	{r3, r4, r5, r6, r7, lr}
 126              	.LCFI1:
 127              		.cfi_def_cfa_offset 24
 128              		.cfi_offset 3, -24
 129              		.cfi_offset 4, -20
 130              		.cfi_offset 5, -16
 131              		.cfi_offset 6, -12
 132              		.cfi_offset 7, -8
 133              		.cfi_offset 14, -4
 134              		.loc 1 116 0
 135 0002 046A     		ldr	r4, [r0, #32]
 136              	.LVL14:
 137              		.loc 1 120 0
 138 0004 D4F85432 		ldr	r3, [r4, #596]
 139 0008 1A68     		ldr	r2, [r3, #0]
 140 000a 1378     		ldrb	r3, [r2, #0]	@ zero_extendqisi2
 141 000c 042B     		cmp	r3, #4
 142 000e 00D0     		beq	.L10
 143              	.L8:
 144 0010 F8BD     		pop	{r3, r4, r5, r6, r7, pc}
 145              	.L10:
 146              		.loc 1 127 0
 147 0012 D589     		ldrh	r5, [r2, #14]
 148              		.loc 1 126 0
 149 0014 5369     		ldr	r3, [r2, #20]
 150              		.loc 1 127 0
 151 0016 05F00205 		and	r5, r5, #2
 152 001a ADB2     		uxth	r5, r5
 153              		.loc 1 126 0
 154 001c 5E8A     		ldrh	r6, [r3, #18]
 155              	.LVL15:
 156              		.loc 1 127 0
 157 001e 002D     		cmp	r5, #0
 158 0020 F6D1     		bne	.L8
 159              		.loc 1 128 0 discriminator 1
 160 0022 E769     		ldr	r7, [r4, #28]
 161 0024 A269     		ldr	r2, [r4, #24]
 162 0026 6369     		ldr	r3, [r4, #20]
 163 0028 BF1A     		subs	r7, r7, r2
 164 002a FF1A     		subs	r7, r7, r3
 165              	.LVL16:
 166              		.loc 1 127 0 discriminator 1
 167 002c BE42     		cmp	r6, r7
 168 002e EFD8     		bhi	.L8
 169              		.loc 1 129 0
 170 0030 FFF7FEFF 		bl	dbg_check_unlock
 171              	.LVL17:
ARM GAS  C:\cygwin\tmp\ccSwGmbi.s 			page 4


 172              	.LBB4:
 173 0034 2B46     		mov	r3, r5
 174              	.LVL18:
 175              	@ 129 "../../../os/hal/src/serial_usb.c" 1
 176 0036 83F31188 		msr     BASEPRI, r3
 177              	@ 0 "" 2
 178              	.LVL19:
 179              		.thumb
 180              	.LBE4:
 181              		.loc 1 132 0
 182 003a D4F85422 		ldr	r2, [r4, #596]
 183              		.loc 1 131 0
 184 003e B7FBF6F3 		udiv	r3, r7, r6
 185              	.LVL20:
 186              		.loc 1 132 0
 187 0042 06FB03F3 		mul	r3, r6, r3
 188              	.LVL21:
 189 0046 1068     		ldr	r0, [r2, #0]
 190 0048 0121     		movs	r1, #1
 191 004a 04F10C02 		add	r2, r4, #12
 192 004e FFF7FEFF 		bl	usbPrepareQueuedReceive
 193              	.LVL22:
 194              	.LBB5:
 195              		.loc 1 136 0
 196 0052 2023     		movs	r3, #32
 197              	.LVL23:
 198              	@ 136 "../../../os/hal/src/serial_usb.c" 1
 199 0054 83F31188 		msr     BASEPRI, r3
 200              	@ 0 "" 2
 201              	.LVL24:
 202              		.thumb
 203              	.LBE5:
 204 0058 FFF7FEFF 		bl	dbg_check_lock
 205              	.LVL25:
 206              		.loc 1 137 0
 207 005c D4F85432 		ldr	r3, [r4, #596]
 208 0060 1868     		ldr	r0, [r3, #0]
 209 0062 0121     		movs	r1, #1
 210              		.loc 1 139 0
 211 0064 BDE8F840 		pop	{r3, r4, r5, r6, r7, lr}
 212              		.loc 1 137 0
 213 0068 FFF7FEBF 		b	usbStartReceiveI
 214              	.LVL26:
 215              		.cfi_endproc
 216              	.LFE126:
 217              		.size	inotify, .-inotify
 218 006c AFF30080 		.section	.text.readt,"ax",%progbits
 219              		.align	2
 220              		.p2align 4,,15
 221              		.thumb
 222              		.thumb_func
 223              		.type	readt, %function
 224              	readt:
 225              	.LFB125:
 226              		.loc 1 101 0
 227              		.cfi_startproc
 228              		@ args = 0, pretend = 0, frame = 0
ARM GAS  C:\cygwin\tmp\ccSwGmbi.s 			page 5


 229              		@ frame_needed = 0, uses_anonymous_args = 0
 230              		@ link register save eliminated.
 231              	.LVL27:
 232              		.loc 1 103 0
 233 0000 0C30     		adds	r0, r0, #12
 234              	.LVL28:
 235              		.loc 1 104 0
 236              		.loc 1 103 0
 237 0002 FFF7FEBF 		b	chIQReadTimeout
 238              	.LVL29:
 239              		.cfi_endproc
 240              	.LFE125:
 241              		.size	readt, .-readt
 242 0006 00BFAFF3 		.section	.text.read,"ax",%progbits
 242      0080AFF3 
 242      0080
 243              		.align	2
 244              		.p2align 4,,15
 245              		.thumb
 246              		.thumb_func
 247              		.type	read, %function
 248              	read:
 249              	.LFB119:
 250              		.loc 1 70 0
 251              		.cfi_startproc
 252              		@ args = 0, pretend = 0, frame = 0
 253              		@ frame_needed = 0, uses_anonymous_args = 0
 254              		@ link register save eliminated.
 255              	.LVL30:
 256              		.loc 1 72 0
 257 0000 0C30     		adds	r0, r0, #12
 258              	.LVL31:
 259 0002 4FF0FF33 		mov	r3, #-1
 260              		.loc 1 74 0
 261              		.loc 1 72 0
 262 0006 FFF7FEBF 		b	chIQReadTimeout
 263              	.LVL32:
 264              		.cfi_endproc
 265              	.LFE119:
 266              		.size	read, .-read
 267 000a 00BFAFF3 		.section	.text.writet,"ax",%progbits
 267      0080
 268              		.align	2
 269              		.p2align 4,,15
 270              		.thumb
 271              		.thumb_func
 272              		.type	writet, %function
 273              	writet:
 274              	.LFB124:
 275              		.loc 1 96 0
 276              		.cfi_startproc
 277              		@ args = 0, pretend = 0, frame = 0
 278              		@ frame_needed = 0, uses_anonymous_args = 0
 279              		@ link register save eliminated.
 280              	.LVL33:
 281              		.loc 1 98 0
 282 0000 3030     		adds	r0, r0, #48
ARM GAS  C:\cygwin\tmp\ccSwGmbi.s 			page 6


 283              	.LVL34:
 284              		.loc 1 99 0
 285              		.loc 1 98 0
 286 0002 FFF7FEBF 		b	chOQWriteTimeout
 287              	.LVL35:
 288              		.cfi_endproc
 289              	.LFE124:
 290              		.size	writet, .-writet
 291 0006 00BFAFF3 		.section	.text.write,"ax",%progbits
 291      0080AFF3 
 291      0080
 292              		.align	2
 293              		.p2align 4,,15
 294              		.thumb
 295              		.thumb_func
 296              		.type	write, %function
 297              	write:
 298              	.LFB118:
 299              		.loc 1 64 0
 300              		.cfi_startproc
 301              		@ args = 0, pretend = 0, frame = 0
 302              		@ frame_needed = 0, uses_anonymous_args = 0
 303              		@ link register save eliminated.
 304              	.LVL36:
 305              		.loc 1 66 0
 306 0000 3030     		adds	r0, r0, #48
 307              	.LVL37:
 308 0002 4FF0FF33 		mov	r3, #-1
 309              		.loc 1 68 0
 310              		.loc 1 66 0
 311 0006 FFF7FEBF 		b	chOQWriteTimeout
 312              	.LVL38:
 313              		.cfi_endproc
 314              	.LFE118:
 315              		.size	write, .-write
 316 000a 00BFAFF3 		.section	.text.gett,"ax",%progbits
 316      0080
 317              		.align	2
 318              		.p2align 4,,15
 319              		.thumb
 320              		.thumb_func
 321              		.type	gett, %function
 322              	gett:
 323              	.LFB123:
 324              		.loc 1 91 0
 325              		.cfi_startproc
 326              		@ args = 0, pretend = 0, frame = 0
 327              		@ frame_needed = 0, uses_anonymous_args = 0
 328              		@ link register save eliminated.
 329              	.LVL39:
 330              		.loc 1 93 0
 331 0000 0C30     		adds	r0, r0, #12
 332              	.LVL40:
 333              		.loc 1 94 0
 334              		.loc 1 93 0
 335 0002 FFF7FEBF 		b	chIQGetTimeout
 336              	.LVL41:
ARM GAS  C:\cygwin\tmp\ccSwGmbi.s 			page 7


 337              		.cfi_endproc
 338              	.LFE123:
 339              		.size	gett, .-gett
 340 0006 00BFAFF3 		.section	.text.get,"ax",%progbits
 340      0080AFF3 
 340      0080
 341              		.align	2
 342              		.p2align 4,,15
 343              		.thumb
 344              		.thumb_func
 345              		.type	get, %function
 346              	get:
 347              	.LFB121:
 348              		.loc 1 81 0
 349              		.cfi_startproc
 350              		@ args = 0, pretend = 0, frame = 0
 351              		@ frame_needed = 0, uses_anonymous_args = 0
 352              		@ link register save eliminated.
 353              	.LVL42:
 354              		.loc 1 83 0
 355 0000 0C30     		adds	r0, r0, #12
 356              	.LVL43:
 357 0002 4FF0FF31 		mov	r1, #-1
 358              		.loc 1 84 0
 359              		.loc 1 83 0
 360 0006 FFF7FEBF 		b	chIQGetTimeout
 361              	.LVL44:
 362              		.cfi_endproc
 363              	.LFE121:
 364              		.size	get, .-get
 365 000a 00BFAFF3 		.section	.text.putt,"ax",%progbits
 365      0080
 366              		.align	2
 367              		.p2align 4,,15
 368              		.thumb
 369              		.thumb_func
 370              		.type	putt, %function
 371              	putt:
 372              	.LFB122:
 373              		.loc 1 86 0
 374              		.cfi_startproc
 375              		@ args = 0, pretend = 0, frame = 0
 376              		@ frame_needed = 0, uses_anonymous_args = 0
 377              		@ link register save eliminated.
 378              	.LVL45:
 379              		.loc 1 88 0
 380 0000 3030     		adds	r0, r0, #48
 381              	.LVL46:
 382              		.loc 1 89 0
 383              		.loc 1 88 0
 384 0002 FFF7FEBF 		b	chOQPutTimeout
 385              	.LVL47:
 386              		.cfi_endproc
 387              	.LFE122:
 388              		.size	putt, .-putt
 389 0006 00BFAFF3 		.section	.text.put,"ax",%progbits
 389      0080AFF3 
ARM GAS  C:\cygwin\tmp\ccSwGmbi.s 			page 8


 389      0080
 390              		.align	2
 391              		.p2align 4,,15
 392              		.thumb
 393              		.thumb_func
 394              		.type	put, %function
 395              	put:
 396              	.LFB120:
 397              		.loc 1 76 0
 398              		.cfi_startproc
 399              		@ args = 0, pretend = 0, frame = 0
 400              		@ frame_needed = 0, uses_anonymous_args = 0
 401              		@ link register save eliminated.
 402              	.LVL48:
 403              		.loc 1 78 0
 404 0000 3030     		adds	r0, r0, #48
 405              	.LVL49:
 406 0002 4FF0FF32 		mov	r2, #-1
 407              		.loc 1 79 0
 408              		.loc 1 78 0
 409 0006 FFF7FEBF 		b	chOQPutTimeout
 410              	.LVL50:
 411              		.cfi_endproc
 412              	.LFE120:
 413              		.size	put, .-put
 414 000a 00BFAFF3 		.section	.text.sduInit,"ax",%progbits
 414      0080
 415              		.align	2
 416              		.p2align 4,,15
 417              		.global	sduInit
 418              		.thumb
 419              		.thumb_func
 420              		.type	sduInit, %function
 421              	sduInit:
 422              	.LFB128:
 423              		.loc 1 179 0
 424              		.cfi_startproc
 425              		@ args = 0, pretend = 0, frame = 0
 426              		@ frame_needed = 0, uses_anonymous_args = 0
 427              		@ link register save eliminated.
 428 0000 7047     		bx	lr
 429              		.cfi_endproc
 430              	.LFE128:
 431              		.size	sduInit, .-sduInit
 432 0002 00BFAFF3 		.section	.text.sduObjectInit,"ax",%progbits
 432      0080AFF3 
 432      0080AFF3 
 432      0080
 433              		.align	2
 434              		.p2align 4,,15
 435              		.global	sduObjectInit
 436              		.thumb
 437              		.thumb_func
 438              		.type	sduObjectInit, %function
 439              	sduObjectInit:
 440              	.LFB129:
 441              		.loc 1 191 0
ARM GAS  C:\cygwin\tmp\ccSwGmbi.s 			page 9


 442              		.cfi_startproc
 443              		@ args = 0, pretend = 0, frame = 0
 444              		@ frame_needed = 0, uses_anonymous_args = 0
 445              	.LVL51:
 446              		.loc 1 191 0
 447 0000 30B5     		push	{r4, r5, lr}
 448              	.LCFI2:
 449              		.cfi_def_cfa_offset 12
 450              		.cfi_offset 4, -12
 451              		.cfi_offset 5, -8
 452              		.cfi_offset 14, -4
 453              		.loc 1 193 0
 454 0002 40F20003 		movw	r3, #:lower16:.LANCHOR0
 455 0006 0546     		mov	r5, r0
 456 0008 C0F20003 		movt	r3, #:upper16:.LANCHOR0
 457              		.loc 1 191 0
 458 000c 0446     		mov	r4, r0
 459              		.loc 1 193 0
 460 000e 45F8043B 		str	r3, [r5], #4
 461              		.loc 1 191 0
 462 0012 83B0     		sub	sp, sp, #12
 463              	.LCFI3:
 464              		.cfi_def_cfa_offset 24
 465              		.loc 1 194 0
 466 0014 6560     		str	r5, [r4, #4]
 467              		.loc 1 196 0
 468 0016 40F20003 		movw	r3, #:lower16:inotify
 469              		.loc 1 195 0
 470 001a 0125     		movs	r5, #1
 471              		.loc 1 196 0
 472 001c 04F15401 		add	r1, r4, #84
 473              		.loc 1 195 0
 474 0020 2572     		strb	r5, [r4, #8]
 475              		.loc 1 196 0
 476 0022 00F10C00 		add	r0, r0, #12
 477              	.LVL52:
 478 0026 4FF48072 		mov	r2, #256
 479 002a C0F20003 		movt	r3, #:upper16:inotify
 480 002e 0094     		str	r4, [sp, #0]
 481 0030 FFF7FEFF 		bl	chIQInit
 482              	.LVL53:
 483              		.loc 1 197 0
 484 0034 40F20003 		movw	r3, #:lower16:onotify
 485 0038 0094     		str	r4, [sp, #0]
 486 003a 04F13000 		add	r0, r4, #48
 487 003e 04F5AA71 		add	r1, r4, #340
 488 0042 4FF48072 		mov	r2, #256
 489 0046 C0F20003 		movt	r3, #:upper16:onotify
 490 004a FFF7FEFF 		bl	chOQInit
 491              	.LVL54:
 492              		.loc 1 198 0
 493 004e 03B0     		add	sp, sp, #12
 494 0050 30BD     		pop	{r4, r5, pc}
 495              		.cfi_endproc
 496              	.LFE129:
 497              		.size	sduObjectInit, .-sduObjectInit
 498 0052 00BFAFF3 		.section	.text.sduStart,"ax",%progbits
ARM GAS  C:\cygwin\tmp\ccSwGmbi.s 			page 10


 498      0080AFF3 
 498      0080AFF3 
 498      0080
 499              		.align	2
 500              		.p2align 4,,15
 501              		.global	sduStart
 502              		.thumb
 503              		.thumb_func
 504              		.type	sduStart, %function
 505              	sduStart:
 506              	.LFB130:
 507              		.loc 1 208 0
 508              		.cfi_startproc
 509              		@ args = 0, pretend = 0, frame = 0
 510              		@ frame_needed = 0, uses_anonymous_args = 0
 511              	.LVL55:
 512 0000 38B5     		push	{r3, r4, r5, lr}
 513              	.LCFI4:
 514              		.cfi_def_cfa_offset 16
 515              		.cfi_offset 3, -16
 516              		.cfi_offset 4, -12
 517              		.cfi_offset 5, -8
 518              		.cfi_offset 14, -4
 519              		.loc 1 210 0
 520 0002 0446     		mov	r4, r0
 521              		.loc 1 208 0
 522 0004 0D46     		mov	r5, r1
 523              		.loc 1 210 0
 524 0006 B8B1     		cbz	r0, .L24
 525              	.LVL56:
 526              	.L22:
 527              	.LBB6:
 528              		.loc 1 212 0
 529 0008 2023     		movs	r3, #32
 530              	.LVL57:
 531              	@ 212 "../../../os/hal/src/serial_usb.c" 1
 532 000a 83F31188 		msr     BASEPRI, r3
 533              	@ 0 "" 2
 534              	.LVL58:
 535              		.thumb
 536              	.LBE6:
 537 000e FFF7FEFF 		bl	dbg_check_lock
 538              	.LVL59:
 539              		.loc 1 213 0
 540 0012 237A     		ldrb	r3, [r4, #8]	@ zero_extendqisi2
 541 0014 013B     		subs	r3, r3, #1
 542 0016 012B     		cmp	r3, #1
 543 0018 02D9     		bls	.L23
 544              		.loc 1 213 0 is_stmt 0 discriminator 1
 545 001a 0948     		ldr	r0, .L25
 546 001c FFF7FEFF 		bl	chDbgPanic
 547              	.LVL60:
 548              	.L23:
 549              		.loc 1 217 0 is_stmt 1
 550 0020 2B68     		ldr	r3, [r5, #0]
 551              		.loc 1 216 0
 552 0022 C4F85452 		str	r5, [r4, #596]
ARM GAS  C:\cygwin\tmp\ccSwGmbi.s 			page 11


 553              		.loc 1 217 0
 554 0026 9C60     		str	r4, [r3, #8]
 555              		.loc 1 218 0
 556 0028 0223     		movs	r3, #2
 557 002a 2372     		strb	r3, [r4, #8]
 558              		.loc 1 219 0
 559 002c FFF7FEFF 		bl	dbg_check_unlock
 560              	.LVL61:
 561              	.LBB7:
 562 0030 0023     		movs	r3, #0
 563              	.LVL62:
 564              	@ 219 "../../../os/hal/src/serial_usb.c" 1
 565 0032 83F31188 		msr     BASEPRI, r3
 566              	@ 0 "" 2
 567              	.LVL63:
 568              		.thumb
 569 0036 38BD     		pop	{r3, r4, r5, pc}
 570              	.LVL64:
 571              	.L24:
 572              	.LBE7:
 573              		.loc 1 210 0 discriminator 1
 574 0038 0248     		ldr	r0, .L25+4
 575              	.LVL65:
 576 003a FFF7FEFF 		bl	chDbgPanic
 577              	.LVL66:
 578 003e E3E7     		b	.L22
 579              	.L26:
 580              		.align	2
 581              	.L25:
 582 0040 10000000 		.word	.LC1
 583 0044 00000000 		.word	.LC0
 584              		.cfi_endproc
 585              	.LFE130:
 586              		.size	sduStart, .-sduStart
 587 0048 AFF30080 		.section	.text.sduStop,"ax",%progbits
 587      AFF30080 
 588              		.align	2
 589              		.p2align 4,,15
 590              		.global	sduStop
 591              		.thumb
 592              		.thumb_func
 593              		.type	sduStop, %function
 594              	sduStop:
 595              	.LFB131:
 596              		.loc 1 231 0
 597              		.cfi_startproc
 598              		@ args = 0, pretend = 0, frame = 0
 599              		@ frame_needed = 0, uses_anonymous_args = 0
 600              	.LVL67:
 601 0000 10B5     		push	{r4, lr}
 602              	.LCFI5:
 603              		.cfi_def_cfa_offset 8
 604              		.cfi_offset 4, -8
 605              		.cfi_offset 14, -4
 606              		.loc 1 233 0
 607 0002 0446     		mov	r4, r0
 608 0004 98B1     		cbz	r0, .L30
ARM GAS  C:\cygwin\tmp\ccSwGmbi.s 			page 12


 609              	.LVL68:
 610              	.L28:
 611              	.LBB8:
 612              		.loc 1 235 0
 613 0006 2023     		movs	r3, #32
 614              	.LVL69:
 615              	@ 235 "../../../os/hal/src/serial_usb.c" 1
 616 0008 83F31188 		msr     BASEPRI, r3
 617              	@ 0 "" 2
 618              	.LVL70:
 619              		.thumb
 620              	.LBE8:
 621 000c FFF7FEFF 		bl	dbg_check_lock
 622              	.LVL71:
 623              		.loc 1 236 0
 624 0010 237A     		ldrb	r3, [r4, #8]	@ zero_extendqisi2
 625 0012 013B     		subs	r3, r3, #1
 626 0014 012B     		cmp	r3, #1
 627 0016 02D9     		bls	.L29
 628              		.loc 1 236 0 is_stmt 0 discriminator 1
 629 0018 0748     		ldr	r0, .L31
 630 001a FFF7FEFF 		bl	chDbgPanic
 631              	.LVL72:
 632              	.L29:
 633              		.loc 1 239 0 is_stmt 1
 634 001e 0123     		movs	r3, #1
 635 0020 2372     		strb	r3, [r4, #8]
 636              		.loc 1 240 0
 637 0022 FFF7FEFF 		bl	dbg_check_unlock
 638              	.LVL73:
 639              	.LBB9:
 640 0026 0023     		movs	r3, #0
 641              	.LVL74:
 642              	@ 240 "../../../os/hal/src/serial_usb.c" 1
 643 0028 83F31188 		msr     BASEPRI, r3
 644              	@ 0 "" 2
 645              	.LVL75:
 646              		.thumb
 647 002c 10BD     		pop	{r4, pc}
 648              	.LVL76:
 649              	.L30:
 650              	.LBE9:
 651              		.loc 1 233 0 discriminator 1
 652 002e 0348     		ldr	r0, .L31+4
 653              	.LVL77:
 654 0030 FFF7FEFF 		bl	chDbgPanic
 655              	.LVL78:
 656 0034 E7E7     		b	.L28
 657              	.L32:
 658 0036 00BF     		.align	2
 659              	.L31:
 660 0038 2C000000 		.word	.LC3
 661 003c 20000000 		.word	.LC2
 662              		.cfi_endproc
 663              	.LFE131:
 664              		.size	sduStop, .-sduStop
 665              		.section	.text.sduConfigureHookI,"ax",%progbits
ARM GAS  C:\cygwin\tmp\ccSwGmbi.s 			page 13


 666              		.align	2
 667              		.p2align 4,,15
 668              		.global	sduConfigureHookI
 669              		.thumb
 670              		.thumb_func
 671              		.type	sduConfigureHookI, %function
 672              	sduConfigureHookI:
 673              	.LFB132:
 674              		.loc 1 250 0
 675              		.cfi_startproc
 676              		@ args = 0, pretend = 0, frame = 0
 677              		@ frame_needed = 0, uses_anonymous_args = 0
 678              	.LVL79:
 679 0000 70B5     		push	{r4, r5, r6, lr}
 680              	.LCFI6:
 681              		.cfi_def_cfa_offset 16
 682              		.cfi_offset 4, -16
 683              		.cfi_offset 5, -12
 684              		.cfi_offset 6, -8
 685              		.cfi_offset 14, -4
 686              		.loc 1 251 0
 687 0002 8568     		ldr	r5, [r0, #8]
 688              	.LVL80:
 689              		.loc 1 253 0
 690 0004 05F10C06 		add	r6, r5, #12
 691              		.loc 1 250 0
 692 0008 0446     		mov	r4, r0
 693              		.loc 1 253 0
 694 000a 3046     		mov	r0, r6
 695              	.LVL81:
 696 000c FFF7FEFF 		bl	chIQResetI
 697              	.LVL82:
 698              		.loc 1 254 0
 699 0010 05F13000 		add	r0, r5, #48
 700 0014 FFF7FEFF 		bl	chOQResetI
 701              	.LVL83:
 702              		.loc 1 255 0
 703 0018 281D     		adds	r0, r5, #4
 704 001a 0121     		movs	r1, #1
 705 001c FFF7FEFF 		bl	chEvtBroadcastFlagsI
 706              	.LVL84:
 707              		.loc 1 259 0
 708 0020 6369     		ldr	r3, [r4, #20]
 709              		.loc 1 258 0
 710 0022 0121     		movs	r1, #1
 711 0024 2046     		mov	r0, r4
 712 0026 3246     		mov	r2, r6
 713 0028 5B8A     		ldrh	r3, [r3, #18]
 714 002a FFF7FEFF 		bl	usbPrepareQueuedReceive
 715              	.LVL85:
 716              		.loc 1 260 0
 717 002e 2046     		mov	r0, r4
 718 0030 0121     		movs	r1, #1
 719              		.loc 1 261 0
 720 0032 BDE87040 		pop	{r4, r5, r6, lr}
 721              		.loc 1 260 0
 722 0036 FFF7FEBF 		b	usbStartReceiveI
ARM GAS  C:\cygwin\tmp\ccSwGmbi.s 			page 14


 723              	.LVL86:
 724              		.cfi_endproc
 725              	.LFE132:
 726              		.size	sduConfigureHookI, .-sduConfigureHookI
 727 003a 00BFAFF3 		.section	.text.sduRequestsHook,"ax",%progbits
 727      0080
 728              		.align	2
 729              		.p2align 4,,15
 730              		.global	sduRequestsHook
 731              		.thumb
 732              		.thumb_func
 733              		.type	sduRequestsHook, %function
 734              	sduRequestsHook:
 735              	.LFB133:
 736              		.loc 1 278 0
 737              		.cfi_startproc
 738              		@ args = 0, pretend = 0, frame = 0
 739              		@ frame_needed = 0, uses_anonymous_args = 0
 740              		@ link register save eliminated.
 741              	.LVL87:
 742              		.loc 1 280 0
 743 0000 90F84030 		ldrb	r3, [r0, #64]	@ zero_extendqisi2
 744 0004 03F06003 		and	r3, r3, #96
 745 0008 202B     		cmp	r3, #32
 746 000a 01D0     		beq	.L42
 747              	.L41:
 748              		.loc 1 293 0
 749 000c 0020     		movs	r0, #0
 750              	.LVL88:
 751              		.loc 1 297 0
 752 000e 7047     		bx	lr
 753              	.LVL89:
 754              	.L42:
 755              		.loc 1 281 0
 756 0010 90F84130 		ldrb	r3, [r0, #65]	@ zero_extendqisi2
 757 0014 212B     		cmp	r3, #33
 758 0016 03D0     		beq	.L36
 759 0018 222B     		cmp	r3, #34
 760 001a 09D0     		beq	.L38
 761 001c 202B     		cmp	r3, #32
 762 001e F5D1     		bne	.L41
 763              	.L36:
 764              		.loc 1 286 0
 765 0020 064B     		ldr	r3, .L43
 766 0022 4363     		str	r3, [r0, #52]
 767 0024 0723     		movs	r3, #7
 768 0026 8363     		str	r3, [r0, #56]
 769 0028 0023     		movs	r3, #0
 770 002a C363     		str	r3, [r0, #60]
 771              		.loc 1 287 0
 772 002c 0120     		movs	r0, #1
 773              	.LVL90:
 774 002e 7047     		bx	lr
 775              	.LVL91:
 776              	.L38:
 777              		.loc 1 290 0
 778 0030 0023     		movs	r3, #0
ARM GAS  C:\cygwin\tmp\ccSwGmbi.s 			page 15


 779 0032 4363     		str	r3, [r0, #52]
 780 0034 8363     		str	r3, [r0, #56]
 781 0036 C363     		str	r3, [r0, #60]
 782              		.loc 1 291 0
 783 0038 0120     		movs	r0, #1
 784              	.LVL92:
 785 003a 7047     		bx	lr
 786              	.L44:
 787              		.align	2
 788              	.L43:
 789 003c 00000000 		.word	.LANCHOR1
 790              		.cfi_endproc
 791              	.LFE133:
 792              		.size	sduRequestsHook, .-sduRequestsHook
 793              		.section	.text.sduDataTransmitted,"ax",%progbits
 794              		.align	2
 795              		.p2align 4,,15
 796              		.global	sduDataTransmitted
 797              		.thumb
 798              		.thumb_func
 799              		.type	sduDataTransmitted, %function
 800              	sduDataTransmitted:
 801              	.LFB134:
 802              		.loc 1 307 0
 803              		.cfi_startproc
 804              		@ args = 0, pretend = 0, frame = 0
 805              		@ frame_needed = 0, uses_anonymous_args = 0
 806              	.LVL93:
 807 0000 F8B5     		push	{r3, r4, r5, r6, r7, lr}
 808              	.LCFI7:
 809              		.cfi_def_cfa_offset 24
 810              		.cfi_offset 3, -24
 811              		.cfi_offset 4, -20
 812              		.cfi_offset 5, -16
 813              		.cfi_offset 6, -12
 814              		.cfi_offset 7, -8
 815              		.cfi_offset 14, -4
 816              		.loc 1 309 0
 817 0002 8468     		ldr	r4, [r0, #8]
 818              	.LVL94:
 819              		.loc 1 307 0
 820 0004 0546     		mov	r5, r0
 821 0006 0E46     		mov	r6, r1
 822              	.LBB10:
 823              		.loc 1 313 0
 824 0008 2023     		movs	r3, #32
 825              	.LVL95:
 826              	@ 313 "../../../os/hal/src/serial_usb.c" 1
 827 000a 83F31188 		msr     BASEPRI, r3
 828              	@ 0 "" 2
 829              	.LVL96:
 830              		.thumb
 831              	.LBE10:
 832 000e FFF7FEFF 		bl	dbg_check_lock_from_isr
 833              	.LVL97:
 834              		.loc 1 314 0
 835 0012 0821     		movs	r1, #8
ARM GAS  C:\cygwin\tmp\ccSwGmbi.s 			page 16


 836 0014 201D     		adds	r0, r4, #4
 837 0016 FFF7FEFF 		bl	chEvtBroadcastFlagsI
 838              	.LVL98:
 839              		.loc 1 316 0
 840 001a 216C     		ldr	r1, [r4, #64]
 841 001c E26B     		ldr	r2, [r4, #60]
 842 001e A36B     		ldr	r3, [r4, #56]
 843 0020 8A1A     		subs	r2, r1, r2
 844              	.LVL99:
 845 0022 D71A     		subs	r7, r2, r3
 846              	.LVL100:
 847 0024 10D1     		bne	.L52
 848              		.loc 1 326 0
 849 0026 331D     		adds	r3, r6, #4
 850 0028 55F82320 		ldr	r2, [r5, r3, lsl #2]
 851 002c 5369     		ldr	r3, [r2, #20]
 852 002e 5B68     		ldr	r3, [r3, #4]
 853 0030 23B1     		cbz	r3, .L47
 854              		.loc 1 328 0 discriminator 1
 855 0032 128A     		ldrh	r2, [r2, #16]
 856 0034 013A     		subs	r2, r2, #1
 857              		.loc 1 326 0 discriminator 1
 858 0036 12EA0307 		ands	r7, r2, r3
 859              	.LVL101:
 860 003a 1BD0     		beq	.L53
 861              	.LVL102:
 862              	.L47:
 863              		.loc 1 341 0
 864 003c FFF7FEFF 		bl	dbg_check_unlock_from_isr
 865              	.LVL103:
 866              	.LBB11:
 867 0040 0023     		movs	r3, #0
 868              	.LVL104:
 869              	@ 341 "../../../os/hal/src/serial_usb.c" 1
 870 0042 83F31188 		msr     BASEPRI, r3
 871              	@ 0 "" 2
 872              	.LVL105:
 873              		.thumb
 874 0046 F8BD     		pop	{r3, r4, r5, r6, r7, pc}
 875              	.LVL106:
 876              	.L52:
 877              	.LBE11:
 878              		.loc 1 319 0
 879 0048 FFF7FEFF 		bl	dbg_check_unlock_from_isr
 880              	.LVL107:
 881              	.LBB12:
 882 004c 0023     		movs	r3, #0
 883              	.LVL108:
 884              	@ 319 "../../../os/hal/src/serial_usb.c" 1
 885 004e 83F31188 		msr     BASEPRI, r3
 886              	@ 0 "" 2
 887              	.LVL109:
 888              		.thumb
 889              	.LBE12:
 890              		.loc 1 321 0
 891 0052 3B46     		mov	r3, r7
 892              	.LVL110:
ARM GAS  C:\cygwin\tmp\ccSwGmbi.s 			page 17


 893              	.L51:
 894              		.loc 1 335 0
 895 0054 2846     		mov	r0, r5
 896 0056 3146     		mov	r1, r6
 897 0058 04F13002 		add	r2, r4, #48
 898 005c FFF7FEFF 		bl	usbPrepareQueuedTransmit
 899              	.LVL111:
 900              	.LBB13:
 901              		.loc 1 337 0
 902 0060 2023     		movs	r3, #32
 903              	.LVL112:
 904              	@ 337 "../../../os/hal/src/serial_usb.c" 1
 905 0062 83F31188 		msr     BASEPRI, r3
 906              	@ 0 "" 2
 907              	.LVL113:
 908              		.thumb
 909              	.LBE13:
 910 0066 FFF7FEFF 		bl	dbg_check_lock_from_isr
 911              	.LVL114:
 912              		.loc 1 338 0
 913 006a 2846     		mov	r0, r5
 914 006c 3146     		mov	r1, r6
 915 006e FFF7FEFF 		bl	usbStartTransmitI
 916              	.LVL115:
 917 0072 E3E7     		b	.L47
 918              	.LVL116:
 919              	.L53:
 920              		.loc 1 333 0
 921 0074 FFF7FEFF 		bl	dbg_check_unlock_from_isr
 922              	.LVL117:
 923              	.LBB14:
 924 0078 3B46     		mov	r3, r7
 925              	@ 333 "../../../os/hal/src/serial_usb.c" 1
 926 007a 83F31188 		msr     BASEPRI, r3
 927              	@ 0 "" 2
 928              	.LVL118:
 929              		.thumb
 930 007e E9E7     		b	.L51
 931              	.LBE14:
 932              		.cfi_endproc
 933              	.LFE134:
 934              		.size	sduDataTransmitted, .-sduDataTransmitted
 935              		.section	.text.sduDataReceived,"ax",%progbits
 936              		.align	2
 937              		.p2align 4,,15
 938              		.global	sduDataReceived
 939              		.thumb
 940              		.thumb_func
 941              		.type	sduDataReceived, %function
 942              	sduDataReceived:
 943              	.LFB135:
 944              		.loc 1 352 0
 945              		.cfi_startproc
 946              		@ args = 0, pretend = 0, frame = 0
 947              		@ frame_needed = 0, uses_anonymous_args = 0
 948              	.LVL119:
 949 0000 2DE9F041 		push	{r4, r5, r6, r7, r8, lr}
ARM GAS  C:\cygwin\tmp\ccSwGmbi.s 			page 18


 950              	.LCFI8:
 951              		.cfi_def_cfa_offset 24
 952              		.cfi_offset 4, -24
 953              		.cfi_offset 5, -20
 954              		.cfi_offset 6, -16
 955              		.cfi_offset 7, -12
 956              		.cfi_offset 8, -8
 957              		.cfi_offset 14, -4
 958              	.LBB15:
 959              		.loc 1 358 0
 960 0004 2023     		movs	r3, #32
 961              	.LVL120:
 962              	.LBE15:
 963              		.loc 1 354 0
 964 0006 8468     		ldr	r4, [r0, #8]
 965              	.LVL121:
 966              		.loc 1 352 0
 967 0008 0546     		mov	r5, r0
 968 000a 8846     		mov	r8, r1
 969              	.LBB16:
 970              		.loc 1 358 0
 971              	@ 358 "../../../os/hal/src/serial_usb.c" 1
 972 000c 83F31188 		msr     BASEPRI, r3
 973              	@ 0 "" 2
 974              	.LVL122:
 975              		.thumb
 976              	.LBE16:
 977 0010 FFF7FEFF 		bl	dbg_check_lock_from_isr
 978              	.LVL123:
 979              		.loc 1 359 0
 980 0014 0421     		movs	r1, #4
 981 0016 201D     		adds	r0, r4, #4
 982 0018 FFF7FEFF 		bl	chEvtBroadcastFlagsI
 983              	.LVL124:
 984              		.loc 1 363 0
 985 001c 6969     		ldr	r1, [r5, #20]
 986              		.loc 1 364 0
 987 001e E769     		ldr	r7, [r4, #28]
 988 0020 A269     		ldr	r2, [r4, #24]
 989 0022 6369     		ldr	r3, [r4, #20]
 990              		.loc 1 363 0
 991 0024 4E8A     		ldrh	r6, [r1, #18]
 992              	.LVL125:
 993              		.loc 1 364 0
 994 0026 BF1A     		subs	r7, r7, r2
 995 0028 FF1A     		subs	r7, r7, r3
 996              	.LVL126:
 997 002a BE42     		cmp	r6, r7
 998 002c 17D8     		bhi	.L55
 999              		.loc 1 367 0
 1000 002e FFF7FEFF 		bl	dbg_check_unlock_from_isr
 1001              	.LVL127:
 1002              	.LBB17:
 1003 0032 0023     		movs	r3, #0
 1004              	.LVL128:
 1005              	@ 367 "../../../os/hal/src/serial_usb.c" 1
 1006 0034 83F31188 		msr     BASEPRI, r3
ARM GAS  C:\cygwin\tmp\ccSwGmbi.s 			page 19


 1007              	@ 0 "" 2
 1008              	.LVL129:
 1009              		.thumb
 1010              	.LBE17:
 1011              		.loc 1 369 0
 1012 0038 B7FBF6F3 		udiv	r3, r7, r6
 1013              	.LVL130:
 1014              		.loc 1 370 0
 1015 003c 06FB03F3 		mul	r3, r6, r3
 1016              	.LVL131:
 1017 0040 2846     		mov	r0, r5
 1018 0042 4146     		mov	r1, r8
 1019 0044 04F10C02 		add	r2, r4, #12
 1020 0048 FFF7FEFF 		bl	usbPrepareQueuedReceive
 1021              	.LVL132:
 1022              	.LBB18:
 1023              		.loc 1 372 0
 1024 004c 2023     		movs	r3, #32
 1025              	.LVL133:
 1026              	@ 372 "../../../os/hal/src/serial_usb.c" 1
 1027 004e 83F31188 		msr     BASEPRI, r3
 1028              	@ 0 "" 2
 1029              	.LVL134:
 1030              		.thumb
 1031              	.LBE18:
 1032 0052 FFF7FEFF 		bl	dbg_check_lock_from_isr
 1033              	.LVL135:
 1034              		.loc 1 373 0
 1035 0056 2846     		mov	r0, r5
 1036 0058 4146     		mov	r1, r8
 1037 005a FFF7FEFF 		bl	usbStartReceiveI
 1038              	.LVL136:
 1039              	.L55:
 1040              		.loc 1 376 0
 1041 005e FFF7FEFF 		bl	dbg_check_unlock_from_isr
 1042              	.LVL137:
 1043              	.LBB19:
 1044 0062 0023     		movs	r3, #0
 1045              	.LVL138:
 1046              	@ 376 "../../../os/hal/src/serial_usb.c" 1
 1047 0064 83F31188 		msr     BASEPRI, r3
 1048              	@ 0 "" 2
 1049              	.LVL139:
 1050              		.thumb
 1051 0068 BDE8F081 		pop	{r4, r5, r6, r7, r8, pc}
 1052              	.LBE19:
 1053              		.cfi_endproc
 1054              	.LFE135:
 1055              		.size	sduDataReceived, .-sduDataReceived
 1056 006c AFF30080 		.section	.text.sduInterruptTransmitted,"ax",%progbits
 1057              		.align	2
 1058              		.p2align 4,,15
 1059              		.global	sduInterruptTransmitted
 1060              		.thumb
 1061              		.thumb_func
 1062              		.type	sduInterruptTransmitted, %function
 1063              	sduInterruptTransmitted:
ARM GAS  C:\cygwin\tmp\ccSwGmbi.s 			page 20


 1064              	.LFB136:
 1065              		.loc 1 387 0
 1066              		.cfi_startproc
 1067              		@ args = 0, pretend = 0, frame = 0
 1068              		@ frame_needed = 0, uses_anonymous_args = 0
 1069              		@ link register save eliminated.
 1070              	.LVL140:
 1071 0000 7047     		bx	lr
 1072              		.cfi_endproc
 1073              	.LFE136:
 1074              		.size	sduInterruptTransmitted, .-sduInterruptTransmitted
 1075 0002 00BFAFF3 		.section	.rodata.str1.4,"aMS",%progbits,1
 1075      0080AFF3 
 1075      0080AFF3 
 1075      0080
 1076              		.align	2
 1077              	.LC0:
 1078 0000 22736475 		.ascii	"\"sduStart\"()\000"
 1078      53746172 
 1078      74222829 
 1078      00
 1079 000d 000000   		.space	3
 1080              	.LC1:
 1081 0010 73647553 		.ascii	"sduStart(), #1\000"
 1081      74617274 
 1081      28292C20 
 1081      233100
 1082 001f 00       		.space	1
 1083              	.LC2:
 1084 0020 22736453 		.ascii	"\"sdStop\"()\000"
 1084      746F7022 
 1084      282900
 1085 002b 00       		.space	1
 1086              	.LC3:
 1087 002c 73647553 		.ascii	"sduStop(), #1\000"
 1087      746F7028 
 1087      292C2023 
 1087      3100
 1088 003a 0000     		.section	.rodata.vmt,"a",%progbits
 1089              		.align	2
 1090              		.set	.LANCHOR0,. + 0
 1091              		.type	vmt, %object
 1092              		.size	vmt, 32
 1093              	vmt:
 1094 0000 00000000 		.word	write
 1095 0004 00000000 		.word	read
 1096 0008 00000000 		.word	put
 1097 000c 00000000 		.word	get
 1098 0010 00000000 		.word	putt
 1099 0014 00000000 		.word	gett
 1100 0018 00000000 		.word	writet
 1101 001c 00000000 		.word	readt
 1102              		.section	.data.linecoding,"aw",%progbits
 1103              		.align	2
 1104              		.set	.LANCHOR1,. + 0
 1105              		.type	linecoding, %object
 1106              		.size	linecoding, 7
ARM GAS  C:\cygwin\tmp\ccSwGmbi.s 			page 21


 1107              	linecoding:
 1108 0000 00       		.byte	0
 1109 0001 96       		.byte	-106
 1110 0002 00       		.byte	0
 1111 0003 00       		.byte	0
 1112 0004 00       		.byte	0
 1113 0005 00       		.byte	0
 1114 0006 08       		.byte	8
 1115 0007 00       		.text
 1116              	.Letext0:
 1117              		.file 2 "c:\\chibinew\\tools\\yagarto-tools\\yagarto-20121222\\bin\\../lib/gcc/arm-none-eabi/4.7.2
 1118              		.file 3 "c:/chibinew/tools/yagarto-tools/yagarto-20121222/lib/gcc/../../arm-none-eabi/sys-include/
 1119              		.file 4 "../../../os/ports/GCC/ARMCMx/chtypes.h"
 1120              		.file 5 "../../../os/kernel/include/chlists.h"
 1121              		.file 6 "../../../os/kernel/include/chthreads.h"
 1122              		.file 7 "../../../os/ports/GCC/ARMCMx/chcore_v7m.h"
 1123              		.file 8 "../../../os/kernel/include/chmtx.h"
 1124              		.file 9 "../../../os/kernel/include/chevents.h"
 1125              		.file 10 "../../../os/kernel/include/chqueues.h"
 1126              		.file 11 "../../../os/hal/include/usb.h"
 1127              		.file 12 "../../../os/hal/platforms/STM32/USBv1/usb_lld.h"
 1128              		.file 13 "../../../os/hal/include/serial_usb.h"
 1129              		.file 14 "../../../os/hal/include/usb_cdc.h"
 1130              		.file 15 "../../../os/kernel/include/chdebug.h"
 1131              		.file 16 "../../../os/ports/common/ARMCMx/CMSIS/include/core_cm4.h"