ARM GAS  C:\cygwin\tmp\ccn6Nsrb.s 			page 1


   1              		.syntax unified
   2              		.cpu cortex-m4
   3              		.fpu softvfp
   4              		.eabi_attribute 20, 1
   5              		.eabi_attribute 21, 1
   6              		.eabi_attribute 23, 3
   7              		.eabi_attribute 24, 1
   8              		.eabi_attribute 25, 1
   9              		.eabi_attribute 26, 1
  10              		.eabi_attribute 30, 2
  11              		.eabi_attribute 34, 1
  12              		.eabi_attribute 18, 4
  13              		.thumb
  14              		.file	"uart_lld.c"
  15              		.text
  16              	.Ltext0:
  17              		.cfi_sections	.debug_frame
  18              		.section	.text.set_rx_idle_loop,"ax",%progbits
  19              		.align	2
  20              		.p2align 4,,15
  21              		.thumb
  22              		.thumb_func
  23              		.type	set_rx_idle_loop, %function
  24              	set_rx_idle_loop:
  25              	.LFB119:
  26              		.file 1 "../../../os/hal/platforms/STM32/USARTv2/uart_lld.c"
  27              		.loc 1 117 0
  28              		.cfi_startproc
  29              		@ args = 0, pretend = 0, frame = 0
  30              		@ frame_needed = 0, uses_anonymous_args = 0
  31              		@ link register save eliminated.
  32              	.LVL0:
  33              		.loc 1 122 0
  34 0000 4368     		ldr	r3, [r0, #4]
  35              		.loc 1 117 0
  36 0002 10B4     		push	{r4}
  37              	.LCFI0:
  38              		.cfi_def_cfa_offset 4
  39              		.cfi_offset 4, -4
  40              		.loc 1 126 0
  41 0004 0469     		ldr	r4, [r0, #16]
  42              		.loc 1 122 0
  43 0006 DA68     		ldr	r2, [r3, #12]
  44              		.loc 1 126 0
  45 0008 2368     		ldr	r3, [r4, #0]
  46 000a 00F11801 		add	r1, r0, #24
  47              		.loc 1 128 0
  48 000e C068     		ldr	r0, [r0, #12]
  49              	.LVL1:
  50              		.loc 1 126 0
  51 0010 D960     		str	r1, [r3, #12]
  52              		.loc 1 123 0
  53 0012 002A     		cmp	r2, #0
  54 0014 14BF     		ite	ne
  55 0016 2222     		movne	r2, #34
  56 0018 2022     		moveq	r2, #32
  57              	.LVL2:
ARM GAS  C:\cygwin\tmp\ccn6Nsrb.s 			page 2


  58              		.loc 1 128 0
  59 001a 0243     		orrs	r2, r2, r0
  60              	.LVL3:
  61              		.loc 1 127 0
  62 001c 0121     		movs	r1, #1
  63              	.LVL4:
  64 001e 5960     		str	r1, [r3, #4]
  65              		.loc 1 128 0
  66 0020 1A60     		str	r2, [r3, #0]
  67              		.loc 1 129 0
  68 0022 1A68     		ldr	r2, [r3, #0]
  69 0024 0A43     		orrs	r2, r2, r1
  70 0026 1A60     		str	r2, [r3, #0]
  71              		.loc 1 130 0
  72 0028 10BC     		pop	{r4}
  73 002a 7047     		bx	lr
  74              		.cfi_endproc
  75              	.LFE119:
  76              		.size	set_rx_idle_loop, .-set_rx_idle_loop
  77 002c AFF30080 		.section	.text.usart_stop,"ax",%progbits
  78              		.align	2
  79              		.p2align 4,,15
  80              		.thumb
  81              		.thumb_func
  82              		.type	usart_stop, %function
  83              	usart_stop:
  84              	.LFB120:
  85              		.loc 1 138 0
  86              		.cfi_startproc
  87              		@ args = 0, pretend = 0, frame = 0
  88              		@ frame_needed = 0, uses_anonymous_args = 0
  89              		@ link register save eliminated.
  90              	.LVL5:
  91              		.loc 1 141 0
  92 0000 0169     		ldr	r1, [r0, #16]
  93              		.loc 1 142 0
  94 0002 4269     		ldr	r2, [r0, #20]
  95              		.loc 1 145 0
  96 0004 8368     		ldr	r3, [r0, #8]
  97              		.loc 1 138 0
  98 0006 2DE9F001 		push	{r4, r5, r6, r7, r8}
  99              	.LCFI1:
 100              		.cfi_def_cfa_offset 20
 101              		.cfi_offset 4, -20
 102              		.cfi_offset 5, -16
 103              		.cfi_offset 6, -12
 104              		.cfi_offset 7, -8
 105              		.cfi_offset 8, -4
 106              		.loc 1 141 0
 107 000a 91E84010 		ldmia	r1, {r6, ip}
 108 000e D6F80080 		ldr	r8, [r6, #0]
 109 0012 28F00100 		bic	r0, r8, #1
 110              	.LVL6:
 111              		.loc 1 142 0
 112 0016 92E8A000 		ldmia	r2, {r5, r7}
 113              		.loc 1 141 0
 114 001a 3060     		str	r0, [r6, #0]
ARM GAS  C:\cygwin\tmp\ccn6Nsrb.s 			page 3


 115 001c 097A     		ldrb	r1, [r1, #8]	@ zero_extendqisi2
 116 001e 0F24     		movs	r4, #15
 117 0020 04FA01F1 		lsl	r1, r4, r1
 118 0024 CCF80010 		str	r1, [ip, #0]
 119              		.loc 1 142 0
 120 0028 2968     		ldr	r1, [r5, #0]
 121 002a 21F00101 		bic	r1, r1, #1
 122 002e 2960     		str	r1, [r5, #0]
 123 0030 117A     		ldrb	r1, [r2, #8]	@ zero_extendqisi2
 124              		.loc 1 145 0
 125 0032 0022     		movs	r2, #0
 126              		.loc 1 142 0
 127 0034 04FA01F4 		lsl	r4, r4, r1
 128 0038 3C60     		str	r4, [r7, #0]
 129              		.loc 1 145 0
 130 003a 1A60     		str	r2, [r3, #0]
 131              		.loc 1 146 0
 132 003c 5A60     		str	r2, [r3, #4]
 133              		.loc 1 147 0
 134 003e 9A60     		str	r2, [r3, #8]
 135              		.loc 1 148 0
 136 0040 BDE8F001 		pop	{r4, r5, r6, r7, r8}
 137 0044 7047     		bx	lr
 138              		.cfi_endproc
 139              	.LFE120:
 140              		.size	usart_stop, .-usart_stop
 141              		.section	.text.uart_lld_serve_tx_end_irq,"ax",%progbits
 142              		.align	2
 143              		.p2align 4,,15
 144              		.thumb
 145              		.thumb_func
 146              		.type	uart_lld_serve_tx_end_irq, %function
 147              	uart_lld_serve_tx_end_irq:
 148              	.LFB123:
 149              		.loc 1 241 0
 150              		.cfi_startproc
 151              		@ args = 0, pretend = 0, frame = 0
 152              		@ frame_needed = 0, uses_anonymous_args = 0
 153              	.LVL7:
 154 0000 38B5     		push	{r3, r4, r5, lr}
 155              	.LCFI2:
 156              		.cfi_def_cfa_offset 16
 157              		.cfi_offset 3, -16
 158              		.cfi_offset 4, -12
 159              		.cfi_offset 5, -8
 160              		.cfi_offset 14, -4
 161              		.loc 1 245 0
 162 0002 0B07     		lsls	r3, r1, #28
 163              		.loc 1 241 0
 164 0004 0446     		mov	r4, r0
 165              		.loc 1 245 0
 166 0006 19D4     		bmi	.L17
 167              	.LVL8:
 168              	.L6:
 169              		.loc 1 252 0
 170 0008 6369     		ldr	r3, [r4, #20]
 171              		.loc 1 256 0
ARM GAS  C:\cygwin\tmp\ccn6Nsrb.s 			page 4


 172 000a 6168     		ldr	r1, [r4, #4]
 173              		.loc 1 252 0
 174 000c 1A68     		ldr	r2, [r3, #0]
 175 000e 5868     		ldr	r0, [r3, #4]
 176 0010 1568     		ldr	r5, [r2, #0]
 177              		.loc 1 256 0
 178 0012 0968     		ldr	r1, [r1, #0]
 179              		.loc 1 252 0
 180 0014 25F00105 		bic	r5, r5, #1
 181 0018 1560     		str	r5, [r2, #0]
 182 001a 1B7A     		ldrb	r3, [r3, #8]	@ zero_extendqisi2
 183 001c 0F22     		movs	r2, #15
 184 001e 02FA03F3 		lsl	r3, r2, r3
 185 0022 0360     		str	r3, [r0, #0]
 186              		.loc 1 255 0
 187 0024 0223     		movs	r3, #2
 188 0026 6370     		strb	r3, [r4, #1]
 189              		.loc 1 256 0
 190 0028 29B1     		cbz	r1, .L9
 191              		.loc 1 257 0
 192 002a 2046     		mov	r0, r4
 193 002c 8847     		blx	r1
 194              	.LVL9:
 195              		.loc 1 261 0
 196 002e 6378     		ldrb	r3, [r4, #1]	@ zero_extendqisi2
 197 0030 022B     		cmp	r3, #2
 198 0032 00D0     		beq	.L9
 199 0034 38BD     		pop	{r3, r4, r5, pc}
 200              	.L9:
 201              		.loc 1 262 0
 202 0036 0023     		movs	r3, #0
 203 0038 6370     		strb	r3, [r4, #1]
 204 003a 38BD     		pop	{r3, r4, r5, pc}
 205              	.LVL10:
 206              	.L17:
 207              		.loc 1 246 0
 208 003c FFF7FEFF 		bl	port_halt
 209              	.LVL11:
 210 0040 E2E7     		b	.L6
 211              		.cfi_endproc
 212              	.LFE123:
 213              		.size	uart_lld_serve_tx_end_irq, .-uart_lld_serve_tx_end_irq
 214 0042 00BFAFF3 		.section	.text.serve_usart_irq,"ax",%progbits
 214      0080AFF3 
 214      0080AFF3 
 214      0080
 215              		.align	2
 216              		.p2align 4,,15
 217              		.thumb
 218              		.thumb_func
 219              		.type	serve_usart_irq, %function
 220              	serve_usart_irq:
 221              	.LFB124:
 222              		.loc 1 270 0
 223              		.cfi_startproc
 224              		@ args = 0, pretend = 0, frame = 0
 225              		@ frame_needed = 0, uses_anonymous_args = 0
ARM GAS  C:\cygwin\tmp\ccn6Nsrb.s 			page 5


 226              	.LVL12:
 227              		.loc 1 272 0
 228 0000 8268     		ldr	r2, [r0, #8]
 229              	.LVL13:
 230              		.loc 1 270 0
 231 0002 38B5     		push	{r3, r4, r5, lr}
 232              	.LCFI3:
 233              		.cfi_def_cfa_offset 16
 234              		.cfi_offset 3, -16
 235              		.cfi_offset 4, -12
 236              		.cfi_offset 5, -8
 237              		.cfi_offset 14, -4
 238              		.loc 1 275 0
 239 0004 D469     		ldr	r4, [r2, #28]
 240              	.LVL14:
 241              		.loc 1 278 0
 242 0006 40F20F13 		movw	r3, #271
 243 000a 2340     		ands	r3, r3, r4
 244              		.loc 1 270 0
 245 000c 0546     		mov	r5, r0
 246              		.loc 1 276 0
 247 000e 1462     		str	r4, [r2, #32]
 248              		.loc 1 278 0
 249 0010 CBB1     		cbz	r3, .L19
 250              		.loc 1 280 0
 251 0012 4368     		ldr	r3, [r0, #4]
 252 0014 1B69     		ldr	r3, [r3, #16]
 253 0016 B3B1     		cbz	r3, .L19
 254              	.LVL15:
 255              	.LBB6:
 256              	.LBB7:
 257              		.loc 1 100 0
 258 0018 14F0080F 		tst	r4, #8
 259 001c 0CBF     		ite	eq
 260 001e 0021     		moveq	r1, #0
 261 0020 1021     		movne	r1, #16
 262              	.LVL16:
 263              		.loc 1 101 0
 264 0022 E207     		lsls	r2, r4, #31
 265              	.LVL17:
 266              		.loc 1 102 0
 267 0024 48BF     		it	mi
 268 0026 41F00401 		orrmi	r1, r1, #4
 269              	.LVL18:
 270              		.loc 1 103 0
 271 002a A007     		lsls	r0, r4, #30
 272              	.LVL19:
 273              		.loc 1 104 0
 274 002c 48BF     		it	mi
 275 002e 41F00801 		orrmi	r1, r1, #8
 276              	.LVL20:
 277              		.loc 1 105 0
 278 0032 6207     		lsls	r2, r4, #29
 279              		.loc 1 106 0
 280 0034 48BF     		it	mi
 281 0036 41F02001 		orrmi	r1, r1, #32
 282              	.LVL21:
ARM GAS  C:\cygwin\tmp\ccn6Nsrb.s 			page 6


 283              		.loc 1 107 0
 284 003a E005     		lsls	r0, r4, #23
 285              		.loc 1 108 0
 286 003c 48BF     		it	mi
 287 003e 41F04001 		orrmi	r1, r1, #64
 288              	.LVL22:
 289              	.LBE7:
 290              	.LBE6:
 291              		.loc 1 281 0
 292 0042 2846     		mov	r0, r5
 293 0044 9847     		blx	r3
 294              	.LVL23:
 295              	.L19:
 296              		.loc 1 283 0
 297 0046 6206     		lsls	r2, r4, #25
 298 0048 04D5     		bpl	.L18
 299              	.LVL24:
 300              	.LBB8:
 301              	.LBB9:
 302              		.loc 1 285 0
 303 004a 6B68     		ldr	r3, [r5, #4]
 304 004c 5B68     		ldr	r3, [r3, #4]
 305 004e 0BB1     		cbz	r3, .L18
 306              		.loc 1 286 0
 307 0050 2846     		mov	r0, r5
 308 0052 9847     		blx	r3
 309              	.LVL25:
 310              	.L18:
 311 0054 38BD     		pop	{r3, r4, r5, pc}
 312              	.LBE9:
 313              	.LBE8:
 314              		.cfi_endproc
 315              	.LFE124:
 316              		.size	serve_usart_irq, .-serve_usart_irq
 317 0056 00BFAFF3 		.section	.text.uart_lld_serve_rx_end_irq,"ax",%progbits
 317      0080AFF3 
 317      0080
 318              		.align	2
 319              		.p2align 4,,15
 320              		.thumb
 321              		.thumb_func
 322              		.type	uart_lld_serve_rx_end_irq, %function
 323              	uart_lld_serve_rx_end_irq:
 324              	.LFB122:
 325              		.loc 1 201 0
 326              		.cfi_startproc
 327              		@ args = 0, pretend = 0, frame = 0
 328              		@ frame_needed = 0, uses_anonymous_args = 0
 329              	.LVL26:
 330              		.loc 1 205 0
 331 0000 0907     		lsls	r1, r1, #28
 332              	.LVL27:
 333              		.loc 1 201 0
 334 0002 38B5     		push	{r3, r4, r5, lr}
 335              	.LCFI4:
 336              		.cfi_def_cfa_offset 16
 337              		.cfi_offset 3, -16
ARM GAS  C:\cygwin\tmp\ccn6Nsrb.s 			page 7


 338              		.cfi_offset 4, -12
 339              		.cfi_offset 5, -8
 340              		.cfi_offset 14, -4
 341              		.loc 1 201 0
 342 0004 0446     		mov	r4, r0
 343              		.loc 1 205 0
 344 0006 20D4     		bmi	.L65
 345              	.LVL28:
 346              	.L52:
 347              		.loc 1 212 0
 348 0008 A378     		ldrb	r3, [r4, #2]	@ zero_extendqisi2
 349 000a 3BB9     		cbnz	r3, .L53
 350              		.loc 1 215 0
 351 000c 6368     		ldr	r3, [r4, #4]
 352 000e DB68     		ldr	r3, [r3, #12]
 353 0010 D3B1     		cbz	r3, .L51
 354              		.loc 1 216 0
 355 0012 218B     		ldrh	r1, [r4, #24]
 356 0014 2046     		mov	r0, r4
 357 0016 89B2     		uxth	r1, r1
 358 0018 9847     		blx	r3
 359              	.LVL29:
 360 001a 38BD     		pop	{r3, r4, r5, pc}
 361              	.L53:
 362              	.LVL30:
 363              	.LBB12:
 364              	.LBB13:
 365              		.loc 1 221 0
 366 001c 2369     		ldr	r3, [r4, #16]
 367              		.loc 1 223 0
 368 001e 6168     		ldr	r1, [r4, #4]
 369              		.loc 1 221 0
 370 0020 1A68     		ldr	r2, [r3, #0]
 371 0022 5868     		ldr	r0, [r3, #4]
 372 0024 1568     		ldr	r5, [r2, #0]
 373              		.loc 1 223 0
 374 0026 8968     		ldr	r1, [r1, #8]
 375              		.loc 1 221 0
 376 0028 25F00105 		bic	r5, r5, #1
 377 002c 1560     		str	r5, [r2, #0]
 378 002e 1B7A     		ldrb	r3, [r3, #8]	@ zero_extendqisi2
 379 0030 0F22     		movs	r2, #15
 380 0032 02FA03F3 		lsl	r3, r2, r3
 381 0036 0360     		str	r3, [r0, #0]
 382              		.loc 1 222 0
 383 0038 0223     		movs	r3, #2
 384 003a A370     		strb	r3, [r4, #2]
 385              		.loc 1 223 0
 386 003c 41B1     		cbz	r1, .L57
 387              		.loc 1 224 0
 388 003e 2046     		mov	r0, r4
 389 0040 8847     		blx	r1
 390              	.LVL31:
 391              		.loc 1 228 0
 392 0042 A378     		ldrb	r3, [r4, #2]	@ zero_extendqisi2
 393 0044 022B     		cmp	r3, #2
 394 0046 03D0     		beq	.L57
ARM GAS  C:\cygwin\tmp\ccn6Nsrb.s 			page 8


 395              	.LVL32:
 396              	.L51:
 397 0048 38BD     		pop	{r3, r4, r5, pc}
 398              	.LVL33:
 399              	.L65:
 400              	.LBE13:
 401              	.LBE12:
 402              		.loc 1 206 0
 403 004a FFF7FEFF 		bl	port_halt
 404              	.LVL34:
 405 004e DBE7     		b	.L52
 406              	.LVL35:
 407              	.L57:
 408              	.LBB16:
 409              	.LBB14:
 410              		.loc 1 229 0
 411 0050 0023     		movs	r3, #0
 412              		.loc 1 230 0
 413 0052 2046     		mov	r0, r4
 414              		.loc 1 229 0
 415 0054 A370     		strb	r3, [r4, #2]
 416              	.LBE14:
 417              	.LBE16:
 418              		.loc 1 233 0
 419 0056 BDE83840 		pop	{r3, r4, r5, lr}
 420              	.LBB17:
 421              	.LBB15:
 422              		.loc 1 230 0
 423 005a FFF7FEBF 		b	set_rx_idle_loop
 424              	.LVL36:
 425              	.LBE15:
 426              	.LBE17:
 427              		.cfi_endproc
 428              	.LFE122:
 429              		.size	uart_lld_serve_rx_end_irq, .-uart_lld_serve_rx_end_irq
 430 005e 00BF     		.section	.text.VectorD4,"ax",%progbits
 431              		.align	2
 432              		.p2align 4,,15
 433              		.global	VectorD4
 434              		.thumb
 435              		.thumb_func
 436              		.type	VectorD4, %function
 437              	VectorD4:
 438              	.LFB125:
 439              		.loc 1 303 0
 440              		.cfi_startproc
 441              		@ args = 0, pretend = 0, frame = 0
 442              		@ frame_needed = 0, uses_anonymous_args = 0
 443 0000 08B5     		push	{r3, lr}
 444              	.LCFI5:
 445              		.cfi_def_cfa_offset 8
 446              		.cfi_offset 3, -8
 447              		.cfi_offset 14, -4
 448              		.loc 1 305 0
 449 0002 FFF7FEFF 		bl	dbg_check_enter_isr
 450              	.LVL37:
 451              		.loc 1 307 0
ARM GAS  C:\cygwin\tmp\ccn6Nsrb.s 			page 9


 452 0006 40F20000 		movw	r0, #:lower16:.LANCHOR0
 453 000a C0F20000 		movt	r0, #:upper16:.LANCHOR0
 454 000e FFF7FEFF 		bl	serve_usart_irq
 455              	.LVL38:
 456              		.loc 1 309 0
 457 0012 FFF7FEFF 		bl	dbg_check_leave_isr
 458              	.LVL39:
 459              		.loc 1 310 0
 460 0016 BDE80840 		pop	{r3, lr}
 461              		.loc 1 309 0
 462 001a FFF7FEBF 		b	_port_irq_epilogue
 463              	.LVL40:
 464              		.cfi_endproc
 465              	.LFE125:
 466              		.size	VectorD4, .-VectorD4
 467 001e 00BF     		.section	.text.VectorD8,"ax",%progbits
 468              		.align	2
 469              		.p2align 4,,15
 470              		.global	VectorD8
 471              		.thumb
 472              		.thumb_func
 473              		.type	VectorD8, %function
 474              	VectorD8:
 475              	.LFB126:
 476              		.loc 1 322 0
 477              		.cfi_startproc
 478              		@ args = 0, pretend = 0, frame = 0
 479              		@ frame_needed = 0, uses_anonymous_args = 0
 480 0000 08B5     		push	{r3, lr}
 481              	.LCFI6:
 482              		.cfi_def_cfa_offset 8
 483              		.cfi_offset 3, -8
 484              		.cfi_offset 14, -4
 485              		.loc 1 324 0
 486 0002 FFF7FEFF 		bl	dbg_check_enter_isr
 487              	.LVL41:
 488              		.loc 1 326 0
 489 0006 40F20000 		movw	r0, #:lower16:.LANCHOR1
 490 000a C0F20000 		movt	r0, #:upper16:.LANCHOR1
 491 000e FFF7FEFF 		bl	serve_usart_irq
 492              	.LVL42:
 493              		.loc 1 328 0
 494 0012 FFF7FEFF 		bl	dbg_check_leave_isr
 495              	.LVL43:
 496              		.loc 1 329 0
 497 0016 BDE80840 		pop	{r3, lr}
 498              		.loc 1 328 0
 499 001a FFF7FEBF 		b	_port_irq_epilogue
 500              	.LVL44:
 501              		.cfi_endproc
 502              	.LFE126:
 503              		.size	VectorD8, .-VectorD8
 504 001e 00BF     		.section	.text.VectorDC,"ax",%progbits
 505              		.align	2
 506              		.p2align 4,,15
 507              		.global	VectorDC
 508              		.thumb
ARM GAS  C:\cygwin\tmp\ccn6Nsrb.s 			page 10


 509              		.thumb_func
 510              		.type	VectorDC, %function
 511              	VectorDC:
 512              	.LFB127:
 513              		.loc 1 341 0
 514              		.cfi_startproc
 515              		@ args = 0, pretend = 0, frame = 0
 516              		@ frame_needed = 0, uses_anonymous_args = 0
 517 0000 08B5     		push	{r3, lr}
 518              	.LCFI7:
 519              		.cfi_def_cfa_offset 8
 520              		.cfi_offset 3, -8
 521              		.cfi_offset 14, -4
 522              		.loc 1 343 0
 523 0002 FFF7FEFF 		bl	dbg_check_enter_isr
 524              	.LVL45:
 525              		.loc 1 345 0
 526 0006 40F20000 		movw	r0, #:lower16:.LANCHOR2
 527 000a C0F20000 		movt	r0, #:upper16:.LANCHOR2
 528 000e FFF7FEFF 		bl	serve_usart_irq
 529              	.LVL46:
 530              		.loc 1 347 0
 531 0012 FFF7FEFF 		bl	dbg_check_leave_isr
 532              	.LVL47:
 533              		.loc 1 348 0
 534 0016 BDE80840 		pop	{r3, lr}
 535              		.loc 1 347 0
 536 001a FFF7FEBF 		b	_port_irq_epilogue
 537              	.LVL48:
 538              		.cfi_endproc
 539              	.LFE127:
 540              		.size	VectorDC, .-VectorDC
 541 001e 00BF     		.section	.text.uart_lld_init,"ax",%progbits
 542              		.align	2
 543              		.p2align 4,,15
 544              		.global	uart_lld_init
 545              		.thumb
 546              		.thumb_func
 547              		.type	uart_lld_init, %function
 548              	uart_lld_init:
 549              	.LFB128:
 550              		.loc 1 360 0
 551              		.cfi_startproc
 552              		@ args = 0, pretend = 0, frame = 0
 553              		@ frame_needed = 0, uses_anonymous_args = 0
 554 0000 2DE9F041 		push	{r4, r5, r6, r7, r8, lr}
 555              	.LCFI8:
 556              		.cfi_def_cfa_offset 24
 557              		.cfi_offset 4, -24
 558              		.cfi_offset 5, -20
 559              		.cfi_offset 6, -16
 560              		.cfi_offset 7, -12
 561              		.cfi_offset 8, -8
 562              		.cfi_offset 14, -4
 563              		.loc 1 363 0
 564 0004 40F20006 		movw	r6, #:lower16:.LANCHOR0
 565 0008 C0F20006 		movt	r6, #:upper16:.LANCHOR0
ARM GAS  C:\cygwin\tmp\ccn6Nsrb.s 			page 11


 566              		.loc 1 366 0
 567 000c 1C4F     		ldr	r7, .L70
 568              		.loc 1 363 0
 569 000e 3046     		mov	r0, r6
 570              		.loc 1 371 0
 571 0010 40F20005 		movw	r5, #:lower16:.LANCHOR1
 572              		.loc 1 363 0
 573 0014 FFF7FEFF 		bl	uartObjectInit
 574              	.LVL49:
 575              		.loc 1 371 0
 576 0018 C0F20005 		movt	r5, #:upper16:.LANCHOR1
 577              		.loc 1 364 0
 578 001c 4FF46053 		mov	r3, #14336
 579              		.loc 1 367 0
 580 0020 A7F10C02 		sub	r2, r7, #12
 581              		.loc 1 365 0
 582 0024 4FF00808 		mov	r8, #8
 583              		.loc 1 364 0
 584 0028 C4F20103 		movt	r3, 16385
 585              		.loc 1 371 0
 586 002c 2846     		mov	r0, r5
 587              		.loc 1 379 0
 588 002e 40F20004 		movw	r4, #:lower16:.LANCHOR2
 589 0032 C0F20004 		movt	r4, #:upper16:.LANCHOR2
 590              		.loc 1 364 0
 591 0036 B360     		str	r3, [r6, #8]
 592              		.loc 1 366 0
 593 0038 3761     		str	r7, [r6, #16]
 594              		.loc 1 367 0
 595 003a 7261     		str	r2, [r6, #20]
 596              		.loc 1 365 0
 597 003c C6F80C80 		str	r8, [r6, #12]
 598              		.loc 1 371 0
 599 0040 FFF7FEFF 		bl	uartObjectInit
 600              	.LVL50:
 601              		.loc 1 372 0
 602 0044 4FF48843 		mov	r3, #17408
 603              		.loc 1 375 0
 604 0048 07F11802 		add	r2, r7, #24
 605              		.loc 1 372 0
 606 004c C4F20003 		movt	r3, 16384
 607              		.loc 1 374 0
 608 0050 07F10C01 		add	r1, r7, #12
 609              		.loc 1 379 0
 610 0054 2046     		mov	r0, r4
 611              		.loc 1 372 0
 612 0056 AB60     		str	r3, [r5, #8]
 613              		.loc 1 375 0
 614 0058 6A61     		str	r2, [r5, #20]
 615              		.loc 1 373 0
 616 005a C5F80C80 		str	r8, [r5, #12]
 617              		.loc 1 374 0
 618 005e 2961     		str	r1, [r5, #16]
 619              		.loc 1 379 0
 620 0060 FFF7FEFF 		bl	uartObjectInit
 621              	.LVL51:
 622              		.loc 1 380 0
ARM GAS  C:\cygwin\tmp\ccn6Nsrb.s 			page 12


 623 0064 4FF49043 		mov	r3, #18432
 624              		.loc 1 382 0
 625 0068 A7F11802 		sub	r2, r7, #24
 626              		.loc 1 380 0
 627 006c C4F20003 		movt	r3, 16384
 628              		.loc 1 383 0
 629 0070 243F     		subs	r7, r7, #36
 630              		.loc 1 380 0
 631 0072 A360     		str	r3, [r4, #8]
 632              		.loc 1 381 0
 633 0074 C4F80C80 		str	r8, [r4, #12]
 634              		.loc 1 382 0
 635 0078 2261     		str	r2, [r4, #16]
 636              		.loc 1 383 0
 637 007a 6761     		str	r7, [r4, #20]
 638 007c BDE8F081 		pop	{r4, r5, r6, r7, r8, pc}
 639              	.L71:
 640              		.align	2
 641              	.L70:
 642 0080 30000000 		.word	_stm32_dma_streams+48
 643              		.cfi_endproc
 644              	.LFE128:
 645              		.size	uart_lld_init, .-uart_lld_init
 646 0084 AFF30080 		.section	.text.uart_lld_start,"ax",%progbits
 646      AFF30080 
 646      AFF30080 
 647              		.align	2
 648              		.p2align 4,,15
 649              		.global	uart_lld_start
 650              		.thumb
 651              		.thumb_func
 652              		.type	uart_lld_start, %function
 653              	uart_lld_start:
 654              	.LFB129:
 655              		.loc 1 394 0
 656              		.cfi_startproc
 657              		@ args = 0, pretend = 0, frame = 0
 658              		@ frame_needed = 0, uses_anonymous_args = 0
 659              	.LVL52:
 660 0000 F8B5     		push	{r3, r4, r5, r6, r7, lr}
 661              	.LCFI9:
 662              		.cfi_def_cfa_offset 24
 663              		.cfi_offset 3, -24
 664              		.cfi_offset 4, -20
 665              		.cfi_offset 5, -16
 666              		.cfi_offset 6, -12
 667              		.cfi_offset 7, -8
 668              		.cfi_offset 14, -4
 669              		.loc 1 396 0
 670 0002 0378     		ldrb	r3, [r0, #0]	@ zero_extendqisi2
 671 0004 012B     		cmp	r3, #1
 672              		.loc 1 394 0
 673 0006 0446     		mov	r4, r0
 674              		.loc 1 396 0
 675 0008 2BD0     		beq	.L107
 676 000a 8568     		ldr	r5, [r0, #8]
 677              	.LVL53:
ARM GAS  C:\cygwin\tmp\ccn6Nsrb.s 			page 13


 678              	.L73:
 679              		.loc 1 469 0
 680 000c 0023     		movs	r3, #0
 681 000e A370     		strb	r3, [r4, #2]
 682              		.loc 1 470 0
 683 0010 6370     		strb	r3, [r4, #1]
 684              	.LVL54:
 685              	.LBB23:
 686              	.LBB24:
 687              		.loc 1 161 0
 688 0012 2046     		mov	r0, r4
 689 0014 FFF7FEFF 		bl	usart_stop
 690              	.LVL55:
 691              		.loc 1 171 0
 692 0018 6368     		ldr	r3, [r4, #4]
 693 001a 4FF4A242 		mov	r2, #20736
 694 001e 5969     		ldr	r1, [r3, #20]
 695              		.loc 1 184 0
 696 0020 5F68     		ldr	r7, [r3, #4]
 697              		.loc 1 171 0
 698 0022 C0F22522 		movt	r2, 549
 699 0026 B2FBF1F2 		udiv	r2, r2, r1
 700 002a 92B2     		uxth	r2, r2
 701              		.loc 1 189 0
 702 002c 03F11800 		add	r0, r3, #24
 703              		.loc 1 171 0
 704 0030 AA81     		strh	r2, [r5, #12]	@ movhi
 705              		.loc 1 189 0
 706 0032 07C8     		ldmia	r0, {r0, r1, r2}
 707              		.loc 1 185 0
 708 0034 40F20D16 		movw	r6, #269
 709 0038 40F24D13 		movw	r3, #333
 710 003c 002F     		cmp	r7, #0
 711 003e 08BF     		it	eq
 712 0040 3346     		moveq	r3, r6
 713              	.LVL56:
 714              		.loc 1 189 0
 715 0042 0343     		orrs	r3, r3, r0
 716              	.LVL57:
 717              		.loc 1 177 0
 718 0044 4FF0FF30 		mov	r0, #-1
 719 0048 2862     		str	r0, [r5, #32]
 720              		.loc 1 181 0
 721 004a 41F04001 		orr	r1, r1, #64
 722              		.loc 1 182 0
 723 004e 42F0C102 		orr	r2, r2, #193
 724              		.loc 1 192 0
 725 0052 2046     		mov	r0, r4
 726              		.loc 1 181 0
 727 0054 6960     		str	r1, [r5, #4]
 728              		.loc 1 182 0
 729 0056 AA60     		str	r2, [r5, #8]
 730              		.loc 1 189 0
 731 0058 2B60     		str	r3, [r5, #0]
 732              	.LBE24:
 733              	.LBE23:
 734              		.loc 1 472 0
ARM GAS  C:\cygwin\tmp\ccn6Nsrb.s 			page 14


 735 005a BDE8F840 		pop	{r3, r4, r5, r6, r7, lr}
 736              	.LBB26:
 737              	.LBB25:
 738              		.loc 1 192 0
 739 005e FFF7FEBF 		b	set_rx_idle_loop
 740              	.LVL58:
 741              	.L107:
 742              	.LBE25:
 743              	.LBE26:
 744              		.loc 1 398 0
 745 0062 474D     		ldr	r5, .L117
 746 0064 A842     		cmp	r0, r5
 747 0066 1ED0     		beq	.L108
 748              		.loc 1 419 0
 749 0068 464D     		ldr	r5, .L117+4
 750 006a A842     		cmp	r0, r5
 751 006c 38D0     		beq	.L109
 752              		.loc 1 440 0
 753 006e 464D     		ldr	r5, .L117+8
 754 0070 A842     		cmp	r0, r5
 755 0072 51D0     		beq	.L110
 756              	.LVL59:
 757              	.L77:
 758              		.loc 1 462 0
 759 0074 6368     		ldr	r3, [r4, #4]
 760              		.loc 1 464 0
 761 0076 2269     		ldr	r2, [r4, #16]
 762              		.loc 1 462 0
 763 0078 9B69     		ldr	r3, [r3, #24]
 764              		.loc 1 464 0
 765 007a A568     		ldr	r5, [r4, #8]
 766 007c 1168     		ldr	r1, [r2, #0]
 767              		.loc 1 462 0
 768 007e 03F4A053 		and	r3, r3, #5120
 769 0082 B3F5805F 		cmp	r3, #4096
 770              		.loc 1 463 0
 771 0086 02BF     		ittt	eq
 772 0088 E368     		ldreq	r3, [r4, #12]
 773 008a 43F4A063 		orreq	r3, r3, #1280
 774 008e E360     		streq	r3, [r4, #12]
 775              		.loc 1 465 0
 776 0090 6369     		ldr	r3, [r4, #20]
 777 0092 1B68     		ldr	r3, [r3, #0]
 778              		.loc 1 464 0
 779 0094 05F12400 		add	r0, r5, #36
 780              		.loc 1 465 0
 781 0098 05F12802 		add	r2, r5, #40
 782              		.loc 1 464 0
 783 009c 8860     		str	r0, [r1, #8]
 784              		.loc 1 465 0
 785 009e 9A60     		str	r2, [r3, #8]
 786              		.loc 1 466 0
 787 00a0 0023     		movs	r3, #0
 788 00a2 2383     		strh	r3, [r4, #24]	@ movhi
 789 00a4 B2E7     		b	.L73
 790              	.LVL60:
 791              	.L108:
ARM GAS  C:\cygwin\tmp\ccn6Nsrb.s 			page 15


 792              	.LBB27:
 793              		.loc 1 400 0
 794 00a6 0069     		ldr	r0, [r0, #16]
 795              	.LVL61:
 796 00a8 384A     		ldr	r2, .L117+12
 797 00aa 0C21     		movs	r1, #12
 798 00ac 2346     		mov	r3, r4
 799 00ae FFF7FEFF 		bl	dmaStreamAllocate
 800              	.LVL62:
 801              		.loc 1 404 0
 802 00b2 0028     		cmp	r0, #0
 803 00b4 57D1     		bne	.L111
 804              	.LVL63:
 805              	.L75:
 806              		.loc 1 405 0
 807 00b6 6869     		ldr	r0, [r5, #20]
 808 00b8 354A     		ldr	r2, .L117+16
 809 00ba 314B     		ldr	r3, .L117
 810 00bc 0C21     		movs	r1, #12
 811 00be FFF7FEFF 		bl	dmaStreamAllocate
 812              	.LVL64:
 813              		.loc 1 409 0
 814 00c2 0028     		cmp	r0, #0
 815 00c4 4BD1     		bne	.L112
 816              	.LVL65:
 817              	.L76:
 818              		.loc 1 410 0
 819 00c6 4FF48053 		mov	r3, #4096
 820 00ca C4F20203 		movt	r3, 16386
 821              		.loc 1 411 0
 822 00ce 2520     		movs	r0, #37
 823              		.loc 1 410 0
 824 00d0 9A69     		ldr	r2, [r3, #24]
 825 00d2 42F48042 		orr	r2, r2, #16384
 826 00d6 9A61     		str	r2, [r3, #24]
 827              		.loc 1 411 0
 828 00d8 C021     		movs	r1, #192
 829 00da FFF7FEFF 		bl	nvicEnableVector
 830              	.LVL66:
 831 00de C9E7     		b	.L77
 832              	.LVL67:
 833              	.L109:
 834              	.LBE27:
 835              	.LBB28:
 836              		.loc 1 421 0
 837 00e0 0069     		ldr	r0, [r0, #16]
 838              	.LVL68:
 839 00e2 2A4A     		ldr	r2, .L117+12
 840 00e4 0C21     		movs	r1, #12
 841 00e6 2346     		mov	r3, r4
 842 00e8 FFF7FEFF 		bl	dmaStreamAllocate
 843              	.LVL69:
 844              		.loc 1 425 0
 845 00ec 0028     		cmp	r0, #0
 846 00ee 32D1     		bne	.L113
 847              	.LVL70:
 848              	.L79:
ARM GAS  C:\cygwin\tmp\ccn6Nsrb.s 			page 16


 849              		.loc 1 426 0
 850 00f0 6869     		ldr	r0, [r5, #20]
 851 00f2 274A     		ldr	r2, .L117+16
 852 00f4 234B     		ldr	r3, .L117+4
 853 00f6 0C21     		movs	r1, #12
 854 00f8 FFF7FEFF 		bl	dmaStreamAllocate
 855              	.LVL71:
 856              		.loc 1 430 0
 857 00fc 38BB     		cbnz	r0, .L114
 858              	.LVL72:
 859              	.L80:
 860              		.loc 1 431 0
 861 00fe 4FF48053 		mov	r3, #4096
 862 0102 C4F20203 		movt	r3, 16386
 863              		.loc 1 432 0
 864 0106 2620     		movs	r0, #38
 865              		.loc 1 431 0
 866 0108 DA69     		ldr	r2, [r3, #28]
 867 010a 42F40032 		orr	r2, r2, #131072
 868 010e DA61     		str	r2, [r3, #28]
 869              		.loc 1 432 0
 870 0110 C021     		movs	r1, #192
 871 0112 FFF7FEFF 		bl	nvicEnableVector
 872              	.LVL73:
 873 0116 ADE7     		b	.L77
 874              	.LVL74:
 875              	.L110:
 876              	.LBE28:
 877              	.LBB29:
 878              		.loc 1 442 0
 879 0118 0069     		ldr	r0, [r0, #16]
 880              	.LVL75:
 881 011a 1C4A     		ldr	r2, .L117+12
 882 011c 0C21     		movs	r1, #12
 883 011e 2346     		mov	r3, r4
 884 0120 FFF7FEFF 		bl	dmaStreamAllocate
 885              	.LVL76:
 886              		.loc 1 446 0
 887 0124 38BB     		cbnz	r0, .L115
 888              	.LVL77:
 889              	.L81:
 890              		.loc 1 447 0
 891 0126 6869     		ldr	r0, [r5, #20]
 892 0128 194A     		ldr	r2, .L117+16
 893 012a 174B     		ldr	r3, .L117+8
 894 012c 0C21     		movs	r1, #12
 895 012e FFF7FEFF 		bl	dmaStreamAllocate
 896              	.LVL78:
 897              		.loc 1 451 0
 898 0132 E0B9     		cbnz	r0, .L116
 899              	.LVL79:
 900              	.L82:
 901              		.loc 1 452 0
 902 0134 4FF48053 		mov	r3, #4096
 903 0138 C4F20203 		movt	r3, 16386
 904              		.loc 1 453 0
 905 013c 2720     		movs	r0, #39
ARM GAS  C:\cygwin\tmp\ccn6Nsrb.s 			page 17


 906              		.loc 1 452 0
 907 013e DA69     		ldr	r2, [r3, #28]
 908 0140 42F48022 		orr	r2, r2, #262144
 909 0144 DA61     		str	r2, [r3, #28]
 910              		.loc 1 453 0
 911 0146 C021     		movs	r1, #192
 912 0148 FFF7FEFF 		bl	nvicEnableVector
 913              	.LVL80:
 914 014c 92E7     		b	.L77
 915              	.LVL81:
 916              	.L114:
 917              	.LBE29:
 918              	.LBB30:
 919              		.loc 1 430 0 discriminator 1
 920 014e 1148     		ldr	r0, .L117+20
 921              	.LVL82:
 922 0150 FFF7FEFF 		bl	chDbgPanic
 923              	.LVL83:
 924 0154 D3E7     		b	.L80
 925              	.LVL84:
 926              	.L113:
 927              		.loc 1 425 0 discriminator 1
 928 0156 1048     		ldr	r0, .L117+24
 929              	.LVL85:
 930 0158 FFF7FEFF 		bl	chDbgPanic
 931              	.LVL86:
 932 015c C8E7     		b	.L79
 933              	.LVL87:
 934              	.L112:
 935              	.LBE30:
 936              	.LBB31:
 937              		.loc 1 409 0 discriminator 1
 938 015e 0F48     		ldr	r0, .L117+28
 939              	.LVL88:
 940 0160 FFF7FEFF 		bl	chDbgPanic
 941              	.LVL89:
 942 0164 AFE7     		b	.L76
 943              	.LVL90:
 944              	.L111:
 945              		.loc 1 404 0 discriminator 1
 946 0166 0E48     		ldr	r0, .L117+32
 947              	.LVL91:
 948 0168 FFF7FEFF 		bl	chDbgPanic
 949              	.LVL92:
 950 016c A3E7     		b	.L75
 951              	.LVL93:
 952              	.L116:
 953              	.LBE31:
 954              	.LBB32:
 955              		.loc 1 451 0 discriminator 1
 956 016e 0D48     		ldr	r0, .L117+36
 957              	.LVL94:
 958 0170 FFF7FEFF 		bl	chDbgPanic
 959              	.LVL95:
 960 0174 DEE7     		b	.L82
 961              	.LVL96:
 962              	.L115:
ARM GAS  C:\cygwin\tmp\ccn6Nsrb.s 			page 18


 963              		.loc 1 446 0 discriminator 1
 964 0176 0C48     		ldr	r0, .L117+40
 965              	.LVL97:
 966 0178 FFF7FEFF 		bl	chDbgPanic
 967              	.LVL98:
 968 017c D3E7     		b	.L81
 969              	.L118:
 970 017e 00BF     		.align	2
 971              	.L117:
 972 0180 00000000 		.word	.LANCHOR0
 973 0184 00000000 		.word	.LANCHOR1
 974 0188 00000000 		.word	.LANCHOR2
 975 018c 00000000 		.word	uart_lld_serve_rx_end_irq
 976 0190 00000000 		.word	uart_lld_serve_tx_end_irq
 977 0194 48000000 		.word	.LC3
 978 0198 30000000 		.word	.LC2
 979 019c 18000000 		.word	.LC1
 980 01a0 00000000 		.word	.LC0
 981 01a4 78000000 		.word	.LC5
 982 01a8 60000000 		.word	.LC4
 983              	.LBE32:
 984              		.cfi_endproc
 985              	.LFE129:
 986              		.size	uart_lld_start, .-uart_lld_start
 987 01ac AFF30080 		.section	.text.uart_lld_stop,"ax",%progbits
 988              		.align	2
 989              		.p2align 4,,15
 990              		.global	uart_lld_stop
 991              		.thumb
 992              		.thumb_func
 993              		.type	uart_lld_stop, %function
 994              	uart_lld_stop:
 995              	.LFB130:
 996              		.loc 1 481 0
 997              		.cfi_startproc
 998              		@ args = 0, pretend = 0, frame = 0
 999              		@ frame_needed = 0, uses_anonymous_args = 0
 1000              	.LVL99:
 1001              		.loc 1 483 0
 1002 0000 0378     		ldrb	r3, [r0, #0]	@ zero_extendqisi2
 1003 0002 022B     		cmp	r3, #2
 1004              		.loc 1 481 0
 1005 0004 10B5     		push	{r4, lr}
 1006              	.LCFI10:
 1007              		.cfi_def_cfa_offset 8
 1008              		.cfi_offset 4, -8
 1009              		.cfi_offset 14, -4
 1010              		.loc 1 481 0
 1011 0006 0446     		mov	r4, r0
 1012              		.loc 1 483 0
 1013 0008 00D0     		beq	.L125
 1014              	.LVL100:
 1015              	.L119:
 1016 000a 10BD     		pop	{r4, pc}
 1017              	.LVL101:
 1018              	.L125:
 1019              		.loc 1 484 0
ARM GAS  C:\cygwin\tmp\ccn6Nsrb.s 			page 19


 1020 000c FFF7FEFF 		bl	usart_stop
 1021              	.LVL102:
 1022              		.loc 1 485 0
 1023 0010 2069     		ldr	r0, [r4, #16]
 1024 0012 FFF7FEFF 		bl	dmaStreamRelease
 1025              	.LVL103:
 1026              		.loc 1 486 0
 1027 0016 6069     		ldr	r0, [r4, #20]
 1028 0018 FFF7FEFF 		bl	dmaStreamRelease
 1029              	.LVL104:
 1030              		.loc 1 489 0
 1031 001c 164B     		ldr	r3, .L128
 1032 001e 9C42     		cmp	r4, r3
 1033 0020 11D0     		beq	.L126
 1034              		.loc 1 497 0
 1035 0022 164B     		ldr	r3, .L128+4
 1036 0024 9C42     		cmp	r4, r3
 1037 0026 1AD0     		beq	.L127
 1038              		.loc 1 505 0
 1039 0028 154B     		ldr	r3, .L128+8
 1040 002a 9C42     		cmp	r4, r3
 1041 002c EDD1     		bne	.L119
 1042              		.loc 1 506 0
 1043 002e 2720     		movs	r0, #39
 1044 0030 FFF7FEFF 		bl	nvicDisableVector
 1045              	.LVL105:
 1046              		.loc 1 507 0
 1047 0034 4FF48053 		mov	r3, #4096
 1048 0038 C4F20203 		movt	r3, 16386
 1049 003c DA69     		ldr	r2, [r3, #28]
 1050 003e 22F48022 		bic	r2, r2, #262144
 1051 0042 DA61     		str	r2, [r3, #28]
 1052              		.loc 1 508 0
 1053 0044 E1E7     		b	.L119
 1054              	.L126:
 1055              		.loc 1 490 0
 1056 0046 2520     		movs	r0, #37
 1057 0048 FFF7FEFF 		bl	nvicDisableVector
 1058              	.LVL106:
 1059              		.loc 1 491 0
 1060 004c 4FF48053 		mov	r3, #4096
 1061 0050 C4F20203 		movt	r3, 16386
 1062 0054 9A69     		ldr	r2, [r3, #24]
 1063 0056 22F48042 		bic	r2, r2, #16384
 1064 005a 9A61     		str	r2, [r3, #24]
 1065              		.loc 1 492 0
 1066 005c 10BD     		pop	{r4, pc}
 1067              	.L127:
 1068              		.loc 1 498 0
 1069 005e 2620     		movs	r0, #38
 1070 0060 FFF7FEFF 		bl	nvicDisableVector
 1071              	.LVL107:
 1072              		.loc 1 499 0
 1073 0064 4FF48053 		mov	r3, #4096
 1074 0068 C4F20203 		movt	r3, 16386
 1075 006c DA69     		ldr	r2, [r3, #28]
 1076 006e 22F40032 		bic	r2, r2, #131072
ARM GAS  C:\cygwin\tmp\ccn6Nsrb.s 			page 20


 1077 0072 DA61     		str	r2, [r3, #28]
 1078              		.loc 1 500 0
 1079 0074 10BD     		pop	{r4, pc}
 1080              	.L129:
 1081 0076 00BF     		.align	2
 1082              	.L128:
 1083 0078 00000000 		.word	.LANCHOR0
 1084 007c 00000000 		.word	.LANCHOR1
 1085 0080 00000000 		.word	.LANCHOR2
 1086              		.cfi_endproc
 1087              	.LFE130:
 1088              		.size	uart_lld_stop, .-uart_lld_stop
 1089 0084 AFF30080 		.section	.text.uart_lld_start_send,"ax",%progbits
 1089      AFF30080 
 1089      AFF30080 
 1090              		.align	2
 1091              		.p2align 4,,15
 1092              		.global	uart_lld_start_send
 1093              		.thumb
 1094              		.thumb_func
 1095              		.type	uart_lld_start_send, %function
 1096              	uart_lld_start_send:
 1097              	.LFB131:
 1098              		.loc 1 525 0
 1099              		.cfi_startproc
 1100              		@ args = 0, pretend = 0, frame = 0
 1101              		@ frame_needed = 0, uses_anonymous_args = 0
 1102              		@ link register save eliminated.
 1103              	.LVL108:
 1104              		.loc 1 528 0
 1105 0000 4369     		ldr	r3, [r0, #20]
 1106              		.loc 1 530 0
 1107 0002 C068     		ldr	r0, [r0, #12]
 1108              	.LVL109:
 1109              		.loc 1 528 0
 1110 0004 1B68     		ldr	r3, [r3, #0]
 1111              		.loc 1 530 0
 1112 0006 40F09200 		orr	r0, r0, #146
 1113              		.loc 1 528 0
 1114 000a DA60     		str	r2, [r3, #12]
 1115              		.loc 1 529 0
 1116 000c 5960     		str	r1, [r3, #4]
 1117              		.loc 1 530 0
 1118 000e 1860     		str	r0, [r3, #0]
 1119              		.loc 1 532 0
 1120 0010 1A68     		ldr	r2, [r3, #0]
 1121              	.LVL110:
 1122 0012 42F00102 		orr	r2, r2, #1
 1123 0016 1A60     		str	r2, [r3, #0]
 1124 0018 7047     		bx	lr
 1125              		.cfi_endproc
 1126              	.LFE131:
 1127              		.size	uart_lld_start_send, .-uart_lld_start_send
 1128 001a 00BFAFF3 		.section	.text.uart_lld_stop_send,"ax",%progbits
 1128      0080
 1129              		.align	2
 1130              		.p2align 4,,15
ARM GAS  C:\cygwin\tmp\ccn6Nsrb.s 			page 21


 1131              		.global	uart_lld_stop_send
 1132              		.thumb
 1133              		.thumb_func
 1134              		.type	uart_lld_stop_send, %function
 1135              	uart_lld_stop_send:
 1136              	.LFB132:
 1137              		.loc 1 546 0
 1138              		.cfi_startproc
 1139              		@ args = 0, pretend = 0, frame = 0
 1140              		@ frame_needed = 0, uses_anonymous_args = 0
 1141              		@ link register save eliminated.
 1142              	.LVL111:
 1143              		.loc 1 548 0
 1144 0000 4269     		ldr	r2, [r0, #20]
 1145 0002 1368     		ldr	r3, [r2, #0]
 1146 0004 5168     		ldr	r1, [r2, #4]
 1147 0006 1868     		ldr	r0, [r3, #0]
 1148              	.LVL112:
 1149 0008 20F00100 		bic	r0, r0, #1
 1150 000c 1860     		str	r0, [r3, #0]
 1151 000e 127A     		ldrb	r2, [r2, #8]	@ zero_extendqisi2
 1152 0010 0F20     		movs	r0, #15
 1153 0012 00FA02F2 		lsl	r2, r0, r2
 1154 0016 0A60     		str	r2, [r1, #0]
 1155              		.loc 1 549 0
 1156 0018 5868     		ldr	r0, [r3, #4]
 1157              		.loc 1 550 0
 1158 001a 7047     		bx	lr
 1159              		.cfi_endproc
 1160              	.LFE132:
 1161              		.size	uart_lld_stop_send, .-uart_lld_stop_send
 1162 001c AFF30080 		.section	.text.uart_lld_start_receive,"ax",%progbits
 1163              		.align	2
 1164              		.p2align 4,,15
 1165              		.global	uart_lld_start_receive
 1166              		.thumb
 1167              		.thumb_func
 1168              		.type	uart_lld_start_receive, %function
 1169              	uart_lld_start_receive:
 1170              	.LFB133:
 1171              		.loc 1 563 0
 1172              		.cfi_startproc
 1173              		@ args = 0, pretend = 0, frame = 0
 1174              		@ frame_needed = 0, uses_anonymous_args = 0
 1175              		@ link register save eliminated.
 1176              	.LVL113:
 1177 0000 70B4     		push	{r4, r5, r6}
 1178              	.LCFI11:
 1179              		.cfi_def_cfa_offset 12
 1180              		.cfi_offset 4, -12
 1181              		.cfi_offset 5, -8
 1182              		.cfi_offset 6, -4
 1183              		.loc 1 566 0
 1184 0002 0469     		ldr	r4, [r0, #16]
 1185 0004 94E82800 		ldmia	r4, {r3, r5}
 1186 0008 1E68     		ldr	r6, [r3, #0]
 1187 000a 26F00106 		bic	r6, r6, #1
ARM GAS  C:\cygwin\tmp\ccn6Nsrb.s 			page 22


 1188 000e 1E60     		str	r6, [r3, #0]
 1189 0010 247A     		ldrb	r4, [r4, #8]	@ zero_extendqisi2
 1190 0012 0F26     		movs	r6, #15
 1191 0014 06FA04F4 		lsl	r4, r6, r4
 1192 0018 2C60     		str	r4, [r5, #0]
 1193              		.loc 1 571 0
 1194 001a C068     		ldr	r0, [r0, #12]
 1195              	.LVL114:
 1196              		.loc 1 569 0
 1197 001c DA60     		str	r2, [r3, #12]
 1198              		.loc 1 571 0
 1199 001e 40F08200 		orr	r0, r0, #130
 1200              		.loc 1 570 0
 1201 0022 5960     		str	r1, [r3, #4]
 1202              		.loc 1 571 0
 1203 0024 1860     		str	r0, [r3, #0]
 1204              		.loc 1 573 0
 1205 0026 1A68     		ldr	r2, [r3, #0]
 1206              	.LVL115:
 1207 0028 42F00102 		orr	r2, r2, #1
 1208 002c 1A60     		str	r2, [r3, #0]
 1209              		.loc 1 574 0
 1210 002e 70BC     		pop	{r4, r5, r6}
 1211 0030 7047     		bx	lr
 1212              		.cfi_endproc
 1213              	.LFE133:
 1214              		.size	uart_lld_start_receive, .-uart_lld_start_receive
 1215 0032 00BFAFF3 		.section	.text.uart_lld_stop_receive,"ax",%progbits
 1215      0080AFF3 
 1215      0080AFF3 
 1215      0080
 1216              		.align	2
 1217              		.p2align 4,,15
 1218              		.global	uart_lld_stop_receive
 1219              		.thumb
 1220              		.thumb_func
 1221              		.type	uart_lld_stop_receive, %function
 1222              	uart_lld_stop_receive:
 1223              	.LFB134:
 1224              		.loc 1 587 0
 1225              		.cfi_startproc
 1226              		@ args = 0, pretend = 0, frame = 0
 1227              		@ frame_needed = 0, uses_anonymous_args = 0
 1228              	.LVL116:
 1229              		.loc 1 590 0
 1230 0000 0269     		ldr	r2, [r0, #16]
 1231 0002 1368     		ldr	r3, [r2, #0]
 1232 0004 5168     		ldr	r1, [r2, #4]
 1233              		.loc 1 587 0
 1234 0006 10B5     		push	{r4, lr}
 1235              	.LCFI12:
 1236              		.cfi_def_cfa_offset 8
 1237              		.cfi_offset 4, -8
 1238              		.cfi_offset 14, -4
 1239              		.loc 1 590 0
 1240 0008 1C68     		ldr	r4, [r3, #0]
 1241 000a 24F00104 		bic	r4, r4, #1
ARM GAS  C:\cygwin\tmp\ccn6Nsrb.s 			page 23


 1242 000e 1C60     		str	r4, [r3, #0]
 1243 0010 127A     		ldrb	r2, [r2, #8]	@ zero_extendqisi2
 1244 0012 0F24     		movs	r4, #15
 1245 0014 04FA02F2 		lsl	r2, r4, r2
 1246 0018 0A60     		str	r2, [r1, #0]
 1247              		.loc 1 591 0
 1248 001a 5C68     		ldr	r4, [r3, #4]
 1249              	.LVL117:
 1250              		.loc 1 592 0
 1251 001c FFF7FEFF 		bl	set_rx_idle_loop
 1252              	.LVL118:
 1253              		.loc 1 594 0
 1254 0020 2046     		mov	r0, r4
 1255 0022 10BD     		pop	{r4, pc}
 1256              		.cfi_endproc
 1257              	.LFE134:
 1258              		.size	uart_lld_stop_receive, .-uart_lld_stop_receive
 1259              		.global	UARTD3
 1260              		.global	UARTD2
 1261              		.global	UARTD1
 1262 0024 AFF30080 		.section	.bss.UARTD1,"aw",%nobits
 1262      AFF30080 
 1262      AFF30080 
 1263              		.align	2
 1264              		.set	.LANCHOR0,. + 0
 1265              		.type	UARTD1, %object
 1266              		.size	UARTD1, 28
 1267              	UARTD1:
 1268 0000 00000000 		.space	28
 1268      00000000 
 1268      00000000 
 1268      00000000 
 1268      00000000 
 1269              		.section	.bss.UARTD2,"aw",%nobits
 1270              		.align	2
 1271              		.set	.LANCHOR1,. + 0
 1272              		.type	UARTD2, %object
 1273              		.size	UARTD2, 28
 1274              	UARTD2:
 1275 0000 00000000 		.space	28
 1275      00000000 
 1275      00000000 
 1275      00000000 
 1275      00000000 
 1276              		.section	.bss.UARTD3,"aw",%nobits
 1277              		.align	2
 1278              		.set	.LANCHOR2,. + 0
 1279              		.type	UARTD3, %object
 1280              		.size	UARTD3, 28
 1281              	UARTD3:
 1282 0000 00000000 		.space	28
 1282      00000000 
 1282      00000000 
 1282      00000000 
 1282      00000000 
 1283              		.section	.rodata.str1.4,"aMS",%progbits,1
 1284              		.align	2
ARM GAS  C:\cygwin\tmp\ccn6Nsrb.s 			page 24


 1285              	.LC0:
 1286 0000 75617274 		.ascii	"uart_lld_start(), #1\000"
 1286      5F6C6C64 
 1286      5F737461 
 1286      72742829 
 1286      2C202331 
 1287 0015 000000   		.space	3
 1288              	.LC1:
 1289 0018 75617274 		.ascii	"uart_lld_start(), #2\000"
 1289      5F6C6C64 
 1289      5F737461 
 1289      72742829 
 1289      2C202332 
 1290 002d 000000   		.space	3
 1291              	.LC2:
 1292 0030 75617274 		.ascii	"uart_lld_start(), #3\000"
 1292      5F6C6C64 
 1292      5F737461 
 1292      72742829 
 1292      2C202333 
 1293 0045 000000   		.space	3
 1294              	.LC3:
 1295 0048 75617274 		.ascii	"uart_lld_start(), #4\000"
 1295      5F6C6C64 
 1295      5F737461 
 1295      72742829 
 1295      2C202334 
 1296 005d 000000   		.space	3
 1297              	.LC4:
 1298 0060 75617274 		.ascii	"uart_lld_start(), #5\000"
 1298      5F6C6C64 
 1298      5F737461 
 1298      72742829 
 1298      2C202335 
 1299 0075 000000   		.space	3
 1300              	.LC5:
 1301 0078 75617274 		.ascii	"uart_lld_start(), #6\000"
 1301      5F6C6C64 
 1301      5F737461 
 1301      72742829 
 1301      2C202336 
 1302 008d 000000   		.text
 1303              	.Letext0:
 1304              		.file 2 "c:\\chibinew\\tools\\yagarto-tools\\yagarto-20121222\\bin\\../lib/gcc/arm-none-eabi/4.7.2
 1305              		.file 3 "c:/chibinew/tools/yagarto-tools/yagarto-20121222/lib/gcc/../../arm-none-eabi/sys-include/
 1306              		.file 4 "../../../os/ports/GCC/ARMCMx/chtypes.h"
 1307              		.file 5 "../../../os/hal/platforms/STM32F30x/stm32f30x.h"
 1308              		.file 6 "../../../os/hal/platforms/STM32F30x/stm32_dma.h"
 1309              		.file 7 "../../../os/hal/include/uart.h"
 1310              		.file 8 "../../../os/hal/platforms/STM32/USARTv2/uart_lld.h"
 1311              		.file 9 "../../../os/ports/common/ARMCMx/CMSIS/include/core_cm4.h"
 1312              		.file 10 "../../../os/ports/GCC/ARMCMx/chcore_v7m.h"
 1313              		.file 11 "../../../os/kernel/include/chdebug.h"
 1314              		.file 12 "../../../os/ports/common/ARMCMx/nvic.h"