ARM GAS  C:\cygwin\tmp\ccOpUVhJ.s 			page 1


   1              		.syntax unified
   2              		.cpu cortex-m4
   3              		.fpu softvfp
   4              		.eabi_attribute 20, 1
   5              		.eabi_attribute 21, 1
   6              		.eabi_attribute 23, 3
   7              		.eabi_attribute 24, 1
   8              		.eabi_attribute 25, 1
   9              		.eabi_attribute 26, 1
  10              		.eabi_attribute 30, 2
  11              		.eabi_attribute 34, 1
  12              		.eabi_attribute 18, 4
  13              		.thumb
  14              		.file	"usb_lld.c"
  15              		.text
  16              	.Ltext0:
  17              		.cfi_sections	.debug_frame
  18              		.section	.text.usb_packet_write_from_queue,"ax",%progbits
  19              		.align	2
  20              		.p2align 4,,15
  21              		.thumb
  22              		.thumb_func
  23              		.type	usb_packet_write_from_queue, %function
  24              	usb_packet_write_from_queue:
  25              	.LFB123:
  26              		.file 1 "../../../os/hal/platforms/STM32/USBv1/usb_lld.c"
  27              		.loc 1 227 0
  28              		.cfi_startproc
  29              		@ args = 0, pretend = 0, frame = 0
  30              		@ frame_needed = 0, uses_anonymous_args = 0
  31              	.LVL0:
  32              		.loc 1 229 0
  33 0000 0368     		ldr	r3, [r0, #0]
  34 0002 03F1005C 		add	ip, r3, #536870912
  35              		.loc 1 227 0
  36 0006 2DE9F041 		push	{r4, r5, r6, r7, r8, lr}
  37              	.LCFI0:
  38              		.cfi_def_cfa_offset 24
  39              		.cfi_offset 4, -24
  40              		.cfi_offset 5, -20
  41              		.cfi_offset 6, -16
  42              		.cfi_offset 7, -12
  43              		.cfi_offset 8, -8
  44              		.cfi_offset 14, -4
  45              		.loc 1 229 0
  46 000a 0CF5405C 		add	ip, ip, #12288
  47              		.loc 1 231 0
  48 000e 93B2     		uxth	r3, r2
  49              		.loc 1 233 0
  50 0010 5FEA5208 		lsrs	r8, r2, #1
  51              		.loc 1 231 0
  52 0014 8380     		strh	r3, [r0, #4]	@ movhi
  53              		.loc 1 227 0
  54 0016 0C46     		mov	r4, r1
  55              		.loc 1 229 0
  56 0018 4FEA4C0C 		lsl	ip, ip, #1
  57              	.LVL1:
ARM GAS  C:\cygwin\tmp\ccOpUVhJ.s 			page 2


  58              		.loc 1 233 0
  59 001c 1AD0     		beq	.L2
  60 001e 0D69     		ldr	r5, [r1, #16]
  61              		.loc 1 229 0
  62 0020 6046     		mov	r0, ip
  63              	.LVL2:
  64              		.loc 1 233 0
  65 0022 4146     		mov	r1, r8
  66              	.LVL3:
  67              	.L5:
  68              	.LBB30:
  69              		.loc 1 236 0
  70 0024 A369     		ldr	r3, [r4, #24]
  71 0026 13F8016B 		ldrb	r6, [r3], #1	@ zero_extendqisi2
  72              	.LVL4:
  73              		.loc 1 237 0
  74 002a AB42     		cmp	r3, r5
  75              		.loc 1 236 0
  76 002c A361     		str	r3, [r4, #24]
  77              		.loc 1 238 0
  78 002e 24BF     		itt	cs
  79 0030 E368     		ldrcs	r3, [r4, #12]
  80 0032 A361     		strcs	r3, [r4, #24]
  81              		.loc 1 239 0
  82 0034 13F8017B 		ldrb	r7, [r3], #1	@ zero_extendqisi2
  83              		.loc 1 240 0
  84 0038 AB42     		cmp	r3, r5
  85              		.loc 1 239 0
  86 003a A361     		str	r3, [r4, #24]
  87              		.loc 1 241 0
  88 003c 28BF     		it	cs
  89 003e E368     		ldrcs	r3, [r4, #12]
  90              		.loc 1 239 0
  91 0040 46EA0726 		orr	r6, r6, r7, lsl #8
  92              	.LVL5:
  93              		.loc 1 241 0
  94 0044 28BF     		it	cs
  95 0046 A361     		strcs	r3, [r4, #24]
  96              	.LBE30:
  97              		.loc 1 233 0
  98 0048 0139     		subs	r1, r1, #1
  99              	.LBB31:
 100              		.loc 1 242 0
 101 004a 40F8046B 		str	r6, [r0], #4
 102              	.LVL6:
 103              	.LBE31:
 104              		.loc 1 233 0
 105 004e E9D1     		bne	.L5
 106 0050 0CEB880C 		add	ip, ip, r8, lsl #2
 107              	.LVL7:
 108              	.L2:
 109              		.loc 1 247 0
 110 0054 D307     		lsls	r3, r2, #31
 111 0056 0AD5     		bpl	.L6
 112              		.loc 1 248 0
 113 0058 A369     		ldr	r3, [r4, #24]
 114              		.loc 1 249 0
ARM GAS  C:\cygwin\tmp\ccOpUVhJ.s 			page 3


 115 005a 2169     		ldr	r1, [r4, #16]
 116              		.loc 1 248 0
 117 005c 13F8010B 		ldrb	r0, [r3], #1	@ zero_extendqisi2
 118              		.loc 1 249 0
 119 0060 8B42     		cmp	r3, r1
 120              		.loc 1 248 0
 121 0062 CCF80000 		str	r0, [ip, #0]
 122 0066 A361     		str	r3, [r4, #24]
 123              		.loc 1 250 0
 124 0068 24BF     		itt	cs
 125 006a E368     		ldrcs	r3, [r4, #12]
 126 006c A361     		strcs	r3, [r4, #24]
 127              	.L6:
 128              	.LBB32:
 129              		.loc 1 256 0
 130 006e 2023     		movs	r3, #32
 131              	.LVL8:
 132              	@ 256 "../../../os/hal/platforms/STM32/USBv1/usb_lld.c" 1
 133 0070 83F31188 		msr     BASEPRI, r3
 134              	@ 0 "" 2
 135              	.LVL9:
 136              		.thumb
 137              	.LBE32:
 138              		.loc 1 259 0
 139 0074 A368     		ldr	r3, [r4, #8]
 140              	.LVL10:
 141              		.loc 1 260 0
 142 0076 2068     		ldr	r0, [r4, #0]
 143              		.loc 1 257 0
 144 0078 0B4E     		ldr	r6, .L19
 145              		.loc 1 259 0
 146 007a 9A18     		adds	r2, r3, r2
 147              	.LVL11:
 148              		.loc 1 257 0
 149 007c 0123     		movs	r3, #1
 150              		.loc 1 260 0
 151 007e A042     		cmp	r0, r4
 152              		.loc 1 257 0
 153 0080 3360     		str	r3, [r6, #0]
 154              		.loc 1 259 0
 155 0082 A260     		str	r2, [r4, #8]
 156              		.loc 1 260 0
 157 0084 09D0     		beq	.L7
 158              		.loc 1 261 0
 159 0086 0025     		movs	r5, #0
 160              	.L13:
 161              	.LVL12:
 162              	.LBB33:
 163              	.LBB34:
 164              		.file 2 "../../../os/kernel/include/chinline.h"
 165              		.loc 2 55 0
 166 0088 0368     		ldr	r3, [r0, #0]
 167 008a 2360     		str	r3, [r4, #0]
 168 008c 5C60     		str	r4, [r3, #4]
 169              	.LBE34:
 170              	.LBE33:
 171              		.loc 1 261 0
ARM GAS  C:\cygwin\tmp\ccOpUVhJ.s 			page 4


 172 008e FFF7FEFF 		bl	chSchReadyI
 173              	.LVL13:
 174 0092 8562     		str	r5, [r0, #40]
 175              		.loc 1 260 0
 176 0094 2068     		ldr	r0, [r4, #0]
 177 0096 A042     		cmp	r0, r4
 178 0098 F6D1     		bne	.L13
 179              	.LVL14:
 180              	.L7:
 181              		.loc 1 263 0
 182 009a 0023     		movs	r3, #0
 183 009c 3360     		str	r3, [r6, #0]
 184              	.LBB35:
 185              		.loc 1 264 0
 186              	@ 264 "../../../os/hal/platforms/STM32/USBv1/usb_lld.c" 1
 187 009e 83F31188 		msr     BASEPRI, r3
 188              	@ 0 "" 2
 189              	.LVL15:
 190              		.thumb
 191 00a2 BDE8F081 		pop	{r4, r5, r6, r7, r8, pc}
 192              	.L20:
 193 00a6 00BF     		.align	2
 194              	.L19:
 195 00a8 00000000 		.word	dbg_lock_cnt
 196              	.LBE35:
 197              		.cfi_endproc
 198              	.LFE123:
 199              		.size	usb_packet_write_from_queue, .-usb_packet_write_from_queue
 200 00ac AFF30080 		.section	.text.Vector168,"ax",%progbits
 201              		.align	2
 202              		.p2align 4,,15
 203              		.global	Vector168
 204              		.thumb
 205              		.thumb_func
 206              		.type	Vector168, %function
 207              	Vector168:
 208              	.LFB124:
 209              		.loc 1 280 0
 210              		.cfi_startproc
 211              		@ args = 0, pretend = 0, frame = 0
 212              		@ frame_needed = 0, uses_anonymous_args = 0
 213 0000 08B5     		push	{r3, lr}
 214              	.LCFI1:
 215              		.cfi_def_cfa_offset 8
 216              		.cfi_offset 3, -8
 217              		.cfi_offset 14, -4
 218              		.loc 1 282 0
 219 0002 FFF7FEFF 		bl	dbg_check_enter_isr
 220              	.LVL16:
 221              		.loc 1 284 0
 222 0006 FFF7FEFF 		bl	dbg_check_leave_isr
 223              	.LVL17:
 224              		.loc 1 285 0
 225 000a BDE80840 		pop	{r3, lr}
 226              		.loc 1 284 0
 227 000e FFF7FEBF 		b	_port_irq_epilogue
 228              	.LVL18:
ARM GAS  C:\cygwin\tmp\ccOpUVhJ.s 			page 5


 229              		.cfi_endproc
 230              	.LFE124:
 231              		.size	Vector168, .-Vector168
 232 0012 00BFAFF3 		.section	.text.Vector16C,"ax",%progbits
 232      0080AFF3 
 232      0080AFF3 
 232      0080
 233              		.align	2
 234              		.p2align 4,,15
 235              		.global	Vector16C
 236              		.thumb
 237              		.thumb_func
 238              		.type	Vector16C, %function
 239              	Vector16C:
 240              	.LFB125:
 241              		.loc 1 295 0
 242              		.cfi_startproc
 243              		@ args = 0, pretend = 0, frame = 8
 244              		@ frame_needed = 0, uses_anonymous_args = 0
 245              	.LVL19:
 246 0000 2DE9F04F 		push	{r4, r5, r6, r7, r8, r9, sl, fp, lr}
 247              	.LCFI2:
 248              		.cfi_def_cfa_offset 36
 249              		.cfi_offset 4, -36
 250              		.cfi_offset 5, -32
 251              		.cfi_offset 6, -28
 252              		.cfi_offset 7, -24
 253              		.cfi_offset 8, -20
 254              		.cfi_offset 9, -16
 255              		.cfi_offset 10, -12
 256              		.cfi_offset 11, -8
 257              		.cfi_offset 14, -4
 258 0004 83B0     		sub	sp, sp, #12
 259              	.LCFI3:
 260              		.cfi_def_cfa_offset 48
 261              		.loc 1 299 0
 262 0006 FFF7FEFF 		bl	dbg_check_enter_isr
 263              	.LVL20:
 264              		.loc 1 301 0
 265 000a 4FF4B843 		mov	r3, #23552
 266 000e C4F20003 		movt	r3, 16384
 267 0012 5D6C     		ldr	r5, [r3, #68]
 268              	.LVL21:
 269              		.loc 1 304 0
 270 0014 6905     		lsls	r1, r5, #21
 271 0016 00F19C81 		bmi	.L104
 272              	.L23:
 273              		.loc 1 311 0
 274 001a 2A05     		lsls	r2, r5, #20
 275 001c 17D5     		bpl	.L25
 276              		.loc 1 312 0
 277 001e 4FF4B843 		mov	r3, #23552
 278              		.loc 1 313 0
 279 0022 DFF858A3 		ldr	sl, .L109
 280              		.loc 1 312 0
 281 0026 C4F20003 		movt	r3, 16384
 282              		.loc 1 313 0
ARM GAS  C:\cygwin\tmp\ccOpUVhJ.s 			page 6


 283 002a DAF80420 		ldr	r2, [sl, #4]
 284              		.loc 1 312 0
 285 002e 196C     		ldr	r1, [r3, #64]
 286              		.loc 1 313 0
 287 0030 1268     		ldr	r2, [r2, #0]
 288              		.loc 1 312 0
 289 0032 41F00801 		orr	r1, r1, #8
 290 0036 1964     		str	r1, [r3, #64]
 291              		.loc 1 313 0
 292 0038 12B1     		cbz	r2, .L26
 293              		.loc 1 313 0 is_stmt 0 discriminator 1
 294 003a 5046     		mov	r0, sl
 295 003c 0321     		movs	r1, #3
 296 003e 9047     		blx	r2
 297              	.LVL22:
 298              	.L26:
 299              		.loc 1 317 0 is_stmt 1
 300 0040 4FF4B843 		mov	r3, #23552
 301 0044 C4F20003 		movt	r3, 16384
 302 0048 6FF40062 		mvn	r2, #2048
 303 004c 5A64     		str	r2, [r3, #68]
 304              	.L25:
 305              		.loc 1 321 0
 306 004e EB04     		lsls	r3, r5, #19
 307 0050 0ED5     		bpl	.L27
 308              	.LBB55:
 309              		.loc 1 322 0
 310 0052 4FF4B843 		mov	r3, #23552
 311 0056 C4F20003 		movt	r3, 16384
 312 005a 9A6C     		ldr	r2, [r3, #72]
 313              	.LVL23:
 314              		.loc 1 323 0
 315 005c 1004     		lsls	r0, r2, #16
 316 005e 40F16881 		bpl	.L105
 317              	.LVL24:
 318              	.L29:
 319              		.loc 1 334 0
 320 0062 4FF4B843 		mov	r3, #23552
 321 0066 C4F20003 		movt	r3, 16384
 322 006a 6FF48052 		mvn	r2, #4096
 323 006e 5A64     		str	r2, [r3, #68]
 324              	.L27:
 325              	.LBE55:
 326              		.loc 1 338 0
 327 0070 A905     		lsls	r1, r5, #22
 328 0072 0ED5     		bpl	.L31
 329              		.loc 1 339 0
 330 0074 DFF804A3 		ldr	sl, .L109
 331 0078 DAF80430 		ldr	r3, [sl, #4]
 332 007c DB68     		ldr	r3, [r3, #12]
 333 007e 0BB1     		cbz	r3, .L32
 334              		.loc 1 339 0 is_stmt 0 discriminator 1
 335 0080 5046     		mov	r0, sl
 336 0082 9847     		blx	r3
 337              	.LVL25:
 338              	.L32:
 339              		.loc 1 340 0 is_stmt 1
ARM GAS  C:\cygwin\tmp\ccOpUVhJ.s 			page 7


 340 0084 4FF4B843 		mov	r3, #23552
 341 0088 C4F20003 		movt	r3, 16384
 342 008c 6FF40072 		mvn	r2, #512
 343 0090 5A64     		str	r2, [r3, #68]
 344              	.L31:
 345              		.loc 1 344 0 discriminator 1
 346 0092 2A04     		lsls	r2, r5, #16
 347 0094 40F1BC80 		bpl	.L59
 348              	.LBB56:
 349              		.loc 1 347 0
 350 0098 4FF4B846 		mov	r6, #23552
 351 009c DFF8DCA2 		ldr	sl, .L109
 352 00a0 C4F20006 		movt	r6, 16384
 353              	.LVL26:
 354              	.L58:
 355 00a4 05F00F05 		and	r5, r5, #15
 356              	.LVL27:
 357              		.loc 1 348 0
 358 00a8 05F10409 		add	r9, r5, #4
 359              		.loc 1 347 0
 360 00ac 56F82540 		ldr	r4, [r6, r5, lsl #2]
 361              	.LVL28:
 362              		.loc 1 348 0
 363 00b0 5AF82980 		ldr	r8, [sl, r9, lsl #2]
 364              	.LVL29:
 365              		.loc 1 350 0
 366 00b4 2306     		lsls	r3, r4, #24
 367              	.LVL30:
 368 00b6 5AD5     		bpl	.L34
 369              	.LBB57:
 370              		.loc 1 353 0
 371 00b8 56F82530 		ldr	r3, [r6, r5, lsl #2]
 372              		.loc 1 356 0
 373 00bc D8F81410 		ldr	r1, [r8, #20]
 374              		.loc 1 353 0
 375 00c0 23F4F143 		bic	r3, r3, #30848
 376 00c4 23F07003 		bic	r3, r3, #112
 377 00c8 46F82530 		str	r3, [r6, r5, lsl #2]
 378              		.loc 1 355 0
 379 00cc 326D     		ldr	r2, [r6, #80]
 380              		.loc 1 356 0
 381 00ce 8F68     		ldr	r7, [r1, #8]
 382              		.loc 1 357 0
 383 00d0 4B68     		ldr	r3, [r1, #4]
 384              		.loc 1 355 0
 385 00d2 02F10052 		add	r2, r2, #536870912
 386 00d6 4FEAC50E 		lsl	lr, r5, #3
 387 00da 02F54052 		add	r2, r2, #12288
 388 00de 7244     		add	r2, r2, lr
 389 00e0 5200     		lsls	r2, r2, #1
 390 00e2 9088     		ldrh	r0, [r2, #4]
 391 00e4 80B2     		uxth	r0, r0
 392              	.LVL31:
 393              		.loc 1 356 0
 394 00e6 3F18     		adds	r7, r7, r0
 395              		.loc 1 357 0
 396 00e8 1B1A     		subs	r3, r3, r0
ARM GAS  C:\cygwin\tmp\ccOpUVhJ.s 			page 8


 397              		.loc 1 356 0
 398 00ea 8F60     		str	r7, [r1, #8]
 399              		.loc 1 357 0
 400 00ec 4B60     		str	r3, [r1, #4]
 401              		.loc 1 358 0
 402 00ee 002B     		cmp	r3, #0
 403 00f0 00F09C80 		beq	.L35
 404              		.loc 1 360 0
 405 00f4 B8F81020 		ldrh	r2, [r8, #16]
 406              		.loc 1 365 0
 407 00f8 0F78     		ldrb	r7, [r1, #0]	@ zero_extendqisi2
 408 00fa 9342     		cmp	r3, r2
 409 00fc 38BF     		it	cc
 410 00fe 1A46     		movcc	r2, r3
 411              	.LVL32:
 412 0100 002F     		cmp	r7, #0
 413 0102 40F00B81 		bne	.L106
 414              		.loc 1 370 0
 415 0106 CF68     		ldr	r7, [r1, #12]
 416 0108 3818     		adds	r0, r7, r0
 417              	.LVL33:
 418 010a C860     		str	r0, [r1, #12]
 419              		.loc 1 371 0
 420 010c 336D     		ldr	r3, [r6, #80]
 421 010e 03F10053 		add	r3, r3, #536870912
 422 0112 03F54053 		add	r3, r3, #12288
 423 0116 9E44     		add	lr, r3, lr
 424 0118 4FEA4E0E 		lsl	lr, lr, #1
 425              	.LVL34:
 426              	.LBB58:
 427              	.LBB59:
 428              		.loc 1 205 0
 429 011c 93B2     		uxth	r3, r2
 430              		.loc 1 203 0
 431 011e DEF80010 		ldr	r1, [lr, #0]
 432              		.loc 1 205 0
 433 0122 AEF80430 		strh	r3, [lr, #4]	@ movhi
 434              		.loc 1 203 0
 435 0126 01F10051 		add	r1, r1, #536870912
 436 012a 01F54051 		add	r1, r1, #12288
 437              		.loc 1 206 0
 438 012e 531C     		adds	r3, r2, #1
 439              		.loc 1 203 0
 440 0130 4900     		lsls	r1, r1, #1
 441              	.LVL35:
 442              		.loc 1 207 0
 443 0132 5B08     		lsrs	r3, r3, #1
 444              	.LVL36:
 445 0134 07D0     		beq	.L37
 446              		.loc 1 295 0
 447 0136 821C     		adds	r2, r0, #2
 448              	.LVL37:
 449              	.L39:
 450              		.loc 1 210 0
 451 0138 32F8020C 		ldrh	r0, [r2, #-2]
 452 013c 0232     		adds	r2, r2, #2
 453              		.loc 1 207 0
ARM GAS  C:\cygwin\tmp\ccOpUVhJ.s 			page 9


 454 013e 013B     		subs	r3, r3, #1
 455              		.loc 1 210 0
 456 0140 41F8040B 		str	r0, [r1], #4
 457              	.LVL38:
 458              		.loc 1 207 0
 459 0144 F8D1     		bne	.L39
 460              	.LVL39:
 461              	.L37:
 462              	.LBE59:
 463              	.LBE58:
 464              	.LBB60:
 465              		.loc 1 375 0
 466 0146 2023     		movs	r3, #32
 467              	.LVL40:
 468              	@ 375 "../../../os/hal/platforms/STM32/USBv1/usb_lld.c" 1
 469 0148 83F31188 		msr     BASEPRI, r3
 470              	@ 0 "" 2
 471              	.LVL41:
 472              		.thumb
 473              	.LBE60:
 474 014c FFF7FEFF 		bl	dbg_check_lock_from_isr
 475              	.LVL42:
 476              	.LBB61:
 477              	.LBB62:
 478              		.loc 1 762 0
 479 0150 56F82530 		ldr	r3, [r6, r5, lsl #2]
 480 0154 23F4F043 		bic	r3, r3, #30720
 481 0158 23F04003 		bic	r3, r3, #64
 482 015c 83F03003 		eor	r3, r3, #48
 483 0160 46F82530 		str	r3, [r6, r5, lsl #2]
 484              	.LBE62:
 485              	.LBE61:
 486              		.loc 1 377 0
 487 0164 FFF7FEFF 		bl	dbg_check_unlock_from_isr
 488              	.LVL43:
 489              	.LBB63:
 490 0168 0023     		movs	r3, #0
 491              	@ 377 "../../../os/hal/platforms/STM32/USBv1/usb_lld.c" 1
 492 016a 83F31188 		msr     BASEPRI, r3
 493              	@ 0 "" 2
 494              	.LVL44:
 495              		.thumb
 496              	.L34:
 497              	.LBE63:
 498              	.LBE57:
 499              		.loc 1 384 0
 500 016e 2004     		lsls	r0, r4, #16
 501 0170 4AD5     		bpl	.L41
 502              		.loc 1 385 0
 503 0172 56F82530 		ldr	r3, [r6, r5, lsl #2]
 504              	.LVL45:
 505 0176 23F47843 		bic	r3, r3, #63488
 506 017a 23F07003 		bic	r3, r3, #112
 507              		.loc 1 387 0
 508 017e 2105     		lsls	r1, r4, #20
 509              		.loc 1 385 0
 510 0180 46F82530 		str	r3, [r6, r5, lsl #2]
ARM GAS  C:\cygwin\tmp\ccOpUVhJ.s 			page 10


 511              		.loc 1 387 0
 512 0184 4BD4     		bmi	.L107
 513              	.LBB64:
 514              		.loc 1 393 0
 515 0186 336D     		ldr	r3, [r6, #80]
 516              		.loc 1 397 0
 517 0188 D8F81840 		ldr	r4, [r8, #24]
 518              	.LVL46:
 519              		.loc 1 393 0
 520 018c 03F10053 		add	r3, r3, #536870912
 521 0190 03F54053 		add	r3, r3, #12288
 522 0194 03EBC503 		add	r3, r3, r5, lsl #3
 523 0198 5B00     		lsls	r3, r3, #1
 524              	.LVL47:
 525              		.loc 1 397 0
 526 019a 2278     		ldrb	r2, [r4, #0]	@ zero_extendqisi2
 527              		.loc 1 394 0
 528 019c B3F80CE0 		ldrh	lr, [r3, #12]
 529 01a0 1FFA8EFE 		uxth	lr, lr
 530 01a4 4FEA8E57 		lsl	r7, lr, #22
 531 01a8 BF0D     		lsrs	r7, r7, #22
 532              	.LVL48:
 533              		.loc 1 397 0
 534 01aa 002A     		cmp	r2, #0
 535 01ac 52D1     		bne	.L108
 536              	.LBB65:
 537              	.LBB66:
 538              		.loc 1 135 0
 539 01ae 9968     		ldr	r1, [r3, #8]
 540              	.LBE66:
 541              	.LBE65:
 542              		.loc 1 402 0
 543 01b0 E268     		ldr	r2, [r4, #12]
 544              	.LVL49:
 545              	.LBB68:
 546              	.LBB67:
 547              		.loc 1 135 0
 548 01b2 01F10051 		add	r1, r1, #536870912
 549 01b6 01F54051 		add	r1, r1, #12288
 550              		.loc 1 137 0
 551 01ba 7B1C     		adds	r3, r7, #1
 552              	.LVL50:
 553              		.loc 1 135 0
 554 01bc 4900     		lsls	r1, r1, #1
 555              	.LVL51:
 556              		.loc 1 138 0
 557 01be 5B08     		lsrs	r3, r3, #1
 558              	.LVL52:
 559 01c0 09D0     		beq	.L55
 560              		.loc 1 295 0
 561 01c2 0232     		adds	r2, r2, #2
 562              	.LVL53:
 563 01c4 0439     		subs	r1, r1, #4
 564              	.LVL54:
 565              	.L56:
 566              		.loc 1 141 0
 567 01c6 51F8040F 		ldr	r0, [r1, #4]!
ARM GAS  C:\cygwin\tmp\ccOpUVhJ.s 			page 11


 568 01ca 22F8020C 		strh	r0, [r2, #-2]	@ movhi
 569              	.LVL55:
 570 01ce 0232     		adds	r2, r2, #2
 571              		.loc 1 138 0
 572 01d0 013B     		subs	r3, r3, #1
 573              	.LVL56:
 574 01d2 F8D1     		bne	.L56
 575 01d4 E268     		ldr	r2, [r4, #12]
 576              	.L55:
 577              	.LBE67:
 578              	.LBE68:
 579              		.loc 1 405 0
 580 01d6 D219     		adds	r2, r2, r7
 581 01d8 E260     		str	r2, [r4, #12]
 582              	.LVL57:
 583              	.L52:
 584              		.loc 1 410 0
 585 01da 238A     		ldrh	r3, [r4, #16]
 586              	.LVL58:
 587              		.loc 1 408 0
 588 01dc A168     		ldr	r1, [r4, #8]
 589              		.loc 1 409 0
 590 01de 6268     		ldr	r2, [r4, #4]
 591              		.loc 1 410 0
 592 01e0 013B     		subs	r3, r3, #1
 593              		.loc 1 408 0
 594 01e2 C919     		adds	r1, r1, r7
 595              		.loc 1 410 0
 596 01e4 9BB2     		uxth	r3, r3
 597              		.loc 1 409 0
 598 01e6 D71B     		subs	r7, r2, r7
 599              	.LVL59:
 600              		.loc 1 408 0
 601 01e8 A160     		str	r1, [r4, #8]
 602              		.loc 1 409 0
 603 01ea 6760     		str	r7, [r4, #4]
 604              		.loc 1 410 0
 605 01ec 2382     		strh	r3, [r4, #16]	@ movhi
 606              		.loc 1 411 0
 607 01ee 002B     		cmp	r3, #0
 608 01f0 00F08480 		beq	.L57
 609              		.loc 1 413 0
 610 01f4 56F82530 		ldr	r3, [r6, r5, lsl #2]
 611 01f8 23F49043 		bic	r3, r3, #18432
 612 01fc 23F07003 		bic	r3, r3, #112
 613 0200 83F44053 		eor	r3, r3, #12288
 614 0204 46F82530 		str	r3, [r6, r5, lsl #2]
 615              	.LVL60:
 616              	.L41:
 617              	.LBE64:
 618              		.loc 1 421 0
 619 0208 756C     		ldr	r5, [r6, #68]
 620              	.LVL61:
 621              	.LBE56:
 622              		.loc 1 344 0
 623 020a 2A04     		lsls	r2, r5, #16
 624 020c 3FF54AAF 		bmi	.L58
ARM GAS  C:\cygwin\tmp\ccOpUVhJ.s 			page 12


 625              	.LVL62:
 626              	.L59:
 627              		.loc 1 424 0
 628 0210 FFF7FEFF 		bl	dbg_check_leave_isr
 629              	.LVL63:
 630              		.loc 1 425 0
 631 0214 03B0     		add	sp, sp, #12
 632 0216 BDE8F04F 		pop	{r4, r5, r6, r7, r8, r9, sl, fp, lr}
 633              		.loc 1 424 0
 634 021a FFF7FEBF 		b	_port_irq_epilogue
 635              	.LVL64:
 636              	.L107:
 637              	.LBB81:
 638              		.loc 1 390 0
 639 021e 5AF82930 		ldr	r3, [sl, r9, lsl #2]
 640 0222 5648     		ldr	r0, .L109
 641 0224 5B68     		ldr	r3, [r3, #4]
 642 0226 2946     		mov	r1, r5
 643 0228 9847     		blx	r3
 644              	.LVL65:
 645 022a EDE7     		b	.L41
 646              	.LVL66:
 647              	.L35:
 648              	.LBB78:
 649              		.loc 1 381 0
 650 022c 40F20001 		movw	r1, #:lower16:.LANCHOR0
 651 0230 C0F20001 		movt	r1, #:upper16:.LANCHOR0
 652 0234 0127     		movs	r7, #1
 653 0236 8A89     		ldrh	r2, [r1, #12]
 654 0238 D8F80830 		ldr	r3, [r8, #8]
 655 023c 40F20000 		movw	r0, #:lower16:.LANCHOR0
 656              	.LVL67:
 657 0240 07FA05F1 		lsl	r1, r7, r5
 658 0244 C0F20000 		movt	r0, #:upper16:.LANCHOR0
 659 0248 22EA0102 		bic	r2, r2, r1
 660 024c 8281     		strh	r2, [r0, #12]	@ movhi
 661 024e 2946     		mov	r1, r5
 662 0250 9847     		blx	r3
 663              	.LVL68:
 664 0252 8CE7     		b	.L34
 665              	.LVL69:
 666              	.L108:
 667              	.LBE78:
 668              	.LBB79:
 669              	.LBB69:
 670              	.LBB70:
 671              		.loc 1 160 0
 672 0254 9B68     		ldr	r3, [r3, #8]
 673              	.LVL70:
 674              	.LBE70:
 675              	.LBE69:
 676              		.loc 1 398 0
 677 0256 E468     		ldr	r4, [r4, #12]
 678              	.LVL71:
 679              	.LBB77:
 680              	.LBB76:
 681              		.loc 1 160 0
ARM GAS  C:\cygwin\tmp\ccOpUVhJ.s 			page 13


 682 0258 03F1005C 		add	ip, r3, #536870912
 683 025c 0CF5405C 		add	ip, ip, #12288
 684              		.loc 1 163 0
 685 0260 7908     		lsrs	r1, r7, #1
 686              		.loc 1 160 0
 687 0262 4FEA4C0C 		lsl	ip, ip, #1
 688              	.LVL72:
 689              		.loc 1 163 0
 690 0266 0191     		str	r1, [sp, #4]
 691 0268 1DD0     		beq	.L44
 692 026a 0A46     		mov	r2, r1
 693 026c 6046     		mov	r0, ip
 694 026e AB46     		mov	fp, r5
 695              	.LVL73:
 696              	.L47:
 697              	.LBB71:
 698              		.loc 1 166 0
 699 0270 50F8043B 		ldr	r3, [r0], #4
 700              	.LVL74:
 701              		.loc 1 167 0
 702 0274 6569     		ldr	r5, [r4, #20]
 703 0276 05F8013B 		strb	r3, [r5], #1
 704              		.loc 1 170 0
 705 027a 190A     		lsrs	r1, r3, #8
 706              		.loc 1 168 0
 707 027c 2369     		ldr	r3, [r4, #16]
 708              	.LVL75:
 709              		.loc 1 167 0
 710 027e 6561     		str	r5, [r4, #20]
 711              		.loc 1 168 0
 712 0280 9D42     		cmp	r5, r3
 713              		.loc 1 169 0
 714 0282 24BF     		itt	cs
 715 0284 E368     		ldrcs	r3, [r4, #12]
 716 0286 6361     		strcs	r3, [r4, #20]
 717              		.loc 1 170 0
 718 0288 6369     		ldr	r3, [r4, #20]
 719 028a 03F8011B 		strb	r1, [r3], #1
 720              		.loc 1 171 0
 721 028e 2169     		ldr	r1, [r4, #16]
 722              		.loc 1 170 0
 723 0290 6361     		str	r3, [r4, #20]
 724              		.loc 1 171 0
 725 0292 8B42     		cmp	r3, r1
 726              		.loc 1 172 0
 727 0294 24BF     		itt	cs
 728 0296 E368     		ldrcs	r3, [r4, #12]
 729 0298 6361     		strcs	r3, [r4, #20]
 730              	.LBE71:
 731              		.loc 1 163 0
 732 029a 013A     		subs	r2, r2, #1
 733              	.LVL76:
 734 029c E8D1     		bne	.L47
 735 029e 019B     		ldr	r3, [sp, #4]
 736 02a0 5D46     		mov	r5, fp
 737 02a2 0CEB830C 		add	ip, ip, r3, lsl #2
 738              	.LVL77:
ARM GAS  C:\cygwin\tmp\ccOpUVhJ.s 			page 14


 739              	.L44:
 740              		.loc 1 176 0
 741 02a6 1EF0010F 		tst	lr, #1
 742 02aa 0AD0     		beq	.L49
 743              		.loc 1 177 0
 744 02ac 6369     		ldr	r3, [r4, #20]
 745 02ae DCF80020 		ldr	r2, [ip, #0]
 746 02b2 03F8012B 		strb	r2, [r3], #1
 747              		.loc 1 178 0
 748 02b6 2269     		ldr	r2, [r4, #16]
 749              		.loc 1 177 0
 750 02b8 6361     		str	r3, [r4, #20]
 751              		.loc 1 178 0
 752 02ba 9342     		cmp	r3, r2
 753              		.loc 1 179 0
 754 02bc 24BF     		itt	cs
 755 02be E368     		ldrcs	r3, [r4, #12]
 756 02c0 6361     		strcs	r3, [r4, #20]
 757              	.L49:
 758              	.LBB72:
 759              		.loc 1 183 0
 760 02c2 2023     		movs	r3, #32
 761              	.LVL78:
 762              	@ 183 "../../../os/hal/platforms/STM32/USBv1/usb_lld.c" 1
 763 02c4 83F31188 		msr     BASEPRI, r3
 764              	@ 0 "" 2
 765              	.LVL79:
 766              		.thumb
 767              	.LBE72:
 768 02c8 FFF7FEFF 		bl	dbg_check_lock_from_isr
 769              	.LVL80:
 770              		.loc 1 184 0
 771 02cc A368     		ldr	r3, [r4, #8]
 772              		.loc 1 185 0
 773 02ce 2068     		ldr	r0, [r4, #0]
 774              		.loc 1 184 0
 775 02d0 DB19     		adds	r3, r3, r7
 776              		.loc 1 185 0
 777 02d2 A042     		cmp	r0, r4
 778              		.loc 1 184 0
 779 02d4 A360     		str	r3, [r4, #8]
 780              		.loc 1 185 0
 781 02d6 09D0     		beq	.L54
 782              	.L85:
 783              	.LVL81:
 784              	.LBB73:
 785              	.LBB74:
 786              		.loc 2 55 0
 787 02d8 0368     		ldr	r3, [r0, #0]
 788 02da 2360     		str	r3, [r4, #0]
 789 02dc 5C60     		str	r4, [r3, #4]
 790              	.LBE74:
 791              	.LBE73:
 792              		.loc 1 186 0
 793 02de FFF7FEFF 		bl	chSchReadyI
 794              	.LVL82:
 795 02e2 0021     		movs	r1, #0
ARM GAS  C:\cygwin\tmp\ccOpUVhJ.s 			page 15


 796 02e4 8162     		str	r1, [r0, #40]
 797              		.loc 1 185 0
 798 02e6 2068     		ldr	r0, [r4, #0]
 799 02e8 A042     		cmp	r0, r4
 800 02ea F5D1     		bne	.L85
 801              	.LVL83:
 802              	.L54:
 803              		.loc 1 187 0
 804 02ec FFF7FEFF 		bl	dbg_check_unlock_from_isr
 805              	.LVL84:
 806              	.LBB75:
 807 02f0 0023     		movs	r3, #0
 808              	@ 187 "../../../os/hal/platforms/STM32/USBv1/usb_lld.c" 1
 809 02f2 83F31188 		msr     BASEPRI, r3
 810              	@ 0 "" 2
 811              	.LVL85:
 812              		.thumb
 813 02f6 D8F81840 		ldr	r4, [r8, #24]
 814              	.LVL86:
 815 02fa 6EE7     		b	.L52
 816              	.LVL87:
 817              	.L57:
 818              	.LBE75:
 819              	.LBE76:
 820              	.LBE77:
 821              		.loc 1 417 0
 822 02fc BAF80E20 		ldrh	r2, [sl, #14]
 823 0300 5AF82930 		ldr	r3, [sl, r9, lsl #2]
 824 0304 1D48     		ldr	r0, .L109
 825 0306 DB68     		ldr	r3, [r3, #12]
 826 0308 0124     		movs	r4, #1
 827 030a 04FA05F1 		lsl	r1, r4, r5
 828 030e 22EA0102 		bic	r2, r2, r1
 829 0312 AAF80E20 		strh	r2, [sl, #14]	@ movhi
 830 0316 2946     		mov	r1, r5
 831 0318 9847     		blx	r3
 832              	.LVL88:
 833 031a 75E7     		b	.L41
 834              	.LVL89:
 835              	.L106:
 836              	.LBE79:
 837              	.LBB80:
 838              		.loc 1 366 0
 839 031c 306D     		ldr	r0, [r6, #80]
 840              	.LVL90:
 841 031e C968     		ldr	r1, [r1, #12]
 842 0320 00F10050 		add	r0, r0, #536870912
 843 0324 00F54050 		add	r0, r0, #12288
 844 0328 7044     		add	r0, r0, lr
 845 032a 4000     		lsls	r0, r0, #1
 846 032c FFF7FEFF 		bl	usb_packet_write_from_queue
 847              	.LVL91:
 848 0330 09E7     		b	.L37
 849              	.LVL92:
 850              	.L105:
 851              	.LBE80:
 852              	.LBE81:
ARM GAS  C:\cygwin\tmp\ccOpUVhJ.s 			page 16


 853              	.LBB82:
 854              		.loc 1 325 0
 855 0332 DFF848A0 		ldr	sl, .L109
 856              		.loc 1 324 0
 857 0336 196C     		ldr	r1, [r3, #64]
 858              		.loc 1 325 0
 859 0338 DAF80420 		ldr	r2, [sl, #4]
 860              	.LVL93:
 861 033c 1268     		ldr	r2, [r2, #0]
 862              		.loc 1 324 0
 863 033e 21F00801 		bic	r1, r1, #8
 864 0342 1964     		str	r1, [r3, #64]
 865              		.loc 1 325 0
 866 0344 002A     		cmp	r2, #0
 867 0346 3FF48CAE 		beq	.L29
 868              		.loc 1 325 0 is_stmt 0 discriminator 1
 869 034a 5046     		mov	r0, sl
 870 034c 0421     		movs	r1, #4
 871 034e 9047     		blx	r2
 872              	.LVL94:
 873 0350 87E6     		b	.L29
 874              	.L104:
 875              	.LBE82:
 876              		.loc 1 297 0 is_stmt 1
 877 0352 DFF828A0 		ldr	sl, .L109
 878              		.loc 1 305 0
 879 0356 5046     		mov	r0, sl
 880 0358 FFF7FEFF 		bl	_usb_reset
 881              	.LVL95:
 882              		.loc 1 306 0
 883 035c DAF80430 		ldr	r3, [sl, #4]
 884 0360 1B68     		ldr	r3, [r3, #0]
 885 0362 13B1     		cbz	r3, .L24
 886              		.loc 1 306 0 is_stmt 0 discriminator 1
 887 0364 5046     		mov	r0, sl
 888 0366 0021     		movs	r1, #0
 889 0368 9847     		blx	r3
 890              	.LVL96:
 891              	.L24:
 892              		.loc 1 307 0 is_stmt 1
 893 036a 4FF4B843 		mov	r3, #23552
 894 036e C4F20003 		movt	r3, 16384
 895 0372 6FF48062 		mvn	r2, #1024
 896 0376 5A64     		str	r2, [r3, #68]
 897 0378 4FE6     		b	.L23
 898              	.L110:
 899 037a 00BF     		.align	2
 900              	.L109:
 901 037c 00000000 		.word	.LANCHOR0
 902              		.cfi_endproc
 903              	.LFE125:
 904              		.size	Vector16C, .-Vector16C
 905              		.section	.text.usb_lld_init,"ax",%progbits
 906              		.align	2
 907              		.p2align 4,,15
 908              		.global	usb_lld_init
 909              		.thumb
ARM GAS  C:\cygwin\tmp\ccOpUVhJ.s 			page 17


 910              		.thumb_func
 911              		.type	usb_lld_init, %function
 912              	usb_lld_init:
 913              	.LFB126:
 914              		.loc 1 437 0
 915              		.cfi_startproc
 916              		@ args = 0, pretend = 0, frame = 0
 917              		@ frame_needed = 0, uses_anonymous_args = 0
 918              		@ link register save eliminated.
 919              		.loc 1 440 0
 920 0000 40F20000 		movw	r0, #:lower16:.LANCHOR0
 921 0004 C0F20000 		movt	r0, #:upper16:.LANCHOR0
 922              		.loc 1 441 0
 923              		.loc 1 440 0
 924 0008 FFF7FEBF 		b	usbObjectInit
 925              	.LVL97:
 926              		.cfi_endproc
 927              	.LFE126:
 928              		.size	usb_lld_init, .-usb_lld_init
 929 000c AFF30080 		.section	.text.usb_lld_start,"ax",%progbits
 930              		.align	2
 931              		.p2align 4,,15
 932              		.global	usb_lld_start
 933              		.thumb
 934              		.thumb_func
 935              		.type	usb_lld_start, %function
 936              	usb_lld_start:
 937              	.LFB127:
 938              		.loc 1 450 0
 939              		.cfi_startproc
 940              		@ args = 0, pretend = 0, frame = 0
 941              		@ frame_needed = 0, uses_anonymous_args = 0
 942              	.LVL98:
 943 0000 38B5     		push	{r3, r4, r5, lr}
 944              	.LCFI4:
 945              		.cfi_def_cfa_offset 16
 946              		.cfi_offset 3, -16
 947              		.cfi_offset 4, -12
 948              		.cfi_offset 5, -8
 949              		.cfi_offset 14, -4
 950              		.loc 1 452 0
 951 0002 0378     		ldrb	r3, [r0, #0]	@ zero_extendqisi2
 952 0004 012B     		cmp	r3, #1
 953              		.loc 1 450 0
 954 0006 0446     		mov	r4, r0
 955              		.loc 1 452 0
 956 0008 00D0     		beq	.L115
 957 000a 38BD     		pop	{r3, r4, r5, pc}
 958              	.L115:
 959              		.loc 1 455 0
 960 000c 0F4A     		ldr	r2, .L117
 961 000e 9042     		cmp	r0, r2
 962 0010 04D0     		beq	.L116
 963              	.LVL99:
 964              	.L114:
 965              		.loc 1 471 0
 966 0012 2046     		mov	r0, r4
ARM GAS  C:\cygwin\tmp\ccOpUVhJ.s 			page 18


 967              		.loc 1 474 0
 968 0014 BDE83840 		pop	{r3, r4, r5, lr}
 969              		.loc 1 471 0
 970 0018 FFF7FEBF 		b	_usb_reset
 971              	.LVL100:
 972              	.L116:
 973              		.loc 1 457 0
 974 001c 4FF48052 		mov	r2, #4096
 975 0020 C4F20202 		movt	r2, 16386
 976              		.loc 1 459 0
 977 0024 4FF4B845 		mov	r5, #23552
 978              		.loc 1 457 0
 979 0028 D169     		ldr	r1, [r2, #28]
 980              		.loc 1 459 0
 981 002a C4F20005 		movt	r5, 16384
 982              		.loc 1 457 0
 983 002e 41F40001 		orr	r1, r1, #8388608
 984 0032 D161     		str	r1, [r2, #28]
 985              		.loc 1 462 0
 986 0034 4A20     		movs	r0, #74
 987              	.LVL101:
 988              		.loc 1 459 0
 989 0036 2B64     		str	r3, [r5, #64]
 990              		.loc 1 462 0
 991 0038 D021     		movs	r1, #208
 992 003a FFF7FEFF 		bl	nvicEnableVector
 993              	.LVL102:
 994              		.loc 1 464 0
 995 003e 4B20     		movs	r0, #75
 996 0040 E021     		movs	r1, #224
 997 0042 FFF7FEFF 		bl	nvicEnableVector
 998              	.LVL103:
 999              		.loc 1 467 0
 1000 0046 0023     		movs	r3, #0
 1001 0048 2B64     		str	r3, [r5, #64]
 1002 004a E2E7     		b	.L114
 1003              	.L118:
 1004              		.align	2
 1005              	.L117:
 1006 004c 00000000 		.word	.LANCHOR0
 1007              		.cfi_endproc
 1008              	.LFE127:
 1009              		.size	usb_lld_start, .-usb_lld_start
 1010              		.section	.text.usb_lld_stop,"ax",%progbits
 1011              		.align	2
 1012              		.p2align 4,,15
 1013              		.global	usb_lld_stop
 1014              		.thumb
 1015              		.thumb_func
 1016              		.type	usb_lld_stop, %function
 1017              	usb_lld_stop:
 1018              	.LFB128:
 1019              		.loc 1 483 0
 1020              		.cfi_startproc
 1021              		@ args = 0, pretend = 0, frame = 0
 1022              		@ frame_needed = 0, uses_anonymous_args = 0
 1023              	.LVL104:
ARM GAS  C:\cygwin\tmp\ccOpUVhJ.s 			page 19


 1024 0000 08B5     		push	{r3, lr}
 1025              	.LCFI5:
 1026              		.cfi_def_cfa_offset 8
 1027              		.cfi_offset 3, -8
 1028              		.cfi_offset 14, -4
 1029              		.loc 1 486 0
 1030 0002 0378     		ldrb	r3, [r0, #0]	@ zero_extendqisi2
 1031 0004 012B     		cmp	r3, #1
 1032 0006 00D0     		beq	.L121
 1033              	.LVL105:
 1034              	.L119:
 1035 0008 08BD     		pop	{r3, pc}
 1036              	.LVL106:
 1037              	.L121:
 1038              		.loc 1 488 0
 1039 000a 0C4B     		ldr	r3, .L122
 1040 000c 9842     		cmp	r0, r3
 1041 000e FBD1     		bne	.L119
 1042              		.loc 1 489 0
 1043 0010 4A20     		movs	r0, #74
 1044              	.LVL107:
 1045 0012 FFF7FEFF 		bl	nvicDisableVector
 1046              	.LVL108:
 1047              		.loc 1 490 0
 1048 0016 4B20     		movs	r0, #75
 1049 0018 FFF7FEFF 		bl	nvicDisableVector
 1050              	.LVL109:
 1051              		.loc 1 491 0
 1052 001c 4FF4B842 		mov	r2, #23552
 1053 0020 C4F20002 		movt	r2, 16384
 1054              		.loc 1 492 0
 1055 0024 4FF48053 		mov	r3, #4096
 1056 0028 C4F20203 		movt	r3, 16386
 1057              		.loc 1 491 0
 1058 002c 0321     		movs	r1, #3
 1059 002e 1164     		str	r1, [r2, #64]
 1060              		.loc 1 492 0
 1061 0030 DA69     		ldr	r2, [r3, #28]
 1062 0032 22F40002 		bic	r2, r2, #8388608
 1063 0036 DA61     		str	r2, [r3, #28]
 1064 0038 E6E7     		b	.L119
 1065              	.L123:
 1066 003a 00BF     		.align	2
 1067              	.L122:
 1068 003c 00000000 		.word	.LANCHOR0
 1069              		.cfi_endproc
 1070              	.LFE128:
 1071              		.size	usb_lld_stop, .-usb_lld_stop
 1072              		.section	.text.usb_lld_set_address,"ax",%progbits
 1073              		.align	2
 1074              		.p2align 4,,15
 1075              		.global	usb_lld_set_address
 1076              		.thumb
 1077              		.thumb_func
 1078              		.type	usb_lld_set_address, %function
 1079              	usb_lld_set_address:
 1080              	.LFB130:
ARM GAS  C:\cygwin\tmp\ccOpUVhJ.s 			page 20


 1081              		.loc 1 535 0
 1082              		.cfi_startproc
 1083              		@ args = 0, pretend = 0, frame = 0
 1084              		@ frame_needed = 0, uses_anonymous_args = 0
 1085              		@ link register save eliminated.
 1086              	.LVL110:
 1087              		.loc 1 537 0
 1088 0000 90F84A20 		ldrb	r2, [r0, #74]	@ zero_extendqisi2
 1089 0004 4FF4B843 		mov	r3, #23552
 1090 0008 C4F20003 		movt	r3, 16384
 1091 000c 42F08002 		orr	r2, r2, #128
 1092 0010 DA64     		str	r2, [r3, #76]
 1093 0012 7047     		bx	lr
 1094              		.cfi_endproc
 1095              	.LFE130:
 1096              		.size	usb_lld_set_address, .-usb_lld_set_address
 1097 0014 AFF30080 		.section	.text.usb_lld_init_endpoint,"ax",%progbits
 1097      AFF30080 
 1097      AFF30080 
 1098              		.align	2
 1099              		.p2align 4,,15
 1100              		.global	usb_lld_init_endpoint
 1101              		.thumb
 1102              		.thumb_func
 1103              		.type	usb_lld_init_endpoint, %function
 1104              	usb_lld_init_endpoint:
 1105              	.LFB131:
 1106              		.loc 1 548 0
 1107              		.cfi_startproc
 1108              		@ args = 0, pretend = 0, frame = 0
 1109              		@ frame_needed = 0, uses_anonymous_args = 0
 1110              	.LVL111:
 1111              		.loc 1 551 0
 1112 0000 0B1D     		adds	r3, r1, #4
 1113              		.loc 1 548 0
 1114 0002 2DE9F041 		push	{r4, r5, r6, r7, r8, lr}
 1115              	.LCFI6:
 1116              		.cfi_def_cfa_offset 24
 1117              		.cfi_offset 4, -24
 1118              		.cfi_offset 5, -20
 1119              		.cfi_offset 6, -16
 1120              		.cfi_offset 7, -12
 1121              		.cfi_offset 8, -8
 1122              		.cfi_offset 14, -4
 1123              		.loc 1 551 0
 1124 0006 50F82350 		ldr	r5, [r0, r3, lsl #2]
 1125              	.LVL112:
 1126              		.loc 1 554 0
 1127 000a 2B68     		ldr	r3, [r5, #0]
 1128 000c 03F00303 		and	r3, r3, #3
 1129 0010 013B     		subs	r3, r3, #1
 1130 0012 022B     		cmp	r3, #2
 1131 0014 9CBF     		itt	ls
 1132 0016 314A     		ldrls	r2, .L141
 1133 0018 32F81330 		ldrhls	r3, [r2, r3, lsl #1]
 1134              		.loc 1 569 0
 1135 001c AA68     		ldr	r2, [r5, #8]
ARM GAS  C:\cygwin\tmp\ccOpUVhJ.s 			page 21


 1136              		.loc 1 548 0
 1137 001e 0646     		mov	r6, r0
 1138              		.loc 1 554 0
 1139 0020 88BF     		it	hi
 1140 0022 4FF40073 		movhi	r3, #512
 1141              	.LVL113:
 1142              		.loc 1 569 0
 1143 0026 0AB1     		cbz	r2, .L127
 1144              		.loc 1 570 0
 1145 0028 43F02003 		orr	r3, r3, #32
 1146              	.LVL114:
 1147              	.L127:
 1148              		.loc 1 573 0
 1149 002c EA68     		ldr	r2, [r5, #12]
 1150 002e 0AB1     		cbz	r2, .L128
 1151              		.loc 1 574 0
 1152 0030 43F40053 		orr	r3, r3, #8192
 1153              	.LVL115:
 1154              	.L128:
 1155              		.loc 1 577 0
 1156 0034 43EA0100 		orr	r0, r3, r1
 1157              	.LVL116:
 1158 0038 4FF4B842 		mov	r2, #23552
 1159 003c C4F20002 		movt	r2, 16384
 1160 0040 20F4F040 		bic	r0, r0, #30720
 1161 0044 20F07000 		bic	r0, r0, #112
 1162 0048 42F82100 		str	r0, [r2, r1, lsl #2]
 1163              		.loc 1 578 0
 1164 004c 47F67004 		movw	r4, #30832
 1165 0050 52F82170 		ldr	r7, [r2, r1, lsl #2]
 1166              		.loc 1 581 0
 1167 0054 688A     		ldrh	r0, [r5, #18]
 1168              		.loc 1 578 0
 1169 0056 1C40     		ands	r4, r4, r3
 1170 0058 7C40     		eors	r4, r4, r7
 1171 005a 42F82140 		str	r4, [r2, r1, lsl #2]
 1172              		.loc 1 582 0
 1173 005e 421E     		subs	r2, r0, #1
 1174              		.loc 1 581 0
 1175 0060 3E28     		cmp	r0, #62
 1176 0062 30D8     		bhi	.L140
 1177              		.loc 1 585 0
 1178 0064 42F00102 		orr	r2, r2, #1
 1179 0068 0132     		adds	r2, r2, #1
 1180 006a 02EBD272 		add	r2, r2, r2, lsr #31
 1181 006e 5202     		lsls	r2, r2, #9
 1182 0070 02F47C42 		and	r2, r2, #64512
 1183              	.LVL117:
 1184              	.L130:
 1185              		.loc 1 586 0
 1186 0074 4FF4B843 		mov	r3, #23552
 1187              	.LVL118:
 1188 0078 C4F20003 		movt	r3, 16384
 1189              	.LBB87:
 1190              	.LBB88:
 1191              		.loc 1 117 0
 1192 007c F46C     		ldr	r4, [r6, #76]
ARM GAS  C:\cygwin\tmp\ccOpUVhJ.s 			page 22


 1193              	.LBE88:
 1194              	.LBE87:
 1195              		.loc 1 586 0
 1196 007e 1F6D     		ldr	r7, [r3, #80]
 1197              		.loc 1 589 0
 1198 0080 2B8A     		ldrh	r3, [r5, #16]
 1199              		.loc 1 586 0
 1200 0082 07F10057 		add	r7, r7, #536870912
 1201 0086 07F54057 		add	r7, r7, #12288
 1202 008a 07EBC101 		add	r1, r7, r1, lsl #3
 1203              	.LVL119:
 1204 008e 4F00     		lsls	r7, r1, #1
 1205              	.LVL120:
 1206              	.LBB92:
 1207              	.LBB89:
 1208              		.loc 1 117 0
 1209 0090 A046     		mov	r8, r4
 1210              		.loc 1 118 0
 1211 0092 1C19     		adds	r4, r3, r4
 1212              	.LBE89:
 1213              	.LBE92:
 1214              		.loc 1 587 0
 1215 0094 0023     		movs	r3, #0
 1216              	.LBB93:
 1217              	.LBB90:
 1218              		.loc 1 119 0
 1219 0096 B4F5007F 		cmp	r4, #512
 1220              	.LBE90:
 1221              	.LBE93:
 1222              		.loc 1 587 0
 1223 009a BB80     		strh	r3, [r7, #4]	@ movhi
 1224              		.loc 1 588 0
 1225 009c BA81     		strh	r2, [r7, #12]	@ movhi
 1226              	.LVL121:
 1227              	.LBB94:
 1228              	.LBB91:
 1229              		.loc 1 118 0
 1230 009e F464     		str	r4, [r6, #76]
 1231              		.loc 1 119 0
 1232 00a0 04D9     		bls	.L131
 1233 00a2 0F48     		ldr	r0, .L141+4
 1234 00a4 FFF7FEFF 		bl	chDbgPanic
 1235              	.LVL122:
 1236 00a8 688A     		ldrh	r0, [r5, #18]
 1237 00aa F46C     		ldr	r4, [r6, #76]
 1238              	.L131:
 1239              	.LBE91:
 1240              	.LBE94:
 1241              	.LBB95:
 1242              	.LBB96:
 1243              		.loc 1 118 0
 1244 00ac 0019     		adds	r0, r0, r4
 1245              		.loc 1 119 0
 1246 00ae B0F5007F 		cmp	r0, #512
 1247              	.LBE96:
 1248              	.LBE95:
 1249              		.loc 1 589 0
ARM GAS  C:\cygwin\tmp\ccOpUVhJ.s 			page 23


 1250 00b2 C7F80080 		str	r8, [r7, #0]
 1251              	.LVL123:
 1252              	.LBB98:
 1253              	.LBB97:
 1254              		.loc 1 118 0
 1255 00b6 F064     		str	r0, [r6, #76]
 1256              		.loc 1 119 0
 1257 00b8 02D9     		bls	.L132
 1258 00ba 0948     		ldr	r0, .L141+4
 1259 00bc FFF7FEFF 		bl	chDbgPanic
 1260              	.LVL124:
 1261              	.L132:
 1262              	.LBE97:
 1263              	.LBE98:
 1264              		.loc 1 590 0
 1265 00c0 BC60     		str	r4, [r7, #8]
 1266 00c2 BDE8F081 		pop	{r4, r5, r6, r7, r8, pc}
 1267              	.LVL125:
 1268              	.L140:
 1269              		.loc 1 582 0
 1270 00c6 42F01F02 		orr	r2, r2, #31
 1271 00ca 0132     		adds	r2, r2, #1
 1272 00cc 5211     		asrs	r2, r2, #5
 1273 00ce 6FEAC262 		mvn	r2, r2, lsl #27
 1274 00d2 6FEA5242 		mvn	r2, r2, lsr #17
 1275 00d6 92B2     		uxth	r2, r2
 1276              	.LVL126:
 1277 00d8 CCE7     		b	.L130
 1278              	.L142:
 1279 00da 00BF     		.align	2
 1280              	.L141:
 1281 00dc 00000000 		.word	.LANCHOR1
 1282 00e0 00000000 		.word	.LC0
 1283              		.cfi_endproc
 1284              	.LFE131:
 1285              		.size	usb_lld_init_endpoint, .-usb_lld_init_endpoint
 1286 00e4 AFF30080 		.section	.text.usb_lld_reset,"ax",%progbits
 1286      AFF30080 
 1286      AFF30080 
 1287              		.align	2
 1288              		.p2align 4,,15
 1289              		.global	usb_lld_reset
 1290              		.thumb
 1291              		.thumb_func
 1292              		.type	usb_lld_reset, %function
 1293              	usb_lld_reset:
 1294              	.LFB129:
 1295              		.loc 1 505 0
 1296              		.cfi_startproc
 1297              		@ args = 0, pretend = 0, frame = 0
 1298              		@ frame_needed = 0, uses_anonymous_args = 0
 1299              		@ link register save eliminated.
 1300              	.LVL127:
 1301              		.loc 1 516 0
 1302 0000 4168     		ldr	r1, [r0, #4]
 1303              		.loc 1 509 0
 1304 0002 4FF4B843 		mov	r3, #23552
ARM GAS  C:\cygwin\tmp\ccOpUVhJ.s 			page 24


 1305              		.loc 1 505 0
 1306 0006 30B4     		push	{r4, r5}
 1307              	.LCFI7:
 1308              		.cfi_def_cfa_offset 8
 1309              		.cfi_offset 4, -8
 1310              		.cfi_offset 5, -4
 1311              		.loc 1 509 0
 1312 0008 C4F20003 		movt	r3, 16384
 1313              		.loc 1 516 0
 1314 000c CD68     		ldr	r5, [r1, #12]
 1315              		.loc 1 509 0
 1316 000e 0024     		movs	r4, #0
 1317 0010 1C65     		str	r4, [r3, #80]
 1318              		.loc 1 512 0
 1319 0012 A542     		cmp	r5, r4
 1320 0014 14BF     		ite	ne
 1321 0016 4FF41E45 		movne	r5, #40448
 1322 001a 4FF41C45 		moveq	r5, #39936
 1323              		.loc 1 510 0
 1324 001e 5C64     		str	r4, [r3, #68]
 1325              		.loc 1 525 0
 1326 0020 2146     		mov	r1, r4
 1327              		.loc 1 511 0
 1328 0022 8024     		movs	r4, #128
 1329 0024 DC64     		str	r4, [r3, #76]
 1330              	.LVL128:
 1331              		.loc 1 518 0
 1332 0026 1D64     		str	r5, [r3, #64]
 1333              	.LVL129:
 1334              	.LBB99:
 1335              	.LBB100:
 1336              		.loc 1 105 0
 1337 0028 4023     		movs	r3, #64
 1338 002a C364     		str	r3, [r0, #76]
 1339              	.LBE100:
 1340              	.LBE99:
 1341              		.loc 1 524 0
 1342 002c 024B     		ldr	r3, .L146
 1343 002e 0361     		str	r3, [r0, #16]
 1344              		.loc 1 526 0
 1345 0030 30BC     		pop	{r4, r5}
 1346              		.loc 1 525 0
 1347 0032 FFF7FEBF 		b	usb_lld_init_endpoint
 1348              	.LVL130:
 1349              	.L147:
 1350 0036 00BF     		.align	2
 1351              	.L146:
 1352 0038 00000000 		.word	.LANCHOR2
 1353              		.cfi_endproc
 1354              	.LFE129:
 1355              		.size	usb_lld_reset, .-usb_lld_reset
 1356 003c AFF30080 		.section	.text.usb_lld_disable_endpoints,"ax",%progbits
 1357              		.align	2
 1358              		.p2align 4,,15
 1359              		.global	usb_lld_disable_endpoints
 1360              		.thumb
 1361              		.thumb_func
ARM GAS  C:\cygwin\tmp\ccOpUVhJ.s 			page 25


 1362              		.type	usb_lld_disable_endpoints, %function
 1363              	usb_lld_disable_endpoints:
 1364              	.LFB132:
 1365              		.loc 1 600 0
 1366              		.cfi_startproc
 1367              		@ args = 0, pretend = 0, frame = 0
 1368              		@ frame_needed = 0, uses_anonymous_args = 0
 1369              		@ link register save eliminated.
 1370              	.LVL131:
 1371              	.LBB101:
 1372              	.LBB102:
 1373              		.loc 1 105 0
 1374 0000 4023     		movs	r3, #64
 1375              	.LBE102:
 1376              	.LBE101:
 1377              		.loc 1 608 0
 1378 0002 4FF4B842 		mov	r2, #23552
 1379              	.LBB105:
 1380              	.LBB103:
 1381              		.loc 1 105 0
 1382 0006 C364     		str	r3, [r0, #76]
 1383              	.LVL132:
 1384              	.LBE103:
 1385              	.LBE105:
 1386              		.loc 1 608 0
 1387 0008 C4F20002 		movt	r2, 16384
 1388              	.LBB106:
 1389              	.LBB104:
 1390              		.loc 1 607 0
 1391 000c 0123     		movs	r3, #1
 1392              	.LBE104:
 1393              	.LBE106:
 1394              		.loc 1 609 0
 1395 000e 0020     		movs	r0, #0
 1396              	.LVL133:
 1397              	.L149:
 1398              		.loc 1 608 0 discriminator 2
 1399 0010 52F82310 		ldr	r1, [r2, r3, lsl #2]
 1400 0014 42F82310 		str	r1, [r2, r3, lsl #2]
 1401              		.loc 1 609 0 discriminator 2
 1402 0018 42F82300 		str	r0, [r2, r3, lsl #2]
 1403              		.loc 1 607 0 discriminator 2
 1404 001c 0133     		adds	r3, r3, #1
 1405              	.LVL134:
 1406 001e 082B     		cmp	r3, #8
 1407 0020 F6D1     		bne	.L149
 1408              		.loc 1 611 0
 1409 0022 7047     		bx	lr
 1410              		.cfi_endproc
 1411              	.LFE132:
 1412              		.size	usb_lld_disable_endpoints, .-usb_lld_disable_endpoints
 1413 0024 AFF30080 		.section	.text.usb_lld_get_status_out,"ax",%progbits
 1413      AFF30080 
 1413      AFF30080 
 1414              		.align	2
 1415              		.p2align 4,,15
 1416              		.global	usb_lld_get_status_out
ARM GAS  C:\cygwin\tmp\ccOpUVhJ.s 			page 26


 1417              		.thumb
 1418              		.thumb_func
 1419              		.type	usb_lld_get_status_out, %function
 1420              	usb_lld_get_status_out:
 1421              	.LFB133:
 1422              		.loc 1 625 0
 1423              		.cfi_startproc
 1424              		@ args = 0, pretend = 0, frame = 0
 1425              		@ frame_needed = 0, uses_anonymous_args = 0
 1426              		@ link register save eliminated.
 1427              	.LVL135:
 1428              		.loc 1 628 0
 1429 0000 4FF4B843 		mov	r3, #23552
 1430 0004 C4F20003 		movt	r3, 16384
 1431 0008 53F82100 		ldr	r0, [r3, r1, lsl #2]
 1432              	.LVL136:
 1433 000c 10F44050 		ands	r0, r0, #12288
 1434 0010 04D0     		beq	.L154
 1435              		.loc 1 634 0
 1436 0012 B0F5805F 		cmp	r0, #4096
 1437 0016 0CBF     		ite	eq
 1438 0018 0120     		moveq	r0, #1
 1439 001a 0220     		movne	r0, #2
 1440              	.L154:
 1441              		.loc 1 636 0
 1442 001c 7047     		bx	lr
 1443              		.cfi_endproc
 1444              	.LFE133:
 1445              		.size	usb_lld_get_status_out, .-usb_lld_get_status_out
 1446 001e 00BF     		.section	.text.usb_lld_get_status_in,"ax",%progbits
 1447              		.align	2
 1448              		.p2align 4,,15
 1449              		.global	usb_lld_get_status_in
 1450              		.thumb
 1451              		.thumb_func
 1452              		.type	usb_lld_get_status_in, %function
 1453              	usb_lld_get_status_in:
 1454              	.LFB134:
 1455              		.loc 1 650 0
 1456              		.cfi_startproc
 1457              		@ args = 0, pretend = 0, frame = 0
 1458              		@ frame_needed = 0, uses_anonymous_args = 0
 1459              		@ link register save eliminated.
 1460              	.LVL137:
 1461              		.loc 1 653 0
 1462 0000 4FF4B843 		mov	r3, #23552
 1463 0004 C4F20003 		movt	r3, 16384
 1464 0008 53F82130 		ldr	r3, [r3, r1, lsl #2]
 1465 000c 03F03003 		and	r3, r3, #48
 1466 0010 102B     		cmp	r3, #16
 1467 0012 9ABF     		itte	ls
 1468 0014 014A     		ldrls	r2, .L159
 1469 0016 D05C     		ldrbls	r0, [r2, r3]	@ zero_extendqisi2
 1470              	.LVL138:
 1471 0018 0220     		movhi	r0, #2
 1472              		.loc 1 661 0
 1473 001a 7047     		bx	lr
ARM GAS  C:\cygwin\tmp\ccOpUVhJ.s 			page 27


 1474              	.L160:
 1475              		.align	2
 1476              	.L159:
 1477 001c 00000000 		.word	.LANCHOR3
 1478              		.cfi_endproc
 1479              	.LFE134:
 1480              		.size	usb_lld_get_status_in, .-usb_lld_get_status_in
 1481              		.section	.text.usb_lld_read_setup,"ax",%progbits
 1482              		.align	2
 1483              		.p2align 4,,15
 1484              		.global	usb_lld_read_setup
 1485              		.thumb
 1486              		.thumb_func
 1487              		.type	usb_lld_read_setup, %function
 1488              	usb_lld_read_setup:
 1489              	.LFB135:
 1490              		.loc 1 677 0
 1491              		.cfi_startproc
 1492              		@ args = 0, pretend = 0, frame = 0
 1493              		@ frame_needed = 0, uses_anonymous_args = 0
 1494              		@ link register save eliminated.
 1495              	.LVL139:
 1496              		.loc 1 683 0
 1497 0000 4FF4B843 		mov	r3, #23552
 1498 0004 C4F20003 		movt	r3, 16384
 1499              		.loc 1 677 0
 1500 0008 0232     		adds	r2, r2, #2
 1501              	.LVL140:
 1502              		.loc 1 683 0
 1503 000a 1B6D     		ldr	r3, [r3, #80]
 1504 000c 03F10053 		add	r3, r3, #536870912
 1505 0010 03F54053 		add	r3, r3, #12288
 1506 0014 03EBC101 		add	r1, r3, r1, lsl #3
 1507              	.LVL141:
 1508 0018 4B00     		lsls	r3, r1, #1
 1509              	.LVL142:
 1510              		.loc 1 684 0
 1511 001a 9868     		ldr	r0, [r3, #8]
 1512              	.LVL143:
 1513 001c 00F10050 		add	r0, r0, #536870912
 1514 0020 00F54050 		add	r0, r0, #12288
 1515 0024 4000     		lsls	r0, r0, #1
 1516              	.LVL144:
 1517 0026 031F     		subs	r3, r0, #4
 1518              	.LVL145:
 1519              		.loc 1 677 0
 1520 0028 0C30     		adds	r0, r0, #12
 1521              	.LVL146:
 1522              	.L162:
 1523              		.loc 1 686 0 discriminator 2
 1524 002a 53F8041F 		ldr	r1, [r3, #4]!
 1525 002e 22F8021C 		strh	r1, [r2, #-2]	@ movhi
 1526 0032 0232     		adds	r2, r2, #2
 1527              		.loc 1 685 0 discriminator 2
 1528 0034 8342     		cmp	r3, r0
 1529 0036 F8D1     		bne	.L162
 1530              		.loc 1 689 0
ARM GAS  C:\cygwin\tmp\ccOpUVhJ.s 			page 28


 1531 0038 7047     		bx	lr
 1532              		.cfi_endproc
 1533              	.LFE135:
 1534              		.size	usb_lld_read_setup, .-usb_lld_read_setup
 1535 003a 00BFAFF3 		.section	.text.usb_lld_prepare_receive,"ax",%progbits
 1535      0080
 1536              		.align	2
 1537              		.p2align 4,,15
 1538              		.global	usb_lld_prepare_receive
 1539              		.thumb
 1540              		.thumb_func
 1541              		.type	usb_lld_prepare_receive, %function
 1542              	usb_lld_prepare_receive:
 1543              	.LFB136:
 1544              		.loc 1 699 0
 1545              		.cfi_startproc
 1546              		@ args = 0, pretend = 0, frame = 0
 1547              		@ frame_needed = 0, uses_anonymous_args = 0
 1548              		@ link register save eliminated.
 1549              	.LVL147:
 1550              		.loc 1 700 0
 1551 0000 0431     		adds	r1, r1, #4
 1552              	.LVL148:
 1553 0002 50F82110 		ldr	r1, [r0, r1, lsl #2]
 1554 0006 8B69     		ldr	r3, [r1, #24]
 1555              	.LVL149:
 1556              		.loc 1 703 0
 1557 0008 5A68     		ldr	r2, [r3, #4]
 1558 000a 32B1     		cbz	r2, .L167
 1559              		.loc 1 706 0
 1560 000c 498A     		ldrh	r1, [r1, #18]
 1561 000e 013A     		subs	r2, r2, #1
 1562 0010 5218     		adds	r2, r2, r1
 1563 0012 B2FBF1F1 		udiv	r1, r2, r1
 1564 0016 1982     		strh	r1, [r3, #16]	@ movhi
 1565 0018 7047     		bx	lr
 1566              	.L167:
 1567              		.loc 1 704 0
 1568 001a 0122     		movs	r2, #1
 1569 001c 1A82     		strh	r2, [r3, #16]	@ movhi
 1570 001e 7047     		bx	lr
 1571              		.cfi_endproc
 1572              	.LFE136:
 1573              		.size	usb_lld_prepare_receive, .-usb_lld_prepare_receive
 1574              		.section	.text.usb_lld_prepare_transmit,"ax",%progbits
 1575              		.align	2
 1576              		.p2align 4,,15
 1577              		.global	usb_lld_prepare_transmit
 1578              		.thumb
 1579              		.thumb_func
 1580              		.type	usb_lld_prepare_transmit, %function
 1581              	usb_lld_prepare_transmit:
 1582              	.LFB137:
 1583              		.loc 1 718 0
 1584              		.cfi_startproc
 1585              		@ args = 0, pretend = 0, frame = 0
 1586              		@ frame_needed = 0, uses_anonymous_args = 0
ARM GAS  C:\cygwin\tmp\ccOpUVhJ.s 			page 29


 1587              		@ link register save eliminated.
 1588              	.LVL150:
 1589              		.loc 1 720 0
 1590 0000 0B1D     		adds	r3, r1, #4
 1591              		.loc 1 718 0
 1592 0002 30B4     		push	{r4, r5}
 1593              	.LCFI8:
 1594              		.cfi_def_cfa_offset 8
 1595              		.cfi_offset 4, -8
 1596              		.cfi_offset 5, -4
 1597              		.loc 1 720 0
 1598 0004 50F82330 		ldr	r3, [r0, r3, lsl #2]
 1599 0008 5869     		ldr	r0, [r3, #20]
 1600              	.LVL151:
 1601              		.loc 1 724 0
 1602 000a 1A8A     		ldrh	r2, [r3, #16]
 1603              		.loc 1 723 0
 1604 000c 4368     		ldr	r3, [r0, #4]
 1605              	.LVL152:
 1606              		.loc 1 718 0
 1607 000e 0C46     		mov	r4, r1
 1608              		.loc 1 727 0
 1609 0010 0178     		ldrb	r1, [r0, #0]	@ zero_extendqisi2
 1610              	.LVL153:
 1611 0012 9A42     		cmp	r2, r3
 1612 0014 28BF     		it	cs
 1613 0016 1A46     		movcs	r2, r3
 1614              	.LVL154:
 1615              		.loc 1 728 0
 1616 0018 4FF4B843 		mov	r3, #23552
 1617 001c C4F20003 		movt	r3, 16384
 1618              		.loc 1 727 0
 1619 0020 E9B9     		cbnz	r1, .L175
 1620              		.loc 1 731 0
 1621 0022 1B6D     		ldr	r3, [r3, #80]
 1622 0024 C068     		ldr	r0, [r0, #12]
 1623              	.LVL155:
 1624 0026 03F10053 		add	r3, r3, #536870912
 1625 002a 03F54053 		add	r3, r3, #12288
 1626 002e 03EBC404 		add	r4, r3, r4, lsl #3
 1627              	.LVL156:
 1628 0032 6400     		lsls	r4, r4, #1
 1629              	.LVL157:
 1630              	.LBB107:
 1631              	.LBB108:
 1632              		.loc 1 206 0
 1633 0034 531C     		adds	r3, r2, #1
 1634              		.loc 1 203 0
 1635 0036 2168     		ldr	r1, [r4, #0]
 1636 0038 01F10051 		add	r1, r1, #536870912
 1637 003c 01F54051 		add	r1, r1, #12288
 1638              		.loc 1 205 0
 1639 0040 95B2     		uxth	r5, r2
 1640              		.loc 1 203 0
 1641 0042 4900     		lsls	r1, r1, #1
 1642              	.LVL158:
 1643              		.loc 1 207 0
ARM GAS  C:\cygwin\tmp\ccOpUVhJ.s 			page 30


 1644 0044 5B08     		lsrs	r3, r3, #1
 1645              	.LVL159:
 1646              		.loc 1 205 0
 1647 0046 A580     		strh	r5, [r4, #4]	@ movhi
 1648              		.loc 1 207 0
 1649 0048 07D0     		beq	.L168
 1650              		.loc 1 718 0
 1651 004a 821C     		adds	r2, r0, #2
 1652              	.LVL160:
 1653              	.L172:
 1654              		.loc 1 210 0
 1655 004c 32F8020C 		ldrh	r0, [r2, #-2]
 1656 0050 0232     		adds	r2, r2, #2
 1657              		.loc 1 207 0
 1658 0052 013B     		subs	r3, r3, #1
 1659              		.loc 1 210 0
 1660 0054 41F8040B 		str	r0, [r1], #4
 1661              	.LVL161:
 1662              		.loc 1 207 0
 1663 0058 F8D1     		bne	.L172
 1664              	.L168:
 1665              	.LBE108:
 1666              	.LBE107:
 1667              		.loc 1 733 0
 1668 005a 30BC     		pop	{r4, r5}
 1669 005c 7047     		bx	lr
 1670              	.LVL162:
 1671              	.L175:
 1672              		.loc 1 728 0
 1673 005e C168     		ldr	r1, [r0, #12]
 1674 0060 186D     		ldr	r0, [r3, #80]
 1675              	.LVL163:
 1676 0062 00F10050 		add	r0, r0, #536870912
 1677 0066 00F54050 		add	r0, r0, #12288
 1678 006a 00EBC400 		add	r0, r0, r4, lsl #3
 1679 006e 4000     		lsls	r0, r0, #1
 1680              		.loc 1 733 0
 1681 0070 30BC     		pop	{r4, r5}
 1682              		.loc 1 728 0
 1683 0072 FFF7FEBF 		b	usb_packet_write_from_queue
 1684              	.LVL164:
 1685              		.cfi_endproc
 1686              	.LFE137:
 1687              		.size	usb_lld_prepare_transmit, .-usb_lld_prepare_transmit
 1688 0076 00BFAFF3 		.section	.text.usb_lld_start_out,"ax",%progbits
 1688      0080AFF3 
 1688      0080
 1689              		.align	2
 1690              		.p2align 4,,15
 1691              		.global	usb_lld_start_out
 1692              		.thumb
 1693              		.thumb_func
 1694              		.type	usb_lld_start_out, %function
 1695              	usb_lld_start_out:
 1696              	.LFB138:
 1697              		.loc 1 743 0
 1698              		.cfi_startproc
ARM GAS  C:\cygwin\tmp\ccOpUVhJ.s 			page 31


 1699              		@ args = 0, pretend = 0, frame = 0
 1700              		@ frame_needed = 0, uses_anonymous_args = 0
 1701              		@ link register save eliminated.
 1702              	.LVL165:
 1703              		.loc 1 747 0
 1704 0000 4FF4B843 		mov	r3, #23552
 1705 0004 C4F20003 		movt	r3, 16384
 1706 0008 53F82120 		ldr	r2, [r3, r1, lsl #2]
 1707 000c 22F49042 		bic	r2, r2, #18432
 1708 0010 22F07002 		bic	r2, r2, #112
 1709 0014 82F44052 		eor	r2, r2, #12288
 1710 0018 43F82120 		str	r2, [r3, r1, lsl #2]
 1711 001c 7047     		bx	lr
 1712              		.cfi_endproc
 1713              	.LFE138:
 1714              		.size	usb_lld_start_out, .-usb_lld_start_out
 1715 001e 00BF     		.section	.text.usb_lld_start_in,"ax",%progbits
 1716              		.align	2
 1717              		.p2align 4,,15
 1718              		.global	usb_lld_start_in
 1719              		.thumb
 1720              		.thumb_func
 1721              		.type	usb_lld_start_in, %function
 1722              	usb_lld_start_in:
 1723              	.LFB139:
 1724              		.loc 1 758 0
 1725              		.cfi_startproc
 1726              		@ args = 0, pretend = 0, frame = 0
 1727              		@ frame_needed = 0, uses_anonymous_args = 0
 1728              		@ link register save eliminated.
 1729              	.LVL166:
 1730              		.loc 1 762 0
 1731 0000 4FF4B843 		mov	r3, #23552
 1732 0004 C4F20003 		movt	r3, 16384
 1733 0008 53F82120 		ldr	r2, [r3, r1, lsl #2]
 1734 000c 22F4F042 		bic	r2, r2, #30720
 1735 0010 22F04002 		bic	r2, r2, #64
 1736 0014 82F03002 		eor	r2, r2, #48
 1737 0018 43F82120 		str	r2, [r3, r1, lsl #2]
 1738 001c 7047     		bx	lr
 1739              		.cfi_endproc
 1740              	.LFE139:
 1741              		.size	usb_lld_start_in, .-usb_lld_start_in
 1742 001e 00BF     		.section	.text.usb_lld_stall_out,"ax",%progbits
 1743              		.align	2
 1744              		.p2align 4,,15
 1745              		.global	usb_lld_stall_out
 1746              		.thumb
 1747              		.thumb_func
 1748              		.type	usb_lld_stall_out, %function
 1749              	usb_lld_stall_out:
 1750              	.LFB140:
 1751              		.loc 1 773 0
 1752              		.cfi_startproc
 1753              		@ args = 0, pretend = 0, frame = 0
 1754              		@ frame_needed = 0, uses_anonymous_args = 0
 1755              		@ link register save eliminated.
ARM GAS  C:\cygwin\tmp\ccOpUVhJ.s 			page 32


 1756              	.LVL167:
 1757              		.loc 1 777 0
 1758 0000 4FF4B843 		mov	r3, #23552
 1759 0004 C4F20003 		movt	r3, 16384
 1760 0008 53F82120 		ldr	r2, [r3, r1, lsl #2]
 1761 000c 22F49042 		bic	r2, r2, #18432
 1762 0010 22F07002 		bic	r2, r2, #112
 1763 0014 82F48052 		eor	r2, r2, #4096
 1764 0018 43F82120 		str	r2, [r3, r1, lsl #2]
 1765 001c 7047     		bx	lr
 1766              		.cfi_endproc
 1767              	.LFE140:
 1768              		.size	usb_lld_stall_out, .-usb_lld_stall_out
 1769 001e 00BF     		.section	.text.usb_lld_stall_in,"ax",%progbits
 1770              		.align	2
 1771              		.p2align 4,,15
 1772              		.global	usb_lld_stall_in
 1773              		.thumb
 1774              		.thumb_func
 1775              		.type	usb_lld_stall_in, %function
 1776              	usb_lld_stall_in:
 1777              	.LFB141:
 1778              		.loc 1 788 0
 1779              		.cfi_startproc
 1780              		@ args = 0, pretend = 0, frame = 0
 1781              		@ frame_needed = 0, uses_anonymous_args = 0
 1782              		@ link register save eliminated.
 1783              	.LVL168:
 1784              		.loc 1 792 0
 1785 0000 4FF4B843 		mov	r3, #23552
 1786 0004 C4F20003 		movt	r3, 16384
 1787 0008 53F82120 		ldr	r2, [r3, r1, lsl #2]
 1788 000c 22F4F042 		bic	r2, r2, #30720
 1789 0010 22F04002 		bic	r2, r2, #64
 1790 0014 82F01002 		eor	r2, r2, #16
 1791 0018 43F82120 		str	r2, [r3, r1, lsl #2]
 1792 001c 7047     		bx	lr
 1793              		.cfi_endproc
 1794              	.LFE141:
 1795              		.size	usb_lld_stall_in, .-usb_lld_stall_in
 1796 001e 00BF     		.section	.text.usb_lld_clear_out,"ax",%progbits
 1797              		.align	2
 1798              		.p2align 4,,15
 1799              		.global	usb_lld_clear_out
 1800              		.thumb
 1801              		.thumb_func
 1802              		.type	usb_lld_clear_out, %function
 1803              	usb_lld_clear_out:
 1804              	.LFB142:
 1805              		.loc 1 803 0
 1806              		.cfi_startproc
 1807              		@ args = 0, pretend = 0, frame = 0
 1808              		@ frame_needed = 0, uses_anonymous_args = 0
 1809              		@ link register save eliminated.
 1810              	.LVL169:
 1811              		.loc 1 809 0
 1812 0000 4FF4B843 		mov	r3, #23552
ARM GAS  C:\cygwin\tmp\ccOpUVhJ.s 			page 33


 1813 0004 C4F20003 		movt	r3, 16384
 1814 0008 53F82120 		ldr	r2, [r3, r1, lsl #2]
 1815 000c 02F44052 		and	r2, r2, #12288
 1816 0010 B2F5405F 		cmp	r2, #12288
 1817              		.loc 1 810 0
 1818 0014 1FBF     		itttt	ne
 1819 0016 53F82120 		ldrne	r2, [r3, r1, lsl #2]
 1820 001a 22F4F042 		bicne	r2, r2, #30720
 1821 001e 22F04002 		bicne	r2, r2, #64
 1822 0022 82F40052 		eorne	r2, r2, #8192
 1823 0026 18BF     		it	ne
 1824 0028 43F82120 		strne	r2, [r3, r1, lsl #2]
 1825 002c 7047     		bx	lr
 1826              		.cfi_endproc
 1827              	.LFE142:
 1828              		.size	usb_lld_clear_out, .-usb_lld_clear_out
 1829 002e 00BF     		.section	.text.usb_lld_clear_in,"ax",%progbits
 1830              		.align	2
 1831              		.p2align 4,,15
 1832              		.global	usb_lld_clear_in
 1833              		.thumb
 1834              		.thumb_func
 1835              		.type	usb_lld_clear_in, %function
 1836              	usb_lld_clear_in:
 1837              	.LFB143:
 1838              		.loc 1 821 0
 1839              		.cfi_startproc
 1840              		@ args = 0, pretend = 0, frame = 0
 1841              		@ frame_needed = 0, uses_anonymous_args = 0
 1842              		@ link register save eliminated.
 1843              	.LVL170:
 1844              		.loc 1 827 0
 1845 0000 4FF4B843 		mov	r3, #23552
 1846 0004 C4F20003 		movt	r3, 16384
 1847 0008 53F82120 		ldr	r2, [r3, r1, lsl #2]
 1848 000c 02F03002 		and	r2, r2, #48
 1849 0010 302A     		cmp	r2, #48
 1850              		.loc 1 828 0
 1851 0012 1FBF     		itttt	ne
 1852 0014 53F82120 		ldrne	r2, [r3, r1, lsl #2]
 1853 0018 22F4F042 		bicne	r2, r2, #30720
 1854 001c 22F04002 		bicne	r2, r2, #64
 1855 0020 82F02002 		eorne	r2, r2, #32
 1856 0024 18BF     		it	ne
 1857 0026 43F82120 		strne	r2, [r3, r1, lsl #2]
 1858 002a 7047     		bx	lr
 1859              		.cfi_endproc
 1860              	.LFE143:
 1861              		.size	usb_lld_clear_in, .-usb_lld_clear_in
 1862              		.global	USBD1
 1863 002c AFF30080 		.section	.bss.USBD1,"aw",%nobits
 1864              		.align	2
 1865              		.set	.LANCHOR0,. + 0
 1866              		.type	USBD1, %object
 1867              		.size	USBD1, 80
 1868              	USBD1:
 1869 0000 00000000 		.space	80
ARM GAS  C:\cygwin\tmp\ccOpUVhJ.s 			page 34


 1869      00000000 
 1869      00000000 
 1869      00000000 
 1869      00000000 
 1870              		.section	.rodata.CSWTCH.21,"a",%progbits
 1871              		.align	2
 1872              		.set	.LANCHOR3,. + 0
 1873              		.type	CSWTCH.21, %object
 1874              		.size	CSWTCH.21, 17
 1875              	CSWTCH.21:
 1876 0000 00       		.byte	0
 1877 0001 02       		.byte	2
 1878 0002 02       		.byte	2
 1879 0003 02       		.byte	2
 1880 0004 02       		.byte	2
 1881 0005 02       		.byte	2
 1882 0006 02       		.byte	2
 1883 0007 02       		.byte	2
 1884 0008 02       		.byte	2
 1885 0009 02       		.byte	2
 1886 000a 02       		.byte	2
 1887 000b 02       		.byte	2
 1888 000c 02       		.byte	2
 1889 000d 02       		.byte	2
 1890 000e 02       		.byte	2
 1891 000f 02       		.byte	2
 1892 0010 01       		.byte	1
 1893 0011 000000   		.section	.rodata.str1.4,"aMS",%progbits,1
 1894              		.align	2
 1895              	.LC0:
 1896 0000 7573625F 		.ascii	"usb_pm_alloc(), #1\000"
 1896      706D5F61 
 1896      6C6C6F63 
 1896      28292C20 
 1896      233100
 1897 0013 00       		.section	.rodata.CSWTCH.15,"a",%progbits
 1898              		.align	2
 1899              		.set	.LANCHOR1,. + 0
 1900              		.type	CSWTCH.15, %object
 1901              		.size	CSWTCH.15, 6
 1902              	CSWTCH.15:
 1903 0000 0004     		.short	1024
 1904 0002 0000     		.short	0
 1905 0004 0006     		.short	1536
 1906 0006 0000     		.section	.rodata.ep0config,"a",%progbits
 1907              		.align	2
 1908              		.set	.LANCHOR2,. + 0
 1909              		.type	ep0config, %object
 1910              		.size	ep0config, 36
 1911              	ep0config:
 1912 0000 00000000 		.word	0
 1913 0004 00000000 		.word	_usb_ep0setup
 1914 0008 00000000 		.word	_usb_ep0in
 1915 000c 00000000 		.word	_usb_ep0out
 1916 0010 4000     		.short	64
 1917 0012 4000     		.short	64
 1918 0014 00000000 		.word	ep0_state
ARM GAS  C:\cygwin\tmp\ccOpUVhJ.s 			page 35


 1919 0018 00000000 		.word	ep0_state
 1920 001c 0100     		.short	1
 1921 001e 0000     		.space	2
 1922 0020 00000000 		.word	ep0setup_buffer
 1923              		.section	.bss.ep0_state,"aw",%nobits
 1924              		.align	2
 1925              		.type	ep0_state, %object
 1926              		.size	ep0_state, 20
 1927              	ep0_state:
 1928 0000 00000000 		.space	20
 1928      00000000 
 1928      00000000 
 1928      00000000 
 1928      00000000 
 1929              		.section	.bss.ep0setup_buffer,"aw",%nobits
 1930              		.align	2
 1931              		.type	ep0setup_buffer, %object
 1932              		.size	ep0setup_buffer, 8
 1933              	ep0setup_buffer:
 1934 0000 00000000 		.space	8
 1934      00000000 
 1935              		.text
 1936              	.Letext0:
 1937              		.file 3 "c:\\chibinew\\tools\\yagarto-tools\\yagarto-20121222\\bin\\../lib/gcc/arm-none-eabi/4.7.2
 1938              		.file 4 "c:/chibinew/tools/yagarto-tools/yagarto-20121222/lib/gcc/../../arm-none-eabi/sys-include/
 1939              		.file 5 "../../../os/ports/GCC/ARMCMx/chtypes.h"
 1940              		.file 6 "../../../os/kernel/include/chlists.h"
 1941              		.file 7 "../../../os/kernel/include/chthreads.h"
 1942              		.file 8 "../../../os/ports/GCC/ARMCMx/chcore_v7m.h"
 1943              		.file 9 "../../../os/kernel/include/chmtx.h"
 1944              		.file 10 "../../../os/kernel/include/chqueues.h"
 1945              		.file 11 "../../../os/hal/platforms/STM32F30x/stm32f30x.h"
 1946              		.file 12 "../../../os/hal/include/usb.h"
 1947              		.file 13 "../../../os/hal/platforms/STM32/USBv1/usb_lld.h"
 1948              		.file 14 "../../../os/hal/platforms/STM32/USBv1/stm32_usb.h"
 1949              		.file 15 "../../../os/kernel/include/chdebug.h"
 1950              		.file 16 "../../../os/ports/common/ARMCMx/CMSIS/include/core_cm4.h"
 1951              		.file 17 "../../../os/ports/common/ARMCMx/nvic.h"
 1952              		.file 18 "../../../os/kernel/include/chschd.h"