GAS LISTING C:\cygwin\tmp\ccBu98q0.s 			page 1


   1              		.file	"main.c"
   2              	 # GNU C (GCC) version 4.6.2 (mingw32)
   3              	 #	compiled by GNU C version 4.6.2, GMP version 5.0.1, MPFR version 2.4.1, MPC version 0.8.1
   4              	 # GGC heuristics: --param ggc-min-expand=100 --param ggc-min-heapsize=131072
   5              	 # options passed:  -I . -I ../../os/ports/GCC/SIMIA32
   6              	 # -I ../../os/kernel/include -I ../../test -I ../../os/hal/include
   7              	 # -I ../../os/hal/platforms/Win32 -I ../../boards/simulator
   8              	 # -I ../../os/various -iprefix c:\mingw\bin\../lib/gcc/mingw32/4.6.2/
   9              	 # -MD main.d -MF .dep/main.o.d -MP -MQ main.o -D SIMULATOR main.c
  10              	 # -mtune=i386 -march=i386 -auxbase-strip main.o -ggdb -O0 -Wall -Wextra
  11              	 # -Wstrict-prototypes -fomit-frame-pointer -fprofile-arcs -ftest-coverage
  12              	 # -fverbose-asm
  13              	 # options enabled:  -fasynchronous-unwind-tables -fauto-inc-dec
  14              	 # -fbranch-count-reg -fcommon -fdelete-null-pointer-checks
  15              	 # -fdwarf2-cfi-asm -fearly-inlining -feliminate-unused-debug-types
  16              	 # -ffunction-cse -fgcse-lm -fident -finline-functions-called-once
  17              	 # -fira-share-save-slots -fira-share-spill-slots -fivopts
  18              	 # -fkeep-inline-dllexport -fkeep-static-consts -fleading-underscore
  19              	 # -fmath-errno -fmerge-debug-strings -fmove-loop-invariants
  20              	 # -fomit-frame-pointer -fpeephole -fprefetch-loop-arrays -fprofile-arcs
  21              	 # -freg-struct-return -fsched-critical-path-heuristic
  22              	 # -fsched-dep-count-heuristic -fsched-group-heuristic -fsched-interblock
  23              	 # -fsched-last-insn-heuristic -fsched-rank-heuristic -fsched-spec
  24              	 # -fsched-spec-insn-heuristic -fsched-stalled-insns-dep
  25              	 # -fset-stack-executable -fshow-column -fsigned-zeros
  26              	 # -fsplit-ivs-in-unroller -fstrict-volatile-bitfields -ftest-coverage
  27              	 # -ftrapping-math -ftree-cselim -ftree-forwprop -ftree-loop-if-convert
  28              	 # -ftree-loop-im -ftree-loop-ivcanon -ftree-loop-optimize
  29              	 # -ftree-parallelize-loops= -ftree-phiprop -ftree-pta -ftree-reassoc
  30              	 # -ftree-scev-cprop -ftree-slp-vectorize -ftree-vect-loop-version
  31              	 # -funit-at-a-time -funwind-tables -fvect-cost-model -fverbose-asm
  32              	 # -fzero-initialized-in-bss -m32 -m80387 -m96bit-long-double
  33              	 # -maccumulate-outgoing-args -malign-double -malign-stringops
  34              	 # -mfancy-math-387 -mfp-ret-in-387 -mieee-fp -mno-red-zone -mno-sse4
  35              	 # -mpush-args -msahf -mstack-arg-probe
  36              	
  37              		.text
  38              	Ltext0:
  39              	 # Compiler executable checksum: c20aed7c018482d7b62efcd5dcab2a9d
  40              	
  41              		.def	___main;	.scl	2;	.type	32;	.endef
  42              		.globl	_main
  43              		.def	_main;	.scl	2;	.type	32;	.endef
  44              	_main:
  45              	LFB9:
  46              		.file 1 "main.c"
  47              		.loc 1 33 0
  48              		.cfi_startproc
  49 0000 55       		pushl	%ebp	 #
  50              	LCFI0:
  51              		.cfi_def_cfa_offset 8
  52              		.cfi_offset 5, -8
  53 0001 89E5     		movl	%esp, %ebp	 #,
  54              	LCFI1:
  55              		.cfi_def_cfa_register 5
  56 0003 83E4F0   		andl	$-16, %esp	 #,
  57 0006 83EC20   		subl	$32, %esp	 #,
GAS LISTING C:\cygwin\tmp\ccBu98q0.s 			page 2


  58              		.loc 1 33 0
  59 0009 E8000000 		call	___main	 #
  59      00
  60 000e A1000000 		movl	LPBX1, %eax	 # *LPBX1, PROF_edge_counter.0
  60      00
  61 0013 8B150400 		movl	LPBX1+4, %edx	 # *LPBX1, PROF_edge_counter.0
  61      0000
  62 0019 83C001   		addl	$1, %eax	 #, PROF_edge_counter.0
  63 001c 83D200   		adcl	$0, %edx	 #, PROF_edge_counter.0
  64 001f A3000000 		movl	%eax, LPBX1	 # PROF_edge_counter.0, *LPBX1
  64      00
  65 0024 89150400 		movl	%edx, LPBX1+4	 # PROF_edge_counter.0, *LPBX1
  65      0000
  66              		.loc 1 46 0
  67 002a E8000000 		call	_halInit	 #
  67      00
  68 002f A1080000 		movl	LPBX1+8, %eax	 # *LPBX1, PROF_edge_counter.0
  68      00
  69 0034 8B150C00 		movl	LPBX1+12, %edx	 # *LPBX1, PROF_edge_counter.0
  69      0000
  70 003a 83C001   		addl	$1, %eax	 #, PROF_edge_counter.0
  71 003d 83D200   		adcl	$0, %edx	 #, PROF_edge_counter.0
  72 0040 A3080000 		movl	%eax, LPBX1+8	 # PROF_edge_counter.0, *LPBX1
  72      00
  73 0045 89150C00 		movl	%edx, LPBX1+12	 # PROF_edge_counter.0, *LPBX1
  73      0000
  74              		.loc 1 47 0
  75 004b E8000000 		call	_conInit	 #
  75      00
  76 0050 A1100000 		movl	LPBX1+16, %eax	 # *LPBX1, PROF_edge_counter.0
  76      00
  77 0055 8B151400 		movl	LPBX1+20, %edx	 # *LPBX1, PROF_edge_counter.0
  77      0000
  78 005b 83C001   		addl	$1, %eax	 #, PROF_edge_counter.0
  79 005e 83D200   		adcl	$0, %edx	 #, PROF_edge_counter.0
  80 0061 A3100000 		movl	%eax, LPBX1+16	 # PROF_edge_counter.0, *LPBX1
  80      00
  81 0066 89151400 		movl	%edx, LPBX1+20	 # PROF_edge_counter.0, *LPBX1
  81      0000
  82              		.loc 1 48 0
  83 006c E8000000 		call	_chSysInit	 #
  83      00
  84 0071 A1180000 		movl	LPBX1+24, %eax	 # *LPBX1, PROF_edge_counter.0
  84      00
  85 0076 8B151C00 		movl	LPBX1+28, %edx	 # *LPBX1, PROF_edge_counter.0
  85      0000
  86 007c 83C001   		addl	$1, %eax	 #, PROF_edge_counter.0
  87 007f 83D200   		adcl	$0, %edx	 #, PROF_edge_counter.0
  88 0082 A3180000 		movl	%eax, LPBX1+24	 # PROF_edge_counter.0, *LPBX1
  88      00
  89 0087 89151C00 		movl	%edx, LPBX1+28	 # PROF_edge_counter.0, *LPBX1
  89      0000
  90              		.loc 1 50 0
  91 008d C7042400 		movl	$_CD1, (%esp)	 #,
  91      000000
  92 0094 E8000000 		call	_TestThread	 #
  92      00
GAS LISTING C:\cygwin\tmp\ccBu98q0.s 			page 3


  93 0099 8944241C 		movl	%eax, 28(%esp)	 # tmp72, result
  94              		.loc 1 51 0
  95 009d 837C241C 		cmpl	$0, 28(%esp)	 #, result
  95      00
  96 00a2 7428     		je	L2	 #,
  97 00a4 A1200000 		movl	LPBX1+32, %eax	 # *LPBX1, PROF_edge_counter.0
  97      00
  98 00a9 8B152400 		movl	LPBX1+36, %edx	 # *LPBX1, PROF_edge_counter.0
  98      0000
  99 00af 83C001   		addl	$1, %eax	 #, PROF_edge_counter.0
 100 00b2 83D200   		adcl	$0, %edx	 #, PROF_edge_counter.0
 101 00b5 A3200000 		movl	%eax, LPBX1+32	 # PROF_edge_counter.0, *LPBX1
 101      00
 102 00ba 89152400 		movl	%edx, LPBX1+36	 # PROF_edge_counter.0, *LPBX1
 102      0000
 103              		.loc 1 52 0
 104 00c0 C7042401 		movl	$1, (%esp)	 #,
 104      000000
 105 00c7 E8000000 		call	_exit	 #
 105      00
 106              	L2:
 107 00cc A1280000 		movl	LPBX1+40, %eax	 # *LPBX1, PROF_edge_counter.0
 107      00
 108 00d1 8B152C00 		movl	LPBX1+44, %edx	 # *LPBX1, PROF_edge_counter.0
 108      0000
 109 00d7 83C001   		addl	$1, %eax	 #, PROF_edge_counter.0
 110 00da 83D200   		adcl	$0, %edx	 #, PROF_edge_counter.0
 111 00dd A3280000 		movl	%eax, LPBX1+40	 # PROF_edge_counter.0, *LPBX1
 111      00
 112 00e2 89152C00 		movl	%edx, LPBX1+44	 # PROF_edge_counter.0, *LPBX1
 112      0000
 113              		.loc 1 54 0
 114 00e8 C7042400 		movl	$0, (%esp)	 #,
 114      000000
 115 00ef E8000000 		call	_exit	 #
 115      00
 116              		.cfi_endproc
 117              	LFE9:
 118              	.lcomm LPBX1,48,32
 119              		.section .rdata,"dr"
 120              		.align 4
 121              	LC0:
 122 0000 433A5C64 		.ascii "C:\\develop\\gyro\\ChibiOS\\test\\coverage/main.gcda\0"
 122      6576656C 
 122      6F705C67 
 122      79726F5C 
 122      43686962 
 123              		.data
 124              		.align 4
 125              	LC1:
 126              	 # <anonymous>:
 127 0000 0A000000 		.long	10
 128              	 # <anonymous>:
 129 0004 04D5D40B 		.long	198497540
 130              	 # <anonymous>:
 131 0008 06000000 		.long	6
 132 000c 00000000 		.align 32
GAS LISTING C:\cygwin\tmp\ccBu98q0.s 			page 4


 132      00000000 
 132      00000000 
 132      00000000 
 132      00000000 
 133              	LPBX0:
 134              	 # <anonymous>:
 135 0020 2A363034 		.long	875574826
 136              	 # <anonymous>:
 137 0024 00000000 		.long	0
 138              	 # <anonymous>:
 139 0028 EDC6FA66 		.long	1727710957
 140              	 # <anonymous>:
 141 002c 00000000 		.long	LC0
 142              	 # <anonymous>:
 143 0030 01000000 		.long	1
 144              	 # <anonymous>:
 145 0034 00000000 		.long	LC1
 146              	 # <anonymous>:
 147 0038 01000000 		.long	1
 148              	 # <anonymous>:
 149              	 # <anonymous>:
 150 003c 06000000 		.long	6
 151              	 # <anonymous>:
 152 0040 00000000 		.long	LPBX1
 153              	 # <anonymous>:
 154 0044 00000000 		.long	___gcov_merge_add
 155 0048 00000000 		.space 12
 155      00000000 
 155      00000000 
 156 0054 00000000 		.text
 156      00000000 
 156      00000000 
 157              		.def	__GLOBAL__sub_I_65535_0_main;	.scl	3;	.type	32;	.endef
 158              	__GLOBAL__sub_I_65535_0_main:
 159              	LFB10:
 160              		.loc 1 55 0
 161              		.cfi_startproc
 162 00f4 83EC1C   		subl	$28, %esp	 #,
 163              	LCFI2:
 164              		.cfi_def_cfa_offset 32
 165              		.loc 1 55 0
 166 00f7 C7042420 		movl	$LPBX0, (%esp)	 #,
 166      000000
 167 00fe E8000000 		call	___gcov_init	 #
 167      00
 168 0103 83C41C   		addl	$28, %esp	 #,
 169              	LCFI3:
 170              		.cfi_def_cfa_offset 4
 171 0106 C3       		ret
 172              		.cfi_endproc
 173              	LFE10:
 174              		.section	.ctors,"w"
 175              		.align 4
 176 0000 F4000000 		.long	__GLOBAL__sub_I_65535_0_main
 177              		.text
 178              	Letext0:
 179              		.file 2 "c:/mingw/bin/../lib/gcc/mingw32/4.6.2/../../../../include/stdio.h"
GAS LISTING C:\cygwin\tmp\ccBu98q0.s 			page 5


 180              		.file 3 "c:/mingw/bin/../lib/gcc/mingw32/4.6.2/include/stddef.h"
 181              		.file 4 "c:/mingw/bin/../lib/gcc/mingw32/4.6.2/../../../../include/stdint.h"
 182              		.file 5 "../../os/ports/GCC/SIMIA32/chtypes.h"
 183              		.file 6 "../../os/hal/include/io_channel.h"
 184              		.file 7 "../../os/hal/platforms/Win32/console.h"