                              1 ;--------------------------------------------------------
                              2 ; File Created by SDCC : free open source ANSI-C Compiler
                              3 ; Version 3.2.0 #8008 (Jul  6 2012) (MINGW32)
                              4 ; This file was generated Sat Apr 06 16:03:15 2013
                              5 ;--------------------------------------------------------
                              6 	.module si4455_api_lib
                              7 	.optsdcc -mmcs51 --model-large
                              8 	
                              9 ;--------------------------------------------------------
                             10 ; Public variables in this module
                             11 ;--------------------------------------------------------
                             12 	.globl _radio_hal_SpiWriteByte
                             13 	.globl _radio_hal_SetNsel
                             14 	.globl _radio_hal_ClearNsel
                             15 	.globl _radio_hal_DeassertShutdown
                             16 	.globl _radio_hal_AssertShutdown
                             17 	.globl _radio_comm_WriteData
                             18 	.globl _radio_comm_ReadData
                             19 	.globl _radio_comm_SendCmdGetResp
                             20 	.globl _radio_comm_SendCmd
                             21 	.globl _radio_comm_GetResp
                             22 	.globl _si4455_read_rx_fifo_PARM_2
                             23 	.globl _si4455_write_tx_fifo_PARM_2
                             24 	.globl _si4455_start_rx_PARM_6
                             25 	.globl _si4455_start_rx_PARM_5
                             26 	.globl _si4455_start_rx_PARM_4
                             27 	.globl _si4455_start_rx_PARM_3
                             28 	.globl _si4455_start_rx_PARM_2
                             29 	.globl _si4455_start_tx_PARM_3
                             30 	.globl _si4455_start_tx_PARM_2
                             31 	.globl _si4455_get_int_status_PARM_3
                             32 	.globl _si4455_get_int_status_PARM_2
                             33 	.globl _si4455_write_ezconfig_array_PARM_2
                             34 	.globl _si4455_gpio_pin_cfg_PARM_7
                             35 	.globl _si4455_gpio_pin_cfg_PARM_6
                             36 	.globl _si4455_gpio_pin_cfg_PARM_5
                             37 	.globl _si4455_gpio_pin_cfg_PARM_4
                             38 	.globl _si4455_gpio_pin_cfg_PARM_3
                             39 	.globl _si4455_gpio_pin_cfg_PARM_2
                             40 	.globl _si4455_get_property_PARM_3
                             41 	.globl _si4455_get_property_PARM_2
                             42 	.globl _si4455_power_up_PARM_3
                             43 	.globl _si4455_power_up_PARM_2
                             44 	.globl _radioCmd
                             45 	.globl _Si4455Cmd
                             46 	.globl _si4455_reset
                             47 	.globl _si4455_nop
                             48 	.globl _si4455_part_info
                             49 	.globl _si4455_power_up
                             50 	.globl _si4455_func_info
                             51 	.globl _si4455_set_property
                             52 	.globl _si4455_get_property
                             53 	.globl _si4455_gpio_pin_cfg
                             54 	.globl _si4455_fifo_info
                             55 	.globl _si4455_write_ezconfig_array
                             56 	.globl _si4455_ezconfig_check
                             57 	.globl _si4455_get_int_status
                             58 	.globl _si4455_start_tx
                             59 	.globl _si4455_start_rx
                             60 	.globl _si4455_request_device_state
                             61 	.globl _si4455_change_state
                             62 	.globl _si4455_read_cmd_buff
                             63 	.globl _si4455_frr_a_read
                             64 	.globl _si4455_frr_b_read
                             65 	.globl _si4455_frr_c_read
                             66 	.globl _si4455_frr_d_read
                             67 	.globl _si4455_write_tx_fifo
                             68 	.globl _si4455_read_rx_fifo
                             69 ;--------------------------------------------------------
                             70 ; special function registers
                             71 ;--------------------------------------------------------
                             72 	.area RSEG    (ABS,DATA)
   0000                      73 	.org 0x0000
                             74 ;--------------------------------------------------------
                             75 ; special function bits
                             76 ;--------------------------------------------------------
                             77 	.area RSEG    (ABS,DATA)
   0000                      78 	.org 0x0000
                             79 ;--------------------------------------------------------
                             80 ; overlayable register banks
                             81 ;--------------------------------------------------------
                             82 	.area REG_BANK_0	(REL,OVR,DATA)
   0000                      83 	.ds 8
                             84 ;--------------------------------------------------------
                             85 ; internal ram data
                             86 ;--------------------------------------------------------
                             87 	.area DSEG    (DATA)
                             88 ;--------------------------------------------------------
                             89 ; overlayable items in internal ram 
                             90 ;--------------------------------------------------------
                             91 ;--------------------------------------------------------
                             92 ; indirectly addressable internal ram data
                             93 ;--------------------------------------------------------
                             94 	.area ISEG    (DATA)
                             95 ;--------------------------------------------------------
                             96 ; absolute internal ram data
                             97 ;--------------------------------------------------------
                             98 	.area IABS    (ABS,DATA)
                             99 	.area IABS    (ABS,DATA)
                            100 ;--------------------------------------------------------
                            101 ; bit data
                            102 ;--------------------------------------------------------
                            103 	.area BSEG    (BIT)
                            104 ;--------------------------------------------------------
                            105 ; paged external ram data
                            106 ;--------------------------------------------------------
                            107 	.area PSEG    (PAG,XDATA)
                            108 ;--------------------------------------------------------
                            109 ; external ram data
                            110 ;--------------------------------------------------------
                            111 	.area XSEG    (XDATA)
                    0000    112 G$Si4455Cmd$0$0==.
   0000                     113 _Si4455Cmd::
   0000                     114 	.ds 16
                    0010    115 G$radioCmd$0$0==.
   0010                     116 _radioCmd::
   0010                     117 	.ds 16
                    0020    118 Lsi4455_api_lib.si4455_power_up$XTAL_OPTIONS$1$49==.
   0020                     119 _si4455_power_up_PARM_2:
   0020                     120 	.ds 1
                    0021    121 Lsi4455_api_lib.si4455_power_up$XO_FREQ$1$49==.
   0021                     122 _si4455_power_up_PARM_3:
   0021                     123 	.ds 4
                    0025    124 Lsi4455_api_lib.si4455_power_up$BOOT_OPTIONS$1$49==.
   0025                     125 _si4455_power_up_BOOT_OPTIONS_1_49:
   0025                     126 	.ds 1
                    0026    127 Lsi4455_api_lib.si4455_get_property$NUM_PROPS$1$58==.
   0026                     128 _si4455_get_property_PARM_2:
   0026                     129 	.ds 1
                    0027    130 Lsi4455_api_lib.si4455_get_property$START_PROP$1$58==.
   0027                     131 _si4455_get_property_PARM_3:
   0027                     132 	.ds 1
                    0028    133 Lsi4455_api_lib.si4455_get_property$GROUP$1$58==.
   0028                     134 _si4455_get_property_GROUP_1_58:
   0028                     135 	.ds 1
                    0029    136 Lsi4455_api_lib.si4455_gpio_pin_cfg$GPIO1$1$60==.
   0029                     137 _si4455_gpio_pin_cfg_PARM_2:
   0029                     138 	.ds 1
                    002A    139 Lsi4455_api_lib.si4455_gpio_pin_cfg$GPIO2$1$60==.
   002A                     140 _si4455_gpio_pin_cfg_PARM_3:
   002A                     141 	.ds 1
                    002B    142 Lsi4455_api_lib.si4455_gpio_pin_cfg$GPIO3$1$60==.
   002B                     143 _si4455_gpio_pin_cfg_PARM_4:
   002B                     144 	.ds 1
                    002C    145 Lsi4455_api_lib.si4455_gpio_pin_cfg$NIRQ$1$60==.
   002C                     146 _si4455_gpio_pin_cfg_PARM_5:
   002C                     147 	.ds 1
                    002D    148 Lsi4455_api_lib.si4455_gpio_pin_cfg$SDO$1$60==.
   002D                     149 _si4455_gpio_pin_cfg_PARM_6:
   002D                     150 	.ds 1
                    002E    151 Lsi4455_api_lib.si4455_gpio_pin_cfg$GEN_CONFIG$1$60==.
   002E                     152 _si4455_gpio_pin_cfg_PARM_7:
   002E                     153 	.ds 1
                    002F    154 Lsi4455_api_lib.si4455_gpio_pin_cfg$GPIO0$1$60==.
   002F                     155 _si4455_gpio_pin_cfg_GPIO0_1_60:
   002F                     156 	.ds 1
                    0030    157 Lsi4455_api_lib.si4455_fifo_info$FIFO$1$62==.
   0030                     158 _si4455_fifo_info_FIFO_1_62:
   0030                     159 	.ds 1
                    0031    160 Lsi4455_api_lib.si4455_write_ezconfig_array$pEzConfigArray$1$64==.
   0031                     161 _si4455_write_ezconfig_array_PARM_2:
   0031                     162 	.ds 3
                    0034    163 Lsi4455_api_lib.si4455_write_ezconfig_array$numBytes$1$64==.
   0034                     164 _si4455_write_ezconfig_array_numBytes_1_64:
   0034                     165 	.ds 1
                    0035    166 Lsi4455_api_lib.si4455_ezconfig_check$CHECKSUM$1$66==.
   0035                     167 _si4455_ezconfig_check_CHECKSUM_1_66:
   0035                     168 	.ds 2
                    0037    169 Lsi4455_api_lib.si4455_get_int_status$MODEM_CLR_PEND$1$68==.
   0037                     170 _si4455_get_int_status_PARM_2:
   0037                     171 	.ds 1
                    0038    172 Lsi4455_api_lib.si4455_get_int_status$CHIP_CLR_PEND$1$68==.
   0038                     173 _si4455_get_int_status_PARM_3:
   0038                     174 	.ds 1
                    0039    175 Lsi4455_api_lib.si4455_get_int_status$PH_CLR_PEND$1$68==.
   0039                     176 _si4455_get_int_status_PH_CLR_PEND_1_68:
   0039                     177 	.ds 1
                    003A    178 Lsi4455_api_lib.si4455_start_tx$CONDITION$1$70==.
   003A                     179 _si4455_start_tx_PARM_2:
   003A                     180 	.ds 1
                    003B    181 Lsi4455_api_lib.si4455_start_tx$TX_LEN$1$70==.
   003B                     182 _si4455_start_tx_PARM_3:
   003B                     183 	.ds 2
                    003D    184 Lsi4455_api_lib.si4455_start_tx$CHANNEL$1$70==.
   003D                     185 _si4455_start_tx_CHANNEL_1_70:
   003D                     186 	.ds 1
                    003E    187 Lsi4455_api_lib.si4455_start_rx$CONDITION$1$72==.
   003E                     188 _si4455_start_rx_PARM_2:
   003E                     189 	.ds 1
                    003F    190 Lsi4455_api_lib.si4455_start_rx$RX_LEN$1$72==.
   003F                     191 _si4455_start_rx_PARM_3:
   003F                     192 	.ds 2
                    0041    193 Lsi4455_api_lib.si4455_start_rx$NEXT_STATE1$1$72==.
   0041                     194 _si4455_start_rx_PARM_4:
   0041                     195 	.ds 1
                    0042    196 Lsi4455_api_lib.si4455_start_rx$NEXT_STATE2$1$72==.
   0042                     197 _si4455_start_rx_PARM_5:
   0042                     198 	.ds 1
                    0043    199 Lsi4455_api_lib.si4455_start_rx$NEXT_STATE3$1$72==.
   0043                     200 _si4455_start_rx_PARM_6:
   0043                     201 	.ds 1
                    0044    202 Lsi4455_api_lib.si4455_start_rx$CHANNEL$1$72==.
   0044                     203 _si4455_start_rx_CHANNEL_1_72:
   0044                     204 	.ds 1
                    0045    205 Lsi4455_api_lib.si4455_change_state$NEXT_STATE1$1$76==.
   0045                     206 _si4455_change_state_NEXT_STATE1_1_76:
   0045                     207 	.ds 1
                    0046    208 Lsi4455_api_lib.si4455_frr_a_read$respByteCount$1$80==.
   0046                     209 _si4455_frr_a_read_respByteCount_1_80:
   0046                     210 	.ds 1
                    0047    211 Lsi4455_api_lib.si4455_frr_b_read$respByteCount$1$82==.
   0047                     212 _si4455_frr_b_read_respByteCount_1_82:
   0047                     213 	.ds 1
                    0048    214 Lsi4455_api_lib.si4455_frr_c_read$respByteCount$1$84==.
   0048                     215 _si4455_frr_c_read_respByteCount_1_84:
   0048                     216 	.ds 1
                    0049    217 Lsi4455_api_lib.si4455_frr_d_read$respByteCount$1$86==.
   0049                     218 _si4455_frr_d_read_respByteCount_1_86:
   0049                     219 	.ds 1
                    004A    220 Lsi4455_api_lib.si4455_write_tx_fifo$pTxData$1$88==.
   004A                     221 _si4455_write_tx_fifo_PARM_2:
   004A                     222 	.ds 3
                    004D    223 Lsi4455_api_lib.si4455_write_tx_fifo$numBytes$1$88==.
   004D                     224 _si4455_write_tx_fifo_numBytes_1_88:
   004D                     225 	.ds 1
                    004E    226 Lsi4455_api_lib.si4455_read_rx_fifo$pRxData$1$90==.
   004E                     227 _si4455_read_rx_fifo_PARM_2:
   004E                     228 	.ds 3
                    0051    229 Lsi4455_api_lib.si4455_read_rx_fifo$numBytes$1$90==.
   0051                     230 _si4455_read_rx_fifo_numBytes_1_90:
   0051                     231 	.ds 1
                            232 ;--------------------------------------------------------
                            233 ; absolute external ram data
                            234 ;--------------------------------------------------------
                            235 	.area XABS    (ABS,XDATA)
                            236 ;--------------------------------------------------------
                            237 ; external initialized ram data
                            238 ;--------------------------------------------------------
                            239 	.area XISEG   (XDATA)
                            240 	.area HOME    (CODE)
                            241 	.area GSINIT0 (CODE)
                            242 	.area GSINIT1 (CODE)
                            243 	.area GSINIT2 (CODE)
                            244 	.area GSINIT3 (CODE)
                            245 	.area GSINIT4 (CODE)
                            246 	.area GSINIT5 (CODE)
                            247 	.area GSINIT  (CODE)
                            248 	.area GSFINAL (CODE)
                            249 	.area CSEG    (CODE)
                            250 ;--------------------------------------------------------
                            251 ; global & static initialisations
                            252 ;--------------------------------------------------------
                            253 	.area HOME    (CODE)
                            254 	.area GSINIT  (CODE)
                            255 	.area GSFINAL (CODE)
                            256 	.area GSINIT  (CODE)
                            257 ;--------------------------------------------------------
                            258 ; Home
                            259 ;--------------------------------------------------------
                            260 	.area HOME    (CODE)
                            261 	.area HOME    (CODE)
                            262 ;--------------------------------------------------------
                            263 ; code
                            264 ;--------------------------------------------------------
                            265 	.area CSEG    (CODE)
                            266 ;------------------------------------------------------------
                            267 ;Allocation info for local variables in function 'si4455_reset'
                            268 ;------------------------------------------------------------
                            269 ;loopCount                 Allocated with name '_si4455_reset_loopCount_1_44'
                            270 ;------------------------------------------------------------
                    0000    271 	G$si4455_reset$0$0 ==.
                    0000    272 	C$si4455_api_lib.c$30$0$0 ==.
                            273 ;	C:\Users\TaisikHam\Documents\GitHub\ChibiOS\testhal\STM32F30x\TS_SPI\SI4X55\Radio\Si4455\si4455_api_lib.c:30: void si4455_reset(void)
                            274 ;	-----------------------------------------
                            275 ;	 function si4455_reset
                            276 ;	-----------------------------------------
   0000                     277 _si4455_reset:
                    0007    278 	ar7 = 0x07
                    0006    279 	ar6 = 0x06
                    0005    280 	ar5 = 0x05
                    0004    281 	ar4 = 0x04
                    0003    282 	ar3 = 0x03
                    0002    283 	ar2 = 0x02
                    0001    284 	ar1 = 0x01
                    0000    285 	ar0 = 0x00
                    0000    286 	C$si4455_api_lib.c$35$1$44 ==.
                            287 ;	C:\Users\TaisikHam\Documents\GitHub\ChibiOS\testhal\STM32F30x\TS_SPI\SI4X55\Radio\Si4455\si4455_api_lib.c:35: radio_hal_AssertShutdown();
   0000 12s00r00            288 	lcall	_radio_hal_AssertShutdown
                    0003    289 	C$si4455_api_lib.c$37$1$44 ==.
                            290 ;	C:\Users\TaisikHam\Documents\GitHub\ChibiOS\testhal\STM32F30x\TS_SPI\SI4X55\Radio\Si4455\si4455_api_lib.c:37: for (loopCount = 255; loopCount != 0; loopCount--);
   0003 7F FF               291 	mov	r7,#0xFF
   0005                     292 00101$:
   0005 BF 00 02            293 	cjne	r7,#0x00,00112$
   0008 80 03               294 	sjmp	00104$
   000A                     295 00112$:
   000A 1F                  296 	dec	r7
   000B 80 F8               297 	sjmp	00101$
   000D                     298 00104$:
                    000D    299 	C$si4455_api_lib.c$38$1$44 ==.
                            300 ;	C:\Users\TaisikHam\Documents\GitHub\ChibiOS\testhal\STM32F30x\TS_SPI\SI4X55\Radio\Si4455\si4455_api_lib.c:38: radio_hal_DeassertShutdown();
   000D 12s00r00            301 	lcall	_radio_hal_DeassertShutdown
                    0010    302 	C$si4455_api_lib.c$39$1$44 ==.
                    0010    303 	XG$si4455_reset$0$0 ==.
   0010 22                  304 	ret
                            305 ;------------------------------------------------------------
                            306 ;Allocation info for local variables in function 'si4455_nop'
                            307 ;------------------------------------------------------------
                    0011    308 	G$si4455_nop$0$0 ==.
                    0011    309 	C$si4455_api_lib.c$42$1$44 ==.
                            310 ;	C:\Users\TaisikHam\Documents\GitHub\ChibiOS\testhal\STM32F30x\TS_SPI\SI4X55\Radio\Si4455\si4455_api_lib.c:42: void si4455_nop(void)
                            311 ;	-----------------------------------------
                            312 ;	 function si4455_nop
                            313 ;	-----------------------------------------
   0011                     314 _si4455_nop:
                    0011    315 	C$si4455_api_lib.c$44$1$46 ==.
                            316 ;	C:\Users\TaisikHam\Documents\GitHub\ChibiOS\testhal\STM32F30x\TS_SPI\SI4X55\Radio\Si4455\si4455_api_lib.c:44: radioCmd[0] = SI4455_CMD_ID_NOP;
   0011 90s00r10            317 	mov	dptr,#_radioCmd
   0014 E4                  318 	clr	a
   0015 F0                  319 	movx	@dptr,a
                    0016    320 	C$si4455_api_lib.c$46$1$46 ==.
                            321 ;	C:\Users\TaisikHam\Documents\GitHub\ChibiOS\testhal\STM32F30x\TS_SPI\SI4X55\Radio\Si4455\si4455_api_lib.c:46: radio_comm_SendCmd( SI4455_CMD_ARG_COUNT_NOP, radioCmd );
   0016 90s00r00            322 	mov	dptr,#_radio_comm_SendCmd_PARM_2
   0019 74r10               323 	mov	a,#_radioCmd
   001B F0                  324 	movx	@dptr,a
   001C A3                  325 	inc	dptr
   001D 74s00               326 	mov	a,#(_radioCmd >> 8)
   001F F0                  327 	movx	@dptr,a
   0020 A3                  328 	inc	dptr
   0021 E4                  329 	clr	a
   0022 F0                  330 	movx	@dptr,a
   0023 75 82 01            331 	mov	dpl,#0x01
   0026 12s00r00            332 	lcall	_radio_comm_SendCmd
                    0029    333 	C$si4455_api_lib.c$47$1$46 ==.
                    0029    334 	XG$si4455_nop$0$0 ==.
   0029 22                  335 	ret
                            336 ;------------------------------------------------------------
                            337 ;Allocation info for local variables in function 'si4455_part_info'
                            338 ;------------------------------------------------------------
                    002A    339 	G$si4455_part_info$0$0 ==.
                    002A    340 	C$si4455_api_lib.c$50$1$46 ==.
                            341 ;	C:\Users\TaisikHam\Documents\GitHub\ChibiOS\testhal\STM32F30x\TS_SPI\SI4X55\Radio\Si4455\si4455_api_lib.c:50: void si4455_part_info(void)
                            342 ;	-----------------------------------------
                            343 ;	 function si4455_part_info
                            344 ;	-----------------------------------------
   002A                     345 _si4455_part_info:
                    002A    346 	C$si4455_api_lib.c$52$1$48 ==.
                            347 ;	C:\Users\TaisikHam\Documents\GitHub\ChibiOS\testhal\STM32F30x\TS_SPI\SI4X55\Radio\Si4455\si4455_api_lib.c:52: radioCmd[0] = SI4455_CMD_ID_PART_INFO;
   002A 90s00r10            348 	mov	dptr,#_radioCmd
   002D 74 01               349 	mov	a,#0x01
   002F F0                  350 	movx	@dptr,a
                    0030    351 	C$si4455_api_lib.c$55$1$48 ==.
                            352 ;	C:\Users\TaisikHam\Documents\GitHub\ChibiOS\testhal\STM32F30x\TS_SPI\SI4X55\Radio\Si4455\si4455_api_lib.c:55: radioCmd,
   0030 90s00r00            353 	mov	dptr,#_radio_comm_SendCmdGetResp_PARM_2
   0033 74r10               354 	mov	a,#_radioCmd
   0035 F0                  355 	movx	@dptr,a
   0036 A3                  356 	inc	dptr
   0037 74s00               357 	mov	a,#(_radioCmd >> 8)
   0039 F0                  358 	movx	@dptr,a
   003A A3                  359 	inc	dptr
   003B E4                  360 	clr	a
   003C F0                  361 	movx	@dptr,a
                    003D    362 	C$si4455_api_lib.c$57$1$48 ==.
                            363 ;	C:\Users\TaisikHam\Documents\GitHub\ChibiOS\testhal\STM32F30x\TS_SPI\SI4X55\Radio\Si4455\si4455_api_lib.c:57: radioCmd );
   003D 90s00r00            364 	mov	dptr,#_radio_comm_SendCmdGetResp_PARM_3
   0040 74 09               365 	mov	a,#0x09
   0042 F0                  366 	movx	@dptr,a
   0043 90s00r00            367 	mov	dptr,#_radio_comm_SendCmdGetResp_PARM_4
   0046 74r10               368 	mov	a,#_radioCmd
   0048 F0                  369 	movx	@dptr,a
   0049 A3                  370 	inc	dptr
   004A 74s00               371 	mov	a,#(_radioCmd >> 8)
   004C F0                  372 	movx	@dptr,a
   004D A3                  373 	inc	dptr
   004E E4                  374 	clr	a
   004F F0                  375 	movx	@dptr,a
   0050 75 82 01            376 	mov	dpl,#0x01
   0053 12s00r00            377 	lcall	_radio_comm_SendCmdGetResp
                    0056    378 	C$si4455_api_lib.c$59$1$48 ==.
                            379 ;	C:\Users\TaisikHam\Documents\GitHub\ChibiOS\testhal\STM32F30x\TS_SPI\SI4X55\Radio\Si4455\si4455_api_lib.c:59: Si4455Cmd.PART_INFO.CHIPREV         = radioCmd[0];
   0056 90s00r10            380 	mov	dptr,#_radioCmd
   0059 E0                  381 	movx	a,@dptr
   005A 90s00r00            382 	mov	dptr,#_Si4455Cmd
   005D F0                  383 	movx	@dptr,a
                    005E    384 	C$si4455_api_lib.c$60$1$48 ==.
                            385 ;	C:\Users\TaisikHam\Documents\GitHub\ChibiOS\testhal\STM32F30x\TS_SPI\SI4X55\Radio\Si4455\si4455_api_lib.c:60: Si4455Cmd.PART_INFO.PART.U8[MSB]    = radioCmd[1];
   005E 90s00r11            386 	mov	dptr,#(_radioCmd + 0x0001)
   0061 E0                  387 	movx	a,@dptr
   0062 90s00r02            388 	mov	dptr,#(_Si4455Cmd + 0x0002)
   0065 F0                  389 	movx	@dptr,a
                    0066    390 	C$si4455_api_lib.c$61$1$48 ==.
                            391 ;	C:\Users\TaisikHam\Documents\GitHub\ChibiOS\testhal\STM32F30x\TS_SPI\SI4X55\Radio\Si4455\si4455_api_lib.c:61: Si4455Cmd.PART_INFO.PART.U8[LSB]    = radioCmd[2];
   0066 90s00r12            392 	mov	dptr,#(_radioCmd + 0x0002)
   0069 E0                  393 	movx	a,@dptr
   006A 90s00r01            394 	mov	dptr,#(_Si4455Cmd + 0x0001)
   006D F0                  395 	movx	@dptr,a
                    006E    396 	C$si4455_api_lib.c$62$1$48 ==.
                            397 ;	C:\Users\TaisikHam\Documents\GitHub\ChibiOS\testhal\STM32F30x\TS_SPI\SI4X55\Radio\Si4455\si4455_api_lib.c:62: Si4455Cmd.PART_INFO.PBUILD          = radioCmd[3];
   006E 90s00r13            398 	mov	dptr,#(_radioCmd + 0x0003)
   0071 E0                  399 	movx	a,@dptr
   0072 90s00r03            400 	mov	dptr,#(_Si4455Cmd + 0x0003)
   0075 F0                  401 	movx	@dptr,a
                    0076    402 	C$si4455_api_lib.c$63$1$48 ==.
                            403 ;	C:\Users\TaisikHam\Documents\GitHub\ChibiOS\testhal\STM32F30x\TS_SPI\SI4X55\Radio\Si4455\si4455_api_lib.c:63: Si4455Cmd.PART_INFO.ID.U8[MSB]      = radioCmd[4];
   0076 90s00r14            404 	mov	dptr,#(_radioCmd + 0x0004)
   0079 E0                  405 	movx	a,@dptr
   007A 90s00r05            406 	mov	dptr,#(_Si4455Cmd + 0x0005)
   007D F0                  407 	movx	@dptr,a
                    007E    408 	C$si4455_api_lib.c$64$1$48 ==.
                            409 ;	C:\Users\TaisikHam\Documents\GitHub\ChibiOS\testhal\STM32F30x\TS_SPI\SI4X55\Radio\Si4455\si4455_api_lib.c:64: Si4455Cmd.PART_INFO.ID.U8[LSB]      = radioCmd[5];
   007E 90s00r15            410 	mov	dptr,#(_radioCmd + 0x0005)
   0081 E0                  411 	movx	a,@dptr
   0082 90s00r04            412 	mov	dptr,#(_Si4455Cmd + 0x0004)
   0085 F0                  413 	movx	@dptr,a
                    0086    414 	C$si4455_api_lib.c$65$1$48 ==.
                            415 ;	C:\Users\TaisikHam\Documents\GitHub\ChibiOS\testhal\STM32F30x\TS_SPI\SI4X55\Radio\Si4455\si4455_api_lib.c:65: Si4455Cmd.PART_INFO.CUSTOMER        = radioCmd[6];
   0086 90s00r16            416 	mov	dptr,#(_radioCmd + 0x0006)
   0089 E0                  417 	movx	a,@dptr
   008A 90s00r06            418 	mov	dptr,#(_Si4455Cmd + 0x0006)
   008D F0                  419 	movx	@dptr,a
                    008E    420 	C$si4455_api_lib.c$66$1$48 ==.
                            421 ;	C:\Users\TaisikHam\Documents\GitHub\ChibiOS\testhal\STM32F30x\TS_SPI\SI4X55\Radio\Si4455\si4455_api_lib.c:66: Si4455Cmd.PART_INFO.ROMID           = radioCmd[7];
   008E 90s00r17            422 	mov	dptr,#(_radioCmd + 0x0007)
   0091 E0                  423 	movx	a,@dptr
   0092 90s00r07            424 	mov	dptr,#(_Si4455Cmd + 0x0007)
   0095 F0                  425 	movx	@dptr,a
                    0096    426 	C$si4455_api_lib.c$67$1$48 ==.
                            427 ;	C:\Users\TaisikHam\Documents\GitHub\ChibiOS\testhal\STM32F30x\TS_SPI\SI4X55\Radio\Si4455\si4455_api_lib.c:67: Si4455Cmd.PART_INFO.BOND            = radioCmd[8];
   0096 90s00r18            428 	mov	dptr,#(_radioCmd + 0x0008)
   0099 E0                  429 	movx	a,@dptr
   009A 90s00r08            430 	mov	dptr,#(_Si4455Cmd + 0x0008)
   009D F0                  431 	movx	@dptr,a
                    009E    432 	C$si4455_api_lib.c$68$1$48 ==.
                    009E    433 	XG$si4455_part_info$0$0 ==.
   009E 22                  434 	ret
                            435 ;------------------------------------------------------------
                            436 ;Allocation info for local variables in function 'si4455_power_up'
                            437 ;------------------------------------------------------------
                            438 ;XTAL_OPTIONS              Allocated with name '_si4455_power_up_PARM_2'
                            439 ;XO_FREQ                   Allocated with name '_si4455_power_up_PARM_3'
                            440 ;BOOT_OPTIONS              Allocated with name '_si4455_power_up_BOOT_OPTIONS_1_49'
                            441 ;------------------------------------------------------------
                    009F    442 	G$si4455_power_up$0$0 ==.
                    009F    443 	C$si4455_api_lib.c$71$1$48 ==.
                            444 ;	C:\Users\TaisikHam\Documents\GitHub\ChibiOS\testhal\STM32F30x\TS_SPI\SI4X55\Radio\Si4455\si4455_api_lib.c:71: void si4455_power_up(U8 BOOT_OPTIONS, U8 XTAL_OPTIONS, U32 XO_FREQ)
                            445 ;	-----------------------------------------
                            446 ;	 function si4455_power_up
                            447 ;	-----------------------------------------
   009F                     448 _si4455_power_up:
   009F E5 82               449 	mov	a,dpl
   00A1 90s00r25            450 	mov	dptr,#_si4455_power_up_BOOT_OPTIONS_1_49
   00A4 F0                  451 	movx	@dptr,a
                    00A5    452 	C$si4455_api_lib.c$73$1$50 ==.
                            453 ;	C:\Users\TaisikHam\Documents\GitHub\ChibiOS\testhal\STM32F30x\TS_SPI\SI4X55\Radio\Si4455\si4455_api_lib.c:73: radioCmd[0] = SI4455_CMD_ID_POWER_UP;
   00A5 90s00r10            454 	mov	dptr,#_radioCmd
   00A8 74 02               455 	mov	a,#0x02
   00AA F0                  456 	movx	@dptr,a
                    00AB    457 	C$si4455_api_lib.c$74$1$50 ==.
                            458 ;	C:\Users\TaisikHam\Documents\GitHub\ChibiOS\testhal\STM32F30x\TS_SPI\SI4X55\Radio\Si4455\si4455_api_lib.c:74: radioCmd[1] = BOOT_OPTIONS;
   00AB 90s00r25            459 	mov	dptr,#_si4455_power_up_BOOT_OPTIONS_1_49
   00AE E0                  460 	movx	a,@dptr
   00AF 90s00r11            461 	mov	dptr,#(_radioCmd + 0x0001)
   00B2 F0                  462 	movx	@dptr,a
                    00B3    463 	C$si4455_api_lib.c$75$1$50 ==.
                            464 ;	C:\Users\TaisikHam\Documents\GitHub\ChibiOS\testhal\STM32F30x\TS_SPI\SI4X55\Radio\Si4455\si4455_api_lib.c:75: radioCmd[2] = XTAL_OPTIONS;
   00B3 90s00r20            465 	mov	dptr,#_si4455_power_up_PARM_2
   00B6 E0                  466 	movx	a,@dptr
   00B7 90s00r12            467 	mov	dptr,#(_radioCmd + 0x0002)
   00BA F0                  468 	movx	@dptr,a
                    00BB    469 	C$si4455_api_lib.c$76$1$50 ==.
                            470 ;	C:\Users\TaisikHam\Documents\GitHub\ChibiOS\testhal\STM32F30x\TS_SPI\SI4X55\Radio\Si4455\si4455_api_lib.c:76: radioCmd[3] = (U8)(XO_FREQ >> 24);
   00BB 90s00r21            471 	mov	dptr,#_si4455_power_up_PARM_3
   00BE E0                  472 	movx	a,@dptr
   00BF FC                  473 	mov	r4,a
   00C0 A3                  474 	inc	dptr
   00C1 E0                  475 	movx	a,@dptr
   00C2 FD                  476 	mov	r5,a
   00C3 A3                  477 	inc	dptr
   00C4 E0                  478 	movx	a,@dptr
   00C5 FE                  479 	mov	r6,a
   00C6 A3                  480 	inc	dptr
   00C7 E0                  481 	movx	a,@dptr
   00C8 FB                  482 	mov	r3,a
   00C9 90s00r13            483 	mov	dptr,#(_radioCmd + 0x0003)
   00CC EB                  484 	mov	a,r3
   00CD F0                  485 	movx	@dptr,a
                    00CE    486 	C$si4455_api_lib.c$77$1$50 ==.
                            487 ;	C:\Users\TaisikHam\Documents\GitHub\ChibiOS\testhal\STM32F30x\TS_SPI\SI4X55\Radio\Si4455\si4455_api_lib.c:77: radioCmd[4] = (U8)(XO_FREQ >> 16);
   00CE 8E 03               488 	mov	ar3,r6
   00D0 90s00r14            489 	mov	dptr,#(_radioCmd + 0x0004)
   00D3 EB                  490 	mov	a,r3
   00D4 F0                  491 	movx	@dptr,a
                    00D5    492 	C$si4455_api_lib.c$78$1$50 ==.
                            493 ;	C:\Users\TaisikHam\Documents\GitHub\ChibiOS\testhal\STM32F30x\TS_SPI\SI4X55\Radio\Si4455\si4455_api_lib.c:78: radioCmd[5] = (U8)(XO_FREQ >> 8);
   00D5 8D 03               494 	mov	ar3,r5
   00D7 90s00r15            495 	mov	dptr,#(_radioCmd + 0x0005)
   00DA EB                  496 	mov	a,r3
   00DB F0                  497 	movx	@dptr,a
                    00DC    498 	C$si4455_api_lib.c$79$1$50 ==.
                            499 ;	C:\Users\TaisikHam\Documents\GitHub\ChibiOS\testhal\STM32F30x\TS_SPI\SI4X55\Radio\Si4455\si4455_api_lib.c:79: radioCmd[6] = (U8)(XO_FREQ);
   00DC 90s00r16            500 	mov	dptr,#(_radioCmd + 0x0006)
   00DF EC                  501 	mov	a,r4
   00E0 F0                  502 	movx	@dptr,a
                    00E1    503 	C$si4455_api_lib.c$81$1$50 ==.
                            504 ;	C:\Users\TaisikHam\Documents\GitHub\ChibiOS\testhal\STM32F30x\TS_SPI\SI4X55\Radio\Si4455\si4455_api_lib.c:81: radio_comm_SendCmd( SI4455_CMD_ARG_COUNT_POWER_UP, radioCmd );
   00E1 90s00r00            505 	mov	dptr,#_radio_comm_SendCmd_PARM_2
   00E4 74r10               506 	mov	a,#_radioCmd
   00E6 F0                  507 	movx	@dptr,a
   00E7 A3                  508 	inc	dptr
   00E8 74s00               509 	mov	a,#(_radioCmd >> 8)
   00EA F0                  510 	movx	@dptr,a
   00EB A3                  511 	inc	dptr
   00EC E4                  512 	clr	a
   00ED F0                  513 	movx	@dptr,a
   00EE 75 82 07            514 	mov	dpl,#0x07
   00F1 12s00r00            515 	lcall	_radio_comm_SendCmd
                    00F4    516 	C$si4455_api_lib.c$82$1$50 ==.
                    00F4    517 	XG$si4455_power_up$0$0 ==.
   00F4 22                  518 	ret
                            519 ;------------------------------------------------------------
                            520 ;Allocation info for local variables in function 'si4455_func_info'
                            521 ;------------------------------------------------------------
                    00F5    522 	G$si4455_func_info$0$0 ==.
                    00F5    523 	C$si4455_api_lib.c$85$1$50 ==.
                            524 ;	C:\Users\TaisikHam\Documents\GitHub\ChibiOS\testhal\STM32F30x\TS_SPI\SI4X55\Radio\Si4455\si4455_api_lib.c:85: void si4455_func_info(void)
                            525 ;	-----------------------------------------
                            526 ;	 function si4455_func_info
                            527 ;	-----------------------------------------
   00F5                     528 _si4455_func_info:
                    00F5    529 	C$si4455_api_lib.c$87$1$52 ==.
                            530 ;	C:\Users\TaisikHam\Documents\GitHub\ChibiOS\testhal\STM32F30x\TS_SPI\SI4X55\Radio\Si4455\si4455_api_lib.c:87: radioCmd[0] = SI4455_CMD_ID_FUNC_INFO;
   00F5 90s00r10            531 	mov	dptr,#_radioCmd
   00F8 74 10               532 	mov	a,#0x10
   00FA F0                  533 	movx	@dptr,a
                    00FB    534 	C$si4455_api_lib.c$90$1$52 ==.
                            535 ;	C:\Users\TaisikHam\Documents\GitHub\ChibiOS\testhal\STM32F30x\TS_SPI\SI4X55\Radio\Si4455\si4455_api_lib.c:90: radioCmd,
   00FB 90s00r00            536 	mov	dptr,#_radio_comm_SendCmdGetResp_PARM_2
   00FE 74r10               537 	mov	a,#_radioCmd
   0100 F0                  538 	movx	@dptr,a
   0101 A3                  539 	inc	dptr
   0102 74s00               540 	mov	a,#(_radioCmd >> 8)
   0104 F0                  541 	movx	@dptr,a
   0105 A3                  542 	inc	dptr
   0106 E4                  543 	clr	a
   0107 F0                  544 	movx	@dptr,a
                    0108    545 	C$si4455_api_lib.c$92$1$52 ==.
                            546 ;	C:\Users\TaisikHam\Documents\GitHub\ChibiOS\testhal\STM32F30x\TS_SPI\SI4X55\Radio\Si4455\si4455_api_lib.c:92: radioCmd );
   0108 90s00r00            547 	mov	dptr,#_radio_comm_SendCmdGetResp_PARM_3
   010B 74 0B               548 	mov	a,#0x0B
   010D F0                  549 	movx	@dptr,a
   010E 90s00r00            550 	mov	dptr,#_radio_comm_SendCmdGetResp_PARM_4
   0111 74r10               551 	mov	a,#_radioCmd
   0113 F0                  552 	movx	@dptr,a
   0114 A3                  553 	inc	dptr
   0115 74s00               554 	mov	a,#(_radioCmd >> 8)
   0117 F0                  555 	movx	@dptr,a
   0118 A3                  556 	inc	dptr
   0119 E4                  557 	clr	a
   011A F0                  558 	movx	@dptr,a
   011B 75 82 01            559 	mov	dpl,#0x01
   011E 12s00r00            560 	lcall	_radio_comm_SendCmdGetResp
                    0121    561 	C$si4455_api_lib.c$94$1$52 ==.
                            562 ;	C:\Users\TaisikHam\Documents\GitHub\ChibiOS\testhal\STM32F30x\TS_SPI\SI4X55\Radio\Si4455\si4455_api_lib.c:94: Si4455Cmd.FUNC_INFO.REVEXT          = radioCmd[0];
   0121 90s00r10            563 	mov	dptr,#_radioCmd
   0124 E0                  564 	movx	a,@dptr
   0125 90s00r00            565 	mov	dptr,#_Si4455Cmd
   0128 F0                  566 	movx	@dptr,a
                    0129    567 	C$si4455_api_lib.c$95$1$52 ==.
                            568 ;	C:\Users\TaisikHam\Documents\GitHub\ChibiOS\testhal\STM32F30x\TS_SPI\SI4X55\Radio\Si4455\si4455_api_lib.c:95: Si4455Cmd.FUNC_INFO.REVBRANCH       = radioCmd[1];
   0129 90s00r11            569 	mov	dptr,#(_radioCmd + 0x0001)
   012C E0                  570 	movx	a,@dptr
   012D 90s00r01            571 	mov	dptr,#(_Si4455Cmd + 0x0001)
   0130 F0                  572 	movx	@dptr,a
                    0131    573 	C$si4455_api_lib.c$96$1$52 ==.
                            574 ;	C:\Users\TaisikHam\Documents\GitHub\ChibiOS\testhal\STM32F30x\TS_SPI\SI4X55\Radio\Si4455\si4455_api_lib.c:96: Si4455Cmd.FUNC_INFO.REVINT          = radioCmd[2];
   0131 90s00r12            575 	mov	dptr,#(_radioCmd + 0x0002)
   0134 E0                  576 	movx	a,@dptr
   0135 90s00r02            577 	mov	dptr,#(_Si4455Cmd + 0x0002)
   0138 F0                  578 	movx	@dptr,a
                    0139    579 	C$si4455_api_lib.c$97$1$52 ==.
                            580 ;	C:\Users\TaisikHam\Documents\GitHub\ChibiOS\testhal\STM32F30x\TS_SPI\SI4X55\Radio\Si4455\si4455_api_lib.c:97: Si4455Cmd.FUNC_INFO.PATCH.U8[MSB]   = radioCmd[3];
   0139 90s00r13            581 	mov	dptr,#(_radioCmd + 0x0003)
   013C E0                  582 	movx	a,@dptr
   013D 90s00r04            583 	mov	dptr,#(_Si4455Cmd + 0x0004)
   0140 F0                  584 	movx	@dptr,a
                    0141    585 	C$si4455_api_lib.c$98$1$52 ==.
                            586 ;	C:\Users\TaisikHam\Documents\GitHub\ChibiOS\testhal\STM32F30x\TS_SPI\SI4X55\Radio\Si4455\si4455_api_lib.c:98: Si4455Cmd.FUNC_INFO.PATCH.U8[LSB]   = radioCmd[4];
   0141 90s00r14            587 	mov	dptr,#(_radioCmd + 0x0004)
   0144 E0                  588 	movx	a,@dptr
   0145 90s00r03            589 	mov	dptr,#(_Si4455Cmd + 0x0003)
   0148 F0                  590 	movx	@dptr,a
                    0149    591 	C$si4455_api_lib.c$99$1$52 ==.
                            592 ;	C:\Users\TaisikHam\Documents\GitHub\ChibiOS\testhal\STM32F30x\TS_SPI\SI4X55\Radio\Si4455\si4455_api_lib.c:99: Si4455Cmd.FUNC_INFO.FUNC            = radioCmd[5];
   0149 90s00r15            593 	mov	dptr,#(_radioCmd + 0x0005)
   014C E0                  594 	movx	a,@dptr
   014D 90s00r05            595 	mov	dptr,#(_Si4455Cmd + 0x0005)
   0150 F0                  596 	movx	@dptr,a
                    0151    597 	C$si4455_api_lib.c$100$1$52 ==.
                            598 ;	C:\Users\TaisikHam\Documents\GitHub\ChibiOS\testhal\STM32F30x\TS_SPI\SI4X55\Radio\Si4455\si4455_api_lib.c:100: Si4455Cmd.FUNC_INFO.SVNFLAGS        = radioCmd[6];
   0151 90s00r16            599 	mov	dptr,#(_radioCmd + 0x0006)
   0154 E0                  600 	movx	a,@dptr
   0155 90s00r06            601 	mov	dptr,#(_Si4455Cmd + 0x0006)
   0158 F0                  602 	movx	@dptr,a
                    0159    603 	C$si4455_api_lib.c$101$1$52 ==.
                            604 ;	C:\Users\TaisikHam\Documents\GitHub\ChibiOS\testhal\STM32F30x\TS_SPI\SI4X55\Radio\Si4455\si4455_api_lib.c:101: Si4455Cmd.FUNC_INFO.SVNREV.U8[b3]   = radioCmd[7];
   0159 90s00r17            605 	mov	dptr,#(_radioCmd + 0x0007)
   015C E0                  606 	movx	a,@dptr
   015D 90s00r0A            607 	mov	dptr,#(_Si4455Cmd + 0x000a)
   0160 F0                  608 	movx	@dptr,a
                    0161    609 	C$si4455_api_lib.c$102$1$52 ==.
                            610 ;	C:\Users\TaisikHam\Documents\GitHub\ChibiOS\testhal\STM32F30x\TS_SPI\SI4X55\Radio\Si4455\si4455_api_lib.c:102: Si4455Cmd.FUNC_INFO.SVNREV.U8[b2]   = radioCmd[8];
   0161 90s00r18            611 	mov	dptr,#(_radioCmd + 0x0008)
   0164 E0                  612 	movx	a,@dptr
   0165 90s00r09            613 	mov	dptr,#(_Si4455Cmd + 0x0009)
   0168 F0                  614 	movx	@dptr,a
                    0169    615 	C$si4455_api_lib.c$103$1$52 ==.
                            616 ;	C:\Users\TaisikHam\Documents\GitHub\ChibiOS\testhal\STM32F30x\TS_SPI\SI4X55\Radio\Si4455\si4455_api_lib.c:103: Si4455Cmd.FUNC_INFO.SVNREV.U8[b1]   = radioCmd[9];
   0169 90s00r19            617 	mov	dptr,#(_radioCmd + 0x0009)
   016C E0                  618 	movx	a,@dptr
   016D 90s00r08            619 	mov	dptr,#(_Si4455Cmd + 0x0008)
   0170 F0                  620 	movx	@dptr,a
                    0171    621 	C$si4455_api_lib.c$104$1$52 ==.
                            622 ;	C:\Users\TaisikHam\Documents\GitHub\ChibiOS\testhal\STM32F30x\TS_SPI\SI4X55\Radio\Si4455\si4455_api_lib.c:104: Si4455Cmd.FUNC_INFO.SVNREV.U8[b0]   = radioCmd[10];
   0171 90s00r1A            623 	mov	dptr,#(_radioCmd + 0x000a)
   0174 E0                  624 	movx	a,@dptr
   0175 90s00r07            625 	mov	dptr,#(_Si4455Cmd + 0x0007)
   0178 F0                  626 	movx	@dptr,a
                    0179    627 	C$si4455_api_lib.c$105$1$52 ==.
                    0179    628 	XG$si4455_func_info$0$0 ==.
   0179 22                  629 	ret
                            630 ;------------------------------------------------------------
                            631 ;Allocation info for local variables in function 'si4455_set_property'
                            632 ;------------------------------------------------------------
                            633 ;GROUP                     Allocated to stack - _bp -3
                            634 ;NUM_PROPS                 Allocated to stack - _bp -4
                            635 ;START_PROP                Allocated to stack - _bp -5
                            636 ;argList                   Allocated to registers r7 
                            637 ;cmdIndex                  Allocated to registers r6 
                            638 ;------------------------------------------------------------
                    017A    639 	G$si4455_set_property$0$0 ==.
                    017A    640 	C$si4455_api_lib.c$110$1$52 ==.
                            641 ;	C:\Users\TaisikHam\Documents\GitHub\ChibiOS\testhal\STM32F30x\TS_SPI\SI4X55\Radio\Si4455\si4455_api_lib.c:110: void si4455_set_property( U8 GROUP, U8 NUM_PROPS, U8 START_PROP, ... )
                            642 ;	-----------------------------------------
                            643 ;	 function si4455_set_property
                            644 ;	-----------------------------------------
   017A                     645 _si4455_set_property:
   017A C0*00               646 	push	_bp
   017C 85 81*00            647 	mov	_bp,sp
                    017F    648 	C$si4455_api_lib.c$115$1$54 ==.
                            649 ;	C:\Users\TaisikHam\Documents\GitHub\ChibiOS\testhal\STM32F30x\TS_SPI\SI4X55\Radio\Si4455\si4455_api_lib.c:115: radioCmd[0] = SI4455_CMD_ID_SET_PROPERTY;
   017F 90s00r10            650 	mov	dptr,#_radioCmd
   0182 74 11               651 	mov	a,#0x11
   0184 F0                  652 	movx	@dptr,a
                    0185    653 	C$si4455_api_lib.c$116$1$54 ==.
                            654 ;	C:\Users\TaisikHam\Documents\GitHub\ChibiOS\testhal\STM32F30x\TS_SPI\SI4X55\Radio\Si4455\si4455_api_lib.c:116: radioCmd[1] = GROUP;
   0185 90s00r11            655 	mov	dptr,#(_radioCmd + 0x0001)
   0188 E5*00               656 	mov	a,_bp
   018A 24 FD               657 	add	a,#0xfd
   018C F8                  658 	mov	r0,a
   018D E6                  659 	mov	a,@r0
   018E F0                  660 	movx	@dptr,a
                    018F    661 	C$si4455_api_lib.c$117$1$54 ==.
                            662 ;	C:\Users\TaisikHam\Documents\GitHub\ChibiOS\testhal\STM32F30x\TS_SPI\SI4X55\Radio\Si4455\si4455_api_lib.c:117: radioCmd[2] = NUM_PROPS;
   018F 90s00r12            663 	mov	dptr,#(_radioCmd + 0x0002)
   0192 E5*00               664 	mov	a,_bp
   0194 24 FC               665 	add	a,#0xfc
   0196 F8                  666 	mov	r0,a
   0197 E6                  667 	mov	a,@r0
   0198 F0                  668 	movx	@dptr,a
                    0199    669 	C$si4455_api_lib.c$118$1$54 ==.
                            670 ;	C:\Users\TaisikHam\Documents\GitHub\ChibiOS\testhal\STM32F30x\TS_SPI\SI4X55\Radio\Si4455\si4455_api_lib.c:118: radioCmd[3] = START_PROP;
   0199 90s00r13            671 	mov	dptr,#(_radioCmd + 0x0003)
   019C E5*00               672 	mov	a,_bp
   019E 24 FB               673 	add	a,#0xfb
   01A0 F8                  674 	mov	r0,a
   01A1 E6                  675 	mov	a,@r0
   01A2 F0                  676 	movx	@dptr,a
                    01A3    677 	C$si4455_api_lib.c$120$2$55 ==.
                            678 ;	C:\Users\TaisikHam\Documents\GitHub\ChibiOS\testhal\STM32F30x\TS_SPI\SI4X55\Radio\Si4455\si4455_api_lib.c:120: va_start (argList, START_PROP);
   01A3 E5*00               679 	mov	a,_bp
   01A5 24 FB               680 	add	a,#0xFB
   01A7 FF                  681 	mov	r7,a
                    01A8    682 	C$si4455_api_lib.c$122$1$54 ==.
                            683 ;	C:\Users\TaisikHam\Documents\GitHub\ChibiOS\testhal\STM32F30x\TS_SPI\SI4X55\Radio\Si4455\si4455_api_lib.c:122: while(NUM_PROPS--)
   01A8 7E 04               684 	mov	r6,#0x04
   01AA E5*00               685 	mov	a,_bp
   01AC 24 FC               686 	add	a,#0xfc
   01AE F8                  687 	mov	r0,a
   01AF 86 05               688 	mov	ar5,@r0
   01B1                     689 00101$:
   01B1 8D 04               690 	mov	ar4,r5
   01B3 1D                  691 	dec	r5
   01B4 EC                  692 	mov	a,r4
   01B5 60 17               693 	jz	00103$
                    01B7    694 	C$si4455_api_lib.c$124$2$56 ==.
                            695 ;	C:\Users\TaisikHam\Documents\GitHub\ChibiOS\testhal\STM32F30x\TS_SPI\SI4X55\Radio\Si4455\si4455_api_lib.c:124: radioCmd[cmdIndex] = va_arg (argList, U8);
   01B7 EE                  696 	mov	a,r6
   01B8 24r10               697 	add	a,#_radioCmd
   01BA FB                  698 	mov	r3,a
   01BB E4                  699 	clr	a
   01BC 34s00               700 	addc	a,#(_radioCmd >> 8)
   01BE FC                  701 	mov	r4,a
   01BF EF                  702 	mov	a,r7
   01C0 14                  703 	dec	a
   01C1 F9                  704 	mov	r1,a
   01C2 FF                  705 	mov	r7,a
   01C3 87 02               706 	mov	ar2,@r1
   01C5 8B 82               707 	mov	dpl,r3
   01C7 8C 83               708 	mov	dph,r4
   01C9 EA                  709 	mov	a,r2
   01CA F0                  710 	movx	@dptr,a
                    01CB    711 	C$si4455_api_lib.c$125$2$56 ==.
                            712 ;	C:\Users\TaisikHam\Documents\GitHub\ChibiOS\testhal\STM32F30x\TS_SPI\SI4X55\Radio\Si4455\si4455_api_lib.c:125: cmdIndex++;
   01CB 0E                  713 	inc	r6
   01CC 80 E3               714 	sjmp	00101$
   01CE                     715 00103$:
                    01CE    716 	C$si4455_api_lib.c$129$1$54 ==.
                            717 ;	C:\Users\TaisikHam\Documents\GitHub\ChibiOS\testhal\STM32F30x\TS_SPI\SI4X55\Radio\Si4455\si4455_api_lib.c:129: radio_comm_SendCmd( cmdIndex, radioCmd );
   01CE 90s00r00            718 	mov	dptr,#_radio_comm_SendCmd_PARM_2
   01D1 74r10               719 	mov	a,#_radioCmd
   01D3 F0                  720 	movx	@dptr,a
   01D4 A3                  721 	inc	dptr
   01D5 74s00               722 	mov	a,#(_radioCmd >> 8)
   01D7 F0                  723 	movx	@dptr,a
   01D8 A3                  724 	inc	dptr
   01D9 E4                  725 	clr	a
   01DA F0                  726 	movx	@dptr,a
   01DB 8E 82               727 	mov	dpl,r6
   01DD 12s00r00            728 	lcall	_radio_comm_SendCmd
   01E0 D0*00               729 	pop	_bp
                    01E2    730 	C$si4455_api_lib.c$130$1$54 ==.
                    01E2    731 	XG$si4455_set_property$0$0 ==.
   01E2 22                  732 	ret
                            733 ;------------------------------------------------------------
                            734 ;Allocation info for local variables in function 'si4455_get_property'
                            735 ;------------------------------------------------------------
                            736 ;NUM_PROPS                 Allocated with name '_si4455_get_property_PARM_2'
                            737 ;START_PROP                Allocated with name '_si4455_get_property_PARM_3'
                            738 ;GROUP                     Allocated with name '_si4455_get_property_GROUP_1_58'
                            739 ;------------------------------------------------------------
                    01E3    740 	G$si4455_get_property$0$0 ==.
                    01E3    741 	C$si4455_api_lib.c$133$1$54 ==.
                            742 ;	C:\Users\TaisikHam\Documents\GitHub\ChibiOS\testhal\STM32F30x\TS_SPI\SI4X55\Radio\Si4455\si4455_api_lib.c:133: void si4455_get_property(U8 GROUP, U8 NUM_PROPS, U8 START_PROP)
                            743 ;	-----------------------------------------
                            744 ;	 function si4455_get_property
                            745 ;	-----------------------------------------
   01E3                     746 _si4455_get_property:
   01E3 E5 82               747 	mov	a,dpl
   01E5 90s00r28            748 	mov	dptr,#_si4455_get_property_GROUP_1_58
   01E8 F0                  749 	movx	@dptr,a
                    01E9    750 	C$si4455_api_lib.c$135$1$59 ==.
                            751 ;	C:\Users\TaisikHam\Documents\GitHub\ChibiOS\testhal\STM32F30x\TS_SPI\SI4X55\Radio\Si4455\si4455_api_lib.c:135: radioCmd[0] = SI4455_CMD_ID_GET_PROPERTY;
   01E9 90s00r10            752 	mov	dptr,#_radioCmd
   01EC 74 12               753 	mov	a,#0x12
   01EE F0                  754 	movx	@dptr,a
                    01EF    755 	C$si4455_api_lib.c$136$1$59 ==.
                            756 ;	C:\Users\TaisikHam\Documents\GitHub\ChibiOS\testhal\STM32F30x\TS_SPI\SI4X55\Radio\Si4455\si4455_api_lib.c:136: radioCmd[1] = GROUP;
   01EF 90s00r28            757 	mov	dptr,#_si4455_get_property_GROUP_1_58
   01F2 E0                  758 	movx	a,@dptr
   01F3 90s00r11            759 	mov	dptr,#(_radioCmd + 0x0001)
   01F6 F0                  760 	movx	@dptr,a
                    01F7    761 	C$si4455_api_lib.c$137$1$59 ==.
                            762 ;	C:\Users\TaisikHam\Documents\GitHub\ChibiOS\testhal\STM32F30x\TS_SPI\SI4X55\Radio\Si4455\si4455_api_lib.c:137: radioCmd[2] = NUM_PROPS;
   01F7 90s00r26            763 	mov	dptr,#_si4455_get_property_PARM_2
   01FA E0                  764 	movx	a,@dptr
   01FB 90s00r12            765 	mov	dptr,#(_radioCmd + 0x0002)
   01FE F0                  766 	movx	@dptr,a
                    01FF    767 	C$si4455_api_lib.c$138$1$59 ==.
                            768 ;	C:\Users\TaisikHam\Documents\GitHub\ChibiOS\testhal\STM32F30x\TS_SPI\SI4X55\Radio\Si4455\si4455_api_lib.c:138: radioCmd[3] = START_PROP;
   01FF 90s00r27            769 	mov	dptr,#_si4455_get_property_PARM_3
   0202 E0                  770 	movx	a,@dptr
   0203 90s00r13            771 	mov	dptr,#(_radioCmd + 0x0003)
   0206 F0                  772 	movx	@dptr,a
                    0207    773 	C$si4455_api_lib.c$141$1$59 ==.
                            774 ;	C:\Users\TaisikHam\Documents\GitHub\ChibiOS\testhal\STM32F30x\TS_SPI\SI4X55\Radio\Si4455\si4455_api_lib.c:141: radioCmd,
   0207 90s00r00            775 	mov	dptr,#_radio_comm_SendCmdGetResp_PARM_2
   020A 74r10               776 	mov	a,#_radioCmd
   020C F0                  777 	movx	@dptr,a
   020D A3                  778 	inc	dptr
   020E 74s00               779 	mov	a,#(_radioCmd >> 8)
   0210 F0                  780 	movx	@dptr,a
   0211 A3                  781 	inc	dptr
   0212 E4                  782 	clr	a
   0213 F0                  783 	movx	@dptr,a
                    0214    784 	C$si4455_api_lib.c$143$1$59 ==.
                            785 ;	C:\Users\TaisikHam\Documents\GitHub\ChibiOS\testhal\STM32F30x\TS_SPI\SI4X55\Radio\Si4455\si4455_api_lib.c:143: radioCmd );
   0214 90s00r00            786 	mov	dptr,#_radio_comm_SendCmdGetResp_PARM_3
   0217 74 10               787 	mov	a,#0x10
   0219 F0                  788 	movx	@dptr,a
   021A 90s00r00            789 	mov	dptr,#_radio_comm_SendCmdGetResp_PARM_4
   021D 74r10               790 	mov	a,#_radioCmd
   021F F0                  791 	movx	@dptr,a
   0220 A3                  792 	inc	dptr
   0221 74s00               793 	mov	a,#(_radioCmd >> 8)
   0223 F0                  794 	movx	@dptr,a
   0224 A3                  795 	inc	dptr
   0225 E4                  796 	clr	a
   0226 F0                  797 	movx	@dptr,a
   0227 75 82 04            798 	mov	dpl,#0x04
   022A 12s00r00            799 	lcall	_radio_comm_SendCmdGetResp
                    022D    800 	C$si4455_api_lib.c$145$1$59 ==.
                            801 ;	C:\Users\TaisikHam\Documents\GitHub\ChibiOS\testhal\STM32F30x\TS_SPI\SI4X55\Radio\Si4455\si4455_api_lib.c:145: Si4455Cmd.GET_PROPERTY.DATA0    = radioCmd[0];
   022D 90s00r10            802 	mov	dptr,#_radioCmd
   0230 E0                  803 	movx	a,@dptr
   0231 90s00r00            804 	mov	dptr,#_Si4455Cmd
   0234 F0                  805 	movx	@dptr,a
                    0235    806 	C$si4455_api_lib.c$146$1$59 ==.
                            807 ;	C:\Users\TaisikHam\Documents\GitHub\ChibiOS\testhal\STM32F30x\TS_SPI\SI4X55\Radio\Si4455\si4455_api_lib.c:146: Si4455Cmd.GET_PROPERTY.DATA1    = radioCmd[1];
   0235 90s00r11            808 	mov	dptr,#(_radioCmd + 0x0001)
   0238 E0                  809 	movx	a,@dptr
   0239 90s00r01            810 	mov	dptr,#(_Si4455Cmd + 0x0001)
   023C F0                  811 	movx	@dptr,a
                    023D    812 	C$si4455_api_lib.c$147$1$59 ==.
                            813 ;	C:\Users\TaisikHam\Documents\GitHub\ChibiOS\testhal\STM32F30x\TS_SPI\SI4X55\Radio\Si4455\si4455_api_lib.c:147: Si4455Cmd.GET_PROPERTY.DATA2    = radioCmd[2];
   023D 90s00r12            814 	mov	dptr,#(_radioCmd + 0x0002)
   0240 E0                  815 	movx	a,@dptr
   0241 90s00r02            816 	mov	dptr,#(_Si4455Cmd + 0x0002)
   0244 F0                  817 	movx	@dptr,a
                    0245    818 	C$si4455_api_lib.c$148$1$59 ==.
                            819 ;	C:\Users\TaisikHam\Documents\GitHub\ChibiOS\testhal\STM32F30x\TS_SPI\SI4X55\Radio\Si4455\si4455_api_lib.c:148: Si4455Cmd.GET_PROPERTY.DATA3    = radioCmd[3];
   0245 90s00r13            820 	mov	dptr,#(_radioCmd + 0x0003)
   0248 E0                  821 	movx	a,@dptr
   0249 90s00r03            822 	mov	dptr,#(_Si4455Cmd + 0x0003)
   024C F0                  823 	movx	@dptr,a
                    024D    824 	C$si4455_api_lib.c$149$1$59 ==.
                            825 ;	C:\Users\TaisikHam\Documents\GitHub\ChibiOS\testhal\STM32F30x\TS_SPI\SI4X55\Radio\Si4455\si4455_api_lib.c:149: Si4455Cmd.GET_PROPERTY.DATA4    = radioCmd[4];
   024D 90s00r14            826 	mov	dptr,#(_radioCmd + 0x0004)
   0250 E0                  827 	movx	a,@dptr
   0251 90s00r04            828 	mov	dptr,#(_Si4455Cmd + 0x0004)
   0254 F0                  829 	movx	@dptr,a
                    0255    830 	C$si4455_api_lib.c$150$1$59 ==.
                            831 ;	C:\Users\TaisikHam\Documents\GitHub\ChibiOS\testhal\STM32F30x\TS_SPI\SI4X55\Radio\Si4455\si4455_api_lib.c:150: Si4455Cmd.GET_PROPERTY.DATA5    = radioCmd[5];
   0255 90s00r15            832 	mov	dptr,#(_radioCmd + 0x0005)
   0258 E0                  833 	movx	a,@dptr
   0259 90s00r05            834 	mov	dptr,#(_Si4455Cmd + 0x0005)
   025C F0                  835 	movx	@dptr,a
                    025D    836 	C$si4455_api_lib.c$151$1$59 ==.
                            837 ;	C:\Users\TaisikHam\Documents\GitHub\ChibiOS\testhal\STM32F30x\TS_SPI\SI4X55\Radio\Si4455\si4455_api_lib.c:151: Si4455Cmd.GET_PROPERTY.DATA6    = radioCmd[6];
   025D 90s00r16            838 	mov	dptr,#(_radioCmd + 0x0006)
   0260 E0                  839 	movx	a,@dptr
   0261 90s00r06            840 	mov	dptr,#(_Si4455Cmd + 0x0006)
   0264 F0                  841 	movx	@dptr,a
                    0265    842 	C$si4455_api_lib.c$152$1$59 ==.
                            843 ;	C:\Users\TaisikHam\Documents\GitHub\ChibiOS\testhal\STM32F30x\TS_SPI\SI4X55\Radio\Si4455\si4455_api_lib.c:152: Si4455Cmd.GET_PROPERTY.DATA7    = radioCmd[7];
   0265 90s00r17            844 	mov	dptr,#(_radioCmd + 0x0007)
   0268 E0                  845 	movx	a,@dptr
   0269 90s00r07            846 	mov	dptr,#(_Si4455Cmd + 0x0007)
   026C F0                  847 	movx	@dptr,a
                    026D    848 	C$si4455_api_lib.c$153$1$59 ==.
                            849 ;	C:\Users\TaisikHam\Documents\GitHub\ChibiOS\testhal\STM32F30x\TS_SPI\SI4X55\Radio\Si4455\si4455_api_lib.c:153: Si4455Cmd.GET_PROPERTY.DATA8    = radioCmd[8];
   026D 90s00r18            850 	mov	dptr,#(_radioCmd + 0x0008)
   0270 E0                  851 	movx	a,@dptr
   0271 90s00r08            852 	mov	dptr,#(_Si4455Cmd + 0x0008)
   0274 F0                  853 	movx	@dptr,a
                    0275    854 	C$si4455_api_lib.c$154$1$59 ==.
                            855 ;	C:\Users\TaisikHam\Documents\GitHub\ChibiOS\testhal\STM32F30x\TS_SPI\SI4X55\Radio\Si4455\si4455_api_lib.c:154: Si4455Cmd.GET_PROPERTY.DATA9    = radioCmd[9];
   0275 90s00r19            856 	mov	dptr,#(_radioCmd + 0x0009)
   0278 E0                  857 	movx	a,@dptr
   0279 90s00r09            858 	mov	dptr,#(_Si4455Cmd + 0x0009)
   027C F0                  859 	movx	@dptr,a
                    027D    860 	C$si4455_api_lib.c$155$1$59 ==.
                            861 ;	C:\Users\TaisikHam\Documents\GitHub\ChibiOS\testhal\STM32F30x\TS_SPI\SI4X55\Radio\Si4455\si4455_api_lib.c:155: Si4455Cmd.GET_PROPERTY.DATA10   = radioCmd[10];
   027D 90s00r1A            862 	mov	dptr,#(_radioCmd + 0x000a)
   0280 E0                  863 	movx	a,@dptr
   0281 90s00r0A            864 	mov	dptr,#(_Si4455Cmd + 0x000a)
   0284 F0                  865 	movx	@dptr,a
                    0285    866 	C$si4455_api_lib.c$156$1$59 ==.
                            867 ;	C:\Users\TaisikHam\Documents\GitHub\ChibiOS\testhal\STM32F30x\TS_SPI\SI4X55\Radio\Si4455\si4455_api_lib.c:156: Si4455Cmd.GET_PROPERTY.DATA11   = radioCmd[11];
   0285 90s00r1B            868 	mov	dptr,#(_radioCmd + 0x000b)
   0288 E0                  869 	movx	a,@dptr
   0289 90s00r0B            870 	mov	dptr,#(_Si4455Cmd + 0x000b)
   028C F0                  871 	movx	@dptr,a
                    028D    872 	C$si4455_api_lib.c$157$1$59 ==.
                            873 ;	C:\Users\TaisikHam\Documents\GitHub\ChibiOS\testhal\STM32F30x\TS_SPI\SI4X55\Radio\Si4455\si4455_api_lib.c:157: Si4455Cmd.GET_PROPERTY.DATA12   = radioCmd[12];
   028D 90s00r1C            874 	mov	dptr,#(_radioCmd + 0x000c)
   0290 E0                  875 	movx	a,@dptr
   0291 90s00r0C            876 	mov	dptr,#(_Si4455Cmd + 0x000c)
   0294 F0                  877 	movx	@dptr,a
                    0295    878 	C$si4455_api_lib.c$158$1$59 ==.
                            879 ;	C:\Users\TaisikHam\Documents\GitHub\ChibiOS\testhal\STM32F30x\TS_SPI\SI4X55\Radio\Si4455\si4455_api_lib.c:158: Si4455Cmd.GET_PROPERTY.DATA13   = radioCmd[13];
   0295 90s00r1D            880 	mov	dptr,#(_radioCmd + 0x000d)
   0298 E0                  881 	movx	a,@dptr
   0299 90s00r0D            882 	mov	dptr,#(_Si4455Cmd + 0x000d)
   029C F0                  883 	movx	@dptr,a
                    029D    884 	C$si4455_api_lib.c$159$1$59 ==.
                            885 ;	C:\Users\TaisikHam\Documents\GitHub\ChibiOS\testhal\STM32F30x\TS_SPI\SI4X55\Radio\Si4455\si4455_api_lib.c:159: Si4455Cmd.GET_PROPERTY.DATA14   = radioCmd[14];
   029D 90s00r1E            886 	mov	dptr,#(_radioCmd + 0x000e)
   02A0 E0                  887 	movx	a,@dptr
   02A1 90s00r0E            888 	mov	dptr,#(_Si4455Cmd + 0x000e)
   02A4 F0                  889 	movx	@dptr,a
                    02A5    890 	C$si4455_api_lib.c$160$1$59 ==.
                            891 ;	C:\Users\TaisikHam\Documents\GitHub\ChibiOS\testhal\STM32F30x\TS_SPI\SI4X55\Radio\Si4455\si4455_api_lib.c:160: Si4455Cmd.GET_PROPERTY.DATA15   = radioCmd[15];
   02A5 90s00r1F            892 	mov	dptr,#(_radioCmd + 0x000f)
   02A8 E0                  893 	movx	a,@dptr
   02A9 90s00r0F            894 	mov	dptr,#(_Si4455Cmd + 0x000f)
   02AC F0                  895 	movx	@dptr,a
                    02AD    896 	C$si4455_api_lib.c$161$1$59 ==.
                    02AD    897 	XG$si4455_get_property$0$0 ==.
   02AD 22                  898 	ret
                            899 ;------------------------------------------------------------
                            900 ;Allocation info for local variables in function 'si4455_gpio_pin_cfg'
                            901 ;------------------------------------------------------------
                            902 ;GPIO1                     Allocated with name '_si4455_gpio_pin_cfg_PARM_2'
                            903 ;GPIO2                     Allocated with name '_si4455_gpio_pin_cfg_PARM_3'
                            904 ;GPIO3                     Allocated with name '_si4455_gpio_pin_cfg_PARM_4'
                            905 ;NIRQ                      Allocated with name '_si4455_gpio_pin_cfg_PARM_5'
                            906 ;SDO                       Allocated with name '_si4455_gpio_pin_cfg_PARM_6'
                            907 ;GEN_CONFIG                Allocated with name '_si4455_gpio_pin_cfg_PARM_7'
                            908 ;GPIO0                     Allocated with name '_si4455_gpio_pin_cfg_GPIO0_1_60'
                            909 ;------------------------------------------------------------
                    02AE    910 	G$si4455_gpio_pin_cfg$0$0 ==.
                    02AE    911 	C$si4455_api_lib.c$164$1$59 ==.
                            912 ;	C:\Users\TaisikHam\Documents\GitHub\ChibiOS\testhal\STM32F30x\TS_SPI\SI4X55\Radio\Si4455\si4455_api_lib.c:164: void si4455_gpio_pin_cfg(U8 GPIO0, U8 GPIO1, U8 GPIO2, U8 GPIO3, U8 NIRQ, U8 SDO, U8 GEN_CONFIG)
                            913 ;	-----------------------------------------
                            914 ;	 function si4455_gpio_pin_cfg
                            915 ;	-----------------------------------------
   02AE                     916 _si4455_gpio_pin_cfg:
   02AE E5 82               917 	mov	a,dpl
   02B0 90s00r2F            918 	mov	dptr,#_si4455_gpio_pin_cfg_GPIO0_1_60
   02B3 F0                  919 	movx	@dptr,a
                    02B4    920 	C$si4455_api_lib.c$166$1$61 ==.
                            921 ;	C:\Users\TaisikHam\Documents\GitHub\ChibiOS\testhal\STM32F30x\TS_SPI\SI4X55\Radio\Si4455\si4455_api_lib.c:166: radioCmd[0] = SI4455_CMD_ID_GPIO_PIN_CFG;
   02B4 90s00r10            922 	mov	dptr,#_radioCmd
   02B7 74 13               923 	mov	a,#0x13
   02B9 F0                  924 	movx	@dptr,a
                    02BA    925 	C$si4455_api_lib.c$167$1$61 ==.
                            926 ;	C:\Users\TaisikHam\Documents\GitHub\ChibiOS\testhal\STM32F30x\TS_SPI\SI4X55\Radio\Si4455\si4455_api_lib.c:167: radioCmd[1] = GPIO0;
   02BA 90s00r2F            927 	mov	dptr,#_si4455_gpio_pin_cfg_GPIO0_1_60
   02BD E0                  928 	movx	a,@dptr
   02BE 90s00r11            929 	mov	dptr,#(_radioCmd + 0x0001)
   02C1 F0                  930 	movx	@dptr,a
                    02C2    931 	C$si4455_api_lib.c$168$1$61 ==.
                            932 ;	C:\Users\TaisikHam\Documents\GitHub\ChibiOS\testhal\STM32F30x\TS_SPI\SI4X55\Radio\Si4455\si4455_api_lib.c:168: radioCmd[2] = GPIO1;
   02C2 90s00r29            933 	mov	dptr,#_si4455_gpio_pin_cfg_PARM_2
   02C5 E0                  934 	movx	a,@dptr
   02C6 90s00r12            935 	mov	dptr,#(_radioCmd + 0x0002)
   02C9 F0                  936 	movx	@dptr,a
                    02CA    937 	C$si4455_api_lib.c$169$1$61 ==.
                            938 ;	C:\Users\TaisikHam\Documents\GitHub\ChibiOS\testhal\STM32F30x\TS_SPI\SI4X55\Radio\Si4455\si4455_api_lib.c:169: radioCmd[3] = GPIO2;
   02CA 90s00r2A            939 	mov	dptr,#_si4455_gpio_pin_cfg_PARM_3
   02CD E0                  940 	movx	a,@dptr
   02CE 90s00r13            941 	mov	dptr,#(_radioCmd + 0x0003)
   02D1 F0                  942 	movx	@dptr,a
                    02D2    943 	C$si4455_api_lib.c$170$1$61 ==.
                            944 ;	C:\Users\TaisikHam\Documents\GitHub\ChibiOS\testhal\STM32F30x\TS_SPI\SI4X55\Radio\Si4455\si4455_api_lib.c:170: radioCmd[4] = GPIO3;
   02D2 90s00r2B            945 	mov	dptr,#_si4455_gpio_pin_cfg_PARM_4
   02D5 E0                  946 	movx	a,@dptr
   02D6 90s00r14            947 	mov	dptr,#(_radioCmd + 0x0004)
   02D9 F0                  948 	movx	@dptr,a
                    02DA    949 	C$si4455_api_lib.c$171$1$61 ==.
                            950 ;	C:\Users\TaisikHam\Documents\GitHub\ChibiOS\testhal\STM32F30x\TS_SPI\SI4X55\Radio\Si4455\si4455_api_lib.c:171: radioCmd[5] = NIRQ;
   02DA 90s00r2C            951 	mov	dptr,#_si4455_gpio_pin_cfg_PARM_5
   02DD E0                  952 	movx	a,@dptr
   02DE 90s00r15            953 	mov	dptr,#(_radioCmd + 0x0005)
   02E1 F0                  954 	movx	@dptr,a
                    02E2    955 	C$si4455_api_lib.c$172$1$61 ==.
                            956 ;	C:\Users\TaisikHam\Documents\GitHub\ChibiOS\testhal\STM32F30x\TS_SPI\SI4X55\Radio\Si4455\si4455_api_lib.c:172: radioCmd[6] = SDO;
   02E2 90s00r2D            957 	mov	dptr,#_si4455_gpio_pin_cfg_PARM_6
   02E5 E0                  958 	movx	a,@dptr
   02E6 90s00r16            959 	mov	dptr,#(_radioCmd + 0x0006)
   02E9 F0                  960 	movx	@dptr,a
                    02EA    961 	C$si4455_api_lib.c$173$1$61 ==.
                            962 ;	C:\Users\TaisikHam\Documents\GitHub\ChibiOS\testhal\STM32F30x\TS_SPI\SI4X55\Radio\Si4455\si4455_api_lib.c:173: radioCmd[7] = GEN_CONFIG;
   02EA 90s00r2E            963 	mov	dptr,#_si4455_gpio_pin_cfg_PARM_7
   02ED E0                  964 	movx	a,@dptr
   02EE 90s00r17            965 	mov	dptr,#(_radioCmd + 0x0007)
   02F1 F0                  966 	movx	@dptr,a
                    02F2    967 	C$si4455_api_lib.c$176$1$61 ==.
                            968 ;	C:\Users\TaisikHam\Documents\GitHub\ChibiOS\testhal\STM32F30x\TS_SPI\SI4X55\Radio\Si4455\si4455_api_lib.c:176: radioCmd,
   02F2 90s00r00            969 	mov	dptr,#_radio_comm_SendCmdGetResp_PARM_2
   02F5 74r10               970 	mov	a,#_radioCmd
   02F7 F0                  971 	movx	@dptr,a
   02F8 A3                  972 	inc	dptr
   02F9 74s00               973 	mov	a,#(_radioCmd >> 8)
   02FB F0                  974 	movx	@dptr,a
   02FC A3                  975 	inc	dptr
   02FD E4                  976 	clr	a
   02FE F0                  977 	movx	@dptr,a
                    02FF    978 	C$si4455_api_lib.c$178$1$61 ==.
                            979 ;	C:\Users\TaisikHam\Documents\GitHub\ChibiOS\testhal\STM32F30x\TS_SPI\SI4X55\Radio\Si4455\si4455_api_lib.c:178: radioCmd );
   02FF 90s00r00            980 	mov	dptr,#_radio_comm_SendCmdGetResp_PARM_3
   0302 74 07               981 	mov	a,#0x07
   0304 F0                  982 	movx	@dptr,a
   0305 90s00r00            983 	mov	dptr,#_radio_comm_SendCmdGetResp_PARM_4
   0308 74r10               984 	mov	a,#_radioCmd
   030A F0                  985 	movx	@dptr,a
   030B A3                  986 	inc	dptr
   030C 74s00               987 	mov	a,#(_radioCmd >> 8)
   030E F0                  988 	movx	@dptr,a
   030F A3                  989 	inc	dptr
   0310 E4                  990 	clr	a
   0311 F0                  991 	movx	@dptr,a
   0312 75 82 08            992 	mov	dpl,#0x08
   0315 12s00r00            993 	lcall	_radio_comm_SendCmdGetResp
                    0318    994 	C$si4455_api_lib.c$180$1$61 ==.
                            995 ;	C:\Users\TaisikHam\Documents\GitHub\ChibiOS\testhal\STM32F30x\TS_SPI\SI4X55\Radio\Si4455\si4455_api_lib.c:180: Si4455Cmd.GPIO_PIN_CFG.GPIO0        = radioCmd[0];
   0318 90s00r10            996 	mov	dptr,#_radioCmd
   031B E0                  997 	movx	a,@dptr
   031C 90s00r00            998 	mov	dptr,#_Si4455Cmd
   031F F0                  999 	movx	@dptr,a
                    0320   1000 	C$si4455_api_lib.c$181$1$61 ==.
                           1001 ;	C:\Users\TaisikHam\Documents\GitHub\ChibiOS\testhal\STM32F30x\TS_SPI\SI4X55\Radio\Si4455\si4455_api_lib.c:181: Si4455Cmd.GPIO_PIN_CFG.GPIO1        = radioCmd[1];
   0320 90s00r11           1002 	mov	dptr,#(_radioCmd + 0x0001)
   0323 E0                 1003 	movx	a,@dptr
   0324 90s00r01           1004 	mov	dptr,#(_Si4455Cmd + 0x0001)
   0327 F0                 1005 	movx	@dptr,a
                    0328   1006 	C$si4455_api_lib.c$182$1$61 ==.
                           1007 ;	C:\Users\TaisikHam\Documents\GitHub\ChibiOS\testhal\STM32F30x\TS_SPI\SI4X55\Radio\Si4455\si4455_api_lib.c:182: Si4455Cmd.GPIO_PIN_CFG.GPIO2        = radioCmd[2];
   0328 90s00r12           1008 	mov	dptr,#(_radioCmd + 0x0002)
   032B E0                 1009 	movx	a,@dptr
   032C 90s00r02           1010 	mov	dptr,#(_Si4455Cmd + 0x0002)
   032F F0                 1011 	movx	@dptr,a
                    0330   1012 	C$si4455_api_lib.c$183$1$61 ==.
                           1013 ;	C:\Users\TaisikHam\Documents\GitHub\ChibiOS\testhal\STM32F30x\TS_SPI\SI4X55\Radio\Si4455\si4455_api_lib.c:183: Si4455Cmd.GPIO_PIN_CFG.GPIO3        = radioCmd[3];
   0330 90s00r13           1014 	mov	dptr,#(_radioCmd + 0x0003)
   0333 E0                 1015 	movx	a,@dptr
   0334 90s00r03           1016 	mov	dptr,#(_Si4455Cmd + 0x0003)
   0337 F0                 1017 	movx	@dptr,a
                    0338   1018 	C$si4455_api_lib.c$184$1$61 ==.
                           1019 ;	C:\Users\TaisikHam\Documents\GitHub\ChibiOS\testhal\STM32F30x\TS_SPI\SI4X55\Radio\Si4455\si4455_api_lib.c:184: Si4455Cmd.GPIO_PIN_CFG.NIRQ         = radioCmd[4];
   0338 90s00r14           1020 	mov	dptr,#(_radioCmd + 0x0004)
   033B E0                 1021 	movx	a,@dptr
   033C 90s00r04           1022 	mov	dptr,#(_Si4455Cmd + 0x0004)
   033F F0                 1023 	movx	@dptr,a
                    0340   1024 	C$si4455_api_lib.c$185$1$61 ==.
                           1025 ;	C:\Users\TaisikHam\Documents\GitHub\ChibiOS\testhal\STM32F30x\TS_SPI\SI4X55\Radio\Si4455\si4455_api_lib.c:185: Si4455Cmd.GPIO_PIN_CFG.SDO          = radioCmd[5];
   0340 90s00r15           1026 	mov	dptr,#(_radioCmd + 0x0005)
   0343 E0                 1027 	movx	a,@dptr
   0344 90s00r05           1028 	mov	dptr,#(_Si4455Cmd + 0x0005)
   0347 F0                 1029 	movx	@dptr,a
                    0348   1030 	C$si4455_api_lib.c$186$1$61 ==.
                           1031 ;	C:\Users\TaisikHam\Documents\GitHub\ChibiOS\testhal\STM32F30x\TS_SPI\SI4X55\Radio\Si4455\si4455_api_lib.c:186: Si4455Cmd.GPIO_PIN_CFG.GEN_CONFIG   = radioCmd[6];
   0348 90s00r16           1032 	mov	dptr,#(_radioCmd + 0x0006)
   034B E0                 1033 	movx	a,@dptr
   034C 90s00r06           1034 	mov	dptr,#(_Si4455Cmd + 0x0006)
   034F F0                 1035 	movx	@dptr,a
                    0350   1036 	C$si4455_api_lib.c$187$1$61 ==.
                    0350   1037 	XG$si4455_gpio_pin_cfg$0$0 ==.
   0350 22                 1038 	ret
                           1039 ;------------------------------------------------------------
                           1040 ;Allocation info for local variables in function 'si4455_fifo_info'
                           1041 ;------------------------------------------------------------
                           1042 ;FIFO                      Allocated with name '_si4455_fifo_info_FIFO_1_62'
                           1043 ;------------------------------------------------------------
                    0351   1044 	G$si4455_fifo_info$0$0 ==.
                    0351   1045 	C$si4455_api_lib.c$189$1$61 ==.
                           1046 ;	C:\Users\TaisikHam\Documents\GitHub\ChibiOS\testhal\STM32F30x\TS_SPI\SI4X55\Radio\Si4455\si4455_api_lib.c:189: void si4455_fifo_info(U8 FIFO)
                           1047 ;	-----------------------------------------
                           1048 ;	 function si4455_fifo_info
                           1049 ;	-----------------------------------------
   0351                    1050 _si4455_fifo_info:
   0351 E5 82              1051 	mov	a,dpl
   0353 90s00r30           1052 	mov	dptr,#_si4455_fifo_info_FIFO_1_62
   0356 F0                 1053 	movx	@dptr,a
                    0357   1054 	C$si4455_api_lib.c$191$1$63 ==.
                           1055 ;	C:\Users\TaisikHam\Documents\GitHub\ChibiOS\testhal\STM32F30x\TS_SPI\SI4X55\Radio\Si4455\si4455_api_lib.c:191: radioCmd[0] = SI4455_CMD_ID_FIFO_INFO;
   0357 90s00r10           1056 	mov	dptr,#_radioCmd
   035A 74 15              1057 	mov	a,#0x15
   035C F0                 1058 	movx	@dptr,a
                    035D   1059 	C$si4455_api_lib.c$192$1$63 ==.
                           1060 ;	C:\Users\TaisikHam\Documents\GitHub\ChibiOS\testhal\STM32F30x\TS_SPI\SI4X55\Radio\Si4455\si4455_api_lib.c:192: radioCmd[1] = FIFO;
   035D 90s00r30           1061 	mov	dptr,#_si4455_fifo_info_FIFO_1_62
   0360 E0                 1062 	movx	a,@dptr
   0361 90s00r11           1063 	mov	dptr,#(_radioCmd + 0x0001)
   0364 F0                 1064 	movx	@dptr,a
                    0365   1065 	C$si4455_api_lib.c$195$1$63 ==.
                           1066 ;	C:\Users\TaisikHam\Documents\GitHub\ChibiOS\testhal\STM32F30x\TS_SPI\SI4X55\Radio\Si4455\si4455_api_lib.c:195: radioCmd,
   0365 90s00r00           1067 	mov	dptr,#_radio_comm_SendCmdGetResp_PARM_2
   0368 74r10              1068 	mov	a,#_radioCmd
   036A F0                 1069 	movx	@dptr,a
   036B A3                 1070 	inc	dptr
   036C 74s00              1071 	mov	a,#(_radioCmd >> 8)
   036E F0                 1072 	movx	@dptr,a
   036F A3                 1073 	inc	dptr
   0370 E4                 1074 	clr	a
   0371 F0                 1075 	movx	@dptr,a
                    0372   1076 	C$si4455_api_lib.c$197$1$63 ==.
                           1077 ;	C:\Users\TaisikHam\Documents\GitHub\ChibiOS\testhal\STM32F30x\TS_SPI\SI4X55\Radio\Si4455\si4455_api_lib.c:197: radioCmd );
   0372 90s00r00           1078 	mov	dptr,#_radio_comm_SendCmdGetResp_PARM_3
   0375 74 02              1079 	mov	a,#0x02
   0377 F0                 1080 	movx	@dptr,a
   0378 90s00r00           1081 	mov	dptr,#_radio_comm_SendCmdGetResp_PARM_4
   037B 74r10              1082 	mov	a,#_radioCmd
   037D F0                 1083 	movx	@dptr,a
   037E A3                 1084 	inc	dptr
   037F 74s00              1085 	mov	a,#(_radioCmd >> 8)
   0381 F0                 1086 	movx	@dptr,a
   0382 A3                 1087 	inc	dptr
   0383 E4                 1088 	clr	a
   0384 F0                 1089 	movx	@dptr,a
   0385 75 82 02           1090 	mov	dpl,#0x02
   0388 12s00r00           1091 	lcall	_radio_comm_SendCmdGetResp
                    038B   1092 	C$si4455_api_lib.c$199$1$63 ==.
                           1093 ;	C:\Users\TaisikHam\Documents\GitHub\ChibiOS\testhal\STM32F30x\TS_SPI\SI4X55\Radio\Si4455\si4455_api_lib.c:199: Si4455Cmd.FIFO_INFO.RX_FIFO_COUNT   = radioCmd[0];
   038B 90s00r10           1094 	mov	dptr,#_radioCmd
   038E E0                 1095 	movx	a,@dptr
   038F 90s00r00           1096 	mov	dptr,#_Si4455Cmd
   0392 F0                 1097 	movx	@dptr,a
                    0393   1098 	C$si4455_api_lib.c$200$1$63 ==.
                           1099 ;	C:\Users\TaisikHam\Documents\GitHub\ChibiOS\testhal\STM32F30x\TS_SPI\SI4X55\Radio\Si4455\si4455_api_lib.c:200: Si4455Cmd.FIFO_INFO.TX_FIFO_SPACE   = radioCmd[1];
   0393 90s00r11           1100 	mov	dptr,#(_radioCmd + 0x0001)
   0396 E0                 1101 	movx	a,@dptr
   0397 90s00r01           1102 	mov	dptr,#(_Si4455Cmd + 0x0001)
   039A F0                 1103 	movx	@dptr,a
                    039B   1104 	C$si4455_api_lib.c$201$1$63 ==.
                    039B   1105 	XG$si4455_fifo_info$0$0 ==.
   039B 22                 1106 	ret
                           1107 ;------------------------------------------------------------
                           1108 ;Allocation info for local variables in function 'si4455_write_ezconfig_array'
                           1109 ;------------------------------------------------------------
                           1110 ;pEzConfigArray            Allocated with name '_si4455_write_ezconfig_array_PARM_2'
                           1111 ;numBytes                  Allocated with name '_si4455_write_ezconfig_array_numBytes_1_64'
                           1112 ;------------------------------------------------------------
                    039C   1113 	G$si4455_write_ezconfig_array$0$0 ==.
                    039C   1114 	C$si4455_api_lib.c$203$1$63 ==.
                           1115 ;	C:\Users\TaisikHam\Documents\GitHub\ChibiOS\testhal\STM32F30x\TS_SPI\SI4X55\Radio\Si4455\si4455_api_lib.c:203: void si4455_write_ezconfig_array(U8 numBytes, U8* pEzConfigArray)
                           1116 ;	-----------------------------------------
                           1117 ;	 function si4455_write_ezconfig_array
                           1118 ;	-----------------------------------------
   039C                    1119 _si4455_write_ezconfig_array:
   039C E5 82              1120 	mov	a,dpl
                    039E   1121 	C$si4455_api_lib.c$205$1$65 ==.
                           1122 ;	C:\Users\TaisikHam\Documents\GitHub\ChibiOS\testhal\STM32F30x\TS_SPI\SI4X55\Radio\Si4455\si4455_api_lib.c:205: radio_comm_WriteData(SI4455_CMD_ID_WRITE_TX_FIFO, 1, numBytes, pEzConfigArray);
   039E 90s00r34           1123 	mov	dptr,#_si4455_write_ezconfig_array_numBytes_1_64
   03A1 F0                 1124 	movx	@dptr,a
   03A2 FF                 1125 	mov	r7,a
   03A3 90s00r31           1126 	mov	dptr,#_si4455_write_ezconfig_array_PARM_2
   03A6 E0                 1127 	movx	a,@dptr
   03A7 FC                 1128 	mov	r4,a
   03A8 A3                 1129 	inc	dptr
   03A9 E0                 1130 	movx	a,@dptr
   03AA FD                 1131 	mov	r5,a
   03AB A3                 1132 	inc	dptr
   03AC E0                 1133 	movx	a,@dptr
   03AD FE                 1134 	mov	r6,a
   03AE D2*00              1135 	setb	_radio_comm_WriteData_PARM_2
   03B0 90s00r00           1136 	mov	dptr,#_radio_comm_WriteData_PARM_3
   03B3 EF                 1137 	mov	a,r7
   03B4 F0                 1138 	movx	@dptr,a
   03B5 90s00r00           1139 	mov	dptr,#_radio_comm_WriteData_PARM_4
   03B8 EC                 1140 	mov	a,r4
   03B9 F0                 1141 	movx	@dptr,a
   03BA A3                 1142 	inc	dptr
   03BB ED                 1143 	mov	a,r5
   03BC F0                 1144 	movx	@dptr,a
   03BD A3                 1145 	inc	dptr
   03BE EE                 1146 	mov	a,r6
   03BF F0                 1147 	movx	@dptr,a
   03C0 75 82 66           1148 	mov	dpl,#0x66
   03C3 12s00r00           1149 	lcall	_radio_comm_WriteData
                    03C6   1150 	C$si4455_api_lib.c$206$1$65 ==.
                    03C6   1151 	XG$si4455_write_ezconfig_array$0$0 ==.
   03C6 22                 1152 	ret
                           1153 ;------------------------------------------------------------
                           1154 ;Allocation info for local variables in function 'si4455_ezconfig_check'
                           1155 ;------------------------------------------------------------
                           1156 ;CHECKSUM                  Allocated with name '_si4455_ezconfig_check_CHECKSUM_1_66'
                           1157 ;------------------------------------------------------------
                    03C7   1158 	G$si4455_ezconfig_check$0$0 ==.
                    03C7   1159 	C$si4455_api_lib.c$208$1$65 ==.
                           1160 ;	C:\Users\TaisikHam\Documents\GitHub\ChibiOS\testhal\STM32F30x\TS_SPI\SI4X55\Radio\Si4455\si4455_api_lib.c:208: void si4455_ezconfig_check(U16 CHECKSUM)
                           1161 ;	-----------------------------------------
                           1162 ;	 function si4455_ezconfig_check
                           1163 ;	-----------------------------------------
   03C7                    1164 _si4455_ezconfig_check:
   03C7 AF 83              1165 	mov	r7,dph
   03C9 E5 82              1166 	mov	a,dpl
   03CB 90s00r35           1167 	mov	dptr,#_si4455_ezconfig_check_CHECKSUM_1_66
   03CE F0                 1168 	movx	@dptr,a
   03CF A3                 1169 	inc	dptr
   03D0 EF                 1170 	mov	a,r7
   03D1 F0                 1171 	movx	@dptr,a
                    03D2   1172 	C$si4455_api_lib.c$212$1$67 ==.
                           1173 ;	C:\Users\TaisikHam\Documents\GitHub\ChibiOS\testhal\STM32F30x\TS_SPI\SI4X55\Radio\Si4455\si4455_api_lib.c:212: radio_hal_ClearNsel();
   03D2 12s00r00           1174 	lcall	_radio_hal_ClearNsel
                    03D5   1175 	C$si4455_api_lib.c$215$1$67 ==.
                           1176 ;	C:\Users\TaisikHam\Documents\GitHub\ChibiOS\testhal\STM32F30x\TS_SPI\SI4X55\Radio\Si4455\si4455_api_lib.c:215: radio_hal_SpiWriteByte(SI4455_CMD_ID_EZCONFIG_CHECK);
   03D5 75 82 19           1177 	mov	dpl,#0x19
   03D8 12s00r00           1178 	lcall	_radio_hal_SpiWriteByte
                    03DB   1179 	C$si4455_api_lib.c$218$1$67 ==.
                           1180 ;	C:\Users\TaisikHam\Documents\GitHub\ChibiOS\testhal\STM32F30x\TS_SPI\SI4X55\Radio\Si4455\si4455_api_lib.c:218: radio_hal_SpiWriteByte((U16) CHECKSUM >> 8u);
   03DB 90s00r35           1181 	mov	dptr,#_si4455_ezconfig_check_CHECKSUM_1_66
   03DE E0                 1182 	movx	a,@dptr
   03DF FE                 1183 	mov	r6,a
   03E0 A3                 1184 	inc	dptr
   03E1 E0                 1185 	movx	a,@dptr
   03E2 FF                 1186 	mov	r7,a
   03E3 F5 82              1187 	mov	dpl,a
   03E5 C0 07              1188 	push	ar7
   03E7 C0 06              1189 	push	ar6
   03E9 12s00r00           1190 	lcall	_radio_hal_SpiWriteByte
   03EC D0 06              1191 	pop	ar6
   03EE D0 07              1192 	pop	ar7
                    03F0   1193 	C$si4455_api_lib.c$219$1$67 ==.
                           1194 ;	C:\Users\TaisikHam\Documents\GitHub\ChibiOS\testhal\STM32F30x\TS_SPI\SI4X55\Radio\Si4455\si4455_api_lib.c:219: radio_hal_SpiWriteByte((U16) CHECKSUM & 0x00FF);
   03F0 8E 82              1195 	mov	dpl,r6
   03F2 12s00r00           1196 	lcall	_radio_hal_SpiWriteByte
                    03F5   1197 	C$si4455_api_lib.c$221$1$67 ==.
                           1198 ;	C:\Users\TaisikHam\Documents\GitHub\ChibiOS\testhal\STM32F30x\TS_SPI\SI4X55\Radio\Si4455\si4455_api_lib.c:221: radio_hal_SetNsel();
   03F5 12s00r00           1199 	lcall	_radio_hal_SetNsel
                    03F8   1200 	C$si4455_api_lib.c$224$1$67 ==.
                           1201 ;	C:\Users\TaisikHam\Documents\GitHub\ChibiOS\testhal\STM32F30x\TS_SPI\SI4X55\Radio\Si4455\si4455_api_lib.c:224: radio_comm_GetResp(1u, radioCmd);
   03F8 90s00r00           1202 	mov	dptr,#_radio_comm_GetResp_PARM_2
   03FB 74r10              1203 	mov	a,#_radioCmd
   03FD F0                 1204 	movx	@dptr,a
   03FE A3                 1205 	inc	dptr
   03FF 74s00              1206 	mov	a,#(_radioCmd >> 8)
   0401 F0                 1207 	movx	@dptr,a
   0402 A3                 1208 	inc	dptr
   0403 E4                 1209 	clr	a
   0404 F0                 1210 	movx	@dptr,a
   0405 75 82 01           1211 	mov	dpl,#0x01
   0408 12s00r00           1212 	lcall	_radio_comm_GetResp
                    040B   1213 	C$si4455_api_lib.c$225$1$67 ==.
                    040B   1214 	XG$si4455_ezconfig_check$0$0 ==.
   040B 22                 1215 	ret
                           1216 ;------------------------------------------------------------
                           1217 ;Allocation info for local variables in function 'si4455_get_int_status'
                           1218 ;------------------------------------------------------------
                           1219 ;MODEM_CLR_PEND            Allocated with name '_si4455_get_int_status_PARM_2'
                           1220 ;CHIP_CLR_PEND             Allocated with name '_si4455_get_int_status_PARM_3'
                           1221 ;PH_CLR_PEND               Allocated with name '_si4455_get_int_status_PH_CLR_PEND_1_68'
                           1222 ;------------------------------------------------------------
                    040C   1223 	G$si4455_get_int_status$0$0 ==.
                    040C   1224 	C$si4455_api_lib.c$228$1$67 ==.
                           1225 ;	C:\Users\TaisikHam\Documents\GitHub\ChibiOS\testhal\STM32F30x\TS_SPI\SI4X55\Radio\Si4455\si4455_api_lib.c:228: void si4455_get_int_status(U8 PH_CLR_PEND, U8 MODEM_CLR_PEND, U8 CHIP_CLR_PEND)
                           1226 ;	-----------------------------------------
                           1227 ;	 function si4455_get_int_status
                           1228 ;	-----------------------------------------
   040C                    1229 _si4455_get_int_status:
   040C E5 82              1230 	mov	a,dpl
   040E 90s00r39           1231 	mov	dptr,#_si4455_get_int_status_PH_CLR_PEND_1_68
   0411 F0                 1232 	movx	@dptr,a
                    0412   1233 	C$si4455_api_lib.c$230$1$69 ==.
                           1234 ;	C:\Users\TaisikHam\Documents\GitHub\ChibiOS\testhal\STM32F30x\TS_SPI\SI4X55\Radio\Si4455\si4455_api_lib.c:230: radioCmd[0] = SI4455_CMD_ID_GET_INT_STATUS;
   0412 90s00r10           1235 	mov	dptr,#_radioCmd
   0415 74 20              1236 	mov	a,#0x20
   0417 F0                 1237 	movx	@dptr,a
                    0418   1238 	C$si4455_api_lib.c$231$1$69 ==.
                           1239 ;	C:\Users\TaisikHam\Documents\GitHub\ChibiOS\testhal\STM32F30x\TS_SPI\SI4X55\Radio\Si4455\si4455_api_lib.c:231: radioCmd[1] = PH_CLR_PEND;
   0418 90s00r39           1240 	mov	dptr,#_si4455_get_int_status_PH_CLR_PEND_1_68
   041B E0                 1241 	movx	a,@dptr
   041C 90s00r11           1242 	mov	dptr,#(_radioCmd + 0x0001)
   041F F0                 1243 	movx	@dptr,a
                    0420   1244 	C$si4455_api_lib.c$232$1$69 ==.
                           1245 ;	C:\Users\TaisikHam\Documents\GitHub\ChibiOS\testhal\STM32F30x\TS_SPI\SI4X55\Radio\Si4455\si4455_api_lib.c:232: radioCmd[2] = MODEM_CLR_PEND;
   0420 90s00r37           1246 	mov	dptr,#_si4455_get_int_status_PARM_2
   0423 E0                 1247 	movx	a,@dptr
   0424 90s00r12           1248 	mov	dptr,#(_radioCmd + 0x0002)
   0427 F0                 1249 	movx	@dptr,a
                    0428   1250 	C$si4455_api_lib.c$233$1$69 ==.
                           1251 ;	C:\Users\TaisikHam\Documents\GitHub\ChibiOS\testhal\STM32F30x\TS_SPI\SI4X55\Radio\Si4455\si4455_api_lib.c:233: radioCmd[3] = CHIP_CLR_PEND;
   0428 90s00r38           1252 	mov	dptr,#_si4455_get_int_status_PARM_3
   042B E0                 1253 	movx	a,@dptr
   042C 90s00r13           1254 	mov	dptr,#(_radioCmd + 0x0003)
   042F F0                 1255 	movx	@dptr,a
                    0430   1256 	C$si4455_api_lib.c$236$1$69 ==.
                           1257 ;	C:\Users\TaisikHam\Documents\GitHub\ChibiOS\testhal\STM32F30x\TS_SPI\SI4X55\Radio\Si4455\si4455_api_lib.c:236: radioCmd,
   0430 90s00r00           1258 	mov	dptr,#_radio_comm_SendCmdGetResp_PARM_2
   0433 74r10              1259 	mov	a,#_radioCmd
   0435 F0                 1260 	movx	@dptr,a
   0436 A3                 1261 	inc	dptr
   0437 74s00              1262 	mov	a,#(_radioCmd >> 8)
   0439 F0                 1263 	movx	@dptr,a
   043A A3                 1264 	inc	dptr
   043B E4                 1265 	clr	a
   043C F0                 1266 	movx	@dptr,a
                    043D   1267 	C$si4455_api_lib.c$238$1$69 ==.
                           1268 ;	C:\Users\TaisikHam\Documents\GitHub\ChibiOS\testhal\STM32F30x\TS_SPI\SI4X55\Radio\Si4455\si4455_api_lib.c:238: radioCmd );
   043D 90s00r00           1269 	mov	dptr,#_radio_comm_SendCmdGetResp_PARM_3
   0440 74 08              1270 	mov	a,#0x08
   0442 F0                 1271 	movx	@dptr,a
   0443 90s00r00           1272 	mov	dptr,#_radio_comm_SendCmdGetResp_PARM_4
   0446 74r10              1273 	mov	a,#_radioCmd
   0448 F0                 1274 	movx	@dptr,a
   0449 A3                 1275 	inc	dptr
   044A 74s00              1276 	mov	a,#(_radioCmd >> 8)
   044C F0                 1277 	movx	@dptr,a
   044D A3                 1278 	inc	dptr
   044E E4                 1279 	clr	a
   044F F0                 1280 	movx	@dptr,a
   0450 75 82 04           1281 	mov	dpl,#0x04
   0453 12s00r00           1282 	lcall	_radio_comm_SendCmdGetResp
                    0456   1283 	C$si4455_api_lib.c$240$1$69 ==.
                           1284 ;	C:\Users\TaisikHam\Documents\GitHub\ChibiOS\testhal\STM32F30x\TS_SPI\SI4X55\Radio\Si4455\si4455_api_lib.c:240: Si4455Cmd.GET_INT_STATUS.INT_PEND       = radioCmd[0];
   0456 90s00r10           1285 	mov	dptr,#_radioCmd
   0459 E0                 1286 	movx	a,@dptr
   045A 90s00r00           1287 	mov	dptr,#_Si4455Cmd
   045D F0                 1288 	movx	@dptr,a
                    045E   1289 	C$si4455_api_lib.c$241$1$69 ==.
                           1290 ;	C:\Users\TaisikHam\Documents\GitHub\ChibiOS\testhal\STM32F30x\TS_SPI\SI4X55\Radio\Si4455\si4455_api_lib.c:241: Si4455Cmd.GET_INT_STATUS.INT_STATUS     = radioCmd[1];
   045E 90s00r11           1291 	mov	dptr,#(_radioCmd + 0x0001)
   0461 E0                 1292 	movx	a,@dptr
   0462 90s00r01           1293 	mov	dptr,#(_Si4455Cmd + 0x0001)
   0465 F0                 1294 	movx	@dptr,a
                    0466   1295 	C$si4455_api_lib.c$242$1$69 ==.
                           1296 ;	C:\Users\TaisikHam\Documents\GitHub\ChibiOS\testhal\STM32F30x\TS_SPI\SI4X55\Radio\Si4455\si4455_api_lib.c:242: Si4455Cmd.GET_INT_STATUS.PH_PEND        = radioCmd[2];
   0466 90s00r12           1297 	mov	dptr,#(_radioCmd + 0x0002)
   0469 E0                 1298 	movx	a,@dptr
   046A 90s00r02           1299 	mov	dptr,#(_Si4455Cmd + 0x0002)
   046D F0                 1300 	movx	@dptr,a
                    046E   1301 	C$si4455_api_lib.c$243$1$69 ==.
                           1302 ;	C:\Users\TaisikHam\Documents\GitHub\ChibiOS\testhal\STM32F30x\TS_SPI\SI4X55\Radio\Si4455\si4455_api_lib.c:243: Si4455Cmd.GET_INT_STATUS.PH_STATUS      = radioCmd[3];
   046E 90s00r13           1303 	mov	dptr,#(_radioCmd + 0x0003)
   0471 E0                 1304 	movx	a,@dptr
   0472 90s00r03           1305 	mov	dptr,#(_Si4455Cmd + 0x0003)
   0475 F0                 1306 	movx	@dptr,a
                    0476   1307 	C$si4455_api_lib.c$244$1$69 ==.
                           1308 ;	C:\Users\TaisikHam\Documents\GitHub\ChibiOS\testhal\STM32F30x\TS_SPI\SI4X55\Radio\Si4455\si4455_api_lib.c:244: Si4455Cmd.GET_INT_STATUS.MODEM_PEND     = radioCmd[4];
   0476 90s00r14           1309 	mov	dptr,#(_radioCmd + 0x0004)
   0479 E0                 1310 	movx	a,@dptr
   047A 90s00r04           1311 	mov	dptr,#(_Si4455Cmd + 0x0004)
   047D F0                 1312 	movx	@dptr,a
                    047E   1313 	C$si4455_api_lib.c$245$1$69 ==.
                           1314 ;	C:\Users\TaisikHam\Documents\GitHub\ChibiOS\testhal\STM32F30x\TS_SPI\SI4X55\Radio\Si4455\si4455_api_lib.c:245: Si4455Cmd.GET_INT_STATUS.MODEM_STATUS   = radioCmd[5];
   047E 90s00r15           1315 	mov	dptr,#(_radioCmd + 0x0005)
   0481 E0                 1316 	movx	a,@dptr
   0482 90s00r05           1317 	mov	dptr,#(_Si4455Cmd + 0x0005)
   0485 F0                 1318 	movx	@dptr,a
                    0486   1319 	C$si4455_api_lib.c$246$1$69 ==.
                           1320 ;	C:\Users\TaisikHam\Documents\GitHub\ChibiOS\testhal\STM32F30x\TS_SPI\SI4X55\Radio\Si4455\si4455_api_lib.c:246: Si4455Cmd.GET_INT_STATUS.CHIP_PEND      = radioCmd[6];
   0486 90s00r16           1321 	mov	dptr,#(_radioCmd + 0x0006)
   0489 E0                 1322 	movx	a,@dptr
   048A 90s00r06           1323 	mov	dptr,#(_Si4455Cmd + 0x0006)
   048D F0                 1324 	movx	@dptr,a
                    048E   1325 	C$si4455_api_lib.c$247$1$69 ==.
                           1326 ;	C:\Users\TaisikHam\Documents\GitHub\ChibiOS\testhal\STM32F30x\TS_SPI\SI4X55\Radio\Si4455\si4455_api_lib.c:247: Si4455Cmd.GET_INT_STATUS.CHIP_STATUS    = radioCmd[7];
   048E 90s00r17           1327 	mov	dptr,#(_radioCmd + 0x0007)
   0491 E0                 1328 	movx	a,@dptr
   0492 90s00r07           1329 	mov	dptr,#(_Si4455Cmd + 0x0007)
   0495 F0                 1330 	movx	@dptr,a
                    0496   1331 	C$si4455_api_lib.c$248$1$69 ==.
                    0496   1332 	XG$si4455_get_int_status$0$0 ==.
   0496 22                 1333 	ret
                           1334 ;------------------------------------------------------------
                           1335 ;Allocation info for local variables in function 'si4455_start_tx'
                           1336 ;------------------------------------------------------------
                           1337 ;CONDITION                 Allocated with name '_si4455_start_tx_PARM_2'
                           1338 ;TX_LEN                    Allocated with name '_si4455_start_tx_PARM_3'
                           1339 ;CHANNEL                   Allocated with name '_si4455_start_tx_CHANNEL_1_70'
                           1340 ;------------------------------------------------------------
                    0497   1341 	G$si4455_start_tx$0$0 ==.
                    0497   1342 	C$si4455_api_lib.c$251$1$69 ==.
                           1343 ;	C:\Users\TaisikHam\Documents\GitHub\ChibiOS\testhal\STM32F30x\TS_SPI\SI4X55\Radio\Si4455\si4455_api_lib.c:251: void si4455_start_tx(U8 CHANNEL, U8 CONDITION, U16 TX_LEN)
                           1344 ;	-----------------------------------------
                           1345 ;	 function si4455_start_tx
                           1346 ;	-----------------------------------------
   0497                    1347 _si4455_start_tx:
   0497 E5 82              1348 	mov	a,dpl
   0499 90s00r3D           1349 	mov	dptr,#_si4455_start_tx_CHANNEL_1_70
   049C F0                 1350 	movx	@dptr,a
                    049D   1351 	C$si4455_api_lib.c$253$1$71 ==.
                           1352 ;	C:\Users\TaisikHam\Documents\GitHub\ChibiOS\testhal\STM32F30x\TS_SPI\SI4X55\Radio\Si4455\si4455_api_lib.c:253: radioCmd[0] = SI4455_CMD_ID_START_TX;
   049D 90s00r10           1353 	mov	dptr,#_radioCmd
   04A0 74 31              1354 	mov	a,#0x31
   04A2 F0                 1355 	movx	@dptr,a
                    04A3   1356 	C$si4455_api_lib.c$254$1$71 ==.
                           1357 ;	C:\Users\TaisikHam\Documents\GitHub\ChibiOS\testhal\STM32F30x\TS_SPI\SI4X55\Radio\Si4455\si4455_api_lib.c:254: radioCmd[1] = CHANNEL;
   04A3 90s00r3D           1358 	mov	dptr,#_si4455_start_tx_CHANNEL_1_70
   04A6 E0                 1359 	movx	a,@dptr
   04A7 90s00r11           1360 	mov	dptr,#(_radioCmd + 0x0001)
   04AA F0                 1361 	movx	@dptr,a
                    04AB   1362 	C$si4455_api_lib.c$255$1$71 ==.
                           1363 ;	C:\Users\TaisikHam\Documents\GitHub\ChibiOS\testhal\STM32F30x\TS_SPI\SI4X55\Radio\Si4455\si4455_api_lib.c:255: radioCmd[2] = CONDITION;
   04AB 90s00r3A           1364 	mov	dptr,#_si4455_start_tx_PARM_2
   04AE E0                 1365 	movx	a,@dptr
   04AF 90s00r12           1366 	mov	dptr,#(_radioCmd + 0x0002)
   04B2 F0                 1367 	movx	@dptr,a
                    04B3   1368 	C$si4455_api_lib.c$256$1$71 ==.
                           1369 ;	C:\Users\TaisikHam\Documents\GitHub\ChibiOS\testhal\STM32F30x\TS_SPI\SI4X55\Radio\Si4455\si4455_api_lib.c:256: radioCmd[3] = (U8)(TX_LEN >> 8);
   04B3 90s00r3B           1370 	mov	dptr,#_si4455_start_tx_PARM_3
   04B6 E0                 1371 	movx	a,@dptr
   04B7 FE                 1372 	mov	r6,a
   04B8 A3                 1373 	inc	dptr
   04B9 E0                 1374 	movx	a,@dptr
   04BA FD                 1375 	mov	r5,a
   04BB 90s00r13           1376 	mov	dptr,#(_radioCmd + 0x0003)
   04BE ED                 1377 	mov	a,r5
   04BF F0                 1378 	movx	@dptr,a
                    04C0   1379 	C$si4455_api_lib.c$257$1$71 ==.
                           1380 ;	C:\Users\TaisikHam\Documents\GitHub\ChibiOS\testhal\STM32F30x\TS_SPI\SI4X55\Radio\Si4455\si4455_api_lib.c:257: radioCmd[4] = (U8)(TX_LEN);
   04C0 90s00r14           1381 	mov	dptr,#(_radioCmd + 0x0004)
   04C3 EE                 1382 	mov	a,r6
   04C4 F0                 1383 	movx	@dptr,a
                    04C5   1384 	C$si4455_api_lib.c$259$1$71 ==.
                           1385 ;	C:\Users\TaisikHam\Documents\GitHub\ChibiOS\testhal\STM32F30x\TS_SPI\SI4X55\Radio\Si4455\si4455_api_lib.c:259: radio_comm_SendCmd( SI4455_CMD_ARG_COUNT_START_TX, radioCmd );
   04C5 90s00r00           1386 	mov	dptr,#_radio_comm_SendCmd_PARM_2
   04C8 74r10              1387 	mov	a,#_radioCmd
   04CA F0                 1388 	movx	@dptr,a
   04CB A3                 1389 	inc	dptr
   04CC 74s00              1390 	mov	a,#(_radioCmd >> 8)
   04CE F0                 1391 	movx	@dptr,a
   04CF A3                 1392 	inc	dptr
   04D0 E4                 1393 	clr	a
   04D1 F0                 1394 	movx	@dptr,a
   04D2 75 82 05           1395 	mov	dpl,#0x05
   04D5 12s00r00           1396 	lcall	_radio_comm_SendCmd
                    04D8   1397 	C$si4455_api_lib.c$260$1$71 ==.
                    04D8   1398 	XG$si4455_start_tx$0$0 ==.
   04D8 22                 1399 	ret
                           1400 ;------------------------------------------------------------
                           1401 ;Allocation info for local variables in function 'si4455_start_rx'
                           1402 ;------------------------------------------------------------
                           1403 ;CONDITION                 Allocated with name '_si4455_start_rx_PARM_2'
                           1404 ;RX_LEN                    Allocated with name '_si4455_start_rx_PARM_3'
                           1405 ;NEXT_STATE1               Allocated with name '_si4455_start_rx_PARM_4'
                           1406 ;NEXT_STATE2               Allocated with name '_si4455_start_rx_PARM_5'
                           1407 ;NEXT_STATE3               Allocated with name '_si4455_start_rx_PARM_6'
                           1408 ;CHANNEL                   Allocated with name '_si4455_start_rx_CHANNEL_1_72'
                           1409 ;------------------------------------------------------------
                    04D9   1410 	G$si4455_start_rx$0$0 ==.
                    04D9   1411 	C$si4455_api_lib.c$263$1$71 ==.
                           1412 ;	C:\Users\TaisikHam\Documents\GitHub\ChibiOS\testhal\STM32F30x\TS_SPI\SI4X55\Radio\Si4455\si4455_api_lib.c:263: void si4455_start_rx(U8 CHANNEL, U8 CONDITION, U16 RX_LEN, U8 NEXT_STATE1, U8 NEXT_STATE2, U8 NEXT_STATE3)
                           1413 ;	-----------------------------------------
                           1414 ;	 function si4455_start_rx
                           1415 ;	-----------------------------------------
   04D9                    1416 _si4455_start_rx:
   04D9 E5 82              1417 	mov	a,dpl
   04DB 90s00r44           1418 	mov	dptr,#_si4455_start_rx_CHANNEL_1_72
   04DE F0                 1419 	movx	@dptr,a
                    04DF   1420 	C$si4455_api_lib.c$265$1$73 ==.
                           1421 ;	C:\Users\TaisikHam\Documents\GitHub\ChibiOS\testhal\STM32F30x\TS_SPI\SI4X55\Radio\Si4455\si4455_api_lib.c:265: radioCmd[0] = SI4455_CMD_ID_START_RX;
   04DF 90s00r10           1422 	mov	dptr,#_radioCmd
   04E2 74 32              1423 	mov	a,#0x32
   04E4 F0                 1424 	movx	@dptr,a
                    04E5   1425 	C$si4455_api_lib.c$266$1$73 ==.
                           1426 ;	C:\Users\TaisikHam\Documents\GitHub\ChibiOS\testhal\STM32F30x\TS_SPI\SI4X55\Radio\Si4455\si4455_api_lib.c:266: radioCmd[1] = CHANNEL;
   04E5 90s00r44           1427 	mov	dptr,#_si4455_start_rx_CHANNEL_1_72
   04E8 E0                 1428 	movx	a,@dptr
   04E9 90s00r11           1429 	mov	dptr,#(_radioCmd + 0x0001)
   04EC F0                 1430 	movx	@dptr,a
                    04ED   1431 	C$si4455_api_lib.c$267$1$73 ==.
                           1432 ;	C:\Users\TaisikHam\Documents\GitHub\ChibiOS\testhal\STM32F30x\TS_SPI\SI4X55\Radio\Si4455\si4455_api_lib.c:267: radioCmd[2] = CONDITION;
   04ED 90s00r3E           1433 	mov	dptr,#_si4455_start_rx_PARM_2
   04F0 E0                 1434 	movx	a,@dptr
   04F1 90s00r12           1435 	mov	dptr,#(_radioCmd + 0x0002)
   04F4 F0                 1436 	movx	@dptr,a
                    04F5   1437 	C$si4455_api_lib.c$268$1$73 ==.
                           1438 ;	C:\Users\TaisikHam\Documents\GitHub\ChibiOS\testhal\STM32F30x\TS_SPI\SI4X55\Radio\Si4455\si4455_api_lib.c:268: radioCmd[3] = (U8)(RX_LEN >> 8);
   04F5 90s00r3F           1439 	mov	dptr,#_si4455_start_rx_PARM_3
   04F8 E0                 1440 	movx	a,@dptr
   04F9 FE                 1441 	mov	r6,a
   04FA A3                 1442 	inc	dptr
   04FB E0                 1443 	movx	a,@dptr
   04FC FD                 1444 	mov	r5,a
   04FD 90s00r13           1445 	mov	dptr,#(_radioCmd + 0x0003)
   0500 ED                 1446 	mov	a,r5
   0501 F0                 1447 	movx	@dptr,a
                    0502   1448 	C$si4455_api_lib.c$269$1$73 ==.
                           1449 ;	C:\Users\TaisikHam\Documents\GitHub\ChibiOS\testhal\STM32F30x\TS_SPI\SI4X55\Radio\Si4455\si4455_api_lib.c:269: radioCmd[4] = (U8)(RX_LEN);
   0502 90s00r14           1450 	mov	dptr,#(_radioCmd + 0x0004)
   0505 EE                 1451 	mov	a,r6
   0506 F0                 1452 	movx	@dptr,a
                    0507   1453 	C$si4455_api_lib.c$270$1$73 ==.
                           1454 ;	C:\Users\TaisikHam\Documents\GitHub\ChibiOS\testhal\STM32F30x\TS_SPI\SI4X55\Radio\Si4455\si4455_api_lib.c:270: radioCmd[5] = NEXT_STATE1;
   0507 90s00r41           1455 	mov	dptr,#_si4455_start_rx_PARM_4
   050A E0                 1456 	movx	a,@dptr
   050B 90s00r15           1457 	mov	dptr,#(_radioCmd + 0x0005)
   050E F0                 1458 	movx	@dptr,a
                    050F   1459 	C$si4455_api_lib.c$271$1$73 ==.
                           1460 ;	C:\Users\TaisikHam\Documents\GitHub\ChibiOS\testhal\STM32F30x\TS_SPI\SI4X55\Radio\Si4455\si4455_api_lib.c:271: radioCmd[6] = NEXT_STATE2;
   050F 90s00r42           1461 	mov	dptr,#_si4455_start_rx_PARM_5
   0512 E0                 1462 	movx	a,@dptr
   0513 90s00r16           1463 	mov	dptr,#(_radioCmd + 0x0006)
   0516 F0                 1464 	movx	@dptr,a
                    0517   1465 	C$si4455_api_lib.c$272$1$73 ==.
                           1466 ;	C:\Users\TaisikHam\Documents\GitHub\ChibiOS\testhal\STM32F30x\TS_SPI\SI4X55\Radio\Si4455\si4455_api_lib.c:272: radioCmd[7] = NEXT_STATE3;
   0517 90s00r43           1467 	mov	dptr,#_si4455_start_rx_PARM_6
   051A E0                 1468 	movx	a,@dptr
   051B 90s00r17           1469 	mov	dptr,#(_radioCmd + 0x0007)
   051E F0                 1470 	movx	@dptr,a
                    051F   1471 	C$si4455_api_lib.c$274$1$73 ==.
                           1472 ;	C:\Users\TaisikHam\Documents\GitHub\ChibiOS\testhal\STM32F30x\TS_SPI\SI4X55\Radio\Si4455\si4455_api_lib.c:274: radio_comm_SendCmd( SI4455_CMD_ARG_COUNT_START_RX, radioCmd );
   051F 90s00r00           1473 	mov	dptr,#_radio_comm_SendCmd_PARM_2
   0522 74r10              1474 	mov	a,#_radioCmd
   0524 F0                 1475 	movx	@dptr,a
   0525 A3                 1476 	inc	dptr
   0526 74s00              1477 	mov	a,#(_radioCmd >> 8)
   0528 F0                 1478 	movx	@dptr,a
   0529 A3                 1479 	inc	dptr
   052A E4                 1480 	clr	a
   052B F0                 1481 	movx	@dptr,a
   052C 75 82 08           1482 	mov	dpl,#0x08
   052F 12s00r00           1483 	lcall	_radio_comm_SendCmd
                    0532   1484 	C$si4455_api_lib.c$275$1$73 ==.
                    0532   1485 	XG$si4455_start_rx$0$0 ==.
   0532 22                 1486 	ret
                           1487 ;------------------------------------------------------------
                           1488 ;Allocation info for local variables in function 'si4455_request_device_state'
                           1489 ;------------------------------------------------------------
                    0533   1490 	G$si4455_request_device_state$0$0 ==.
                    0533   1491 	C$si4455_api_lib.c$278$1$73 ==.
                           1492 ;	C:\Users\TaisikHam\Documents\GitHub\ChibiOS\testhal\STM32F30x\TS_SPI\SI4X55\Radio\Si4455\si4455_api_lib.c:278: void si4455_request_device_state(void)
                           1493 ;	-----------------------------------------
                           1494 ;	 function si4455_request_device_state
                           1495 ;	-----------------------------------------
   0533                    1496 _si4455_request_device_state:
                    0533   1497 	C$si4455_api_lib.c$280$1$75 ==.
                           1498 ;	C:\Users\TaisikHam\Documents\GitHub\ChibiOS\testhal\STM32F30x\TS_SPI\SI4X55\Radio\Si4455\si4455_api_lib.c:280: radioCmd[0] = SI4455_CMD_ID_REQUEST_DEVICE_STATE;
   0533 90s00r10           1499 	mov	dptr,#_radioCmd
   0536 74 33              1500 	mov	a,#0x33
   0538 F0                 1501 	movx	@dptr,a
                    0539   1502 	C$si4455_api_lib.c$283$1$75 ==.
                           1503 ;	C:\Users\TaisikHam\Documents\GitHub\ChibiOS\testhal\STM32F30x\TS_SPI\SI4X55\Radio\Si4455\si4455_api_lib.c:283: radioCmd,
   0539 90s00r00           1504 	mov	dptr,#_radio_comm_SendCmdGetResp_PARM_2
   053C 74r10              1505 	mov	a,#_radioCmd
   053E F0                 1506 	movx	@dptr,a
   053F A3                 1507 	inc	dptr
   0540 74s00              1508 	mov	a,#(_radioCmd >> 8)
   0542 F0                 1509 	movx	@dptr,a
   0543 A3                 1510 	inc	dptr
   0544 E4                 1511 	clr	a
   0545 F0                 1512 	movx	@dptr,a
                    0546   1513 	C$si4455_api_lib.c$285$1$75 ==.
                           1514 ;	C:\Users\TaisikHam\Documents\GitHub\ChibiOS\testhal\STM32F30x\TS_SPI\SI4X55\Radio\Si4455\si4455_api_lib.c:285: radioCmd );
   0546 90s00r00           1515 	mov	dptr,#_radio_comm_SendCmdGetResp_PARM_3
   0549 74 02              1516 	mov	a,#0x02
   054B F0                 1517 	movx	@dptr,a
   054C 90s00r00           1518 	mov	dptr,#_radio_comm_SendCmdGetResp_PARM_4
   054F 74r10              1519 	mov	a,#_radioCmd
   0551 F0                 1520 	movx	@dptr,a
   0552 A3                 1521 	inc	dptr
   0553 74s00              1522 	mov	a,#(_radioCmd >> 8)
   0555 F0                 1523 	movx	@dptr,a
   0556 A3                 1524 	inc	dptr
   0557 E4                 1525 	clr	a
   0558 F0                 1526 	movx	@dptr,a
   0559 75 82 01           1527 	mov	dpl,#0x01
   055C 12s00r00           1528 	lcall	_radio_comm_SendCmdGetResp
                    055F   1529 	C$si4455_api_lib.c$287$1$75 ==.
                           1530 ;	C:\Users\TaisikHam\Documents\GitHub\ChibiOS\testhal\STM32F30x\TS_SPI\SI4X55\Radio\Si4455\si4455_api_lib.c:287: Si4455Cmd.REQUEST_DEVICE_STATE.CURR_STATE       = radioCmd[0];
   055F 90s00r10           1531 	mov	dptr,#_radioCmd
   0562 E0                 1532 	movx	a,@dptr
   0563 90s00r00           1533 	mov	dptr,#_Si4455Cmd
   0566 F0                 1534 	movx	@dptr,a
                    0567   1535 	C$si4455_api_lib.c$288$1$75 ==.
                           1536 ;	C:\Users\TaisikHam\Documents\GitHub\ChibiOS\testhal\STM32F30x\TS_SPI\SI4X55\Radio\Si4455\si4455_api_lib.c:288: Si4455Cmd.REQUEST_DEVICE_STATE.CURRENT_CHANNEL  = radioCmd[1];
   0567 90s00r11           1537 	mov	dptr,#(_radioCmd + 0x0001)
   056A E0                 1538 	movx	a,@dptr
   056B 90s00r01           1539 	mov	dptr,#(_Si4455Cmd + 0x0001)
   056E F0                 1540 	movx	@dptr,a
                    056F   1541 	C$si4455_api_lib.c$289$1$75 ==.
                    056F   1542 	XG$si4455_request_device_state$0$0 ==.
   056F 22                 1543 	ret
                           1544 ;------------------------------------------------------------
                           1545 ;Allocation info for local variables in function 'si4455_change_state'
                           1546 ;------------------------------------------------------------
                           1547 ;NEXT_STATE1               Allocated with name '_si4455_change_state_NEXT_STATE1_1_76'
                           1548 ;------------------------------------------------------------
                    0570   1549 	G$si4455_change_state$0$0 ==.
                    0570   1550 	C$si4455_api_lib.c$292$1$75 ==.
                           1551 ;	C:\Users\TaisikHam\Documents\GitHub\ChibiOS\testhal\STM32F30x\TS_SPI\SI4X55\Radio\Si4455\si4455_api_lib.c:292: void si4455_change_state(U8 NEXT_STATE1)
                           1552 ;	-----------------------------------------
                           1553 ;	 function si4455_change_state
                           1554 ;	-----------------------------------------
   0570                    1555 _si4455_change_state:
   0570 E5 82              1556 	mov	a,dpl
   0572 90s00r45           1557 	mov	dptr,#_si4455_change_state_NEXT_STATE1_1_76
   0575 F0                 1558 	movx	@dptr,a
                    0576   1559 	C$si4455_api_lib.c$294$1$77 ==.
                           1560 ;	C:\Users\TaisikHam\Documents\GitHub\ChibiOS\testhal\STM32F30x\TS_SPI\SI4X55\Radio\Si4455\si4455_api_lib.c:294: radioCmd[0] = SI4455_CMD_ID_CHANGE_STATE;
   0576 90s00r10           1561 	mov	dptr,#_radioCmd
   0579 74 34              1562 	mov	a,#0x34
   057B F0                 1563 	movx	@dptr,a
                    057C   1564 	C$si4455_api_lib.c$295$1$77 ==.
                           1565 ;	C:\Users\TaisikHam\Documents\GitHub\ChibiOS\testhal\STM32F30x\TS_SPI\SI4X55\Radio\Si4455\si4455_api_lib.c:295: radioCmd[1] = NEXT_STATE1;
   057C 90s00r45           1566 	mov	dptr,#_si4455_change_state_NEXT_STATE1_1_76
   057F E0                 1567 	movx	a,@dptr
   0580 90s00r11           1568 	mov	dptr,#(_radioCmd + 0x0001)
   0583 F0                 1569 	movx	@dptr,a
                    0584   1570 	C$si4455_api_lib.c$297$1$77 ==.
                           1571 ;	C:\Users\TaisikHam\Documents\GitHub\ChibiOS\testhal\STM32F30x\TS_SPI\SI4X55\Radio\Si4455\si4455_api_lib.c:297: radio_comm_SendCmd( SI4455_CMD_ARG_COUNT_CHANGE_STATE, radioCmd );
   0584 90s00r00           1572 	mov	dptr,#_radio_comm_SendCmd_PARM_2
   0587 74r10              1573 	mov	a,#_radioCmd
   0589 F0                 1574 	movx	@dptr,a
   058A A3                 1575 	inc	dptr
   058B 74s00              1576 	mov	a,#(_radioCmd >> 8)
   058D F0                 1577 	movx	@dptr,a
   058E A3                 1578 	inc	dptr
   058F E4                 1579 	clr	a
   0590 F0                 1580 	movx	@dptr,a
   0591 75 82 02           1581 	mov	dpl,#0x02
   0594 12s00r00           1582 	lcall	_radio_comm_SendCmd
                    0597   1583 	C$si4455_api_lib.c$298$1$77 ==.
                    0597   1584 	XG$si4455_change_state$0$0 ==.
   0597 22                 1585 	ret
                           1586 ;------------------------------------------------------------
                           1587 ;Allocation info for local variables in function 'si4455_read_cmd_buff'
                           1588 ;------------------------------------------------------------
                    0598   1589 	G$si4455_read_cmd_buff$0$0 ==.
                    0598   1590 	C$si4455_api_lib.c$301$1$77 ==.
                           1591 ;	C:\Users\TaisikHam\Documents\GitHub\ChibiOS\testhal\STM32F30x\TS_SPI\SI4X55\Radio\Si4455\si4455_api_lib.c:301: void si4455_read_cmd_buff(void)
                           1592 ;	-----------------------------------------
                           1593 ;	 function si4455_read_cmd_buff
                           1594 ;	-----------------------------------------
   0598                    1595 _si4455_read_cmd_buff:
                    0598   1596 	C$si4455_api_lib.c$304$1$77 ==.
                           1597 ;	C:\Users\TaisikHam\Documents\GitHub\ChibiOS\testhal\STM32F30x\TS_SPI\SI4X55\Radio\Si4455\si4455_api_lib.c:304: }
                    0598   1598 	C$si4455_api_lib.c$304$1$77 ==.
                    0598   1599 	XG$si4455_read_cmd_buff$0$0 ==.
   0598 22                 1600 	ret
                           1601 ;------------------------------------------------------------
                           1602 ;Allocation info for local variables in function 'si4455_frr_a_read'
                           1603 ;------------------------------------------------------------
                           1604 ;respByteCount             Allocated with name '_si4455_frr_a_read_respByteCount_1_80'
                           1605 ;------------------------------------------------------------
                    0599   1606 	G$si4455_frr_a_read$0$0 ==.
                    0599   1607 	C$si4455_api_lib.c$307$1$77 ==.
                           1608 ;	C:\Users\TaisikHam\Documents\GitHub\ChibiOS\testhal\STM32F30x\TS_SPI\SI4X55\Radio\Si4455\si4455_api_lib.c:307: void si4455_frr_a_read(U8 respByteCount)
                           1609 ;	-----------------------------------------
                           1610 ;	 function si4455_frr_a_read
                           1611 ;	-----------------------------------------
   0599                    1612 _si4455_frr_a_read:
   0599 E5 82              1613 	mov	a,dpl
                    059B   1614 	C$si4455_api_lib.c$311$1$81 ==.
                           1615 ;	C:\Users\TaisikHam\Documents\GitHub\ChibiOS\testhal\STM32F30x\TS_SPI\SI4X55\Radio\Si4455\si4455_api_lib.c:311: respByteCount,
   059B 90s00r46           1616 	mov	dptr,#_si4455_frr_a_read_respByteCount_1_80
   059E F0                 1617 	movx	@dptr,a
   059F FF                 1618 	mov	r7,a
                    05A0   1619 	C$si4455_api_lib.c$312$1$81 ==.
                           1620 ;	C:\Users\TaisikHam\Documents\GitHub\ChibiOS\testhal\STM32F30x\TS_SPI\SI4X55\Radio\Si4455\si4455_api_lib.c:312: radioCmd);
   05A0 C2*00              1621 	clr	_radio_comm_ReadData_PARM_2
   05A2 90s00r00           1622 	mov	dptr,#_radio_comm_ReadData_PARM_3
   05A5 EF                 1623 	mov	a,r7
   05A6 F0                 1624 	movx	@dptr,a
   05A7 90s00r00           1625 	mov	dptr,#_radio_comm_ReadData_PARM_4
   05AA 74r10              1626 	mov	a,#_radioCmd
   05AC F0                 1627 	movx	@dptr,a
   05AD A3                 1628 	inc	dptr
   05AE 74s00              1629 	mov	a,#(_radioCmd >> 8)
   05B0 F0                 1630 	movx	@dptr,a
   05B1 A3                 1631 	inc	dptr
   05B2 E4                 1632 	clr	a
   05B3 F0                 1633 	movx	@dptr,a
   05B4 75 82 50           1634 	mov	dpl,#0x50
   05B7 12s00r00           1635 	lcall	_radio_comm_ReadData
                    05BA   1636 	C$si4455_api_lib.c$314$1$81 ==.
                           1637 ;	C:\Users\TaisikHam\Documents\GitHub\ChibiOS\testhal\STM32F30x\TS_SPI\SI4X55\Radio\Si4455\si4455_api_lib.c:314: Si4455Cmd.FRR_A_READ.FRR_A_VALUE = radioCmd[0];
   05BA 90s00r10           1638 	mov	dptr,#_radioCmd
   05BD E0                 1639 	movx	a,@dptr
   05BE 90s00r00           1640 	mov	dptr,#_Si4455Cmd
   05C1 F0                 1641 	movx	@dptr,a
                    05C2   1642 	C$si4455_api_lib.c$315$1$81 ==.
                           1643 ;	C:\Users\TaisikHam\Documents\GitHub\ChibiOS\testhal\STM32F30x\TS_SPI\SI4X55\Radio\Si4455\si4455_api_lib.c:315: Si4455Cmd.FRR_A_READ.FRR_B_VALUE = radioCmd[1];
   05C2 90s00r11           1644 	mov	dptr,#(_radioCmd + 0x0001)
   05C5 E0                 1645 	movx	a,@dptr
   05C6 90s00r01           1646 	mov	dptr,#(_Si4455Cmd + 0x0001)
   05C9 F0                 1647 	movx	@dptr,a
                    05CA   1648 	C$si4455_api_lib.c$316$1$81 ==.
                           1649 ;	C:\Users\TaisikHam\Documents\GitHub\ChibiOS\testhal\STM32F30x\TS_SPI\SI4X55\Radio\Si4455\si4455_api_lib.c:316: Si4455Cmd.FRR_A_READ.FRR_C_VALUE = radioCmd[2];
   05CA 90s00r12           1650 	mov	dptr,#(_radioCmd + 0x0002)
   05CD E0                 1651 	movx	a,@dptr
   05CE 90s00r02           1652 	mov	dptr,#(_Si4455Cmd + 0x0002)
   05D1 F0                 1653 	movx	@dptr,a
                    05D2   1654 	C$si4455_api_lib.c$317$1$81 ==.
                           1655 ;	C:\Users\TaisikHam\Documents\GitHub\ChibiOS\testhal\STM32F30x\TS_SPI\SI4X55\Radio\Si4455\si4455_api_lib.c:317: Si4455Cmd.FRR_A_READ.FRR_D_VALUE = radioCmd[3];
   05D2 90s00r13           1656 	mov	dptr,#(_radioCmd + 0x0003)
   05D5 E0                 1657 	movx	a,@dptr
   05D6 90s00r03           1658 	mov	dptr,#(_Si4455Cmd + 0x0003)
   05D9 F0                 1659 	movx	@dptr,a
                    05DA   1660 	C$si4455_api_lib.c$318$1$81 ==.
                    05DA   1661 	XG$si4455_frr_a_read$0$0 ==.
   05DA 22                 1662 	ret
                           1663 ;------------------------------------------------------------
                           1664 ;Allocation info for local variables in function 'si4455_frr_b_read'
                           1665 ;------------------------------------------------------------
                           1666 ;respByteCount             Allocated with name '_si4455_frr_b_read_respByteCount_1_82'
                           1667 ;------------------------------------------------------------
                    05DB   1668 	G$si4455_frr_b_read$0$0 ==.
                    05DB   1669 	C$si4455_api_lib.c$321$1$81 ==.
                           1670 ;	C:\Users\TaisikHam\Documents\GitHub\ChibiOS\testhal\STM32F30x\TS_SPI\SI4X55\Radio\Si4455\si4455_api_lib.c:321: void si4455_frr_b_read(U8 respByteCount)
                           1671 ;	-----------------------------------------
                           1672 ;	 function si4455_frr_b_read
                           1673 ;	-----------------------------------------
   05DB                    1674 _si4455_frr_b_read:
   05DB E5 82              1675 	mov	a,dpl
                    05DD   1676 	C$si4455_api_lib.c$325$1$83 ==.
                           1677 ;	C:\Users\TaisikHam\Documents\GitHub\ChibiOS\testhal\STM32F30x\TS_SPI\SI4X55\Radio\Si4455\si4455_api_lib.c:325: respByteCount,
   05DD 90s00r47           1678 	mov	dptr,#_si4455_frr_b_read_respByteCount_1_82
   05E0 F0                 1679 	movx	@dptr,a
   05E1 FF                 1680 	mov	r7,a
                    05E2   1681 	C$si4455_api_lib.c$326$1$83 ==.
                           1682 ;	C:\Users\TaisikHam\Documents\GitHub\ChibiOS\testhal\STM32F30x\TS_SPI\SI4X55\Radio\Si4455\si4455_api_lib.c:326: radioCmd);
   05E2 C2*00              1683 	clr	_radio_comm_ReadData_PARM_2
   05E4 90s00r00           1684 	mov	dptr,#_radio_comm_ReadData_PARM_3
   05E7 EF                 1685 	mov	a,r7
   05E8 F0                 1686 	movx	@dptr,a
   05E9 90s00r00           1687 	mov	dptr,#_radio_comm_ReadData_PARM_4
   05EC 74r10              1688 	mov	a,#_radioCmd
   05EE F0                 1689 	movx	@dptr,a
   05EF A3                 1690 	inc	dptr
   05F0 74s00              1691 	mov	a,#(_radioCmd >> 8)
   05F2 F0                 1692 	movx	@dptr,a
   05F3 A3                 1693 	inc	dptr
   05F4 E4                 1694 	clr	a
   05F5 F0                 1695 	movx	@dptr,a
   05F6 75 82 51           1696 	mov	dpl,#0x51
   05F9 12s00r00           1697 	lcall	_radio_comm_ReadData
                    05FC   1698 	C$si4455_api_lib.c$328$1$83 ==.
                           1699 ;	C:\Users\TaisikHam\Documents\GitHub\ChibiOS\testhal\STM32F30x\TS_SPI\SI4X55\Radio\Si4455\si4455_api_lib.c:328: Si4455Cmd.FRR_B_READ.FRR_B_VALUE = radioCmd[0];
   05FC 90s00r10           1700 	mov	dptr,#_radioCmd
   05FF E0                 1701 	movx	a,@dptr
   0600 90s00r00           1702 	mov	dptr,#_Si4455Cmd
   0603 F0                 1703 	movx	@dptr,a
                    0604   1704 	C$si4455_api_lib.c$329$1$83 ==.
                           1705 ;	C:\Users\TaisikHam\Documents\GitHub\ChibiOS\testhal\STM32F30x\TS_SPI\SI4X55\Radio\Si4455\si4455_api_lib.c:329: Si4455Cmd.FRR_B_READ.FRR_C_VALUE = radioCmd[1];
   0604 90s00r11           1706 	mov	dptr,#(_radioCmd + 0x0001)
   0607 E0                 1707 	movx	a,@dptr
   0608 90s00r01           1708 	mov	dptr,#(_Si4455Cmd + 0x0001)
   060B F0                 1709 	movx	@dptr,a
                    060C   1710 	C$si4455_api_lib.c$330$1$83 ==.
                           1711 ;	C:\Users\TaisikHam\Documents\GitHub\ChibiOS\testhal\STM32F30x\TS_SPI\SI4X55\Radio\Si4455\si4455_api_lib.c:330: Si4455Cmd.FRR_B_READ.FRR_D_VALUE = radioCmd[2];
   060C 90s00r12           1712 	mov	dptr,#(_radioCmd + 0x0002)
   060F E0                 1713 	movx	a,@dptr
   0610 90s00r02           1714 	mov	dptr,#(_Si4455Cmd + 0x0002)
   0613 F0                 1715 	movx	@dptr,a
                    0614   1716 	C$si4455_api_lib.c$331$1$83 ==.
                           1717 ;	C:\Users\TaisikHam\Documents\GitHub\ChibiOS\testhal\STM32F30x\TS_SPI\SI4X55\Radio\Si4455\si4455_api_lib.c:331: Si4455Cmd.FRR_B_READ.FRR_A_VALUE = radioCmd[3];
   0614 90s00r13           1718 	mov	dptr,#(_radioCmd + 0x0003)
   0617 E0                 1719 	movx	a,@dptr
   0618 90s00r03           1720 	mov	dptr,#(_Si4455Cmd + 0x0003)
   061B F0                 1721 	movx	@dptr,a
                    061C   1722 	C$si4455_api_lib.c$332$1$83 ==.
                    061C   1723 	XG$si4455_frr_b_read$0$0 ==.
   061C 22                 1724 	ret
                           1725 ;------------------------------------------------------------
                           1726 ;Allocation info for local variables in function 'si4455_frr_c_read'
                           1727 ;------------------------------------------------------------
                           1728 ;respByteCount             Allocated with name '_si4455_frr_c_read_respByteCount_1_84'
                           1729 ;------------------------------------------------------------
                    061D   1730 	G$si4455_frr_c_read$0$0 ==.
                    061D   1731 	C$si4455_api_lib.c$335$1$83 ==.
                           1732 ;	C:\Users\TaisikHam\Documents\GitHub\ChibiOS\testhal\STM32F30x\TS_SPI\SI4X55\Radio\Si4455\si4455_api_lib.c:335: void si4455_frr_c_read(U8 respByteCount)
                           1733 ;	-----------------------------------------
                           1734 ;	 function si4455_frr_c_read
                           1735 ;	-----------------------------------------
   061D                    1736 _si4455_frr_c_read:
   061D E5 82              1737 	mov	a,dpl
                    061F   1738 	C$si4455_api_lib.c$339$1$85 ==.
                           1739 ;	C:\Users\TaisikHam\Documents\GitHub\ChibiOS\testhal\STM32F30x\TS_SPI\SI4X55\Radio\Si4455\si4455_api_lib.c:339: respByteCount,
   061F 90s00r48           1740 	mov	dptr,#_si4455_frr_c_read_respByteCount_1_84
   0622 F0                 1741 	movx	@dptr,a
   0623 FF                 1742 	mov	r7,a
                    0624   1743 	C$si4455_api_lib.c$340$1$85 ==.
                           1744 ;	C:\Users\TaisikHam\Documents\GitHub\ChibiOS\testhal\STM32F30x\TS_SPI\SI4X55\Radio\Si4455\si4455_api_lib.c:340: radioCmd);
   0624 C2*00              1745 	clr	_radio_comm_ReadData_PARM_2
   0626 90s00r00           1746 	mov	dptr,#_radio_comm_ReadData_PARM_3
   0629 EF                 1747 	mov	a,r7
   062A F0                 1748 	movx	@dptr,a
   062B 90s00r00           1749 	mov	dptr,#_radio_comm_ReadData_PARM_4
   062E 74r10              1750 	mov	a,#_radioCmd
   0630 F0                 1751 	movx	@dptr,a
   0631 A3                 1752 	inc	dptr
   0632 74s00              1753 	mov	a,#(_radioCmd >> 8)
   0634 F0                 1754 	movx	@dptr,a
   0635 A3                 1755 	inc	dptr
   0636 E4                 1756 	clr	a
   0637 F0                 1757 	movx	@dptr,a
   0638 75 82 53           1758 	mov	dpl,#0x53
   063B 12s00r00           1759 	lcall	_radio_comm_ReadData
                    063E   1760 	C$si4455_api_lib.c$342$1$85 ==.
                           1761 ;	C:\Users\TaisikHam\Documents\GitHub\ChibiOS\testhal\STM32F30x\TS_SPI\SI4X55\Radio\Si4455\si4455_api_lib.c:342: Si4455Cmd.FRR_C_READ.FRR_C_VALUE = radioCmd[0];
   063E 90s00r10           1762 	mov	dptr,#_radioCmd
   0641 E0                 1763 	movx	a,@dptr
   0642 90s00r00           1764 	mov	dptr,#_Si4455Cmd
   0645 F0                 1765 	movx	@dptr,a
                    0646   1766 	C$si4455_api_lib.c$343$1$85 ==.
                           1767 ;	C:\Users\TaisikHam\Documents\GitHub\ChibiOS\testhal\STM32F30x\TS_SPI\SI4X55\Radio\Si4455\si4455_api_lib.c:343: Si4455Cmd.FRR_C_READ.FRR_D_VALUE = radioCmd[1];
   0646 90s00r11           1768 	mov	dptr,#(_radioCmd + 0x0001)
   0649 E0                 1769 	movx	a,@dptr
   064A 90s00r01           1770 	mov	dptr,#(_Si4455Cmd + 0x0001)
   064D F0                 1771 	movx	@dptr,a
                    064E   1772 	C$si4455_api_lib.c$344$1$85 ==.
                           1773 ;	C:\Users\TaisikHam\Documents\GitHub\ChibiOS\testhal\STM32F30x\TS_SPI\SI4X55\Radio\Si4455\si4455_api_lib.c:344: Si4455Cmd.FRR_C_READ.FRR_A_VALUE = radioCmd[2];
   064E 90s00r12           1774 	mov	dptr,#(_radioCmd + 0x0002)
   0651 E0                 1775 	movx	a,@dptr
   0652 90s00r02           1776 	mov	dptr,#(_Si4455Cmd + 0x0002)
   0655 F0                 1777 	movx	@dptr,a
                    0656   1778 	C$si4455_api_lib.c$345$1$85 ==.
                           1779 ;	C:\Users\TaisikHam\Documents\GitHub\ChibiOS\testhal\STM32F30x\TS_SPI\SI4X55\Radio\Si4455\si4455_api_lib.c:345: Si4455Cmd.FRR_C_READ.FRR_B_VALUE = radioCmd[3];
   0656 90s00r13           1780 	mov	dptr,#(_radioCmd + 0x0003)
   0659 E0                 1781 	movx	a,@dptr
   065A 90s00r03           1782 	mov	dptr,#(_Si4455Cmd + 0x0003)
   065D F0                 1783 	movx	@dptr,a
                    065E   1784 	C$si4455_api_lib.c$346$1$85 ==.
                    065E   1785 	XG$si4455_frr_c_read$0$0 ==.
   065E 22                 1786 	ret
                           1787 ;------------------------------------------------------------
                           1788 ;Allocation info for local variables in function 'si4455_frr_d_read'
                           1789 ;------------------------------------------------------------
                           1790 ;respByteCount             Allocated with name '_si4455_frr_d_read_respByteCount_1_86'
                           1791 ;------------------------------------------------------------
                    065F   1792 	G$si4455_frr_d_read$0$0 ==.
                    065F   1793 	C$si4455_api_lib.c$349$1$85 ==.
                           1794 ;	C:\Users\TaisikHam\Documents\GitHub\ChibiOS\testhal\STM32F30x\TS_SPI\SI4X55\Radio\Si4455\si4455_api_lib.c:349: void si4455_frr_d_read(U8 respByteCount)
                           1795 ;	-----------------------------------------
                           1796 ;	 function si4455_frr_d_read
                           1797 ;	-----------------------------------------
   065F                    1798 _si4455_frr_d_read:
   065F E5 82              1799 	mov	a,dpl
                    0661   1800 	C$si4455_api_lib.c$353$1$87 ==.
                           1801 ;	C:\Users\TaisikHam\Documents\GitHub\ChibiOS\testhal\STM32F30x\TS_SPI\SI4X55\Radio\Si4455\si4455_api_lib.c:353: respByteCount,
   0661 90s00r49           1802 	mov	dptr,#_si4455_frr_d_read_respByteCount_1_86
   0664 F0                 1803 	movx	@dptr,a
   0665 FF                 1804 	mov	r7,a
                    0666   1805 	C$si4455_api_lib.c$354$1$87 ==.
                           1806 ;	C:\Users\TaisikHam\Documents\GitHub\ChibiOS\testhal\STM32F30x\TS_SPI\SI4X55\Radio\Si4455\si4455_api_lib.c:354: radioCmd);
   0666 C2*00              1807 	clr	_radio_comm_ReadData_PARM_2
   0668 90s00r00           1808 	mov	dptr,#_radio_comm_ReadData_PARM_3
   066B EF                 1809 	mov	a,r7
   066C F0                 1810 	movx	@dptr,a
   066D 90s00r00           1811 	mov	dptr,#_radio_comm_ReadData_PARM_4
   0670 74r10              1812 	mov	a,#_radioCmd
   0672 F0                 1813 	movx	@dptr,a
   0673 A3                 1814 	inc	dptr
   0674 74s00              1815 	mov	a,#(_radioCmd >> 8)
   0676 F0                 1816 	movx	@dptr,a
   0677 A3                 1817 	inc	dptr
   0678 E4                 1818 	clr	a
   0679 F0                 1819 	movx	@dptr,a
   067A 75 82 57           1820 	mov	dpl,#0x57
   067D 12s00r00           1821 	lcall	_radio_comm_ReadData
                    0680   1822 	C$si4455_api_lib.c$356$1$87 ==.
                           1823 ;	C:\Users\TaisikHam\Documents\GitHub\ChibiOS\testhal\STM32F30x\TS_SPI\SI4X55\Radio\Si4455\si4455_api_lib.c:356: Si4455Cmd.FRR_D_READ.FRR_D_VALUE = radioCmd[0];
   0680 90s00r10           1824 	mov	dptr,#_radioCmd
   0683 E0                 1825 	movx	a,@dptr
   0684 90s00r00           1826 	mov	dptr,#_Si4455Cmd
   0687 F0                 1827 	movx	@dptr,a
                    0688   1828 	C$si4455_api_lib.c$357$1$87 ==.
                           1829 ;	C:\Users\TaisikHam\Documents\GitHub\ChibiOS\testhal\STM32F30x\TS_SPI\SI4X55\Radio\Si4455\si4455_api_lib.c:357: Si4455Cmd.FRR_D_READ.FRR_A_VALUE = radioCmd[1];
   0688 90s00r11           1830 	mov	dptr,#(_radioCmd + 0x0001)
   068B E0                 1831 	movx	a,@dptr
   068C 90s00r01           1832 	mov	dptr,#(_Si4455Cmd + 0x0001)
   068F F0                 1833 	movx	@dptr,a
                    0690   1834 	C$si4455_api_lib.c$358$1$87 ==.
                           1835 ;	C:\Users\TaisikHam\Documents\GitHub\ChibiOS\testhal\STM32F30x\TS_SPI\SI4X55\Radio\Si4455\si4455_api_lib.c:358: Si4455Cmd.FRR_D_READ.FRR_B_VALUE = radioCmd[2];
   0690 90s00r12           1836 	mov	dptr,#(_radioCmd + 0x0002)
   0693 E0                 1837 	movx	a,@dptr
   0694 90s00r02           1838 	mov	dptr,#(_Si4455Cmd + 0x0002)
   0697 F0                 1839 	movx	@dptr,a
                    0698   1840 	C$si4455_api_lib.c$359$1$87 ==.
                           1841 ;	C:\Users\TaisikHam\Documents\GitHub\ChibiOS\testhal\STM32F30x\TS_SPI\SI4X55\Radio\Si4455\si4455_api_lib.c:359: Si4455Cmd.FRR_D_READ.FRR_C_VALUE = radioCmd[3];
   0698 90s00r13           1842 	mov	dptr,#(_radioCmd + 0x0003)
   069B E0                 1843 	movx	a,@dptr
   069C 90s00r03           1844 	mov	dptr,#(_Si4455Cmd + 0x0003)
   069F F0                 1845 	movx	@dptr,a
                    06A0   1846 	C$si4455_api_lib.c$360$1$87 ==.
                    06A0   1847 	XG$si4455_frr_d_read$0$0 ==.
   06A0 22                 1848 	ret
                           1849 ;------------------------------------------------------------
                           1850 ;Allocation info for local variables in function 'si4455_write_tx_fifo'
                           1851 ;------------------------------------------------------------
                           1852 ;pTxData                   Allocated with name '_si4455_write_tx_fifo_PARM_2'
                           1853 ;numBytes                  Allocated with name '_si4455_write_tx_fifo_numBytes_1_88'
                           1854 ;------------------------------------------------------------
                    06A1   1855 	G$si4455_write_tx_fifo$0$0 ==.
                    06A1   1856 	C$si4455_api_lib.c$363$1$87 ==.
                           1857 ;	C:\Users\TaisikHam\Documents\GitHub\ChibiOS\testhal\STM32F30x\TS_SPI\SI4X55\Radio\Si4455\si4455_api_lib.c:363: void si4455_write_tx_fifo(U8 numBytes, U8* pTxData)
                           1858 ;	-----------------------------------------
                           1859 ;	 function si4455_write_tx_fifo
                           1860 ;	-----------------------------------------
   06A1                    1861 _si4455_write_tx_fifo:
   06A1 E5 82              1862 	mov	a,dpl
                    06A3   1863 	C$si4455_api_lib.c$365$1$89 ==.
                           1864 ;	C:\Users\TaisikHam\Documents\GitHub\ChibiOS\testhal\STM32F30x\TS_SPI\SI4X55\Radio\Si4455\si4455_api_lib.c:365: radio_comm_WriteData( SI4455_CMD_ID_WRITE_TX_FIFO, 0, numBytes, pTxData );
   06A3 90s00r4D           1865 	mov	dptr,#_si4455_write_tx_fifo_numBytes_1_88
   06A6 F0                 1866 	movx	@dptr,a
   06A7 FF                 1867 	mov	r7,a
   06A8 90s00r4A           1868 	mov	dptr,#_si4455_write_tx_fifo_PARM_2
   06AB E0                 1869 	movx	a,@dptr
   06AC FC                 1870 	mov	r4,a
   06AD A3                 1871 	inc	dptr
   06AE E0                 1872 	movx	a,@dptr
   06AF FD                 1873 	mov	r5,a
   06B0 A3                 1874 	inc	dptr
   06B1 E0                 1875 	movx	a,@dptr
   06B2 FE                 1876 	mov	r6,a
   06B3 C2*00              1877 	clr	_radio_comm_WriteData_PARM_2
   06B5 90s00r00           1878 	mov	dptr,#_radio_comm_WriteData_PARM_3
   06B8 EF                 1879 	mov	a,r7
   06B9 F0                 1880 	movx	@dptr,a
   06BA 90s00r00           1881 	mov	dptr,#_radio_comm_WriteData_PARM_4
   06BD EC                 1882 	mov	a,r4
   06BE F0                 1883 	movx	@dptr,a
   06BF A3                 1884 	inc	dptr
   06C0 ED                 1885 	mov	a,r5
   06C1 F0                 1886 	movx	@dptr,a
   06C2 A3                 1887 	inc	dptr
   06C3 EE                 1888 	mov	a,r6
   06C4 F0                 1889 	movx	@dptr,a
   06C5 75 82 66           1890 	mov	dpl,#0x66
   06C8 12s00r00           1891 	lcall	_radio_comm_WriteData
                    06CB   1892 	C$si4455_api_lib.c$366$1$89 ==.
                    06CB   1893 	XG$si4455_write_tx_fifo$0$0 ==.
   06CB 22                 1894 	ret
                           1895 ;------------------------------------------------------------
                           1896 ;Allocation info for local variables in function 'si4455_read_rx_fifo'
                           1897 ;------------------------------------------------------------
                           1898 ;pRxData                   Allocated with name '_si4455_read_rx_fifo_PARM_2'
                           1899 ;numBytes                  Allocated with name '_si4455_read_rx_fifo_numBytes_1_90'
                           1900 ;------------------------------------------------------------
                    06CC   1901 	G$si4455_read_rx_fifo$0$0 ==.
                    06CC   1902 	C$si4455_api_lib.c$368$1$89 ==.
                           1903 ;	C:\Users\TaisikHam\Documents\GitHub\ChibiOS\testhal\STM32F30x\TS_SPI\SI4X55\Radio\Si4455\si4455_api_lib.c:368: void si4455_read_rx_fifo(U8 numBytes, U8* pRxData)
                           1904 ;	-----------------------------------------
                           1905 ;	 function si4455_read_rx_fifo
                           1906 ;	-----------------------------------------
   06CC                    1907 _si4455_read_rx_fifo:
   06CC E5 82              1908 	mov	a,dpl
                    06CE   1909 	C$si4455_api_lib.c$370$1$91 ==.
                           1910 ;	C:\Users\TaisikHam\Documents\GitHub\ChibiOS\testhal\STM32F30x\TS_SPI\SI4X55\Radio\Si4455\si4455_api_lib.c:370: radio_comm_ReadData( SI4455_CMD_ID_READ_RX_FIFO, 0, numBytes, pRxData );
   06CE 90s00r51           1911 	mov	dptr,#_si4455_read_rx_fifo_numBytes_1_90
   06D1 F0                 1912 	movx	@dptr,a
   06D2 FF                 1913 	mov	r7,a
   06D3 90s00r4E           1914 	mov	dptr,#_si4455_read_rx_fifo_PARM_2
   06D6 E0                 1915 	movx	a,@dptr
   06D7 FC                 1916 	mov	r4,a
   06D8 A3                 1917 	inc	dptr
   06D9 E0                 1918 	movx	a,@dptr
   06DA FD                 1919 	mov	r5,a
   06DB A3                 1920 	inc	dptr
   06DC E0                 1921 	movx	a,@dptr
   06DD FE                 1922 	mov	r6,a
   06DE C2*00              1923 	clr	_radio_comm_ReadData_PARM_2
   06E0 90s00r00           1924 	mov	dptr,#_radio_comm_ReadData_PARM_3
   06E3 EF                 1925 	mov	a,r7
   06E4 F0                 1926 	movx	@dptr,a
   06E5 90s00r00           1927 	mov	dptr,#_radio_comm_ReadData_PARM_4
   06E8 EC                 1928 	mov	a,r4
   06E9 F0                 1929 	movx	@dptr,a
   06EA A3                 1930 	inc	dptr
   06EB ED                 1931 	mov	a,r5
   06EC F0                 1932 	movx	@dptr,a
   06ED A3                 1933 	inc	dptr
   06EE EE                 1934 	mov	a,r6
   06EF F0                 1935 	movx	@dptr,a
   06F0 75 82 77           1936 	mov	dpl,#0x77
   06F3 12s00r00           1937 	lcall	_radio_comm_ReadData
                    06F6   1938 	C$si4455_api_lib.c$371$1$91 ==.
                    06F6   1939 	XG$si4455_read_rx_fifo$0$0 ==.
   06F6 22                 1940 	ret
                           1941 	.area CSEG    (CODE)
                           1942 	.area CONST   (CODE)
                           1943 	.area XINIT   (CODE)
                           1944 	.area CABS    (ABS,CODE)
