ARM GAS  C:\cygwin\tmp\ccuGi8eW.s 			page 1


   1              		.syntax unified
   2              		.cpu cortex-m4
   3              		.fpu softvfp
   4              		.eabi_attribute 20, 1
   5              		.eabi_attribute 21, 1
   6              		.eabi_attribute 23, 3
   7              		.eabi_attribute 24, 1
   8              		.eabi_attribute 25, 1
   9              		.eabi_attribute 26, 1
  10              		.eabi_attribute 30, 2
  11              		.eabi_attribute 34, 1
  12              		.eabi_attribute 18, 4
  13              		.thumb
  14              		.file	"hal.c"
  15              		.text
  16              	.Ltext0:
  17              		.cfi_sections	.debug_frame
  18              		.section	.text.halInit,"ax",%progbits
  19              		.align	2
  20              		.p2align 4,,15
  21              		.global	halInit
  22              		.thumb
  23              		.thumb_func
  24              		.type	halInit, %function
  25              	halInit:
  26              	.LFB118:
  27              		.file 1 "../../../os/hal/src/hal.c"
  28              		.loc 1 61 0
  29              		.cfi_startproc
  30              		@ args = 0, pretend = 0, frame = 0
  31              		@ frame_needed = 0, uses_anonymous_args = 0
  32 0000 08B5     		push	{r3, lr}
  33              	.LCFI0:
  34              		.cfi_def_cfa_offset 8
  35              		.cfi_offset 3, -8
  36              		.cfi_offset 14, -4
  37              		.loc 1 63 0
  38 0002 FFF7FEFF 		bl	hal_lld_init
  39              	.LVL0:
  40              		.loc 1 66 0
  41 0006 FFF7FEFF 		bl	tmInit
  42              	.LVL1:
  43              		.loc 1 69 0
  44 000a 40F20000 		movw	r0, #:lower16:pal_default_config
  45 000e C0F20000 		movt	r0, #:upper16:pal_default_config
  46 0012 FFF7FEFF 		bl	_pal_lld_init
  47              	.LVL2:
  48              		.loc 1 102 0
  49 0016 FFF7FEFF 		bl	spiInit
  50              	.LVL3:
  51              		.loc 1 121 0
  52 001a BDE80840 		pop	{r3, lr}
  53              		.loc 1 120 0
  54 001e FFF7FEBF 		b	boardInit
  55              	.LVL4:
  56              		.cfi_endproc
  57              	.LFE118:
ARM GAS  C:\cygwin\tmp\ccuGi8eW.s 			page 2


  58              		.size	halInit, .-halInit
  59 0022 00BFAFF3 		.section	.text.halIsCounterWithin,"ax",%progbits
  59      0080AFF3 
  59      0080AFF3 
  59      0080
  60              		.align	2
  61              		.p2align 4,,15
  62              		.global	halIsCounterWithin
  63              		.thumb
  64              		.thumb_func
  65              		.type	halIsCounterWithin, %function
  66              	halIsCounterWithin:
  67              	.LFB119:
  68              		.loc 1 167 0
  69              		.cfi_startproc
  70              		@ args = 0, pretend = 0, frame = 0
  71              		@ frame_needed = 0, uses_anonymous_args = 0
  72              		@ link register save eliminated.
  73              	.LVL5:
  74              		.loc 1 168 0
  75 0000 4FF48053 		mov	r3, #4096
  76 0004 CEF20003 		movt	r3, 57344
  77              		.loc 1 170 0
  78 0008 8142     		cmp	r1, r0
  79              		.loc 1 167 0
  80 000a 0246     		mov	r2, r0
  81              		.loc 1 168 0
  82 000c 5B68     		ldr	r3, [r3, #4]
  83              	.LVL6:
  84              		.loc 1 170 0
  85 000e 09D8     		bhi	.L6
  86              		.loc 1 171 0 discriminator 2
  87 0010 8342     		cmp	r3, r0
  88 0012 34BF     		ite	cc
  89 0014 0022     		movcc	r2, #0
  90 0016 0122     		movcs	r2, #1
  91 0018 8B42     		cmp	r3, r1
  92 001a 2CBF     		ite	cs
  93 001c 1046     		movcs	r0, r2
  94 001e 42F00100 		orrcc	r0, r2, #1
  95              	.LVL7:
  96              		.loc 1 172 0 discriminator 2
  97 0022 7047     		bx	lr
  98              	.LVL8:
  99              	.L6:
 100              		.loc 1 170 0 discriminator 1
 101 0024 8B42     		cmp	r3, r1
 102 0026 2CBF     		ite	cs
 103 0028 0020     		movcs	r0, #0
 104              	.LVL9:
 105 002a 0120     		movcc	r0, #1
 106 002c 9342     		cmp	r3, r2
 107 002e 38BF     		it	cc
 108 0030 0020     		movcc	r0, #0
 109 0032 7047     		bx	lr
 110              		.cfi_endproc
 111              	.LFE119:
ARM GAS  C:\cygwin\tmp\ccuGi8eW.s 			page 3


 112              		.size	halIsCounterWithin, .-halIsCounterWithin
 113 0034 AFF30080 		.section	.text.halPolledDelay,"ax",%progbits
 113      AFF30080 
 113      AFF30080 
 114              		.align	2
 115              		.p2align 4,,15
 116              		.global	halPolledDelay
 117              		.thumb
 118              		.thumb_func
 119              		.type	halPolledDelay, %function
 120              	halPolledDelay:
 121              	.LFB120:
 122              		.loc 1 186 0
 123              		.cfi_startproc
 124              		@ args = 0, pretend = 0, frame = 0
 125              		@ frame_needed = 0, uses_anonymous_args = 0
 126              		@ link register save eliminated.
 127              	.LVL10:
 128              		.loc 1 187 0
 129 0000 4FF48053 		mov	r3, #4096
 130 0004 CEF20003 		movt	r3, 57344
 131              		.loc 1 186 0
 132 0008 10B4     		push	{r4}
 133              	.LCFI1:
 134              		.cfi_def_cfa_offset 4
 135              		.cfi_offset 4, -4
 136              		.loc 1 187 0
 137 000a 5A68     		ldr	r2, [r3, #4]
 138              	.LVL11:
 139              	.LBB4:
 140              	.LBB5:
 141              		.loc 1 168 0
 142 000c 1C46     		mov	r4, r3
 143              	.LBE5:
 144              	.LBE4:
 145              		.loc 1 188 0
 146 000e 8018     		adds	r0, r0, r2
 147              	.LVL12:
 148              	.L10:
 149              	.LBB8:
 150              	.LBB6:
 151              		.loc 1 170 0 discriminator 1
 152 0010 8242     		cmp	r2, r0
 153              		.loc 1 168 0 discriminator 1
 154 0012 6368     		ldr	r3, [r4, #4]
 155              	.LVL13:
 156              		.loc 1 170 0 discriminator 1
 157 0014 0AD2     		bcs	.L8
 158              		.loc 1 170 0 is_stmt 0
 159 0016 9842     		cmp	r0, r3
 160 0018 94BF     		ite	ls
 161 001a 0021     		movls	r1, #0
 162 001c 0121     		movhi	r1, #1
 163 001e 9A42     		cmp	r2, r3
 164 0020 88BF     		it	hi
 165 0022 0021     		movhi	r1, #0
 166              	.LBE6:
ARM GAS  C:\cygwin\tmp\ccuGi8eW.s 			page 4


 167              	.LBE8:
 168              		.loc 1 189 0 is_stmt 1
 169 0024 0029     		cmp	r1, #0
 170 0026 F3D1     		bne	.L10
 171              	.L12:
 172              		.loc 1 191 0
 173 0028 10BC     		pop	{r4}
 174 002a 7047     		bx	lr
 175              	.L8:
 176              	.LBB9:
 177              	.LBB7:
 178              		.loc 1 171 0
 179 002c 9A42     		cmp	r2, r3
 180 002e 8CBF     		ite	hi
 181 0030 0021     		movhi	r1, #0
 182 0032 0121     		movls	r1, #1
 183 0034 9842     		cmp	r0, r3
 184 0036 88BF     		it	hi
 185 0038 41F00101 		orrhi	r1, r1, #1
 186              	.LBE7:
 187              	.LBE9:
 188              		.loc 1 189 0
 189 003c 0029     		cmp	r1, #0
 190 003e E7D1     		bne	.L10
 191 0040 F2E7     		b	.L12
 192              		.cfi_endproc
 193              	.LFE120:
 194              		.size	halPolledDelay, .-halPolledDelay
 195 0042 00BFAFF3 		.text
 195      0080AFF3 
 195      0080AFF3 
 195      0080
 196              	.Letext0:
 197              		.file 2 "c:/develop/gimst/yagarto-20121222/lib/gcc/../../arm-none-eabi/sys-include/stdint.h"
 198              		.file 3 "../../../os/ports/GCC/ARMCMx/chtypes.h"
 199              		.file 4 "../../../os/ports/common/ARMCMx/nvic.h"
 200              		.file 5 "../../../os/hal/platforms/STM32F30x/hal_lld.h"
 201              		.file 6 "../../../os/hal/platforms/STM32/GPIOv2/pal_lld.h"
 202              		.file 7 "../../../os/ports/common/ARMCMx/CMSIS/include/core_cm4.h"
 203              		.file 8 "../../../os/hal/include/tm.h"
 204              		.file 9 "../../../os/hal/include/spi.h"
 205              		.file 10 "../../../boards/ST_STM32F3_DISCOVERY/board.h"