GAS LISTING C:\cygwin\tmp\cc0jAJ1I.s 			page 1


   1              		.file	"chcore.c"
   2              	 # GNU C (GCC) version 4.6.2 (mingw32)
   3              	 #	compiled by GNU C version 4.6.2, GMP version 5.0.1, MPFR version 2.4.1, MPC version 0.8.1
   4              	 # GGC heuristics: --param ggc-min-expand=100 --param ggc-min-heapsize=131072
   5              	 # options passed:  -I . -I ../../os/ports/GCC/SIMIA32
   6              	 # -I ../../os/kernel/include -I ../../test -I ../../os/hal/include
   7              	 # -I ../../os/hal/platforms/Win32 -I ../../boards/simulator
   8              	 # -I ../../os/various -iprefix c:\mingw\bin\../lib/gcc/mingw32/4.6.2/
   9              	 # -MD ../../os/ports/GCC/SIMIA32/chcore.d -MF .dep/chcore.o.d -MP
  10              	 # -MQ ../../os/ports/GCC/SIMIA32/chcore.o -D SIMULATOR
  11              	 # ../../os/ports/GCC/SIMIA32/chcore.c -mtune=i386 -march=i386
  12              	 # -auxbase-strip ../../os/ports/GCC/SIMIA32/chcore.o -ggdb -O0 -Wall
  13              	 # -Wextra -Wstrict-prototypes -fomit-frame-pointer -fprofile-arcs
  14              	 # -ftest-coverage -fverbose-asm
  15              	 # options enabled:  -fasynchronous-unwind-tables -fauto-inc-dec
  16              	 # -fbranch-count-reg -fcommon -fdelete-null-pointer-checks
  17              	 # -fdwarf2-cfi-asm -fearly-inlining -feliminate-unused-debug-types
  18              	 # -ffunction-cse -fgcse-lm -fident -finline-functions-called-once
  19              	 # -fira-share-save-slots -fira-share-spill-slots -fivopts
  20              	 # -fkeep-inline-dllexport -fkeep-static-consts -fleading-underscore
  21              	 # -fmath-errno -fmerge-debug-strings -fmove-loop-invariants
  22              	 # -fomit-frame-pointer -fpeephole -fprefetch-loop-arrays -fprofile-arcs
  23              	 # -freg-struct-return -fsched-critical-path-heuristic
  24              	 # -fsched-dep-count-heuristic -fsched-group-heuristic -fsched-interblock
  25              	 # -fsched-last-insn-heuristic -fsched-rank-heuristic -fsched-spec
  26              	 # -fsched-spec-insn-heuristic -fsched-stalled-insns-dep
  27              	 # -fset-stack-executable -fshow-column -fsigned-zeros
  28              	 # -fsplit-ivs-in-unroller -fstrict-volatile-bitfields -ftest-coverage
  29              	 # -ftrapping-math -ftree-cselim -ftree-forwprop -ftree-loop-if-convert
  30              	 # -ftree-loop-im -ftree-loop-ivcanon -ftree-loop-optimize
  31              	 # -ftree-parallelize-loops= -ftree-phiprop -ftree-pta -ftree-reassoc
  32              	 # -ftree-scev-cprop -ftree-slp-vectorize -ftree-vect-loop-version
  33              	 # -funit-at-a-time -funwind-tables -fvect-cost-model -fverbose-asm
  34              	 # -fzero-initialized-in-bss -m32 -m80387 -m96bit-long-double
  35              	 # -maccumulate-outgoing-args -malign-double -malign-stringops
  36              	 # -mfancy-math-387 -mfp-ret-in-387 -mieee-fp -mno-red-zone -mno-sse4
  37              	 # -mpush-args -msahf -mstack-arg-probe
  38              	
  39              		.text
  40              	Ltext0:
  41              	 # Compiler executable checksum: c20aed7c018482d7b62efcd5dcab2a9d
  42              	
  43              		.def	___dummy;	.scl	3;	.type	32;	.endef
  44              	___dummy:
  45              	LFB9:
  46              		.file 1 "../../os/ports/GCC/SIMIA32/chcore.c"
  47              		.loc 1 37 0
  48              		.cfi_startproc
  49 0000 83EC04   		subl	$4, %esp	 #,
  50              	LCFI0:
  51              		.cfi_def_cfa_offset 8
  52              		.loc 1 37 0
  53 0003 A1280000 		movl	LPBX1+40, %eax	 # *LPBX1, PROF_edge_counter.2
  53      00
  54 0008 8B152C00 		movl	LPBX1+44, %edx	 # *LPBX1, PROF_edge_counter.2
  54      0000
  55 000e 83C001   		addl	$1, %eax	 #, PROF_edge_counter.2
GAS LISTING C:\cygwin\tmp\cc0jAJ1I.s 			page 2


  56 0011 83D200   		adcl	$0, %edx	 #, PROF_edge_counter.2
  57 0014 A3280000 		movl	%eax, LPBX1+40	 # PROF_edge_counter.2, *LPBX1
  57      00
  58 0019 89152C00 		movl	%edx, LPBX1+44	 # PROF_edge_counter.2, *LPBX1
  58      0000
  59              		.loc 1 40 0
  60              	/APP
  61              	 # 40 "../../os/ports/GCC/SIMIA32/chcore.c" 1
  62              		.globl @port_switch@8                          
  63 001f 55       		@port_switch@8:push    %ebp                                   
  64 0020 56       		push    %esi                                   
  65 0021 57       		push    %edi                                   
  66 0022 53       		push    %ebx                                   
  67 0023 89620C   		movl    %esp, 12(%edx)                         
  68 0026 8B610C   		movl    12(%ecx), %esp                         
  69 0029 5B       		pop     %ebx                                   
  70 002a 5F       		pop     %edi                                   
  71 002b 5E       		pop     %esi                                   
  72 002c 5D       		pop     %ebp                                   
  73 002d C3       		ret
  74              	 # 0 "" 2
  75              	/NO_APP
  76 002e A1300000 		movl	LPBX1+48, %eax	 # *LPBX1, PROF_edge_counter.2
  76      00
  77 0033 8B153400 		movl	LPBX1+52, %edx	 # *LPBX1, PROF_edge_counter.2
  77      0000
  78 0039 83C001   		addl	$1, %eax	 #, PROF_edge_counter.2
  79 003c 83D200   		adcl	$0, %edx	 #, PROF_edge_counter.2
  80 003f A3300000 		movl	%eax, LPBX1+48	 # PROF_edge_counter.2, *LPBX1
  80      00
  81 0044 89153400 		movl	%edx, LPBX1+52	 # PROF_edge_counter.2, *LPBX1
  81      0000
  82              		.loc 1 62 0
  83 004a 83C404   		addl	$4, %esp	 #,
  84              	LCFI1:
  85              		.cfi_def_cfa_offset 4
  86 004d C3       		ret
  87              		.cfi_endproc
  88              	LFE9:
  89              		.globl	@port_halt@0
  90              		.def	@port_halt@0;	.scl	2;	.type	32;	.endef
  91              	@port_halt@0:
  92              	LFB10:
  93              		.loc 1 68 0
  94              		.cfi_startproc
  95 004e 83EC1C   		subl	$28, %esp	 #,
  96              	LCFI2:
  97              		.cfi_def_cfa_offset 32
  98              		.loc 1 68 0
  99 0051 A1200000 		movl	LPBX1+32, %eax	 # *LPBX1, PROF_edge_counter.1
  99      00
 100 0056 8B152400 		movl	LPBX1+36, %edx	 # *LPBX1, PROF_edge_counter.1
 100      0000
 101 005c 83C001   		addl	$1, %eax	 #, PROF_edge_counter.1
 102 005f 83D200   		adcl	$0, %edx	 #, PROF_edge_counter.1
 103 0062 A3200000 		movl	%eax, LPBX1+32	 # PROF_edge_counter.1, *LPBX1
 103      00
GAS LISTING C:\cygwin\tmp\cc0jAJ1I.s 			page 3


 104 0067 89152400 		movl	%edx, LPBX1+36	 # PROF_edge_counter.1, *LPBX1
 104      0000
 105              		.loc 1 70 0
 106 006d C7042402 		movl	$2, (%esp)	 #,
 106      000000
 107 0074 E8000000 		call	_exit	 #
 107      00
 108              		.cfi_endproc
 109              	LFE10:
 110              		.globl	__port_thread_start
 111              		.def	__port_thread_start;	.scl	2;	.type	32;	.endef
 112              	__port_thread_start:
 113              	LFB11:
 114              		.loc 1 79 0
 115              		.cfi_startproc
 116 0079 83EC1C   		subl	$28, %esp	 #,
 117              	LCFI3:
 118              		.cfi_def_cfa_offset 32
 119              		.loc 1 79 0
 120 007c A1000000 		movl	LPBX1, %eax	 # *LPBX1, PROF_edge_counter.0
 120      00
 121 0081 8B150400 		movl	LPBX1+4, %edx	 # *LPBX1, PROF_edge_counter.0
 121      0000
 122 0087 83C001   		addl	$1, %eax	 #, PROF_edge_counter.0
 123 008a 83D200   		adcl	$0, %edx	 #, PROF_edge_counter.0
 124 008d A3000000 		movl	%eax, LPBX1	 # PROF_edge_counter.0, *LPBX1
 124      00
 125 0092 89150400 		movl	%edx, LPBX1+4	 # PROF_edge_counter.0, *LPBX1
 125      0000
 126              		.loc 1 81 0
 127              	/APP
 128              	 # 81 "../../os/ports/GCC/SIMIA32/chcore.c" 1
 129 0098 90       		nop
 130              	 # 0 "" 2
 131              	/NO_APP
 132 0099 A1080000 		movl	LPBX1+8, %eax	 # *LPBX1, PROF_edge_counter.0
 132      00
 133 009e 8B150C00 		movl	LPBX1+12, %edx	 # *LPBX1, PROF_edge_counter.0
 133      0000
 134 00a4 83C001   		addl	$1, %eax	 #, PROF_edge_counter.0
 135 00a7 83D200   		adcl	$0, %edx	 #, PROF_edge_counter.0
 136 00aa A3080000 		movl	%eax, LPBX1+8	 # PROF_edge_counter.0, *LPBX1
 136      00
 137 00af 89150C00 		movl	%edx, LPBX1+12	 # PROF_edge_counter.0, *LPBX1
 137      0000
 138              		.loc 1 82 0
 139 00b5 8B442424 		movl	36(%esp), %eax	 # p, tmp68
 140 00b9 890424   		movl	%eax, (%esp)	 # tmp68,
 141 00bc 8B442420 		movl	32(%esp), %eax	 # pf, tmp69
 142 00c0 FFD0     		call	*%eax	 # tmp69
 143 00c2 89C1     		movl	%eax, %ecx	 #, D.36591
 144 00c4 A1100000 		movl	LPBX1+16, %eax	 # *LPBX1, PROF_edge_counter.0
 144      00
 145 00c9 8B151400 		movl	LPBX1+20, %edx	 # *LPBX1, PROF_edge_counter.0
 145      0000
 146 00cf 83C001   		addl	$1, %eax	 #, PROF_edge_counter.0
 147 00d2 83D200   		adcl	$0, %edx	 #, PROF_edge_counter.0
GAS LISTING C:\cygwin\tmp\cc0jAJ1I.s 			page 4


 148 00d5 A3100000 		movl	%eax, LPBX1+16	 # PROF_edge_counter.0, *LPBX1
 148      00
 149 00da 89151400 		movl	%edx, LPBX1+20	 # PROF_edge_counter.0, *LPBX1
 149      0000
 150 00e0 890C24   		movl	%ecx, (%esp)	 # D.36591,
 151 00e3 E8000000 		call	_chThdExit	 #
 151      00
 152              	L4:
 153              		.loc 1 82 0 is_stmt 0 discriminator 1
 154 00e8 A1180000 		movl	LPBX1+24, %eax	 # *LPBX1, PROF_edge_counter.0
 154      00
 155 00ed 8B151C00 		movl	LPBX1+28, %edx	 # *LPBX1, PROF_edge_counter.0
 155      0000
 156 00f3 83C001   		addl	$1, %eax	 #, PROF_edge_counter.0
 157 00f6 83D200   		adcl	$0, %edx	 #, PROF_edge_counter.0
 158 00f9 A3180000 		movl	%eax, LPBX1+24	 # PROF_edge_counter.0, *LPBX1
 158      00
 159 00fe 89151C00 		movl	%edx, LPBX1+28	 # PROF_edge_counter.0, *LPBX1
 159      0000
 160              		.loc 1 83 0 is_stmt 1 discriminator 1
 161 0104 EBE2     		jmp	L4	 #
 162              		.cfi_endproc
 163              	LFE11:
 164              	.lcomm LPBX1,56,32
 165              		.section .rdata,"dr"
 166              		.align 4
 167              	LC0:
 168 0000 433A5C64 		.ascii "C:\\develop\\gyro\\ChibiOS\\test\\coverage/../../os/ports/GCC/SIMIA32/chcore.gcda\0"
 168      6576656C 
 168      6F705C67 
 168      79726F5C 
 168      43686962 
 169 004d 000000   		.data
 170              		.align 32
 171              	LC1:
 172              	 # <anonymous>:
 173 0000 0C000000 		.long	12
 174              	 # <anonymous>:
 175 0004 5CCD8BC7 		.long	-947139236
 176              	 # <anonymous>:
 177 0008 04000000 		.long	4
 178              	 # <anonymous>:
 179 000c 0B000000 		.long	11
 180              	 # <anonymous>:
 181 0010 DC8BBAA8 		.long	-1464169508
 182              	 # <anonymous>:
 183 0014 01000000 		.long	1
 184              	 # <anonymous>:
 185 0018 0A000000 		.long	10
 186              	 # <anonymous>:
 187 001c E68DEFD1 		.long	-772829722
 188              	 # <anonymous>:
 189 0020 02000000 		.long	2
 190 0024 00000000 		.align 32
 190      00000000 
 190      00000000 
 190      00000000 
GAS LISTING C:\cygwin\tmp\cc0jAJ1I.s 			page 5


 190      00000000 
 191              	LPBX0:
 192              	 # <anonymous>:
 193 0040 2A363034 		.long	875574826
 194              	 # <anonymous>:
 195 0044 00000000 		.long	0
 196              	 # <anonymous>:
 197 0048 DD93FA66 		.long	1727697885
 198              	 # <anonymous>:
 199 004c 00000000 		.long	LC0
 200              	 # <anonymous>:
 201 0050 03000000 		.long	3
 202              	 # <anonymous>:
 203 0054 00000000 		.long	LC1
 204              	 # <anonymous>:
 205 0058 01000000 		.long	1
 206              	 # <anonymous>:
 207              	 # <anonymous>:
 208 005c 07000000 		.long	7
 209              	 # <anonymous>:
 210 0060 00000000 		.long	LPBX1
 211              	 # <anonymous>:
 212 0064 00000000 		.long	___gcov_merge_add
 213 0068 00000000 		.space 12
 213      00000000 
 213      00000000 
 214 0074 00000000 		.text
 214      00000000 
 214      00000000 
 215              		.def	__GLOBAL__sub_I_65535_0__port_halt_0;	.scl	3;	.type	32;	.endef
 216              	__GLOBAL__sub_I_65535_0__port_halt_0:
 217              	LFB12:
 218              		.loc 1 84 0
 219              		.cfi_startproc
 220 0106 83EC1C   		subl	$28, %esp	 #,
 221              	LCFI4:
 222              		.cfi_def_cfa_offset 32
 223              		.loc 1 84 0
 224 0109 C7042440 		movl	$LPBX0, (%esp)	 #,
 224      000000
 225 0110 E8000000 		call	___gcov_init	 #
 225      00
 226 0115 83C41C   		addl	$28, %esp	 #,
 227              	LCFI5:
 228              		.cfi_def_cfa_offset 4
 229 0118 C3       		ret
 230              		.cfi_endproc
 231              	LFE12:
 232              		.section	.ctors,"w"
 233              		.align 4
 234 0000 06010000 		.long	__GLOBAL__sub_I_65535_0__port_halt_0
 235              		.text
 236              	Letext0:
 237              		.file 2 "c:/mingw/bin/../lib/gcc/mingw32/4.6.2/../../../../include/stdint.h"
 238              		.file 3 "../../os/ports/GCC/SIMIA32/chtypes.h"
 239              		.file 4 "../../os/kernel/include/chlists.h"
 240              		.file 5 "../../os/kernel/include/chthreads.h"
GAS LISTING C:\cygwin\tmp\cc0jAJ1I.s 			page 6


 241              		.file 6 "../../os/ports/GCC/SIMIA32/chcore.h"
 242              		.file 7 "../../os/kernel/include/chmtx.h"
 243              		.file 8 "c:/mingw/bin/../lib/gcc/mingw32/4.6.2/../../../../include/stdio.h"
 244 0119 909090   		.section	.debug_info,"dr"
 245              	Ldebug_info0:
 246 0000 CF060000 		.long	0x6cf
 247 0004 0200     		.word	0x2
 248 0006 00000000 		.secrel32	Ldebug_abbrev0
 249 000a 04       		.byte	0x4
 250 000b 01       		.uleb128 0x1
 251 000c 474E5520 		.ascii "GNU C 4.6.2\0"
 251      4320342E 
 251      362E3200 
 252 0018 01       		.byte	0x1
 253 0019 2E2E2F2E 		.ascii "../../os/ports/GCC/SIMIA32/chcore.c\0"
 253      2E2F6F73 
 253      2F706F72 
 253      74732F47 
 253      43432F53 
 254 003d 433A5C64 		.ascii "C:\\develop\\gyro\\ChibiOS\\test\\coverage\0"
 254      6576656C 
 254      6F705C67 
 254      79726F5C 
 254      43686962 
 255 0063 00000000 		.long	Ltext0
 256 0067 19010000 		.long	Letext0
 257 006b 00000000 		.secrel32	Ldebug_line0
 258 006f 02       		.uleb128 0x2
 259 0070 04       		.byte	0x4
 260 0071 07       		.byte	0x7
 261 0072 756E7369 		.ascii "unsigned int\0"
 261      676E6564 
 261      20696E74 
 261      00
 262 007f 02       		.uleb128 0x2
 263 0080 02       		.byte	0x2
 264 0081 07       		.byte	0x7
 265 0082 73686F72 		.ascii "short unsigned int\0"
 265      7420756E 
 265      7369676E 
 265      65642069 
 265      6E7400
 266 0095 02       		.uleb128 0x2
 267 0096 04       		.byte	0x4
 268 0097 05       		.byte	0x5
 269 0098 696E7400 		.ascii "int\0"
 270 009c 02       		.uleb128 0x2
 271 009d 04       		.byte	0x4
 272 009e 05       		.byte	0x5
 273 009f 6C6F6E67 		.ascii "long int\0"
 273      20696E74 
 273      00
 274 00a8 02       		.uleb128 0x2
 275 00a9 08       		.byte	0x8
 276 00aa 05       		.byte	0x5
 277 00ab 6C6F6E67 		.ascii "long long int\0"
 277      206C6F6E 
GAS LISTING C:\cygwin\tmp\cc0jAJ1I.s 			page 7


 277      6720696E 
 277      7400
 278 00b9 02       		.uleb128 0x2
 279 00ba 01       		.byte	0x1
 280 00bb 06       		.byte	0x6
 281 00bc 7369676E 		.ascii "signed char\0"
 281      65642063 
 281      68617200 
 282 00c8 03       		.uleb128 0x3
 283 00c9 75696E74 		.ascii "uint8_t\0"
 283      385F7400 
 284 00d1 02       		.byte	0x2
 285 00d2 1C       		.byte	0x1c
 286 00d3 D7000000 		.long	0xd7
 287 00d7 02       		.uleb128 0x2
 288 00d8 01       		.byte	0x1
 289 00d9 08       		.byte	0x8
 290 00da 756E7369 		.ascii "unsigned char\0"
 290      676E6564 
 290      20636861 
 290      7200
 291 00e8 02       		.uleb128 0x2
 292 00e9 02       		.byte	0x2
 293 00ea 05       		.byte	0x5
 294 00eb 73686F72 		.ascii "short int\0"
 294      7420696E 
 294      7400
 295 00f5 03       		.uleb128 0x3
 296 00f6 696E7433 		.ascii "int32_t\0"
 296      325F7400 
 297 00fe 02       		.byte	0x2
 298 00ff 1F       		.byte	0x1f
 299 0100 95000000 		.long	0x95
 300 0104 03       		.uleb128 0x3
 301 0105 75696E74 		.ascii "uint32_t\0"
 301      33325F74 
 301      00
 302 010e 02       		.byte	0x2
 303 010f 20       		.byte	0x20
 304 0110 6F000000 		.long	0x6f
 305 0114 02       		.uleb128 0x2
 306 0115 08       		.byte	0x8
 307 0116 07       		.byte	0x7
 308 0117 6C6F6E67 		.ascii "long long unsigned int\0"
 308      206C6F6E 
 308      6720756E 
 308      7369676E 
 308      65642069 
 309 012e 02       		.uleb128 0x2
 310 012f 01       		.byte	0x1
 311 0130 02       		.byte	0x2
 312 0131 5F426F6F 		.ascii "_Bool\0"
 312      6C00
 313 0137 03       		.uleb128 0x3
 314 0138 746D6F64 		.ascii "tmode_t\0"
 314      655F7400 
 315 0140 03       		.byte	0x3
GAS LISTING C:\cygwin\tmp\cc0jAJ1I.s 			page 8


 316 0141 1D       		.byte	0x1d
 317 0142 C8000000 		.long	0xc8
 318 0146 03       		.uleb128 0x3
 319 0147 74737461 		.ascii "tstate_t\0"
 319      74655F74 
 319      00
 320 0150 03       		.byte	0x3
 321 0151 1E       		.byte	0x1e
 322 0152 C8000000 		.long	0xc8
 323 0156 03       		.uleb128 0x3
 324 0157 74726566 		.ascii "trefs_t\0"
 324      735F7400 
 325 015f 03       		.byte	0x3
 326 0160 1F       		.byte	0x1f
 327 0161 C8000000 		.long	0xc8
 328 0165 03       		.uleb128 0x3
 329 0166 74736C69 		.ascii "tslices_t\0"
 329      6365735F 
 329      7400
 330 0170 03       		.byte	0x3
 331 0171 20       		.byte	0x20
 332 0172 C8000000 		.long	0xc8
 333 0176 03       		.uleb128 0x3
 334 0177 74707269 		.ascii "tprio_t\0"
 334      6F5F7400 
 335 017f 03       		.byte	0x3
 336 0180 21       		.byte	0x21
 337 0181 04010000 		.long	0x104
 338 0185 03       		.uleb128 0x3
 339 0186 6D73675F 		.ascii "msg_t\0"
 339      7400
 340 018c 03       		.byte	0x3
 341 018d 22       		.byte	0x22
 342 018e F5000000 		.long	0xf5
 343 0192 03       		.uleb128 0x3
 344 0193 6576656E 		.ascii "eventmask_t\0"
 344      746D6173 
 344      6B5F7400 
 345 019f 03       		.byte	0x3
 346 01a0 24       		.byte	0x24
 347 01a1 04010000 		.long	0x104
 348 01a5 03       		.uleb128 0x3
 349 01a6 73797374 		.ascii "systime_t\0"
 349      696D655F 
 349      7400
 350 01b0 03       		.byte	0x3
 351 01b1 26       		.byte	0x26
 352 01b2 04010000 		.long	0x104
 353 01b6 03       		.uleb128 0x3
 354 01b7 54687265 		.ascii "Thread\0"
 354      616400
 355 01be 04       		.byte	0x4
 356 01bf 23       		.byte	0x23
 357 01c0 C4010000 		.long	0x1c4
 358 01c4 04       		.uleb128 0x4
 359 01c5 54687265 		.ascii "Thread\0"
 359      616400
GAS LISTING C:\cygwin\tmp\cc0jAJ1I.s 			page 9


 360 01cc 48       		.byte	0x48
 361 01cd 05       		.byte	0x5
 362 01ce 57       		.byte	0x57
 363 01cf 3A030000 		.long	0x33a
 364 01d3 05       		.uleb128 0x5
 365 01d4 00000000 		.secrel32	LASF0
 366 01d8 05       		.byte	0x5
 367 01d9 58       		.byte	0x58
 368 01da 62030000 		.long	0x362
 369 01de 02       		.byte	0x2
 370 01df 23       		.byte	0x23
 371 01e0 00       		.uleb128 0
 372 01e1 06       		.uleb128 0x6
 373 01e2 705F7072 		.ascii "p_prev\0"
 373      657600
 374 01e9 05       		.byte	0x5
 375 01ea 5A       		.byte	0x5a
 376 01eb 62030000 		.long	0x362
 377 01ef 02       		.byte	0x2
 378 01f0 23       		.byte	0x23
 379 01f1 04       		.uleb128 0x4
 380 01f2 06       		.uleb128 0x6
 381 01f3 705F7072 		.ascii "p_prio\0"
 381      696F00
 382 01fa 05       		.byte	0x5
 383 01fb 5C       		.byte	0x5c
 384 01fc 76010000 		.long	0x176
 385 0200 02       		.byte	0x2
 386 0201 23       		.byte	0x23
 387 0202 08       		.uleb128 0x8
 388 0203 06       		.uleb128 0x6
 389 0204 705F6374 		.ascii "p_ctx\0"
 389      7800
 390 020a 05       		.byte	0x5
 391 020b 5D       		.byte	0x5d
 392 020c 0C040000 		.long	0x40c
 393 0210 02       		.byte	0x2
 394 0211 23       		.byte	0x23
 395 0212 0C       		.uleb128 0xc
 396 0213 06       		.uleb128 0x6
 397 0214 705F6E65 		.ascii "p_newer\0"
 397      77657200 
 398 021c 05       		.byte	0x5
 399 021d 5F       		.byte	0x5f
 400 021e 62030000 		.long	0x362
 401 0222 02       		.byte	0x2
 402 0223 23       		.byte	0x23
 403 0224 10       		.uleb128 0x10
 404 0225 06       		.uleb128 0x6
 405 0226 705F6F6C 		.ascii "p_older\0"
 405      64657200 
 406 022e 05       		.byte	0x5
 407 022f 60       		.byte	0x60
 408 0230 62030000 		.long	0x362
 409 0234 02       		.byte	0x2
 410 0235 23       		.byte	0x23
 411 0236 14       		.uleb128 0x14
GAS LISTING C:\cygwin\tmp\cc0jAJ1I.s 			page 10


 412 0237 06       		.uleb128 0x6
 413 0238 705F6E61 		.ascii "p_name\0"
 413      6D6500
 414 023f 05       		.byte	0x5
 415 0240 67       		.byte	0x67
 416 0241 D5040000 		.long	0x4d5
 417 0245 02       		.byte	0x2
 418 0246 23       		.byte	0x23
 419 0247 18       		.uleb128 0x18
 420 0248 06       		.uleb128 0x6
 421 0249 705F7374 		.ascii "p_state\0"
 421      61746500 
 422 0251 05       		.byte	0x5
 423 0252 72       		.byte	0x72
 424 0253 46010000 		.long	0x146
 425 0257 02       		.byte	0x2
 426 0258 23       		.byte	0x23
 427 0259 1C       		.uleb128 0x1c
 428 025a 06       		.uleb128 0x6
 429 025b 705F666C 		.ascii "p_flags\0"
 429      61677300 
 430 0263 05       		.byte	0x5
 431 0264 76       		.byte	0x76
 432 0265 37010000 		.long	0x137
 433 0269 02       		.byte	0x2
 434 026a 23       		.byte	0x23
 435 026b 1D       		.uleb128 0x1d
 436 026c 06       		.uleb128 0x6
 437 026d 705F7265 		.ascii "p_refs\0"
 437      667300
 438 0274 05       		.byte	0x5
 439 0275 7B       		.byte	0x7b
 440 0276 56010000 		.long	0x156
 441 027a 02       		.byte	0x2
 442 027b 23       		.byte	0x23
 443 027c 1E       		.uleb128 0x1e
 444 027d 06       		.uleb128 0x6
 445 027e 705F7072 		.ascii "p_preempt\0"
 445      65656D70 
 445      7400
 446 0288 05       		.byte	0x5
 447 0289 81       		.byte	0x81
 448 028a 65010000 		.long	0x165
 449 028e 02       		.byte	0x2
 450 028f 23       		.byte	0x23
 451 0290 1F       		.uleb128 0x1f
 452 0291 06       		.uleb128 0x6
 453 0292 705F7469 		.ascii "p_time\0"
 453      6D6500
 454 0299 05       		.byte	0x5
 455 029a 88       		.byte	0x88
 456 029b 36040000 		.long	0x436
 457 029f 02       		.byte	0x2
 458 02a0 23       		.byte	0x23
 459 02a1 20       		.uleb128 0x20
 460 02a2 06       		.uleb128 0x6
 461 02a3 705F7500 		.ascii "p_u\0"
GAS LISTING C:\cygwin\tmp\cc0jAJ1I.s 			page 11


 462 02a7 05       		.byte	0x5
 463 02a8 AD       		.byte	0xad
 464 02a9 92040000 		.long	0x492
 465 02ad 02       		.byte	0x2
 466 02ae 23       		.byte	0x23
 467 02af 24       		.uleb128 0x24
 468 02b0 06       		.uleb128 0x6
 469 02b1 705F7761 		.ascii "p_waiting\0"
 469      6974696E 
 469      6700
 470 02bb 05       		.byte	0x5
 471 02bc B2       		.byte	0xb2
 472 02bd 93030000 		.long	0x393
 473 02c1 02       		.byte	0x2
 474 02c2 23       		.byte	0x23
 475 02c3 28       		.uleb128 0x28
 476 02c4 06       		.uleb128 0x6
 477 02c5 705F6D73 		.ascii "p_msgqueue\0"
 477      67717565 
 477      756500
 478 02d0 05       		.byte	0x5
 479 02d1 B8       		.byte	0xb8
 480 02d2 68030000 		.long	0x368
 481 02d6 02       		.byte	0x2
 482 02d7 23       		.byte	0x23
 483 02d8 2C       		.uleb128 0x2c
 484 02d9 06       		.uleb128 0x6
 485 02da 705F6D73 		.ascii "p_msg\0"
 485      6700
 486 02e0 05       		.byte	0x5
 487 02e1 BC       		.byte	0xbc
 488 02e2 85010000 		.long	0x185
 489 02e6 02       		.byte	0x2
 490 02e7 23       		.byte	0x23
 491 02e8 34       		.uleb128 0x34
 492 02e9 06       		.uleb128 0x6
 493 02ea 705F6570 		.ascii "p_epending\0"
 493      656E6469 
 493      6E6700
 494 02f5 05       		.byte	0x5
 495 02f6 C2       		.byte	0xc2
 496 02f7 92010000 		.long	0x192
 497 02fb 02       		.byte	0x2
 498 02fc 23       		.byte	0x23
 499 02fd 38       		.uleb128 0x38
 500 02fe 06       		.uleb128 0x6
 501 02ff 705F6D74 		.ascii "p_mtxlist\0"
 501      786C6973 
 501      7400
 502 0309 05       		.byte	0x5
 503 030a C9       		.byte	0xc9
 504 030b E8040000 		.long	0x4e8
 505 030f 02       		.byte	0x2
 506 0310 23       		.byte	0x23
 507 0311 3C       		.uleb128 0x3c
 508 0312 06       		.uleb128 0x6
 509 0313 705F7265 		.ascii "p_realprio\0"
GAS LISTING C:\cygwin\tmp\cc0jAJ1I.s 			page 12


 509      616C7072 
 509      696F00
 510 031e 05       		.byte	0x5
 511 031f CD       		.byte	0xcd
 512 0320 76010000 		.long	0x176
 513 0324 02       		.byte	0x2
 514 0325 23       		.byte	0x23
 515 0326 40       		.uleb128 0x40
 516 0327 06       		.uleb128 0x6
 517 0328 705F6D70 		.ascii "p_mpool\0"
 517      6F6F6C00 
 518 0330 05       		.byte	0x5
 519 0331 D3       		.byte	0xd3
 520 0332 B4030000 		.long	0x3b4
 521 0336 02       		.byte	0x2
 522 0337 23       		.byte	0x23
 523 0338 44       		.uleb128 0x44
 524 0339 00       		.byte	0
 525 033a 07       		.uleb128 0x7
 526 033b 08       		.byte	0x8
 527 033c 04       		.byte	0x4
 528 033d 5A       		.byte	0x5a
 529 033e 62030000 		.long	0x362
 530 0342 05       		.uleb128 0x5
 531 0343 00000000 		.secrel32	LASF0
 532 0347 04       		.byte	0x4
 533 0348 5B       		.byte	0x5b
 534 0349 62030000 		.long	0x362
 535 034d 02       		.byte	0x2
 536 034e 23       		.byte	0x23
 537 034f 00       		.uleb128 0
 538 0350 06       		.uleb128 0x6
 539 0351 705F7072 		.ascii "p_prev\0"
 539      657600
 540 0358 04       		.byte	0x4
 541 0359 5D       		.byte	0x5d
 542 035a 62030000 		.long	0x362
 543 035e 02       		.byte	0x2
 544 035f 23       		.byte	0x23
 545 0360 04       		.uleb128 0x4
 546 0361 00       		.byte	0
 547 0362 08       		.uleb128 0x8
 548 0363 04       		.byte	0x4
 549 0364 B6010000 		.long	0x1b6
 550 0368 03       		.uleb128 0x3
 551 0369 54687265 		.ascii "ThreadsQueue\0"
 551      61647351 
 551      75657565 
 551      00
 552 0376 04       		.byte	0x4
 553 0377 5F       		.byte	0x5f
 554 0378 3A030000 		.long	0x33a
 555 037c 07       		.uleb128 0x7
 556 037d 04       		.byte	0x4
 557 037e 04       		.byte	0x4
 558 037f 64       		.byte	0x64
 559 0380 93030000 		.long	0x393
GAS LISTING C:\cygwin\tmp\cc0jAJ1I.s 			page 13


 560 0384 05       		.uleb128 0x5
 561 0385 00000000 		.secrel32	LASF0
 562 0389 04       		.byte	0x4
 563 038a 66       		.byte	0x66
 564 038b 62030000 		.long	0x362
 565 038f 02       		.byte	0x2
 566 0390 23       		.byte	0x23
 567 0391 00       		.uleb128 0
 568 0392 00       		.byte	0
 569 0393 03       		.uleb128 0x3
 570 0394 54687265 		.ascii "ThreadsList\0"
 570      6164734C 
 570      69737400 
 571 03a0 04       		.byte	0x4
 572 03a1 69       		.byte	0x69
 573 03a2 7C030000 		.long	0x37c
 574 03a6 03       		.uleb128 0x3
 575 03a7 72656778 		.ascii "regx86\0"
 575      383600
 576 03ae 06       		.byte	0x6
 577 03af 44       		.byte	0x44
 578 03b0 B4030000 		.long	0x3b4
 579 03b4 09       		.uleb128 0x9
 580 03b5 04       		.byte	0x4
 581 03b6 04       		.uleb128 0x4
 582 03b7 696E7463 		.ascii "intctx\0"
 582      747800
 583 03be 14       		.byte	0x14
 584 03bf 06       		.byte	0x6
 585 03c0 52       		.byte	0x52
 586 03c1 0C040000 		.long	0x40c
 587 03c5 06       		.uleb128 0x6
 588 03c6 65627800 		.ascii "ebx\0"
 589 03ca 06       		.byte	0x6
 590 03cb 53       		.byte	0x53
 591 03cc A6030000 		.long	0x3a6
 592 03d0 02       		.byte	0x2
 593 03d1 23       		.byte	0x23
 594 03d2 00       		.uleb128 0
 595 03d3 06       		.uleb128 0x6
 596 03d4 65646900 		.ascii "edi\0"
 597 03d8 06       		.byte	0x6
 598 03d9 54       		.byte	0x54
 599 03da A6030000 		.long	0x3a6
 600 03de 02       		.byte	0x2
 601 03df 23       		.byte	0x23
 602 03e0 04       		.uleb128 0x4
 603 03e1 06       		.uleb128 0x6
 604 03e2 65736900 		.ascii "esi\0"
 605 03e6 06       		.byte	0x6
 606 03e7 55       		.byte	0x55
 607 03e8 A6030000 		.long	0x3a6
 608 03ec 02       		.byte	0x2
 609 03ed 23       		.byte	0x23
 610 03ee 08       		.uleb128 0x8
 611 03ef 06       		.uleb128 0x6
 612 03f0 65627000 		.ascii "ebp\0"
GAS LISTING C:\cygwin\tmp\cc0jAJ1I.s 			page 14


 613 03f4 06       		.byte	0x6
 614 03f5 56       		.byte	0x56
 615 03f6 A6030000 		.long	0x3a6
 616 03fa 02       		.byte	0x2
 617 03fb 23       		.byte	0x23
 618 03fc 0C       		.uleb128 0xc
 619 03fd 06       		.uleb128 0x6
 620 03fe 65697000 		.ascii "eip\0"
 621 0402 06       		.byte	0x6
 622 0403 57       		.byte	0x57
 623 0404 A6030000 		.long	0x3a6
 624 0408 02       		.byte	0x2
 625 0409 23       		.byte	0x23
 626 040a 10       		.uleb128 0x10
 627 040b 00       		.byte	0
 628 040c 04       		.uleb128 0x4
 629 040d 636F6E74 		.ascii "context\0"
 629      65787400 
 630 0415 04       		.byte	0x4
 631 0416 06       		.byte	0x6
 632 0417 5F       		.byte	0x5f
 633 0418 2B040000 		.long	0x42b
 634 041c 06       		.uleb128 0x6
 635 041d 65737000 		.ascii "esp\0"
 636 0421 06       		.byte	0x6
 637 0422 60       		.byte	0x60
 638 0423 2B040000 		.long	0x42b
 639 0427 02       		.byte	0x2
 640 0428 23       		.byte	0x23
 641 0429 00       		.uleb128 0
 642 042a 00       		.byte	0
 643 042b 08       		.uleb128 0x8
 644 042c 04       		.byte	0x4
 645 042d 31040000 		.long	0x431
 646 0431 0A       		.uleb128 0xa
 647 0432 B6030000 		.long	0x3b6
 648 0436 0A       		.uleb128 0xa
 649 0437 A5010000 		.long	0x1a5
 650 043b 04       		.uleb128 0x4
 651 043c 4D757465 		.ascii "Mutex\0"
 651      7800
 652 0442 10       		.byte	0x10
 653 0443 07       		.byte	0x7
 654 0444 25       		.byte	0x25
 655 0445 7F040000 		.long	0x47f
 656 0449 06       		.uleb128 0x6
 657 044a 6D5F7175 		.ascii "m_queue\0"
 657      65756500 
 658 0452 07       		.byte	0x7
 659 0453 26       		.byte	0x26
 660 0454 68030000 		.long	0x368
 661 0458 02       		.byte	0x2
 662 0459 23       		.byte	0x23
 663 045a 00       		.uleb128 0
 664 045b 06       		.uleb128 0x6
 665 045c 6D5F6F77 		.ascii "m_owner\0"
 665      6E657200 
GAS LISTING C:\cygwin\tmp\cc0jAJ1I.s 			page 15


 666 0464 07       		.byte	0x7
 667 0465 28       		.byte	0x28
 668 0466 62030000 		.long	0x362
 669 046a 02       		.byte	0x2
 670 046b 23       		.byte	0x23
 671 046c 08       		.uleb128 0x8
 672 046d 06       		.uleb128 0x6
 673 046e 6D5F6E65 		.ascii "m_next\0"
 673      787400
 674 0475 07       		.byte	0x7
 675 0476 2A       		.byte	0x2a
 676 0477 7F040000 		.long	0x47f
 677 047b 02       		.byte	0x2
 678 047c 23       		.byte	0x23
 679 047d 0C       		.uleb128 0xc
 680 047e 00       		.byte	0
 681 047f 08       		.uleb128 0x8
 682 0480 04       		.byte	0x4
 683 0481 3B040000 		.long	0x43b
 684 0485 03       		.uleb128 0x3
 685 0486 4D757465 		.ascii "Mutex\0"
 685      7800
 686 048c 07       		.byte	0x7
 687 048d 2C       		.byte	0x2c
 688 048e 3B040000 		.long	0x43b
 689 0492 0B       		.uleb128 0xb
 690 0493 04       		.byte	0x4
 691 0494 05       		.byte	0x5
 692 0495 8F       		.byte	0x8f
 693 0496 D5040000 		.long	0x4d5
 694 049a 0C       		.uleb128 0xc
 695 049b 7264796D 		.ascii "rdymsg\0"
 695      736700
 696 04a2 05       		.byte	0x5
 697 04a3 96       		.byte	0x96
 698 04a4 85010000 		.long	0x185
 699 04a8 0C       		.uleb128 0xc
 700 04a9 65786974 		.ascii "exitcode\0"
 700      636F6465 
 700      00
 701 04b2 05       		.byte	0x5
 702 04b3 9D       		.byte	0x9d
 703 04b4 85010000 		.long	0x185
 704 04b8 0C       		.uleb128 0xc
 705 04b9 77746F62 		.ascii "wtobjp\0"
 705      6A7000
 706 04c0 05       		.byte	0x5
 707 04c1 A4       		.byte	0xa4
 708 04c2 B4030000 		.long	0x3b4
 709 04c6 0C       		.uleb128 0xc
 710 04c7 65776D61 		.ascii "ewmask\0"
 710      736B00
 711 04ce 05       		.byte	0x5
 712 04cf AB       		.byte	0xab
 713 04d0 92010000 		.long	0x192
 714 04d4 00       		.byte	0
 715 04d5 08       		.uleb128 0x8
GAS LISTING C:\cygwin\tmp\cc0jAJ1I.s 			page 16


 716 04d6 04       		.byte	0x4
 717 04d7 DB040000 		.long	0x4db
 718 04db 0D       		.uleb128 0xd
 719 04dc E0040000 		.long	0x4e0
 720 04e0 02       		.uleb128 0x2
 721 04e1 01       		.byte	0x1
 722 04e2 06       		.byte	0x6
 723 04e3 63686172 		.ascii "char\0"
 723      00
 724 04e8 08       		.uleb128 0x8
 725 04e9 04       		.byte	0x4
 726 04ea 85040000 		.long	0x485
 727 04ee 08       		.uleb128 0x8
 728 04ef 04       		.byte	0x4
 729 04f0 F4040000 		.long	0x4f4
 730 04f4 0E       		.uleb128 0xe
 731 04f5 01       		.byte	0x1
 732 04f6 85010000 		.long	0x185
 733 04fa 04050000 		.long	0x504
 734 04fe 0F       		.uleb128 0xf
 735 04ff B4030000 		.long	0x3b4
 736 0503 00       		.byte	0
 737 0504 02       		.uleb128 0x2
 738 0505 04       		.byte	0x4
 739 0506 07       		.byte	0x7
 740 0507 6C6F6E67 		.ascii "long unsigned int\0"
 740      20756E73 
 740      69676E65 
 740      6420696E 
 740      7400
 741 0519 02       		.uleb128 0x2
 742 051a 04       		.byte	0x4
 743 051b 04       		.byte	0x4
 744 051c 666C6F61 		.ascii "float\0"
 744      7400
 745 0522 08       		.uleb128 0x8
 746 0523 04       		.byte	0x4
 747 0524 E0040000 		.long	0x4e0
 748 0528 02       		.uleb128 0x2
 749 0529 08       		.byte	0x8
 750 052a 04       		.byte	0x4
 751 052b 646F7562 		.ascii "double\0"
 751      6C6500
 752 0532 04       		.uleb128 0x4
 753 0533 5F696F62 		.ascii "_iobuf\0"
 753      756600
 754 053a 20       		.byte	0x20
 755 053b 08       		.byte	0x8
 756 053c 81       		.byte	0x81
 757 053d C9050000 		.long	0x5c9
 758 0541 06       		.uleb128 0x6
 759 0542 5F707472 		.ascii "_ptr\0"
 759      00
 760 0547 08       		.byte	0x8
 761 0548 83       		.byte	0x83
 762 0549 22050000 		.long	0x522
 763 054d 02       		.byte	0x2
GAS LISTING C:\cygwin\tmp\cc0jAJ1I.s 			page 17


 764 054e 23       		.byte	0x23
 765 054f 00       		.uleb128 0
 766 0550 06       		.uleb128 0x6
 767 0551 5F636E74 		.ascii "_cnt\0"
 767      00
 768 0556 08       		.byte	0x8
 769 0557 84       		.byte	0x84
 770 0558 95000000 		.long	0x95
 771 055c 02       		.byte	0x2
 772 055d 23       		.byte	0x23
 773 055e 04       		.uleb128 0x4
 774 055f 06       		.uleb128 0x6
 775 0560 5F626173 		.ascii "_base\0"
 775      6500
 776 0566 08       		.byte	0x8
 777 0567 85       		.byte	0x85
 778 0568 22050000 		.long	0x522
 779 056c 02       		.byte	0x2
 780 056d 23       		.byte	0x23
 781 056e 08       		.uleb128 0x8
 782 056f 06       		.uleb128 0x6
 783 0570 5F666C61 		.ascii "_flag\0"
 783      6700
 784 0576 08       		.byte	0x8
 785 0577 86       		.byte	0x86
 786 0578 95000000 		.long	0x95
 787 057c 02       		.byte	0x2
 788 057d 23       		.byte	0x23
 789 057e 0C       		.uleb128 0xc
 790 057f 06       		.uleb128 0x6
 791 0580 5F66696C 		.ascii "_file\0"
 791      6500
 792 0586 08       		.byte	0x8
 793 0587 87       		.byte	0x87
 794 0588 95000000 		.long	0x95
 795 058c 02       		.byte	0x2
 796 058d 23       		.byte	0x23
 797 058e 10       		.uleb128 0x10
 798 058f 06       		.uleb128 0x6
 799 0590 5F636861 		.ascii "_charbuf\0"
 799      72627566 
 799      00
 800 0599 08       		.byte	0x8
 801 059a 88       		.byte	0x88
 802 059b 95000000 		.long	0x95
 803 059f 02       		.byte	0x2
 804 05a0 23       		.byte	0x23
 805 05a1 14       		.uleb128 0x14
 806 05a2 06       		.uleb128 0x6
 807 05a3 5F627566 		.ascii "_bufsiz\0"
 807      73697A00 
 808 05ab 08       		.byte	0x8
 809 05ac 89       		.byte	0x89
 810 05ad 95000000 		.long	0x95
 811 05b1 02       		.byte	0x2
 812 05b2 23       		.byte	0x23
 813 05b3 18       		.uleb128 0x18
GAS LISTING C:\cygwin\tmp\cc0jAJ1I.s 			page 18


 814 05b4 06       		.uleb128 0x6
 815 05b5 5F746D70 		.ascii "_tmpfname\0"
 815      666E616D 
 815      6500
 816 05bf 08       		.byte	0x8
 817 05c0 8A       		.byte	0x8a
 818 05c1 22050000 		.long	0x522
 819 05c5 02       		.byte	0x2
 820 05c6 23       		.byte	0x23
 821 05c7 1C       		.uleb128 0x1c
 822 05c8 00       		.byte	0
 823 05c9 03       		.uleb128 0x3
 824 05ca 46494C45 		.ascii "FILE\0"
 824      00
 825 05cf 08       		.byte	0x8
 826 05d0 8B       		.byte	0x8b
 827 05d1 32050000 		.long	0x532
 828 05d5 10       		.uleb128 0x10
 829 05d6 5F5F6475 		.ascii "__dummy\0"
 829      6D6D7900 
 830 05de 01       		.byte	0x1
 831 05df 25       		.byte	0x25
 832 05e0 01       		.byte	0x1
 833 05e1 00000000 		.long	LFB9
 834 05e5 4E000000 		.long	LFE9
 835 05e9 00000000 		.secrel32	LLST0
 836 05ed 0E060000 		.long	0x60e
 837 05f1 11       		.uleb128 0x11
 838 05f2 6E747000 		.ascii "ntp\0"
 839 05f6 01       		.byte	0x1
 840 05f7 25       		.byte	0x25
 841 05f8 62030000 		.long	0x362
 842 05fc 02       		.byte	0x2
 843 05fd 91       		.byte	0x91
 844 05fe 00       		.sleb128 0
 845 05ff 11       		.uleb128 0x11
 846 0600 6F747000 		.ascii "otp\0"
 847 0604 01       		.byte	0x1
 848 0605 25       		.byte	0x25
 849 0606 62030000 		.long	0x362
 850 060a 02       		.byte	0x2
 851 060b 91       		.byte	0x91
 852 060c 04       		.sleb128 4
 853 060d 00       		.byte	0
 854 060e 12       		.uleb128 0x12
 855 060f 01       		.byte	0x1
 856 0610 706F7274 		.ascii "port_halt\0"
 856      5F68616C 
 856      7400
 857 061a 01       		.byte	0x1
 858 061b 44       		.byte	0x44
 859 061c 40706F72 		.ascii "@port_halt@0\0"
 859      745F6861 
 859      6C744030 
 859      00
 860 0629 01       		.byte	0x1
 861 062a 4E000000 		.long	LFB10
GAS LISTING C:\cygwin\tmp\cc0jAJ1I.s 			page 19


 862 062e 79000000 		.long	LFE10
 863 0632 2C000000 		.secrel32	LLST1
 864 0636 13       		.uleb128 0x13
 865 0637 01       		.byte	0x1
 866 0638 5F706F72 		.ascii "_port_thread_start\0"
 866      745F7468 
 866      72656164 
 866      5F737461 
 866      727400
 867 064b 01       		.byte	0x1
 868 064c 4F       		.byte	0x4f
 869 064d 01       		.byte	0x1
 870 064e 79000000 		.long	LFB11
 871 0652 06010000 		.long	LFE11
 872 0656 4C000000 		.secrel32	LLST2
 873 065a 78060000 		.long	0x678
 874 065e 11       		.uleb128 0x11
 875 065f 706600   		.ascii "pf\0"
 876 0662 01       		.byte	0x1
 877 0663 4F       		.byte	0x4f
 878 0664 EE040000 		.long	0x4ee
 879 0668 02       		.byte	0x2
 880 0669 91       		.byte	0x91
 881 066a 00       		.sleb128 0
 882 066b 11       		.uleb128 0x11
 883 066c 7000     		.ascii "p\0"
 884 066e 01       		.byte	0x1
 885 066f 4F       		.byte	0x4f
 886 0670 B4030000 		.long	0x3b4
 887 0674 02       		.byte	0x2
 888 0675 91       		.byte	0x91
 889 0676 04       		.sleb128 4
 890 0677 00       		.byte	0
 891 0678 14       		.uleb128 0x14
 892 0679 5F474C4F 		.ascii "_GLOBAL__sub_I_65535_0__port_halt_0\0"
 892      42414C5F 
 892      5F737562 
 892      5F495F36 
 892      35353335 
 893 069d 01       		.byte	0x1
 894 069e 01       		.byte	0x1
 895 069f 06010000 		.long	LFB12
 896 06a3 19010000 		.long	LFE12
 897 06a7 6C000000 		.secrel32	LLST3
 898 06ab 15       		.uleb128 0x15
 899 06ac C9050000 		.long	0x5c9
 900 06b0 B6060000 		.long	0x6b6
 901 06b4 16       		.uleb128 0x16
 902 06b5 00       		.byte	0
 903 06b6 17       		.uleb128 0x17
 904 06b7 5F696F62 		.ascii "_iob\0"
 904      00
 905 06bc 08       		.byte	0x8
 906 06bd 9A       		.byte	0x9a
 907 06be AB060000 		.long	0x6ab
 908 06c2 01       		.byte	0x1
 909 06c3 01       		.byte	0x1
GAS LISTING C:\cygwin\tmp\cc0jAJ1I.s 			page 20


 910 06c4 17       		.uleb128 0x17
 911 06c5 5F696F62 		.ascii "_iob\0"
 911      00
 912 06ca 08       		.byte	0x8
 913 06cb 9A       		.byte	0x9a
 914 06cc AB060000 		.long	0x6ab
 915 06d0 01       		.byte	0x1
 916 06d1 01       		.byte	0x1
 917 06d2 00       		.byte	0
 918              		.section	.debug_abbrev,"dr"
 919              	Ldebug_abbrev0:
 920 0000 01       		.uleb128 0x1
 921 0001 11       		.uleb128 0x11
 922 0002 01       		.byte	0x1
 923 0003 25       		.uleb128 0x25
 924 0004 08       		.uleb128 0x8
 925 0005 13       		.uleb128 0x13
 926 0006 0B       		.uleb128 0xb
 927 0007 03       		.uleb128 0x3
 928 0008 08       		.uleb128 0x8
 929 0009 1B       		.uleb128 0x1b
 930 000a 08       		.uleb128 0x8
 931 000b 11       		.uleb128 0x11
 932 000c 01       		.uleb128 0x1
 933 000d 12       		.uleb128 0x12
 934 000e 01       		.uleb128 0x1
 935 000f 10       		.uleb128 0x10
 936 0010 06       		.uleb128 0x6
 937 0011 00       		.byte	0
 938 0012 00       		.byte	0
 939 0013 02       		.uleb128 0x2
 940 0014 24       		.uleb128 0x24
 941 0015 00       		.byte	0
 942 0016 0B       		.uleb128 0xb
 943 0017 0B       		.uleb128 0xb
 944 0018 3E       		.uleb128 0x3e
 945 0019 0B       		.uleb128 0xb
 946 001a 03       		.uleb128 0x3
 947 001b 08       		.uleb128 0x8
 948 001c 00       		.byte	0
 949 001d 00       		.byte	0
 950 001e 03       		.uleb128 0x3
 951 001f 16       		.uleb128 0x16
 952 0020 00       		.byte	0
 953 0021 03       		.uleb128 0x3
 954 0022 08       		.uleb128 0x8
 955 0023 3A       		.uleb128 0x3a
 956 0024 0B       		.uleb128 0xb
 957 0025 3B       		.uleb128 0x3b
 958 0026 0B       		.uleb128 0xb
 959 0027 49       		.uleb128 0x49
 960 0028 13       		.uleb128 0x13
 961 0029 00       		.byte	0
 962 002a 00       		.byte	0
 963 002b 04       		.uleb128 0x4
 964 002c 13       		.uleb128 0x13
 965 002d 01       		.byte	0x1
GAS LISTING C:\cygwin\tmp\cc0jAJ1I.s 			page 21


 966 002e 03       		.uleb128 0x3
 967 002f 08       		.uleb128 0x8
 968 0030 0B       		.uleb128 0xb
 969 0031 0B       		.uleb128 0xb
 970 0032 3A       		.uleb128 0x3a
 971 0033 0B       		.uleb128 0xb
 972 0034 3B       		.uleb128 0x3b
 973 0035 0B       		.uleb128 0xb
 974 0036 01       		.uleb128 0x1
 975 0037 13       		.uleb128 0x13
 976 0038 00       		.byte	0
 977 0039 00       		.byte	0
 978 003a 05       		.uleb128 0x5
 979 003b 0D       		.uleb128 0xd
 980 003c 00       		.byte	0
 981 003d 03       		.uleb128 0x3
 982 003e 0E       		.uleb128 0xe
 983 003f 3A       		.uleb128 0x3a
 984 0040 0B       		.uleb128 0xb
 985 0041 3B       		.uleb128 0x3b
 986 0042 0B       		.uleb128 0xb
 987 0043 49       		.uleb128 0x49
 988 0044 13       		.uleb128 0x13
 989 0045 38       		.uleb128 0x38
 990 0046 0A       		.uleb128 0xa
 991 0047 00       		.byte	0
 992 0048 00       		.byte	0
 993 0049 06       		.uleb128 0x6
 994 004a 0D       		.uleb128 0xd
 995 004b 00       		.byte	0
 996 004c 03       		.uleb128 0x3
 997 004d 08       		.uleb128 0x8
 998 004e 3A       		.uleb128 0x3a
 999 004f 0B       		.uleb128 0xb
 1000 0050 3B       		.uleb128 0x3b
 1001 0051 0B       		.uleb128 0xb
 1002 0052 49       		.uleb128 0x49
 1003 0053 13       		.uleb128 0x13
 1004 0054 38       		.uleb128 0x38
 1005 0055 0A       		.uleb128 0xa
 1006 0056 00       		.byte	0
 1007 0057 00       		.byte	0
 1008 0058 07       		.uleb128 0x7
 1009 0059 13       		.uleb128 0x13
 1010 005a 01       		.byte	0x1
 1011 005b 0B       		.uleb128 0xb
 1012 005c 0B       		.uleb128 0xb
 1013 005d 3A       		.uleb128 0x3a
 1014 005e 0B       		.uleb128 0xb
 1015 005f 3B       		.uleb128 0x3b
 1016 0060 0B       		.uleb128 0xb
 1017 0061 01       		.uleb128 0x1
 1018 0062 13       		.uleb128 0x13
 1019 0063 00       		.byte	0
 1020 0064 00       		.byte	0
 1021 0065 08       		.uleb128 0x8
 1022 0066 0F       		.uleb128 0xf
GAS LISTING C:\cygwin\tmp\cc0jAJ1I.s 			page 22


 1023 0067 00       		.byte	0
 1024 0068 0B       		.uleb128 0xb
 1025 0069 0B       		.uleb128 0xb
 1026 006a 49       		.uleb128 0x49
 1027 006b 13       		.uleb128 0x13
 1028 006c 00       		.byte	0
 1029 006d 00       		.byte	0
 1030 006e 09       		.uleb128 0x9
 1031 006f 0F       		.uleb128 0xf
 1032 0070 00       		.byte	0
 1033 0071 0B       		.uleb128 0xb
 1034 0072 0B       		.uleb128 0xb
 1035 0073 00       		.byte	0
 1036 0074 00       		.byte	0
 1037 0075 0A       		.uleb128 0xa
 1038 0076 35       		.uleb128 0x35
 1039 0077 00       		.byte	0
 1040 0078 49       		.uleb128 0x49
 1041 0079 13       		.uleb128 0x13
 1042 007a 00       		.byte	0
 1043 007b 00       		.byte	0
 1044 007c 0B       		.uleb128 0xb
 1045 007d 17       		.uleb128 0x17
 1046 007e 01       		.byte	0x1
 1047 007f 0B       		.uleb128 0xb
 1048 0080 0B       		.uleb128 0xb
 1049 0081 3A       		.uleb128 0x3a
 1050 0082 0B       		.uleb128 0xb
 1051 0083 3B       		.uleb128 0x3b
 1052 0084 0B       		.uleb128 0xb
 1053 0085 01       		.uleb128 0x1
 1054 0086 13       		.uleb128 0x13
 1055 0087 00       		.byte	0
 1056 0088 00       		.byte	0
 1057 0089 0C       		.uleb128 0xc
 1058 008a 0D       		.uleb128 0xd
 1059 008b 00       		.byte	0
 1060 008c 03       		.uleb128 0x3
 1061 008d 08       		.uleb128 0x8
 1062 008e 3A       		.uleb128 0x3a
 1063 008f 0B       		.uleb128 0xb
 1064 0090 3B       		.uleb128 0x3b
 1065 0091 0B       		.uleb128 0xb
 1066 0092 49       		.uleb128 0x49
 1067 0093 13       		.uleb128 0x13
 1068 0094 00       		.byte	0
 1069 0095 00       		.byte	0
 1070 0096 0D       		.uleb128 0xd
 1071 0097 26       		.uleb128 0x26
 1072 0098 00       		.byte	0
 1073 0099 49       		.uleb128 0x49
 1074 009a 13       		.uleb128 0x13
 1075 009b 00       		.byte	0
 1076 009c 00       		.byte	0
 1077 009d 0E       		.uleb128 0xe
 1078 009e 15       		.uleb128 0x15
 1079 009f 01       		.byte	0x1
GAS LISTING C:\cygwin\tmp\cc0jAJ1I.s 			page 23


 1080 00a0 27       		.uleb128 0x27
 1081 00a1 0C       		.uleb128 0xc
 1082 00a2 49       		.uleb128 0x49
 1083 00a3 13       		.uleb128 0x13
 1084 00a4 01       		.uleb128 0x1
 1085 00a5 13       		.uleb128 0x13
 1086 00a6 00       		.byte	0
 1087 00a7 00       		.byte	0
 1088 00a8 0F       		.uleb128 0xf
 1089 00a9 05       		.uleb128 0x5
 1090 00aa 00       		.byte	0
 1091 00ab 49       		.uleb128 0x49
 1092 00ac 13       		.uleb128 0x13
 1093 00ad 00       		.byte	0
 1094 00ae 00       		.byte	0
 1095 00af 10       		.uleb128 0x10
 1096 00b0 2E       		.uleb128 0x2e
 1097 00b1 01       		.byte	0x1
 1098 00b2 03       		.uleb128 0x3
 1099 00b3 08       		.uleb128 0x8
 1100 00b4 3A       		.uleb128 0x3a
 1101 00b5 0B       		.uleb128 0xb
 1102 00b6 3B       		.uleb128 0x3b
 1103 00b7 0B       		.uleb128 0xb
 1104 00b8 27       		.uleb128 0x27
 1105 00b9 0C       		.uleb128 0xc
 1106 00ba 11       		.uleb128 0x11
 1107 00bb 01       		.uleb128 0x1
 1108 00bc 12       		.uleb128 0x12
 1109 00bd 01       		.uleb128 0x1
 1110 00be 40       		.uleb128 0x40
 1111 00bf 06       		.uleb128 0x6
 1112 00c0 01       		.uleb128 0x1
 1113 00c1 13       		.uleb128 0x13
 1114 00c2 00       		.byte	0
 1115 00c3 00       		.byte	0
 1116 00c4 11       		.uleb128 0x11
 1117 00c5 05       		.uleb128 0x5
 1118 00c6 00       		.byte	0
 1119 00c7 03       		.uleb128 0x3
 1120 00c8 08       		.uleb128 0x8
 1121 00c9 3A       		.uleb128 0x3a
 1122 00ca 0B       		.uleb128 0xb
 1123 00cb 3B       		.uleb128 0x3b
 1124 00cc 0B       		.uleb128 0xb
 1125 00cd 49       		.uleb128 0x49
 1126 00ce 13       		.uleb128 0x13
 1127 00cf 02       		.uleb128 0x2
 1128 00d0 0A       		.uleb128 0xa
 1129 00d1 00       		.byte	0
 1130 00d2 00       		.byte	0
 1131 00d3 12       		.uleb128 0x12
 1132 00d4 2E       		.uleb128 0x2e
 1133 00d5 00       		.byte	0
 1134 00d6 3F       		.uleb128 0x3f
 1135 00d7 0C       		.uleb128 0xc
 1136 00d8 03       		.uleb128 0x3
GAS LISTING C:\cygwin\tmp\cc0jAJ1I.s 			page 24


 1137 00d9 08       		.uleb128 0x8
 1138 00da 3A       		.uleb128 0x3a
 1139 00db 0B       		.uleb128 0xb
 1140 00dc 3B       		.uleb128 0x3b
 1141 00dd 0B       		.uleb128 0xb
 1142 00de 8740     		.uleb128 0x2007
 1143 00e0 08       		.uleb128 0x8
 1144 00e1 27       		.uleb128 0x27
 1145 00e2 0C       		.uleb128 0xc
 1146 00e3 11       		.uleb128 0x11
 1147 00e4 01       		.uleb128 0x1
 1148 00e5 12       		.uleb128 0x12
 1149 00e6 01       		.uleb128 0x1
 1150 00e7 40       		.uleb128 0x40
 1151 00e8 06       		.uleb128 0x6
 1152 00e9 00       		.byte	0
 1153 00ea 00       		.byte	0
 1154 00eb 13       		.uleb128 0x13
 1155 00ec 2E       		.uleb128 0x2e
 1156 00ed 01       		.byte	0x1
 1157 00ee 3F       		.uleb128 0x3f
 1158 00ef 0C       		.uleb128 0xc
 1159 00f0 03       		.uleb128 0x3
 1160 00f1 08       		.uleb128 0x8
 1161 00f2 3A       		.uleb128 0x3a
 1162 00f3 0B       		.uleb128 0xb
 1163 00f4 3B       		.uleb128 0x3b
 1164 00f5 0B       		.uleb128 0xb
 1165 00f6 27       		.uleb128 0x27
 1166 00f7 0C       		.uleb128 0xc
 1167 00f8 11       		.uleb128 0x11
 1168 00f9 01       		.uleb128 0x1
 1169 00fa 12       		.uleb128 0x12
 1170 00fb 01       		.uleb128 0x1
 1171 00fc 40       		.uleb128 0x40
 1172 00fd 06       		.uleb128 0x6
 1173 00fe 01       		.uleb128 0x1
 1174 00ff 13       		.uleb128 0x13
 1175 0100 00       		.byte	0
 1176 0101 00       		.byte	0
 1177 0102 14       		.uleb128 0x14
 1178 0103 2E       		.uleb128 0x2e
 1179 0104 00       		.byte	0
 1180 0105 03       		.uleb128 0x3
 1181 0106 08       		.uleb128 0x8
 1182 0107 27       		.uleb128 0x27
 1183 0108 0C       		.uleb128 0xc
 1184 0109 34       		.uleb128 0x34
 1185 010a 0C       		.uleb128 0xc
 1186 010b 11       		.uleb128 0x11
 1187 010c 01       		.uleb128 0x1
 1188 010d 12       		.uleb128 0x12
 1189 010e 01       		.uleb128 0x1
 1190 010f 40       		.uleb128 0x40
 1191 0110 06       		.uleb128 0x6
 1192 0111 00       		.byte	0
 1193 0112 00       		.byte	0
GAS LISTING C:\cygwin\tmp\cc0jAJ1I.s 			page 25


 1194 0113 15       		.uleb128 0x15
 1195 0114 01       		.uleb128 0x1
 1196 0115 01       		.byte	0x1
 1197 0116 49       		.uleb128 0x49
 1198 0117 13       		.uleb128 0x13
 1199 0118 01       		.uleb128 0x1
 1200 0119 13       		.uleb128 0x13
 1201 011a 00       		.byte	0
 1202 011b 00       		.byte	0
 1203 011c 16       		.uleb128 0x16
 1204 011d 21       		.uleb128 0x21
 1205 011e 00       		.byte	0
 1206 011f 00       		.byte	0
 1207 0120 00       		.byte	0
 1208 0121 17       		.uleb128 0x17
 1209 0122 34       		.uleb128 0x34
 1210 0123 00       		.byte	0
 1211 0124 03       		.uleb128 0x3
 1212 0125 08       		.uleb128 0x8
 1213 0126 3A       		.uleb128 0x3a
 1214 0127 0B       		.uleb128 0xb
 1215 0128 3B       		.uleb128 0x3b
 1216 0129 0B       		.uleb128 0xb
 1217 012a 49       		.uleb128 0x49
 1218 012b 13       		.uleb128 0x13
 1219 012c 3F       		.uleb128 0x3f
 1220 012d 0C       		.uleb128 0xc
 1221 012e 3C       		.uleb128 0x3c
 1222 012f 0C       		.uleb128 0xc
 1223 0130 00       		.byte	0
 1224 0131 00       		.byte	0
 1225 0132 00       		.byte	0
 1226              		.section	.debug_loc,"dr"
 1227              	Ldebug_loc0:
 1228              	LLST0:
 1229 0000 00000000 		.long	LFB9-Ltext0
 1230 0004 03000000 		.long	LCFI0-Ltext0
 1231 0008 0200     		.word	0x2
 1232 000a 74       		.byte	0x74
 1233 000b 04       		.sleb128 4
 1234 000c 03000000 		.long	LCFI0-Ltext0
 1235 0010 4D000000 		.long	LCFI1-Ltext0
 1236 0014 0200     		.word	0x2
 1237 0016 74       		.byte	0x74
 1238 0017 08       		.sleb128 8
 1239 0018 4D000000 		.long	LCFI1-Ltext0
 1240 001c 4E000000 		.long	LFE9-Ltext0
 1241 0020 0200     		.word	0x2
 1242 0022 74       		.byte	0x74
 1243 0023 04       		.sleb128 4
 1244 0024 00000000 		.long	0
 1245 0028 00000000 		.long	0
 1246              	LLST1:
 1247 002c 4E000000 		.long	LFB10-Ltext0
 1248 0030 51000000 		.long	LCFI2-Ltext0
 1249 0034 0200     		.word	0x2
 1250 0036 74       		.byte	0x74
GAS LISTING C:\cygwin\tmp\cc0jAJ1I.s 			page 26


 1251 0037 04       		.sleb128 4
 1252 0038 51000000 		.long	LCFI2-Ltext0
 1253 003c 79000000 		.long	LFE10-Ltext0
 1254 0040 0200     		.word	0x2
 1255 0042 74       		.byte	0x74
 1256 0043 20       		.sleb128 32
 1257 0044 00000000 		.long	0
 1258 0048 00000000 		.long	0
 1259              	LLST2:
 1260 004c 79000000 		.long	LFB11-Ltext0
 1261 0050 7C000000 		.long	LCFI3-Ltext0
 1262 0054 0200     		.word	0x2
 1263 0056 74       		.byte	0x74
 1264 0057 04       		.sleb128 4
 1265 0058 7C000000 		.long	LCFI3-Ltext0
 1266 005c 06010000 		.long	LFE11-Ltext0
 1267 0060 0200     		.word	0x2
 1268 0062 74       		.byte	0x74
 1269 0063 20       		.sleb128 32
 1270 0064 00000000 		.long	0
 1271 0068 00000000 		.long	0
 1272              	LLST3:
 1273 006c 06010000 		.long	LFB12-Ltext0
 1274 0070 09010000 		.long	LCFI4-Ltext0
 1275 0074 0200     		.word	0x2
 1276 0076 74       		.byte	0x74
 1277 0077 04       		.sleb128 4
 1278 0078 09010000 		.long	LCFI4-Ltext0
 1279 007c 18010000 		.long	LCFI5-Ltext0
 1280 0080 0200     		.word	0x2
 1281 0082 74       		.byte	0x74
 1282 0083 20       		.sleb128 32
 1283 0084 18010000 		.long	LCFI5-Ltext0
 1284 0088 19010000 		.long	LFE12-Ltext0
 1285 008c 0200     		.word	0x2
 1286 008e 74       		.byte	0x74
 1287 008f 04       		.sleb128 4
 1288 0090 00000000 		.long	0
 1289 0094 00000000 		.long	0
 1290              		.section	.debug_aranges,"dr"
 1291 0000 1C000000 		.long	0x1c
 1292 0004 0200     		.word	0x2
 1293 0006 00000000 		.secrel32	Ldebug_info0
 1294 000a 04       		.byte	0x4
 1295 000b 00       		.byte	0
 1296 000c 0000     		.word	0
 1297 000e 0000     		.word	0
 1298 0010 00000000 		.long	Ltext0
 1299 0014 19010000 		.long	Letext0-Ltext0
 1300 0018 00000000 		.long	0
 1301 001c 00000000 		.long	0
 1302              		.section	.debug_line,"dr"
 1303              	Ldebug_line0:
 1304 0000 1D010000 		.section	.debug_str,"dr"
 1304      0200E300 
 1304      00000101 
 1304      FB0E0D00 
GAS LISTING C:\cygwin\tmp\cc0jAJ1I.s 			page 27


 1304      01010101 
 1305              	LASF0:
 1306 0000 705F6E65 		.ascii "p_next\0"
 1306      787400
 1307              		.def	_exit;	.scl	2;	.type	32;	.endef
 1308              		.def	_chThdExit;	.scl	2;	.type	32;	.endef
 1309              		.def	___gcov_merge_add;	.scl	2;	.type	32;	.endef
 1310              		.def	___gcov_init;	.scl	2;	.type	32;	.endef
GAS LISTING C:\cygwin\tmp\cc0jAJ1I.s 			page 28


DEFINED SYMBOLS
                            *ABS*:00000000 chcore.c
C:\cygwin\tmp\cc0jAJ1I.s:44     .text:00000000 ___dummy
C:\cygwin\tmp\cc0jAJ1I.s:63     .text:0000001f @port_switch@8
C:\cygwin\tmp\cc0jAJ1I.s:91     .text:0000004e @port_halt@0
C:\cygwin\tmp\cc0jAJ1I.s:112    .text:00000079 __port_thread_start
C:\cygwin\tmp\cc0jAJ1I.s:216    .text:00000106 __GLOBAL__sub_I_65535_0__port_halt_0

UNDEFINED SYMBOLS
_exit
_chThdExit
___gcov_merge_add
___gcov_init
