GAS LISTING C:\cygwin\tmp\cc0jAJ1I.s 			page 1


   1              		.file	"chcore.c"
   2              	 # GNU C (GCC) version 4.6.2 (mingw32)
   3              	 #	compiled by GNU C version 4.6.2, GMP version 5.0.1, MPFR version 2.4.1, MPC version 0.8.1
   4              	 # GGC heuristics: --param ggc-min-expand=100 --param ggc-min-heapsize=131072
   5              	 # options passed:  -I . -I ../../os/ports/GCC/SIMIA32
   6              	 # -I ../../os/kernel/include -I ../../test -I ../../os/hal/include
   7              	 # -I ../../os/hal/platforms/Win32 -I ../../boards/simulator
   8              	 # -I ../../os/various -iprefix c:\mingw\bin\../lib/gcc/mingw32/4.6.2/
   9              	 # -MD ../../os/ports/GCC/SIMIA32/chcore.d -MF .dep/chcore.o.d -MP
  10              	 # -MQ ../../os/ports/GCC/SIMIA32/chcore.o -D SIMULATOR
  11              	 # ../../os/ports/GCC/SIMIA32/chcore.c -mtune=i386 -march=i386
  12              	 # -auxbase-strip ../../os/ports/GCC/SIMIA32/chcore.o -ggdb -O0 -Wall
  13              	 # -Wextra -Wstrict-prototypes -fomit-frame-pointer -fprofile-arcs
  14              	 # -ftest-coverage -fverbose-asm
  15              	 # options enabled:  -fasynchronous-unwind-tables -fauto-inc-dec
  16              	 # -fbranch-count-reg -fcommon -fdelete-null-pointer-checks
  17              	 # -fdwarf2-cfi-asm -fearly-inlining -feliminate-unused-debug-types
  18              	 # -ffunction-cse -fgcse-lm -fident -finline-functions-called-once
  19              	 # -fira-share-save-slots -fira-share-spill-slots -fivopts
  20              	 # -fkeep-inline-dllexport -fkeep-static-consts -fleading-underscore
  21              	 # -fmath-errno -fmerge-debug-strings -fmove-loop-invariants
  22              	 # -fomit-frame-pointer -fpeephole -fprefetch-loop-arrays -fprofile-arcs
  23              	 # -freg-struct-return -fsched-critical-path-heuristic
  24              	 # -fsched-dep-count-heuristic -fsched-group-heuristic -fsched-interblock
  25              	 # -fsched-last-insn-heuristic -fsched-rank-heuristic -fsched-spec
  26              	 # -fsched-spec-insn-heuristic -fsched-stalled-insns-dep
  27              	 # -fset-stack-executable -fshow-column -fsigned-zeros
  28              	 # -fsplit-ivs-in-unroller -fstrict-volatile-bitfields -ftest-coverage
  29              	 # -ftrapping-math -ftree-cselim -ftree-forwprop -ftree-loop-if-convert
  30              	 # -ftree-loop-im -ftree-loop-ivcanon -ftree-loop-optimize
  31              	 # -ftree-parallelize-loops= -ftree-phiprop -ftree-pta -ftree-reassoc
  32              	 # -ftree-scev-cprop -ftree-slp-vectorize -ftree-vect-loop-version
  33              	 # -funit-at-a-time -funwind-tables -fvect-cost-model -fverbose-asm
  34              	 # -fzero-initialized-in-bss -m32 -m80387 -m96bit-long-double
  35              	 # -maccumulate-outgoing-args -malign-double -malign-stringops
  36              	 # -mfancy-math-387 -mfp-ret-in-387 -mieee-fp -mno-red-zone -mno-sse4
  37              	 # -mpush-args -msahf -mstack-arg-probe
  38              	
  39              		.text
  40              	Ltext0:
  41              	 # Compiler executable checksum: c20aed7c018482d7b62efcd5dcab2a9d
  42              	
  43              		.def	___dummy;	.scl	3;	.type	32;	.endef
  44              	___dummy:
  45              	LFB9:
  46              		.file 1 "../../os/ports/GCC/SIMIA32/chcore.c"
  47              		.loc 1 37 0
  48              		.cfi_startproc
  49 0000 83EC04   		subl	$4, %esp	 #,
  50              	LCFI0:
  51              		.cfi_def_cfa_offset 8
  52              		.loc 1 37 0
  53 0003 A1280000 		movl	LPBX1+40, %eax	 # *LPBX1, PROF_edge_counter.2
  53      00
  54 0008 8B152C00 		movl	LPBX1+44, %edx	 # *LPBX1, PROF_edge_counter.2
  54      0000
  55 000e 83C001   		addl	$1, %eax	 #, PROF_edge_counter.2
GAS LISTING C:\cygwin\tmp\cc0jAJ1I.s 			page 2


  56 0011 83D200   		adcl	$0, %edx	 #, PROF_edge_counter.2
  57 0014 A3280000 		movl	%eax, LPBX1+40	 # PROF_edge_counter.2, *LPBX1
  57      00
  58 0019 89152C00 		movl	%edx, LPBX1+44	 # PROF_edge_counter.2, *LPBX1
  58      0000
  59              		.loc 1 40 0
  60              	/APP
  61              	 # 40 "../../os/ports/GCC/SIMIA32/chcore.c" 1
  62              		.globl @port_switch@8                          
  63 001f 55       		@port_switch@8:push    %ebp                                   
  64 0020 56       		push    %esi                                   
  65 0021 57       		push    %edi                                   
  66 0022 53       		push    %ebx                                   
  67 0023 89620C   		movl    %esp, 12(%edx)                         
  68 0026 8B610C   		movl    12(%ecx), %esp                         
  69 0029 5B       		pop     %ebx                                   
  70 002a 5F       		pop     %edi                                   
  71 002b 5E       		pop     %esi                                   
  72 002c 5D       		pop     %ebp                                   
  73 002d C3       		ret
  74              	 # 0 "" 2
  75              	/NO_APP
  76 002e A1300000 		movl	LPBX1+48, %eax	 # *LPBX1, PROF_edge_counter.2
  76      00
  77 0033 8B153400 		movl	LPBX1+52, %edx	 # *LPBX1, PROF_edge_counter.2
  77      0000
  78 0039 83C001   		addl	$1, %eax	 #, PROF_edge_counter.2
  79 003c 83D200   		adcl	$0, %edx	 #, PROF_edge_counter.2
  80 003f A3300000 		movl	%eax, LPBX1+48	 # PROF_edge_counter.2, *LPBX1
  80      00
  81 0044 89153400 		movl	%edx, LPBX1+52	 # PROF_edge_counter.2, *LPBX1
  81      0000
  82              		.loc 1 62 0
  83 004a 83C404   		addl	$4, %esp	 #,
  84              	LCFI1:
  85              		.cfi_def_cfa_offset 4
  86 004d C3       		ret
  87              		.cfi_endproc
  88              	LFE9:
  89              		.globl	@port_halt@0
  90              		.def	@port_halt@0;	.scl	2;	.type	32;	.endef
  91              	@port_halt@0:
  92              	LFB10:
  93              		.loc 1 68 0
  94              		.cfi_startproc
  95 004e 83EC1C   		subl	$28, %esp	 #,
  96              	LCFI2:
  97              		.cfi_def_cfa_offset 32
  98              		.loc 1 68 0
  99 0051 A1200000 		movl	LPBX1+32, %eax	 # *LPBX1, PROF_edge_counter.1
  99      00
 100 0056 8B152400 		movl	LPBX1+36, %edx	 # *LPBX1, PROF_edge_counter.1
 100      0000
 101 005c 83C001   		addl	$1, %eax	 #, PROF_edge_counter.1
 102 005f 83D200   		adcl	$0, %edx	 #, PROF_edge_counter.1
 103 0062 A3200000 		movl	%eax, LPBX1+32	 # PROF_edge_counter.1, *LPBX1
 103      00
GAS LISTING C:\cygwin\tmp\cc0jAJ1I.s 			page 3


 104 0067 89152400 		movl	%edx, LPBX1+36	 # PROF_edge_counter.1, *LPBX1
 104      0000
 105              		.loc 1 70 0
 106 006d C7042402 		movl	$2, (%esp)	 #,
 106      000000
 107 0074 E8000000 		call	_exit	 #
 107      00
 108              		.cfi_endproc
 109              	LFE10:
 110              		.globl	__port_thread_start
 111              		.def	__port_thread_start;	.scl	2;	.type	32;	.endef
 112              	__port_thread_start:
 113              	LFB11:
 114              		.loc 1 79 0
 115              		.cfi_startproc
 116 0079 83EC1C   		subl	$28, %esp	 #,
 117              	LCFI3:
 118              		.cfi_def_cfa_offset 32
 119              		.loc 1 79 0
 120 007c A1000000 		movl	LPBX1, %eax	 # *LPBX1, PROF_edge_counter.0
 120      00
 121 0081 8B150400 		movl	LPBX1+4, %edx	 # *LPBX1, PROF_edge_counter.0
 121      0000
 122 0087 83C001   		addl	$1, %eax	 #, PROF_edge_counter.0
 123 008a 83D200   		adcl	$0, %edx	 #, PROF_edge_counter.0
 124 008d A3000000 		movl	%eax, LPBX1	 # PROF_edge_counter.0, *LPBX1
 124      00
 125 0092 89150400 		movl	%edx, LPBX1+4	 # PROF_edge_counter.0, *LPBX1
 125      0000
 126              		.loc 1 81 0
 127              	/APP
 128              	 # 81 "../../os/ports/GCC/SIMIA32/chcore.c" 1
 129 0098 90       		nop
 130              	 # 0 "" 2
 131              	/NO_APP
 132 0099 A1080000 		movl	LPBX1+8, %eax	 # *LPBX1, PROF_edge_counter.0
 132      00
 133 009e 8B150C00 		movl	LPBX1+12, %edx	 # *LPBX1, PROF_edge_counter.0
 133      0000
 134 00a4 83C001   		addl	$1, %eax	 #, PROF_edge_counter.0
 135 00a7 83D200   		adcl	$0, %edx	 #, PROF_edge_counter.0
 136 00aa A3080000 		movl	%eax, LPBX1+8	 # PROF_edge_counter.0, *LPBX1
 136      00
 137 00af 89150C00 		movl	%edx, LPBX1+12	 # PROF_edge_counter.0, *LPBX1
 137      0000
 138              		.loc 1 82 0
 139 00b5 8B442424 		movl	36(%esp), %eax	 # p, tmp68
 140 00b9 890424   		movl	%eax, (%esp)	 # tmp68,
 141 00bc 8B442420 		movl	32(%esp), %eax	 # pf, tmp69
 142 00c0 FFD0     		call	*%eax	 # tmp69
 143 00c2 89C1     		movl	%eax, %ecx	 #, D.36591
 144 00c4 A1100000 		movl	LPBX1+16, %eax	 # *LPBX1, PROF_edge_counter.0
 144      00
 145 00c9 8B151400 		movl	LPBX1+20, %edx	 # *LPBX1, PROF_edge_counter.0
 145      0000
 146 00cf 83C001   		addl	$1, %eax	 #, PROF_edge_counter.0
 147 00d2 83D200   		adcl	$0, %edx	 #, PROF_edge_counter.0
GAS LISTING C:\cygwin\tmp\cc0jAJ1I.s 			page 4


 148 00d5 A3100000 		movl	%eax, LPBX1+16	 # PROF_edge_counter.0, *LPBX1
 148      00
 149 00da 89151400 		movl	%edx, LPBX1+20	 # PROF_edge_counter.0, *LPBX1
 149      0000
 150 00e0 890C24   		movl	%ecx, (%esp)	 # D.36591,
 151 00e3 E8000000 		call	_chThdExit	 #
 151      00
 152              	L4:
 153              		.loc 1 82 0 is_stmt 0 discriminator 1
 154 00e8 A1180000 		movl	LPBX1+24, %eax	 # *LPBX1, PROF_edge_counter.0
 154      00
 155 00ed 8B151C00 		movl	LPBX1+28, %edx	 # *LPBX1, PROF_edge_counter.0
 155      0000
 156 00f3 83C001   		addl	$1, %eax	 #, PROF_edge_counter.0
 157 00f6 83D200   		adcl	$0, %edx	 #, PROF_edge_counter.0
 158 00f9 A3180000 		movl	%eax, LPBX1+24	 # PROF_edge_counter.0, *LPBX1
 158      00
 159 00fe 89151C00 		movl	%edx, LPBX1+28	 # PROF_edge_counter.0, *LPBX1
 159      0000
 160              		.loc 1 83 0 is_stmt 1 discriminator 1
 161 0104 EBE2     		jmp	L4	 #
 162              		.cfi_endproc
 163              	LFE11:
 164              	.lcomm LPBX1,56,32
 165              		.section .rdata,"dr"
 166              		.align 4
 167              	LC0:
 168 0000 433A5C64 		.ascii "C:\\develop\\gyro\\ChibiOS\\test\\coverage/../../os/ports/GCC/SIMIA32/chcore.gcda\0"
 168      6576656C 
 168      6F705C67 
 168      79726F5C 
 168      43686962 
 169 004d 000000   		.data
 170              		.align 32
 171              	LC1:
 172              	 # <anonymous>:
 173 0000 0C000000 		.long	12
 174              	 # <anonymous>:
 175 0004 5CCD8BC7 		.long	-947139236
 176              	 # <anonymous>:
 177 0008 04000000 		.long	4
 178              	 # <anonymous>:
 179 000c 0B000000 		.long	11
 180              	 # <anonymous>:
 181 0010 DC8BBAA8 		.long	-1464169508
 182              	 # <anonymous>:
 183 0014 01000000 		.long	1
 184              	 # <anonymous>:
 185 0018 0A000000 		.long	10
 186              	 # <anonymous>:
 187 001c E68DEFD1 		.long	-772829722
 188              	 # <anonymous>:
 189 0020 02000000 		.long	2
 190 0024 00000000 		.align 32
 190      00000000 
 190      00000000 
 190      00000000 
GAS LISTING C:\cygwin\tmp\cc0jAJ1I.s 			page 5


 190      00000000 
 191              	LPBX0:
 192              	 # <anonymous>:
 193 0040 2A363034 		.long	875574826
 194              	 # <anonymous>:
 195 0044 00000000 		.long	0
 196              	 # <anonymous>:
 197 0048 DD93FA66 		.long	1727697885
 198              	 # <anonymous>:
 199 004c 00000000 		.long	LC0
 200              	 # <anonymous>:
 201 0050 03000000 		.long	3
 202              	 # <anonymous>:
 203 0054 00000000 		.long	LC1
 204              	 # <anonymous>:
 205 0058 01000000 		.long	1
 206              	 # <anonymous>:
 207              	 # <anonymous>:
 208 005c 07000000 		.long	7
 209              	 # <anonymous>:
 210 0060 00000000 		.long	LPBX1
 211              	 # <anonymous>:
 212 0064 00000000 		.long	___gcov_merge_add
 213 0068 00000000 		.space 12
 213      00000000 
 213      00000000 
 214 0074 00000000 		.text
 214      00000000 
 214      00000000 
 215              		.def	__GLOBAL__sub_I_65535_0__port_halt_0;	.scl	3;	.type	32;	.endef
 216              	__GLOBAL__sub_I_65535_0__port_halt_0:
 217              	LFB12:
 218              		.loc 1 84 0
 219              		.cfi_startproc
 220 0106 83EC1C   		subl	$28, %esp	 #,
 221              	LCFI4:
 222              		.cfi_def_cfa_offset 32
 223              		.loc 1 84 0
 224 0109 C7042440 		movl	$LPBX0, (%esp)	 #,
 224      000000
 225 0110 E8000000 		call	___gcov_init	 #
 225      00
 226 0115 83C41C   		addl	$28, %esp	 #,
 227              	LCFI5:
 228              		.cfi_def_cfa_offset 4
 229 0118 C3       		ret
 230              		.cfi_endproc
 231              	LFE12:
 232              		.section	.ctors,"w"
 233              		.align 4
 234 0000 06010000 		.long	__GLOBAL__sub_I_65535_0__port_halt_0
 235              		.text
 236              	Letext0:
 237              		.file 2 "c:/mingw/bin/../lib/gcc/mingw32/4.6.2/../../../../include/stdint.h"
 238              		.file 3 "../../os/ports/GCC/SIMIA32/chtypes.h"
 239              		.file 4 "../../os/kernel/include/chlists.h"
 240              		.file 5 "../../os/kernel/include/chthreads.h"
GAS LISTING C:\cygwin\tmp\cc0jAJ1I.s 			page 6


 241              		.file 6 "../../os/ports/GCC/SIMIA32/chcore.h"
 242              		.file 7 "../../os/kernel/include/chmtx.h"
 243              		.file 8 "c:/mingw/bin/../lib/gcc/mingw32/4.6.2/../../../../include/stdio.h"