ARM GAS  C:\cygwin\tmp\cciwpTCk.s 			page 1


   1              		.syntax unified
   2              		.cpu cortex-m4
   3              		.fpu softvfp
   4              		.eabi_attribute 20, 1
   5              		.eabi_attribute 21, 1
   6              		.eabi_attribute 23, 3
   7              		.eabi_attribute 24, 1
   8              		.eabi_attribute 25, 1
   9              		.eabi_attribute 26, 1
  10              		.eabi_attribute 30, 2
  11              		.eabi_attribute 34, 1
  12              		.eabi_attribute 18, 4
  13              		.thumb
  14              		.file	"chevents.c"
  15              		.text
  16              	.Ltext0:
  17              		.cfi_sections	.debug_frame
  18              		.section	.text.chEvtRegisterMask,"ax",%progbits
  19              		.align	2
  20              		.p2align 4,,15
  21              		.global	chEvtRegisterMask
  22              		.thumb
  23              		.thumb_func
  24              		.type	chEvtRegisterMask, %function
  25              	chEvtRegisterMask:
  26              	.LFB7:
  27              		.file 1 "../../../os/kernel/src/chevents.c"
  28              		.loc 1 78 0
  29              		.cfi_startproc
  30              		@ args = 0, pretend = 0, frame = 0
  31              		@ frame_needed = 0, uses_anonymous_args = 0
  32              	.LVL0:
  33              		.loc 1 80 0
  34 0000 0028     		cmp	r0, #0
  35 0002 18BF     		it	ne
  36 0004 0029     		cmpne	r1, #0
  37              		.loc 1 78 0
  38 0006 F8B5     		push	{r3, r4, r5, r6, r7, lr}
  39              	.LCFI0:
  40              		.cfi_def_cfa_offset 24
  41              		.cfi_offset 3, -24
  42              		.cfi_offset 4, -20
  43              		.cfi_offset 5, -16
  44              		.cfi_offset 6, -12
  45              		.cfi_offset 7, -8
  46              		.cfi_offset 14, -4
  47              		.loc 1 80 0
  48 0008 0C46     		mov	r4, r1
  49 000a 0546     		mov	r5, r0
  50              		.loc 1 78 0
  51 000c 1746     		mov	r7, r2
  52              		.loc 1 80 0
  53 000e 02D1     		bne	.L2
  54              		.loc 1 80 0 is_stmt 0 discriminator 1
  55 0010 0B48     		ldr	r0, .L7
  56              	.LVL1:
  57 0012 FFF7FEFF 		bl	chDbgPanic
ARM GAS  C:\cygwin\tmp\cciwpTCk.s 			page 2


  58              	.LVL2:
  59              	.L2:
  60              	.LBB2:
  61              		.loc 1 82 0 is_stmt 1
  62 0016 2023     		movs	r3, #32
  63              	.LVL3:
  64              	@ 82 "../../../os/kernel/src/chevents.c" 1
  65 0018 83F31188 		msr     BASEPRI, r3
  66              	@ 0 "" 2
  67              	.LVL4:
  68              		.thumb
  69              	.LBE2:
  70 001c FFF7FEFF 		bl	dbg_check_lock
  71              	.LVL5:
  72              		.loc 1 85 0
  73 0020 084B     		ldr	r3, .L7+4
  74              		.loc 1 83 0
  75 0022 2A68     		ldr	r2, [r5, #0]
  76              		.loc 1 85 0
  77 0024 9B69     		ldr	r3, [r3, #24]
  78              		.loc 1 83 0
  79 0026 2260     		str	r2, [r4, #0]
  80              		.loc 1 87 0
  81 0028 0026     		movs	r6, #0
  82              		.loc 1 84 0
  83 002a 2C60     		str	r4, [r5, #0]
  84              		.loc 1 85 0
  85 002c 6360     		str	r3, [r4, #4]
  86              		.loc 1 86 0
  87 002e A760     		str	r7, [r4, #8]
  88              		.loc 1 87 0
  89 0030 E660     		str	r6, [r4, #12]
  90              		.loc 1 88 0
  91 0032 FFF7FEFF 		bl	dbg_check_unlock
  92              	.LVL6:
  93              	.LBB3:
  94 0036 3346     		mov	r3, r6
  95              	.LVL7:
  96              	@ 88 "../../../os/kernel/src/chevents.c" 1
  97 0038 83F31188 		msr     BASEPRI, r3
  98              	@ 0 "" 2
  99              	.LVL8:
 100              		.thumb
 101 003c F8BD     		pop	{r3, r4, r5, r6, r7, pc}
 102              	.L8:
 103 003e 00BF     		.align	2
 104              	.L7:
 105 0040 00000000 		.word	.LC0
 106 0044 00000000 		.word	rlist
 107              	.LBE3:
 108              		.cfi_endproc
 109              	.LFE7:
 110              		.size	chEvtRegisterMask, .-chEvtRegisterMask
 111 0048 AFF30080 		.section	.text.chEvtUnregister,"ax",%progbits
 111      AFF30080 
 112              		.align	2
 113              		.p2align 4,,15
ARM GAS  C:\cygwin\tmp\cciwpTCk.s 			page 3


 114              		.global	chEvtUnregister
 115              		.thumb
 116              		.thumb_func
 117              		.type	chEvtUnregister, %function
 118              	chEvtUnregister:
 119              	.LFB8:
 120              		.loc 1 104 0
 121              		.cfi_startproc
 122              		@ args = 0, pretend = 0, frame = 0
 123              		@ frame_needed = 0, uses_anonymous_args = 0
 124              	.LVL9:
 125              		.loc 1 107 0
 126 0000 0028     		cmp	r0, #0
 127 0002 18BF     		it	ne
 128 0004 0029     		cmpne	r1, #0
 129              		.loc 1 104 0
 130 0006 38B5     		push	{r3, r4, r5, lr}
 131              	.LCFI1:
 132              		.cfi_def_cfa_offset 16
 133              		.cfi_offset 3, -16
 134              		.cfi_offset 4, -12
 135              		.cfi_offset 5, -8
 136              		.cfi_offset 14, -4
 137              		.loc 1 107 0
 138 0008 0D46     		mov	r5, r1
 139 000a 0446     		mov	r4, r0
 140 000c 14D0     		beq	.L18
 141              	.LVL10:
 142              	.L10:
 143              	.LBB4:
 144              		.loc 1 110 0
 145 000e 2023     		movs	r3, #32
 146              	.LVL11:
 147              	@ 110 "../../../os/kernel/src/chevents.c" 1
 148 0010 83F31188 		msr     BASEPRI, r3
 149              	@ 0 "" 2
 150              	.LVL12:
 151              		.thumb
 152              	.LBE4:
 153 0014 FFF7FEFF 		bl	dbg_check_lock
 154              	.LVL13:
 155              		.loc 1 111 0
 156 0018 2246     		mov	r2, r4
 157 001a 00E0     		b	.L11
 158              	.LVL14:
 159              	.L14:
 160              		.loc 1 112 0
 161 001c 1A46     		mov	r2, r3
 162              	.LVL15:
 163              	.L11:
 164              		.loc 1 111 0 discriminator 1
 165 001e 1368     		ldr	r3, [r2, #0]
 166 0020 A342     		cmp	r3, r4
 167 0022 03D0     		beq	.L12
 168              		.loc 1 112 0
 169 0024 9D42     		cmp	r5, r3
 170 0026 F9D1     		bne	.L14
ARM GAS  C:\cygwin\tmp\cciwpTCk.s 			page 4


 171              		.loc 1 113 0
 172 0028 2B68     		ldr	r3, [r5, #0]
 173 002a 1360     		str	r3, [r2, #0]
 174              	.L12:
 175              		.loc 1 118 0
 176 002c FFF7FEFF 		bl	dbg_check_unlock
 177              	.LVL16:
 178              	.LBB5:
 179 0030 0023     		movs	r3, #0
 180              	.LVL17:
 181              	@ 118 "../../../os/kernel/src/chevents.c" 1
 182 0032 83F31188 		msr     BASEPRI, r3
 183              	@ 0 "" 2
 184              	.LVL18:
 185              		.thumb
 186 0036 38BD     		pop	{r3, r4, r5, pc}
 187              	.LVL19:
 188              	.L18:
 189              	.LBE5:
 190              		.loc 1 107 0 discriminator 1
 191 0038 0148     		ldr	r0, .L19
 192              	.LVL20:
 193 003a FFF7FEFF 		bl	chDbgPanic
 194              	.LVL21:
 195 003e E6E7     		b	.L10
 196              	.L20:
 197              		.align	2
 198              	.L19:
 199 0040 18000000 		.word	.LC1
 200              		.cfi_endproc
 201              	.LFE8:
 202              		.size	chEvtUnregister, .-chEvtUnregister
 203 0044 AFF30080 		.section	.text.chEvtGetAndClearEvents,"ax",%progbits
 203      AFF30080 
 203      AFF30080 
 204              		.align	2
 205              		.p2align 4,,15
 206              		.global	chEvtGetAndClearEvents
 207              		.thumb
 208              		.thumb_func
 209              		.type	chEvtGetAndClearEvents, %function
 210              	chEvtGetAndClearEvents:
 211              	.LFB9:
 212              		.loc 1 129 0
 213              		.cfi_startproc
 214              		@ args = 0, pretend = 0, frame = 0
 215              		@ frame_needed = 0, uses_anonymous_args = 0
 216              	.LVL22:
 217 0000 10B5     		push	{r4, lr}
 218              	.LCFI2:
 219              		.cfi_def_cfa_offset 8
 220              		.cfi_offset 4, -8
 221              		.cfi_offset 14, -4
 222              	.LBB6:
 223              		.loc 1 132 0
 224 0002 2023     		movs	r3, #32
 225              	.LVL23:
ARM GAS  C:\cygwin\tmp\cciwpTCk.s 			page 5


 226              	.LBE6:
 227              		.loc 1 129 0
 228 0004 0446     		mov	r4, r0
 229              	.LBB7:
 230              		.loc 1 132 0
 231              	@ 132 "../../../os/kernel/src/chevents.c" 1
 232 0006 83F31188 		msr     BASEPRI, r3
 233              	@ 0 "" 2
 234              	.LVL24:
 235              		.thumb
 236              	.LBE7:
 237 000a FFF7FEFF 		bl	dbg_check_lock
 238              	.LVL25:
 239              		.loc 1 134 0
 240 000e 40F20003 		movw	r3, #:lower16:rlist
 241 0012 C0F20003 		movt	r3, #:upper16:rlist
 242 0016 9B69     		ldr	r3, [r3, #24]
 243 0018 D86B     		ldr	r0, [r3, #60]
 244              		.loc 1 135 0
 245 001a 20EA0402 		bic	r2, r0, r4
 246 001e DA63     		str	r2, [r3, #60]
 247              		.loc 1 134 0
 248 0020 0440     		ands	r4, r4, r0
 249              	.LVL26:
 250              		.loc 1 137 0
 251 0022 FFF7FEFF 		bl	dbg_check_unlock
 252              	.LVL27:
 253              	.LBB8:
 254 0026 0023     		movs	r3, #0
 255              	.LVL28:
 256              	@ 137 "../../../os/kernel/src/chevents.c" 1
 257 0028 83F31188 		msr     BASEPRI, r3
 258              	@ 0 "" 2
 259              	.LVL29:
 260              		.thumb
 261              	.LBE8:
 262              		.loc 1 139 0
 263 002c 2046     		mov	r0, r4
 264 002e 10BD     		pop	{r4, pc}
 265              		.cfi_endproc
 266              	.LFE9:
 267              		.size	chEvtGetAndClearEvents, .-chEvtGetAndClearEvents
 268              		.section	.text.chEvtAddEvents,"ax",%progbits
 269              		.align	2
 270              		.p2align 4,,15
 271              		.global	chEvtAddEvents
 272              		.thumb
 273              		.thumb_func
 274              		.type	chEvtAddEvents, %function
 275              	chEvtAddEvents:
 276              	.LFB10:
 277              		.loc 1 150 0
 278              		.cfi_startproc
 279              		@ args = 0, pretend = 0, frame = 0
 280              		@ frame_needed = 0, uses_anonymous_args = 0
 281              	.LVL30:
 282 0000 10B5     		push	{r4, lr}
ARM GAS  C:\cygwin\tmp\cciwpTCk.s 			page 6


 283              	.LCFI3:
 284              		.cfi_def_cfa_offset 8
 285              		.cfi_offset 4, -8
 286              		.cfi_offset 14, -4
 287              	.LBB9:
 288              		.loc 1 152 0
 289 0002 2023     		movs	r3, #32
 290              	.LVL31:
 291              	.LBE9:
 292              		.loc 1 150 0
 293 0004 0446     		mov	r4, r0
 294              	.LBB10:
 295              		.loc 1 152 0
 296              	@ 152 "../../../os/kernel/src/chevents.c" 1
 297 0006 83F31188 		msr     BASEPRI, r3
 298              	@ 0 "" 2
 299              	.LVL32:
 300              		.thumb
 301              	.LBE10:
 302 000a FFF7FEFF 		bl	dbg_check_lock
 303              	.LVL33:
 304              		.loc 1 154 0
 305 000e 40F20003 		movw	r3, #:lower16:rlist
 306 0012 C0F20003 		movt	r3, #:upper16:rlist
 307 0016 9B69     		ldr	r3, [r3, #24]
 308 0018 DA6B     		ldr	r2, [r3, #60]
 309 001a 1443     		orrs	r4, r4, r2
 310              	.LVL34:
 311 001c DC63     		str	r4, [r3, #60]
 312              	.LVL35:
 313              		.loc 1 156 0
 314 001e FFF7FEFF 		bl	dbg_check_unlock
 315              	.LVL36:
 316              	.LBB11:
 317 0022 0023     		movs	r3, #0
 318              	.LVL37:
 319              	@ 156 "../../../os/kernel/src/chevents.c" 1
 320 0024 83F31188 		msr     BASEPRI, r3
 321              	@ 0 "" 2
 322              	.LVL38:
 323              		.thumb
 324              	.LBE11:
 325              		.loc 1 158 0
 326 0028 2046     		mov	r0, r4
 327 002a 10BD     		pop	{r4, pc}
 328              		.cfi_endproc
 329              	.LFE10:
 330              		.size	chEvtAddEvents, .-chEvtAddEvents
 331 002c AFF30080 		.section	.text.chEvtGetAndClearFlags,"ax",%progbits
 332              		.align	2
 333              		.p2align 4,,15
 334              		.global	chEvtGetAndClearFlags
 335              		.thumb
 336              		.thumb_func
 337              		.type	chEvtGetAndClearFlags, %function
 338              	chEvtGetAndClearFlags:
 339              	.LFB12:
ARM GAS  C:\cygwin\tmp\cciwpTCk.s 			page 7


 340              		.loc 1 202 0
 341              		.cfi_startproc
 342              		@ args = 0, pretend = 0, frame = 0
 343              		@ frame_needed = 0, uses_anonymous_args = 0
 344              	.LVL39:
 345 0000 70B5     		push	{r4, r5, r6, lr}
 346              	.LCFI4:
 347              		.cfi_def_cfa_offset 16
 348              		.cfi_offset 4, -16
 349              		.cfi_offset 5, -12
 350              		.cfi_offset 6, -8
 351              		.cfi_offset 14, -4
 352              	.LBB12:
 353              		.loc 1 205 0
 354 0002 2023     		movs	r3, #32
 355              	.LVL40:
 356              	.LBE12:
 357              		.loc 1 202 0
 358 0004 0546     		mov	r5, r0
 359              	.LBB13:
 360              		.loc 1 205 0
 361              	@ 205 "../../../os/kernel/src/chevents.c" 1
 362 0006 83F31188 		msr     BASEPRI, r3
 363              	@ 0 "" 2
 364              	.LVL41:
 365              		.thumb
 366              	.LBE13:
 367              		.loc 1 208 0
 368 000a 0024     		movs	r4, #0
 369              		.loc 1 205 0
 370 000c FFF7FEFF 		bl	dbg_check_lock
 371              	.LVL42:
 372              		.loc 1 207 0
 373 0010 EE68     		ldr	r6, [r5, #12]
 374              	.LVL43:
 375              		.loc 1 208 0
 376 0012 EC60     		str	r4, [r5, #12]
 377              		.loc 1 210 0
 378 0014 FFF7FEFF 		bl	dbg_check_unlock
 379              	.LVL44:
 380              	.LBB14:
 381 0018 2346     		mov	r3, r4
 382              	.LVL45:
 383              	@ 210 "../../../os/kernel/src/chevents.c" 1
 384 001a 83F31188 		msr     BASEPRI, r3
 385              	@ 0 "" 2
 386              	.LVL46:
 387              		.thumb
 388              	.LBE14:
 389              		.loc 1 212 0
 390 001e 3046     		mov	r0, r6
 391 0020 70BD     		pop	{r4, r5, r6, pc}
 392              		.cfi_endproc
 393              	.LFE12:
 394              		.size	chEvtGetAndClearFlags, .-chEvtGetAndClearFlags
 395 0022 00BFAFF3 		.section	.text.chEvtSignalI,"ax",%progbits
 395      0080AFF3 
ARM GAS  C:\cygwin\tmp\cciwpTCk.s 			page 8


 395      0080AFF3 
 395      0080
 396              		.align	2
 397              		.p2align 4,,15
 398              		.global	chEvtSignalI
 399              		.thumb
 400              		.thumb_func
 401              		.type	chEvtSignalI, %function
 402              	chEvtSignalI:
 403              	.LFB14:
 404              		.loc 1 244 0
 405              		.cfi_startproc
 406              		@ args = 0, pretend = 0, frame = 0
 407              		@ frame_needed = 0, uses_anonymous_args = 0
 408              	.LVL47:
 409 0000 38B5     		push	{r3, r4, r5, lr}
 410              	.LCFI5:
 411              		.cfi_def_cfa_offset 16
 412              		.cfi_offset 3, -16
 413              		.cfi_offset 4, -12
 414              		.cfi_offset 5, -8
 415              		.cfi_offset 14, -4
 416              		.loc 1 244 0
 417 0002 0446     		mov	r4, r0
 418 0004 0D46     		mov	r5, r1
 419              		.loc 1 246 0
 420 0006 FFF7FEFF 		bl	chDbgCheckClassI
 421              	.LVL48:
 422              		.loc 1 247 0
 423 000a C4B1     		cbz	r4, .L29
 424              	.L25:
 425              		.loc 1 249 0
 426 000c E26B     		ldr	r2, [r4, #60]
 427              		.loc 1 251 0
 428 000e 94F82030 		ldrb	r3, [r4, #32]	@ zero_extendqisi2
 429              		.loc 1 249 0
 430 0012 45EA0201 		orr	r1, r5, r2
 431              		.loc 1 251 0
 432 0016 082B     		cmp	r3, #8
 433              		.loc 1 249 0
 434 0018 E163     		str	r1, [r4, #60]
 435              		.loc 1 251 0
 436 001a 0CD0     		beq	.L30
 437              		.loc 1 252 0
 438 001c 092B     		cmp	r3, #9
 439 001e 00D0     		beq	.L31
 440              	.L24:
 441 0020 38BD     		pop	{r3, r4, r5, pc}
 442              	.L31:
 443              		.loc 1 254 0
 444 0022 A36A     		ldr	r3, [r4, #40]
 445 0024 1940     		ands	r1, r1, r3
 446              		.loc 1 253 0
 447 0026 8B42     		cmp	r3, r1
 448 0028 FAD1     		bne	.L24
 449              	.L27:
 450              	.LVL49:
ARM GAS  C:\cygwin\tmp\cciwpTCk.s 			page 9


 451              	.LBB17:
 452              	.LBB18:
 453              		.loc 1 255 0
 454 002a 2046     		mov	r0, r4
 455 002c FFF7FEFF 		bl	chSchReadyI
 456              	.LVL50:
 457 0030 0023     		movs	r3, #0
 458 0032 8362     		str	r3, [r0, #40]
 459 0034 38BD     		pop	{r3, r4, r5, pc}
 460              	.LVL51:
 461              	.L30:
 462              	.LBE18:
 463              	.LBE17:
 464              		.loc 1 252 0 discriminator 1
 465 0036 A36A     		ldr	r3, [r4, #40]
 466              		.loc 1 251 0 discriminator 1
 467 0038 1942     		tst	r1, r3
 468 003a F6D1     		bne	.L27
 469 003c 38BD     		pop	{r3, r4, r5, pc}
 470              	.L29:
 471              		.loc 1 247 0 discriminator 1
 472 003e 0248     		ldr	r0, .L32
 473 0040 FFF7FEFF 		bl	chDbgPanic
 474              	.LVL52:
 475 0044 E2E7     		b	.L25
 476              	.L33:
 477 0046 00BF     		.align	2
 478              	.L32:
 479 0048 2C000000 		.word	.LC2
 480              		.cfi_endproc
 481              	.LFE14:
 482              		.size	chEvtSignalI, .-chEvtSignalI
 483 004c AFF30080 		.section	.text.chEvtSignal,"ax",%progbits
 484              		.align	2
 485              		.p2align 4,,15
 486              		.global	chEvtSignal
 487              		.thumb
 488              		.thumb_func
 489              		.type	chEvtSignal, %function
 490              	chEvtSignal:
 491              	.LFB13:
 492              		.loc 1 222 0
 493              		.cfi_startproc
 494              		@ args = 0, pretend = 0, frame = 0
 495              		@ frame_needed = 0, uses_anonymous_args = 0
 496              	.LVL53:
 497 0000 38B5     		push	{r3, r4, r5, lr}
 498              	.LCFI6:
 499              		.cfi_def_cfa_offset 16
 500              		.cfi_offset 3, -16
 501              		.cfi_offset 4, -12
 502              		.cfi_offset 5, -8
 503              		.cfi_offset 14, -4
 504              		.loc 1 224 0
 505 0002 0446     		mov	r4, r0
 506              		.loc 1 222 0
 507 0004 0D46     		mov	r5, r1
ARM GAS  C:\cygwin\tmp\cciwpTCk.s 			page 10


 508              		.loc 1 224 0
 509 0006 80B1     		cbz	r0, .L36
 510              	.LVL54:
 511              	.L35:
 512              	.LBB19:
 513              		.loc 1 226 0
 514 0008 2023     		movs	r3, #32
 515              	.LVL55:
 516              	@ 226 "../../../os/kernel/src/chevents.c" 1
 517 000a 83F31188 		msr     BASEPRI, r3
 518              	@ 0 "" 2
 519              	.LVL56:
 520              		.thumb
 521              	.LBE19:
 522 000e FFF7FEFF 		bl	dbg_check_lock
 523              	.LVL57:
 524              		.loc 1 227 0
 525 0012 2046     		mov	r0, r4
 526 0014 2946     		mov	r1, r5
 527 0016 FFF7FEFF 		bl	chEvtSignalI
 528              	.LVL58:
 529              		.loc 1 228 0
 530 001a FFF7FEFF 		bl	chSchRescheduleS
 531              	.LVL59:
 532              		.loc 1 229 0
 533 001e FFF7FEFF 		bl	dbg_check_unlock
 534              	.LVL60:
 535              	.LBB20:
 536 0022 0023     		movs	r3, #0
 537              	.LVL61:
 538              	@ 229 "../../../os/kernel/src/chevents.c" 1
 539 0024 83F31188 		msr     BASEPRI, r3
 540              	@ 0 "" 2
 541              	.LVL62:
 542              		.thumb
 543 0028 38BD     		pop	{r3, r4, r5, pc}
 544              	.LVL63:
 545              	.L36:
 546              	.LBE20:
 547              		.loc 1 224 0 discriminator 1
 548 002a 0248     		ldr	r0, .L37
 549              	.LVL64:
 550 002c FFF7FEFF 		bl	chDbgPanic
 551              	.LVL65:
 552 0030 EAE7     		b	.L35
 553              	.L38:
 554 0032 00BF     		.align	2
 555              	.L37:
 556 0034 40000000 		.word	.LC3
 557              		.cfi_endproc
 558              	.LFE13:
 559              		.size	chEvtSignal, .-chEvtSignal
 560 0038 AFF30080 		.section	.text.chEvtBroadcastFlagsI,"ax",%progbits
 560      AFF30080 
 561              		.align	2
 562              		.p2align 4,,15
 563              		.global	chEvtBroadcastFlagsI
ARM GAS  C:\cygwin\tmp\cciwpTCk.s 			page 11


 564              		.thumb
 565              		.thumb_func
 566              		.type	chEvtBroadcastFlagsI, %function
 567              	chEvtBroadcastFlagsI:
 568              	.LFB11:
 569              		.loc 1 177 0
 570              		.cfi_startproc
 571              		@ args = 0, pretend = 0, frame = 0
 572              		@ frame_needed = 0, uses_anonymous_args = 0
 573              	.LVL66:
 574 0000 70B5     		push	{r4, r5, r6, lr}
 575              	.LCFI7:
 576              		.cfi_def_cfa_offset 16
 577              		.cfi_offset 4, -16
 578              		.cfi_offset 5, -12
 579              		.cfi_offset 6, -8
 580              		.cfi_offset 14, -4
 581              		.loc 1 177 0
 582 0002 0546     		mov	r5, r0
 583 0004 0E46     		mov	r6, r1
 584              		.loc 1 180 0
 585 0006 FFF7FEFF 		bl	chDbgCheckClassI
 586              	.LVL67:
 587              		.loc 1 181 0
 588 000a 65B1     		cbz	r5, .L46
 589              	.L40:
 590              		.loc 1 183 0
 591 000c 2C68     		ldr	r4, [r5, #0]
 592              	.LVL68:
 593              		.loc 1 184 0
 594 000e A542     		cmp	r5, r4
 595 0010 08D0     		beq	.L39
 596              	.L44:
 597              		.loc 1 186 0
 598 0012 201D     		adds	r0, r4, #4
 599 0014 0BC8     		ldmia	r0, {r0, r1, r3}
 600              		.loc 1 185 0
 601 0016 3343     		orrs	r3, r3, r6
 602 0018 E360     		str	r3, [r4, #12]
 603              		.loc 1 186 0
 604 001a FFF7FEFF 		bl	chEvtSignalI
 605              	.LVL69:
 606              		.loc 1 187 0
 607 001e 2468     		ldr	r4, [r4, #0]
 608              	.LVL70:
 609              		.loc 1 184 0
 610 0020 A542     		cmp	r5, r4
 611 0022 F6D1     		bne	.L44
 612              	.L39:
 613 0024 70BD     		pop	{r4, r5, r6, pc}
 614              	.LVL71:
 615              	.L46:
 616              		.loc 1 181 0 discriminator 1
 617 0026 0248     		ldr	r0, .L47
 618 0028 FFF7FEFF 		bl	chDbgPanic
 619              	.LVL72:
 620 002c EEE7     		b	.L40
ARM GAS  C:\cygwin\tmp\cciwpTCk.s 			page 12


 621              	.L48:
 622 002e 00BF     		.align	2
 623              	.L47:
 624 0030 50000000 		.word	.LC4
 625              		.cfi_endproc
 626              	.LFE11:
 627              		.size	chEvtBroadcastFlagsI, .-chEvtBroadcastFlagsI
 628 0034 AFF30080 		.section	.text.chEvtBroadcastFlags,"ax",%progbits
 628      AFF30080 
 628      AFF30080 
 629              		.align	2
 630              		.p2align 4,,15
 631              		.global	chEvtBroadcastFlags
 632              		.thumb
 633              		.thumb_func
 634              		.type	chEvtBroadcastFlags, %function
 635              	chEvtBroadcastFlags:
 636              	.LFB15:
 637              		.loc 1 271 0
 638              		.cfi_startproc
 639              		@ args = 0, pretend = 0, frame = 0
 640              		@ frame_needed = 0, uses_anonymous_args = 0
 641              	.LVL73:
 642 0000 38B5     		push	{r3, r4, r5, lr}
 643              	.LCFI8:
 644              		.cfi_def_cfa_offset 16
 645              		.cfi_offset 3, -16
 646              		.cfi_offset 4, -12
 647              		.cfi_offset 5, -8
 648              		.cfi_offset 14, -4
 649              		.loc 1 271 0
 650 0002 0546     		mov	r5, r0
 651 0004 0C46     		mov	r4, r1
 652              	.LBB21:
 653              		.loc 1 273 0
 654 0006 2023     		movs	r3, #32
 655              	.LVL74:
 656              	@ 273 "../../../os/kernel/src/chevents.c" 1
 657 0008 83F31188 		msr     BASEPRI, r3
 658              	@ 0 "" 2
 659              	.LVL75:
 660              		.thumb
 661              	.LBE21:
 662 000c FFF7FEFF 		bl	dbg_check_lock
 663              	.LVL76:
 664              		.loc 1 274 0
 665 0010 2846     		mov	r0, r5
 666 0012 2146     		mov	r1, r4
 667 0014 FFF7FEFF 		bl	chEvtBroadcastFlagsI
 668              	.LVL77:
 669              		.loc 1 275 0
 670 0018 FFF7FEFF 		bl	chSchRescheduleS
 671              	.LVL78:
 672              		.loc 1 276 0
 673 001c FFF7FEFF 		bl	dbg_check_unlock
 674              	.LVL79:
 675              	.LBB22:
ARM GAS  C:\cygwin\tmp\cciwpTCk.s 			page 13


 676 0020 0023     		movs	r3, #0
 677              	.LVL80:
 678              	@ 276 "../../../os/kernel/src/chevents.c" 1
 679 0022 83F31188 		msr     BASEPRI, r3
 680              	@ 0 "" 2
 681              	.LVL81:
 682              		.thumb
 683 0026 38BD     		pop	{r3, r4, r5, pc}
 684              	.LBE22:
 685              		.cfi_endproc
 686              	.LFE15:
 687              		.size	chEvtBroadcastFlags, .-chEvtBroadcastFlags
 688 0028 AFF30080 		.section	.text.chEvtGetAndClearFlagsI,"ax",%progbits
 688      AFF30080 
 689              		.align	2
 690              		.p2align 4,,15
 691              		.global	chEvtGetAndClearFlagsI
 692              		.thumb
 693              		.thumb_func
 694              		.type	chEvtGetAndClearFlagsI, %function
 695              	chEvtGetAndClearFlagsI:
 696              	.LFB16:
 697              		.loc 1 290 0
 698              		.cfi_startproc
 699              		@ args = 0, pretend = 0, frame = 0
 700              		@ frame_needed = 0, uses_anonymous_args = 0
 701              		@ link register save eliminated.
 702              	.LVL82:
 703              		.loc 1 290 0
 704 0000 0346     		mov	r3, r0
 705              		.loc 1 294 0
 706 0002 0022     		movs	r2, #0
 707              		.loc 1 293 0
 708 0004 C068     		ldr	r0, [r0, #12]
 709              	.LVL83:
 710              		.loc 1 294 0
 711 0006 DA60     		str	r2, [r3, #12]
 712              		.loc 1 297 0
 713 0008 7047     		bx	lr
 714              		.cfi_endproc
 715              	.LFE16:
 716              		.size	chEvtGetAndClearFlagsI, .-chEvtGetAndClearFlagsI
 717 000a 00BFAFF3 		.section	.text.chEvtDispatch,"ax",%progbits
 717      0080
 718              		.align	2
 719              		.p2align 4,,15
 720              		.global	chEvtDispatch
 721              		.thumb
 722              		.thumb_func
 723              		.type	chEvtDispatch, %function
 724              	chEvtDispatch:
 725              	.LFB17:
 726              		.loc 1 308 0
 727              		.cfi_startproc
 728              		@ args = 0, pretend = 0, frame = 0
 729              		@ frame_needed = 0, uses_anonymous_args = 0
 730              	.LVL84:
ARM GAS  C:\cygwin\tmp\cciwpTCk.s 			page 14


 731 0000 2DE9F041 		push	{r4, r5, r6, r7, r8, lr}
 732              	.LCFI9:
 733              		.cfi_def_cfa_offset 24
 734              		.cfi_offset 4, -24
 735              		.cfi_offset 5, -20
 736              		.cfi_offset 6, -16
 737              		.cfi_offset 7, -12
 738              		.cfi_offset 8, -8
 739              		.cfi_offset 14, -4
 740              		.loc 1 311 0
 741 0004 8046     		mov	r8, r0
 742              		.loc 1 308 0
 743 0006 0D46     		mov	r5, r1
 744              		.loc 1 311 0
 745 0008 D0B1     		cbz	r0, .L62
 746              	.LVL85:
 747              	.L52:
 748              		.loc 1 314 0 discriminator 1
 749 000a 8DB1     		cbz	r5, .L51
 750              		.loc 1 314 0 is_stmt 0
 751 000c 0026     		movs	r6, #0
 752 000e 3446     		mov	r4, r6
 753              		.loc 1 315 0 is_stmt 1
 754 0010 0127     		movs	r7, #1
 755              	.LVL86:
 756              	.L53:
 757 0012 07FA04F3 		lsl	r3, r7, r4
 758 0016 2B42     		tst	r3, r5
 759 0018 06D0     		beq	.L54
 760              		.loc 1 316 0
 761 001a 58F80620 		ldr	r2, [r8, r6]
 762              		.loc 1 319 0
 763 001e 25EA0305 		bic	r5, r5, r3
 764              	.LVL87:
 765              		.loc 1 316 0
 766 0022 3AB1     		cbz	r2, .L63
 767              	.L55:
 768              	.LVL88:
 769              		.loc 1 320 0
 770 0024 2046     		mov	r0, r4
 771 0026 9047     		blx	r2
 772              	.LVL89:
 773              	.L54:
 774              		.loc 1 322 0
 775 0028 0134     		adds	r4, r4, #1
 776              	.LVL90:
 777 002a 0436     		adds	r6, r6, #4
 778              		.loc 1 314 0
 779 002c 002D     		cmp	r5, #0
 780 002e F0D1     		bne	.L53
 781              	.LVL91:
 782              	.L51:
 783 0030 BDE8F081 		pop	{r4, r5, r6, r7, r8, pc}
 784              	.LVL92:
 785              	.L63:
 786              		.loc 1 316 0 discriminator 1
 787 0034 0448     		ldr	r0, .L64
ARM GAS  C:\cygwin\tmp\cciwpTCk.s 			page 15


 788 0036 FFF7FEFF 		bl	chDbgPanic
 789              	.LVL93:
 790 003a 58F80620 		ldr	r2, [r8, r6]
 791 003e F1E7     		b	.L55
 792              	.LVL94:
 793              	.L62:
 794              		.loc 1 311 0 discriminator 1
 795 0040 0248     		ldr	r0, .L64+4
 796              	.LVL95:
 797 0042 FFF7FEFF 		bl	chDbgPanic
 798              	.LVL96:
 799 0046 E0E7     		b	.L52
 800              	.L65:
 801              		.align	2
 802              	.L64:
 803 0048 7C000000 		.word	.LC6
 804 004c 68000000 		.word	.LC5
 805              		.cfi_endproc
 806              	.LFE17:
 807              		.size	chEvtDispatch, .-chEvtDispatch
 808              		.section	.text.chEvtWaitOne,"ax",%progbits
 809              		.align	2
 810              		.p2align 4,,15
 811              		.global	chEvtWaitOne
 812              		.thumb
 813              		.thumb_func
 814              		.type	chEvtWaitOne, %function
 815              	chEvtWaitOne:
 816              	.LFB18:
 817              		.loc 1 343 0
 818              		.cfi_startproc
 819              		@ args = 0, pretend = 0, frame = 0
 820              		@ frame_needed = 0, uses_anonymous_args = 0
 821              	.LVL97:
 822 0000 38B5     		push	{r3, r4, r5, lr}
 823              	.LCFI10:
 824              		.cfi_def_cfa_offset 16
 825              		.cfi_offset 3, -16
 826              		.cfi_offset 4, -12
 827              		.cfi_offset 5, -8
 828              		.cfi_offset 14, -4
 829              		.loc 1 344 0
 830 0002 0F4B     		ldr	r3, .L68
 831              		.loc 1 343 0
 832 0004 0446     		mov	r4, r0
 833              		.loc 1 344 0
 834 0006 9D69     		ldr	r5, [r3, #24]
 835              	.LVL98:
 836              	.LBB23:
 837              		.loc 1 347 0
 838 0008 2023     		movs	r3, #32
 839              	.LVL99:
 840              	@ 347 "../../../os/kernel/src/chevents.c" 1
 841 000a 83F31188 		msr     BASEPRI, r3
 842              	@ 0 "" 2
 843              	.LVL100:
 844              		.thumb
ARM GAS  C:\cygwin\tmp\cciwpTCk.s 			page 16


 845              	.LBE23:
 846 000e FFF7FEFF 		bl	dbg_check_lock
 847              	.LVL101:
 848              		.loc 1 349 0
 849 0012 EB6B     		ldr	r3, [r5, #60]
 850              	.LVL102:
 851 0014 14EA0302 		ands	r2, r4, r3
 852              	.LVL103:
 853 0018 06D1     		bne	.L67
 854              		.loc 1 350 0
 855 001a AC62     		str	r4, [r5, #40]
 856              		.loc 1 351 0
 857 001c 0820     		movs	r0, #8
 858 001e FFF7FEFF 		bl	chSchGoSleepS
 859              	.LVL104:
 860              		.loc 1 352 0
 861 0022 EB6B     		ldr	r3, [r5, #60]
 862 0024 04EA0302 		and	r2, r4, r3
 863              	.LVL105:
 864              	.L67:
 865              		.loc 1 354 0
 866 0028 5442     		negs	r4, r2
 867              	.LVL106:
 868 002a 1440     		ands	r4, r4, r2
 869              	.LVL107:
 870              		.loc 1 355 0
 871 002c 23EA0403 		bic	r3, r3, r4
 872 0030 EB63     		str	r3, [r5, #60]
 873              		.loc 1 357 0
 874 0032 FFF7FEFF 		bl	dbg_check_unlock
 875              	.LVL108:
 876              	.LBB24:
 877 0036 0023     		movs	r3, #0
 878              	.LVL109:
 879              	@ 357 "../../../os/kernel/src/chevents.c" 1
 880 0038 83F31188 		msr     BASEPRI, r3
 881              	@ 0 "" 2
 882              	.LVL110:
 883              		.thumb
 884              	.LBE24:
 885              		.loc 1 359 0
 886 003c 2046     		mov	r0, r4
 887 003e 38BD     		pop	{r3, r4, r5, pc}
 888              	.L69:
 889              		.align	2
 890              	.L68:
 891 0040 00000000 		.word	rlist
 892              		.cfi_endproc
 893              	.LFE18:
 894              		.size	chEvtWaitOne, .-chEvtWaitOne
 895 0044 AFF30080 		.section	.text.chEvtWaitAny,"ax",%progbits
 895      AFF30080 
 895      AFF30080 
 896              		.align	2
 897              		.p2align 4,,15
 898              		.global	chEvtWaitAny
 899              		.thumb
ARM GAS  C:\cygwin\tmp\cciwpTCk.s 			page 17


 900              		.thumb_func
 901              		.type	chEvtWaitAny, %function
 902              	chEvtWaitAny:
 903              	.LFB19:
 904              		.loc 1 372 0
 905              		.cfi_startproc
 906              		@ args = 0, pretend = 0, frame = 0
 907              		@ frame_needed = 0, uses_anonymous_args = 0
 908              	.LVL111:
 909              		.loc 1 373 0
 910 0000 0E4B     		ldr	r3, .L72
 911              		.loc 1 372 0
 912 0002 70B5     		push	{r4, r5, r6, lr}
 913              	.LCFI11:
 914              		.cfi_def_cfa_offset 16
 915              		.cfi_offset 4, -16
 916              		.cfi_offset 5, -12
 917              		.cfi_offset 6, -8
 918              		.cfi_offset 14, -4
 919              		.loc 1 373 0
 920 0004 9D69     		ldr	r5, [r3, #24]
 921              	.LVL112:
 922              		.loc 1 372 0
 923 0006 0446     		mov	r4, r0
 924              	.LBB25:
 925              		.loc 1 376 0
 926 0008 2023     		movs	r3, #32
 927              	.LVL113:
 928              	@ 376 "../../../os/kernel/src/chevents.c" 1
 929 000a 83F31188 		msr     BASEPRI, r3
 930              	@ 0 "" 2
 931              	.LVL114:
 932              		.thumb
 933              	.LBE25:
 934 000e FFF7FEFF 		bl	dbg_check_lock
 935              	.LVL115:
 936              		.loc 1 378 0
 937 0012 EB6B     		ldr	r3, [r5, #60]
 938              	.LVL116:
 939 0014 14EA0306 		ands	r6, r4, r3
 940              	.LVL117:
 941 0018 06D1     		bne	.L71
 942              		.loc 1 379 0
 943 001a AC62     		str	r4, [r5, #40]
 944              		.loc 1 380 0
 945 001c 0820     		movs	r0, #8
 946 001e FFF7FEFF 		bl	chSchGoSleepS
 947              	.LVL118:
 948              		.loc 1 381 0
 949 0022 EB6B     		ldr	r3, [r5, #60]
 950 0024 04EA0306 		and	r6, r4, r3
 951              	.LVL119:
 952              	.L71:
 953              		.loc 1 383 0
 954 0028 23EA0603 		bic	r3, r3, r6
 955 002c EB63     		str	r3, [r5, #60]
 956              		.loc 1 385 0
ARM GAS  C:\cygwin\tmp\cciwpTCk.s 			page 18


 957 002e FFF7FEFF 		bl	dbg_check_unlock
 958              	.LVL120:
 959              	.LBB26:
 960 0032 0023     		movs	r3, #0
 961              	.LVL121:
 962              	@ 385 "../../../os/kernel/src/chevents.c" 1
 963 0034 83F31188 		msr     BASEPRI, r3
 964              	@ 0 "" 2
 965              	.LVL122:
 966              		.thumb
 967              	.LBE26:
 968              		.loc 1 387 0
 969 0038 3046     		mov	r0, r6
 970 003a 70BD     		pop	{r4, r5, r6, pc}
 971              	.L73:
 972              		.align	2
 973              	.L72:
 974 003c 00000000 		.word	rlist
 975              		.cfi_endproc
 976              	.LFE19:
 977              		.size	chEvtWaitAny, .-chEvtWaitAny
 978              		.section	.text.chEvtWaitAll,"ax",%progbits
 979              		.align	2
 980              		.p2align 4,,15
 981              		.global	chEvtWaitAll
 982              		.thumb
 983              		.thumb_func
 984              		.type	chEvtWaitAll, %function
 985              	chEvtWaitAll:
 986              	.LFB20:
 987              		.loc 1 400 0
 988              		.cfi_startproc
 989              		@ args = 0, pretend = 0, frame = 0
 990              		@ frame_needed = 0, uses_anonymous_args = 0
 991              	.LVL123:
 992 0000 38B5     		push	{r3, r4, r5, lr}
 993              	.LCFI12:
 994              		.cfi_def_cfa_offset 16
 995              		.cfi_offset 3, -16
 996              		.cfi_offset 4, -12
 997              		.cfi_offset 5, -8
 998              		.cfi_offset 14, -4
 999              		.loc 1 401 0
 1000 0002 0E4B     		ldr	r3, .L76
 1001              		.loc 1 400 0
 1002 0004 0446     		mov	r4, r0
 1003              		.loc 1 401 0
 1004 0006 9D69     		ldr	r5, [r3, #24]
 1005              	.LVL124:
 1006              	.LBB27:
 1007              		.loc 1 403 0
 1008 0008 2023     		movs	r3, #32
 1009              	.LVL125:
 1010              	@ 403 "../../../os/kernel/src/chevents.c" 1
 1011 000a 83F31188 		msr     BASEPRI, r3
 1012              	@ 0 "" 2
 1013              	.LVL126:
ARM GAS  C:\cygwin\tmp\cciwpTCk.s 			page 19


 1014              		.thumb
 1015              	.LBE27:
 1016 000e FFF7FEFF 		bl	dbg_check_lock
 1017              	.LVL127:
 1018              		.loc 1 405 0
 1019 0012 EB6B     		ldr	r3, [r5, #60]
 1020 0014 04EA0302 		and	r2, r4, r3
 1021 0018 A242     		cmp	r2, r4
 1022 001a 04D0     		beq	.L75
 1023              		.loc 1 406 0
 1024 001c AC62     		str	r4, [r5, #40]
 1025              		.loc 1 407 0
 1026 001e 0920     		movs	r0, #9
 1027 0020 FFF7FEFF 		bl	chSchGoSleepS
 1028              	.LVL128:
 1029 0024 EB6B     		ldr	r3, [r5, #60]
 1030              	.L75:
 1031              		.loc 1 409 0
 1032 0026 23EA0403 		bic	r3, r3, r4
 1033 002a EB63     		str	r3, [r5, #60]
 1034              		.loc 1 411 0
 1035 002c FFF7FEFF 		bl	dbg_check_unlock
 1036              	.LVL129:
 1037              	.LBB28:
 1038 0030 0023     		movs	r3, #0
 1039              	.LVL130:
 1040              	@ 411 "../../../os/kernel/src/chevents.c" 1
 1041 0032 83F31188 		msr     BASEPRI, r3
 1042              	@ 0 "" 2
 1043              	.LVL131:
 1044              		.thumb
 1045              	.LBE28:
 1046              		.loc 1 413 0
 1047 0036 2046     		mov	r0, r4
 1048 0038 38BD     		pop	{r3, r4, r5, pc}
 1049              	.L77:
 1050 003a 00BF     		.align	2
 1051              	.L76:
 1052 003c 00000000 		.word	rlist
 1053              		.cfi_endproc
 1054              	.LFE20:
 1055              		.size	chEvtWaitAll, .-chEvtWaitAll
 1056              		.section	.text.chEvtWaitOneTimeout,"ax",%progbits
 1057              		.align	2
 1058              		.p2align 4,,15
 1059              		.global	chEvtWaitOneTimeout
 1060              		.thumb
 1061              		.thumb_func
 1062              		.type	chEvtWaitOneTimeout, %function
 1063              	chEvtWaitOneTimeout:
 1064              	.LFB21:
 1065              		.loc 1 439 0
 1066              		.cfi_startproc
 1067              		@ args = 0, pretend = 0, frame = 0
 1068              		@ frame_needed = 0, uses_anonymous_args = 0
 1069              	.LVL132:
 1070 0000 F8B5     		push	{r3, r4, r5, r6, r7, lr}
ARM GAS  C:\cygwin\tmp\cciwpTCk.s 			page 20


 1071              	.LCFI13:
 1072              		.cfi_def_cfa_offset 24
 1073              		.cfi_offset 3, -24
 1074              		.cfi_offset 4, -20
 1075              		.cfi_offset 5, -16
 1076              		.cfi_offset 6, -12
 1077              		.cfi_offset 7, -8
 1078              		.cfi_offset 14, -4
 1079              		.loc 1 440 0
 1080 0002 164B     		ldr	r3, .L84
 1081              		.loc 1 439 0
 1082 0004 0546     		mov	r5, r0
 1083              		.loc 1 440 0
 1084 0006 9E69     		ldr	r6, [r3, #24]
 1085              	.LVL133:
 1086              		.loc 1 439 0
 1087 0008 0F46     		mov	r7, r1
 1088              	.LBB29:
 1089              		.loc 1 443 0
 1090 000a 2023     		movs	r3, #32
 1091              	.LVL134:
 1092              	@ 443 "../../../os/kernel/src/chevents.c" 1
 1093 000c 83F31188 		msr     BASEPRI, r3
 1094              	@ 0 "" 2
 1095              	.LVL135:
 1096              		.thumb
 1097              	.LBE29:
 1098 0010 FFF7FEFF 		bl	dbg_check_lock
 1099              	.LVL136:
 1100              		.loc 1 445 0
 1101 0014 F36B     		ldr	r3, [r6, #60]
 1102              	.LVL137:
 1103 0016 15EA0304 		ands	r4, r5, r3
 1104              	.LVL138:
 1105 001a 0BD1     		bne	.L79
 1106              		.loc 1 446 0
 1107 001c B7B1     		cbz	r7, .L83
 1108              		.loc 1 451 0
 1109 001e 0820     		movs	r0, #8
 1110              		.loc 1 450 0
 1111 0020 B562     		str	r5, [r6, #40]
 1112              		.loc 1 451 0
 1113 0022 3946     		mov	r1, r7
 1114 0024 FFF7FEFF 		bl	chSchGoSleepTimeoutS
 1115              	.LVL139:
 1116 0028 0028     		cmp	r0, #0
 1117              		.loc 1 455 0
 1118 002a A4BF     		itt	ge
 1119 002c F36B     		ldrge	r3, [r6, #60]
 1120 002e 05EA0304 		andge	r4, r5, r3
 1121              	.LVL140:
 1122              		.loc 1 451 0
 1123 0032 0BDB     		blt	.L83
 1124              	.L79:
 1125              	.LVL141:
 1126              		.loc 1 457 0
 1127 0034 6242     		negs	r2, r4
ARM GAS  C:\cygwin\tmp\cciwpTCk.s 			page 21


 1128 0036 1440     		ands	r4, r4, r2
 1129              	.LVL142:
 1130              		.loc 1 458 0
 1131 0038 23EA0403 		bic	r3, r3, r4
 1132 003c F363     		str	r3, [r6, #60]
 1133              		.loc 1 460 0
 1134 003e FFF7FEFF 		bl	dbg_check_unlock
 1135              	.LVL143:
 1136              	.LBB30:
 1137 0042 0023     		movs	r3, #0
 1138              	.LVL144:
 1139              	@ 460 "../../../os/kernel/src/chevents.c" 1
 1140 0044 83F31188 		msr     BASEPRI, r3
 1141              	@ 0 "" 2
 1142              	.LVL145:
 1143              		.thumb
 1144              	.LBE30:
 1145              		.loc 1 462 0
 1146 0048 2046     		mov	r0, r4
 1147 004a F8BD     		pop	{r3, r4, r5, r6, r7, pc}
 1148              	.LVL146:
 1149              	.L83:
 1150              		.loc 1 452 0
 1151 004c FFF7FEFF 		bl	dbg_check_unlock
 1152              	.LVL147:
 1153              	.LBB31:
 1154 0050 2346     		mov	r3, r4
 1155              	.LVL148:
 1156              	@ 452 "../../../os/kernel/src/chevents.c" 1
 1157 0052 83F31188 		msr     BASEPRI, r3
 1158              	@ 0 "" 2
 1159              	.LVL149:
 1160              		.thumb
 1161              	.LBE31:
 1162              		.loc 1 462 0
 1163 0056 2046     		mov	r0, r4
 1164 0058 F8BD     		pop	{r3, r4, r5, r6, r7, pc}
 1165              	.L85:
 1166 005a 00BF     		.align	2
 1167              	.L84:
 1168 005c 00000000 		.word	rlist
 1169              		.cfi_endproc
 1170              	.LFE21:
 1171              		.size	chEvtWaitOneTimeout, .-chEvtWaitOneTimeout
 1172              		.section	.text.chEvtWaitAnyTimeout,"ax",%progbits
 1173              		.align	2
 1174              		.p2align 4,,15
 1175              		.global	chEvtWaitAnyTimeout
 1176              		.thumb
 1177              		.thumb_func
 1178              		.type	chEvtWaitAnyTimeout, %function
 1179              	chEvtWaitAnyTimeout:
 1180              	.LFB22:
 1181              		.loc 1 482 0
 1182              		.cfi_startproc
 1183              		@ args = 0, pretend = 0, frame = 0
 1184              		@ frame_needed = 0, uses_anonymous_args = 0
ARM GAS  C:\cygwin\tmp\cciwpTCk.s 			page 22


 1185              	.LVL150:
 1186 0000 F8B5     		push	{r3, r4, r5, r6, r7, lr}
 1187              	.LCFI14:
 1188              		.cfi_def_cfa_offset 24
 1189              		.cfi_offset 3, -24
 1190              		.cfi_offset 4, -20
 1191              		.cfi_offset 5, -16
 1192              		.cfi_offset 6, -12
 1193              		.cfi_offset 7, -8
 1194              		.cfi_offset 14, -4
 1195              		.loc 1 483 0
 1196 0002 154B     		ldr	r3, .L92
 1197              		.loc 1 482 0
 1198 0004 0446     		mov	r4, r0
 1199              		.loc 1 483 0
 1200 0006 9D69     		ldr	r5, [r3, #24]
 1201              	.LVL151:
 1202              		.loc 1 482 0
 1203 0008 0F46     		mov	r7, r1
 1204              	.LBB32:
 1205              		.loc 1 486 0
 1206 000a 2023     		movs	r3, #32
 1207              	.LVL152:
 1208              	@ 486 "../../../os/kernel/src/chevents.c" 1
 1209 000c 83F31188 		msr     BASEPRI, r3
 1210              	@ 0 "" 2
 1211              	.LVL153:
 1212              		.thumb
 1213              	.LBE32:
 1214 0010 FFF7FEFF 		bl	dbg_check_lock
 1215              	.LVL154:
 1216              		.loc 1 488 0
 1217 0014 EA6B     		ldr	r2, [r5, #60]
 1218              	.LVL155:
 1219 0016 14EA0206 		ands	r6, r4, r2
 1220              	.LVL156:
 1221 001a 0BD1     		bne	.L87
 1222              		.loc 1 489 0
 1223 001c A7B1     		cbz	r7, .L91
 1224              		.loc 1 494 0
 1225 001e 0820     		movs	r0, #8
 1226              		.loc 1 493 0
 1227 0020 AC62     		str	r4, [r5, #40]
 1228              		.loc 1 494 0
 1229 0022 3946     		mov	r1, r7
 1230 0024 FFF7FEFF 		bl	chSchGoSleepTimeoutS
 1231              	.LVL157:
 1232 0028 0028     		cmp	r0, #0
 1233              		.loc 1 498 0
 1234 002a A4BF     		itt	ge
 1235 002c EA6B     		ldrge	r2, [r5, #60]
 1236 002e 04EA0206 		andge	r6, r4, r2
 1237              	.LVL158:
 1238              		.loc 1 494 0
 1239 0032 09DB     		blt	.L91
 1240              	.L87:
 1241              	.LVL159:
ARM GAS  C:\cygwin\tmp\cciwpTCk.s 			page 23


 1242              		.loc 1 500 0
 1243 0034 22EA0602 		bic	r2, r2, r6
 1244 0038 EA63     		str	r2, [r5, #60]
 1245              		.loc 1 502 0
 1246 003a FFF7FEFF 		bl	dbg_check_unlock
 1247              	.LVL160:
 1248              	.LBB33:
 1249 003e 0023     		movs	r3, #0
 1250              	.LVL161:
 1251              	@ 502 "../../../os/kernel/src/chevents.c" 1
 1252 0040 83F31188 		msr     BASEPRI, r3
 1253              	@ 0 "" 2
 1254              	.LVL162:
 1255              		.thumb
 1256              	.LBE33:
 1257              		.loc 1 504 0
 1258 0044 3046     		mov	r0, r6
 1259 0046 F8BD     		pop	{r3, r4, r5, r6, r7, pc}
 1260              	.LVL163:
 1261              	.L91:
 1262              		.loc 1 495 0
 1263 0048 FFF7FEFF 		bl	dbg_check_unlock
 1264              	.LVL164:
 1265              	.LBB34:
 1266 004c 3346     		mov	r3, r6
 1267              	.LVL165:
 1268              	@ 495 "../../../os/kernel/src/chevents.c" 1
 1269 004e 83F31188 		msr     BASEPRI, r3
 1270              	@ 0 "" 2
 1271              	.LVL166:
 1272              		.thumb
 1273              	.LBE34:
 1274              		.loc 1 504 0
 1275 0052 3046     		mov	r0, r6
 1276 0054 F8BD     		pop	{r3, r4, r5, r6, r7, pc}
 1277              	.L93:
 1278 0056 00BF     		.align	2
 1279              	.L92:
 1280 0058 00000000 		.word	rlist
 1281              		.cfi_endproc
 1282              	.LFE22:
 1283              		.size	chEvtWaitAnyTimeout, .-chEvtWaitAnyTimeout
 1284 005c AFF30080 		.section	.text.chEvtWaitAllTimeout,"ax",%progbits
 1285              		.align	2
 1286              		.p2align 4,,15
 1287              		.global	chEvtWaitAllTimeout
 1288              		.thumb
 1289              		.thumb_func
 1290              		.type	chEvtWaitAllTimeout, %function
 1291              	chEvtWaitAllTimeout:
 1292              	.LFB23:
 1293              		.loc 1 523 0
 1294              		.cfi_startproc
 1295              		@ args = 0, pretend = 0, frame = 0
 1296              		@ frame_needed = 0, uses_anonymous_args = 0
 1297              	.LVL167:
 1298              		.loc 1 524 0
ARM GAS  C:\cygwin\tmp\cciwpTCk.s 			page 24


 1299 0000 184B     		ldr	r3, .L100
 1300              		.loc 1 523 0
 1301 0002 70B5     		push	{r4, r5, r6, lr}
 1302              	.LCFI15:
 1303              		.cfi_def_cfa_offset 16
 1304              		.cfi_offset 4, -16
 1305              		.cfi_offset 5, -12
 1306              		.cfi_offset 6, -8
 1307              		.cfi_offset 14, -4
 1308              		.loc 1 524 0
 1309 0004 9D69     		ldr	r5, [r3, #24]
 1310              	.LVL168:
 1311              		.loc 1 523 0
 1312 0006 0446     		mov	r4, r0
 1313 0008 0E46     		mov	r6, r1
 1314              	.LBB35:
 1315              		.loc 1 526 0
 1316 000a 2023     		movs	r3, #32
 1317              	.LVL169:
 1318              	@ 526 "../../../os/kernel/src/chevents.c" 1
 1319 000c 83F31188 		msr     BASEPRI, r3
 1320              	@ 0 "" 2
 1321              	.LVL170:
 1322              		.thumb
 1323              	.LBE35:
 1324 0010 FFF7FEFF 		bl	dbg_check_lock
 1325              	.LVL171:
 1326              		.loc 1 528 0
 1327 0014 EA6B     		ldr	r2, [r5, #60]
 1328 0016 04EA0203 		and	r3, r4, r2
 1329 001a A342     		cmp	r3, r4
 1330 001c 08D0     		beq	.L95
 1331              		.loc 1 529 0
 1332 001e 8EB1     		cbz	r6, .L99
 1333              		.loc 1 534 0
 1334 0020 0920     		movs	r0, #9
 1335              		.loc 1 533 0
 1336 0022 AC62     		str	r4, [r5, #40]
 1337              		.loc 1 534 0
 1338 0024 3146     		mov	r1, r6
 1339 0026 FFF7FEFF 		bl	chSchGoSleepTimeoutS
 1340              	.LVL172:
 1341 002a 0028     		cmp	r0, #0
 1342 002c 12DB     		blt	.L98
 1343 002e EA6B     		ldr	r2, [r5, #60]
 1344              	.L95:
 1345              		.loc 1 539 0
 1346 0030 22EA0402 		bic	r2, r2, r4
 1347 0034 EA63     		str	r2, [r5, #60]
 1348              		.loc 1 541 0
 1349 0036 FFF7FEFF 		bl	dbg_check_unlock
 1350              	.LVL173:
 1351              	.LBB36:
 1352 003a 0023     		movs	r3, #0
 1353              	.LVL174:
 1354              	@ 541 "../../../os/kernel/src/chevents.c" 1
 1355 003c 83F31188 		msr     BASEPRI, r3
ARM GAS  C:\cygwin\tmp\cciwpTCk.s 			page 25


 1356              	@ 0 "" 2
 1357              	.LVL175:
 1358              		.thumb
 1359              	.L97:
 1360              	.LBE36:
 1361              		.loc 1 543 0
 1362 0040 2046     		mov	r0, r4
 1363 0042 70BD     		pop	{r4, r5, r6, pc}
 1364              	.LVL176:
 1365              	.L99:
 1366              		.loc 1 530 0
 1367 0044 FFF7FEFF 		bl	dbg_check_unlock
 1368              	.LVL177:
 1369              	.LBB37:
 1370 0048 3346     		mov	r3, r6
 1371              	.LVL178:
 1372              	@ 530 "../../../os/kernel/src/chevents.c" 1
 1373 004a 83F31188 		msr     BASEPRI, r3
 1374              	@ 0 "" 2
 1375              	.LVL179:
 1376              		.thumb
 1377              	.LBE37:
 1378              		.loc 1 531 0
 1379 004e 3446     		mov	r4, r6
 1380              	.LVL180:
 1381              		.loc 1 543 0
 1382 0050 2046     		mov	r0, r4
 1383 0052 70BD     		pop	{r4, r5, r6, pc}
 1384              	.LVL181:
 1385              	.L98:
 1386              		.loc 1 535 0
 1387 0054 FFF7FEFF 		bl	dbg_check_unlock
 1388              	.LVL182:
 1389              	.LBB38:
 1390 0058 0023     		movs	r3, #0
 1391              	@ 535 "../../../os/kernel/src/chevents.c" 1
 1392 005a 83F31188 		msr     BASEPRI, r3
 1393              	@ 0 "" 2
 1394              	.LVL183:
 1395              		.thumb
 1396              	.LBE38:
 1397              		.loc 1 536 0
 1398 005e 1C46     		mov	r4, r3
 1399              	.LVL184:
 1400 0060 EEE7     		b	.L97
 1401              	.L101:
 1402 0062 00BF     		.align	2
 1403              	.L100:
 1404 0064 00000000 		.word	rlist
 1405              		.cfi_endproc
 1406              	.LFE23:
 1407              		.size	chEvtWaitAllTimeout, .-chEvtWaitAllTimeout
 1408 0068 AFF30080 		.section	.rodata.str1.4,"aMS",%progbits,1
 1408      AFF30080 
 1409              		.align	2
 1410              	.LC0:
 1411 0000 22636845 		.ascii	"\"chEvtRegisterMask\"()\000"
ARM GAS  C:\cygwin\tmp\cciwpTCk.s 			page 26


 1411      76745265 
 1411      67697374 
 1411      65724D61 
 1411      736B2228 
 1412 0016 0000     		.space	2
 1413              	.LC1:
 1414 0018 22636845 		.ascii	"\"chEvtUnregister\"()\000"
 1414      7674556E 
 1414      72656769 
 1414      73746572 
 1414      22282900 
 1415              	.LC2:
 1416 002c 22636845 		.ascii	"\"chEvtSignalI\"()\000"
 1416      76745369 
 1416      676E616C 
 1416      49222829 
 1416      00
 1417 003d 000000   		.space	3
 1418              	.LC3:
 1419 0040 22636845 		.ascii	"\"chEvtSignal\"()\000"
 1419      76745369 
 1419      676E616C 
 1419      22282900 
 1420              	.LC4:
 1421 0050 22636845 		.ascii	"\"chEvtBroadcastMaskI\"()\000"
 1421      76744272 
 1421      6F616463 
 1421      6173744D 
 1421      61736B49 
 1422              	.LC5:
 1423 0068 22636845 		.ascii	"\"chEvtDispatch\"()\000"
 1423      76744469 
 1423      73706174 
 1423      63682228 
 1423      2900
 1424 007a 0000     		.space	2
 1425              	.LC6:
 1426 007c 63684576 		.ascii	"chEvtDispatch(), #1\000"
 1426      74446973 
 1426      70617463 
 1426      6828292C 
 1426      20233100 
 1427              		.text
 1428              	.Letext0:
 1429              		.file 2 "c:/chibinew/tools/yagarto-tools/yagarto-20121222/lib/gcc/../../arm-none-eabi/sys-include/
 1430              		.file 3 "../../../os/ports/GCC/ARMCMx/chtypes.h"
 1431              		.file 4 "../../../os/kernel/include/chlists.h"
 1432              		.file 5 "../../../os/kernel/include/chthreads.h"
 1433              		.file 6 "../../../os/ports/GCC/ARMCMx/chcore_v7m.h"
 1434              		.file 7 "../../../os/kernel/include/chschd.h"
 1435              		.file 8 "../../../os/kernel/include/chmtx.h"
 1436              		.file 9 "../../../os/kernel/include/chevents.h"
 1437              		.file 10 "../../../os/kernel/include/chdebug.h"