ARM GAS  C:\Users\TaisikHam\AppData\Local\Temp\ccrjtrAb.s 			page 1


   1              		.syntax unified
   2              		.cpu cortex-m4
   3              		.fpu softvfp
   4              		.eabi_attribute 20, 1
   5              		.eabi_attribute 21, 1
   6              		.eabi_attribute 23, 3
   7              		.eabi_attribute 24, 1
   8              		.eabi_attribute 25, 1
   9              		.eabi_attribute 26, 1
  10              		.eabi_attribute 30, 2
  11              		.eabi_attribute 34, 1
  12              		.eabi_attribute 18, 4
  13              		.thumb
  14              		.file	"crt0.c"
  15              		.text
  16              	.Ltext0:
  17              		.cfi_sections	.debug_frame
  18              		.section	.text.__early_init,"ax",%progbits
  19              		.align	2
  20              		.p2align 4,,15
  21              		.weak	__early_init
  22              		.thumb
  23              		.thumb_func
  24              		.type	__early_init, %function
  25              	__early_init:
  26              	.LFB0:
  27              		.file 1 "../../../os/ports/GCC/ARMCMx/crt0.c"
  28              		.loc 1 227 0
  29              		.cfi_startproc
  30              		@ args = 0, pretend = 0, frame = 0
  31              		@ frame_needed = 0, uses_anonymous_args = 0
  32              		@ link register save eliminated.
  33 0000 7047     		bx	lr
  34              		.cfi_endproc
  35              	.LFE0:
  36              		.size	__early_init, .-__early_init
  37 0002 00BFAFF3 		.section	.text.__late_init,"ax",%progbits
  37      0080AFF3 
  37      0080AFF3 
  37      0080
  38              		.align	2
  39              		.p2align 4,,15
  40              		.weak	__late_init
  41              		.thumb
  42              		.thumb_func
  43              		.type	__late_init, %function
  44              	__late_init:
  45              	.LFB1:
  46              		.loc 1 239 0
  47              		.cfi_startproc
  48              		@ args = 0, pretend = 0, frame = 0
  49              		@ frame_needed = 0, uses_anonymous_args = 0
  50              		@ link register save eliminated.
  51 0000 7047     		bx	lr
  52              		.cfi_endproc
  53              	.LFE1:
  54              		.size	__late_init, .-__late_init
ARM GAS  C:\Users\TaisikHam\AppData\Local\Temp\ccrjtrAb.s 			page 2


  55 0002 00BFAFF3 		.section	.text._default_exit,"ax",%progbits
  55      0080AFF3 
  55      0080AFF3 
  55      0080
  56              		.align	2
  57              		.p2align 4,,15
  58              		.weak	_default_exit
  59              		.thumb
  60              		.thumb_func
  61              		.type	_default_exit, %function
  62              	_default_exit:
  63              	.LFB2:
  64              		.loc 1 250 0
  65              		.cfi_startproc
  66              		@ Naked Function: prologue and epilogue provided by programmer.
  67              		@ args = 0, pretend = 0, frame = 0
  68              		@ frame_needed = 0, uses_anonymous_args = 0
  69              	.L4:
  70 0000 FEE7     		b	.L4
  71              		.cfi_endproc
  72              	.LFE2:
  73              		.size	_default_exit, .-_default_exit
  74 0002 00BFAFF3 		.section	.text.ResetHandler,"ax",%progbits
  74      0080AFF3 
  74      0080AFF3 
  74      0080
  75              		.align	2
  76              		.p2align 4,,15
  77              		.global	ResetHandler
  78              		.thumb
  79              		.thumb_func
  80              		.type	ResetHandler, %function
  81              	ResetHandler:
  82              	.LFB3:
  83              		.loc 1 261 0
  84              		.cfi_startproc
  85              		@ Naked Function: prologue and epilogue provided by programmer.
  86              		@ args = 0, pretend = 0, frame = 0
  87              		@ frame_needed = 0, uses_anonymous_args = 0
  88              		.loc 1 267 0
  89              	@ 267 "../../../os/ports/GCC/ARMCMx/crt0.c" 1
  90 0000 72B6     		cpsid   i
  91              	@ 0 "" 2
  92              		.loc 1 268 0
  93              		.thumb
  94 0002 3748     		ldr	r0, .L32
  95              	.LVL0:
  96              		.loc 1 269 0
  97              	@ 269 "../../../os/ports/GCC/ARMCMx/crt0.c" 1
  98 0004 80F30988 		msr     PSP, r0
  99              	@ 0 "" 2
 100              	.LVL1:
 101              		.loc 1 289 0
 102              		.thumb
 103 0008 0223     		movs	r3, #2
 104              	@ 289 "../../../os/ports/GCC/ARMCMx/crt0.c" 1
 105 000a 83F31488 		msr     CONTROL, r3
ARM GAS  C:\Users\TaisikHam\AppData\Local\Temp\ccrjtrAb.s 			page 3


 106              	@ 0 "" 2
 107              		.loc 1 290 0
 108              	@ 290 "../../../os/ports/GCC/ARMCMx/crt0.c" 1
 109 000e BFF36F8F 		isb
 110              	@ 0 "" 2
 111              	.LVL2:
 112              		.thumb
 113              	.LBB2:
 114              		.loc 1 294 0
 115 0012 344A     		ldr	r2, .L32+4
 116 0014 344B     		ldr	r3, .L32+8
 117 0016 9A42     		cmp	r2, r3
 118 0018 0BD2     		bcs	.L10
 119              	.LBE2:
 120              	.LBB3:
 121              		.loc 1 261 0
 122 001a D143     		mvns	r1, r2
 123 001c C918     		adds	r1, r1, r3
 124 001e 21F00301 		bic	r1, r1, #3
 125 0022 131F     		subs	r3, r2, #4
 126 0024 8918     		adds	r1, r1, r2
 127              	.LBE3:
 128              	.LBB4:
 129              		.loc 1 294 0
 130 0026 4FF05532 		mov	r2, #1431655765
 131              	.LVL3:
 132              	.L9:
 133              		.loc 1 294 0 is_stmt 0 discriminator 2
 134 002a 43F8042F 		str	r2, [r3, #4]!
 135 002e 8B42     		cmp	r3, r1
 136 0030 FBD1     		bne	.L9
 137              	.L10:
 138              	.LVL4:
 139              	.LBE4:
 140              	.LBB5:
 141              		.loc 1 297 0 is_stmt 1
 142 0032 2E4A     		ldr	r2, .L32+12
 143 0034 8242     		cmp	r2, r0
 144 0036 0CD2     		bcs	.L8
 145              	.LBE5:
 146              	.LBB6:
 147              		.loc 1 261 0
 148 0038 2D49     		ldr	r1, .L32+16
 149 003a 131D     		adds	r3, r2, #4
 150 003c C91A     		subs	r1, r1, r3
 151 003e 21F00301 		bic	r1, r1, #3
 152 0042 131F     		subs	r3, r2, #4
 153 0044 8918     		adds	r1, r1, r2
 154              	.LBE6:
 155              	.LBB7:
 156              		.loc 1 297 0
 157 0046 4FF05532 		mov	r2, #1431655765
 158              	.LVL5:
 159              	.L13:
 160              		.loc 1 297 0 is_stmt 0 discriminator 2
 161 004a 43F8042F 		str	r2, [r3, #4]!
 162 004e 8B42     		cmp	r3, r1
ARM GAS  C:\Users\TaisikHam\AppData\Local\Temp\ccrjtrAb.s 			page 4


 163 0050 FBD1     		bne	.L13
 164              	.L8:
 165              	.LBE7:
 166              		.loc 1 303 0 is_stmt 1
 167 0052 FFF7FEFF 		bl	__early_init
 168              	.LVL6:
 169              	.LBB8:
 170              		.loc 1 312 0
 171 0056 2749     		ldr	r1, .L32+20
 172 0058 274B     		ldr	r3, .L32+24
 173 005a 9942     		cmp	r1, r3
 174 005c 0BD2     		bcs	.L12
 175              	.LBE8:
 176              	.LBB9:
 177              		.loc 1 261 0
 178 005e C843     		mvns	r0, r1
 179 0060 C018     		adds	r0, r0, r3
 180 0062 20F00300 		bic	r0, r0, #3
 181 0066 254C     		ldr	r4, .L32+28
 182 0068 0430     		adds	r0, r0, #4
 183              	.LBE9:
 184 006a 0023     		movs	r3, #0
 185              	.LVL7:
 186              	.L16:
 187              	.LBB10:
 188              		.loc 1 313 0
 189 006c 1A59     		ldr	r2, [r3, r4]
 190 006e 5A50     		str	r2, [r3, r1]
 191 0070 0433     		adds	r3, r3, #4
 192              		.loc 1 312 0
 193 0072 8342     		cmp	r3, r0
 194 0074 FAD1     		bne	.L16
 195              	.L12:
 196              	.LVL8:
 197              	.LBE10:
 198              	.LBB11:
 199              		.loc 1 319 0
 200 0076 224A     		ldr	r2, .L32+32
 201 0078 224B     		ldr	r3, .L32+36
 202 007a 9A42     		cmp	r2, r3
 203 007c 0AD2     		bcs	.L15
 204              	.LBE11:
 205              	.LBB12:
 206              		.loc 1 261 0
 207 007e D143     		mvns	r1, r2
 208 0080 C918     		adds	r1, r1, r3
 209 0082 21F00301 		bic	r1, r1, #3
 210 0086 131F     		subs	r3, r2, #4
 211 0088 8918     		adds	r1, r1, r2
 212              	.LBE12:
 213              	.LBB13:
 214              		.loc 1 319 0
 215 008a 0022     		movs	r2, #0
 216              	.LVL9:
 217              	.L19:
 218              		.loc 1 319 0 is_stmt 0 discriminator 2
 219 008c 43F8042F 		str	r2, [r3, #4]!
ARM GAS  C:\Users\TaisikHam\AppData\Local\Temp\ccrjtrAb.s 			page 5


 220 0090 8B42     		cmp	r3, r1
 221 0092 FBD1     		bne	.L19
 222              	.L15:
 223              	.LBE13:
 224              		.loc 1 323 0 is_stmt 1
 225 0094 FFF7FEFF 		bl	__late_init
 226              	.LVL10:
 227              	.LBB14:
 228              		.loc 1 329 0
 229 0098 1B4D     		ldr	r5, .L32+40
 230 009a 1C4B     		ldr	r3, .L32+44
 231 009c 9D42     		cmp	r5, r3
 232 009e 0BD2     		bcs	.L18
 233              	.LBE14:
 234              	.LBB15:
 235              		.loc 1 261 0
 236 00a0 EE43     		mvns	r6, r5
 237 00a2 F618     		adds	r6, r6, r3
 238 00a4 B608     		lsrs	r6, r6, #2
 239 00a6 043D     		subs	r5, r5, #4
 240 00a8 0136     		adds	r6, r6, #1
 241              	.LBE15:
 242 00aa 0024     		movs	r4, #0
 243              	.LVL11:
 244              	.L22:
 245              	.LBB16:
 246              		.loc 1 330 0
 247 00ac 55F8043F 		ldr	r3, [r5, #4]!
 248 00b0 0134     		adds	r4, r4, #1
 249 00b2 9847     		blx	r3
 250              	.LVL12:
 251              		.loc 1 329 0
 252 00b4 B442     		cmp	r4, r6
 253 00b6 F9D1     		bne	.L22
 254              	.L18:
 255              	.LBE16:
 256              		.loc 1 337 0
 257 00b8 FFF7FEFF 		bl	main
 258              	.LVL13:
 259              	.LBB17:
 260              		.loc 1 343 0
 261 00bc 144D     		ldr	r5, .L32+48
 262 00be 154B     		ldr	r3, .L32+52
 263 00c0 9D42     		cmp	r5, r3
 264 00c2 0BD2     		bcs	.L21
 265              	.LBE17:
 266              		.loc 1 261 0
 267 00c4 EE43     		mvns	r6, r5
 268 00c6 F618     		adds	r6, r6, r3
 269 00c8 B608     		lsrs	r6, r6, #2
 270 00ca 043D     		subs	r5, r5, #4
 271 00cc 0136     		adds	r6, r6, #1
 272 00ce 0024     		movs	r4, #0
 273              	.LVL14:
 274              	.L23:
 275              	.LBB18:
 276              		.loc 1 344 0
ARM GAS  C:\Users\TaisikHam\AppData\Local\Temp\ccrjtrAb.s 			page 6


 277 00d0 55F8043F 		ldr	r3, [r5, #4]!
 278 00d4 0134     		adds	r4, r4, #1
 279 00d6 9847     		blx	r3
 280              	.LVL15:
 281              		.loc 1 343 0
 282 00d8 B442     		cmp	r4, r6
 283 00da F9D1     		bne	.L23
 284              	.L21:
 285              	.LBE18:
 286              		.loc 1 351 0
 287 00dc FFF7FEFF 		bl	_default_exit
 288              	.LVL16:
 289              		.loc 1 352 0
 290              	.L33:
 291              		.align	2
 292              	.L32:
 293 00e0 00000000 		.word	__process_stack_end__
 294 00e4 00000000 		.word	__main_stack_base__
 295 00e8 00000000 		.word	__main_stack_end__
 296 00ec 00000000 		.word	__process_stack_base__
 297 00f0 03000000 		.word	__process_stack_end__+3
 298 00f4 00000000 		.word	_data
 299 00f8 00000000 		.word	_edata
 300 00fc 00000000 		.word	_textdata
 301 0100 00000000 		.word	_bss_start
 302 0104 00000000 		.word	_bss_end
 303 0108 00000000 		.word	__init_array_start
 304 010c 00000000 		.word	__init_array_end
 305 0110 00000000 		.word	__fini_array_start
 306 0114 00000000 		.word	__fini_array_end
 307              		.cfi_endproc
 308              	.LFE3:
 309              		.size	ResetHandler, .-ResetHandler
 310 0118 AFF30080 		.text
 310      AFF30080 
 311              	.Letext0:
 312              		.file 2 "c:/develop/genist/chibistudio/tools/yagarto-tools/yagarto-20121222/lib/gcc/../../arm-none
 313              		.section	.debug_info,"",%progbits
 314              	.Ldebug_info0:
 315 0000 A4020000 		.4byte	0x2a4
 316 0004 0200     		.2byte	0x2
 317 0006 00000000 		.4byte	.Ldebug_abbrev0
 318 000a 04       		.byte	0x4
 319 000b 01       		.uleb128 0x1
 320 000c 69010000 		.4byte	.LASF29
 321 0010 01       		.byte	0x1
 322 0011 9B010000 		.4byte	.LASF30
 323 0015 B0000000 		.4byte	.LASF31
 324 0019 B8000000 		.4byte	.Ldebug_ranges0+0xb8
 325 001d 00000000 		.4byte	0
 326 0021 00000000 		.4byte	0
 327 0025 00000000 		.4byte	.Ldebug_line0
 328 0029 02       		.uleb128 0x2
 329 002a 01       		.byte	0x1
 330 002b 06       		.byte	0x6
 331 002c D7010000 		.4byte	.LASF0
 332 0030 03       		.uleb128 0x3
ARM GAS  C:\Users\TaisikHam\AppData\Local\Temp\ccrjtrAb.s 			page 7


 333 0031 3C010000 		.4byte	.LASF5
 334 0035 02       		.byte	0x2
 335 0036 2A       		.byte	0x2a
 336 0037 3B000000 		.4byte	0x3b
 337 003b 02       		.uleb128 0x2
 338 003c 01       		.byte	0x1
 339 003d 08       		.byte	0x8
 340 003e 51000000 		.4byte	.LASF1
 341 0042 02       		.uleb128 0x2
 342 0043 02       		.byte	0x2
 343 0044 05       		.byte	0x5
 344 0045 89010000 		.4byte	.LASF2
 345 0049 02       		.uleb128 0x2
 346 004a 02       		.byte	0x2
 347 004b 07       		.byte	0x7
 348 004c 8A000000 		.4byte	.LASF3
 349 0050 02       		.uleb128 0x2
 350 0051 04       		.byte	0x4
 351 0052 05       		.byte	0x5
 352 0053 C8010000 		.4byte	.LASF4
 353 0057 03       		.uleb128 0x3
 354 0058 BF010000 		.4byte	.LASF6
 355 005c 02       		.byte	0x2
 356 005d 50       		.byte	0x50
 357 005e 62000000 		.4byte	0x62
 358 0062 02       		.uleb128 0x2
 359 0063 04       		.byte	0x4
 360 0064 07       		.byte	0x7
 361 0065 6B000000 		.4byte	.LASF7
 362 0069 02       		.uleb128 0x2
 363 006a 08       		.byte	0x8
 364 006b 05       		.byte	0x5
 365 006c 5B010000 		.4byte	.LASF8
 366 0070 02       		.uleb128 0x2
 367 0071 08       		.byte	0x8
 368 0072 07       		.byte	0x7
 369 0073 25010000 		.4byte	.LASF9
 370 0077 04       		.uleb128 0x4
 371 0078 04       		.byte	0x4
 372 0079 05       		.byte	0x5
 373 007a 696E7400 		.ascii	"int\000"
 374 007e 02       		.uleb128 0x2
 375 007f 04       		.byte	0x4
 376 0080 07       		.byte	0x7
 377 0081 18010000 		.4byte	.LASF10
 378 0085 03       		.uleb128 0x3
 379 0086 93010000 		.4byte	.LASF11
 380 008a 01       		.byte	0x1
 381 008b 2D       		.byte	0x2d
 382 008c 90000000 		.4byte	0x90
 383 0090 05       		.uleb128 0x5
 384 0091 04       		.byte	0x4
 385 0092 96000000 		.4byte	0x96
 386 0096 06       		.uleb128 0x6
 387 0097 01       		.byte	0x1
 388 0098 03       		.uleb128 0x3
 389 0099 3A000000 		.4byte	.LASF12
ARM GAS  C:\Users\TaisikHam\AppData\Local\Temp\ccrjtrAb.s 			page 8


 390 009d 01       		.byte	0x1
 391 009e 2E       		.byte	0x2e
 392 009f A3000000 		.4byte	0xa3
 393 00a3 05       		.uleb128 0x5
 394 00a4 04       		.byte	0x4
 395 00a5 85000000 		.4byte	0x85
 396 00a9 07       		.uleb128 0x7
 397 00aa 01       		.byte	0x1
 398 00ab 4E010000 		.4byte	.LASF13
 399 00af 01       		.byte	0x1
 400 00b0 E3       		.byte	0xe3
 401 00b1 01       		.byte	0x1
 402 00b2 00000000 		.4byte	.LFB0
 403 00b6 02000000 		.4byte	.LFE0
 404 00ba 02       		.byte	0x2
 405 00bb 7D       		.byte	0x7d
 406 00bc 00       		.sleb128 0
 407 00bd 01       		.byte	0x1
 408 00be 07       		.uleb128 0x7
 409 00bf 01       		.byte	0x1
 410 00c0 5F000000 		.4byte	.LASF14
 411 00c4 01       		.byte	0x1
 412 00c5 EF       		.byte	0xef
 413 00c6 01       		.byte	0x1
 414 00c7 00000000 		.4byte	.LFB1
 415 00cb 02000000 		.4byte	.LFE1
 416 00cf 02       		.byte	0x2
 417 00d0 7D       		.byte	0x7d
 418 00d1 00       		.sleb128 0
 419 00d2 01       		.byte	0x1
 420 00d3 07       		.uleb128 0x7
 421 00d4 01       		.byte	0x1
 422 00d5 43000000 		.4byte	.LASF15
 423 00d9 01       		.byte	0x1
 424 00da FA       		.byte	0xfa
 425 00db 01       		.byte	0x1
 426 00dc 00000000 		.4byte	.LFB2
 427 00e0 02000000 		.4byte	.LFE2
 428 00e4 02       		.byte	0x2
 429 00e5 7D       		.byte	0x7d
 430 00e6 00       		.sleb128 0
 431 00e7 01       		.byte	0x1
 432 00e8 08       		.uleb128 0x8
 433 00e9 01       		.byte	0x1
 434 00ea 7D000000 		.4byte	.LASF32
 435 00ee 01       		.byte	0x1
 436 00ef 0501     		.2byte	0x105
 437 00f1 01       		.byte	0x1
 438 00f2 00000000 		.4byte	.LFB3
 439 00f6 18010000 		.4byte	.LFE3
 440 00fa 02       		.byte	0x2
 441 00fb 7D       		.byte	0x7d
 442 00fc 00       		.sleb128 0
 443 00fd 01       		.byte	0x1
 444 00fe EE010000 		.4byte	0x1ee
 445 0102 09       		.uleb128 0x9
 446 0103 70737000 		.ascii	"psp\000"
ARM GAS  C:\Users\TaisikHam\AppData\Local\Temp\ccrjtrAb.s 			page 9


 447 0107 01       		.byte	0x1
 448 0108 0601     		.2byte	0x106
 449 010a 57000000 		.4byte	0x57
 450 010e 01       		.byte	0x1
 451 010f 50       		.byte	0x50
 452 0110 0A       		.uleb128 0xa
 453 0111 72656700 		.ascii	"reg\000"
 454 0115 01       		.byte	0x1
 455 0116 0601     		.2byte	0x106
 456 0118 57000000 		.4byte	0x57
 457 011c 02       		.byte	0x2
 458 011d 0B       		.uleb128 0xb
 459 011e 00000000 		.4byte	.Ldebug_ranges0+0
 460 0122 3D010000 		.4byte	0x13d
 461 0126 0C       		.uleb128 0xc
 462 0127 703100   		.ascii	"p1\000"
 463 012a 01       		.byte	0x1
 464 012b 2601     		.2byte	0x126
 465 012d EE010000 		.4byte	0x1ee
 466 0131 0C       		.uleb128 0xc
 467 0132 703200   		.ascii	"p2\000"
 468 0135 01       		.byte	0x1
 469 0136 2601     		.2byte	0x126
 470 0138 EE010000 		.4byte	0x1ee
 471 013c 00       		.byte	0
 472 013d 0B       		.uleb128 0xb
 473 013e 18000000 		.4byte	.Ldebug_ranges0+0x18
 474 0142 5D010000 		.4byte	0x15d
 475 0146 0C       		.uleb128 0xc
 476 0147 703100   		.ascii	"p1\000"
 477 014a 01       		.byte	0x1
 478 014b 2901     		.2byte	0x129
 479 014d EE010000 		.4byte	0x1ee
 480 0151 0C       		.uleb128 0xc
 481 0152 703200   		.ascii	"p2\000"
 482 0155 01       		.byte	0x1
 483 0156 2901     		.2byte	0x129
 484 0158 EE010000 		.4byte	0x1ee
 485 015c 00       		.byte	0
 486 015d 0B       		.uleb128 0xb
 487 015e 38000000 		.4byte	.Ldebug_ranges0+0x38
 488 0162 7D010000 		.4byte	0x17d
 489 0166 0C       		.uleb128 0xc
 490 0167 747000   		.ascii	"tp\000"
 491 016a 01       		.byte	0x1
 492 016b 3401     		.2byte	0x134
 493 016d EE010000 		.4byte	0x1ee
 494 0171 0C       		.uleb128 0xc
 495 0172 647000   		.ascii	"dp\000"
 496 0175 01       		.byte	0x1
 497 0176 3401     		.2byte	0x134
 498 0178 EE010000 		.4byte	0x1ee
 499 017c 00       		.byte	0
 500 017d 0B       		.uleb128 0xb
 501 017e 58000000 		.4byte	.Ldebug_ranges0+0x58
 502 0182 9D010000 		.4byte	0x19d
 503 0186 0C       		.uleb128 0xc
ARM GAS  C:\Users\TaisikHam\AppData\Local\Temp\ccrjtrAb.s 			page 10


 504 0187 703100   		.ascii	"p1\000"
 505 018a 01       		.byte	0x1
 506 018b 3F01     		.2byte	0x13f
 507 018d EE010000 		.4byte	0x1ee
 508 0191 0C       		.uleb128 0xc
 509 0192 703200   		.ascii	"p2\000"
 510 0195 01       		.byte	0x1
 511 0196 3F01     		.2byte	0x13f
 512 0198 EE010000 		.4byte	0x1ee
 513 019c 00       		.byte	0
 514 019d 0B       		.uleb128 0xb
 515 019e 78000000 		.4byte	.Ldebug_ranges0+0x78
 516 01a2 B3010000 		.4byte	0x1b3
 517 01a6 0C       		.uleb128 0xc
 518 01a7 66707000 		.ascii	"fpp\000"
 519 01ab 01       		.byte	0x1
 520 01ac 4801     		.2byte	0x148
 521 01ae 98000000 		.4byte	0x98
 522 01b2 00       		.byte	0
 523 01b3 0B       		.uleb128 0xb
 524 01b4 98000000 		.4byte	.Ldebug_ranges0+0x98
 525 01b8 C9010000 		.4byte	0x1c9
 526 01bc 0C       		.uleb128 0xc
 527 01bd 66707000 		.ascii	"fpp\000"
 528 01c1 01       		.byte	0x1
 529 01c2 5601     		.2byte	0x156
 530 01c4 98000000 		.4byte	0x98
 531 01c8 00       		.byte	0
 532 01c9 0D       		.uleb128 0xd
 533 01ca 56000000 		.4byte	.LVL6
 534 01ce A9000000 		.4byte	0xa9
 535 01d2 0D       		.uleb128 0xd
 536 01d3 98000000 		.4byte	.LVL10
 537 01d7 BE000000 		.4byte	0xbe
 538 01db 0D       		.uleb128 0xd
 539 01dc BC000000 		.4byte	.LVL13
 540 01e0 9D020000 		.4byte	0x29d
 541 01e4 0D       		.uleb128 0xd
 542 01e5 E0000000 		.4byte	.LVL16
 543 01e9 D3000000 		.4byte	0xd3
 544 01ed 00       		.byte	0
 545 01ee 05       		.uleb128 0x5
 546 01ef 04       		.byte	0x4
 547 01f0 57000000 		.4byte	0x57
 548 01f4 0E       		.uleb128 0xe
 549 01f5 75010000 		.4byte	.LASF16
 550 01f9 01       		.byte	0x1
 551 01fa 84       		.byte	0x84
 552 01fb 57000000 		.4byte	0x57
 553 01ff 01       		.byte	0x1
 554 0200 01       		.byte	0x1
 555 0201 0E       		.uleb128 0xe
 556 0202 0C020000 		.4byte	.LASF17
 557 0206 01       		.byte	0x1
 558 0207 8C       		.byte	0x8c
 559 0208 57000000 		.4byte	0x57
 560 020c 01       		.byte	0x1
ARM GAS  C:\Users\TaisikHam\AppData\Local\Temp\ccrjtrAb.s 			page 11


 561 020d 01       		.byte	0x1
 562 020e 0E       		.uleb128 0xe
 563 020f 23000000 		.4byte	.LASF18
 564 0213 01       		.byte	0x1
 565 0214 93       		.byte	0x93
 566 0215 57000000 		.4byte	0x57
 567 0219 01       		.byte	0x1
 568 021a 01       		.byte	0x1
 569 021b 0E       		.uleb128 0xe
 570 021c E3010000 		.4byte	.LASF19
 571 0220 01       		.byte	0x1
 572 0221 9A       		.byte	0x9a
 573 0222 57000000 		.4byte	0x57
 574 0226 01       		.byte	0x1
 575 0227 01       		.byte	0x1
 576 0228 0E       		.uleb128 0xe
 577 0229 44010000 		.4byte	.LASF20
 578 022d 01       		.byte	0x1
 579 022e A0       		.byte	0xa0
 580 022f 57000000 		.4byte	0x57
 581 0233 01       		.byte	0x1
 582 0234 01       		.byte	0x1
 583 0235 0E       		.uleb128 0xe
 584 0236 D1010000 		.4byte	.LASF21
 585 023a 01       		.byte	0x1
 586 023b A6       		.byte	0xa6
 587 023c 57000000 		.4byte	0x57
 588 0240 01       		.byte	0x1
 589 0241 01       		.byte	0x1
 590 0242 0E       		.uleb128 0xe
 591 0243 0B000000 		.4byte	.LASF22
 592 0247 01       		.byte	0x1
 593 0248 AC       		.byte	0xac
 594 0249 57000000 		.4byte	0x57
 595 024d 01       		.byte	0x1
 596 024e 01       		.byte	0x1
 597 024f 0E       		.uleb128 0xe
 598 0250 00000000 		.4byte	.LASF23
 599 0254 01       		.byte	0x1
 600 0255 B2       		.byte	0xb2
 601 0256 57000000 		.4byte	0x57
 602 025a 01       		.byte	0x1
 603 025b 01       		.byte	0x1
 604 025c 0E       		.uleb128 0xe
 605 025d F9000000 		.4byte	.LASF24
 606 0261 01       		.byte	0x1
 607 0262 B8       		.byte	0xb8
 608 0263 57000000 		.4byte	0x57
 609 0267 01       		.byte	0x1
 610 0268 01       		.byte	0x1
 611 0269 0E       		.uleb128 0xe
 612 026a F9010000 		.4byte	.LASF25
 613 026e 01       		.byte	0x1
 614 026f BE       		.byte	0xbe
 615 0270 85000000 		.4byte	0x85
 616 0274 01       		.byte	0x1
 617 0275 01       		.byte	0x1
ARM GAS  C:\Users\TaisikHam\AppData\Local\Temp\ccrjtrAb.s 			page 12


 618 0276 0E       		.uleb128 0xe
 619 0277 02010000 		.4byte	.LASF26
 620 027b 01       		.byte	0x1
 621 027c C4       		.byte	0xc4
 622 027d 85000000 		.4byte	0x85
 623 0281 01       		.byte	0x1
 624 0282 01       		.byte	0x1
 625 0283 0E       		.uleb128 0xe
 626 0284 9D000000 		.4byte	.LASF27
 627 0288 01       		.byte	0x1
 628 0289 CA       		.byte	0xca
 629 028a 85000000 		.4byte	0x85
 630 028e 01       		.byte	0x1
 631 028f 01       		.byte	0x1
 632 0290 0E       		.uleb128 0xe
 633 0291 12000000 		.4byte	.LASF28
 634 0295 01       		.byte	0x1
 635 0296 D0       		.byte	0xd0
 636 0297 85000000 		.4byte	0x85
 637 029b 01       		.byte	0x1
 638 029c 01       		.byte	0x1
 639 029d 0F       		.uleb128 0xf
 640 029e 01       		.byte	0x1
 641 029f 13010000 		.4byte	.LASF33
 642 02a3 01       		.byte	0x1
 643 02a4 D7       		.byte	0xd7
 644 02a5 01       		.byte	0x1
 645 02a6 01       		.byte	0x1
 646 02a7 00       		.byte	0
 647              		.section	.debug_abbrev,"",%progbits
 648              	.Ldebug_abbrev0:
 649 0000 01       		.uleb128 0x1
 650 0001 11       		.uleb128 0x11
 651 0002 01       		.byte	0x1
 652 0003 25       		.uleb128 0x25
 653 0004 0E       		.uleb128 0xe
 654 0005 13       		.uleb128 0x13
 655 0006 0B       		.uleb128 0xb
 656 0007 03       		.uleb128 0x3
 657 0008 0E       		.uleb128 0xe
 658 0009 1B       		.uleb128 0x1b
 659 000a 0E       		.uleb128 0xe
 660 000b 55       		.uleb128 0x55
 661 000c 06       		.uleb128 0x6
 662 000d 11       		.uleb128 0x11
 663 000e 01       		.uleb128 0x1
 664 000f 52       		.uleb128 0x52
 665 0010 01       		.uleb128 0x1
 666 0011 10       		.uleb128 0x10
 667 0012 06       		.uleb128 0x6
 668 0013 00       		.byte	0
 669 0014 00       		.byte	0
 670 0015 02       		.uleb128 0x2
 671 0016 24       		.uleb128 0x24
 672 0017 00       		.byte	0
 673 0018 0B       		.uleb128 0xb
 674 0019 0B       		.uleb128 0xb
ARM GAS  C:\Users\TaisikHam\AppData\Local\Temp\ccrjtrAb.s 			page 13


 675 001a 3E       		.uleb128 0x3e
 676 001b 0B       		.uleb128 0xb
 677 001c 03       		.uleb128 0x3
 678 001d 0E       		.uleb128 0xe
 679 001e 00       		.byte	0
 680 001f 00       		.byte	0
 681 0020 03       		.uleb128 0x3
 682 0021 16       		.uleb128 0x16
 683 0022 00       		.byte	0
 684 0023 03       		.uleb128 0x3
 685 0024 0E       		.uleb128 0xe
 686 0025 3A       		.uleb128 0x3a
 687 0026 0B       		.uleb128 0xb
 688 0027 3B       		.uleb128 0x3b
 689 0028 0B       		.uleb128 0xb
 690 0029 49       		.uleb128 0x49
 691 002a 13       		.uleb128 0x13
 692 002b 00       		.byte	0
 693 002c 00       		.byte	0
 694 002d 04       		.uleb128 0x4
 695 002e 24       		.uleb128 0x24
 696 002f 00       		.byte	0
 697 0030 0B       		.uleb128 0xb
 698 0031 0B       		.uleb128 0xb
 699 0032 3E       		.uleb128 0x3e
 700 0033 0B       		.uleb128 0xb
 701 0034 03       		.uleb128 0x3
 702 0035 08       		.uleb128 0x8
 703 0036 00       		.byte	0
 704 0037 00       		.byte	0
 705 0038 05       		.uleb128 0x5
 706 0039 0F       		.uleb128 0xf
 707 003a 00       		.byte	0
 708 003b 0B       		.uleb128 0xb
 709 003c 0B       		.uleb128 0xb
 710 003d 49       		.uleb128 0x49
 711 003e 13       		.uleb128 0x13
 712 003f 00       		.byte	0
 713 0040 00       		.byte	0
 714 0041 06       		.uleb128 0x6
 715 0042 15       		.uleb128 0x15
 716 0043 00       		.byte	0
 717 0044 27       		.uleb128 0x27
 718 0045 0C       		.uleb128 0xc
 719 0046 00       		.byte	0
 720 0047 00       		.byte	0
 721 0048 07       		.uleb128 0x7
 722 0049 2E       		.uleb128 0x2e
 723 004a 00       		.byte	0
 724 004b 3F       		.uleb128 0x3f
 725 004c 0C       		.uleb128 0xc
 726 004d 03       		.uleb128 0x3
 727 004e 0E       		.uleb128 0xe
 728 004f 3A       		.uleb128 0x3a
 729 0050 0B       		.uleb128 0xb
 730 0051 3B       		.uleb128 0x3b
 731 0052 0B       		.uleb128 0xb
ARM GAS  C:\Users\TaisikHam\AppData\Local\Temp\ccrjtrAb.s 			page 14


 732 0053 27       		.uleb128 0x27
 733 0054 0C       		.uleb128 0xc
 734 0055 11       		.uleb128 0x11
 735 0056 01       		.uleb128 0x1
 736 0057 12       		.uleb128 0x12
 737 0058 01       		.uleb128 0x1
 738 0059 40       		.uleb128 0x40
 739 005a 0A       		.uleb128 0xa
 740 005b 9742     		.uleb128 0x2117
 741 005d 0C       		.uleb128 0xc
 742 005e 00       		.byte	0
 743 005f 00       		.byte	0
 744 0060 08       		.uleb128 0x8
 745 0061 2E       		.uleb128 0x2e
 746 0062 01       		.byte	0x1
 747 0063 3F       		.uleb128 0x3f
 748 0064 0C       		.uleb128 0xc
 749 0065 03       		.uleb128 0x3
 750 0066 0E       		.uleb128 0xe
 751 0067 3A       		.uleb128 0x3a
 752 0068 0B       		.uleb128 0xb
 753 0069 3B       		.uleb128 0x3b
 754 006a 05       		.uleb128 0x5
 755 006b 27       		.uleb128 0x27
 756 006c 0C       		.uleb128 0xc
 757 006d 11       		.uleb128 0x11
 758 006e 01       		.uleb128 0x1
 759 006f 12       		.uleb128 0x12
 760 0070 01       		.uleb128 0x1
 761 0071 40       		.uleb128 0x40
 762 0072 0A       		.uleb128 0xa
 763 0073 9642     		.uleb128 0x2116
 764 0075 0C       		.uleb128 0xc
 765 0076 01       		.uleb128 0x1
 766 0077 13       		.uleb128 0x13
 767 0078 00       		.byte	0
 768 0079 00       		.byte	0
 769 007a 09       		.uleb128 0x9
 770 007b 34       		.uleb128 0x34
 771 007c 00       		.byte	0
 772 007d 03       		.uleb128 0x3
 773 007e 08       		.uleb128 0x8
 774 007f 3A       		.uleb128 0x3a
 775 0080 0B       		.uleb128 0xb
 776 0081 3B       		.uleb128 0x3b
 777 0082 05       		.uleb128 0x5
 778 0083 49       		.uleb128 0x49
 779 0084 13       		.uleb128 0x13
 780 0085 02       		.uleb128 0x2
 781 0086 0A       		.uleb128 0xa
 782 0087 00       		.byte	0
 783 0088 00       		.byte	0
 784 0089 0A       		.uleb128 0xa
 785 008a 34       		.uleb128 0x34
 786 008b 00       		.byte	0
 787 008c 03       		.uleb128 0x3
 788 008d 08       		.uleb128 0x8
ARM GAS  C:\Users\TaisikHam\AppData\Local\Temp\ccrjtrAb.s 			page 15


 789 008e 3A       		.uleb128 0x3a
 790 008f 0B       		.uleb128 0xb
 791 0090 3B       		.uleb128 0x3b
 792 0091 05       		.uleb128 0x5
 793 0092 49       		.uleb128 0x49
 794 0093 13       		.uleb128 0x13
 795 0094 1C       		.uleb128 0x1c
 796 0095 0B       		.uleb128 0xb
 797 0096 00       		.byte	0
 798 0097 00       		.byte	0
 799 0098 0B       		.uleb128 0xb
 800 0099 0B       		.uleb128 0xb
 801 009a 01       		.byte	0x1
 802 009b 55       		.uleb128 0x55
 803 009c 06       		.uleb128 0x6
 804 009d 01       		.uleb128 0x1
 805 009e 13       		.uleb128 0x13
 806 009f 00       		.byte	0
 807 00a0 00       		.byte	0
 808 00a1 0C       		.uleb128 0xc
 809 00a2 34       		.uleb128 0x34
 810 00a3 00       		.byte	0
 811 00a4 03       		.uleb128 0x3
 812 00a5 08       		.uleb128 0x8
 813 00a6 3A       		.uleb128 0x3a
 814 00a7 0B       		.uleb128 0xb
 815 00a8 3B       		.uleb128 0x3b
 816 00a9 05       		.uleb128 0x5
 817 00aa 49       		.uleb128 0x49
 818 00ab 13       		.uleb128 0x13
 819 00ac 00       		.byte	0
 820 00ad 00       		.byte	0
 821 00ae 0D       		.uleb128 0xd
 822 00af 898201   		.uleb128 0x4109
 823 00b2 00       		.byte	0
 824 00b3 11       		.uleb128 0x11
 825 00b4 01       		.uleb128 0x1
 826 00b5 31       		.uleb128 0x31
 827 00b6 13       		.uleb128 0x13
 828 00b7 00       		.byte	0
 829 00b8 00       		.byte	0
 830 00b9 0E       		.uleb128 0xe
 831 00ba 34       		.uleb128 0x34
 832 00bb 00       		.byte	0
 833 00bc 03       		.uleb128 0x3
 834 00bd 0E       		.uleb128 0xe
 835 00be 3A       		.uleb128 0x3a
 836 00bf 0B       		.uleb128 0xb
 837 00c0 3B       		.uleb128 0x3b
 838 00c1 0B       		.uleb128 0xb
 839 00c2 49       		.uleb128 0x49
 840 00c3 13       		.uleb128 0x13
 841 00c4 3F       		.uleb128 0x3f
 842 00c5 0C       		.uleb128 0xc
 843 00c6 3C       		.uleb128 0x3c
 844 00c7 0C       		.uleb128 0xc
 845 00c8 00       		.byte	0
ARM GAS  C:\Users\TaisikHam\AppData\Local\Temp\ccrjtrAb.s 			page 16


 846 00c9 00       		.byte	0
 847 00ca 0F       		.uleb128 0xf
 848 00cb 2E       		.uleb128 0x2e
 849 00cc 00       		.byte	0
 850 00cd 3F       		.uleb128 0x3f
 851 00ce 0C       		.uleb128 0xc
 852 00cf 03       		.uleb128 0x3
 853 00d0 0E       		.uleb128 0xe
 854 00d1 3A       		.uleb128 0x3a
 855 00d2 0B       		.uleb128 0xb
 856 00d3 3B       		.uleb128 0x3b
 857 00d4 0B       		.uleb128 0xb
 858 00d5 27       		.uleb128 0x27
 859 00d6 0C       		.uleb128 0xc
 860 00d7 3C       		.uleb128 0x3c
 861 00d8 0C       		.uleb128 0xc
 862 00d9 00       		.byte	0
 863 00da 00       		.byte	0
 864 00db 00       		.byte	0
 865              		.section	.debug_aranges,"",%progbits
 866 0000 34000000 		.4byte	0x34
 867 0004 0200     		.2byte	0x2
 868 0006 00000000 		.4byte	.Ldebug_info0
 869 000a 04       		.byte	0x4
 870 000b 00       		.byte	0
 871 000c 0000     		.2byte	0
 872 000e 0000     		.2byte	0
 873 0010 00000000 		.4byte	.LFB0
 874 0014 02000000 		.4byte	.LFE0-.LFB0
 875 0018 00000000 		.4byte	.LFB1
 876 001c 02000000 		.4byte	.LFE1-.LFB1
 877 0020 00000000 		.4byte	.LFB2
 878 0024 02000000 		.4byte	.LFE2-.LFB2
 879 0028 00000000 		.4byte	.LFB3
 880 002c 18010000 		.4byte	.LFE3-.LFB3
 881 0030 00000000 		.4byte	0
 882 0034 00000000 		.4byte	0
 883              		.section	.debug_ranges,"",%progbits
 884              	.Ldebug_ranges0:
 885 0000 12000000 		.4byte	.LBB2
 886 0004 1A000000 		.4byte	.LBE2
 887 0008 26000000 		.4byte	.LBB4
 888 000c 32000000 		.4byte	.LBE4
 889 0010 00000000 		.4byte	0
 890 0014 00000000 		.4byte	0
 891 0018 1A000000 		.4byte	.LBB3
 892 001c 26000000 		.4byte	.LBE3
 893 0020 32000000 		.4byte	.LBB5
 894 0024 38000000 		.4byte	.LBE5
 895 0028 46000000 		.4byte	.LBB7
 896 002c 52000000 		.4byte	.LBE7
 897 0030 00000000 		.4byte	0
 898 0034 00000000 		.4byte	0
 899 0038 38000000 		.4byte	.LBB6
 900 003c 46000000 		.4byte	.LBE6
 901 0040 56000000 		.4byte	.LBB8
 902 0044 5E000000 		.4byte	.LBE8
ARM GAS  C:\Users\TaisikHam\AppData\Local\Temp\ccrjtrAb.s 			page 17


 903 0048 6C000000 		.4byte	.LBB10
 904 004c 76000000 		.4byte	.LBE10
 905 0050 00000000 		.4byte	0
 906 0054 00000000 		.4byte	0
 907 0058 5E000000 		.4byte	.LBB9
 908 005c 6A000000 		.4byte	.LBE9
 909 0060 76000000 		.4byte	.LBB11
 910 0064 7E000000 		.4byte	.LBE11
 911 0068 8A000000 		.4byte	.LBB13
 912 006c 94000000 		.4byte	.LBE13
 913 0070 00000000 		.4byte	0
 914 0074 00000000 		.4byte	0
 915 0078 7E000000 		.4byte	.LBB12
 916 007c 8A000000 		.4byte	.LBE12
 917 0080 98000000 		.4byte	.LBB14
 918 0084 A0000000 		.4byte	.LBE14
 919 0088 AC000000 		.4byte	.LBB16
 920 008c B8000000 		.4byte	.LBE16
 921 0090 00000000 		.4byte	0
 922 0094 00000000 		.4byte	0
 923 0098 A0000000 		.4byte	.LBB15
 924 009c AA000000 		.4byte	.LBE15
 925 00a0 BC000000 		.4byte	.LBB17
 926 00a4 C4000000 		.4byte	.LBE17
 927 00a8 D0000000 		.4byte	.LBB18
 928 00ac DC000000 		.4byte	.LBE18
 929 00b0 00000000 		.4byte	0
 930 00b4 00000000 		.4byte	0
 931 00b8 00000000 		.4byte	.LFB0
 932 00bc 02000000 		.4byte	.LFE0
 933 00c0 00000000 		.4byte	.LFB1
 934 00c4 02000000 		.4byte	.LFE1
 935 00c8 00000000 		.4byte	.LFB2
 936 00cc 02000000 		.4byte	.LFE2
 937 00d0 00000000 		.4byte	.LFB3
 938 00d4 18010000 		.4byte	.LFE3
 939 00d8 00000000 		.4byte	0
 940 00dc 00000000 		.4byte	0
 941              		.section	.debug_line,"",%progbits
 942              	.Ldebug_line0:
 943 0000 4A010000 		.section	.debug_str,"MS",%progbits,1
 943      0200B100 
 943      00000201 
 943      FB0E0D00 
 943      01010101 
 944              	.LASF23:
 945 0000 5F627373 		.ascii	"_bss_start\000"
 945      5F737461 
 945      727400
 946              	.LASF22:
 947 000b 5F656461 		.ascii	"_edata\000"
 947      746100
 948              	.LASF28:
 949 0012 5F5F6669 		.ascii	"__fini_array_end\000"
 949      6E695F61 
 949      72726179 
 949      5F656E64 
ARM GAS  C:\Users\TaisikHam\AppData\Local\Temp\ccrjtrAb.s 			page 18


 949      00
 950              	.LASF18:
 951 0023 5F5F7072 		.ascii	"__process_stack_base__\000"
 951      6F636573 
 951      735F7374 
 951      61636B5F 
 951      62617365 
 952              	.LASF12:
 953 003a 66756E63 		.ascii	"funcpp_t\000"
 953      70705F74 
 953      00
 954              	.LASF15:
 955 0043 5F646566 		.ascii	"_default_exit\000"
 955      61756C74 
 955      5F657869 
 955      7400
 956              	.LASF1:
 957 0051 756E7369 		.ascii	"unsigned char\000"
 957      676E6564 
 957      20636861 
 957      7200
 958              	.LASF14:
 959 005f 5F5F6C61 		.ascii	"__late_init\000"
 959      74655F69 
 959      6E697400 
 960              	.LASF7:
 961 006b 6C6F6E67 		.ascii	"long unsigned int\000"
 961      20756E73 
 961      69676E65 
 961      6420696E 
 961      7400
 962              	.LASF32:
 963 007d 52657365 		.ascii	"ResetHandler\000"
 963      7448616E 
 963      646C6572 
 963      00
 964              	.LASF3:
 965 008a 73686F72 		.ascii	"short unsigned int\000"
 965      7420756E 
 965      7369676E 
 965      65642069 
 965      6E7400
 966              	.LASF27:
 967 009d 5F5F6669 		.ascii	"__fini_array_start\000"
 967      6E695F61 
 967      72726179 
 967      5F737461 
 967      727400
 968              	.LASF31:
 969 00b0 633A5C55 		.ascii	"c:\\Users\\TaisikHam\\Documents\\GitHub\\ChibiOS\\t"
 969      73657273 
 969      5C546169 
 969      73696B48 
 969      616D5C44 
 970 00dd 65737468 		.ascii	"esthal_wrk\\STM32F30x\\TS_SPI\000"
 970      616C5F77 
 970      726B5C53 
ARM GAS  C:\Users\TaisikHam\AppData\Local\Temp\ccrjtrAb.s 			page 19


 970      544D3332 
 970      46333078 
 971              	.LASF24:
 972 00f9 5F627373 		.ascii	"_bss_end\000"
 972      5F656E64 
 972      00
 973              	.LASF26:
 974 0102 5F5F696E 		.ascii	"__init_array_end\000"
 974      69745F61 
 974      72726179 
 974      5F656E64 
 974      00
 975              	.LASF33:
 976 0113 6D61696E 		.ascii	"main\000"
 976      00
 977              	.LASF10:
 978 0118 756E7369 		.ascii	"unsigned int\000"
 978      676E6564 
 978      20696E74 
 978      00
 979              	.LASF9:
 980 0125 6C6F6E67 		.ascii	"long long unsigned int\000"
 980      206C6F6E 
 980      6720756E 
 980      7369676E 
 980      65642069 
 981              	.LASF5:
 982 013c 75696E74 		.ascii	"uint8_t\000"
 982      385F7400 
 983              	.LASF20:
 984 0144 5F746578 		.ascii	"_textdata\000"
 984      74646174 
 984      6100
 985              	.LASF13:
 986 014e 5F5F6561 		.ascii	"__early_init\000"
 986      726C795F 
 986      696E6974 
 986      00
 987              	.LASF8:
 988 015b 6C6F6E67 		.ascii	"long long int\000"
 988      206C6F6E 
 988      6720696E 
 988      7400
 989              	.LASF29:
 990 0169 474E5520 		.ascii	"GNU C 4.7.2\000"
 990      4320342E 
 990      372E3200 
 991              	.LASF16:
 992 0175 5F5F6D61 		.ascii	"__main_stack_base__\000"
 992      696E5F73 
 992      7461636B 
 992      5F626173 
 992      655F5F00 
 993              	.LASF2:
 994 0189 73686F72 		.ascii	"short int\000"
 994      7420696E 
 994      7400
ARM GAS  C:\Users\TaisikHam\AppData\Local\Temp\ccrjtrAb.s 			page 20


 995              	.LASF11:
 996 0193 66756E63 		.ascii	"funcp_t\000"
 996      705F7400 
 997              	.LASF30:
 998 019b 2E2E2F2E 		.ascii	"../../../os/ports/GCC/ARMCMx/crt0.c\000"
 998      2E2F2E2E 
 998      2F6F732F 
 998      706F7274 
 998      732F4743 
 999              	.LASF6:
 1000 01bf 75696E74 		.ascii	"uint32_t\000"
 1000      33325F74 
 1000      00
 1001              	.LASF4:
 1002 01c8 6C6F6E67 		.ascii	"long int\000"
 1002      20696E74 
 1002      00
 1003              	.LASF21:
 1004 01d1 5F646174 		.ascii	"_data\000"
 1004      6100
 1005              	.LASF0:
 1006 01d7 7369676E 		.ascii	"signed char\000"
 1006      65642063 
 1006      68617200 
 1007              	.LASF19:
 1008 01e3 5F5F7072 		.ascii	"__process_stack_end__\000"
 1008      6F636573 
 1008      735F7374 
 1008      61636B5F 
 1008      656E645F 
 1009              	.LASF25:
 1010 01f9 5F5F696E 		.ascii	"__init_array_start\000"
 1010      69745F61 
 1010      72726179 
 1010      5F737461 
 1010      727400
 1011              	.LASF17:
 1012 020c 5F5F6D61 		.ascii	"__main_stack_end__\000"
 1012      696E5F73 
 1012      7461636B 
 1012      5F656E64 
 1012      5F5F00
 1013              		.ident	"GCC: (GNU) 4.7.2"
ARM GAS  C:\Users\TaisikHam\AppData\Local\Temp\ccrjtrAb.s 			page 21


DEFINED SYMBOLS
                            *ABS*:00000000 crt0.c
C:\Users\TaisikHam\AppData\Local\Temp\ccrjtrAb.s:19     .text.__early_init:00000000 $t
C:\Users\TaisikHam\AppData\Local\Temp\ccrjtrAb.s:25     .text.__early_init:00000000 __early_init
C:\Users\TaisikHam\AppData\Local\Temp\ccrjtrAb.s:38     .text.__late_init:00000000 $t
C:\Users\TaisikHam\AppData\Local\Temp\ccrjtrAb.s:44     .text.__late_init:00000000 __late_init
C:\Users\TaisikHam\AppData\Local\Temp\ccrjtrAb.s:56     .text._default_exit:00000000 $t
C:\Users\TaisikHam\AppData\Local\Temp\ccrjtrAb.s:62     .text._default_exit:00000000 _default_exit
C:\Users\TaisikHam\AppData\Local\Temp\ccrjtrAb.s:75     .text.ResetHandler:00000000 $t
C:\Users\TaisikHam\AppData\Local\Temp\ccrjtrAb.s:81     .text.ResetHandler:00000000 ResetHandler
C:\Users\TaisikHam\AppData\Local\Temp\ccrjtrAb.s:293    .text.ResetHandler:000000e0 $d
                     .debug_frame:00000010 $d
C:\Users\TaisikHam\AppData\Local\Temp\ccrjtrAb.s:310    .text.ResetHandler:00000118 $t

UNDEFINED SYMBOLS
main
__process_stack_end__
__main_stack_base__
__main_stack_end__
__process_stack_base__
_data
_edata
_textdata
_bss_start
_bss_end
__init_array_start
__init_array_end
__fini_array_start
__fini_array_end
