ARM GAS  C:\Users\TaisikHam\AppData\Local\Temp\ccoTVUBl.s 			page 1


   1              		.syntax unified
   2              		.cpu cortex-m4
   3              		.fpu softvfp
   4              		.eabi_attribute 20, 1
   5              		.eabi_attribute 21, 1
   6              		.eabi_attribute 23, 3
   7              		.eabi_attribute 24, 1
   8              		.eabi_attribute 25, 1
   9              		.eabi_attribute 26, 1
  10              		.eabi_attribute 30, 2
  11              		.eabi_attribute 34, 1
  12              		.eabi_attribute 18, 4
  13              		.thumb
  14              		.file	"l3gdcomp.c"
  15              		.text
  16              	.Ltext0:
  17              		.cfi_sections	.debug_frame
  18              		.section	.text.L3GD20_SendByte,"ax",%progbits
  19              		.align	2
  20              		.p2align 4,,15
  21              		.thumb
  22              		.thumb_func
  23              		.type	L3GD20_SendByte, %function
  24              	L3GD20_SendByte:
  25              	.LFB127:
  26              		.file 1 "../../../Testhal_wrk/STM32F30x/Gyro/l3gdcomp.c"
  27              		.loc 1 382 0
  28              		.cfi_startproc
  29              		@ args = 0, pretend = 0, frame = 16
  30              		@ frame_needed = 0, uses_anonymous_args = 0
  31              	.LVL0:
  32 0000 10B5     		push	{r4, lr}
  33              	.LCFI0:
  34              		.cfi_def_cfa_offset 8
  35              		.cfi_offset 4, -8
  36              		.cfi_offset 14, -4
  37              		.loc 1 386 0
  38 0002 114C     		ldr	r4, .L7
  39              		.loc 1 382 0
  40 0004 84B0     		sub	sp, sp, #16
  41              	.LCFI1:
  42              		.cfi_def_cfa_offset 24
  43              		.loc 1 386 0
  44 0006 4FF48053 		mov	r3, #4096
  45              		.loc 1 382 0
  46 000a 8DF80700 		strb	r0, [sp, #7]
  47              		.loc 1 386 0
  48 000e 2360     		str	r3, [r4, #0]
  49              		.loc 1 389 0
  50 0010 03E0     		b	.L2
  51              	.LVL1:
  52              	.L4:
  53              		.loc 1 391 0
  54 0012 2368     		ldr	r3, [r4, #0]
  55 0014 5A1E     		subs	r2, r3, #1
  56 0016 2260     		str	r2, [r4, #0]
  57 0018 A3B1     		cbz	r3, .L3
ARM GAS  C:\Users\TaisikHam\AppData\Local\Temp\ccoTVUBl.s 			page 2


  58              	.L2:
  59              		.loc 1 389 0 discriminator 1
  60 001a 4FF44050 		mov	r0, #12288
  61 001e C4F20100 		movt	r0, 16385
  62 0022 0221     		movs	r1, #2
  63 0024 FFF7FEFF 		bl	SPI_I2S_GetFlagStatus
  64              	.LVL2:
  65 0028 0028     		cmp	r0, #0
  66 002a F2D0     		beq	.L4
  67              		.loc 1 395 0
  68 002c 0748     		ldr	r0, .L7+4
  69 002e 0121     		movs	r1, #1
  70 0030 0DF10702 		add	r2, sp, #7
  71 0034 0DF10F03 		add	r3, sp, #15
  72 0038 FFF7FEFF 		bl	spiExchange
  73              	.LVL3:
  74              		.loc 1 423 0
  75 003c 9DF80F00 		ldrb	r0, [sp, #15]	@ zero_extendqisi2
  76 0040 04B0     		add	sp, sp, #16
  77 0042 10BD     		pop	{r4, pc}
  78              	.LVL4:
  79              	.L3:
  80 0044 FEE7     		b	.L3
  81              	.L8:
  82 0046 00BF     		.align	2
  83              	.L7:
  84 0048 00000000 		.word	.LANCHOR0
  85 004c 00000000 		.word	SPID1
  86              		.cfi_endproc
  87              	.LFE127:
  88              		.size	L3GD20_SendByte, .-L3GD20_SendByte
  89              		.section	.text.L3GD20_Read,"ax",%progbits
  90              		.align	2
  91              		.p2align 4,,15
  92              		.global	L3GD20_Read
  93              		.thumb
  94              		.thumb_func
  95              		.type	L3GD20_Read, %function
  96              	L3GD20_Read:
  97              	.LFB119:
  98              		.loc 1 160 0
  99              		.cfi_startproc
 100              		@ args = 0, pretend = 0, frame = 0
 101              		@ frame_needed = 0, uses_anonymous_args = 0
 102              	.LVL5:
 103 0000 38B5     		push	{r3, r4, r5, lr}
 104              	.LCFI2:
 105              		.cfi_def_cfa_offset 16
 106              		.cfi_offset 3, -16
 107              		.cfi_offset 4, -12
 108              		.cfi_offset 5, -8
 109              		.cfi_offset 14, -4
 110              		.loc 1 160 0
 111 0002 1546     		mov	r5, r2
 112              		.loc 1 170 0
 113 0004 4FF48053 		mov	r3, #4096
 114              		.loc 1 161 0
ARM GAS  C:\Users\TaisikHam\AppData\Local\Temp\ccoTVUBl.s 			page 3


 115 0008 012D     		cmp	r5, #1
 116              		.loc 1 160 0
 117 000a 0446     		mov	r4, r0
 118              		.loc 1 163 0
 119 000c 0A78     		ldrb	r2, [r1, #0]	@ zero_extendqisi2
 120              	.LVL6:
 121              		.loc 1 170 0
 122 000e C4F60003 		movt	r3, 18432
 123              		.loc 1 161 0
 124 0012 19D9     		bls	.L10
 125              		.loc 1 163 0
 126 0014 62F03F02 		orn	r2, r2, #63
 127 0018 0A70     		strb	r2, [r1, #0]
 128              		.loc 1 170 0
 129 001a 0822     		movs	r2, #8
 130 001c 5A83     		strh	r2, [r3, #26]	@ movhi
 131              		.loc 1 173 0
 132 001e 0878     		ldrb	r0, [r1, #0]	@ zero_extendqisi2
 133              	.LVL7:
 134 0020 FFF7FEFF 		bl	L3GD20_SendByte
 135              	.LVL8:
 136              	.L11:
 137              		.loc 1 159 0
 138 0024 013D     		subs	r5, r5, #1
 139 0026 ADB2     		uxth	r5, r5
 140 0028 0135     		adds	r5, r5, #1
 141 002a 6519     		adds	r5, r4, r5
 142              	.L12:
 143              		.loc 1 180 0
 144 002c 0020     		movs	r0, #0
 145 002e FFF7FEFF 		bl	L3GD20_SendByte
 146              	.LVL9:
 147 0032 04F8010B 		strb	r0, [r4], #1
 148              	.LVL10:
 149              		.loc 1 176 0
 150 0036 AC42     		cmp	r4, r5
 151 0038 F8D1     		bne	.L12
 152              	.L13:
 153              		.loc 1 189 0
 154 003a 4FF48053 		mov	r3, #4096
 155 003e C4F60003 		movt	r3, 18432
 156 0042 0822     		movs	r2, #8
 157 0044 1A83     		strh	r2, [r3, #24]	@ movhi
 158 0046 38BD     		pop	{r3, r4, r5, pc}
 159              	.LVL11:
 160              	.L10:
 161              		.loc 1 167 0
 162 0048 62F07F02 		orn	r2, r2, #127
 163 004c 0A70     		strb	r2, [r1, #0]
 164              		.loc 1 170 0
 165 004e 0822     		movs	r2, #8
 166 0050 5A83     		strh	r2, [r3, #26]	@ movhi
 167              		.loc 1 173 0
 168 0052 0878     		ldrb	r0, [r1, #0]	@ zero_extendqisi2
 169              	.LVL12:
 170 0054 FFF7FEFF 		bl	L3GD20_SendByte
 171              	.LVL13:
ARM GAS  C:\Users\TaisikHam\AppData\Local\Temp\ccoTVUBl.s 			page 4


 172              		.loc 1 176 0
 173 0058 002D     		cmp	r5, #0
 174 005a E3D1     		bne	.L11
 175 005c EDE7     		b	.L13
 176              		.cfi_endproc
 177              	.LFE119:
 178              		.size	L3GD20_Read, .-L3GD20_Read
 179 005e 00BF     		.section	.text.L3GD20_GetDataStatus,"ax",%progbits
 180              		.align	2
 181              		.p2align 4,,15
 182              		.global	L3GD20_GetDataStatus
 183              		.thumb
 184              		.thumb_func
 185              		.type	L3GD20_GetDataStatus, %function
 186              	L3GD20_GetDataStatus:
 187              	.LFB126:
 188              		.loc 1 359 0
 189              		.cfi_startproc
 190              		@ args = 0, pretend = 0, frame = 8
 191              		@ frame_needed = 0, uses_anonymous_args = 0
 192 0000 00B5     		push	{lr}
 193              	.LCFI3:
 194              		.cfi_def_cfa_offset 4
 195              		.cfi_offset 14, -4
 196 0002 83B0     		sub	sp, sp, #12
 197              	.LCFI4:
 198              		.cfi_def_cfa_offset 16
 199              		.loc 1 364 0
 200 0004 0DF10600 		add	r0, sp, #6
 201              		.loc 1 363 0
 202 0008 2723     		movs	r3, #39
 203              		.loc 1 364 0
 204 000a 0DF10701 		add	r1, sp, #7
 205 000e 0122     		movs	r2, #1
 206              		.loc 1 363 0
 207 0010 8DF80730 		strb	r3, [sp, #7]
 208              	.LVL14:
 209              		.loc 1 364 0
 210 0014 FFF7FEFF 		bl	L3GD20_Read
 211              	.LVL15:
 212              		.loc 1 367 0
 213 0018 9DF80600 		ldrb	r0, [sp, #6]	@ zero_extendqisi2
 214 001c 03B0     		add	sp, sp, #12
 215 001e 00BD     		pop	{pc}
 216              		.cfi_endproc
 217              	.LFE126:
 218              		.size	L3GD20_GetDataStatus, .-L3GD20_GetDataStatus
 219              		.section	.text.SPI_Init_A,"ax",%progbits
 220              		.align	2
 221              		.p2align 4,,15
 222              		.global	SPI_Init_A
 223              		.thumb
 224              		.thumb_func
 225              		.type	SPI_Init_A, %function
 226              	SPI_Init_A:
 227              	.LFB128:
 228              		.loc 1 435 0
ARM GAS  C:\Users\TaisikHam\AppData\Local\Temp\ccoTVUBl.s 			page 5


 229              		.cfi_startproc
 230              		@ args = 0, pretend = 0, frame = 0
 231              		@ frame_needed = 0, uses_anonymous_args = 0
 232              		@ link register save eliminated.
 233              	.LVL16:
 234 0000 2DE9F007 		push	{r4, r5, r6, r7, r8, r9, sl}
 235              	.LCFI5:
 236              		.cfi_def_cfa_offset 28
 237              		.cfi_offset 4, -28
 238              		.cfi_offset 5, -24
 239              		.cfi_offset 6, -20
 240              		.cfi_offset 7, -16
 241              		.cfi_offset 8, -12
 242              		.cfi_offset 9, -8
 243              		.cfi_offset 10, -4
 244              		.loc 1 439 0
 245 0004 4C88     		ldrh	r4, [r1, #2]
 246 0006 B4F5827F 		cmp	r4, #260
 247 000a 2FD0     		beq	.L20
 248              		.loc 1 469 0
 249 000c 8388     		ldrh	r3, [r0, #4]
 250              	.LVL17:
 251              		.loc 1 490 0
 252 000e B1F800C0 		ldrh	ip, [r1, #0]
 253              		.loc 1 473 0
 254 0012 B1F804A0 		ldrh	sl, [r1, #4]
 255              		.loc 1 492 0
 256 0016 B1F80690 		ldrh	r9, [r1, #6]
 257 001a B1F80880 		ldrh	r8, [r1, #8]
 258              		.loc 1 491 0
 259 001e 4F89     		ldrh	r7, [r1, #10]
 260 0020 8E89     		ldrh	r6, [r1, #12]
 261              		.loc 1 490 0
 262 0022 CD89     		ldrh	r5, [r1, #14]
 263              		.loc 1 471 0
 264 0024 23F47063 		bic	r3, r3, #3840
 265              	.LVL18:
 266 0028 1B04     		lsls	r3, r3, #16
 267              		.loc 1 490 0
 268 002a 44EA0C0C 		orr	ip, r4, ip
 269              		.loc 1 471 0
 270 002e 1B0C     		lsrs	r3, r3, #16
 271              	.LVL19:
 272              		.loc 1 473 0
 273 0030 43EA0A03 		orr	r3, r3, sl
 274              	.LVL20:
 275              		.loc 1 492 0
 276 0034 4CEA090C 		orr	ip, ip, r9
 277              		.loc 1 475 0
 278 0038 8380     		strh	r3, [r0, #4]	@ movhi
 279              		.loc 1 492 0
 280 003a 4CEA080C 		orr	ip, ip, r8
 281              		.loc 1 479 0
 282 003e 0488     		ldrh	r4, [r0, #0]
 283              	.LVL21:
 284              		.loc 1 476 0
 285 0040 9381     		strh	r3, [r2, #12]	@ movhi
ARM GAS  C:\Users\TaisikHam\AppData\Local\Temp\ccoTVUBl.s 			page 6


 286              		.loc 1 491 0
 287 0042 4CEA0703 		orr	r3, ip, r7
 288 0046 3343     		orrs	r3, r3, r6
 289              		.loc 1 481 0
 290 0048 04F44154 		and	r4, r4, #12352
 291              	.LVL22:
 292              		.loc 1 490 0
 293 004c 2B43     		orrs	r3, r3, r5
 294 004e 2343     		orrs	r3, r3, r4
 295 0050 9BB2     		uxth	r3, r3
 296              	.LVL23:
 297              		.loc 1 496 0
 298 0052 0380     		strh	r3, [r0, #0]	@ movhi
 299              		.loc 1 497 0
 300 0054 5381     		strh	r3, [r2, #10]	@ movhi
 301              	.LVL24:
 302              	.L19:
 303              		.loc 1 501 0
 304 0056 838B     		ldrh	r3, [r0, #28]
 305              		.loc 1 505 0
 306 0058 0A8A     		ldrh	r2, [r1, #16]
 307              	.LVL25:
 308              		.loc 1 501 0
 309 005a 23F40063 		bic	r3, r3, #2048
 310 005e 1B04     		lsls	r3, r3, #16
 311 0060 1B0C     		lsrs	r3, r3, #16
 312 0062 8383     		strh	r3, [r0, #28]	@ movhi
 313              		.loc 1 505 0
 314 0064 0282     		strh	r2, [r0, #16]	@ movhi
 315              		.loc 1 506 0
 316 0066 BDE8F007 		pop	{r4, r5, r6, r7, r8, r9, sl}
 317 006a 7047     		bx	lr
 318              	.LVL26:
 319              	.L20:
 320              		.loc 1 445 0
 321 006c B1F80090 		ldrh	r9, [r1, #0]
 322 0070 CC88     		ldrh	r4, [r1, #6]
 323              		.loc 1 447 0
 324 0072 B1F80880 		ldrh	r8, [r1, #8]
 325              		.loc 1 446 0
 326 0076 B1F80AC0 		ldrh	ip, [r1, #10]
 327 007a 8F89     		ldrh	r7, [r1, #12]
 328              		.loc 1 441 0
 329 007c 0388     		ldrh	r3, [r0, #0]
 330              	.LVL27:
 331              		.loc 1 445 0
 332 007e CE89     		ldrh	r6, [r1, #14]
 333              		.loc 1 459 0
 334 0080 8D88     		ldrh	r5, [r1, #4]
 335              		.loc 1 445 0
 336 0082 49EA0404 		orr	r4, r9, r4
 337              		.loc 1 447 0
 338 0086 44F48274 		orr	r4, r4, #260
 339 008a 44EA0804 		orr	r4, r4, r8
 340              		.loc 1 446 0
 341 008e 44EA0C04 		orr	r4, r4, ip
 342 0092 3C43     		orrs	r4, r4, r7
ARM GAS  C:\Users\TaisikHam\AppData\Local\Temp\ccoTVUBl.s 			page 7


 343              		.loc 1 443 0
 344 0094 03F44153 		and	r3, r3, #12352
 345              	.LVL28:
 346              		.loc 1 445 0
 347 0098 3443     		orrs	r4, r4, r6
 348 009a 1C43     		orrs	r4, r4, r3
 349 009c A4B2     		uxth	r4, r4
 350              	.LVL29:
 351              		.loc 1 450 0
 352 009e 0480     		strh	r4, [r0, #0]	@ movhi
 353              		.loc 1 455 0
 354 00a0 8388     		ldrh	r3, [r0, #4]
 355              	.LVL30:
 356              		.loc 1 451 0
 357 00a2 5481     		strh	r4, [r2, #10]	@ movhi
 358              		.loc 1 457 0
 359 00a4 23F47063 		bic	r3, r3, #3840
 360              	.LVL31:
 361 00a8 1B04     		lsls	r3, r3, #16
 362 00aa 1B0C     		lsrs	r3, r3, #16
 363              	.LVL32:
 364              		.loc 1 459 0
 365 00ac 2B43     		orrs	r3, r3, r5
 366              	.LVL33:
 367              		.loc 1 461 0
 368 00ae 8380     		strh	r3, [r0, #4]	@ movhi
 369              		.loc 1 462 0
 370 00b0 9381     		strh	r3, [r2, #12]	@ movhi
 371 00b2 D0E7     		b	.L19
 372              		.cfi_endproc
 373              	.LFE128:
 374              		.size	SPI_Init_A, .-SPI_Init_A
 375 00b4 AFF30080 		.section	.text.L3GD20_Write,"ax",%progbits
 375      AFF30080 
 375      AFF30080 
 376              		.align	2
 377              		.p2align 4,,15
 378              		.global	L3GD20_Write
 379              		.thumb
 380              		.thumb_func
 381              		.type	L3GD20_Write, %function
 382              	L3GD20_Write:
 383              	.LFB131:
 384              		.loc 1 623 0
 385              		.cfi_startproc
 386              		@ args = 0, pretend = 0, frame = 0
 387              		@ frame_needed = 0, uses_anonymous_args = 0
 388              	.LVL34:
 389              		.loc 1 628 0
 390 0000 012A     		cmp	r2, #1
 391              		.loc 1 623 0
 392 0002 38B5     		push	{r3, r4, r5, lr}
 393              	.LCFI6:
 394              		.cfi_def_cfa_offset 16
 395              		.cfi_offset 3, -16
 396              		.cfi_offset 4, -12
 397              		.cfi_offset 5, -8
ARM GAS  C:\Users\TaisikHam\AppData\Local\Temp\ccoTVUBl.s 			page 8


 398              		.cfi_offset 14, -4
 399              		.loc 1 623 0
 400 0004 1546     		mov	r5, r2
 401 0006 0446     		mov	r4, r0
 402              		.loc 1 628 0
 403 0008 1DD9     		bls	.L22
 404              		.loc 1 630 0
 405 000a 0A78     		ldrb	r2, [r1, #0]	@ zero_extendqisi2
 406              	.LVL35:
 407              		.loc 1 633 0
 408 000c 4FF48053 		mov	r3, #4096
 409              		.loc 1 630 0
 410 0010 42F04002 		orr	r2, r2, #64
 411              		.loc 1 633 0
 412 0014 C4F60003 		movt	r3, 18432
 413              		.loc 1 630 0
 414 0018 0A70     		strb	r2, [r1, #0]
 415              		.loc 1 633 0
 416 001a 0822     		movs	r2, #8
 417 001c 5A83     		strh	r2, [r3, #26]	@ movhi
 418              		.loc 1 636 0
 419 001e 0878     		ldrb	r0, [r1, #0]	@ zero_extendqisi2
 420              	.LVL36:
 421 0020 FFF7FEFF 		bl	L3GD20_SendByte
 422              	.LVL37:
 423              	.L23:
 424              		.loc 1 622 0
 425 0024 013D     		subs	r5, r5, #1
 426 0026 ADB2     		uxth	r5, r5
 427 0028 0135     		adds	r5, r5, #1
 428 002a 6519     		adds	r5, r4, r5
 429              	.L24:
 430              		.loc 1 640 0
 431 002c 14F8010B 		ldrb	r0, [r4], #1	@ zero_extendqisi2
 432              	.LVL38:
 433 0030 FFF7FEFF 		bl	L3GD20_SendByte
 434              	.LVL39:
 435              		.loc 1 638 0
 436 0034 AC42     		cmp	r4, r5
 437 0036 F9D1     		bne	.L24
 438              	.L25:
 439              		.loc 1 646 0
 440 0038 4FF48053 		mov	r3, #4096
 441 003c C4F60003 		movt	r3, 18432
 442 0040 0822     		movs	r2, #8
 443 0042 1A83     		strh	r2, [r3, #24]	@ movhi
 444 0044 38BD     		pop	{r3, r4, r5, pc}
 445              	.LVL40:
 446              	.L22:
 447              		.loc 1 633 0
 448 0046 4FF48053 		mov	r3, #4096
 449 004a C4F60003 		movt	r3, 18432
 450 004e 0822     		movs	r2, #8
 451              	.LVL41:
 452 0050 5A83     		strh	r2, [r3, #26]	@ movhi
 453              		.loc 1 636 0
 454 0052 0878     		ldrb	r0, [r1, #0]	@ zero_extendqisi2
ARM GAS  C:\Users\TaisikHam\AppData\Local\Temp\ccoTVUBl.s 			page 9


 455              	.LVL42:
 456 0054 FFF7FEFF 		bl	L3GD20_SendByte
 457              	.LVL43:
 458              		.loc 1 638 0
 459 0058 002D     		cmp	r5, #0
 460 005a E3D1     		bne	.L23
 461 005c ECE7     		b	.L25
 462              		.cfi_endproc
 463              	.LFE131:
 464              		.size	L3GD20_Write, .-L3GD20_Write
 465 005e 00BF     		.section	.text.L3GD20_FilterCmd,"ax",%progbits
 466              		.align	2
 467              		.p2align 4,,15
 468              		.global	L3GD20_FilterCmd
 469              		.thumb
 470              		.thumb_func
 471              		.type	L3GD20_FilterCmd, %function
 472              	L3GD20_FilterCmd:
 473              	.LFB125:
 474              		.loc 1 337 0
 475              		.cfi_startproc
 476              		@ args = 0, pretend = 0, frame = 8
 477              		@ frame_needed = 0, uses_anonymous_args = 0
 478              	.LVL44:
 479 0000 30B5     		push	{r4, r5, lr}
 480              	.LCFI7:
 481              		.cfi_def_cfa_offset 12
 482              		.cfi_offset 4, -12
 483              		.cfi_offset 5, -8
 484              		.cfi_offset 14, -4
 485 0002 83B0     		sub	sp, sp, #12
 486              	.LCFI8:
 487              		.cfi_def_cfa_offset 24
 488              		.loc 1 341 0
 489 0004 2424     		movs	r4, #36
 490              		.loc 1 342 0
 491 0006 0DF10701 		add	r1, sp, #7
 492 000a 0122     		movs	r2, #1
 493              		.loc 1 337 0
 494 000c 0546     		mov	r5, r0
 495              		.loc 1 342 0
 496 000e 0DF10600 		add	r0, sp, #6
 497              	.LVL45:
 498              		.loc 1 341 0
 499 0012 8DF80740 		strb	r4, [sp, #7]
 500              	.LVL46:
 501              		.loc 1 342 0
 502 0016 FFF7FEFF 		bl	L3GD20_Read
 503              	.LVL47:
 504              		.loc 1 344 0
 505 001a 9DF80630 		ldrb	r3, [sp, #6]	@ zero_extendqisi2
 506              	.LVL48:
 507              		.loc 1 349 0
 508 001e 8DF80740 		strb	r4, [sp, #7]
 509              		.loc 1 344 0
 510 0022 23F01003 		bic	r3, r3, #16
 511              	.LVL49:
ARM GAS  C:\Users\TaisikHam\AppData\Local\Temp\ccoTVUBl.s 			page 10


 512              		.loc 1 346 0
 513 0026 1D43     		orrs	r5, r5, r3
 514              		.loc 1 350 0
 515 0028 0DF10600 		add	r0, sp, #6
 516 002c 0DF10701 		add	r1, sp, #7
 517 0030 0122     		movs	r2, #1
 518              		.loc 1 346 0
 519 0032 8DF80650 		strb	r5, [sp, #6]
 520              	.LVL50:
 521              		.loc 1 350 0
 522 0036 FFF7FEFF 		bl	L3GD20_Write
 523              	.LVL51:
 524              		.loc 1 351 0
 525 003a 03B0     		add	sp, sp, #12
 526 003c 30BD     		pop	{r4, r5, pc}
 527              		.cfi_endproc
 528              	.LFE125:
 529              		.size	L3GD20_FilterCmd, .-L3GD20_FilterCmd
 530 003e 00BF     		.section	.text.L3GD20_FilterConfig,"ax",%progbits
 531              		.align	2
 532              		.p2align 4,,15
 533              		.global	L3GD20_FilterConfig
 534              		.thumb
 535              		.thumb_func
 536              		.type	L3GD20_FilterConfig, %function
 537              	L3GD20_FilterConfig:
 538              	.LFB124:
 539              		.loc 1 310 0
 540              		.cfi_startproc
 541              		@ args = 0, pretend = 0, frame = 8
 542              		@ frame_needed = 0, uses_anonymous_args = 0
 543              	.LVL52:
 544 0000 30B5     		push	{r4, r5, lr}
 545              	.LCFI9:
 546              		.cfi_def_cfa_offset 12
 547              		.cfi_offset 4, -12
 548              		.cfi_offset 5, -8
 549              		.cfi_offset 14, -4
 550 0002 0546     		mov	r5, r0
 551 0004 83B0     		sub	sp, sp, #12
 552              	.LCFI10:
 553              		.cfi_def_cfa_offset 24
 554              		.loc 1 314 0
 555 0006 2124     		movs	r4, #33
 556              		.loc 1 315 0
 557 0008 0DF10600 		add	r0, sp, #6
 558              	.LVL53:
 559 000c 0DF10701 		add	r1, sp, #7
 560 0010 0122     		movs	r2, #1
 561              		.loc 1 314 0
 562 0012 8DF80740 		strb	r4, [sp, #7]
 563              	.LVL54:
 564              		.loc 1 315 0
 565 0016 FFF7FEFF 		bl	L3GD20_Read
 566              	.LVL55:
 567              		.loc 1 317 0
 568 001a 9DF80620 		ldrb	r2, [sp, #6]	@ zero_extendqisi2
ARM GAS  C:\Users\TaisikHam\AppData\Local\Temp\ccoTVUBl.s 			page 11


 569              	.LVL56:
 570              		.loc 1 320 0
 571 001e 6978     		ldrb	r1, [r5, #1]	@ zero_extendqisi2
 572 0020 2B78     		ldrb	r3, [r5, #0]	@ zero_extendqisi2
 573              		.loc 1 324 0
 574 0022 8DF80740 		strb	r4, [sp, #7]
 575              		.loc 1 320 0
 576 0026 0B43     		orrs	r3, r3, r1
 577              		.loc 1 317 0
 578 0028 22F03F02 		bic	r2, r2, #63
 579              	.LVL57:
 580              		.loc 1 320 0
 581 002c 1343     		orrs	r3, r3, r2
 582              		.loc 1 325 0
 583 002e 0DF10600 		add	r0, sp, #6
 584 0032 0DF10701 		add	r1, sp, #7
 585 0036 0122     		movs	r2, #1
 586              		.loc 1 320 0
 587 0038 8DF80630 		strb	r3, [sp, #6]
 588              	.LVL58:
 589              		.loc 1 325 0
 590 003c FFF7FEFF 		bl	L3GD20_Write
 591              	.LVL59:
 592              		.loc 1 326 0
 593 0040 03B0     		add	sp, sp, #12
 594 0042 30BD     		pop	{r4, r5, pc}
 595              		.cfi_endproc
 596              	.LFE124:
 597              		.size	L3GD20_FilterConfig, .-L3GD20_FilterConfig
 598 0044 AFF30080 		.section	.text.L3GD20_INT2InterruptCmd,"ax",%progbits
 598      AFF30080 
 598      AFF30080 
 599              		.align	2
 600              		.p2align 4,,15
 601              		.global	L3GD20_INT2InterruptCmd
 602              		.thumb
 603              		.thumb_func
 604              		.type	L3GD20_INT2InterruptCmd, %function
 605              	L3GD20_INT2InterruptCmd:
 606              	.LFB123:
 607              		.loc 1 288 0
 608              		.cfi_startproc
 609              		@ args = 0, pretend = 0, frame = 8
 610              		@ frame_needed = 0, uses_anonymous_args = 0
 611              	.LVL60:
 612 0000 30B5     		push	{r4, r5, lr}
 613              	.LCFI11:
 614              		.cfi_def_cfa_offset 12
 615              		.cfi_offset 4, -12
 616              		.cfi_offset 5, -8
 617              		.cfi_offset 14, -4
 618 0002 83B0     		sub	sp, sp, #12
 619              	.LCFI12:
 620              		.cfi_def_cfa_offset 24
 621              		.loc 1 292 0
 622 0004 2224     		movs	r4, #34
 623              		.loc 1 293 0
ARM GAS  C:\Users\TaisikHam\AppData\Local\Temp\ccoTVUBl.s 			page 12


 624 0006 0DF10701 		add	r1, sp, #7
 625 000a 0122     		movs	r2, #1
 626              		.loc 1 288 0
 627 000c 0546     		mov	r5, r0
 628              		.loc 1 293 0
 629 000e 0DF10600 		add	r0, sp, #6
 630              	.LVL61:
 631              		.loc 1 292 0
 632 0012 8DF80740 		strb	r4, [sp, #7]
 633              	.LVL62:
 634              		.loc 1 293 0
 635 0016 FFF7FEFF 		bl	L3GD20_Read
 636              	.LVL63:
 637              		.loc 1 295 0
 638 001a 9DF80630 		ldrb	r3, [sp, #6]	@ zero_extendqisi2
 639              	.LVL64:
 640              		.loc 1 299 0
 641 001e 8DF80740 		strb	r4, [sp, #7]
 642              		.loc 1 295 0
 643 0022 23F00803 		bic	r3, r3, #8
 644              	.LVL65:
 645              		.loc 1 296 0
 646 0026 1D43     		orrs	r5, r5, r3
 647              		.loc 1 300 0
 648 0028 0DF10600 		add	r0, sp, #6
 649 002c 0DF10701 		add	r1, sp, #7
 650 0030 0122     		movs	r2, #1
 651              		.loc 1 296 0
 652 0032 8DF80650 		strb	r5, [sp, #6]
 653              	.LVL66:
 654              		.loc 1 300 0
 655 0036 FFF7FEFF 		bl	L3GD20_Write
 656              	.LVL67:
 657              		.loc 1 301 0
 658 003a 03B0     		add	sp, sp, #12
 659 003c 30BD     		pop	{r4, r5, pc}
 660              		.cfi_endproc
 661              	.LFE123:
 662              		.size	L3GD20_INT2InterruptCmd, .-L3GD20_INT2InterruptCmd
 663 003e 00BF     		.section	.text.L3GD20_INT1InterruptCmd,"ax",%progbits
 664              		.align	2
 665              		.p2align 4,,15
 666              		.global	L3GD20_INT1InterruptCmd
 667              		.thumb
 668              		.thumb_func
 669              		.type	L3GD20_INT1InterruptCmd, %function
 670              	L3GD20_INT1InterruptCmd:
 671              	.LFB122:
 672              		.loc 1 264 0
 673              		.cfi_startproc
 674              		@ args = 0, pretend = 0, frame = 8
 675              		@ frame_needed = 0, uses_anonymous_args = 0
 676              	.LVL68:
 677 0000 30B5     		push	{r4, r5, lr}
 678              	.LCFI13:
 679              		.cfi_def_cfa_offset 12
 680              		.cfi_offset 4, -12
ARM GAS  C:\Users\TaisikHam\AppData\Local\Temp\ccoTVUBl.s 			page 13


 681              		.cfi_offset 5, -8
 682              		.cfi_offset 14, -4
 683 0002 83B0     		sub	sp, sp, #12
 684              	.LCFI14:
 685              		.cfi_def_cfa_offset 24
 686              		.loc 1 268 0
 687 0004 2224     		movs	r4, #34
 688              		.loc 1 269 0
 689 0006 0DF10701 		add	r1, sp, #7
 690 000a 0122     		movs	r2, #1
 691              		.loc 1 264 0
 692 000c 0546     		mov	r5, r0
 693              		.loc 1 269 0
 694 000e 0DF10600 		add	r0, sp, #6
 695              	.LVL69:
 696              		.loc 1 268 0
 697 0012 8DF80740 		strb	r4, [sp, #7]
 698              	.LVL70:
 699              		.loc 1 269 0
 700 0016 FFF7FEFF 		bl	L3GD20_Read
 701              	.LVL71:
 702              		.loc 1 271 0
 703 001a 9DF80630 		ldrb	r3, [sp, #6]	@ zero_extendqisi2
 704              	.LVL72:
 705              		.loc 1 275 0
 706 001e 8DF80740 		strb	r4, [sp, #7]
 707              		.loc 1 271 0
 708 0022 03F07F03 		and	r3, r3, #127
 709              	.LVL73:
 710              		.loc 1 272 0
 711 0026 1D43     		orrs	r5, r5, r3
 712              		.loc 1 276 0
 713 0028 0DF10600 		add	r0, sp, #6
 714 002c 0DF10701 		add	r1, sp, #7
 715 0030 0122     		movs	r2, #1
 716              		.loc 1 272 0
 717 0032 8DF80650 		strb	r5, [sp, #6]
 718              	.LVL74:
 719              		.loc 1 276 0
 720 0036 FFF7FEFF 		bl	L3GD20_Write
 721              	.LVL75:
 722              		.loc 1 277 0
 723 003a 03B0     		add	sp, sp, #12
 724 003c 30BD     		pop	{r4, r5, pc}
 725              		.cfi_endproc
 726              	.LFE122:
 727              		.size	L3GD20_INT1InterruptCmd, .-L3GD20_INT1InterruptCmd
 728 003e 00BF     		.section	.text.L3GD20_INT1InterruptConfig,"ax",%progbits
 729              		.align	2
 730              		.p2align 4,,15
 731              		.global	L3GD20_INT1InterruptConfig
 732              		.thumb
 733              		.thumb_func
 734              		.type	L3GD20_INT1InterruptConfig, %function
 735              	L3GD20_INT1InterruptConfig:
 736              	.LFB121:
 737              		.loc 1 223 0
ARM GAS  C:\Users\TaisikHam\AppData\Local\Temp\ccoTVUBl.s 			page 14


 738              		.cfi_startproc
 739              		@ args = 0, pretend = 0, frame = 8
 740              		@ frame_needed = 0, uses_anonymous_args = 0
 741              	.LVL76:
 742 0000 F0B5     		push	{r4, r5, r6, r7, lr}
 743              	.LCFI15:
 744              		.cfi_def_cfa_offset 20
 745              		.cfi_offset 4, -20
 746              		.cfi_offset 5, -16
 747              		.cfi_offset 6, -12
 748              		.cfi_offset 7, -8
 749              		.cfi_offset 14, -4
 750 0002 83B0     		sub	sp, sp, #12
 751              	.LCFI16:
 752              		.cfi_def_cfa_offset 32
 753              		.loc 1 224 0
 754 0004 0023     		movs	r3, #0
 755              		.loc 1 223 0
 756 0006 0446     		mov	r4, r0
 757              		.loc 1 227 0
 758 0008 3026     		movs	r6, #48
 759              		.loc 1 229 0
 760 000a 0DF10500 		add	r0, sp, #5
 761              	.LVL77:
 762 000e 0DF10701 		add	r1, sp, #7
 763 0012 0122     		movs	r2, #1
 764              		.loc 1 224 0
 765 0014 8DF80530 		strb	r3, [sp, #5]
 766              	.LVL78:
 767 0018 8DF80630 		strb	r3, [sp, #6]
 768              	.LVL79:
 769              		.loc 1 231 0
 770 001c 2225     		movs	r5, #34
 771              		.loc 1 227 0
 772 001e 8DF80760 		strb	r6, [sp, #7]
 773              	.LVL80:
 774              		.loc 1 229 0
 775 0022 FFF7FEFF 		bl	L3GD20_Read
 776              	.LVL81:
 777              		.loc 1 233 0
 778 0026 0DF10600 		add	r0, sp, #6
 779 002a 0DF10701 		add	r1, sp, #7
 780 002e 0122     		movs	r2, #1
 781              		.loc 1 231 0
 782 0030 8DF80750 		strb	r5, [sp, #7]
 783              		.loc 1 233 0
 784 0034 FFF7FEFF 		bl	L3GD20_Read
 785              	.LVL82:
 786              		.loc 1 237 0
 787 0038 9DF80630 		ldrb	r3, [sp, #6]	@ zero_extendqisi2
 788              	.LVL83:
 789              		.loc 1 235 0
 790 003c 9DF80510 		ldrb	r1, [sp, #5]	@ zero_extendqisi2
 791              	.LVL84:
 792              		.loc 1 240 0
 793 0040 6778     		ldrb	r7, [r4, #1]	@ zero_extendqisi2
 794 0042 2078     		ldrb	r0, [r4, #0]	@ zero_extendqisi2
ARM GAS  C:\Users\TaisikHam\AppData\Local\Temp\ccoTVUBl.s 			page 15


 795              		.loc 1 243 0
 796 0044 A278     		ldrb	r2, [r4, #2]	@ zero_extendqisi2
 797              		.loc 1 246 0
 798 0046 8DF80760 		strb	r6, [sp, #7]
 799              		.loc 1 240 0
 800 004a 47EA0004 		orr	r4, r7, r0
 801              	.LVL85:
 802              		.loc 1 235 0
 803 004e 21F07F01 		bic	r1, r1, #127
 804              	.LVL86:
 805              		.loc 1 237 0
 806 0052 03F0DF03 		and	r3, r3, #223
 807              	.LVL87:
 808              		.loc 1 243 0
 809 0056 1343     		orrs	r3, r3, r2
 810              	.LVL88:
 811              		.loc 1 240 0
 812 0058 0C43     		orrs	r4, r4, r1
 813              		.loc 1 247 0
 814 005a 0DF10500 		add	r0, sp, #5
 815 005e 0DF10701 		add	r1, sp, #7
 816 0062 0122     		movs	r2, #1
 817              		.loc 1 240 0
 818 0064 8DF80540 		strb	r4, [sp, #5]
 819              	.LVL89:
 820              		.loc 1 243 0
 821 0068 8DF80630 		strb	r3, [sp, #6]
 822              	.LVL90:
 823              		.loc 1 247 0
 824 006c FFF7FEFF 		bl	L3GD20_Write
 825              	.LVL91:
 826              		.loc 1 251 0
 827 0070 0DF10600 		add	r0, sp, #6
 828 0074 0DF10701 		add	r1, sp, #7
 829 0078 0122     		movs	r2, #1
 830              		.loc 1 250 0
 831 007a 8DF80750 		strb	r5, [sp, #7]
 832              		.loc 1 251 0
 833 007e FFF7FEFF 		bl	L3GD20_Write
 834              	.LVL92:
 835              		.loc 1 252 0
 836 0082 03B0     		add	sp, sp, #12
 837 0084 F0BD     		pop	{r4, r5, r6, r7, pc}
 838              		.cfi_endproc
 839              	.LFE121:
 840              		.size	L3GD20_INT1InterruptConfig, .-L3GD20_INT1InterruptConfig
 841 0086 00BFAFF3 		.section	.text.L3GD20_RebootCmd,"ax",%progbits
 841      0080AFF3 
 841      0080
 842              		.align	2
 843              		.p2align 4,,15
 844              		.global	L3GD20_RebootCmd
 845              		.thumb
 846              		.thumb_func
 847              		.type	L3GD20_RebootCmd, %function
 848              	L3GD20_RebootCmd:
 849              	.LFB120:
ARM GAS  C:\Users\TaisikHam\AppData\Local\Temp\ccoTVUBl.s 			page 16


 850              		.loc 1 198 0
 851              		.cfi_startproc
 852              		@ args = 0, pretend = 0, frame = 8
 853              		@ frame_needed = 0, uses_anonymous_args = 0
 854 0000 10B5     		push	{r4, lr}
 855              	.LCFI17:
 856              		.cfi_def_cfa_offset 8
 857              		.cfi_offset 4, -8
 858              		.cfi_offset 14, -4
 859 0002 82B0     		sub	sp, sp, #8
 860              	.LCFI18:
 861              		.cfi_def_cfa_offset 16
 862              		.loc 1 201 0
 863 0004 2424     		movs	r4, #36
 864              		.loc 1 204 0
 865 0006 0DF10600 		add	r0, sp, #6
 866 000a 0DF10701 		add	r1, sp, #7
 867 000e 0122     		movs	r2, #1
 868              		.loc 1 201 0
 869 0010 8DF80740 		strb	r4, [sp, #7]
 870              	.LVL93:
 871              		.loc 1 204 0
 872 0014 FFF7FEFF 		bl	L3GD20_Read
 873              	.LVL94:
 874              		.loc 1 208 0
 875 0018 9DF80630 		ldrb	r3, [sp, #6]	@ zero_extendqisi2
 876              	.LVL95:
 877              		.loc 1 210 0
 878 001c 8DF80740 		strb	r4, [sp, #7]
 879              		.loc 1 208 0
 880 0020 63F07F03 		orn	r3, r3, #127
 881              	.LVL96:
 882              		.loc 1 212 0
 883 0024 0DF10600 		add	r0, sp, #6
 884 0028 0DF10701 		add	r1, sp, #7
 885 002c 0122     		movs	r2, #1
 886              		.loc 1 208 0
 887 002e 8DF80630 		strb	r3, [sp, #6]
 888              	.LVL97:
 889              		.loc 1 212 0
 890 0032 FFF7FEFF 		bl	L3GD20_Write
 891              	.LVL98:
 892              		.loc 1 213 0
 893 0036 02B0     		add	sp, sp, #8
 894 0038 10BD     		pop	{r4, pc}
 895              		.cfi_endproc
 896              	.LFE120:
 897              		.size	L3GD20_RebootCmd, .-L3GD20_RebootCmd
 898 003a 00BFAFF3 		.section	.text.L3GD20_Init,"ax",%progbits
 898      0080
 899              		.align	2
 900              		.p2align 4,,15
 901              		.global	L3GD20_Init
 902              		.thumb
 903              		.thumb_func
 904              		.type	L3GD20_Init, %function
 905              	L3GD20_Init:
ARM GAS  C:\Users\TaisikHam\AppData\Local\Temp\ccoTVUBl.s 			page 17


 906              	.LFB132:
 907              		.loc 1 658 0
 908              		.cfi_startproc
 909              		@ args = 0, pretend = 0, frame = 24
 910              		@ frame_needed = 0, uses_anonymous_args = 0
 911              	.LVL99:
 912 0000 2DE9F041 		push	{r4, r5, r6, r7, r8, lr}
 913              	.LCFI19:
 914              		.cfi_def_cfa_offset 24
 915              		.cfi_offset 4, -24
 916              		.cfi_offset 5, -20
 917              		.cfi_offset 6, -16
 918              		.cfi_offset 7, -12
 919              		.cfi_offset 8, -8
 920              		.cfi_offset 14, -4
 921              	.LBB12:
 922              	.LBB13:
 923              		.loc 1 565 0
 924 0004 4FF48054 		mov	r4, #4096
 925 0008 C4F20204 		movt	r4, 16386
 926              	.LBE13:
 927              	.LBE12:
 928              		.loc 1 658 0
 929 000c 86B0     		sub	sp, sp, #24
 930              	.LCFI20:
 931              		.cfi_def_cfa_offset 48
 932              	.LBB34:
 933              	.LBB32:
 934              		.loc 1 565 0
 935 000e A369     		ldr	r3, [r4, #24]
 936 0010 43F48053 		orr	r3, r3, #4096
 937 0014 A361     		str	r3, [r4, #24]
 938              		.loc 1 566 0
 939 0016 6369     		ldr	r3, [r4, #20]
 940 0018 43F00703 		orr	r3, r3, #7
 941 001c 6361     		str	r3, [r4, #20]
 942              		.loc 1 567 0
 943 001e 6369     		ldr	r3, [r4, #20]
 944 0020 43F40013 		orr	r3, r3, #2097152
 945 0024 6361     		str	r3, [r4, #20]
 946              		.loc 1 568 0
 947 0026 6369     		ldr	r3, [r4, #20]
 948 0028 43F40013 		orr	r3, r3, #2097152
 949 002c 6361     		str	r3, [r4, #20]
 950              		.loc 1 569 0
 951 002e 6369     		ldr	r3, [r4, #20]
 952 0030 43F40013 		orr	r3, r3, #2097152
 953 0034 6361     		str	r3, [r4, #20]
 954              	.LBE32:
 955              	.LBE34:
 956              		.loc 1 658 0
 957 0036 0F46     		mov	r7, r1
 958 0038 0546     		mov	r5, r0
 959              	.LVL100:
 960              	.LBB35:
 961              	.LBB33:
 962              		.loc 1 571 0
ARM GAS  C:\Users\TaisikHam\AppData\Local\Temp\ccoTVUBl.s 			page 18


 963 003a 4FF4F061 		mov	r1, #1920
 964              	.LVL101:
 965 003e 4FF09040 		mov	r0, #1207959552
 966              	.LVL102:
 967 0042 4FF42072 		mov	r2, #640
 968 0046 FFF7FEFF 		bl	_pal_lld_setgroupmode
 969              	.LVL103:
 970              		.loc 1 572 0
 971 004a 4FF09040 		mov	r0, #1207959552
 972 004e 4FF4F061 		mov	r1, #1920
 973 0052 4FF44072 		mov	r2, #768
 974 0056 FFF7FEFF 		bl	_pal_lld_setgroupmode
 975              	.LVL104:
 976              		.loc 1 573 0
 977 005a 4FF09040 		mov	r0, #1207959552
 978 005e 4FF4F061 		mov	r1, #1920
 979 0062 4FF46072 		mov	r2, #896
 980 0066 FFF7FEFF 		bl	_pal_lld_setgroupmode
 981              	.LVL105:
 982              		.loc 1 576 0
 983 006a 0321     		movs	r1, #3
 984 006c 0422     		movs	r2, #4
 985 006e 4FF09040 		mov	r0, #1207959552
 986 0072 FFF7FEFF 		bl	_pal_lld_setgroupmode
 987              	.LVL106:
 988              		.loc 1 577 0
 989 0076 0421     		movs	r1, #4
 990 0078 0022     		movs	r2, #0
 991 007a 4FF09040 		mov	r0, #1207959552
 992 007e FFF7FEFF 		bl	_pal_lld_setgroupmode
 993              	.LVL107:
 994              		.loc 1 578 0
 995 0082 0021     		movs	r1, #0
 996 0084 0A46     		mov	r2, r1
 997 0086 4FF09040 		mov	r0, #1207959552
 998 008a FFF7FEFF 		bl	_pal_lld_setgroupmode
 999              	.LVL108:
 1000              		.loc 1 579 0
 1001 008e 1821     		movs	r1, #24
 1002 0090 0A46     		mov	r2, r1
 1003 0092 4FF09040 		mov	r0, #1207959552
 1004 0096 FFF7FEFF 		bl	_pal_lld_setgroupmode
 1005              	.LVL109:
 1006              		.loc 1 581 0
 1007 009a 4FF09043 		mov	r3, #1207959552
 1008 009e 4FF40012 		mov	r2, #2097152
 1009 00a2 9A61     		str	r2, [r3, #24]
 1010              		.loc 1 582 0
 1011 00a4 4FF40002 		mov	r2, #8388608
 1012 00a8 9A61     		str	r2, [r3, #24]
 1013              		.loc 1 583 0
 1014 00aa 4FF48002 		mov	r2, #4194304
 1015 00ae 9A61     		str	r2, [r3, #24]
 1016              		.loc 1 589 0
 1017 00b0 A369     		ldr	r3, [r4, #24]
 1018              		.loc 1 597 0
 1019 00b2 EE69     		ldr	r6, [r5, #28]
ARM GAS  C:\Users\TaisikHam\AppData\Local\Temp\ccoTVUBl.s 			page 19


 1020              	.LVL110:
 1021              		.loc 1 589 0
 1022 00b4 43F48053 		orr	r3, r3, #4096
 1023 00b8 A361     		str	r3, [r4, #24]
 1024              		.loc 1 590 0
 1025 00ba A369     		ldr	r3, [r4, #24]
 1026 00bc 43F48053 		orr	r3, r3, #4096
 1027 00c0 A361     		str	r3, [r4, #24]
 1028              	.LBB14:
 1029              	.LBB15:
 1030              		.loc 1 518 0
 1031 00c2 4FF4E063 		mov	r3, #1792
 1032 00c6 ADF80830 		strh	r3, [sp, #8]	@ movhi
 1033              		.loc 1 521 0
 1034 00ca 4FF40073 		mov	r3, #512
 1035 00ce ADF80E30 		strh	r3, [sp, #14]	@ movhi
 1036              	.LBE15:
 1037              	.LBE14:
 1038              		.loc 1 592 0
 1039 00d2 4FF48055 		mov	r5, #4096
 1040              	.LVL111:
 1041              	.LBB27:
 1042              	.LBB22:
 1043              		.loc 1 522 0
 1044 00d6 1023     		movs	r3, #16
 1045              	.LBE22:
 1046              	.LBE27:
 1047              		.loc 1 592 0
 1048 00d8 C4F60005 		movt	r5, 18432
 1049              		.loc 1 593 0
 1050 00dc 4FF00308 		mov	r8, #3
 1051              	.LBB28:
 1052              	.LBB23:
 1053              		.loc 1 522 0
 1054 00e0 ADF81030 		strh	r3, [sp, #16]	@ movhi
 1055              		.loc 1 524 0
 1056 00e4 0723     		movs	r3, #7
 1057              		.loc 1 517 0
 1058 00e6 0024     		movs	r4, #0
 1059              		.loc 1 527 0
 1060 00e8 3046     		mov	r0, r6
 1061 00ea 01A9     		add	r1, sp, #4
 1062 00ec 3A46     		mov	r2, r7
 1063              		.loc 1 524 0
 1064 00ee ADF81430 		strh	r3, [sp, #20]	@ movhi
 1065              	.LBE23:
 1066              	.LBE28:
 1067              		.loc 1 592 0
 1068 00f2 7D60     		str	r5, [r7, #4]
 1069              	.LBB29:
 1070              	.LBB24:
 1071              		.loc 1 525 0
 1072 00f4 4FF48273 		mov	r3, #260
 1073              	.LBE24:
 1074              	.LBE29:
 1075              		.loc 1 593 0
 1076 00f8 A7F80880 		strh	r8, [r7, #8]	@ movhi
ARM GAS  C:\Users\TaisikHam\AppData\Local\Temp\ccoTVUBl.s 			page 20


 1077              	.LBB30:
 1078              	.LBB25:
 1079              		.loc 1 525 0
 1080 00fc ADF80630 		strh	r3, [sp, #6]	@ movhi
 1081              		.loc 1 517 0
 1082 0100 ADF80440 		strh	r4, [sp, #4]	@ movhi
 1083              		.loc 1 519 0
 1084 0104 ADF80A40 		strh	r4, [sp, #10]	@ movhi
 1085              		.loc 1 520 0
 1086 0108 ADF80C40 		strh	r4, [sp, #12]	@ movhi
 1087              		.loc 1 523 0
 1088 010c ADF81240 		strh	r4, [sp, #18]	@ movhi
 1089              		.loc 1 527 0
 1090 0110 FFF7FEFF 		bl	SPI_Init_A
 1091              	.LVL112:
 1092              		.loc 1 533 0
 1093 0114 B388     		ldrh	r3, [r6, #4]
 1094 0116 23F48053 		bic	r3, r3, #4096
 1095 011a 1B04     		lsls	r3, r3, #16
 1096 011c 1B0C     		lsrs	r3, r3, #16
 1097 011e B380     		strh	r3, [r6, #4]	@ movhi
 1098              		.loc 1 535 0
 1099 0120 B388     		ldrh	r3, [r6, #4]
 1100 0122 9BB2     		uxth	r3, r3
 1101 0124 43F48053 		orr	r3, r3, #4096
 1102 0128 B380     		strh	r3, [r6, #4]	@ movhi
 1103              		.loc 1 536 0
 1104 012a B288     		ldrh	r2, [r6, #4]
 1105              	.LBB16:
 1106              	.LBB17:
 1107              		.loc 1 147 0
 1108 012c 3388     		ldrh	r3, [r6, #0]
 1109              	.LBE17:
 1110              	.LBE16:
 1111              		.loc 1 536 0
 1112 012e BA81     		strh	r2, [r7, #12]	@ movhi
 1113              	.LVL113:
 1114              	.LBB20:
 1115              	.LBB18:
 1116              		.loc 1 147 0
 1117 0130 9BB2     		uxth	r3, r3
 1118 0132 43F04003 		orr	r3, r3, #64
 1119 0136 3380     		strh	r3, [r6, #0]	@ movhi
 1120              		.loc 1 155 0
 1121 0138 3388     		ldrh	r3, [r6, #0]
 1122              	.LBE18:
 1123              	.LBE20:
 1124              	.LBE25:
 1125              	.LBE30:
 1126              		.loc 1 599 0
 1127 013a 0222     		movs	r2, #2
 1128              	.LBB31:
 1129              	.LBB26:
 1130              	.LBB21:
 1131              	.LBB19:
 1132              		.loc 1 155 0
 1133 013c 7B81     		strh	r3, [r7, #10]	@ movhi
ARM GAS  C:\Users\TaisikHam\AppData\Local\Temp\ccoTVUBl.s 			page 21


 1134              	.LBE19:
 1135              	.LBE21:
 1136              	.LBE26:
 1137              	.LBE31:
 1138              		.loc 1 599 0
 1139 013e 4146     		mov	r1, r8
 1140 0140 2846     		mov	r0, r5
 1141 0142 FFF7FEFF 		bl	_pal_lld_setgroupmode
 1142              	.LVL114:
 1143              		.loc 1 600 0
 1144 0146 0421     		movs	r1, #4
 1145 0148 2846     		mov	r0, r5
 1146 014a 2246     		mov	r2, r4
 1147 014c FFF7FEFF 		bl	_pal_lld_setgroupmode
 1148              	.LVL115:
 1149              		.loc 1 601 0
 1150 0150 1821     		movs	r1, #24
 1151 0152 0A46     		mov	r2, r1
 1152 0154 2846     		mov	r0, r5
 1153 0156 FFF7FEFF 		bl	_pal_lld_setgroupmode
 1154              	.LVL116:
 1155              		.loc 1 603 0
 1156 015a 4FF40023 		mov	r3, #524288
 1157 015e AB61     		str	r3, [r5, #24]
 1158              		.loc 1 604 0
 1159 0160 0823     		movs	r3, #8
 1160 0162 2B83     		strh	r3, [r5, #24]	@ movhi
 1161              		.loc 1 606 0
 1162 0164 0122     		movs	r2, #1
 1163 0166 4146     		mov	r1, r8
 1164 0168 2846     		mov	r0, r5
 1165 016a FFF7FEFF 		bl	_pal_lld_setgroupmode
 1166              	.LVL117:
 1167              		.loc 1 607 0
 1168 016e 0421     		movs	r1, #4
 1169 0170 2846     		mov	r0, r5
 1170 0172 2246     		mov	r2, r4
 1171 0174 FFF7FEFF 		bl	_pal_lld_setgroupmode
 1172              	.LVL118:
 1173              		.loc 1 608 0
 1174 0178 1821     		movs	r1, #24
 1175 017a 0A46     		mov	r2, r1
 1176 017c 2846     		mov	r0, r5
 1177 017e FFF7FEFF 		bl	_pal_lld_setgroupmode
 1178              	.LVL119:
 1179              		.loc 1 609 0
 1180 0182 2846     		mov	r0, r5
 1181 0184 2146     		mov	r1, r4
 1182 0186 2246     		mov	r2, r4
 1183 0188 FFF7FEFF 		bl	_pal_lld_setgroupmode
 1184              	.LVL120:
 1185              		.loc 1 611 0
 1186 018c 0123     		movs	r3, #1
 1187 018e AB61     		str	r3, [r5, #24]
 1188              		.loc 1 612 0
 1189 0190 4FF40033 		mov	r3, #131072
 1190 0194 AB61     		str	r3, [r5, #24]
ARM GAS  C:\Users\TaisikHam\AppData\Local\Temp\ccoTVUBl.s 			page 22


 1191              	.LBE33:
 1192              	.LBE35:
 1193              		.loc 1 663 0
 1194 0196 06B0     		add	sp, sp, #24
 1195 0198 BDE8F081 		pop	{r4, r5, r6, r7, r8, pc}
 1196              		.cfi_endproc
 1197              	.LFE132:
 1198              		.size	L3GD20_Init, .-L3GD20_Init
 1199 019c AFF30080 		.section	.text.L3GD20_Init_Setting,"ax",%progbits
 1200              		.align	2
 1201              		.p2align 4,,15
 1202              		.global	L3GD20_Init_Setting
 1203              		.thumb
 1204              		.thumb_func
 1205              		.type	L3GD20_Init_Setting, %function
 1206              	L3GD20_Init_Setting:
 1207              	.LFB133:
 1208              		.loc 1 666 0
 1209              		.cfi_startproc
 1210              		@ args = 0, pretend = 0, frame = 8
 1211              		@ frame_needed = 0, uses_anonymous_args = 0
 1212              	.LVL121:
 1213 0000 F0B5     		push	{r4, r5, r6, r7, lr}
 1214              	.LCFI21:
 1215              		.cfi_def_cfa_offset 20
 1216              		.cfi_offset 4, -20
 1217              		.cfi_offset 5, -16
 1218              		.cfi_offset 6, -12
 1219              		.cfi_offset 7, -8
 1220              		.cfi_offset 14, -4
 1221              		.loc 1 672 0
 1222 0002 0578     		ldrb	r5, [r0, #0]	@ zero_extendqisi2
 1223 0004 90F801E0 		ldrb	lr, [r0, #1]	@ zero_extendqisi2
 1224              		.loc 1 675 0
 1225 0008 4679     		ldrb	r6, [r0, #5]	@ zero_extendqisi2
 1226 000a 0379     		ldrb	r3, [r0, #4]	@ zero_extendqisi2
 1227              		.loc 1 672 0
 1228 000c 8778     		ldrb	r7, [r0, #2]	@ zero_extendqisi2
 1229              		.loc 1 675 0
 1230 000e 8279     		ldrb	r2, [r0, #6]	@ zero_extendqisi2
 1231              		.loc 1 672 0
 1232 0010 C178     		ldrb	r1, [r0, #3]	@ zero_extendqisi2
 1233              		.loc 1 666 0
 1234 0012 83B0     		sub	sp, sp, #12
 1235              	.LCFI22:
 1236              		.cfi_def_cfa_offset 32
 1237              		.loc 1 672 0
 1238 0014 4EEA0505 		orr	r5, lr, r5
 1239              		.loc 1 675 0
 1240 0018 3343     		orrs	r3, r3, r6
 1241              		.loc 1 679 0
 1242 001a 40F20004 		movw	r4, #:lower16:.LANCHOR1
 1243 001e C0F20004 		movt	r4, #:upper16:.LANCHOR1
 1244              		.loc 1 675 0
 1245 0022 1343     		orrs	r3, r3, r2
 1246              		.loc 1 672 0
 1247 0024 3D43     		orrs	r5, r5, r7
ARM GAS  C:\Users\TaisikHam\AppData\Local\Temp\ccoTVUBl.s 			page 23


 1248 0026 0D43     		orrs	r5, r5, r1
 1249              		.loc 1 679 0
 1250 0028 0DF10600 		add	r0, sp, #6
 1251              	.LVL122:
 1252 002c 2146     		mov	r1, r4
 1253 002e 0122     		movs	r2, #1
 1254              		.loc 1 675 0
 1255 0030 8DF80730 		strb	r3, [sp, #7]
 1256              	.LVL123:
 1257              		.loc 1 679 0
 1258 0034 2023     		movs	r3, #32
 1259 0036 2370     		strb	r3, [r4, #0]
 1260              		.loc 1 672 0
 1261 0038 8DF80650 		strb	r5, [sp, #6]
 1262              	.LVL124:
 1263              		.loc 1 679 0
 1264 003c FFF7FEFF 		bl	L3GD20_Write
 1265              	.LVL125:
 1266              		.loc 1 682 0
 1267 0040 2323     		movs	r3, #35
 1268 0042 0DF10700 		add	r0, sp, #7
 1269 0046 2146     		mov	r1, r4
 1270 0048 0122     		movs	r2, #1
 1271 004a 2370     		strb	r3, [r4, #0]
 1272 004c FFF7FEFF 		bl	L3GD20_Write
 1273              	.LVL126:
 1274              		.loc 1 683 0
 1275 0050 03B0     		add	sp, sp, #12
 1276 0052 F0BD     		pop	{r4, r5, r6, r7, pc}
 1277              		.cfi_endproc
 1278              	.LFE133:
 1279              		.size	L3GD20_Init_Setting, .-L3GD20_Init_Setting
 1280 0054 AFF30080 		.section	.text.L3GD20_TIMEOUT_UserCallback,"ax",%progbits
 1280      AFF30080 
 1280      AFF30080 
 1281              		.align	2
 1282              		.p2align 4,,15
 1283              		.global	L3GD20_TIMEOUT_UserCallback
 1284              		.thumb
 1285              		.thumb_func
 1286              		.type	L3GD20_TIMEOUT_UserCallback, %function
 1287              	L3GD20_TIMEOUT_UserCallback:
 1288              	.LFB134:
 1289              		.loc 1 691 0
 1290              		.cfi_startproc
 1291              		@ Volatile: function does not return.
 1292              		@ args = 0, pretend = 0, frame = 0
 1293              		@ frame_needed = 0, uses_anonymous_args = 0
 1294              		@ link register save eliminated.
 1295              	.L37:
 1296 0000 FEE7     		b	.L37
 1297              		.cfi_endproc
 1298              	.LFE134:
 1299              		.size	L3GD20_TIMEOUT_UserCallback, .-L3GD20_TIMEOUT_UserCallback
 1300              		.global	L3GD20Timeout
 1301 0002 00BFAFF3 		.section	.data.L3GD20Timeout,"aw",%progbits
 1301      0080AFF3 
ARM GAS  C:\Users\TaisikHam\AppData\Local\Temp\ccoTVUBl.s 			page 24


 1301      0080AFF3 
 1301      0080
 1302              		.align	2
 1303              		.set	.LANCHOR0,. + 0
 1304              		.type	L3GD20Timeout, %object
 1305              		.size	L3GD20Timeout, 4
 1306              	L3GD20Timeout:
 1307 0000 00100000 		.word	4096
 1308              		.section	.bss.ctrl_reg.6555,"aw",%nobits
 1309              		.set	.LANCHOR1,. + 0
 1310              		.type	ctrl_reg.6555, %object
 1311              		.size	ctrl_reg.6555, 1
 1312              	ctrl_reg.6555:
 1313 0000 00       		.space	1
 1314              		.text
 1315              	.Letext0:
 1316              		.file 2 "c:\\develop\\genist\\chibistudio\\tools\\yagarto-tools\\yagarto-20121222\\bin\\../lib/gcc
 1317              		.file 3 "c:/develop/genist/chibistudio/tools/yagarto-tools/yagarto-20121222/lib/gcc/../../arm-none
 1318              		.file 4 "../../../os/ports/GCC/ARMCMx/chtypes.h"
 1319              		.file 5 "../../../os/kernel/include/chlists.h"
 1320              		.file 6 "../../../os/kernel/include/chthreads.h"
 1321              		.file 7 "../../../os/ports/GCC/ARMCMx/chcore_v7m.h"
 1322              		.file 8 "../../../os/kernel/include/chmtx.h"
 1323              		.file 9 "../../../os/hal/platforms/STM32F30x/stm32f30x.h"
 1324              		.file 10 "../../../os/hal/platforms/STM32F30x/stm32_dma.h"
 1325              		.file 11 "../../../os/hal/platforms/STM32/GPIOv2/pal_lld.h"
 1326              		.file 12 "../../../os/hal/include/spi.h"
 1327              		.file 13 "../../../os/hal/platforms/STM32/SPIv2/spi_lld.h"
 1328              		.file 14 "../../../Testhal_wrk/STM32F30x/Gyro/stm32f3_discovery_l3gd20.h"
 1329              		.file 15 "../../../os/ports/common/ARMCMx/CMSIS/include/core_cm4.h"