ARM GAS  C:\Users\TaisikHam\AppData\Local\Temp\cc7fj03B.s 			page 1


   1              		.syntax unified
   2              		.cpu cortex-m4
   3              		.fpu softvfp
   4              		.eabi_attribute 20, 1
   5              		.eabi_attribute 21, 1
   6              		.eabi_attribute 23, 3
   7              		.eabi_attribute 24, 1
   8              		.eabi_attribute 25, 1
   9              		.eabi_attribute 26, 1
  10              		.eabi_attribute 30, 2
  11              		.eabi_attribute 34, 1
  12              		.eabi_attribute 18, 4
  13              		.thumb
  14              		.file	"main.c"
  15              		.text
  16              	.Ltext0:
  17              		.cfi_sections	.debug_frame
  18              		.section	.text.spi_thread_2,"ax",%progbits
  19              		.align	2
  20              		.p2align 4,,15
  21              		.thumb
  22              		.thumb_func
  23              		.type	spi_thread_2, %function
  24              	spi_thread_2:
  25              	.LFB123:
  26              		.file 1 "main.c"
  27              		.loc 1 335 0
  28              		.cfi_startproc
  29              		@ args = 0, pretend = 0, frame = 0
  30              		@ frame_needed = 0, uses_anonymous_args = 0
  31              	.LVL0:
  32 0000 08B5     		push	{r3, lr}
  33              	.LCFI0:
  34              		.cfi_def_cfa_offset 8
  35              		.cfi_offset 3, -8
  36              		.cfi_offset 14, -4
  37              		.loc 1 339 0
  38 0002 054B     		ldr	r3, .L4
  39 0004 054A     		ldr	r2, .L4+4
  40 0006 9B69     		ldr	r3, [r3, #24]
  41 0008 9A61     		str	r2, [r3, #24]
  42              	.LVL1:
  43              	.L2:
  44              		.loc 1 343 0 discriminator 1
  45 000a 0548     		ldr	r0, .L4+8
  46 000c FFF7FEFF 		bl	spiAcquireBus
  47              	.LVL2:
  48              		.loc 1 355 0 discriminator 1
  49 0010 0348     		ldr	r0, .L4+8
  50 0012 FFF7FEFF 		bl	spiReleaseBus
  51              	.LVL3:
  52 0016 F8E7     		b	.L2
  53              	.L5:
  54              		.align	2
  55              	.L4:
  56 0018 00000000 		.word	rlist
  57 001c 00000000 		.word	.LC0
ARM GAS  C:\Users\TaisikHam\AppData\Local\Temp\cc7fj03B.s 			page 2


  58 0020 00000000 		.word	SPID1
  59              		.cfi_endproc
  60              	.LFE123:
  61              		.size	spi_thread_2, .-spi_thread_2
  62 0024 AFF30080 		.section	.text.assert_check_led,"ax",%progbits
  62      AFF30080 
  62      AFF30080 
  63              		.align	2
  64              		.p2align 4,,15
  65              		.global	assert_check_led
  66              		.thumb
  67              		.thumb_func
  68              		.type	assert_check_led, %function
  69              	assert_check_led:
  70              	.LFB118:
  71              		.loc 1 68 0
  72              		.cfi_startproc
  73              		@ args = 0, pretend = 0, frame = 0
  74              		@ frame_needed = 0, uses_anonymous_args = 0
  75              		@ link register save eliminated.
  76              	.LVL4:
  77              		.loc 1 77 0
  78 0000 0120     		movs	r0, #1
  79 0002 7047     		bx	lr
  80              		.cfi_endproc
  81              	.LFE118:
  82              		.size	assert_check_led, .-assert_check_led
  83 0004 AFF30080 		.section	.text.searching_led_position,"ax",%progbits
  83      AFF30080 
  83      AFF30080 
  84              		.align	2
  85              		.p2align 4,,15
  86              		.global	searching_led_position
  87              		.thumb
  88              		.thumb_func
  89              		.type	searching_led_position, %function
  90              	searching_led_position:
  91              	.LFB119:
  92              		.loc 1 80 0
  93              		.cfi_startproc
  94              		@ args = 0, pretend = 0, frame = 0
  95              		@ frame_needed = 0, uses_anonymous_args = 0
  96              	.LVL5:
  97 0000 38B5     		push	{r3, r4, r5, lr}
  98              	.LCFI1:
  99              		.cfi_def_cfa_offset 16
 100              		.cfi_offset 3, -16
 101              		.cfi_offset 4, -12
 102              		.cfi_offset 5, -8
 103              		.cfi_offset 14, -4
 104              		.loc 1 87 0
 105 0002 124C     		ldr	r4, .L9
 106              		.loc 1 86 0
 107 0004 124D     		ldr	r5, .L9+4
 108              		.loc 1 87 0
 109 0006 2378     		ldrb	r3, [r4, #0]	@ zero_extendqisi2
 110              		.loc 1 86 0
ARM GAS  C:\Users\TaisikHam\AppData\Local\Temp\cc7fj03B.s 			page 3


 111 0008 2870     		strb	r0, [r5, #0]
 112              		.loc 1 87 0
 113 000a 9842     		cmp	r0, r3
 114 000c 0DD0     		beq	.L8
 115              		.loc 1 88 0
 116 000e 0122     		movs	r2, #1
 117 0010 4FF48053 		mov	r3, #4096
 118 0014 C4F60003 		movt	r3, 18432
 119 0018 02FA00F0 		lsl	r0, r2, r0
 120              	.LVL6:
 121 001c 80B2     		uxth	r0, r0
 122 001e 1883     		strh	r0, [r3, #24]	@ movhi
 123              		.loc 1 89 0
 124 0020 4FF4E170 		mov	r0, #450
 125 0024 FFF7FEFF 		bl	chThdSleep
 126              	.LVL7:
 127 0028 2378     		ldrb	r3, [r4, #0]	@ zero_extendqisi2
 128              	.L8:
 129              	.LVL8:
 130              		.loc 1 95 0
 131 002a 0121     		movs	r1, #1
 132 002c 4FF48052 		mov	r2, #4096
 133 0030 01FA03F3 		lsl	r3, r1, r3
 134 0034 C4F60002 		movt	r2, 18432
 135 0038 9BB2     		uxth	r3, r3
 136 003a 5383     		strh	r3, [r2, #26]	@ movhi
 137              		.loc 1 96 0
 138 003c 4FF4E170 		mov	r0, #450
 139 0040 FFF7FEFF 		bl	chThdSleep
 140              	.LVL9:
 141              		.loc 1 97 0
 142 0044 2B78     		ldrb	r3, [r5, #0]	@ zero_extendqisi2
 143 0046 2370     		strb	r3, [r4, #0]
 144 0048 38BD     		pop	{r3, r4, r5, pc}
 145              	.L10:
 146 004a 00BF     		.align	2
 147              	.L9:
 148 004c 00000000 		.word	.LANCHOR1
 149 0050 00000000 		.word	.LANCHOR0
 150              		.cfi_endproc
 151              	.LFE119:
 152              		.size	searching_led_position, .-searching_led_position
 153 0054 AFF30080 		.section	.text.checking_coord,"ax",%progbits
 153      AFF30080 
 153      AFF30080 
 154              		.align	2
 155              		.p2align 4,,15
 156              		.global	checking_coord
 157              		.thumb
 158              		.thumb_func
 159              		.type	checking_coord, %function
 160              	checking_coord:
 161              	.LFB120:
 162              		.loc 1 114 0
 163              		.cfi_startproc
 164              		@ args = 0, pretend = 0, frame = 0
 165              		@ frame_needed = 0, uses_anonymous_args = 0
ARM GAS  C:\Users\TaisikHam\AppData\Local\Temp\cc7fj03B.s 			page 4


 166              		@ link register save eliminated.
 167              		.loc 1 147 0
 168 0000 204B     		ldr	r3, .L28
 169 0002 1A88     		ldrh	r2, [r3, #0]
 170 0004 40F6FF73 		movw	r3, #4095
 171 0008 9A42     		cmp	r2, r3
 172 000a 23D9     		bls	.L20
 173              		.loc 1 150 0
 174 000c A2F58051 		sub	r1, r2, #4096
 175 0010 89B2     		uxth	r1, r1
 176 0012 9942     		cmp	r1, r3
 177 0014 27D9     		bls	.L21
 178              		.loc 1 153 0
 179 0016 A2F50051 		sub	r1, r2, #8192
 180 001a 89B2     		uxth	r1, r1
 181 001c 9942     		cmp	r1, r3
 182 001e 1CD9     		bls	.L22
 183              		.loc 1 156 0
 184 0020 A2F54051 		sub	r1, r2, #12288
 185 0024 89B2     		uxth	r1, r1
 186 0026 9942     		cmp	r1, r3
 187 0028 20D9     		bls	.L23
 188              		.loc 1 159 0
 189 002a A2F58041 		sub	r1, r2, #16384
 190 002e 89B2     		uxth	r1, r1
 191 0030 9942     		cmp	r1, r3
 192 0032 1ED9     		bls	.L24
 193              		.loc 1 162 0
 194 0034 A2F5A041 		sub	r1, r2, #20480
 195 0038 89B2     		uxth	r1, r1
 196 003a 9942     		cmp	r1, r3
 197 003c 1FD9     		bls	.L25
 198              		.loc 1 165 0
 199 003e A2F5C041 		sub	r1, r2, #24576
 200 0042 89B2     		uxth	r1, r1
 201 0044 9942     		cmp	r1, r3
 202 0046 0BD9     		bls	.L26
 203              		.loc 1 168 0
 204 0048 A2F5E042 		sub	r2, r2, #28672
 205 004c 92B2     		uxth	r2, r2
 206 004e 9A42     		cmp	r2, r3
 207 0050 12D9     		bls	.L27
 208 0052 7047     		bx	lr
 209              	.L20:
 210              		.loc 1 148 0
 211 0054 0920     		movs	r0, #9
 212              		.loc 1 201 0
 213              		.loc 1 148 0
 214 0056 FFF7FEBF 		b	searching_led_position
 215              	.LVL10:
 216              	.L22:
 217              		.loc 1 154 0
 218 005a 0B20     		movs	r0, #11
 219              		.loc 1 201 0
 220              		.loc 1 154 0
 221 005c FFF7FEBF 		b	searching_led_position
 222              	.LVL11:
ARM GAS  C:\Users\TaisikHam\AppData\Local\Temp\cc7fj03B.s 			page 5


 223              	.L26:
 224              		.loc 1 166 0
 225 0060 0F20     		movs	r0, #15
 226              		.loc 1 201 0
 227              		.loc 1 166 0
 228 0062 FFF7FEBF 		b	searching_led_position
 229              	.LVL12:
 230              	.L21:
 231              		.loc 1 151 0
 232 0066 0A20     		movs	r0, #10
 233              		.loc 1 201 0
 234              		.loc 1 151 0
 235 0068 FFF7FEBF 		b	searching_led_position
 236              	.LVL13:
 237              	.L23:
 238              		.loc 1 157 0
 239 006c 0C20     		movs	r0, #12
 240              		.loc 1 201 0
 241              		.loc 1 157 0
 242 006e FFF7FEBF 		b	searching_led_position
 243              	.LVL14:
 244              	.L24:
 245              		.loc 1 160 0
 246 0072 0D20     		movs	r0, #13
 247              		.loc 1 201 0
 248              		.loc 1 160 0
 249 0074 FFF7FEBF 		b	searching_led_position
 250              	.LVL15:
 251              	.L27:
 252              		.loc 1 169 0
 253 0078 0820     		movs	r0, #8
 254              		.loc 1 201 0
 255              		.loc 1 169 0
 256 007a FFF7FEBF 		b	searching_led_position
 257              	.LVL16:
 258              	.L25:
 259              		.loc 1 163 0
 260 007e 0E20     		movs	r0, #14
 261              		.loc 1 201 0
 262              		.loc 1 163 0
 263 0080 FFF7FEBF 		b	searching_led_position
 264              	.LVL17:
 265              	.L29:
 266              		.align	2
 267              	.L28:
 268 0084 00000000 		.word	.LANCHOR2
 269              		.cfi_endproc
 270              	.LFE120:
 271              		.size	checking_coord, .-checking_coord
 272 0088 AFF30080 		.section	.text._l3gd_register_setting,"ax",%progbits
 272      AFF30080 
 273              		.align	2
 274              		.p2align 4,,15
 275              		.global	_l3gd_register_setting
 276              		.thumb
 277              		.thumb_func
 278              		.type	_l3gd_register_setting, %function
ARM GAS  C:\Users\TaisikHam\AppData\Local\Temp\cc7fj03B.s 			page 6


 279              	_l3gd_register_setting:
 280              	.LFB121:
 281              		.loc 1 240 0
 282              		.cfi_startproc
 283              		@ args = 0, pretend = 0, frame = 8
 284              		@ frame_needed = 0, uses_anonymous_args = 0
 285              	.LVL18:
 286 0000 30B5     		push	{r4, r5, lr}
 287              	.LCFI2:
 288              		.cfi_def_cfa_offset 12
 289              		.cfi_offset 4, -12
 290              		.cfi_offset 5, -8
 291              		.cfi_offset 14, -4
 292              		.loc 1 243 0
 293 0002 A0F12003 		sub	r3, r0, #32
 294              		.loc 1 240 0
 295 0006 83B0     		sub	sp, sp, #12
 296              	.LCFI3:
 297              		.cfi_def_cfa_offset 24
 298              		.loc 1 243 0
 299 0008 DBB2     		uxtb	r3, r3
 300 000a 182B     		cmp	r3, #24
 301              		.loc 1 240 0
 302 000c 8DF80700 		strb	r0, [sp, #7]
 303              		.loc 1 243 0
 304 0010 07D8     		bhi	.L30
 305              	.LVL19:
 306              		.loc 1 248 0
 307 0012 44F23F02 		movw	r2, #16447
 308 0016 C0F2FD12 		movt	r2, 509
 309 001a 22FA03F2 		lsr	r2, r2, r3
 310 001e D207     		lsls	r2, r2, #31
 311 0020 01D4     		bmi	.L35
 312              	.LVL20:
 313              	.L30:
 314              		.loc 1 253 0
 315 0022 03B0     		add	sp, sp, #12
 316 0024 30BD     		pop	{r4, r5, pc}
 317              	.LVL21:
 318              	.L35:
 319              		.loc 1 250 0
 320 0026 064C     		ldr	r4, .L36
 321              		.loc 1 249 0
 322 0028 E55C     		ldrb	r5, [r4, r3]	@ zero_extendqisi2
 323 002a 25EA0105 		bic	r5, r5, r1
 324              		.loc 1 250 0
 325 002e 0D43     		orrs	r5, r5, r1
 326              		.loc 1 251 0
 327 0030 E018     		adds	r0, r4, r3
 328 0032 0DF10701 		add	r1, sp, #7
 329              	.LVL22:
 330 0036 0122     		movs	r2, #1
 331              		.loc 1 250 0
 332 0038 E554     		strb	r5, [r4, r3]
 333              		.loc 1 251 0
 334 003a FFF7FEFF 		bl	L3GD20_Write
 335              	.LVL23:
ARM GAS  C:\Users\TaisikHam\AppData\Local\Temp\cc7fj03B.s 			page 7


 336 003e F0E7     		b	.L30
 337              	.L37:
 338              		.align	2
 339              	.L36:
 340 0040 00000000 		.word	.LANCHOR3
 341              		.cfi_endproc
 342              	.LFE121:
 343              		.size	_l3gd_register_setting, .-_l3gd_register_setting
 344 0044 AFF30080 		.section	.text.spi_thread_1,"ax",%progbits
 344      AFF30080 
 344      AFF30080 
 345              		.align	2
 346              		.p2align 4,,15
 347              		.thumb
 348              		.thumb_func
 349              		.type	spi_thread_1, %function
 350              	spi_thread_1:
 351              	.LFB122:
 352              		.loc 1 256 0
 353              		.cfi_startproc
 354              		@ args = 0, pretend = 0, frame = 0
 355              		@ frame_needed = 0, uses_anonymous_args = 0
 356              	.LVL24:
 357 0000 2DE9F84F 		push	{r3, r4, r5, r6, r7, r8, r9, sl, fp, lr}
 358              	.LCFI4:
 359              		.cfi_def_cfa_offset 40
 360              		.cfi_offset 3, -40
 361              		.cfi_offset 4, -36
 362              		.cfi_offset 5, -32
 363              		.cfi_offset 6, -28
 364              		.cfi_offset 7, -24
 365              		.cfi_offset 8, -20
 366              		.cfi_offset 9, -16
 367              		.cfi_offset 10, -12
 368              		.cfi_offset 11, -8
 369              		.cfi_offset 14, -4
 370              		.loc 1 263 0
 371 0004 5A4B     		ldr	r3, .L40
 372 0006 5B4A     		ldr	r2, .L40+4
 373 0008 9B69     		ldr	r3, [r3, #24]
 374 000a 5B4C     		ldr	r4, .L40+8
 375 000c DFF88081 		ldr	r8, .L40+32
 376 0010 5A4F     		ldr	r7, .L40+12
 377 0012 5B4D     		ldr	r5, .L40+16
 378 0014 9A61     		str	r2, [r3, #24]
 379              	.LVL25:
 380              	.L39:
 381              		.loc 1 266 0 discriminator 1
 382 0016 5B48     		ldr	r0, .L40+20
 383 0018 FFF7FEFF 		bl	spiAcquireBus
 384              	.LVL26:
 385              		.loc 1 288 0 discriminator 1
 386 001c 5A49     		ldr	r1, .L40+24
 387 001e 5948     		ldr	r0, .L40+20
 388 0020 FFF7FEFF 		bl	spiStart
 389              	.LVL27:
 390              		.loc 1 289 0 discriminator 1
ARM GAS  C:\Users\TaisikHam\AppData\Local\Temp\cc7fj03B.s 			page 8


 391 0024 5748     		ldr	r0, .L40+20
 392 0026 FFF7FEFF 		bl	spiSelect
 393              	.LVL28:
 394              		.loc 1 291 0 discriminator 1
 395 002a 2020     		movs	r0, #32
 396 002c 0821     		movs	r1, #8
 397 002e FFF7FEFF 		bl	_l3gd_register_setting
 398              	.LVL29:
 399              		.loc 1 292 0 discriminator 1
 400 0032 2320     		movs	r0, #35
 401 0034 0021     		movs	r1, #0
 402 0036 FFF7FEFF 		bl	_l3gd_register_setting
 403              	.LVL30:
 404              		.loc 1 293 0 discriminator 1
 405 003a 2E20     		movs	r0, #46
 406 003c 4021     		movs	r1, #64
 407 003e FFF7FEFF 		bl	_l3gd_register_setting
 408              	.LVL31:
 409              		.loc 1 296 0 discriminator 1
 410 0042 0F23     		movs	r3, #15
 411 0044 0122     		movs	r2, #1
 412 0046 5148     		ldr	r0, .L40+28
 413 0048 4B49     		ldr	r1, .L40+8
 414 004a 2370     		strb	r3, [r4, #0]
 415 004c FFF7FEFF 		bl	L3GD20_Read
 416              	.LVL32:
 417              		.loc 1 297 0 discriminator 1
 418 0050 2823     		movs	r3, #40
 419 0052 0122     		movs	r2, #1
 420 0054 4E48     		ldr	r0, .L40+32
 421 0056 4849     		ldr	r1, .L40+8
 422 0058 2370     		strb	r3, [r4, #0]
 423 005a FFF7FEFF 		bl	L3GD20_Read
 424              	.LVL33:
 425              		.loc 1 298 0 discriminator 1
 426 005e 2923     		movs	r3, #41
 427 0060 0122     		movs	r2, #1
 428 0062 4648     		ldr	r0, .L40+12
 429 0064 4449     		ldr	r1, .L40+8
 430 0066 2370     		strb	r3, [r4, #0]
 431 0068 FFF7FEFF 		bl	L3GD20_Read
 432              	.LVL34:
 433              		.loc 1 299 0 discriminator 1
 434 006c 2A23     		movs	r3, #42
 435 006e 0122     		movs	r2, #1
 436 0070 4848     		ldr	r0, .L40+36
 437 0072 4149     		ldr	r1, .L40+8
 438 0074 2370     		strb	r3, [r4, #0]
 439 0076 FFF7FEFF 		bl	L3GD20_Read
 440              	.LVL35:
 441              		.loc 1 300 0 discriminator 1
 442 007a 2B23     		movs	r3, #43
 443 007c 0122     		movs	r2, #1
 444 007e 4648     		ldr	r0, .L40+40
 445 0080 3D49     		ldr	r1, .L40+8
 446 0082 2370     		strb	r3, [r4, #0]
 447 0084 FFF7FEFF 		bl	L3GD20_Read
ARM GAS  C:\Users\TaisikHam\AppData\Local\Temp\cc7fj03B.s 			page 9


 448              	.LVL36:
 449              		.loc 1 301 0 discriminator 1
 450 0088 2C23     		movs	r3, #44
 451 008a 0122     		movs	r2, #1
 452 008c 4348     		ldr	r0, .L40+44
 453 008e 3A49     		ldr	r1, .L40+8
 454 0090 2370     		strb	r3, [r4, #0]
 455 0092 FFF7FEFF 		bl	L3GD20_Read
 456              	.LVL37:
 457              		.loc 1 302 0 discriminator 1
 458 0096 2D23     		movs	r3, #45
 459 0098 3749     		ldr	r1, .L40+8
 460 009a 4148     		ldr	r0, .L40+48
 461 009c 2370     		strb	r3, [r4, #0]
 462 009e 0122     		movs	r2, #1
 463 00a0 FFF7FEFF 		bl	L3GD20_Read
 464              	.LVL38:
 465              		.loc 1 303 0 discriminator 1
 466 00a4 3748     		ldr	r0, .L40+20
 467 00a6 FFF7FEFF 		bl	spiUnselect
 468              	.LVL39:
 469              		.loc 1 316 0 discriminator 1
 470 00aa 40F20006 		movw	r6, #:lower16:.LANCHOR12
 471              		.loc 1 313 0 discriminator 1
 472 00ae 40F20001 		movw	r1, #:lower16:.LANCHOR9
 473 00b2 40F20002 		movw	r2, #:lower16:.LANCHOR10
 474              		.loc 1 316 0 discriminator 1
 475 00b6 40F20003 		movw	r3, #:lower16:.LANCHOR11
 476              		.loc 1 313 0 discriminator 1
 477 00ba C0F20001 		movt	r1, #:upper16:.LANCHOR9
 478 00be C0F20002 		movt	r2, #:upper16:.LANCHOR10
 479              		.loc 1 316 0 discriminator 1
 480 00c2 C0F20003 		movt	r3, #:upper16:.LANCHOR11
 481 00c6 C0F20006 		movt	r6, #:upper16:.LANCHOR12
 482              		.loc 1 310 0 discriminator 1
 483 00ca 98F800C0 		ldrb	ip, [r8, #0]	@ zero_extendqisi2
 484              		.loc 1 313 0 discriminator 1
 485 00ce 0878     		ldrb	r0, [r1, #0]	@ zero_extendqisi2
 486 00d0 1178     		ldrb	r1, [r2, #0]	@ zero_extendqisi2
 487              		.loc 1 316 0 discriminator 1
 488 00d2 1A78     		ldrb	r2, [r3, #0]	@ zero_extendqisi2
 489 00d4 3378     		ldrb	r3, [r6, #0]	@ zero_extendqisi2
 490              		.loc 1 310 0 discriminator 1
 491 00d6 97F800E0 		ldrb	lr, [r7, #0]	@ zero_extendqisi2
 492 00da 40F20006 		movw	r6, #:lower16:.LANCHOR13
 493 00de C0F20006 		movt	r6, #:upper16:.LANCHOR13
 494 00e2 6FEA0C0C 		mvn	ip, ip
 495 00e6 5FFA8CFC 		uxtb	ip, ip
 496 00ea 86F800C0 		strb	ip, [r6, #0]
 497 00ee 40F20006 		movw	r6, #:lower16:.LANCHOR14
 498 00f2 C0F20006 		movt	r6, #:upper16:.LANCHOR14
 499 00f6 6FEA0E0E 		mvn	lr, lr
 500 00fa 5FFA8EFE 		uxtb	lr, lr
 501 00fe 86F800E0 		strb	lr, [r6, #0]
 502              		.loc 1 311 0 discriminator 1
 503 0102 40F20006 		movw	r6, #:lower16:.LANCHOR15
 504 0106 C0F20006 		movt	r6, #:upper16:.LANCHOR15
ARM GAS  C:\Users\TaisikHam\AppData\Local\Temp\cc7fj03B.s 			page 10


 505 010a 4CEACE1B 		orr	fp, ip, lr, lsl #7
 506 010e A6F800B0 		strh	fp, [r6, #0]	@ movhi
 507              		.loc 1 313 0 discriminator 1
 508 0112 40F20006 		movw	r6, #:lower16:.LANCHOR16
 509 0116 C043     		mvns	r0, r0
 510 0118 C943     		mvns	r1, r1
 511 011a C0F20006 		movt	r6, #:upper16:.LANCHOR16
 512 011e C0B2     		uxtb	r0, r0
 513 0120 C9B2     		uxtb	r1, r1
 514              		.loc 1 314 0 discriminator 1
 515 0122 40EAC11A 		orr	sl, r0, r1, lsl #7
 516              		.loc 1 313 0 discriminator 1
 517 0126 3070     		strb	r0, [r6, #0]
 518 0128 40F20000 		movw	r0, #:lower16:.LANCHOR17
 519 012c C0F20000 		movt	r0, #:upper16:.LANCHOR17
 520              		.loc 1 316 0 discriminator 1
 521 0130 D243     		mvns	r2, r2
 522              		.loc 1 313 0 discriminator 1
 523 0132 0170     		strb	r1, [r0, #0]
 524              		.loc 1 316 0 discriminator 1
 525 0134 DB43     		mvns	r3, r3
 526              		.loc 1 314 0 discriminator 1
 527 0136 40F20001 		movw	r1, #:lower16:.LANCHOR18
 528              		.loc 1 316 0 discriminator 1
 529 013a 40F20006 		movw	r6, #:lower16:.LANCHOR19
 530 013e 40F20000 		movw	r0, #:lower16:.LANCHOR20
 531 0142 D2B2     		uxtb	r2, r2
 532 0144 DBB2     		uxtb	r3, r3
 533              		.loc 1 314 0 discriminator 1
 534 0146 C0F20001 		movt	r1, #:upper16:.LANCHOR18
 535              		.loc 1 316 0 discriminator 1
 536 014a C0F20000 		movt	r0, #:upper16:.LANCHOR20
 537 014e C0F20006 		movt	r6, #:upper16:.LANCHOR19
 538              		.loc 1 317 0 discriminator 1
 539 0152 42EAC319 		orr	r9, r2, r3, lsl #7
 540              		.loc 1 316 0 discriminator 1
 541 0156 0370     		strb	r3, [r0, #0]
 542              		.loc 1 314 0 discriminator 1
 543 0158 A1F800A0 		strh	sl, [r1, #0]	@ movhi
 544              		.loc 1 316 0 discriminator 1
 545 015c 3270     		strb	r2, [r6, #0]
 546              		.loc 1 317 0 discriminator 1
 547 015e A5F80090 		strh	r9, [r5, #0]	@ movhi
 548              		.loc 1 319 0 discriminator 1
 549 0162 FFF7FEFF 		bl	checking_coord
 550              	.LVL40:
 551              		.loc 1 325 0 discriminator 1
 552 0166 0748     		ldr	r0, .L40+20
 553 0168 FFF7FEFF 		bl	spiReleaseBus
 554              	.LVL41:
 555 016c 53E7     		b	.L39
 556              	.L41:
 557 016e 00BF     		.align	2
 558              	.L40:
 559 0170 00000000 		.word	rlist
 560 0174 10000000 		.word	.LC1
 561 0178 00000000 		.word	.LANCHOR5
ARM GAS  C:\Users\TaisikHam\AppData\Local\Temp\cc7fj03B.s 			page 11


 562 017c 00000000 		.word	.LANCHOR8
 563 0180 00000000 		.word	.LANCHOR2
 564 0184 00000000 		.word	SPID1
 565 0188 00000000 		.word	.LANCHOR4
 566 018c 00000000 		.word	.LANCHOR6
 567 0190 00000000 		.word	.LANCHOR7
 568 0194 00000000 		.word	.LANCHOR9
 569 0198 00000000 		.word	.LANCHOR10
 570 019c 00000000 		.word	.LANCHOR11
 571 01a0 00000000 		.word	.LANCHOR12
 572              		.cfi_endproc
 573              	.LFE122:
 574              		.size	spi_thread_1, .-spi_thread_1
 575 01a4 AFF30080 		.section	.text.startup.main,"ax",%progbits
 575      AFF30080 
 575      AFF30080 
 576              		.align	2
 577              		.p2align 4,,15
 578              		.global	main
 579              		.thumb
 580              		.thumb_func
 581              		.type	main, %function
 582              	main:
 583              	.LFB124:
 584              		.loc 1 365 0
 585              		.cfi_startproc
 586              		@ args = 0, pretend = 0, frame = 0
 587              		@ frame_needed = 0, uses_anonymous_args = 0
 588 0000 10B5     		push	{r4, lr}
 589              	.LCFI5:
 590              		.cfi_def_cfa_offset 8
 591              		.cfi_offset 4, -8
 592              		.cfi_offset 14, -4
 593 0002 82B0     		sub	sp, sp, #8
 594              	.LCFI6:
 595              		.cfi_def_cfa_offset 16
 596              		.loc 1 373 0
 597 0004 FFF7FEFF 		bl	halInit
 598              	.LVL42:
 599              		.loc 1 374 0
 600 0008 FFF7FEFF 		bl	chSysInit
 601              	.LVL43:
 602              		.loc 1 376 0
 603 000c 40F20000 		movw	r0, #:lower16:SPID1
 604 0010 40F20001 		movw	r1, #:lower16:.LANCHOR4
 605 0014 C0F20000 		movt	r0, #:upper16:SPID1
 606 0018 C0F20001 		movt	r1, #:upper16:.LANCHOR4
 607 001c FFF7FEFF 		bl	L3GD20_Init
 608              	.LVL44:
 609              		.loc 1 383 0
 610 0020 0024     		movs	r4, #0
 611 0022 40F20003 		movw	r3, #:lower16:spi_thread_1
 612 0026 40F20000 		movw	r0, #:lower16:.LANCHOR21
 613 002a 4122     		movs	r2, #65
 614 002c 4FF4D871 		mov	r1, #432
 615 0030 C0F20003 		movt	r3, #:upper16:spi_thread_1
 616 0034 0094     		str	r4, [sp, #0]
ARM GAS  C:\Users\TaisikHam\AppData\Local\Temp\cc7fj03B.s 			page 12


 617 0036 C0F20000 		movt	r0, #:upper16:.LANCHOR21
 618 003a FFF7FEFF 		bl	chThdCreateStatic
 619              	.LVL45:
 620              		.loc 1 387 0
 621 003e 40F20000 		movw	r0, #:lower16:.LANCHOR22
 622 0042 40F20003 		movw	r3, #:lower16:spi_thread_2
 623 0046 0094     		str	r4, [sp, #0]
 624 0048 4FF4D871 		mov	r1, #432
 625 004c 4122     		movs	r2, #65
 626 004e C0F20003 		movt	r3, #:upper16:spi_thread_2
 627 0052 C0F20000 		movt	r0, #:upper16:.LANCHOR22
 628 0056 FFF7FEFF 		bl	chThdCreateStatic
 629              	.LVL46:
 630              		.loc 1 391 0
 631 005a 2046     		mov	r0, r4
 632 005c 02B0     		add	sp, sp, #8
 633 005e 10BD     		pop	{r4, pc}
 634              		.cfi_endproc
 635              	.LFE124:
 636              		.size	main, .-main
 637              		.global	gRegStatus
 638              		.global	lhz
 639              		.global	llz
 640              		.global	lhy
 641              		.global	lly
 642              		.global	llx
 643              		.global	lhx
 644              		.global	gZ
 645              		.global	gY
 646              		.global	gX
 647              		.global	WHO_AM_I
 648              		.global	OUT_Z_H
 649              		.global	OUT_Z_L
 650              		.global	OUT_Y_H
 651              		.global	OUT_Y_L
 652              		.global	OUT_X_H
 653              		.global	OUT_X_L
 654              		.global	rxBuf
 655              		.global	gSpiConfig
 656              		.global	gSpiDriver
 657              		.section	.bss.llx,"aw",%nobits
 658              		.set	.LANCHOR13,. + 0
 659              		.type	llx, %object
 660              		.size	llx, 1
 661              	llx:
 662 0000 00       		.space	1
 663              		.section	.bss.lly,"aw",%nobits
 664              		.set	.LANCHOR16,. + 0
 665              		.type	lly, %object
 666              		.size	lly, 1
 667              	lly:
 668 0000 00       		.space	1
 669              		.section	.bss.llz,"aw",%nobits
 670              		.set	.LANCHOR19,. + 0
 671              		.type	llz, %object
 672              		.size	llz, 1
 673              	llz:
ARM GAS  C:\Users\TaisikHam\AppData\Local\Temp\cc7fj03B.s 			page 13


 674 0000 00       		.space	1
 675              		.section	.bss.spi_thread_1_wa,"aw",%nobits
 676              		.align	3
 677              		.set	.LANCHOR21,. + 0
 678              		.type	spi_thread_1_wa, %object
 679              		.size	spi_thread_1_wa, 432
 680              	spi_thread_1_wa:
 681 0000 00000000 		.space	432
 681      00000000 
 681      00000000 
 681      00000000 
 681      00000000 
 682              		.section	.bss.OUT_Y_H,"aw",%nobits
 683              		.set	.LANCHOR10,. + 0
 684              		.type	OUT_Y_H, %object
 685              		.size	OUT_Y_H, 1
 686              	OUT_Y_H:
 687 0000 00       		.space	1
 688              		.section	.bss.OUT_Z_H,"aw",%nobits
 689              		.set	.LANCHOR12,. + 0
 690              		.type	OUT_Z_H, %object
 691              		.size	OUT_Z_H, 1
 692              	OUT_Z_H:
 693 0000 00       		.space	1
 694              		.section	.bss.spi_thread_2_wa,"aw",%nobits
 695              		.align	3
 696              		.set	.LANCHOR22,. + 0
 697              		.type	spi_thread_2_wa, %object
 698              		.size	spi_thread_2_wa, 432
 699              	spi_thread_2_wa:
 700 0000 00000000 		.space	432
 700      00000000 
 700      00000000 
 700      00000000 
 700      00000000 
 701              		.section	.data.cur_pos.6389,"aw",%progbits
 702              		.set	.LANCHOR0,. + 0
 703              		.type	cur_pos.6389, %object
 704              		.size	cur_pos.6389, 1
 705              	cur_pos.6389:
 706 0000 FF       		.byte	-1
 707              		.section	.bss.OUT_Z_L,"aw",%nobits
 708              		.set	.LANCHOR11,. + 0
 709              		.type	OUT_Z_L, %object
 710              		.size	OUT_Z_L, 1
 711              	OUT_Z_L:
 712 0000 00       		.space	1
 713              		.section	.rodata.gRegStatus,"a",%progbits
 714              		.align	2
 715              		.type	gRegStatus, %object
 716              		.size	gRegStatus, 4
 717              	gRegStatus:
 718 0000 3F40FD01 		.word	33374271
 719              		.section	.bss.rxBuf,"aw",%nobits
 720              		.align	2
 721              		.type	rxBuf, %object
 722              		.size	rxBuf, 56
ARM GAS  C:\Users\TaisikHam\AppData\Local\Temp\cc7fj03B.s 			page 14


 723              	rxBuf:
 724 0000 00000000 		.space	56
 724      00000000 
 724      00000000 
 724      00000000 
 724      00000000 
 725              		.section	.bss.WHO_AM_I,"aw",%nobits
 726              		.set	.LANCHOR6,. + 0
 727              		.type	WHO_AM_I, %object
 728              		.size	WHO_AM_I, 1
 729              	WHO_AM_I:
 730 0000 00       		.space	1
 731              		.section	.data.gRegTable,"aw",%progbits
 732              		.align	2
 733              		.set	.LANCHOR3,. + 0
 734              		.type	gRegTable, %object
 735              		.size	gRegTable, 24
 736              	gRegTable:
 737 0000 07       		.byte	7
 738 0001 00000000 		.space	23
 738      00000000 
 738      00000000 
 738      00000000 
 738      00000000 
 739              		.section	.bss.lhx,"aw",%nobits
 740              		.set	.LANCHOR14,. + 0
 741              		.type	lhx, %object
 742              		.size	lhx, 1
 743              	lhx:
 744 0000 00       		.space	1
 745              		.section	.bss.prev_pos.6390,"aw",%nobits
 746              		.set	.LANCHOR1,. + 0
 747              		.type	prev_pos.6390, %object
 748              		.size	prev_pos.6390, 1
 749              	prev_pos.6390:
 750 0000 00       		.space	1
 751              		.section	.bss.gSpiDriver,"aw",%nobits
 752              		.align	2
 753              		.type	gSpiDriver, %object
 754              		.size	gSpiDriver, 48
 755              	gSpiDriver:
 756 0000 00000000 		.space	48
 756      00000000 
 756      00000000 
 756      00000000 
 756      00000000 
 757              		.section	.bss.gY,"aw",%nobits
 758              		.align	1
 759              		.set	.LANCHOR18,. + 0
 760              		.type	gY, %object
 761              		.size	gY, 2
 762              	gY:
 763 0000 0000     		.space	2
 764              		.section	.bss.gX,"aw",%nobits
 765              		.align	1
 766              		.set	.LANCHOR15,. + 0
 767              		.type	gX, %object
ARM GAS  C:\Users\TaisikHam\AppData\Local\Temp\cc7fj03B.s 			page 15


 768              		.size	gX, 2
 769              	gX:
 770 0000 0000     		.space	2
 771              		.section	.bss.OUT_X_L,"aw",%nobits
 772              		.set	.LANCHOR7,. + 0
 773              		.type	OUT_X_L, %object
 774              		.size	OUT_X_L, 1
 775              	OUT_X_L:
 776 0000 00       		.space	1
 777              		.section	.bss.gZ,"aw",%nobits
 778              		.align	1
 779              		.set	.LANCHOR2,. + 0
 780              		.type	gZ, %object
 781              		.size	gZ, 2
 782              	gZ:
 783 0000 0000     		.space	2
 784              		.section	.bss.OUT_Y_L,"aw",%nobits
 785              		.set	.LANCHOR9,. + 0
 786              		.type	OUT_Y_L, %object
 787              		.size	OUT_Y_L, 1
 788              	OUT_Y_L:
 789 0000 00       		.space	1
 790              		.section	.bss.lhy,"aw",%nobits
 791              		.set	.LANCHOR17,. + 0
 792              		.type	lhy, %object
 793              		.size	lhy, 1
 794              	lhy:
 795 0000 00       		.space	1
 796              		.section	.bss.lhz,"aw",%nobits
 797              		.set	.LANCHOR20,. + 0
 798              		.type	lhz, %object
 799              		.size	lhz, 1
 800              	lhz:
 801 0000 00       		.space	1
 802              		.section	.bss.addr.6422,"aw",%nobits
 803              		.set	.LANCHOR5,. + 0
 804              		.type	addr.6422, %object
 805              		.size	addr.6422, 1
 806              	addr.6422:
 807 0000 00       		.space	1
 808              		.section	.bss.gSpiConfig,"aw",%nobits
 809              		.align	2
 810              		.set	.LANCHOR4,. + 0
 811              		.type	gSpiConfig, %object
 812              		.size	gSpiConfig, 16
 813              	gSpiConfig:
 814 0000 00000000 		.space	16
 814      00000000 
 814      00000000 
 814      00000000 
 815              		.section	.bss.OUT_X_H,"aw",%nobits
 816              		.set	.LANCHOR8,. + 0
 817              		.type	OUT_X_H, %object
 818              		.size	OUT_X_H, 1
 819              	OUT_X_H:
 820 0000 00       		.space	1
 821              		.section	.rodata.str1.4,"aMS",%progbits,1
ARM GAS  C:\Users\TaisikHam\AppData\Local\Temp\cc7fj03B.s 			page 16


 822              		.align	2
 823              	.LC0:
 824 0000 53504920 		.ascii	"SPI thread 1\000"
 824      74687265 
 824      61642031 
 824      00
 825 000d 000000   		.space	3
 826              	.LC1:
 827 0010 53504920 		.ascii	"SPI thread 0\000"
 827      74687265 
 827      61642030 
 827      00
 828 001d 000000   		.text
 829              	.Letext0:
 830              		.file 2 "c:\\develop\\genist\\chibistudio\\tools\\yagarto-tools\\yagarto-20121222\\bin\\../lib/gcc
 831              		.file 3 "c:/develop/genist/chibistudio/tools/yagarto-tools/yagarto-20121222/lib/gcc/../../arm-none
 832              		.file 4 "../../../os/ports/GCC/ARMCMx/chtypes.h"
 833              		.file 5 "../../../os/kernel/include/chlists.h"
 834              		.file 6 "../../../os/kernel/include/chthreads.h"
 835              		.file 7 "../../../os/ports/GCC/ARMCMx/chcore_v7m.h"
 836              		.file 8 "../../../os/kernel/include/chschd.h"
 837              		.file 9 "../../../os/kernel/include/chmtx.h"
 838              		.file 10 "../../../os/hal/platforms/STM32F30x/stm32f30x.h"
 839              		.file 11 "../../../os/hal/platforms/STM32F30x/stm32_dma.h"
 840              		.file 12 "../../../os/hal/platforms/STM32/GPIOv2/pal_lld.h"
 841              		.file 13 "../../../os/hal/include/spi.h"
 842              		.file 14 "../../../os/hal/platforms/STM32/SPIv2/spi_lld.h"
 843              		.file 15 "../../../os/ports/common/ARMCMx/CMSIS/include/core_cm4.h"
 844              		.file 16 "../gyro/stm32f3_discovery_l3gd20.h"
 845              		.file 17 "../../../os/hal/include/hal.h"
 846              		.file 18 "../../../os/kernel/include/chsys.h"