ARM GAS  C:\Users\TaisikHam\AppData\Local\Temp\cc7fj03B.s 			page 1


   1              		.syntax unified
   2              		.cpu cortex-m4
   3              		.fpu softvfp
   4              		.eabi_attribute 20, 1
   5              		.eabi_attribute 21, 1
   6              		.eabi_attribute 23, 3
   7              		.eabi_attribute 24, 1
   8              		.eabi_attribute 25, 1
   9              		.eabi_attribute 26, 1
  10              		.eabi_attribute 30, 2
  11              		.eabi_attribute 34, 1
  12              		.eabi_attribute 18, 4
  13              		.thumb
  14              		.file	"main.c"
  15              		.text
  16              	.Ltext0:
  17              		.cfi_sections	.debug_frame
  18              		.section	.text.spi_thread_2,"ax",%progbits
  19              		.align	2
  20              		.p2align 4,,15
  21              		.thumb
  22              		.thumb_func
  23              		.type	spi_thread_2, %function
  24              	spi_thread_2:
  25              	.LFB123:
  26              		.file 1 "main.c"
  27              		.loc 1 335 0
  28              		.cfi_startproc
  29              		@ args = 0, pretend = 0, frame = 0
  30              		@ frame_needed = 0, uses_anonymous_args = 0
  31              	.LVL0:
  32 0000 08B5     		push	{r3, lr}
  33              	.LCFI0:
  34              		.cfi_def_cfa_offset 8
  35              		.cfi_offset 3, -8
  36              		.cfi_offset 14, -4
  37              		.loc 1 339 0
  38 0002 054B     		ldr	r3, .L4
  39 0004 054A     		ldr	r2, .L4+4
  40 0006 9B69     		ldr	r3, [r3, #24]
  41 0008 9A61     		str	r2, [r3, #24]
  42              	.LVL1:
  43              	.L2:
  44              		.loc 1 343 0 discriminator 1
  45 000a 0548     		ldr	r0, .L4+8
  46 000c FFF7FEFF 		bl	spiAcquireBus
  47              	.LVL2:
  48              		.loc 1 355 0 discriminator 1
  49 0010 0348     		ldr	r0, .L4+8
  50 0012 FFF7FEFF 		bl	spiReleaseBus
  51              	.LVL3:
  52 0016 F8E7     		b	.L2
  53              	.L5:
  54              		.align	2
  55              	.L4:
  56 0018 00000000 		.word	rlist
  57 001c 00000000 		.word	.LC0
ARM GAS  C:\Users\TaisikHam\AppData\Local\Temp\cc7fj03B.s 			page 2


  58 0020 00000000 		.word	SPID1
  59              		.cfi_endproc
  60              	.LFE123:
  61              		.size	spi_thread_2, .-spi_thread_2
  62 0024 AFF30080 		.section	.text.assert_check_led,"ax",%progbits
  62      AFF30080 
  62      AFF30080 
  63              		.align	2
  64              		.p2align 4,,15
  65              		.global	assert_check_led
  66              		.thumb
  67              		.thumb_func
  68              		.type	assert_check_led, %function
  69              	assert_check_led:
  70              	.LFB118:
  71              		.loc 1 68 0
  72              		.cfi_startproc
  73              		@ args = 0, pretend = 0, frame = 0
  74              		@ frame_needed = 0, uses_anonymous_args = 0
  75              		@ link register save eliminated.
  76              	.LVL4:
  77              		.loc 1 77 0
  78 0000 0120     		movs	r0, #1
  79 0002 7047     		bx	lr
  80              		.cfi_endproc
  81              	.LFE118:
  82              		.size	assert_check_led, .-assert_check_led
  83 0004 AFF30080 		.section	.text.searching_led_position,"ax",%progbits
  83      AFF30080 
  83      AFF30080 
  84              		.align	2
  85              		.p2align 4,,15
  86              		.global	searching_led_position
  87              		.thumb
  88              		.thumb_func
  89              		.type	searching_led_position, %function
  90              	searching_led_position:
  91              	.LFB119:
  92              		.loc 1 80 0
  93              		.cfi_startproc
  94              		@ args = 0, pretend = 0, frame = 0
  95              		@ frame_needed = 0, uses_anonymous_args = 0
  96              	.LVL5:
  97 0000 38B5     		push	{r3, r4, r5, lr}
  98              	.LCFI1:
  99              		.cfi_def_cfa_offset 16
 100              		.cfi_offset 3, -16
 101              		.cfi_offset 4, -12
 102              		.cfi_offset 5, -8
 103              		.cfi_offset 14, -4
 104              		.loc 1 87 0
 105 0002 124C     		ldr	r4, .L9
 106              		.loc 1 86 0
 107 0004 124D     		ldr	r5, .L9+4
 108              		.loc 1 87 0
 109 0006 2378     		ldrb	r3, [r4, #0]	@ zero_extendqisi2
 110              		.loc 1 86 0
ARM GAS  C:\Users\TaisikHam\AppData\Local\Temp\cc7fj03B.s 			page 3


 111 0008 2870     		strb	r0, [r5, #0]
 112              		.loc 1 87 0
 113 000a 9842     		cmp	r0, r3
 114 000c 0DD0     		beq	.L8
 115              		.loc 1 88 0
 116 000e 0122     		movs	r2, #1
 117 0010 4FF48053 		mov	r3, #4096
 118 0014 C4F60003 		movt	r3, 18432
 119 0018 02FA00F0 		lsl	r0, r2, r0
 120              	.LVL6:
 121 001c 80B2     		uxth	r0, r0
 122 001e 1883     		strh	r0, [r3, #24]	@ movhi
 123              		.loc 1 89 0
 124 0020 4FF4E170 		mov	r0, #450
 125 0024 FFF7FEFF 		bl	chThdSleep
 126              	.LVL7:
 127 0028 2378     		ldrb	r3, [r4, #0]	@ zero_extendqisi2
 128              	.L8:
 129              	.LVL8:
 130              		.loc 1 95 0
 131 002a 0121     		movs	r1, #1
 132 002c 4FF48052 		mov	r2, #4096
 133 0030 01FA03F3 		lsl	r3, r1, r3
 134 0034 C4F60002 		movt	r2, 18432
 135 0038 9BB2     		uxth	r3, r3
 136 003a 5383     		strh	r3, [r2, #26]	@ movhi
 137              		.loc 1 96 0
 138 003c 4FF4E170 		mov	r0, #450
 139 0040 FFF7FEFF 		bl	chThdSleep
 140              	.LVL9:
 141              		.loc 1 97 0
 142 0044 2B78     		ldrb	r3, [r5, #0]	@ zero_extendqisi2
 143 0046 2370     		strb	r3, [r4, #0]
 144 0048 38BD     		pop	{r3, r4, r5, pc}
 145              	.L10:
 146 004a 00BF     		.align	2
 147              	.L9:
 148 004c 00000000 		.word	.LANCHOR1
 149 0050 00000000 		.word	.LANCHOR0
 150              		.cfi_endproc
 151              	.LFE119:
 152              		.size	searching_led_position, .-searching_led_position
 153 0054 AFF30080 		.section	.text.checking_coord,"ax",%progbits
 153      AFF30080 
 153      AFF30080 
 154              		.align	2
 155              		.p2align 4,,15
 156              		.global	checking_coord
 157              		.thumb
 158              		.thumb_func
 159              		.type	checking_coord, %function
 160              	checking_coord:
 161              	.LFB120:
 162              		.loc 1 114 0
 163              		.cfi_startproc
 164              		@ args = 0, pretend = 0, frame = 0
 165              		@ frame_needed = 0, uses_anonymous_args = 0
ARM GAS  C:\Users\TaisikHam\AppData\Local\Temp\cc7fj03B.s 			page 4


 166              		@ link register save eliminated.
 167              		.loc 1 147 0
 168 0000 204B     		ldr	r3, .L28
 169 0002 1A88     		ldrh	r2, [r3, #0]
 170 0004 40F6FF73 		movw	r3, #4095
 171 0008 9A42     		cmp	r2, r3
 172 000a 23D9     		bls	.L20
 173              		.loc 1 150 0
 174 000c A2F58051 		sub	r1, r2, #4096
 175 0010 89B2     		uxth	r1, r1
 176 0012 9942     		cmp	r1, r3
 177 0014 27D9     		bls	.L21
 178              		.loc 1 153 0
 179 0016 A2F50051 		sub	r1, r2, #8192
 180 001a 89B2     		uxth	r1, r1
 181 001c 9942     		cmp	r1, r3
 182 001e 1CD9     		bls	.L22
 183              		.loc 1 156 0
 184 0020 A2F54051 		sub	r1, r2, #12288
 185 0024 89B2     		uxth	r1, r1
 186 0026 9942     		cmp	r1, r3
 187 0028 20D9     		bls	.L23
 188              		.loc 1 159 0
 189 002a A2F58041 		sub	r1, r2, #16384
 190 002e 89B2     		uxth	r1, r1
 191 0030 9942     		cmp	r1, r3
 192 0032 1ED9     		bls	.L24
 193              		.loc 1 162 0
 194 0034 A2F5A041 		sub	r1, r2, #20480
 195 0038 89B2     		uxth	r1, r1
 196 003a 9942     		cmp	r1, r3
 197 003c 1FD9     		bls	.L25
 198              		.loc 1 165 0
 199 003e A2F5C041 		sub	r1, r2, #24576
 200 0042 89B2     		uxth	r1, r1
 201 0044 9942     		cmp	r1, r3
 202 0046 0BD9     		bls	.L26
 203              		.loc 1 168 0
 204 0048 A2F5E042 		sub	r2, r2, #28672
 205 004c 92B2     		uxth	r2, r2
 206 004e 9A42     		cmp	r2, r3
 207 0050 12D9     		bls	.L27
 208 0052 7047     		bx	lr
 209              	.L20:
 210              		.loc 1 148 0
 211 0054 0920     		movs	r0, #9
 212              		.loc 1 201 0
 213              		.loc 1 148 0
 214 0056 FFF7FEBF 		b	searching_led_position
 215              	.LVL10:
 216              	.L22:
 217              		.loc 1 154 0
 218 005a 0B20     		movs	r0, #11
 219              		.loc 1 201 0
 220              		.loc 1 154 0
 221 005c FFF7FEBF 		b	searching_led_position
 222              	.LVL11:
ARM GAS  C:\Users\TaisikHam\AppData\Local\Temp\cc7fj03B.s 			page 5


 223              	.L26:
 224              		.loc 1 166 0
 225 0060 0F20     		movs	r0, #15
 226              		.loc 1 201 0
 227              		.loc 1 166 0
 228 0062 FFF7FEBF 		b	searching_led_position
 229              	.LVL12:
 230              	.L21:
 231              		.loc 1 151 0
 232 0066 0A20     		movs	r0, #10
 233              		.loc 1 201 0
 234              		.loc 1 151 0
 235 0068 FFF7FEBF 		b	searching_led_position
 236              	.LVL13:
 237              	.L23:
 238              		.loc 1 157 0
 239 006c 0C20     		movs	r0, #12
 240              		.loc 1 201 0
 241              		.loc 1 157 0
 242 006e FFF7FEBF 		b	searching_led_position
 243              	.LVL14:
 244              	.L24:
 245              		.loc 1 160 0
 246 0072 0D20     		movs	r0, #13
 247              		.loc 1 201 0
 248              		.loc 1 160 0
 249 0074 FFF7FEBF 		b	searching_led_position
 250              	.LVL15:
 251              	.L27:
 252              		.loc 1 169 0
 253 0078 0820     		movs	r0, #8
 254              		.loc 1 201 0
 255              		.loc 1 169 0
 256 007a FFF7FEBF 		b	searching_led_position
 257              	.LVL16:
 258              	.L25:
 259              		.loc 1 163 0
 260 007e 0E20     		movs	r0, #14
 261              		.loc 1 201 0
 262              		.loc 1 163 0
 263 0080 FFF7FEBF 		b	searching_led_position
 264              	.LVL17:
 265              	.L29:
 266              		.align	2
 267              	.L28:
 268 0084 00000000 		.word	.LANCHOR2
 269              		.cfi_endproc
 270              	.LFE120:
 271              		.size	checking_coord, .-checking_coord
 272 0088 AFF30080 		.section	.text._l3gd_register_setting,"ax",%progbits
 272      AFF30080 
 273              		.align	2
 274              		.p2align 4,,15
 275              		.global	_l3gd_register_setting
 276              		.thumb
 277              		.thumb_func
 278              		.type	_l3gd_register_setting, %function
ARM GAS  C:\Users\TaisikHam\AppData\Local\Temp\cc7fj03B.s 			page 6


 279              	_l3gd_register_setting:
 280              	.LFB121:
 281              		.loc 1 240 0
 282              		.cfi_startproc
 283              		@ args = 0, pretend = 0, frame = 8
 284              		@ frame_needed = 0, uses_anonymous_args = 0
 285              	.LVL18:
 286 0000 30B5     		push	{r4, r5, lr}
 287              	.LCFI2:
 288              		.cfi_def_cfa_offset 12
 289              		.cfi_offset 4, -12
 290              		.cfi_offset 5, -8
 291              		.cfi_offset 14, -4
 292              		.loc 1 243 0
 293 0002 A0F12003 		sub	r3, r0, #32
 294              		.loc 1 240 0
 295 0006 83B0     		sub	sp, sp, #12
 296              	.LCFI3:
 297              		.cfi_def_cfa_offset 24
 298              		.loc 1 243 0
 299 0008 DBB2     		uxtb	r3, r3
 300 000a 182B     		cmp	r3, #24
 301              		.loc 1 240 0
 302 000c 8DF80700 		strb	r0, [sp, #7]
 303              		.loc 1 243 0
 304 0010 07D8     		bhi	.L30
 305              	.LVL19:
 306              		.loc 1 248 0
 307 0012 44F23F02 		movw	r2, #16447
 308 0016 C0F2FD12 		movt	r2, 509
 309 001a 22FA03F2 		lsr	r2, r2, r3
 310 001e D207     		lsls	r2, r2, #31
 311 0020 01D4     		bmi	.L35
 312              	.LVL20:
 313              	.L30:
 314              		.loc 1 253 0
 315 0022 03B0     		add	sp, sp, #12
 316 0024 30BD     		pop	{r4, r5, pc}
 317              	.LVL21:
 318              	.L35:
 319              		.loc 1 250 0
 320 0026 064C     		ldr	r4, .L36
 321              		.loc 1 249 0
 322 0028 E55C     		ldrb	r5, [r4, r3]	@ zero_extendqisi2
 323 002a 25EA0105 		bic	r5, r5, r1
 324              		.loc 1 250 0
 325 002e 0D43     		orrs	r5, r5, r1
 326              		.loc 1 251 0
 327 0030 E018     		adds	r0, r4, r3
 328 0032 0DF10701 		add	r1, sp, #7
 329              	.LVL22:
 330 0036 0122     		movs	r2, #1
 331              		.loc 1 250 0
 332 0038 E554     		strb	r5, [r4, r3]
 333              		.loc 1 251 0
 334 003a FFF7FEFF 		bl	L3GD20_Write
 335              	.LVL23:
ARM GAS  C:\Users\TaisikHam\AppData\Local\Temp\cc7fj03B.s 			page 7


 336 003e F0E7     		b	.L30
 337              	.L37:
 338              		.align	2
 339              	.L36:
 340 0040 00000000 		.word	.LANCHOR3
 341              		.cfi_endproc
 342              	.LFE121:
 343              		.size	_l3gd_register_setting, .-_l3gd_register_setting
 344 0044 AFF30080 		.section	.text.spi_thread_1,"ax",%progbits
 344      AFF30080 
 344      AFF30080 
 345              		.align	2
 346              		.p2align 4,,15
 347              		.thumb
 348              		.thumb_func
 349              		.type	spi_thread_1, %function
 350              	spi_thread_1:
 351              	.LFB122:
 352              		.loc 1 256 0
 353              		.cfi_startproc
 354              		@ args = 0, pretend = 0, frame = 0
 355              		@ frame_needed = 0, uses_anonymous_args = 0
 356              	.LVL24:
 357 0000 2DE9F84F 		push	{r3, r4, r5, r6, r7, r8, r9, sl, fp, lr}
 358              	.LCFI4:
 359              		.cfi_def_cfa_offset 40
 360              		.cfi_offset 3, -40
 361              		.cfi_offset 4, -36
 362              		.cfi_offset 5, -32
 363              		.cfi_offset 6, -28
 364              		.cfi_offset 7, -24
 365              		.cfi_offset 8, -20
 366              		.cfi_offset 9, -16
 367              		.cfi_offset 10, -12
 368              		.cfi_offset 11, -8
 369              		.cfi_offset 14, -4
 370              		.loc 1 263 0
 371 0004 5A4B     		ldr	r3, .L40
 372 0006 5B4A     		ldr	r2, .L40+4
 373 0008 9B69     		ldr	r3, [r3, #24]
 374 000a 5B4C     		ldr	r4, .L40+8
 375 000c DFF88081 		ldr	r8, .L40+32
 376 0010 5A4F     		ldr	r7, .L40+12
 377 0012 5B4D     		ldr	r5, .L40+16
 378 0014 9A61     		str	r2, [r3, #24]
 379              	.LVL25:
 380              	.L39:
 381              		.loc 1 266 0 discriminator 1
 382 0016 5B48     		ldr	r0, .L40+20
 383 0018 FFF7FEFF 		bl	spiAcquireBus
 384              	.LVL26:
 385              		.loc 1 288 0 discriminator 1
 386 001c 5A49     		ldr	r1, .L40+24
 387 001e 5948     		ldr	r0, .L40+20
 388 0020 FFF7FEFF 		bl	spiStart
 389              	.LVL27:
 390              		.loc 1 289 0 discriminator 1
ARM GAS  C:\Users\TaisikHam\AppData\Local\Temp\cc7fj03B.s 			page 8


 391 0024 5748     		ldr	r0, .L40+20
 392 0026 FFF7FEFF 		bl	spiSelect
 393              	.LVL28:
 394              		.loc 1 291 0 discriminator 1
 395 002a 2020     		movs	r0, #32
 396 002c 0821     		movs	r1, #8
 397 002e FFF7FEFF 		bl	_l3gd_register_setting
 398              	.LVL29:
 399              		.loc 1 292 0 discriminator 1
 400 0032 2320     		movs	r0, #35
 401 0034 0021     		movs	r1, #0
 402 0036 FFF7FEFF 		bl	_l3gd_register_setting
 403              	.LVL30:
 404              		.loc 1 293 0 discriminator 1
 405 003a 2E20     		movs	r0, #46
 406 003c 4021     		movs	r1, #64
 407 003e FFF7FEFF 		bl	_l3gd_register_setting
 408              	.LVL31:
 409              		.loc 1 296 0 discriminator 1
 410 0042 0F23     		movs	r3, #15
 411 0044 0122     		movs	r2, #1
 412 0046 5148     		ldr	r0, .L40+28
 413 0048 4B49     		ldr	r1, .L40+8
 414 004a 2370     		strb	r3, [r4, #0]
 415 004c FFF7FEFF 		bl	L3GD20_Read
 416              	.LVL32:
 417              		.loc 1 297 0 discriminator 1
 418 0050 2823     		movs	r3, #40
 419 0052 0122     		movs	r2, #1
 420 0054 4E48     		ldr	r0, .L40+32
 421 0056 4849     		ldr	r1, .L40+8
 422 0058 2370     		strb	r3, [r4, #0]
 423 005a FFF7FEFF 		bl	L3GD20_Read
 424              	.LVL33:
 425              		.loc 1 298 0 discriminator 1
 426 005e 2923     		movs	r3, #41
 427 0060 0122     		movs	r2, #1
 428 0062 4648     		ldr	r0, .L40+12
 429 0064 4449     		ldr	r1, .L40+8
 430 0066 2370     		strb	r3, [r4, #0]
 431 0068 FFF7FEFF 		bl	L3GD20_Read
 432              	.LVL34:
 433              		.loc 1 299 0 discriminator 1
 434 006c 2A23     		movs	r3, #42
 435 006e 0122     		movs	r2, #1
 436 0070 4848     		ldr	r0, .L40+36
 437 0072 4149     		ldr	r1, .L40+8
 438 0074 2370     		strb	r3, [r4, #0]
 439 0076 FFF7FEFF 		bl	L3GD20_Read
 440              	.LVL35:
 441              		.loc 1 300 0 discriminator 1
 442 007a 2B23     		movs	r3, #43
 443 007c 0122     		movs	r2, #1
 444 007e 4648     		ldr	r0, .L40+40
 445 0080 3D49     		ldr	r1, .L40+8
 446 0082 2370     		strb	r3, [r4, #0]
 447 0084 FFF7FEFF 		bl	L3GD20_Read
ARM GAS  C:\Users\TaisikHam\AppData\Local\Temp\cc7fj03B.s 			page 9


 448              	.LVL36:
 449              		.loc 1 301 0 discriminator 1
 450 0088 2C23     		movs	r3, #44
 451 008a 0122     		movs	r2, #1
 452 008c 4348     		ldr	r0, .L40+44
 453 008e 3A49     		ldr	r1, .L40+8
 454 0090 2370     		strb	r3, [r4, #0]
 455 0092 FFF7FEFF 		bl	L3GD20_Read
 456              	.LVL37:
 457              		.loc 1 302 0 discriminator 1
 458 0096 2D23     		movs	r3, #45
 459 0098 3749     		ldr	r1, .L40+8
 460 009a 4148     		ldr	r0, .L40+48
 461 009c 2370     		strb	r3, [r4, #0]
 462 009e 0122     		movs	r2, #1
 463 00a0 FFF7FEFF 		bl	L3GD20_Read
 464              	.LVL38:
 465              		.loc 1 303 0 discriminator 1
 466 00a4 3748     		ldr	r0, .L40+20
 467 00a6 FFF7FEFF 		bl	spiUnselect
 468              	.LVL39:
 469              		.loc 1 316 0 discriminator 1
 470 00aa 40F20006 		movw	r6, #:lower16:.LANCHOR12
 471              		.loc 1 313 0 discriminator 1
 472 00ae 40F20001 		movw	r1, #:lower16:.LANCHOR9
 473 00b2 40F20002 		movw	r2, #:lower16:.LANCHOR10
 474              		.loc 1 316 0 discriminator 1
 475 00b6 40F20003 		movw	r3, #:lower16:.LANCHOR11
 476              		.loc 1 313 0 discriminator 1
 477 00ba C0F20001 		movt	r1, #:upper16:.LANCHOR9
 478 00be C0F20002 		movt	r2, #:upper16:.LANCHOR10
 479              		.loc 1 316 0 discriminator 1
 480 00c2 C0F20003 		movt	r3, #:upper16:.LANCHOR11
 481 00c6 C0F20006 		movt	r6, #:upper16:.LANCHOR12
 482              		.loc 1 310 0 discriminator 1
 483 00ca 98F800C0 		ldrb	ip, [r8, #0]	@ zero_extendqisi2
 484              		.loc 1 313 0 discriminator 1
 485 00ce 0878     		ldrb	r0, [r1, #0]	@ zero_extendqisi2
 486 00d0 1178     		ldrb	r1, [r2, #0]	@ zero_extendqisi2
 487              		.loc 1 316 0 discriminator 1
 488 00d2 1A78     		ldrb	r2, [r3, #0]	@ zero_extendqisi2
 489 00d4 3378     		ldrb	r3, [r6, #0]	@ zero_extendqisi2
 490              		.loc 1 310 0 discriminator 1
 491 00d6 97F800E0 		ldrb	lr, [r7, #0]	@ zero_extendqisi2
 492 00da 40F20006 		movw	r6, #:lower16:.LANCHOR13
 493 00de C0F20006 		movt	r6, #:upper16:.LANCHOR13
 494 00e2 6FEA0C0C 		mvn	ip, ip
 495 00e6 5FFA8CFC 		uxtb	ip, ip
 496 00ea 86F800C0 		strb	ip, [r6, #0]
 497 00ee 40F20006 		movw	r6, #:lower16:.LANCHOR14
 498 00f2 C0F20006 		movt	r6, #:upper16:.LANCHOR14
 499 00f6 6FEA0E0E 		mvn	lr, lr
 500 00fa 5FFA8EFE 		uxtb	lr, lr
 501 00fe 86F800E0 		strb	lr, [r6, #0]
 502              		.loc 1 311 0 discriminator 1
 503 0102 40F20006 		movw	r6, #:lower16:.LANCHOR15
 504 0106 C0F20006 		movt	r6, #:upper16:.LANCHOR15
ARM GAS  C:\Users\TaisikHam\AppData\Local\Temp\cc7fj03B.s 			page 10


 505 010a 4CEACE1B 		orr	fp, ip, lr, lsl #7
 506 010e A6F800B0 		strh	fp, [r6, #0]	@ movhi
 507              		.loc 1 313 0 discriminator 1
 508 0112 40F20006 		movw	r6, #:lower16:.LANCHOR16
 509 0116 C043     		mvns	r0, r0
 510 0118 C943     		mvns	r1, r1
 511 011a C0F20006 		movt	r6, #:upper16:.LANCHOR16
 512 011e C0B2     		uxtb	r0, r0
 513 0120 C9B2     		uxtb	r1, r1
 514              		.loc 1 314 0 discriminator 1
 515 0122 40EAC11A 		orr	sl, r0, r1, lsl #7
 516              		.loc 1 313 0 discriminator 1
 517 0126 3070     		strb	r0, [r6, #0]
 518 0128 40F20000 		movw	r0, #:lower16:.LANCHOR17
 519 012c C0F20000 		movt	r0, #:upper16:.LANCHOR17
 520              		.loc 1 316 0 discriminator 1
 521 0130 D243     		mvns	r2, r2
 522              		.loc 1 313 0 discriminator 1
 523 0132 0170     		strb	r1, [r0, #0]
 524              		.loc 1 316 0 discriminator 1
 525 0134 DB43     		mvns	r3, r3
 526              		.loc 1 314 0 discriminator 1
 527 0136 40F20001 		movw	r1, #:lower16:.LANCHOR18
 528              		.loc 1 316 0 discriminator 1
 529 013a 40F20006 		movw	r6, #:lower16:.LANCHOR19
 530 013e 40F20000 		movw	r0, #:lower16:.LANCHOR20
 531 0142 D2B2     		uxtb	r2, r2
 532 0144 DBB2     		uxtb	r3, r3
 533              		.loc 1 314 0 discriminator 1
 534 0146 C0F20001 		movt	r1, #:upper16:.LANCHOR18
 535              		.loc 1 316 0 discriminator 1
 536 014a C0F20000 		movt	r0, #:upper16:.LANCHOR20
 537 014e C0F20006 		movt	r6, #:upper16:.LANCHOR19
 538              		.loc 1 317 0 discriminator 1
 539 0152 42EAC319 		orr	r9, r2, r3, lsl #7
 540              		.loc 1 316 0 discriminator 1
 541 0156 0370     		strb	r3, [r0, #0]
 542              		.loc 1 314 0 discriminator 1
 543 0158 A1F800A0 		strh	sl, [r1, #0]	@ movhi
 544              		.loc 1 316 0 discriminator 1
 545 015c 3270     		strb	r2, [r6, #0]
 546              		.loc 1 317 0 discriminator 1
 547 015e A5F80090 		strh	r9, [r5, #0]	@ movhi
 548              		.loc 1 319 0 discriminator 1
 549 0162 FFF7FEFF 		bl	checking_coord
 550              	.LVL40:
 551              		.loc 1 325 0 discriminator 1
 552 0166 0748     		ldr	r0, .L40+20
 553 0168 FFF7FEFF 		bl	spiReleaseBus
 554              	.LVL41:
 555 016c 53E7     		b	.L39
 556              	.L41:
 557 016e 00BF     		.align	2
 558              	.L40:
 559 0170 00000000 		.word	rlist
 560 0174 10000000 		.word	.LC1
 561 0178 00000000 		.word	.LANCHOR5
ARM GAS  C:\Users\TaisikHam\AppData\Local\Temp\cc7fj03B.s 			page 11


 562 017c 00000000 		.word	.LANCHOR8
 563 0180 00000000 		.word	.LANCHOR2
 564 0184 00000000 		.word	SPID1
 565 0188 00000000 		.word	.LANCHOR4
 566 018c 00000000 		.word	.LANCHOR6
 567 0190 00000000 		.word	.LANCHOR7
 568 0194 00000000 		.word	.LANCHOR9
 569 0198 00000000 		.word	.LANCHOR10
 570 019c 00000000 		.word	.LANCHOR11
 571 01a0 00000000 		.word	.LANCHOR12
 572              		.cfi_endproc
 573              	.LFE122:
 574              		.size	spi_thread_1, .-spi_thread_1
 575 01a4 AFF30080 		.section	.text.startup.main,"ax",%progbits
 575      AFF30080 
 575      AFF30080 
 576              		.align	2
 577              		.p2align 4,,15
 578              		.global	main
 579              		.thumb
 580              		.thumb_func
 581              		.type	main, %function
 582              	main:
 583              	.LFB124:
 584              		.loc 1 365 0
 585              		.cfi_startproc
 586              		@ args = 0, pretend = 0, frame = 0
 587              		@ frame_needed = 0, uses_anonymous_args = 0
 588 0000 10B5     		push	{r4, lr}
 589              	.LCFI5:
 590              		.cfi_def_cfa_offset 8
 591              		.cfi_offset 4, -8
 592              		.cfi_offset 14, -4
 593 0002 82B0     		sub	sp, sp, #8
 594              	.LCFI6:
 595              		.cfi_def_cfa_offset 16
 596              		.loc 1 373 0
 597 0004 FFF7FEFF 		bl	halInit
 598              	.LVL42:
 599              		.loc 1 374 0
 600 0008 FFF7FEFF 		bl	chSysInit
 601              	.LVL43:
 602              		.loc 1 376 0
 603 000c 40F20000 		movw	r0, #:lower16:SPID1
 604 0010 40F20001 		movw	r1, #:lower16:.LANCHOR4
 605 0014 C0F20000 		movt	r0, #:upper16:SPID1
 606 0018 C0F20001 		movt	r1, #:upper16:.LANCHOR4
 607 001c FFF7FEFF 		bl	L3GD20_Init
 608              	.LVL44:
 609              		.loc 1 383 0
 610 0020 0024     		movs	r4, #0
 611 0022 40F20003 		movw	r3, #:lower16:spi_thread_1
 612 0026 40F20000 		movw	r0, #:lower16:.LANCHOR21
 613 002a 4122     		movs	r2, #65
 614 002c 4FF4D871 		mov	r1, #432
 615 0030 C0F20003 		movt	r3, #:upper16:spi_thread_1
 616 0034 0094     		str	r4, [sp, #0]
ARM GAS  C:\Users\TaisikHam\AppData\Local\Temp\cc7fj03B.s 			page 12


 617 0036 C0F20000 		movt	r0, #:upper16:.LANCHOR21
 618 003a FFF7FEFF 		bl	chThdCreateStatic
 619              	.LVL45:
 620              		.loc 1 387 0
 621 003e 40F20000 		movw	r0, #:lower16:.LANCHOR22
 622 0042 40F20003 		movw	r3, #:lower16:spi_thread_2
 623 0046 0094     		str	r4, [sp, #0]
 624 0048 4FF4D871 		mov	r1, #432
 625 004c 4122     		movs	r2, #65
 626 004e C0F20003 		movt	r3, #:upper16:spi_thread_2
 627 0052 C0F20000 		movt	r0, #:upper16:.LANCHOR22
 628 0056 FFF7FEFF 		bl	chThdCreateStatic
 629              	.LVL46:
 630              		.loc 1 391 0
 631 005a 2046     		mov	r0, r4
 632 005c 02B0     		add	sp, sp, #8
 633 005e 10BD     		pop	{r4, pc}
 634              		.cfi_endproc
 635              	.LFE124:
 636              		.size	main, .-main
 637              		.global	gRegStatus
 638              		.global	lhz
 639              		.global	llz
 640              		.global	lhy
 641              		.global	lly
 642              		.global	llx
 643              		.global	lhx
 644              		.global	gZ
 645              		.global	gY
 646              		.global	gX
 647              		.global	WHO_AM_I
 648              		.global	OUT_Z_H
 649              		.global	OUT_Z_L
 650              		.global	OUT_Y_H
 651              		.global	OUT_Y_L
 652              		.global	OUT_X_H
 653              		.global	OUT_X_L
 654              		.global	rxBuf
 655              		.global	gSpiConfig
 656              		.global	gSpiDriver
 657              		.section	.bss.llx,"aw",%nobits
 658              		.set	.LANCHOR13,. + 0
 659              		.type	llx, %object
 660              		.size	llx, 1
 661              	llx:
 662 0000 00       		.space	1
 663              		.section	.bss.lly,"aw",%nobits
 664              		.set	.LANCHOR16,. + 0
 665              		.type	lly, %object
 666              		.size	lly, 1
 667              	lly:
 668 0000 00       		.space	1
 669              		.section	.bss.llz,"aw",%nobits
 670              		.set	.LANCHOR19,. + 0
 671              		.type	llz, %object
 672              		.size	llz, 1
 673              	llz:
ARM GAS  C:\Users\TaisikHam\AppData\Local\Temp\cc7fj03B.s 			page 13


 674 0000 00       		.space	1
 675              		.section	.bss.spi_thread_1_wa,"aw",%nobits
 676              		.align	3
 677              		.set	.LANCHOR21,. + 0
 678              		.type	spi_thread_1_wa, %object
 679              		.size	spi_thread_1_wa, 432
 680              	spi_thread_1_wa:
 681 0000 00000000 		.space	432
 681      00000000 
 681      00000000 
 681      00000000 
 681      00000000 
 682              		.section	.bss.OUT_Y_H,"aw",%nobits
 683              		.set	.LANCHOR10,. + 0
 684              		.type	OUT_Y_H, %object
 685              		.size	OUT_Y_H, 1
 686              	OUT_Y_H:
 687 0000 00       		.space	1
 688              		.section	.bss.OUT_Z_H,"aw",%nobits
 689              		.set	.LANCHOR12,. + 0
 690              		.type	OUT_Z_H, %object
 691              		.size	OUT_Z_H, 1
 692              	OUT_Z_H:
 693 0000 00       		.space	1
 694              		.section	.bss.spi_thread_2_wa,"aw",%nobits
 695              		.align	3
 696              		.set	.LANCHOR22,. + 0
 697              		.type	spi_thread_2_wa, %object
 698              		.size	spi_thread_2_wa, 432
 699              	spi_thread_2_wa:
 700 0000 00000000 		.space	432
 700      00000000 
 700      00000000 
 700      00000000 
 700      00000000 
 701              		.section	.data.cur_pos.6389,"aw",%progbits
 702              		.set	.LANCHOR0,. + 0
 703              		.type	cur_pos.6389, %object
 704              		.size	cur_pos.6389, 1
 705              	cur_pos.6389:
 706 0000 FF       		.byte	-1
 707              		.section	.bss.OUT_Z_L,"aw",%nobits
 708              		.set	.LANCHOR11,. + 0
 709              		.type	OUT_Z_L, %object
 710              		.size	OUT_Z_L, 1
 711              	OUT_Z_L:
 712 0000 00       		.space	1
 713              		.section	.rodata.gRegStatus,"a",%progbits
 714              		.align	2
 715              		.type	gRegStatus, %object
 716              		.size	gRegStatus, 4
 717              	gRegStatus:
 718 0000 3F40FD01 		.word	33374271
 719              		.section	.bss.rxBuf,"aw",%nobits
 720              		.align	2
 721              		.type	rxBuf, %object
 722              		.size	rxBuf, 56
ARM GAS  C:\Users\TaisikHam\AppData\Local\Temp\cc7fj03B.s 			page 14


 723              	rxBuf:
 724 0000 00000000 		.space	56
 724      00000000 
 724      00000000 
 724      00000000 
 724      00000000 
 725              		.section	.bss.WHO_AM_I,"aw",%nobits
 726              		.set	.LANCHOR6,. + 0
 727              		.type	WHO_AM_I, %object
 728              		.size	WHO_AM_I, 1
 729              	WHO_AM_I:
 730 0000 00       		.space	1
 731              		.section	.data.gRegTable,"aw",%progbits
 732              		.align	2
 733              		.set	.LANCHOR3,. + 0
 734              		.type	gRegTable, %object
 735              		.size	gRegTable, 24
 736              	gRegTable:
 737 0000 07       		.byte	7
 738 0001 00000000 		.space	23
 738      00000000 
 738      00000000 
 738      00000000 
 738      00000000 
 739              		.section	.bss.lhx,"aw",%nobits
 740              		.set	.LANCHOR14,. + 0
 741              		.type	lhx, %object
 742              		.size	lhx, 1
 743              	lhx:
 744 0000 00       		.space	1
 745              		.section	.bss.prev_pos.6390,"aw",%nobits
 746              		.set	.LANCHOR1,. + 0
 747              		.type	prev_pos.6390, %object
 748              		.size	prev_pos.6390, 1
 749              	prev_pos.6390:
 750 0000 00       		.space	1
 751              		.section	.bss.gSpiDriver,"aw",%nobits
 752              		.align	2
 753              		.type	gSpiDriver, %object
 754              		.size	gSpiDriver, 48
 755              	gSpiDriver:
 756 0000 00000000 		.space	48
 756      00000000 
 756      00000000 
 756      00000000 
 756      00000000 
 757              		.section	.bss.gY,"aw",%nobits
 758              		.align	1
 759              		.set	.LANCHOR18,. + 0
 760              		.type	gY, %object
 761              		.size	gY, 2
 762              	gY:
 763 0000 0000     		.space	2
 764              		.section	.bss.gX,"aw",%nobits
 765              		.align	1
 766              		.set	.LANCHOR15,. + 0
 767              		.type	gX, %object
ARM GAS  C:\Users\TaisikHam\AppData\Local\Temp\cc7fj03B.s 			page 15


 768              		.size	gX, 2
 769              	gX:
 770 0000 0000     		.space	2
 771              		.section	.bss.OUT_X_L,"aw",%nobits
 772              		.set	.LANCHOR7,. + 0
 773              		.type	OUT_X_L, %object
 774              		.size	OUT_X_L, 1
 775              	OUT_X_L:
 776 0000 00       		.space	1
 777              		.section	.bss.gZ,"aw",%nobits
 778              		.align	1
 779              		.set	.LANCHOR2,. + 0
 780              		.type	gZ, %object
 781              		.size	gZ, 2
 782              	gZ:
 783 0000 0000     		.space	2
 784              		.section	.bss.OUT_Y_L,"aw",%nobits
 785              		.set	.LANCHOR9,. + 0
 786              		.type	OUT_Y_L, %object
 787              		.size	OUT_Y_L, 1
 788              	OUT_Y_L:
 789 0000 00       		.space	1
 790              		.section	.bss.lhy,"aw",%nobits
 791              		.set	.LANCHOR17,. + 0
 792              		.type	lhy, %object
 793              		.size	lhy, 1
 794              	lhy:
 795 0000 00       		.space	1
 796              		.section	.bss.lhz,"aw",%nobits
 797              		.set	.LANCHOR20,. + 0
 798              		.type	lhz, %object
 799              		.size	lhz, 1
 800              	lhz:
 801 0000 00       		.space	1
 802              		.section	.bss.addr.6422,"aw",%nobits
 803              		.set	.LANCHOR5,. + 0
 804              		.type	addr.6422, %object
 805              		.size	addr.6422, 1
 806              	addr.6422:
 807 0000 00       		.space	1
 808              		.section	.bss.gSpiConfig,"aw",%nobits
 809              		.align	2
 810              		.set	.LANCHOR4,. + 0
 811              		.type	gSpiConfig, %object
 812              		.size	gSpiConfig, 16
 813              	gSpiConfig:
 814 0000 00000000 		.space	16
 814      00000000 
 814      00000000 
 814      00000000 
 815              		.section	.bss.OUT_X_H,"aw",%nobits
 816              		.set	.LANCHOR8,. + 0
 817              		.type	OUT_X_H, %object
 818              		.size	OUT_X_H, 1
 819              	OUT_X_H:
 820 0000 00       		.space	1
 821              		.section	.rodata.str1.4,"aMS",%progbits,1
ARM GAS  C:\Users\TaisikHam\AppData\Local\Temp\cc7fj03B.s 			page 16


 822              		.align	2
 823              	.LC0:
 824 0000 53504920 		.ascii	"SPI thread 1\000"
 824      74687265 
 824      61642031 
 824      00
 825 000d 000000   		.space	3
 826              	.LC1:
 827 0010 53504920 		.ascii	"SPI thread 0\000"
 827      74687265 
 827      61642030 
 827      00
 828 001d 000000   		.text
 829              	.Letext0:
 830              		.file 2 "c:\\develop\\genist\\chibistudio\\tools\\yagarto-tools\\yagarto-20121222\\bin\\../lib/gcc
 831              		.file 3 "c:/develop/genist/chibistudio/tools/yagarto-tools/yagarto-20121222/lib/gcc/../../arm-none
 832              		.file 4 "../../../os/ports/GCC/ARMCMx/chtypes.h"
 833              		.file 5 "../../../os/kernel/include/chlists.h"
 834              		.file 6 "../../../os/kernel/include/chthreads.h"
 835              		.file 7 "../../../os/ports/GCC/ARMCMx/chcore_v7m.h"
 836              		.file 8 "../../../os/kernel/include/chschd.h"
 837              		.file 9 "../../../os/kernel/include/chmtx.h"
 838              		.file 10 "../../../os/hal/platforms/STM32F30x/stm32f30x.h"
 839              		.file 11 "../../../os/hal/platforms/STM32F30x/stm32_dma.h"
 840              		.file 12 "../../../os/hal/platforms/STM32/GPIOv2/pal_lld.h"
 841              		.file 13 "../../../os/hal/include/spi.h"
 842              		.file 14 "../../../os/hal/platforms/STM32/SPIv2/spi_lld.h"
 843              		.file 15 "../../../os/ports/common/ARMCMx/CMSIS/include/core_cm4.h"
 844              		.file 16 "../gyro/stm32f3_discovery_l3gd20.h"
 845              		.file 17 "../../../os/hal/include/hal.h"
 846              		.file 18 "../../../os/kernel/include/chsys.h"
 847              		.section	.debug_info,"",%progbits
 848              	.Ldebug_info0:
 849 0000 C6100000 		.4byte	0x10c6
 850 0004 0200     		.2byte	0x2
 851 0006 00000000 		.4byte	.Ldebug_abbrev0
 852 000a 04       		.byte	0x4
 853 000b 01       		.uleb128 0x1
 854 000c 8C030000 		.4byte	.LASF167
 855 0010 01       		.byte	0x1
 856 0011 C9020000 		.4byte	.LASF168
 857 0015 16020000 		.4byte	.LASF169
 858 0019 00000000 		.4byte	.Ldebug_ranges0+0
 859 001d 00000000 		.4byte	0
 860 0021 00000000 		.4byte	0
 861 0025 00000000 		.4byte	.Ldebug_line0
 862 0029 02       		.uleb128 0x2
 863 002a 04       		.byte	0x4
 864 002b 05       		.byte	0x5
 865 002c 696E7400 		.ascii	"int\000"
 866 0030 03       		.uleb128 0x3
 867 0031 0E000000 		.4byte	.LASF2
 868 0035 02       		.byte	0x2
 869 0036 D5       		.byte	0xd5
 870 0037 3B000000 		.4byte	0x3b
 871 003b 04       		.uleb128 0x4
 872 003c 04       		.byte	0x4
ARM GAS  C:\Users\TaisikHam\AppData\Local\Temp\cc7fj03B.s 			page 17


 873 003d 07       		.byte	0x7
 874 003e 09020000 		.4byte	.LASF0
 875 0042 04       		.uleb128 0x4
 876 0043 01       		.byte	0x1
 877 0044 06       		.byte	0x6
 878 0045 CD000000 		.4byte	.LASF1
 879 0049 03       		.uleb128 0x3
 880 004a 14060000 		.4byte	.LASF3
 881 004e 03       		.byte	0x3
 882 004f 2A       		.byte	0x2a
 883 0050 54000000 		.4byte	0x54
 884 0054 04       		.uleb128 0x4
 885 0055 01       		.byte	0x1
 886 0056 08       		.byte	0x8
 887 0057 4B040000 		.4byte	.LASF4
 888 005b 04       		.uleb128 0x4
 889 005c 02       		.byte	0x2
 890 005d 05       		.byte	0x5
 891 005e 7C040000 		.4byte	.LASF5
 892 0062 03       		.uleb128 0x3
 893 0063 5E030000 		.4byte	.LASF6
 894 0067 03       		.byte	0x3
 895 0068 36       		.byte	0x36
 896 0069 6D000000 		.4byte	0x6d
 897 006d 04       		.uleb128 0x4
 898 006e 02       		.byte	0x2
 899 006f 07       		.byte	0x7
 900 0070 A4020000 		.4byte	.LASF7
 901 0074 03       		.uleb128 0x3
 902 0075 43040000 		.4byte	.LASF8
 903 0079 03       		.byte	0x3
 904 007a 4F       		.byte	0x4f
 905 007b 7F000000 		.4byte	0x7f
 906 007f 04       		.uleb128 0x4
 907 0080 04       		.byte	0x4
 908 0081 05       		.byte	0x5
 909 0082 36010000 		.4byte	.LASF9
 910 0086 03       		.uleb128 0x3
 911 0087 E3040000 		.4byte	.LASF10
 912 008b 03       		.byte	0x3
 913 008c 50       		.byte	0x50
 914 008d 91000000 		.4byte	0x91
 915 0091 04       		.uleb128 0x4
 916 0092 04       		.byte	0x4
 917 0093 07       		.byte	0x7
 918 0094 FC040000 		.4byte	.LASF11
 919 0098 04       		.uleb128 0x4
 920 0099 08       		.byte	0x8
 921 009a 05       		.byte	0x5
 922 009b BF000000 		.4byte	.LASF12
 923 009f 03       		.uleb128 0x3
 924 00a0 1C000000 		.4byte	.LASF13
 925 00a4 03       		.byte	0x3
 926 00a5 78       		.byte	0x78
 927 00a6 AA000000 		.4byte	0xaa
 928 00aa 04       		.uleb128 0x4
 929 00ab 08       		.byte	0x8
ARM GAS  C:\Users\TaisikHam\AppData\Local\Temp\cc7fj03B.s 			page 18


 930 00ac 07       		.byte	0x7
 931 00ad 50000000 		.4byte	.LASF14
 932 00b1 04       		.uleb128 0x4
 933 00b2 01       		.byte	0x1
 934 00b3 02       		.byte	0x2
 935 00b4 3D040000 		.4byte	.LASF15
 936 00b8 03       		.uleb128 0x3
 937 00b9 D0020000 		.4byte	.LASF16
 938 00bd 04       		.byte	0x4
 939 00be 25       		.byte	0x25
 940 00bf 49000000 		.4byte	0x49
 941 00c3 03       		.uleb128 0x3
 942 00c4 3F010000 		.4byte	.LASF17
 943 00c8 04       		.byte	0x4
 944 00c9 26       		.byte	0x26
 945 00ca 49000000 		.4byte	0x49
 946 00ce 03       		.uleb128 0x3
 947 00cf F4040000 		.4byte	.LASF18
 948 00d3 04       		.byte	0x4
 949 00d4 27       		.byte	0x27
 950 00d5 49000000 		.4byte	0x49
 951 00d9 03       		.uleb128 0x3
 952 00da 18010000 		.4byte	.LASF19
 953 00de 04       		.byte	0x4
 954 00df 28       		.byte	0x28
 955 00e0 49000000 		.4byte	0x49
 956 00e4 03       		.uleb128 0x3
 957 00e5 2F040000 		.4byte	.LASF20
 958 00e9 04       		.byte	0x4
 959 00ea 29       		.byte	0x29
 960 00eb 86000000 		.4byte	0x86
 961 00ef 03       		.uleb128 0x3
 962 00f0 B7020000 		.4byte	.LASF21
 963 00f4 04       		.byte	0x4
 964 00f5 2A       		.byte	0x2a
 965 00f6 74000000 		.4byte	0x74
 966 00fa 03       		.uleb128 0x3
 967 00fb E4020000 		.4byte	.LASF22
 968 00ff 04       		.byte	0x4
 969 0100 2C       		.byte	0x2c
 970 0101 86000000 		.4byte	0x86
 971 0105 03       		.uleb128 0x3
 972 0106 61050000 		.4byte	.LASF23
 973 010a 04       		.byte	0x4
 974 010b 2E       		.byte	0x2e
 975 010c 86000000 		.4byte	0x86
 976 0110 03       		.uleb128 0x3
 977 0111 1E030000 		.4byte	.LASF24
 978 0115 05       		.byte	0x5
 979 0116 23       		.byte	0x23
 980 0117 1B010000 		.4byte	0x11b
 981 011b 05       		.uleb128 0x5
 982 011c 1E030000 		.4byte	.LASF24
 983 0120 4C       		.byte	0x4c
 984 0121 06       		.byte	0x6
 985 0122 57       		.byte	0x57
 986 0123 4E020000 		.4byte	0x24e
ARM GAS  C:\Users\TaisikHam\AppData\Local\Temp\cc7fj03B.s 			page 19


 987 0127 06       		.uleb128 0x6
 988 0128 AF040000 		.4byte	.LASF25
 989 012c 06       		.byte	0x6
 990 012d 58       		.byte	0x58
 991 012e 73020000 		.4byte	0x273
 992 0132 02       		.byte	0x2
 993 0133 23       		.byte	0x23
 994 0134 00       		.uleb128 0
 995 0135 06       		.uleb128 0x6
 996 0136 0A040000 		.4byte	.LASF26
 997 013a 06       		.byte	0x6
 998 013b 5A       		.byte	0x5a
 999 013c 73020000 		.4byte	0x273
 1000 0140 02       		.byte	0x2
 1001 0141 23       		.byte	0x23
 1002 0142 04       		.uleb128 0x4
 1003 0143 06       		.uleb128 0x6
 1004 0144 B2000000 		.4byte	.LASF27
 1005 0148 06       		.byte	0x6
 1006 0149 5C       		.byte	0x5c
 1007 014a E4000000 		.4byte	0xe4
 1008 014e 02       		.byte	0x2
 1009 014f 23       		.byte	0x23
 1010 0150 08       		.uleb128 0x8
 1011 0151 06       		.uleb128 0x6
 1012 0152 87060000 		.4byte	.LASF28
 1013 0156 06       		.byte	0x6
 1014 0157 5D       		.byte	0x5d
 1015 0158 4C030000 		.4byte	0x34c
 1016 015c 02       		.byte	0x2
 1017 015d 23       		.byte	0x23
 1018 015e 0C       		.uleb128 0xc
 1019 015f 06       		.uleb128 0x6
 1020 0160 74010000 		.4byte	.LASF29
 1021 0164 06       		.byte	0x6
 1022 0165 5F       		.byte	0x5f
 1023 0166 73020000 		.4byte	0x273
 1024 016a 02       		.byte	0x2
 1025 016b 23       		.byte	0x23
 1026 016c 10       		.uleb128 0x10
 1027 016d 06       		.uleb128 0x6
 1028 016e 67030000 		.4byte	.LASF30
 1029 0172 06       		.byte	0x6
 1030 0173 60       		.byte	0x60
 1031 0174 73020000 		.4byte	0x273
 1032 0178 02       		.byte	0x2
 1033 0179 23       		.byte	0x23
 1034 017a 14       		.uleb128 0x14
 1035 017b 06       		.uleb128 0x6
 1036 017c 3B060000 		.4byte	.LASF31
 1037 0180 06       		.byte	0x6
 1038 0181 67       		.byte	0x67
 1039 0182 65040000 		.4byte	0x465
 1040 0186 02       		.byte	0x2
 1041 0187 23       		.byte	0x23
 1042 0188 18       		.uleb128 0x18
 1043 0189 06       		.uleb128 0x6
ARM GAS  C:\Users\TaisikHam\AppData\Local\Temp\cc7fj03B.s 			page 20


 1044 018a FE010000 		.4byte	.LASF32
 1045 018e 06       		.byte	0x6
 1046 018f 6D       		.byte	0x6d
 1047 0190 77040000 		.4byte	0x477
 1048 0194 02       		.byte	0x2
 1049 0195 23       		.byte	0x23
 1050 0196 1C       		.uleb128 0x1c
 1051 0197 06       		.uleb128 0x6
 1052 0198 86040000 		.4byte	.LASF33
 1053 019c 06       		.byte	0x6
 1054 019d 72       		.byte	0x72
 1055 019e C3000000 		.4byte	0xc3
 1056 01a2 02       		.byte	0x2
 1057 01a3 23       		.byte	0x23
 1058 01a4 20       		.uleb128 0x20
 1059 01a5 06       		.uleb128 0x6
 1060 01a6 B6040000 		.4byte	.LASF34
 1061 01aa 06       		.byte	0x6
 1062 01ab 76       		.byte	0x76
 1063 01ac B8000000 		.4byte	0xb8
 1064 01b0 02       		.byte	0x2
 1065 01b1 23       		.byte	0x23
 1066 01b2 21       		.uleb128 0x21
 1067 01b3 06       		.uleb128 0x6
 1068 01b4 EB050000 		.4byte	.LASF35
 1069 01b8 06       		.byte	0x6
 1070 01b9 7B       		.byte	0x7b
 1071 01ba CE000000 		.4byte	0xce
 1072 01be 02       		.byte	0x2
 1073 01bf 23       		.byte	0x23
 1074 01c0 22       		.uleb128 0x22
 1075 01c1 06       		.uleb128 0x6
 1076 01c2 8E040000 		.4byte	.LASF36
 1077 01c6 06       		.byte	0x6
 1078 01c7 81       		.byte	0x81
 1079 01c8 D9000000 		.4byte	0xd9
 1080 01cc 02       		.byte	0x2
 1081 01cd 23       		.byte	0x23
 1082 01ce 23       		.uleb128 0x23
 1083 01cf 06       		.uleb128 0x6
 1084 01d0 6D010000 		.4byte	.LASF37
 1085 01d4 06       		.byte	0x6
 1086 01d5 88       		.byte	0x88
 1087 01d6 7B030000 		.4byte	0x37b
 1088 01da 02       		.byte	0x2
 1089 01db 23       		.byte	0x23
 1090 01dc 24       		.uleb128 0x24
 1091 01dd 07       		.uleb128 0x7
 1092 01de 705F7500 		.ascii	"p_u\000"
 1093 01e2 06       		.byte	0x6
 1094 01e3 AD       		.byte	0xad
 1095 01e4 30040000 		.4byte	0x430
 1096 01e8 02       		.byte	0x2
 1097 01e9 23       		.byte	0x23
 1098 01ea 28       		.uleb128 0x28
 1099 01eb 06       		.uleb128 0x6
 1100 01ec 8D060000 		.4byte	.LASF38
ARM GAS  C:\Users\TaisikHam\AppData\Local\Temp\cc7fj03B.s 			page 21


 1101 01f0 06       		.byte	0x6
 1102 01f1 B2       		.byte	0xb2
 1103 01f2 9B020000 		.4byte	0x29b
 1104 01f6 02       		.byte	0x2
 1105 01f7 23       		.byte	0x23
 1106 01f8 2C       		.uleb128 0x2c
 1107 01f9 06       		.uleb128 0x6
 1108 01fa 64020000 		.4byte	.LASF39
 1109 01fe 06       		.byte	0x6
 1110 01ff B8       		.byte	0xb8
 1111 0200 79020000 		.4byte	0x279
 1112 0204 02       		.byte	0x2
 1113 0205 23       		.byte	0x23
 1114 0206 30       		.uleb128 0x30
 1115 0207 06       		.uleb128 0x6
 1116 0208 64060000 		.4byte	.LASF40
 1117 020c 06       		.byte	0x6
 1118 020d BC       		.byte	0xbc
 1119 020e EF000000 		.4byte	0xef
 1120 0212 02       		.byte	0x2
 1121 0213 23       		.byte	0x23
 1122 0214 38       		.uleb128 0x38
 1123 0215 06       		.uleb128 0x6
 1124 0216 C6040000 		.4byte	.LASF41
 1125 021a 06       		.byte	0x6
 1126 021b C2       		.byte	0xc2
 1127 021c FA000000 		.4byte	0xfa
 1128 0220 02       		.byte	0x2
 1129 0221 23       		.byte	0x23
 1130 0222 3C       		.uleb128 0x3c
 1131 0223 06       		.uleb128 0x6
 1132 0224 72040000 		.4byte	.LASF42
 1133 0228 06       		.byte	0x6
 1134 0229 C9       		.byte	0xc9
 1135 022a 7D040000 		.4byte	0x47d
 1136 022e 02       		.byte	0x2
 1137 022f 23       		.byte	0x23
 1138 0230 40       		.uleb128 0x40
 1139 0231 06       		.uleb128 0x6
 1140 0232 6B050000 		.4byte	.LASF43
 1141 0236 06       		.byte	0x6
 1142 0237 CD       		.byte	0xcd
 1143 0238 E4000000 		.4byte	0xe4
 1144 023c 02       		.byte	0x2
 1145 023d 23       		.byte	0x23
 1146 023e 44       		.uleb128 0x44
 1147 023f 06       		.uleb128 0x6
 1148 0240 F1000000 		.4byte	.LASF44
 1149 0244 06       		.byte	0x6
 1150 0245 D3       		.byte	0xd3
 1151 0246 B1020000 		.4byte	0x2b1
 1152 024a 02       		.byte	0x2
 1153 024b 23       		.byte	0x23
 1154 024c 48       		.uleb128 0x48
 1155 024d 00       		.byte	0
 1156 024e 08       		.uleb128 0x8
 1157 024f 08       		.byte	0x8
ARM GAS  C:\Users\TaisikHam\AppData\Local\Temp\cc7fj03B.s 			page 22


 1158 0250 05       		.byte	0x5
 1159 0251 5A       		.byte	0x5a
 1160 0252 73020000 		.4byte	0x273
 1161 0256 06       		.uleb128 0x6
 1162 0257 AF040000 		.4byte	.LASF25
 1163 025b 05       		.byte	0x5
 1164 025c 5B       		.byte	0x5b
 1165 025d 73020000 		.4byte	0x273
 1166 0261 02       		.byte	0x2
 1167 0262 23       		.byte	0x23
 1168 0263 00       		.uleb128 0
 1169 0264 06       		.uleb128 0x6
 1170 0265 0A040000 		.4byte	.LASF26
 1171 0269 05       		.byte	0x5
 1172 026a 5D       		.byte	0x5d
 1173 026b 73020000 		.4byte	0x273
 1174 026f 02       		.byte	0x2
 1175 0270 23       		.byte	0x23
 1176 0271 04       		.uleb128 0x4
 1177 0272 00       		.byte	0
 1178 0273 09       		.uleb128 0x9
 1179 0274 04       		.byte	0x4
 1180 0275 10010000 		.4byte	0x110
 1181 0279 03       		.uleb128 0x3
 1182 027a 75030000 		.4byte	.LASF45
 1183 027e 05       		.byte	0x5
 1184 027f 5F       		.byte	0x5f
 1185 0280 4E020000 		.4byte	0x24e
 1186 0284 08       		.uleb128 0x8
 1187 0285 04       		.byte	0x4
 1188 0286 05       		.byte	0x5
 1189 0287 64       		.byte	0x64
 1190 0288 9B020000 		.4byte	0x29b
 1191 028c 06       		.uleb128 0x6
 1192 028d AF040000 		.4byte	.LASF25
 1193 0291 05       		.byte	0x5
 1194 0292 66       		.byte	0x66
 1195 0293 73020000 		.4byte	0x273
 1196 0297 02       		.byte	0x2
 1197 0298 23       		.byte	0x23
 1198 0299 00       		.uleb128 0
 1199 029a 00       		.byte	0
 1200 029b 03       		.uleb128 0x3
 1201 029c D8020000 		.4byte	.LASF46
 1202 02a0 05       		.byte	0x5
 1203 02a1 69       		.byte	0x69
 1204 02a2 84020000 		.4byte	0x284
 1205 02a6 03       		.uleb128 0x3
 1206 02a7 DF010000 		.4byte	.LASF47
 1207 02ab 07       		.byte	0x7
 1208 02ac DE       		.byte	0xde
 1209 02ad B1020000 		.4byte	0x2b1
 1210 02b1 0A       		.uleb128 0xa
 1211 02b2 04       		.byte	0x4
 1212 02b3 03       		.uleb128 0x3
 1213 02b4 F6020000 		.4byte	.LASF48
 1214 02b8 07       		.byte	0x7
ARM GAS  C:\Users\TaisikHam\AppData\Local\Temp\cc7fj03B.s 			page 23


 1215 02b9 E4       		.byte	0xe4
 1216 02ba 9F000000 		.4byte	0x9f
 1217 02be 0B       		.uleb128 0xb
 1218 02bf B2050000 		.4byte	.LASF49
 1219 02c3 24       		.byte	0x24
 1220 02c4 07       		.byte	0x7
 1221 02c5 0501     		.2byte	0x105
 1222 02c7 4C030000 		.4byte	0x34c
 1223 02cb 0C       		.uleb128 0xc
 1224 02cc 723400   		.ascii	"r4\000"
 1225 02cf 07       		.byte	0x7
 1226 02d0 1801     		.2byte	0x118
 1227 02d2 A6020000 		.4byte	0x2a6
 1228 02d6 02       		.byte	0x2
 1229 02d7 23       		.byte	0x23
 1230 02d8 00       		.uleb128 0
 1231 02d9 0C       		.uleb128 0xc
 1232 02da 723500   		.ascii	"r5\000"
 1233 02dd 07       		.byte	0x7
 1234 02de 1901     		.2byte	0x119
 1235 02e0 A6020000 		.4byte	0x2a6
 1236 02e4 02       		.byte	0x2
 1237 02e5 23       		.byte	0x23
 1238 02e6 04       		.uleb128 0x4
 1239 02e7 0C       		.uleb128 0xc
 1240 02e8 723600   		.ascii	"r6\000"
 1241 02eb 07       		.byte	0x7
 1242 02ec 1A01     		.2byte	0x11a
 1243 02ee A6020000 		.4byte	0x2a6
 1244 02f2 02       		.byte	0x2
 1245 02f3 23       		.byte	0x23
 1246 02f4 08       		.uleb128 0x8
 1247 02f5 0C       		.uleb128 0xc
 1248 02f6 723700   		.ascii	"r7\000"
 1249 02f9 07       		.byte	0x7
 1250 02fa 1B01     		.2byte	0x11b
 1251 02fc A6020000 		.4byte	0x2a6
 1252 0300 02       		.byte	0x2
 1253 0301 23       		.byte	0x23
 1254 0302 0C       		.uleb128 0xc
 1255 0303 0C       		.uleb128 0xc
 1256 0304 723800   		.ascii	"r8\000"
 1257 0307 07       		.byte	0x7
 1258 0308 1C01     		.2byte	0x11c
 1259 030a A6020000 		.4byte	0x2a6
 1260 030e 02       		.byte	0x2
 1261 030f 23       		.byte	0x23
 1262 0310 10       		.uleb128 0x10
 1263 0311 0C       		.uleb128 0xc
 1264 0312 723900   		.ascii	"r9\000"
 1265 0315 07       		.byte	0x7
 1266 0316 1D01     		.2byte	0x11d
 1267 0318 A6020000 		.4byte	0x2a6
 1268 031c 02       		.byte	0x2
 1269 031d 23       		.byte	0x23
 1270 031e 14       		.uleb128 0x14
 1271 031f 0C       		.uleb128 0xc
ARM GAS  C:\Users\TaisikHam\AppData\Local\Temp\cc7fj03B.s 			page 24


 1272 0320 72313000 		.ascii	"r10\000"
 1273 0324 07       		.byte	0x7
 1274 0325 1E01     		.2byte	0x11e
 1275 0327 A6020000 		.4byte	0x2a6
 1276 032b 02       		.byte	0x2
 1277 032c 23       		.byte	0x23
 1278 032d 18       		.uleb128 0x18
 1279 032e 0C       		.uleb128 0xc
 1280 032f 72313100 		.ascii	"r11\000"
 1281 0333 07       		.byte	0x7
 1282 0334 1F01     		.2byte	0x11f
 1283 0336 A6020000 		.4byte	0x2a6
 1284 033a 02       		.byte	0x2
 1285 033b 23       		.byte	0x23
 1286 033c 1C       		.uleb128 0x1c
 1287 033d 0C       		.uleb128 0xc
 1288 033e 6C7200   		.ascii	"lr\000"
 1289 0341 07       		.byte	0x7
 1290 0342 2001     		.2byte	0x120
 1291 0344 A6020000 		.4byte	0x2a6
 1292 0348 02       		.byte	0x2
 1293 0349 23       		.byte	0x23
 1294 034a 20       		.uleb128 0x20
 1295 034b 00       		.byte	0
 1296 034c 0B       		.uleb128 0xb
 1297 034d 97050000 		.4byte	.LASF50
 1298 0351 04       		.byte	0x4
 1299 0352 07       		.byte	0x7
 1300 0353 2A01     		.2byte	0x12a
 1301 0355 69030000 		.4byte	0x369
 1302 0359 0C       		.uleb128 0xc
 1303 035a 72313300 		.ascii	"r13\000"
 1304 035e 07       		.byte	0x7
 1305 035f 2B01     		.2byte	0x12b
 1306 0361 69030000 		.4byte	0x369
 1307 0365 02       		.byte	0x2
 1308 0366 23       		.byte	0x23
 1309 0367 00       		.uleb128 0
 1310 0368 00       		.byte	0
 1311 0369 09       		.uleb128 0x9
 1312 036a 04       		.byte	0x4
 1313 036b BE020000 		.4byte	0x2be
 1314 036f 0D       		.uleb128 0xd
 1315 0370 86000000 		.4byte	0x86
 1316 0374 04       		.uleb128 0x4
 1317 0375 04       		.byte	0x4
 1318 0376 07       		.byte	0x7
 1319 0377 34030000 		.4byte	.LASF51
 1320 037b 0D       		.uleb128 0xd
 1321 037c 05010000 		.4byte	0x105
 1322 0380 08       		.uleb128 0x8
 1323 0381 1C       		.byte	0x1c
 1324 0382 08       		.byte	0x8
 1325 0383 57       		.byte	0x57
 1326 0384 DD030000 		.4byte	0x3dd
 1327 0388 06       		.uleb128 0x6
 1328 0389 EC040000 		.4byte	.LASF52
ARM GAS  C:\Users\TaisikHam\AppData\Local\Temp\cc7fj03B.s 			page 25


 1329 038d 08       		.byte	0x8
 1330 038e 58       		.byte	0x58
 1331 038f 79020000 		.4byte	0x279
 1332 0393 02       		.byte	0x2
 1333 0394 23       		.byte	0x23
 1334 0395 00       		.uleb128 0
 1335 0396 06       		.uleb128 0x6
 1336 0397 A1040000 		.4byte	.LASF53
 1337 039b 08       		.byte	0x8
 1338 039c 59       		.byte	0x59
 1339 039d E4000000 		.4byte	0xe4
 1340 03a1 02       		.byte	0x2
 1341 03a2 23       		.byte	0x23
 1342 03a3 08       		.uleb128 0x8
 1343 03a4 06       		.uleb128 0x6
 1344 03a5 6F030000 		.4byte	.LASF54
 1345 03a9 08       		.byte	0x8
 1346 03aa 5B       		.byte	0x5b
 1347 03ab 4C030000 		.4byte	0x34c
 1348 03af 02       		.byte	0x2
 1349 03b0 23       		.byte	0x23
 1350 03b1 0C       		.uleb128 0xc
 1351 03b2 06       		.uleb128 0x6
 1352 03b3 D7010000 		.4byte	.LASF55
 1353 03b7 08       		.byte	0x8
 1354 03b8 5E       		.byte	0x5e
 1355 03b9 73020000 		.4byte	0x273
 1356 03bd 02       		.byte	0x2
 1357 03be 23       		.byte	0x23
 1358 03bf 10       		.uleb128 0x10
 1359 03c0 06       		.uleb128 0x6
 1360 03c1 A2030000 		.4byte	.LASF56
 1361 03c5 08       		.byte	0x8
 1362 03c6 5F       		.byte	0x5f
 1363 03c7 73020000 		.4byte	0x273
 1364 03cb 02       		.byte	0x2
 1365 03cc 23       		.byte	0x23
 1366 03cd 14       		.uleb128 0x14
 1367 03ce 06       		.uleb128 0x6
 1368 03cf 98030000 		.4byte	.LASF57
 1369 03d3 08       		.byte	0x8
 1370 03d4 62       		.byte	0x62
 1371 03d5 73020000 		.4byte	0x273
 1372 03d9 02       		.byte	0x2
 1373 03da 23       		.byte	0x23
 1374 03db 18       		.uleb128 0x18
 1375 03dc 00       		.byte	0
 1376 03dd 03       		.uleb128 0x3
 1377 03de F2050000 		.4byte	.LASF58
 1378 03e2 08       		.byte	0x8
 1379 03e3 64       		.byte	0x64
 1380 03e4 80030000 		.4byte	0x380
 1381 03e8 05       		.uleb128 0x5
 1382 03e9 F0020000 		.4byte	.LASF59
 1383 03ed 10       		.byte	0x10
 1384 03ee 09       		.byte	0x9
 1385 03ef 25       		.byte	0x25
ARM GAS  C:\Users\TaisikHam\AppData\Local\Temp\cc7fj03B.s 			page 26


 1386 03f0 1F040000 		.4byte	0x41f
 1387 03f4 06       		.uleb128 0x6
 1388 03f5 10010000 		.4byte	.LASF60
 1389 03f9 09       		.byte	0x9
 1390 03fa 26       		.byte	0x26
 1391 03fb 79020000 		.4byte	0x279
 1392 03ff 02       		.byte	0x2
 1393 0400 23       		.byte	0x23
 1394 0401 00       		.uleb128 0
 1395 0402 06       		.uleb128 0x6
 1396 0403 7F060000 		.4byte	.LASF61
 1397 0407 09       		.byte	0x9
 1398 0408 28       		.byte	0x28
 1399 0409 73020000 		.4byte	0x273
 1400 040d 02       		.byte	0x2
 1401 040e 23       		.byte	0x23
 1402 040f 08       		.uleb128 0x8
 1403 0410 06       		.uleb128 0x6
 1404 0411 5A050000 		.4byte	.LASF62
 1405 0415 09       		.byte	0x9
 1406 0416 2A       		.byte	0x2a
 1407 0417 1F040000 		.4byte	0x41f
 1408 041b 02       		.byte	0x2
 1409 041c 23       		.byte	0x23
 1410 041d 0C       		.uleb128 0xc
 1411 041e 00       		.byte	0
 1412 041f 09       		.uleb128 0x9
 1413 0420 04       		.byte	0x4
 1414 0421 E8030000 		.4byte	0x3e8
 1415 0425 03       		.uleb128 0x3
 1416 0426 F0020000 		.4byte	.LASF59
 1417 042a 09       		.byte	0x9
 1418 042b 2C       		.byte	0x2c
 1419 042c E8030000 		.4byte	0x3e8
 1420 0430 0E       		.uleb128 0xe
 1421 0431 04       		.byte	0x4
 1422 0432 06       		.byte	0x6
 1423 0433 8F       		.byte	0x8f
 1424 0434 65040000 		.4byte	0x465
 1425 0438 0F       		.uleb128 0xf
 1426 0439 15000000 		.4byte	.LASF63
 1427 043d 06       		.byte	0x6
 1428 043e 96       		.byte	0x96
 1429 043f EF000000 		.4byte	0xef
 1430 0443 0F       		.uleb128 0xf
 1431 0444 7A000000 		.4byte	.LASF64
 1432 0448 06       		.byte	0x6
 1433 0449 9D       		.byte	0x9d
 1434 044a EF000000 		.4byte	0xef
 1435 044e 0F       		.uleb128 0xf
 1436 044f 34060000 		.4byte	.LASF65
 1437 0453 06       		.byte	0x6
 1438 0454 A4       		.byte	0xa4
 1439 0455 B1020000 		.4byte	0x2b1
 1440 0459 0F       		.uleb128 0xf
 1441 045a A8040000 		.4byte	.LASF66
 1442 045e 06       		.byte	0x6
ARM GAS  C:\Users\TaisikHam\AppData\Local\Temp\cc7fj03B.s 			page 27


 1443 045f AB       		.byte	0xab
 1444 0460 FA000000 		.4byte	0xfa
 1445 0464 00       		.byte	0
 1446 0465 09       		.uleb128 0x9
 1447 0466 04       		.byte	0x4
 1448 0467 6B040000 		.4byte	0x46b
 1449 046b 10       		.uleb128 0x10
 1450 046c 70040000 		.4byte	0x470
 1451 0470 04       		.uleb128 0x4
 1452 0471 01       		.byte	0x1
 1453 0472 08       		.byte	0x8
 1454 0473 1A050000 		.4byte	.LASF67
 1455 0477 09       		.uleb128 0x9
 1456 0478 04       		.byte	0x4
 1457 0479 B3020000 		.4byte	0x2b3
 1458 047d 09       		.uleb128 0x9
 1459 047e 04       		.byte	0x4
 1460 047f 25040000 		.4byte	0x425
 1461 0483 03       		.uleb128 0x3
 1462 0484 06000000 		.4byte	.LASF68
 1463 0488 06       		.byte	0x6
 1464 0489 DE       		.byte	0xde
 1465 048a 8E040000 		.4byte	0x48e
 1466 048e 09       		.uleb128 0x9
 1467 048f 04       		.byte	0x4
 1468 0490 94040000 		.4byte	0x494
 1469 0494 11       		.uleb128 0x11
 1470 0495 01       		.byte	0x1
 1471 0496 EF000000 		.4byte	0xef
 1472 049a A4040000 		.4byte	0x4a4
 1473 049e 12       		.uleb128 0x12
 1474 049f B1020000 		.4byte	0x2b1
 1475 04a3 00       		.byte	0
 1476 04a4 09       		.uleb128 0x9
 1477 04a5 04       		.byte	0x4
 1478 04a6 49000000 		.4byte	0x49
 1479 04aa 0D       		.uleb128 0xd
 1480 04ab 62000000 		.4byte	0x62
 1481 04af 0D       		.uleb128 0xd
 1482 04b0 74000000 		.4byte	0x74
 1483 04b4 10       		.uleb128 0x10
 1484 04b5 86000000 		.4byte	0x86
 1485 04b9 13       		.uleb128 0x13
 1486 04ba 10       		.byte	0x10
 1487 04bb 0A       		.byte	0xa
 1488 04bc E501     		.2byte	0x1e5
 1489 04be FF040000 		.4byte	0x4ff
 1490 04c2 0C       		.uleb128 0xc
 1491 04c3 43435200 		.ascii	"CCR\000"
 1492 04c7 0A       		.byte	0xa
 1493 04c8 E701     		.2byte	0x1e7
 1494 04ca 6F030000 		.4byte	0x36f
 1495 04ce 02       		.byte	0x2
 1496 04cf 23       		.byte	0x23
 1497 04d0 00       		.uleb128 0
 1498 04d1 14       		.uleb128 0x14
 1499 04d2 FC050000 		.4byte	.LASF69
ARM GAS  C:\Users\TaisikHam\AppData\Local\Temp\cc7fj03B.s 			page 28


 1500 04d6 0A       		.byte	0xa
 1501 04d7 E801     		.2byte	0x1e8
 1502 04d9 6F030000 		.4byte	0x36f
 1503 04dd 02       		.byte	0x2
 1504 04de 23       		.byte	0x23
 1505 04df 04       		.uleb128 0x4
 1506 04e0 14       		.uleb128 0x14
 1507 04e1 5F020000 		.4byte	.LASF70
 1508 04e5 0A       		.byte	0xa
 1509 04e6 E901     		.2byte	0x1e9
 1510 04e8 6F030000 		.4byte	0x36f
 1511 04ec 02       		.byte	0x2
 1512 04ed 23       		.byte	0x23
 1513 04ee 08       		.uleb128 0x8
 1514 04ef 14       		.uleb128 0x14
 1515 04f0 02060000 		.4byte	.LASF71
 1516 04f4 0A       		.byte	0xa
 1517 04f5 EA01     		.2byte	0x1ea
 1518 04f7 6F030000 		.4byte	0x36f
 1519 04fb 02       		.byte	0x2
 1520 04fc 23       		.byte	0x23
 1521 04fd 0C       		.uleb128 0xc
 1522 04fe 00       		.byte	0
 1523 04ff 15       		.uleb128 0x15
 1524 0500 B2030000 		.4byte	.LASF72
 1525 0504 0A       		.byte	0xa
 1526 0505 EB01     		.2byte	0x1eb
 1527 0507 B9040000 		.4byte	0x4b9
 1528 050b 13       		.uleb128 0x13
 1529 050c 04       		.byte	0x4
 1530 050d 0A       		.byte	0xa
 1531 050e 4D02     		.2byte	0x24d
 1532 0510 33050000 		.4byte	0x533
 1533 0514 0C       		.uleb128 0xc
 1534 0515 73657400 		.ascii	"set\000"
 1535 0519 0A       		.byte	0xa
 1536 051a 4E02     		.2byte	0x24e
 1537 051c 62000000 		.4byte	0x62
 1538 0520 02       		.byte	0x2
 1539 0521 23       		.byte	0x23
 1540 0522 00       		.uleb128 0
 1541 0523 14       		.uleb128 0x14
 1542 0524 3D030000 		.4byte	.LASF73
 1543 0528 0A       		.byte	0xa
 1544 0529 4F02     		.2byte	0x24f
 1545 052b 62000000 		.4byte	0x62
 1546 052f 02       		.byte	0x2
 1547 0530 23       		.byte	0x23
 1548 0531 02       		.uleb128 0x2
 1549 0532 00       		.byte	0
 1550 0533 16       		.uleb128 0x16
 1551 0534 04       		.byte	0x4
 1552 0535 0A       		.byte	0xa
 1553 0536 4B02     		.2byte	0x24b
 1554 0538 51050000 		.4byte	0x551
 1555 053c 17       		.uleb128 0x17
 1556 053d 5700     		.ascii	"W\000"
ARM GAS  C:\Users\TaisikHam\AppData\Local\Temp\cc7fj03B.s 			page 29


 1557 053f 0A       		.byte	0xa
 1558 0540 4C02     		.2byte	0x24c
 1559 0542 86000000 		.4byte	0x86
 1560 0546 17       		.uleb128 0x17
 1561 0547 4800     		.ascii	"H\000"
 1562 0549 0A       		.byte	0xa
 1563 054a 5002     		.2byte	0x250
 1564 054c 0B050000 		.4byte	0x50b
 1565 0550 00       		.byte	0
 1566 0551 13       		.uleb128 0x13
 1567 0552 28       		.byte	0x28
 1568 0553 0A       		.byte	0xa
 1569 0554 4302     		.2byte	0x243
 1570 0556 F1050000 		.4byte	0x5f1
 1571 055a 14       		.uleb128 0x14
 1572 055b 4A000000 		.4byte	.LASF74
 1573 055f 0A       		.byte	0xa
 1574 0560 4502     		.2byte	0x245
 1575 0562 6F030000 		.4byte	0x36f
 1576 0566 02       		.byte	0x2
 1577 0567 23       		.byte	0x23
 1578 0568 00       		.uleb128 0
 1579 0569 14       		.uleb128 0x14
 1580 056a 2B000000 		.4byte	.LASF75
 1581 056e 0A       		.byte	0xa
 1582 056f 4602     		.2byte	0x246
 1583 0571 6F030000 		.4byte	0x36f
 1584 0575 02       		.byte	0x2
 1585 0576 23       		.byte	0x23
 1586 0577 04       		.uleb128 0x4
 1587 0578 14       		.uleb128 0x14
 1588 0579 CF010000 		.4byte	.LASF76
 1589 057d 0A       		.byte	0xa
 1590 057e 4702     		.2byte	0x247
 1591 0580 6F030000 		.4byte	0x36f
 1592 0584 02       		.byte	0x2
 1593 0585 23       		.byte	0x23
 1594 0586 08       		.uleb128 0x8
 1595 0587 14       		.uleb128 0x14
 1596 0588 74000000 		.4byte	.LASF77
 1597 058c 0A       		.byte	0xa
 1598 058d 4802     		.2byte	0x248
 1599 058f 6F030000 		.4byte	0x36f
 1600 0593 02       		.byte	0x2
 1601 0594 23       		.byte	0x23
 1602 0595 0C       		.uleb128 0xc
 1603 0596 0C       		.uleb128 0xc
 1604 0597 49445200 		.ascii	"IDR\000"
 1605 059b 0A       		.byte	0xa
 1606 059c 4902     		.2byte	0x249
 1607 059e 6F030000 		.4byte	0x36f
 1608 05a2 02       		.byte	0x2
 1609 05a3 23       		.byte	0x23
 1610 05a4 10       		.uleb128 0x10
 1611 05a5 0C       		.uleb128 0xc
 1612 05a6 4F445200 		.ascii	"ODR\000"
 1613 05aa 0A       		.byte	0xa
ARM GAS  C:\Users\TaisikHam\AppData\Local\Temp\cc7fj03B.s 			page 30


 1614 05ab 4A02     		.2byte	0x24a
 1615 05ad 6F030000 		.4byte	0x36f
 1616 05b1 02       		.byte	0x2
 1617 05b2 23       		.byte	0x23
 1618 05b3 14       		.uleb128 0x14
 1619 05b4 14       		.uleb128 0x14
 1620 05b5 D9000000 		.4byte	.LASF78
 1621 05b9 0A       		.byte	0xa
 1622 05ba 5102     		.2byte	0x251
 1623 05bc F1050000 		.4byte	0x5f1
 1624 05c0 02       		.byte	0x2
 1625 05c1 23       		.byte	0x23
 1626 05c2 18       		.uleb128 0x18
 1627 05c3 14       		.uleb128 0x14
 1628 05c4 80020000 		.4byte	.LASF79
 1629 05c8 0A       		.byte	0xa
 1630 05c9 5202     		.2byte	0x252
 1631 05cb 6F030000 		.4byte	0x36f
 1632 05cf 02       		.byte	0x2
 1633 05d0 23       		.byte	0x23
 1634 05d1 1C       		.uleb128 0x1c
 1635 05d2 14       		.uleb128 0x14
 1636 05d3 CC030000 		.4byte	.LASF80
 1637 05d7 0A       		.byte	0xa
 1638 05d8 5302     		.2byte	0x253
 1639 05da 6F030000 		.4byte	0x36f
 1640 05de 02       		.byte	0x2
 1641 05df 23       		.byte	0x23
 1642 05e0 20       		.uleb128 0x20
 1643 05e1 14       		.uleb128 0x14
 1644 05e2 6F060000 		.4byte	.LASF81
 1645 05e6 0A       		.byte	0xa
 1646 05e7 5402     		.2byte	0x254
 1647 05e9 6F030000 		.4byte	0x36f
 1648 05ed 02       		.byte	0x2
 1649 05ee 23       		.byte	0x23
 1650 05ef 24       		.uleb128 0x24
 1651 05f0 00       		.byte	0
 1652 05f1 0D       		.uleb128 0xd
 1653 05f2 33050000 		.4byte	0x533
 1654 05f6 15       		.uleb128 0x15
 1655 05f7 A4010000 		.4byte	.LASF82
 1656 05fb 0A       		.byte	0xa
 1657 05fc 5502     		.2byte	0x255
 1658 05fe 51050000 		.4byte	0x551
 1659 0602 13       		.uleb128 0x13
 1660 0603 24       		.byte	0x24
 1661 0604 0A       		.byte	0xa
 1662 0605 DD02     		.2byte	0x2dd
 1663 0607 18070000 		.4byte	0x718
 1664 060b 0C       		.uleb128 0xc
 1665 060c 43523100 		.ascii	"CR1\000"
 1666 0610 0A       		.byte	0xa
 1667 0611 DF02     		.2byte	0x2df
 1668 0613 AA040000 		.4byte	0x4aa
 1669 0617 02       		.byte	0x2
 1670 0618 23       		.byte	0x23
ARM GAS  C:\Users\TaisikHam\AppData\Local\Temp\cc7fj03B.s 			page 31


 1671 0619 00       		.uleb128 0
 1672 061a 14       		.uleb128 0x14
 1673 061b D8030000 		.4byte	.LASF83
 1674 061f 0A       		.byte	0xa
 1675 0620 E002     		.2byte	0x2e0
 1676 0622 62000000 		.4byte	0x62
 1677 0626 02       		.byte	0x2
 1678 0627 23       		.byte	0x23
 1679 0628 02       		.uleb128 0x2
 1680 0629 0C       		.uleb128 0xc
 1681 062a 43523200 		.ascii	"CR2\000"
 1682 062e 0A       		.byte	0xa
 1683 062f E102     		.2byte	0x2e1
 1684 0631 AA040000 		.4byte	0x4aa
 1685 0635 02       		.byte	0x2
 1686 0636 23       		.byte	0x23
 1687 0637 04       		.uleb128 0x4
 1688 0638 14       		.uleb128 0x14
 1689 0639 E2030000 		.4byte	.LASF84
 1690 063d 0A       		.byte	0xa
 1691 063e E202     		.2byte	0x2e2
 1692 0640 62000000 		.4byte	0x62
 1693 0644 02       		.byte	0x2
 1694 0645 23       		.byte	0x23
 1695 0646 06       		.uleb128 0x6
 1696 0647 0C       		.uleb128 0xc
 1697 0648 535200   		.ascii	"SR\000"
 1698 064b 0A       		.byte	0xa
 1699 064c E302     		.2byte	0x2e3
 1700 064e AA040000 		.4byte	0x4aa
 1701 0652 02       		.byte	0x2
 1702 0653 23       		.byte	0x23
 1703 0654 08       		.uleb128 0x8
 1704 0655 14       		.uleb128 0x14
 1705 0656 EC030000 		.4byte	.LASF85
 1706 065a 0A       		.byte	0xa
 1707 065b E402     		.2byte	0x2e4
 1708 065d 62000000 		.4byte	0x62
 1709 0661 02       		.byte	0x2
 1710 0662 23       		.byte	0x23
 1711 0663 0A       		.uleb128 0xa
 1712 0664 0C       		.uleb128 0xc
 1713 0665 445200   		.ascii	"DR\000"
 1714 0668 0A       		.byte	0xa
 1715 0669 E502     		.2byte	0x2e5
 1716 066b AA040000 		.4byte	0x4aa
 1717 066f 02       		.byte	0x2
 1718 0670 23       		.byte	0x23
 1719 0671 0C       		.uleb128 0xc
 1720 0672 14       		.uleb128 0x14
 1721 0673 F6030000 		.4byte	.LASF86
 1722 0677 0A       		.byte	0xa
 1723 0678 E602     		.2byte	0x2e6
 1724 067a 62000000 		.4byte	0x62
 1725 067e 02       		.byte	0x2
 1726 067f 23       		.byte	0x23
 1727 0680 0E       		.uleb128 0xe
ARM GAS  C:\Users\TaisikHam\AppData\Local\Temp\cc7fj03B.s 			page 32


 1728 0681 14       		.uleb128 0x14
 1729 0682 C6030000 		.4byte	.LASF87
 1730 0686 0A       		.byte	0xa
 1731 0687 E702     		.2byte	0x2e7
 1732 0689 AA040000 		.4byte	0x4aa
 1733 068d 02       		.byte	0x2
 1734 068e 23       		.byte	0x23
 1735 068f 10       		.uleb128 0x10
 1736 0690 14       		.uleb128 0x14
 1737 0691 00040000 		.4byte	.LASF88
 1738 0695 0A       		.byte	0xa
 1739 0696 E802     		.2byte	0x2e8
 1740 0698 62000000 		.4byte	0x62
 1741 069c 02       		.byte	0x2
 1742 069d 23       		.byte	0x23
 1743 069e 12       		.uleb128 0x12
 1744 069f 14       		.uleb128 0x14
 1745 06a0 07060000 		.4byte	.LASF89
 1746 06a4 0A       		.byte	0xa
 1747 06a5 E902     		.2byte	0x2e9
 1748 06a7 AA040000 		.4byte	0x4aa
 1749 06ab 02       		.byte	0x2
 1750 06ac 23       		.byte	0x23
 1751 06ad 14       		.uleb128 0x14
 1752 06ae 14       		.uleb128 0x14
 1753 06af A8050000 		.4byte	.LASF90
 1754 06b3 0A       		.byte	0xa
 1755 06b4 EA02     		.2byte	0x2ea
 1756 06b6 62000000 		.4byte	0x62
 1757 06ba 02       		.byte	0x2
 1758 06bb 23       		.byte	0x23
 1759 06bc 16       		.uleb128 0x16
 1760 06bd 14       		.uleb128 0x14
 1761 06be D1030000 		.4byte	.LASF91
 1762 06c2 0A       		.byte	0xa
 1763 06c3 EB02     		.2byte	0x2eb
 1764 06c5 AA040000 		.4byte	0x4aa
 1765 06c9 02       		.byte	0x2
 1766 06ca 23       		.byte	0x23
 1767 06cb 18       		.uleb128 0x18
 1768 06cc 14       		.uleb128 0x14
 1769 06cd 11040000 		.4byte	.LASF92
 1770 06d1 0A       		.byte	0xa
 1771 06d2 EC02     		.2byte	0x2ec
 1772 06d4 62000000 		.4byte	0x62
 1773 06d8 02       		.byte	0x2
 1774 06d9 23       		.byte	0x23
 1775 06da 1A       		.uleb128 0x1a
 1776 06db 14       		.uleb128 0x14
 1777 06dc 56030000 		.4byte	.LASF93
 1778 06e0 0A       		.byte	0xa
 1779 06e1 ED02     		.2byte	0x2ed
 1780 06e3 AA040000 		.4byte	0x4aa
 1781 06e7 02       		.byte	0x2
 1782 06e8 23       		.byte	0x23
 1783 06e9 1C       		.uleb128 0x1c
 1784 06ea 14       		.uleb128 0x14
ARM GAS  C:\Users\TaisikHam\AppData\Local\Temp\cc7fj03B.s 			page 33


 1785 06eb 1B040000 		.4byte	.LASF94
 1786 06ef 0A       		.byte	0xa
 1787 06f0 EE02     		.2byte	0x2ee
 1788 06f2 62000000 		.4byte	0x62
 1789 06f6 02       		.byte	0x2
 1790 06f7 23       		.byte	0x23
 1791 06f8 1E       		.uleb128 0x1e
 1792 06f9 14       		.uleb128 0x14
 1793 06fa 25030000 		.4byte	.LASF95
 1794 06fe 0A       		.byte	0xa
 1795 06ff EF02     		.2byte	0x2ef
 1796 0701 AA040000 		.4byte	0x4aa
 1797 0705 02       		.byte	0x2
 1798 0706 23       		.byte	0x23
 1799 0707 20       		.uleb128 0x20
 1800 0708 14       		.uleb128 0x14
 1801 0709 25040000 		.4byte	.LASF96
 1802 070d 0A       		.byte	0xa
 1803 070e F002     		.2byte	0x2f0
 1804 0710 62000000 		.4byte	0x62
 1805 0714 02       		.byte	0x2
 1806 0715 23       		.byte	0x23
 1807 0716 22       		.uleb128 0x22
 1808 0717 00       		.byte	0
 1809 0718 15       		.uleb128 0x15
 1810 0719 0E050000 		.4byte	.LASF97
 1811 071d 0A       		.byte	0xa
 1812 071e F102     		.2byte	0x2f1
 1813 0720 02060000 		.4byte	0x602
 1814 0724 08       		.uleb128 0x8
 1815 0725 0C       		.byte	0xc
 1816 0726 0B       		.byte	0xb
 1817 0727 C5       		.byte	0xc5
 1818 0728 73070000 		.4byte	0x773
 1819 072c 06       		.uleb128 0x6
 1820 072d BE040000 		.4byte	.LASF98
 1821 0731 0B       		.byte	0xb
 1822 0732 C6       		.byte	0xc6
 1823 0733 73070000 		.4byte	0x773
 1824 0737 02       		.byte	0x2
 1825 0738 23       		.byte	0x23
 1826 0739 00       		.uleb128 0
 1827 073a 06       		.uleb128 0x6
 1828 073b D1040000 		.4byte	.LASF99
 1829 073f 0B       		.byte	0xb
 1830 0740 C7       		.byte	0xc7
 1831 0741 79070000 		.4byte	0x779
 1832 0745 02       		.byte	0x2
 1833 0746 23       		.byte	0x23
 1834 0747 04       		.uleb128 0x4
 1835 0748 06       		.uleb128 0x6
 1836 0749 85020000 		.4byte	.LASF100
 1837 074d 0B       		.byte	0xb
 1838 074e C8       		.byte	0xc8
 1839 074f 49000000 		.4byte	0x49
 1840 0753 02       		.byte	0x2
 1841 0754 23       		.byte	0x23
ARM GAS  C:\Users\TaisikHam\AppData\Local\Temp\cc7fj03B.s 			page 34


 1842 0755 08       		.uleb128 0x8
 1843 0756 06       		.uleb128 0x6
 1844 0757 E8010000 		.4byte	.LASF101
 1845 075b 0B       		.byte	0xb
 1846 075c CA       		.byte	0xca
 1847 075d 49000000 		.4byte	0x49
 1848 0761 02       		.byte	0x2
 1849 0762 23       		.byte	0x23
 1850 0763 09       		.uleb128 0x9
 1851 0764 06       		.uleb128 0x6
 1852 0765 83000000 		.4byte	.LASF102
 1853 0769 0B       		.byte	0xb
 1854 076a CB       		.byte	0xcb
 1855 076b 49000000 		.4byte	0x49
 1856 076f 02       		.byte	0x2
 1857 0770 23       		.byte	0x23
 1858 0771 0A       		.uleb128 0xa
 1859 0772 00       		.byte	0
 1860 0773 09       		.uleb128 0x9
 1861 0774 04       		.byte	0x4
 1862 0775 FF040000 		.4byte	0x4ff
 1863 0779 09       		.uleb128 0x9
 1864 077a 04       		.byte	0x4
 1865 077b 6F030000 		.4byte	0x36f
 1866 077f 03       		.uleb128 0x3
 1867 0780 59040000 		.4byte	.LASF103
 1868 0784 0B       		.byte	0xb
 1869 0785 CC       		.byte	0xcc
 1870 0786 24070000 		.4byte	0x724
 1871 078a 03       		.uleb128 0x3
 1872 078b 3D000000 		.4byte	.LASF104
 1873 078f 0C       		.byte	0xc
 1874 0790 EE       		.byte	0xee
 1875 0791 86000000 		.4byte	0x86
 1876 0795 03       		.uleb128 0x3
 1877 0796 8C050000 		.4byte	.LASF105
 1878 079a 0C       		.byte	0xc
 1879 079b FB       		.byte	0xfb
 1880 079c A0070000 		.4byte	0x7a0
 1881 07a0 09       		.uleb128 0x9
 1882 07a1 04       		.byte	0x4
 1883 07a2 F6050000 		.4byte	0x5f6
 1884 07a6 18       		.uleb128 0x18
 1885 07a7 01       		.byte	0x1
 1886 07a8 0D       		.byte	0xd
 1887 07a9 4E       		.byte	0x4e
 1888 07aa CD070000 		.4byte	0x7cd
 1889 07ae 19       		.uleb128 0x19
 1890 07af C3050000 		.4byte	.LASF106
 1891 07b3 00       		.sleb128 0
 1892 07b4 19       		.uleb128 0x19
 1893 07b5 E8000000 		.4byte	.LASF107
 1894 07b9 01       		.sleb128 1
 1895 07ba 19       		.uleb128 0x19
 1896 07bb B9050000 		.4byte	.LASF108
 1897 07bf 02       		.sleb128 2
 1898 07c0 19       		.uleb128 0x19
ARM GAS  C:\Users\TaisikHam\AppData\Local\Temp\cc7fj03B.s 			page 35


 1899 07c1 32000000 		.4byte	.LASF109
 1900 07c5 03       		.sleb128 3
 1901 07c6 19       		.uleb128 0x19
 1902 07c7 1F050000 		.4byte	.LASF110
 1903 07cb 04       		.sleb128 4
 1904 07cc 00       		.byte	0
 1905 07cd 03       		.uleb128 0x3
 1906 07ce 4F050000 		.4byte	.LASF111
 1907 07d2 0D       		.byte	0xd
 1908 07d3 54       		.byte	0x54
 1909 07d4 A6070000 		.4byte	0x7a6
 1910 07d8 15       		.uleb128 0x15
 1911 07d9 8A000000 		.4byte	.LASF112
 1912 07dd 0E       		.byte	0xe
 1913 07de 2701     		.2byte	0x127
 1914 07e0 E4070000 		.4byte	0x7e4
 1915 07e4 0B       		.uleb128 0xb
 1916 07e5 8A000000 		.4byte	.LASF112
 1917 07e9 30       		.byte	0x30
 1918 07ea 0E       		.byte	0xe
 1919 07eb 4F01     		.2byte	0x14f
 1920 07ed 79080000 		.4byte	0x879
 1921 07f1 14       		.uleb128 0x14
 1922 07f2 30010000 		.4byte	.LASF113
 1923 07f6 0E       		.byte	0xe
 1924 07f7 5301     		.2byte	0x153
 1925 07f9 CD070000 		.4byte	0x7cd
 1926 07fd 02       		.byte	0x2
 1927 07fe 23       		.byte	0x23
 1928 07ff 00       		.uleb128 0
 1929 0800 14       		.uleb128 0x14
 1930 0801 2C050000 		.4byte	.LASF114
 1931 0805 0E       		.byte	0xe
 1932 0806 5701     		.2byte	0x157
 1933 0808 FE080000 		.4byte	0x8fe
 1934 080c 02       		.byte	0x2
 1935 080d 23       		.byte	0x23
 1936 080e 04       		.uleb128 0x4
 1937 080f 14       		.uleb128 0x14
 1938 0810 55010000 		.4byte	.LASF115
 1939 0814 0E       		.byte	0xe
 1940 0815 5C01     		.2byte	0x15c
 1941 0817 73020000 		.4byte	0x273
 1942 081b 02       		.byte	0x2
 1943 081c 23       		.byte	0x23
 1944 081d 08       		.uleb128 0x8
 1945 081e 14       		.uleb128 0x14
 1946 081f 37040000 		.4byte	.LASF116
 1947 0823 0E       		.byte	0xe
 1948 0824 6301     		.2byte	0x163
 1949 0826 25040000 		.4byte	0x425
 1950 082a 02       		.byte	0x2
 1951 082b 23       		.byte	0x23
 1952 082c 0C       		.uleb128 0xc
 1953 082d 0C       		.uleb128 0xc
 1954 082e 73706900 		.ascii	"spi\000"
 1955 0832 0E       		.byte	0xe
ARM GAS  C:\Users\TaisikHam\AppData\Local\Temp\cc7fj03B.s 			page 36


 1956 0833 6F01     		.2byte	0x16f
 1957 0835 09090000 		.4byte	0x909
 1958 0839 02       		.byte	0x2
 1959 083a 23       		.byte	0x23
 1960 083b 1C       		.uleb128 0x1c
 1961 083c 14       		.uleb128 0x14
 1962 083d 00000000 		.4byte	.LASF117
 1963 0841 0E       		.byte	0xe
 1964 0842 7301     		.2byte	0x173
 1965 0844 0F090000 		.4byte	0x90f
 1966 0848 02       		.byte	0x2
 1967 0849 23       		.byte	0x23
 1968 084a 20       		.uleb128 0x20
 1969 084b 14       		.uleb128 0x14
 1970 084c B1010000 		.4byte	.LASF118
 1971 0850 0E       		.byte	0xe
 1972 0851 7701     		.2byte	0x177
 1973 0853 0F090000 		.4byte	0x90f
 1974 0857 02       		.byte	0x2
 1975 0858 23       		.byte	0x23
 1976 0859 24       		.uleb128 0x24
 1977 085a 14       		.uleb128 0x14
 1978 085b 9A010000 		.4byte	.LASF119
 1979 085f 0E       		.byte	0xe
 1980 0860 7B01     		.2byte	0x17b
 1981 0862 86000000 		.4byte	0x86
 1982 0866 02       		.byte	0x2
 1983 0867 23       		.byte	0x23
 1984 0868 28       		.uleb128 0x28
 1985 0869 14       		.uleb128 0x14
 1986 086a 82030000 		.4byte	.LASF120
 1987 086e 0E       		.byte	0xe
 1988 086f 7F01     		.2byte	0x17f
 1989 0871 86000000 		.4byte	0x86
 1990 0875 02       		.byte	0x2
 1991 0876 23       		.byte	0x23
 1992 0877 2C       		.uleb128 0x2c
 1993 0878 00       		.byte	0
 1994 0879 15       		.uleb128 0x15
 1995 087a 22010000 		.4byte	.LASF121
 1996 087e 0E       		.byte	0xe
 1997 087f 2F01     		.2byte	0x12f
 1998 0881 85080000 		.4byte	0x885
 1999 0885 09       		.uleb128 0x9
 2000 0886 04       		.byte	0x4
 2001 0887 8B080000 		.4byte	0x88b
 2002 088b 1A       		.uleb128 0x1a
 2003 088c 01       		.byte	0x1
 2004 088d 97080000 		.4byte	0x897
 2005 0891 12       		.uleb128 0x12
 2006 0892 97080000 		.4byte	0x897
 2007 0896 00       		.byte	0
 2008 0897 09       		.uleb128 0x9
 2009 0898 04       		.byte	0x4
 2010 0899 D8070000 		.4byte	0x7d8
 2011 089d 13       		.uleb128 0x13
 2012 089e 10       		.byte	0x10
ARM GAS  C:\Users\TaisikHam\AppData\Local\Temp\cc7fj03B.s 			page 37


 2013 089f 0E       		.byte	0xe
 2014 08a0 3401     		.2byte	0x134
 2015 08a2 F2080000 		.4byte	0x8f2
 2016 08a6 14       		.uleb128 0x14
 2017 08a7 93010000 		.4byte	.LASF122
 2018 08ab 0E       		.byte	0xe
 2019 08ac 3801     		.2byte	0x138
 2020 08ae 79080000 		.4byte	0x879
 2021 08b2 02       		.byte	0x2
 2022 08b3 23       		.byte	0x23
 2023 08b4 00       		.uleb128 0
 2024 08b5 14       		.uleb128 0x14
 2025 08b6 94000000 		.4byte	.LASF123
 2026 08ba 0E       		.byte	0xe
 2027 08bb 3D01     		.2byte	0x13d
 2028 08bd 95070000 		.4byte	0x795
 2029 08c1 02       		.byte	0x2
 2030 08c2 23       		.byte	0x23
 2031 08c3 04       		.uleb128 0x4
 2032 08c4 14       		.uleb128 0x14
 2033 08c5 B9000000 		.4byte	.LASF124
 2034 08c9 0E       		.byte	0xe
 2035 08ca 4101     		.2byte	0x141
 2036 08cc 62000000 		.4byte	0x62
 2037 08d0 02       		.byte	0x2
 2038 08d1 23       		.byte	0x23
 2039 08d2 08       		.uleb128 0x8
 2040 08d3 0C       		.uleb128 0xc
 2041 08d4 63723100 		.ascii	"cr1\000"
 2042 08d8 0E       		.byte	0xe
 2043 08d9 4501     		.2byte	0x145
 2044 08db 62000000 		.4byte	0x62
 2045 08df 02       		.byte	0x2
 2046 08e0 23       		.byte	0x23
 2047 08e1 0A       		.uleb128 0xa
 2048 08e2 0C       		.uleb128 0xc
 2049 08e3 63723200 		.ascii	"cr2\000"
 2050 08e7 0E       		.byte	0xe
 2051 08e8 4901     		.2byte	0x149
 2052 08ea 62000000 		.4byte	0x62
 2053 08ee 02       		.byte	0x2
 2054 08ef 23       		.byte	0x23
 2055 08f0 0C       		.uleb128 0xc
 2056 08f1 00       		.byte	0
 2057 08f2 15       		.uleb128 0x15
 2058 08f3 5A060000 		.4byte	.LASF125
 2059 08f7 0E       		.byte	0xe
 2060 08f8 4A01     		.2byte	0x14a
 2061 08fa 9D080000 		.4byte	0x89d
 2062 08fe 09       		.uleb128 0x9
 2063 08ff 04       		.byte	0x4
 2064 0900 04090000 		.4byte	0x904
 2065 0904 10       		.uleb128 0x10
 2066 0905 F2080000 		.4byte	0x8f2
 2067 0909 09       		.uleb128 0x9
 2068 090a 04       		.byte	0x4
 2069 090b 18070000 		.4byte	0x718
ARM GAS  C:\Users\TaisikHam\AppData\Local\Temp\cc7fj03B.s 			page 38


 2070 090f 09       		.uleb128 0x9
 2071 0910 04       		.byte	0x4
 2072 0911 15090000 		.4byte	0x915
 2073 0915 10       		.uleb128 0x10
 2074 0916 7F070000 		.4byte	0x77f
 2075 091a 1B       		.uleb128 0x1b
 2076 091b 44495200 		.ascii	"DIR\000"
 2077 091f 01       		.byte	0x1
 2078 0920 01       		.byte	0x1
 2079 0921 38       		.byte	0x38
 2080 0922 4B090000 		.4byte	0x94b
 2081 0926 1C       		.uleb128 0x1c
 2082 0927 4E00     		.ascii	"N\000"
 2083 0929 09       		.sleb128 9
 2084 092a 1C       		.uleb128 0x1c
 2085 092b 4E4500   		.ascii	"NE\000"
 2086 092e 0A       		.sleb128 10
 2087 092f 1C       		.uleb128 0x1c
 2088 0930 4500     		.ascii	"E\000"
 2089 0932 0B       		.sleb128 11
 2090 0933 1C       		.uleb128 0x1c
 2091 0934 534500   		.ascii	"SE\000"
 2092 0937 0C       		.sleb128 12
 2093 0938 1C       		.uleb128 0x1c
 2094 0939 5300     		.ascii	"S\000"
 2095 093b 0D       		.sleb128 13
 2096 093c 1C       		.uleb128 0x1c
 2097 093d 535700   		.ascii	"SW\000"
 2098 0940 0E       		.sleb128 14
 2099 0941 1C       		.uleb128 0x1c
 2100 0942 5700     		.ascii	"W\000"
 2101 0944 0F       		.sleb128 15
 2102 0945 1C       		.uleb128 0x1c
 2103 0946 4E5700   		.ascii	"NW\000"
 2104 0949 08       		.sleb128 8
 2105 094a 00       		.byte	0
 2106 094b 03       		.uleb128 0x3
 2107 094c 25000000 		.4byte	.LASF126
 2108 0950 01       		.byte	0x1
 2109 0951 41       		.byte	0x41
 2110 0952 1A090000 		.4byte	0x91a
 2111 0956 1D       		.uleb128 0x1d
 2112 0957 01       		.byte	0x1
 2113 0958 5C010000 		.4byte	.LASF170
 2114 095c 01       		.byte	0x1
 2115 095d 43       		.byte	0x43
 2116 095e 01       		.byte	0x1
 2117 095f B1000000 		.4byte	0xb1
 2118 0963 01       		.byte	0x1
 2119 0964 74090000 		.4byte	0x974
 2120 0968 1E       		.uleb128 0x1e
 2121 0969 706F7300 		.ascii	"pos\000"
 2122 096d 01       		.byte	0x1
 2123 096e 43       		.byte	0x43
 2124 096f 4B090000 		.4byte	0x94b
 2125 0973 00       		.byte	0
 2126 0974 1F       		.uleb128 0x1f
ARM GAS  C:\Users\TaisikHam\AppData\Local\Temp\cc7fj03B.s 			page 39


 2127 0975 42050000 		.4byte	.LASF135
 2128 0979 01       		.byte	0x1
 2129 097a 4F01     		.2byte	0x14f
 2130 097c 01       		.byte	0x1
 2131 097d EF000000 		.4byte	0xef
 2132 0981 00000000 		.4byte	.LFB123
 2133 0985 24000000 		.4byte	.LFE123
 2134 0989 00000000 		.4byte	.LLST0
 2135 098d 01       		.byte	0x1
 2136 098e B3090000 		.4byte	0x9b3
 2137 0992 20       		.uleb128 0x20
 2138 0993 7000     		.ascii	"p\000"
 2139 0995 01       		.byte	0x1
 2140 0996 4F01     		.2byte	0x14f
 2141 0998 B1020000 		.4byte	0x2b1
 2142 099c 20000000 		.4byte	.LLST1
 2143 09a0 21       		.uleb128 0x21
 2144 09a1 10000000 		.4byte	.LVL2
 2145 09a5 AB0F0000 		.4byte	0xfab
 2146 09a9 21       		.uleb128 0x21
 2147 09aa 16000000 		.4byte	.LVL3
 2148 09ae C00F0000 		.4byte	0xfc0
 2149 09b2 00       		.byte	0
 2150 09b3 22       		.uleb128 0x22
 2151 09b4 56090000 		.4byte	0x956
 2152 09b8 00000000 		.4byte	.LFB118
 2153 09bc 04000000 		.4byte	.LFE118
 2154 09c0 02       		.byte	0x2
 2155 09c1 7D       		.byte	0x7d
 2156 09c2 00       		.sleb128 0
 2157 09c3 01       		.byte	0x1
 2158 09c4 D2090000 		.4byte	0x9d2
 2159 09c8 23       		.uleb128 0x23
 2160 09c9 68090000 		.4byte	0x968
 2161 09cd 41000000 		.4byte	.LLST2
 2162 09d1 00       		.byte	0
 2163 09d2 24       		.uleb128 0x24
 2164 09d3 01       		.byte	0x1
 2165 09d4 7C010000 		.4byte	.LASF129
 2166 09d8 01       		.byte	0x1
 2167 09d9 4F       		.byte	0x4f
 2168 09da 01       		.byte	0x1
 2169 09db 00000000 		.4byte	.LFB119
 2170 09df 54000000 		.4byte	.LFE119
 2171 09e3 60000000 		.4byte	.LLST3
 2172 09e7 01       		.byte	0x1
 2173 09e8 440A0000 		.4byte	0xa44
 2174 09ec 25       		.uleb128 0x25
 2175 09ed 706F7300 		.ascii	"pos\000"
 2176 09f1 01       		.byte	0x1
 2177 09f2 4F       		.byte	0x4f
 2178 09f3 4B090000 		.4byte	0x94b
 2179 09f7 80000000 		.4byte	.LLST4
 2180 09fb 26       		.uleb128 0x26
 2181 09fc 84050000 		.4byte	.LASF127
 2182 0a00 01       		.byte	0x1
 2183 0a01 51       		.byte	0x51
ARM GAS  C:\Users\TaisikHam\AppData\Local\Temp\cc7fj03B.s 			page 40


 2184 0a02 49000000 		.4byte	0x49
 2185 0a06 05       		.byte	0x5
 2186 0a07 03       		.byte	0x3
 2187 0a08 00000000 		.4byte	cur_pos.6389
 2188 0a0c 26       		.uleb128 0x26
 2189 0a0d 98040000 		.4byte	.LASF128
 2190 0a11 01       		.byte	0x1
 2191 0a12 51       		.byte	0x51
 2192 0a13 49000000 		.4byte	0x49
 2193 0a17 05       		.byte	0x5
 2194 0a18 03       		.byte	0x3
 2195 0a19 00000000 		.4byte	prev_pos.6390
 2196 0a1d 27       		.uleb128 0x27
 2197 0a1e 28000000 		.4byte	.LVL7
 2198 0a22 D50F0000 		.4byte	0xfd5
 2199 0a26 320A0000 		.4byte	0xa32
 2200 0a2a 28       		.uleb128 0x28
 2201 0a2b 01       		.byte	0x1
 2202 0a2c 50       		.byte	0x50
 2203 0a2d 03       		.byte	0x3
 2204 0a2e 0A       		.byte	0xa
 2205 0a2f C201     		.2byte	0x1c2
 2206 0a31 00       		.byte	0
 2207 0a32 29       		.uleb128 0x29
 2208 0a33 44000000 		.4byte	.LVL9
 2209 0a37 D50F0000 		.4byte	0xfd5
 2210 0a3b 28       		.uleb128 0x28
 2211 0a3c 01       		.byte	0x1
 2212 0a3d 50       		.byte	0x50
 2213 0a3e 03       		.byte	0x3
 2214 0a3f 0A       		.byte	0xa
 2215 0a40 C201     		.2byte	0x1c2
 2216 0a42 00       		.byte	0
 2217 0a43 00       		.byte	0
 2218 0a44 2A       		.uleb128 0x2a
 2219 0a45 01       		.byte	0x1
 2220 0a46 33050000 		.4byte	.LASF130
 2221 0a4a 01       		.byte	0x1
 2222 0a4b 71       		.byte	0x71
 2223 0a4c 01       		.byte	0x1
 2224 0a4d 00000000 		.4byte	.LFB120
 2225 0a51 88000000 		.4byte	.LFE120
 2226 0a55 02       		.byte	0x2
 2227 0a56 7D       		.byte	0x7d
 2228 0a57 00       		.sleb128 0
 2229 0a58 01       		.byte	0x1
 2230 0a59 FA0A0000 		.4byte	0xafa
 2231 0a5d 2B       		.uleb128 0x2b
 2232 0a5e 5A000000 		.4byte	.LVL10
 2233 0a62 01       		.byte	0x1
 2234 0a63 D2090000 		.4byte	0x9d2
 2235 0a67 710A0000 		.4byte	0xa71
 2236 0a6b 28       		.uleb128 0x28
 2237 0a6c 01       		.byte	0x1
 2238 0a6d 50       		.byte	0x50
 2239 0a6e 01       		.byte	0x1
 2240 0a6f 39       		.byte	0x39
ARM GAS  C:\Users\TaisikHam\AppData\Local\Temp\cc7fj03B.s 			page 41


 2241 0a70 00       		.byte	0
 2242 0a71 2B       		.uleb128 0x2b
 2243 0a72 60000000 		.4byte	.LVL11
 2244 0a76 01       		.byte	0x1
 2245 0a77 D2090000 		.4byte	0x9d2
 2246 0a7b 850A0000 		.4byte	0xa85
 2247 0a7f 28       		.uleb128 0x28
 2248 0a80 01       		.byte	0x1
 2249 0a81 50       		.byte	0x50
 2250 0a82 01       		.byte	0x1
 2251 0a83 3B       		.byte	0x3b
 2252 0a84 00       		.byte	0
 2253 0a85 2B       		.uleb128 0x2b
 2254 0a86 66000000 		.4byte	.LVL12
 2255 0a8a 01       		.byte	0x1
 2256 0a8b D2090000 		.4byte	0x9d2
 2257 0a8f 990A0000 		.4byte	0xa99
 2258 0a93 28       		.uleb128 0x28
 2259 0a94 01       		.byte	0x1
 2260 0a95 50       		.byte	0x50
 2261 0a96 01       		.byte	0x1
 2262 0a97 3F       		.byte	0x3f
 2263 0a98 00       		.byte	0
 2264 0a99 2B       		.uleb128 0x2b
 2265 0a9a 6C000000 		.4byte	.LVL13
 2266 0a9e 01       		.byte	0x1
 2267 0a9f D2090000 		.4byte	0x9d2
 2268 0aa3 AD0A0000 		.4byte	0xaad
 2269 0aa7 28       		.uleb128 0x28
 2270 0aa8 01       		.byte	0x1
 2271 0aa9 50       		.byte	0x50
 2272 0aaa 01       		.byte	0x1
 2273 0aab 3A       		.byte	0x3a
 2274 0aac 00       		.byte	0
 2275 0aad 2B       		.uleb128 0x2b
 2276 0aae 72000000 		.4byte	.LVL14
 2277 0ab2 01       		.byte	0x1
 2278 0ab3 D2090000 		.4byte	0x9d2
 2279 0ab7 C10A0000 		.4byte	0xac1
 2280 0abb 28       		.uleb128 0x28
 2281 0abc 01       		.byte	0x1
 2282 0abd 50       		.byte	0x50
 2283 0abe 01       		.byte	0x1
 2284 0abf 3C       		.byte	0x3c
 2285 0ac0 00       		.byte	0
 2286 0ac1 2B       		.uleb128 0x2b
 2287 0ac2 78000000 		.4byte	.LVL15
 2288 0ac6 01       		.byte	0x1
 2289 0ac7 D2090000 		.4byte	0x9d2
 2290 0acb D50A0000 		.4byte	0xad5
 2291 0acf 28       		.uleb128 0x28
 2292 0ad0 01       		.byte	0x1
 2293 0ad1 50       		.byte	0x50
 2294 0ad2 01       		.byte	0x1
 2295 0ad3 3D       		.byte	0x3d
 2296 0ad4 00       		.byte	0
 2297 0ad5 2B       		.uleb128 0x2b
ARM GAS  C:\Users\TaisikHam\AppData\Local\Temp\cc7fj03B.s 			page 42


 2298 0ad6 7E000000 		.4byte	.LVL16
 2299 0ada 01       		.byte	0x1
 2300 0adb D2090000 		.4byte	0x9d2
 2301 0adf E90A0000 		.4byte	0xae9
 2302 0ae3 28       		.uleb128 0x28
 2303 0ae4 01       		.byte	0x1
 2304 0ae5 50       		.byte	0x50
 2305 0ae6 01       		.byte	0x1
 2306 0ae7 38       		.byte	0x38
 2307 0ae8 00       		.byte	0
 2308 0ae9 2C       		.uleb128 0x2c
 2309 0aea 84000000 		.4byte	.LVL17
 2310 0aee 01       		.byte	0x1
 2311 0aef D2090000 		.4byte	0x9d2
 2312 0af3 28       		.uleb128 0x28
 2313 0af4 01       		.byte	0x1
 2314 0af5 50       		.byte	0x50
 2315 0af6 01       		.byte	0x1
 2316 0af7 3E       		.byte	0x3e
 2317 0af8 00       		.byte	0
 2318 0af9 00       		.byte	0
 2319 0afa 24       		.uleb128 0x24
 2320 0afb 01       		.byte	0x1
 2321 0afc F9000000 		.4byte	.LASF131
 2322 0b00 01       		.byte	0x1
 2323 0b01 EF       		.byte	0xef
 2324 0b02 01       		.byte	0x1
 2325 0b03 00000000 		.4byte	.LFB121
 2326 0b07 44000000 		.4byte	.LFE121
 2327 0b0b B0000000 		.4byte	.LLST5
 2328 0b0f 01       		.byte	0x1
 2329 0b10 550B0000 		.4byte	0xb55
 2330 0b14 2D       		.uleb128 0x2d
 2331 0b15 6F020000 		.4byte	.LASF132
 2332 0b19 01       		.byte	0x1
 2333 0b1a EF       		.byte	0xef
 2334 0b1b 49000000 		.4byte	0x49
 2335 0b1f 01       		.byte	0x1
 2336 0b20 50       		.byte	0x50
 2337 0b21 2E       		.uleb128 0x2e
 2338 0b22 4E030000 		.4byte	.LASF133
 2339 0b26 01       		.byte	0x1
 2340 0b27 EF       		.byte	0xef
 2341 0b28 49000000 		.4byte	0x49
 2342 0b2c DC000000 		.4byte	.LLST6
 2343 0b30 2F       		.uleb128 0x2f
 2344 0b31 8C020000 		.4byte	.LASF134
 2345 0b35 01       		.byte	0x1
 2346 0b36 F1       		.byte	0xf1
 2347 0b37 49000000 		.4byte	0x49
 2348 0b3b 16010000 		.4byte	.LLST7
 2349 0b3f 29       		.uleb128 0x29
 2350 0b40 3E000000 		.4byte	.LVL23
 2351 0b44 EA0F0000 		.4byte	0xfea
 2352 0b48 28       		.uleb128 0x28
 2353 0b49 01       		.byte	0x1
 2354 0b4a 52       		.byte	0x52
ARM GAS  C:\Users\TaisikHam\AppData\Local\Temp\cc7fj03B.s 			page 43


 2355 0b4b 01       		.byte	0x1
 2356 0b4c 31       		.byte	0x31
 2357 0b4d 28       		.uleb128 0x28
 2358 0b4e 01       		.byte	0x1
 2359 0b4f 51       		.byte	0x51
 2360 0b50 02       		.byte	0x2
 2361 0b51 91       		.byte	0x91
 2362 0b52 6F       		.sleb128 -17
 2363 0b53 00       		.byte	0
 2364 0b54 00       		.byte	0
 2365 0b55 1F       		.uleb128 0x1f
 2366 0b56 48010000 		.4byte	.LASF136
 2367 0b5a 01       		.byte	0x1
 2368 0b5b 0001     		.2byte	0x100
 2369 0b5d 01       		.byte	0x1
 2370 0b5e EF000000 		.4byte	0xef
 2371 0b62 00000000 		.4byte	.LFB122
 2372 0b66 A4010000 		.4byte	.LFE122
 2373 0b6a 34010000 		.4byte	.LLST8
 2374 0b6e 01       		.byte	0x1
 2375 0b6f 0C0D0000 		.4byte	0xd0c
 2376 0b73 20       		.uleb128 0x20
 2377 0b74 7000     		.ascii	"p\000"
 2378 0b76 01       		.byte	0x1
 2379 0b77 0001     		.2byte	0x100
 2380 0b79 B1020000 		.4byte	0x2b1
 2381 0b7d 54010000 		.4byte	.LLST9
 2382 0b81 30       		.uleb128 0x30
 2383 0b82 6F000000 		.4byte	.LASF137
 2384 0b86 01       		.byte	0x1
 2385 0b87 0401     		.2byte	0x104
 2386 0b89 49000000 		.4byte	0x49
 2387 0b8d 05       		.byte	0x5
 2388 0b8e 03       		.byte	0x3
 2389 0b8f 00000000 		.4byte	addr.6422
 2390 0b93 21       		.uleb128 0x21
 2391 0b94 1C000000 		.4byte	.LVL26
 2392 0b98 AB0F0000 		.4byte	0xfab
 2393 0b9c 27       		.uleb128 0x27
 2394 0b9d 24000000 		.4byte	.LVL27
 2395 0ba1 09100000 		.4byte	0x1009
 2396 0ba5 B30B0000 		.4byte	0xbb3
 2397 0ba9 28       		.uleb128 0x28
 2398 0baa 01       		.byte	0x1
 2399 0bab 51       		.byte	0x51
 2400 0bac 05       		.byte	0x5
 2401 0bad 03       		.byte	0x3
 2402 0bae 00000000 		.4byte	.LANCHOR4
 2403 0bb2 00       		.byte	0
 2404 0bb3 21       		.uleb128 0x21
 2405 0bb4 2A000000 		.4byte	.LVL28
 2406 0bb8 23100000 		.4byte	0x1023
 2407 0bbc 27       		.uleb128 0x27
 2408 0bbd 32000000 		.4byte	.LVL29
 2409 0bc1 FA0A0000 		.4byte	0xafa
 2410 0bc5 D50B0000 		.4byte	0xbd5
 2411 0bc9 28       		.uleb128 0x28
ARM GAS  C:\Users\TaisikHam\AppData\Local\Temp\cc7fj03B.s 			page 44


 2412 0bca 01       		.byte	0x1
 2413 0bcb 51       		.byte	0x51
 2414 0bcc 01       		.byte	0x1
 2415 0bcd 38       		.byte	0x38
 2416 0bce 28       		.uleb128 0x28
 2417 0bcf 01       		.byte	0x1
 2418 0bd0 50       		.byte	0x50
 2419 0bd1 02       		.byte	0x2
 2420 0bd2 08       		.byte	0x8
 2421 0bd3 20       		.byte	0x20
 2422 0bd4 00       		.byte	0
 2423 0bd5 27       		.uleb128 0x27
 2424 0bd6 3A000000 		.4byte	.LVL30
 2425 0bda FA0A0000 		.4byte	0xafa
 2426 0bde EE0B0000 		.4byte	0xbee
 2427 0be2 28       		.uleb128 0x28
 2428 0be3 01       		.byte	0x1
 2429 0be4 51       		.byte	0x51
 2430 0be5 01       		.byte	0x1
 2431 0be6 30       		.byte	0x30
 2432 0be7 28       		.uleb128 0x28
 2433 0be8 01       		.byte	0x1
 2434 0be9 50       		.byte	0x50
 2435 0bea 02       		.byte	0x2
 2436 0beb 08       		.byte	0x8
 2437 0bec 23       		.byte	0x23
 2438 0bed 00       		.byte	0
 2439 0bee 27       		.uleb128 0x27
 2440 0bef 42000000 		.4byte	.LVL31
 2441 0bf3 FA0A0000 		.4byte	0xafa
 2442 0bf7 080C0000 		.4byte	0xc08
 2443 0bfb 28       		.uleb128 0x28
 2444 0bfc 01       		.byte	0x1
 2445 0bfd 51       		.byte	0x51
 2446 0bfe 02       		.byte	0x2
 2447 0bff 08       		.byte	0x8
 2448 0c00 40       		.byte	0x40
 2449 0c01 28       		.uleb128 0x28
 2450 0c02 01       		.byte	0x1
 2451 0c03 50       		.byte	0x50
 2452 0c04 02       		.byte	0x2
 2453 0c05 08       		.byte	0x8
 2454 0c06 2E       		.byte	0x2e
 2455 0c07 00       		.byte	0
 2456 0c08 27       		.uleb128 0x27
 2457 0c09 50000000 		.4byte	.LVL32
 2458 0c0d 38100000 		.4byte	0x1038
 2459 0c11 2A0C0000 		.4byte	0xc2a
 2460 0c15 28       		.uleb128 0x28
 2461 0c16 01       		.byte	0x1
 2462 0c17 52       		.byte	0x52
 2463 0c18 01       		.byte	0x1
 2464 0c19 31       		.byte	0x31
 2465 0c1a 28       		.uleb128 0x28
 2466 0c1b 01       		.byte	0x1
 2467 0c1c 51       		.byte	0x51
 2468 0c1d 02       		.byte	0x2
ARM GAS  C:\Users\TaisikHam\AppData\Local\Temp\cc7fj03B.s 			page 45


 2469 0c1e 74       		.byte	0x74
 2470 0c1f 00       		.sleb128 0
 2471 0c20 28       		.uleb128 0x28
 2472 0c21 01       		.byte	0x1
 2473 0c22 50       		.byte	0x50
 2474 0c23 05       		.byte	0x5
 2475 0c24 03       		.byte	0x3
 2476 0c25 00000000 		.4byte	.LANCHOR6
 2477 0c29 00       		.byte	0
 2478 0c2a 27       		.uleb128 0x27
 2479 0c2b 5E000000 		.4byte	.LVL33
 2480 0c2f 38100000 		.4byte	0x1038
 2481 0c33 490C0000 		.4byte	0xc49
 2482 0c37 28       		.uleb128 0x28
 2483 0c38 01       		.byte	0x1
 2484 0c39 52       		.byte	0x52
 2485 0c3a 01       		.byte	0x1
 2486 0c3b 31       		.byte	0x31
 2487 0c3c 28       		.uleb128 0x28
 2488 0c3d 01       		.byte	0x1
 2489 0c3e 51       		.byte	0x51
 2490 0c3f 02       		.byte	0x2
 2491 0c40 74       		.byte	0x74
 2492 0c41 00       		.sleb128 0
 2493 0c42 28       		.uleb128 0x28
 2494 0c43 01       		.byte	0x1
 2495 0c44 50       		.byte	0x50
 2496 0c45 02       		.byte	0x2
 2497 0c46 78       		.byte	0x78
 2498 0c47 00       		.sleb128 0
 2499 0c48 00       		.byte	0
 2500 0c49 27       		.uleb128 0x27
 2501 0c4a 6C000000 		.4byte	.LVL34
 2502 0c4e 38100000 		.4byte	0x1038
 2503 0c52 680C0000 		.4byte	0xc68
 2504 0c56 28       		.uleb128 0x28
 2505 0c57 01       		.byte	0x1
 2506 0c58 52       		.byte	0x52
 2507 0c59 01       		.byte	0x1
 2508 0c5a 31       		.byte	0x31
 2509 0c5b 28       		.uleb128 0x28
 2510 0c5c 01       		.byte	0x1
 2511 0c5d 51       		.byte	0x51
 2512 0c5e 02       		.byte	0x2
 2513 0c5f 74       		.byte	0x74
 2514 0c60 00       		.sleb128 0
 2515 0c61 28       		.uleb128 0x28
 2516 0c62 01       		.byte	0x1
 2517 0c63 50       		.byte	0x50
 2518 0c64 02       		.byte	0x2
 2519 0c65 77       		.byte	0x77
 2520 0c66 00       		.sleb128 0
 2521 0c67 00       		.byte	0
 2522 0c68 27       		.uleb128 0x27
 2523 0c69 7A000000 		.4byte	.LVL35
 2524 0c6d 38100000 		.4byte	0x1038
 2525 0c71 8A0C0000 		.4byte	0xc8a
ARM GAS  C:\Users\TaisikHam\AppData\Local\Temp\cc7fj03B.s 			page 46


 2526 0c75 28       		.uleb128 0x28
 2527 0c76 01       		.byte	0x1
 2528 0c77 52       		.byte	0x52
 2529 0c78 01       		.byte	0x1
 2530 0c79 31       		.byte	0x31
 2531 0c7a 28       		.uleb128 0x28
 2532 0c7b 01       		.byte	0x1
 2533 0c7c 51       		.byte	0x51
 2534 0c7d 02       		.byte	0x2
 2535 0c7e 74       		.byte	0x74
 2536 0c7f 00       		.sleb128 0
 2537 0c80 28       		.uleb128 0x28
 2538 0c81 01       		.byte	0x1
 2539 0c82 50       		.byte	0x50
 2540 0c83 05       		.byte	0x5
 2541 0c84 03       		.byte	0x3
 2542 0c85 00000000 		.4byte	.LANCHOR9
 2543 0c89 00       		.byte	0
 2544 0c8a 27       		.uleb128 0x27
 2545 0c8b 88000000 		.4byte	.LVL36
 2546 0c8f 38100000 		.4byte	0x1038
 2547 0c93 AC0C0000 		.4byte	0xcac
 2548 0c97 28       		.uleb128 0x28
 2549 0c98 01       		.byte	0x1
 2550 0c99 52       		.byte	0x52
 2551 0c9a 01       		.byte	0x1
 2552 0c9b 31       		.byte	0x31
 2553 0c9c 28       		.uleb128 0x28
 2554 0c9d 01       		.byte	0x1
 2555 0c9e 51       		.byte	0x51
 2556 0c9f 02       		.byte	0x2
 2557 0ca0 74       		.byte	0x74
 2558 0ca1 00       		.sleb128 0
 2559 0ca2 28       		.uleb128 0x28
 2560 0ca3 01       		.byte	0x1
 2561 0ca4 50       		.byte	0x50
 2562 0ca5 05       		.byte	0x5
 2563 0ca6 03       		.byte	0x3
 2564 0ca7 00000000 		.4byte	.LANCHOR10
 2565 0cab 00       		.byte	0
 2566 0cac 27       		.uleb128 0x27
 2567 0cad 96000000 		.4byte	.LVL37
 2568 0cb1 38100000 		.4byte	0x1038
 2569 0cb5 CE0C0000 		.4byte	0xcce
 2570 0cb9 28       		.uleb128 0x28
 2571 0cba 01       		.byte	0x1
 2572 0cbb 52       		.byte	0x52
 2573 0cbc 01       		.byte	0x1
 2574 0cbd 31       		.byte	0x31
 2575 0cbe 28       		.uleb128 0x28
 2576 0cbf 01       		.byte	0x1
 2577 0cc0 51       		.byte	0x51
 2578 0cc1 02       		.byte	0x2
 2579 0cc2 74       		.byte	0x74
 2580 0cc3 00       		.sleb128 0
 2581 0cc4 28       		.uleb128 0x28
 2582 0cc5 01       		.byte	0x1
ARM GAS  C:\Users\TaisikHam\AppData\Local\Temp\cc7fj03B.s 			page 47


 2583 0cc6 50       		.byte	0x50
 2584 0cc7 05       		.byte	0x5
 2585 0cc8 03       		.byte	0x3
 2586 0cc9 00000000 		.4byte	.LANCHOR11
 2587 0ccd 00       		.byte	0
 2588 0cce 27       		.uleb128 0x27
 2589 0ccf A4000000 		.4byte	.LVL38
 2590 0cd3 38100000 		.4byte	0x1038
 2591 0cd7 F00C0000 		.4byte	0xcf0
 2592 0cdb 28       		.uleb128 0x28
 2593 0cdc 01       		.byte	0x1
 2594 0cdd 52       		.byte	0x52
 2595 0cde 01       		.byte	0x1
 2596 0cdf 31       		.byte	0x31
 2597 0ce0 28       		.uleb128 0x28
 2598 0ce1 01       		.byte	0x1
 2599 0ce2 51       		.byte	0x51
 2600 0ce3 02       		.byte	0x2
 2601 0ce4 74       		.byte	0x74
 2602 0ce5 00       		.sleb128 0
 2603 0ce6 28       		.uleb128 0x28
 2604 0ce7 01       		.byte	0x1
 2605 0ce8 50       		.byte	0x50
 2606 0ce9 05       		.byte	0x5
 2607 0cea 03       		.byte	0x3
 2608 0ceb 00000000 		.4byte	.LANCHOR12
 2609 0cef 00       		.byte	0
 2610 0cf0 21       		.uleb128 0x21
 2611 0cf1 AA000000 		.4byte	.LVL39
 2612 0cf5 57100000 		.4byte	0x1057
 2613 0cf9 21       		.uleb128 0x21
 2614 0cfa 66010000 		.4byte	.LVL40
 2615 0cfe 440A0000 		.4byte	0xa44
 2616 0d02 21       		.uleb128 0x21
 2617 0d03 6C010000 		.4byte	.LVL41
 2618 0d07 C00F0000 		.4byte	0xfc0
 2619 0d0b 00       		.byte	0
 2620 0d0c 31       		.uleb128 0x31
 2621 0d0d 01       		.byte	0x1
 2622 0d0e 6A060000 		.4byte	.LASF171
 2623 0d12 01       		.byte	0x1
 2624 0d13 6D01     		.2byte	0x16d
 2625 0d15 01       		.byte	0x1
 2626 0d16 29000000 		.4byte	0x29
 2627 0d1a 00000000 		.4byte	.LFB124
 2628 0d1e 60000000 		.4byte	.LFE124
 2629 0d22 75010000 		.4byte	.LLST10
 2630 0d26 01       		.byte	0x1
 2631 0d27 B90D0000 		.4byte	0xdb9
 2632 0d2b 21       		.uleb128 0x21
 2633 0d2c 08000000 		.4byte	.LVL42
 2634 0d30 6C100000 		.4byte	0x106c
 2635 0d34 21       		.uleb128 0x21
 2636 0d35 0C000000 		.4byte	.LVL43
 2637 0d39 76100000 		.4byte	0x1076
 2638 0d3d 27       		.uleb128 0x27
 2639 0d3e 20000000 		.4byte	.LVL44
ARM GAS  C:\Users\TaisikHam\AppData\Local\Temp\cc7fj03B.s 			page 48


 2640 0d42 80100000 		.4byte	0x1080
 2641 0d46 540D0000 		.4byte	0xd54
 2642 0d4a 28       		.uleb128 0x28
 2643 0d4b 01       		.byte	0x1
 2644 0d4c 51       		.byte	0x51
 2645 0d4d 05       		.byte	0x5
 2646 0d4e 03       		.byte	0x3
 2647 0d4f 00000000 		.4byte	.LANCHOR4
 2648 0d53 00       		.byte	0
 2649 0d54 27       		.uleb128 0x27
 2650 0d55 3E000000 		.4byte	.LVL45
 2651 0d59 A0100000 		.4byte	0x10a0
 2652 0d5d 880D0000 		.4byte	0xd88
 2653 0d61 28       		.uleb128 0x28
 2654 0d62 01       		.byte	0x1
 2655 0d63 53       		.byte	0x53
 2656 0d64 05       		.byte	0x5
 2657 0d65 03       		.byte	0x3
 2658 0d66 00000000 		.4byte	spi_thread_1
 2659 0d6a 28       		.uleb128 0x28
 2660 0d6b 01       		.byte	0x1
 2661 0d6c 52       		.byte	0x52
 2662 0d6d 02       		.byte	0x2
 2663 0d6e 08       		.byte	0x8
 2664 0d6f 41       		.byte	0x41
 2665 0d70 28       		.uleb128 0x28
 2666 0d71 01       		.byte	0x1
 2667 0d72 51       		.byte	0x51
 2668 0d73 03       		.byte	0x3
 2669 0d74 0A       		.byte	0xa
 2670 0d75 B001     		.2byte	0x1b0
 2671 0d77 28       		.uleb128 0x28
 2672 0d78 01       		.byte	0x1
 2673 0d79 50       		.byte	0x50
 2674 0d7a 05       		.byte	0x5
 2675 0d7b 03       		.byte	0x3
 2676 0d7c 00000000 		.4byte	.LANCHOR21
 2677 0d80 28       		.uleb128 0x28
 2678 0d81 02       		.byte	0x2
 2679 0d82 7D       		.byte	0x7d
 2680 0d83 00       		.sleb128 0
 2681 0d84 02       		.byte	0x2
 2682 0d85 74       		.byte	0x74
 2683 0d86 00       		.sleb128 0
 2684 0d87 00       		.byte	0
 2685 0d88 29       		.uleb128 0x29
 2686 0d89 5A000000 		.4byte	.LVL46
 2687 0d8d A0100000 		.4byte	0x10a0
 2688 0d91 28       		.uleb128 0x28
 2689 0d92 01       		.byte	0x1
 2690 0d93 53       		.byte	0x53
 2691 0d94 05       		.byte	0x5
 2692 0d95 03       		.byte	0x3
 2693 0d96 00000000 		.4byte	spi_thread_2
 2694 0d9a 28       		.uleb128 0x28
 2695 0d9b 01       		.byte	0x1
 2696 0d9c 52       		.byte	0x52
ARM GAS  C:\Users\TaisikHam\AppData\Local\Temp\cc7fj03B.s 			page 49


 2697 0d9d 02       		.byte	0x2
 2698 0d9e 08       		.byte	0x8
 2699 0d9f 41       		.byte	0x41
 2700 0da0 28       		.uleb128 0x28
 2701 0da1 01       		.byte	0x1
 2702 0da2 51       		.byte	0x51
 2703 0da3 03       		.byte	0x3
 2704 0da4 0A       		.byte	0xa
 2705 0da5 B001     		.2byte	0x1b0
 2706 0da7 28       		.uleb128 0x28
 2707 0da8 01       		.byte	0x1
 2708 0da9 50       		.byte	0x50
 2709 0daa 05       		.byte	0x5
 2710 0dab 03       		.byte	0x3
 2711 0dac 00000000 		.4byte	.LANCHOR22
 2712 0db0 28       		.uleb128 0x28
 2713 0db1 02       		.byte	0x2
 2714 0db2 7D       		.byte	0x7d
 2715 0db3 00       		.sleb128 0
 2716 0db4 02       		.byte	0x2
 2717 0db5 74       		.byte	0x74
 2718 0db6 00       		.sleb128 0
 2719 0db7 00       		.byte	0
 2720 0db8 00       		.byte	0
 2721 0db9 32       		.uleb128 0x32
 2722 0dba 49000000 		.4byte	0x49
 2723 0dbe C90D0000 		.4byte	0xdc9
 2724 0dc2 33       		.uleb128 0x33
 2725 0dc3 74030000 		.4byte	0x374
 2726 0dc7 17       		.byte	0x17
 2727 0dc8 00       		.byte	0
 2728 0dc9 26       		.uleb128 0x26
 2729 0dca 42060000 		.4byte	.LASF138
 2730 0dce 01       		.byte	0x1
 2731 0dcf DE       		.byte	0xde
 2732 0dd0 B90D0000 		.4byte	0xdb9
 2733 0dd4 05       		.byte	0x5
 2734 0dd5 03       		.byte	0x3
 2735 0dd6 00000000 		.4byte	gRegTable
 2736 0dda 32       		.uleb128 0x32
 2737 0ddb B3020000 		.4byte	0x2b3
 2738 0ddf EA0D0000 		.4byte	0xdea
 2739 0de3 33       		.uleb128 0x33
 2740 0de4 74030000 		.4byte	0x374
 2741 0de8 35       		.byte	0x35
 2742 0de9 00       		.byte	0
 2743 0dea 26       		.uleb128 0x26
 2744 0deb 94020000 		.4byte	.LASF139
 2745 0def 01       		.byte	0x1
 2746 0df0 FF       		.byte	0xff
 2747 0df1 DA0D0000 		.4byte	0xdda
 2748 0df5 05       		.byte	0x5
 2749 0df6 03       		.byte	0x3
 2750 0df7 00000000 		.4byte	spi_thread_1_wa
 2751 0dfb 30       		.uleb128 0x30
 2752 0dfc BF010000 		.4byte	.LASF140
 2753 0e00 01       		.byte	0x1
ARM GAS  C:\Users\TaisikHam\AppData\Local\Temp\cc7fj03B.s 			page 50


 2754 0e01 4E01     		.2byte	0x14e
 2755 0e03 DA0D0000 		.4byte	0xdda
 2756 0e07 05       		.byte	0x5
 2757 0e08 03       		.byte	0x3
 2758 0e09 00000000 		.4byte	spi_thread_2_wa
 2759 0e0d 34       		.uleb128 0x34
 2760 0e0e 0E060000 		.4byte	.LASF141
 2761 0e12 08       		.byte	0x8
 2762 0e13 68       		.byte	0x68
 2763 0e14 DD030000 		.4byte	0x3dd
 2764 0e18 01       		.byte	0x1
 2765 0e19 01       		.byte	0x1
 2766 0e1a 35       		.uleb128 0x35
 2767 0e1b 9B000000 		.4byte	.LASF142
 2768 0e1f 0F       		.byte	0xf
 2769 0e20 9806     		.2byte	0x698
 2770 0e22 AF040000 		.4byte	0x4af
 2771 0e26 01       		.byte	0x1
 2772 0e27 01       		.byte	0x1
 2773 0e28 35       		.uleb128 0x35
 2774 0e29 6C040000 		.4byte	.LASF143
 2775 0e2d 0E       		.byte	0xe
 2776 0e2e 8B01     		.2byte	0x18b
 2777 0e30 D8070000 		.4byte	0x7d8
 2778 0e34 01       		.byte	0x1
 2779 0e35 01       		.byte	0x1
 2780 0e36 36       		.uleb128 0x36
 2781 0e37 74060000 		.4byte	.LASF144
 2782 0e3b 01       		.byte	0x1
 2783 0e3c 1D       		.byte	0x1d
 2784 0e3d D8070000 		.4byte	0x7d8
 2785 0e41 01       		.byte	0x1
 2786 0e42 05       		.byte	0x5
 2787 0e43 03       		.byte	0x3
 2788 0e44 00000000 		.4byte	gSpiDriver
 2789 0e48 36       		.uleb128 0x36
 2790 0e49 43030000 		.4byte	.LASF145
 2791 0e4d 01       		.byte	0x1
 2792 0e4e 1E       		.byte	0x1e
 2793 0e4f F2080000 		.4byte	0x8f2
 2794 0e53 01       		.byte	0x1
 2795 0e54 05       		.byte	0x5
 2796 0e55 03       		.byte	0x3
 2797 0e56 00000000 		.4byte	gSpiConfig
 2798 0e5a 32       		.uleb128 0x32
 2799 0e5b 49000000 		.4byte	0x49
 2800 0e5f 6A0E0000 		.4byte	0xe6a
 2801 0e63 33       		.uleb128 0x33
 2802 0e64 74030000 		.4byte	0x374
 2803 0e68 37       		.byte	0x37
 2804 0e69 00       		.byte	0
 2805 0e6a 36       		.uleb128 0x36
 2806 0e6b CE050000 		.4byte	.LASF146
 2807 0e6f 01       		.byte	0x1
 2808 0e70 66       		.byte	0x66
 2809 0e71 5A0E0000 		.4byte	0xe5a
 2810 0e75 01       		.byte	0x1
ARM GAS  C:\Users\TaisikHam\AppData\Local\Temp\cc7fj03B.s 			page 51


 2811 0e76 05       		.byte	0x5
 2812 0e77 03       		.byte	0x3
 2813 0e78 00000000 		.4byte	rxBuf
 2814 0e7c 36       		.uleb128 0x36
 2815 0e7d 1C060000 		.4byte	.LASF147
 2816 0e81 01       		.byte	0x1
 2817 0e82 68       		.byte	0x68
 2818 0e83 49000000 		.4byte	0x49
 2819 0e87 01       		.byte	0x1
 2820 0e88 05       		.byte	0x5
 2821 0e89 03       		.byte	0x3
 2822 0e8a 00000000 		.4byte	OUT_X_L
 2823 0e8e 36       		.uleb128 0x36
 2824 0e8f AA030000 		.4byte	.LASF148
 2825 0e93 01       		.byte	0x1
 2826 0e94 68       		.byte	0x68
 2827 0e95 49000000 		.4byte	0x49
 2828 0e99 01       		.byte	0x1
 2829 0e9a 05       		.byte	0x5
 2830 0e9b 03       		.byte	0x3
 2831 0e9c 00000000 		.4byte	OUT_X_H
 2832 0ea0 36       		.uleb128 0x36
 2833 0ea1 B7010000 		.4byte	.LASF149
 2834 0ea5 01       		.byte	0x1
 2835 0ea6 69       		.byte	0x69
 2836 0ea7 49000000 		.4byte	0x49
 2837 0eab 01       		.byte	0x1
 2838 0eac 05       		.byte	0x5
 2839 0ead 03       		.byte	0x3
 2840 0eae 00000000 		.4byte	OUT_Y_L
 2841 0eb2 36       		.uleb128 0x36
 2842 0eb3 67000000 		.4byte	.LASF150
 2843 0eb7 01       		.byte	0x1
 2844 0eb8 69       		.byte	0x69
 2845 0eb9 49000000 		.4byte	0x49
 2846 0ebd 01       		.byte	0x1
 2847 0ebe 05       		.byte	0x5
 2848 0ebf 03       		.byte	0x3
 2849 0ec0 00000000 		.4byte	OUT_Y_H
 2850 0ec4 36       		.uleb128 0x36
 2851 0ec5 2C060000 		.4byte	.LASF151
 2852 0ec9 01       		.byte	0x1
 2853 0eca 6A       		.byte	0x6a
 2854 0ecb 49000000 		.4byte	0x49
 2855 0ecf 01       		.byte	0x1
 2856 0ed0 05       		.byte	0x5
 2857 0ed1 03       		.byte	0x3
 2858 0ed2 00000000 		.4byte	OUT_Z_L
 2859 0ed6 36       		.uleb128 0x36
 2860 0ed7 24060000 		.4byte	.LASF152
 2861 0edb 01       		.byte	0x1
 2862 0edc 6A       		.byte	0x6a
 2863 0edd 49000000 		.4byte	0x49
 2864 0ee1 01       		.byte	0x1
 2865 0ee2 05       		.byte	0x5
 2866 0ee3 03       		.byte	0x3
 2867 0ee4 00000000 		.4byte	OUT_Z_H
ARM GAS  C:\Users\TaisikHam\AppData\Local\Temp\cc7fj03B.s 			page 52


 2868 0ee8 36       		.uleb128 0x36
 2869 0ee9 2B030000 		.4byte	.LASF153
 2870 0eed 01       		.byte	0x1
 2871 0eee 6B       		.byte	0x6b
 2872 0eef 49000000 		.4byte	0x49
 2873 0ef3 01       		.byte	0x1
 2874 0ef4 05       		.byte	0x5
 2875 0ef5 03       		.byte	0x3
 2876 0ef6 00000000 		.4byte	WHO_AM_I
 2877 0efa 37       		.uleb128 0x37
 2878 0efb 675800   		.ascii	"gX\000"
 2879 0efe 01       		.byte	0x1
 2880 0eff 6D       		.byte	0x6d
 2881 0f00 62000000 		.4byte	0x62
 2882 0f04 01       		.byte	0x1
 2883 0f05 05       		.byte	0x5
 2884 0f06 03       		.byte	0x3
 2885 0f07 00000000 		.4byte	gX
 2886 0f0b 37       		.uleb128 0x37
 2887 0f0c 675900   		.ascii	"gY\000"
 2888 0f0f 01       		.byte	0x1
 2889 0f10 6D       		.byte	0x6d
 2890 0f11 62000000 		.4byte	0x62
 2891 0f15 01       		.byte	0x1
 2892 0f16 05       		.byte	0x5
 2893 0f17 03       		.byte	0x3
 2894 0f18 00000000 		.4byte	gY
 2895 0f1c 37       		.uleb128 0x37
 2896 0f1d 675A00   		.ascii	"gZ\000"
 2897 0f20 01       		.byte	0x1
 2898 0f21 6D       		.byte	0x6d
 2899 0f22 62000000 		.4byte	0x62
 2900 0f26 01       		.byte	0x1
 2901 0f27 05       		.byte	0x5
 2902 0f28 03       		.byte	0x3
 2903 0f29 00000000 		.4byte	gZ
 2904 0f2d 37       		.uleb128 0x37
 2905 0f2e 6C687800 		.ascii	"lhx\000"
 2906 0f32 01       		.byte	0x1
 2907 0f33 6E       		.byte	0x6e
 2908 0f34 49000000 		.4byte	0x49
 2909 0f38 01       		.byte	0x1
 2910 0f39 05       		.byte	0x5
 2911 0f3a 03       		.byte	0x3
 2912 0f3b 00000000 		.4byte	lhx
 2913 0f3f 37       		.uleb128 0x37
 2914 0f40 6C6C7800 		.ascii	"llx\000"
 2915 0f44 01       		.byte	0x1
 2916 0f45 6E       		.byte	0x6e
 2917 0f46 49000000 		.4byte	0x49
 2918 0f4a 01       		.byte	0x1
 2919 0f4b 05       		.byte	0x5
 2920 0f4c 03       		.byte	0x3
 2921 0f4d 00000000 		.4byte	llx
 2922 0f51 37       		.uleb128 0x37
 2923 0f52 6C6C7900 		.ascii	"lly\000"
 2924 0f56 01       		.byte	0x1
ARM GAS  C:\Users\TaisikHam\AppData\Local\Temp\cc7fj03B.s 			page 53


 2925 0f57 6E       		.byte	0x6e
 2926 0f58 49000000 		.4byte	0x49
 2927 0f5c 01       		.byte	0x1
 2928 0f5d 05       		.byte	0x5
 2929 0f5e 03       		.byte	0x3
 2930 0f5f 00000000 		.4byte	lly
 2931 0f63 37       		.uleb128 0x37
 2932 0f64 6C687900 		.ascii	"lhy\000"
 2933 0f68 01       		.byte	0x1
 2934 0f69 6E       		.byte	0x6e
 2935 0f6a 49000000 		.4byte	0x49
 2936 0f6e 01       		.byte	0x1
 2937 0f6f 05       		.byte	0x5
 2938 0f70 03       		.byte	0x3
 2939 0f71 00000000 		.4byte	lhy
 2940 0f75 37       		.uleb128 0x37
 2941 0f76 6C6C7A00 		.ascii	"llz\000"
 2942 0f7a 01       		.byte	0x1
 2943 0f7b 6E       		.byte	0x6e
 2944 0f7c 49000000 		.4byte	0x49
 2945 0f80 01       		.byte	0x1
 2946 0f81 05       		.byte	0x5
 2947 0f82 03       		.byte	0x3
 2948 0f83 00000000 		.4byte	llz
 2949 0f87 37       		.uleb128 0x37
 2950 0f88 6C687A00 		.ascii	"lhz\000"
 2951 0f8c 01       		.byte	0x1
 2952 0f8d 6E       		.byte	0x6e
 2953 0f8e 49000000 		.4byte	0x49
 2954 0f92 01       		.byte	0x1
 2955 0f93 05       		.byte	0x5
 2956 0f94 03       		.byte	0x3
 2957 0f95 00000000 		.4byte	lhz
 2958 0f99 36       		.uleb128 0x36
 2959 0f9a 01030000 		.4byte	.LASF154
 2960 0f9e 01       		.byte	0x1
 2961 0f9f D8       		.byte	0xd8
 2962 0fa0 B4040000 		.4byte	0x4b4
 2963 0fa4 01       		.byte	0x1
 2964 0fa5 05       		.byte	0x5
 2965 0fa6 03       		.byte	0x3
 2966 0fa7 00000000 		.4byte	gRegStatus
 2967 0fab 38       		.uleb128 0x38
 2968 0fac 01       		.byte	0x1
 2969 0fad 4C060000 		.4byte	.LASF155
 2970 0fb1 0D       		.byte	0xd
 2971 0fb2 3801     		.2byte	0x138
 2972 0fb4 01       		.byte	0x1
 2973 0fb5 01       		.byte	0x1
 2974 0fb6 C00F0000 		.4byte	0xfc0
 2975 0fba 12       		.uleb128 0x12
 2976 0fbb 97080000 		.4byte	0x897
 2977 0fbf 00       		.byte	0
 2978 0fc0 38       		.uleb128 0x38
 2979 0fc1 01       		.byte	0x1
 2980 0fc2 76050000 		.4byte	.LASF156
 2981 0fc6 0D       		.byte	0xd
ARM GAS  C:\Users\TaisikHam\AppData\Local\Temp\cc7fj03B.s 			page 54


 2982 0fc7 3901     		.2byte	0x139
 2983 0fc9 01       		.byte	0x1
 2984 0fca 01       		.byte	0x1
 2985 0fcb D50F0000 		.4byte	0xfd5
 2986 0fcf 12       		.uleb128 0x12
 2987 0fd0 97080000 		.4byte	0x897
 2988 0fd4 00       		.byte	0
 2989 0fd5 38       		.uleb128 0x38
 2990 0fd6 01       		.byte	0x1
 2991 0fd7 E0050000 		.4byte	.LASF157
 2992 0fdb 06       		.byte	0x6
 2993 0fdc 6E01     		.2byte	0x16e
 2994 0fde 01       		.byte	0x1
 2995 0fdf 01       		.byte	0x1
 2996 0fe0 EA0F0000 		.4byte	0xfea
 2997 0fe4 12       		.uleb128 0x12
 2998 0fe5 05010000 		.4byte	0x105
 2999 0fe9 00       		.byte	0
 3000 0fea 38       		.uleb128 0x38
 3001 0feb 01       		.byte	0x1
 3002 0fec D6040000 		.4byte	.LASF158
 3003 0ff0 10       		.byte	0x10
 3004 0ff1 8D01     		.2byte	0x18d
 3005 0ff3 01       		.byte	0x1
 3006 0ff4 01       		.byte	0x1
 3007 0ff5 09100000 		.4byte	0x1009
 3008 0ff9 12       		.uleb128 0x12
 3009 0ffa A4040000 		.4byte	0x4a4
 3010 0ffe 12       		.uleb128 0x12
 3011 0fff A4040000 		.4byte	0x4a4
 3012 1003 12       		.uleb128 0x12
 3013 1004 62000000 		.4byte	0x62
 3014 1008 00       		.byte	0
 3015 1009 38       		.uleb128 0x38
 3016 100a 01       		.byte	0x1
 3017 100b 9F050000 		.4byte	.LASF159
 3018 100f 0D       		.byte	0xd
 3019 1010 2801     		.2byte	0x128
 3020 1012 01       		.byte	0x1
 3021 1013 01       		.byte	0x1
 3022 1014 23100000 		.4byte	0x1023
 3023 1018 12       		.uleb128 0x12
 3024 1019 97080000 		.4byte	0x897
 3025 101d 12       		.uleb128 0x12
 3026 101e FE080000 		.4byte	0x8fe
 3027 1022 00       		.byte	0
 3028 1023 38       		.uleb128 0x38
 3029 1024 01       		.byte	0x1
 3030 1025 A8000000 		.4byte	.LASF160
 3031 1029 0D       		.byte	0xd
 3032 102a 2A01     		.2byte	0x12a
 3033 102c 01       		.byte	0x1
 3034 102d 01       		.byte	0x1
 3035 102e 38100000 		.4byte	0x1038
 3036 1032 12       		.uleb128 0x12
 3037 1033 97080000 		.4byte	0x897
 3038 1037 00       		.byte	0
ARM GAS  C:\Users\TaisikHam\AppData\Local\Temp\cc7fj03B.s 			page 55


 3039 1038 38       		.uleb128 0x38
 3040 1039 01       		.byte	0x1
 3041 103a BD020000 		.4byte	.LASF161
 3042 103e 10       		.byte	0x10
 3043 103f 8E01     		.2byte	0x18e
 3044 1041 01       		.byte	0x1
 3045 1042 01       		.byte	0x1
 3046 1043 57100000 		.4byte	0x1057
 3047 1047 12       		.uleb128 0x12
 3048 1048 A4040000 		.4byte	0x4a4
 3049 104c 12       		.uleb128 0x12
 3050 104d A4040000 		.4byte	0x4a4
 3051 1051 12       		.uleb128 0x12
 3052 1052 62000000 		.4byte	0x62
 3053 1056 00       		.byte	0
 3054 1057 38       		.uleb128 0x38
 3055 1058 01       		.byte	0x1
 3056 1059 F2010000 		.4byte	.LASF162
 3057 105d 0D       		.byte	0xd
 3058 105e 2B01     		.2byte	0x12b
 3059 1060 01       		.byte	0x1
 3060 1061 01       		.byte	0x1
 3061 1062 6C100000 		.4byte	0x106c
 3062 1066 12       		.uleb128 0x12
 3063 1067 97080000 		.4byte	0x897
 3064 106b 00       		.byte	0
 3065 106c 39       		.uleb128 0x39
 3066 106d 01       		.byte	0x1
 3067 106e 78020000 		.4byte	.LASF163
 3068 1072 11       		.byte	0x11
 3069 1073 C9       		.byte	0xc9
 3070 1074 01       		.byte	0x1
 3071 1075 01       		.byte	0x1
 3072 1076 39       		.uleb128 0x39
 3073 1077 01       		.byte	0x1
 3074 1078 DE000000 		.4byte	.LASF164
 3075 107c 12       		.byte	0x12
 3076 107d EF       		.byte	0xef
 3077 107e 01       		.byte	0x1
 3078 107f 01       		.byte	0x1
 3079 1080 38       		.uleb128 0x38
 3080 1081 01       		.byte	0x1
 3081 1082 D4050000 		.4byte	.LASF165
 3082 1086 10       		.byte	0x10
 3083 1087 8101     		.2byte	0x181
 3084 1089 01       		.byte	0x1
 3085 108a 01       		.byte	0x1
 3086 108b 9A100000 		.4byte	0x109a
 3087 108f 12       		.uleb128 0x12
 3088 1090 97080000 		.4byte	0x897
 3089 1094 12       		.uleb128 0x12
 3090 1095 9A100000 		.4byte	0x109a
 3091 1099 00       		.byte	0
 3092 109a 09       		.uleb128 0x9
 3093 109b 04       		.byte	0x4
 3094 109c F2080000 		.4byte	0x8f2
 3095 10a0 3A       		.uleb128 0x3a
ARM GAS  C:\Users\TaisikHam\AppData\Local\Temp\cc7fj03B.s 			page 56


 3096 10a1 01       		.byte	0x1
 3097 10a2 0C030000 		.4byte	.LASF166
 3098 10a6 06       		.byte	0x6
 3099 10a7 6901     		.2byte	0x169
 3100 10a9 01       		.byte	0x1
 3101 10aa 73020000 		.4byte	0x273
 3102 10ae 01       		.byte	0x1
 3103 10af 12       		.uleb128 0x12
 3104 10b0 B1020000 		.4byte	0x2b1
 3105 10b4 12       		.uleb128 0x12
 3106 10b5 30000000 		.4byte	0x30
 3107 10b9 12       		.uleb128 0x12
 3108 10ba E4000000 		.4byte	0xe4
 3109 10be 12       		.uleb128 0x12
 3110 10bf 83040000 		.4byte	0x483
 3111 10c3 12       		.uleb128 0x12
 3112 10c4 B1020000 		.4byte	0x2b1
 3113 10c8 00       		.byte	0
 3114 10c9 00       		.byte	0
 3115              		.section	.debug_abbrev,"",%progbits
 3116              	.Ldebug_abbrev0:
 3117 0000 01       		.uleb128 0x1
 3118 0001 11       		.uleb128 0x11
 3119 0002 01       		.byte	0x1
 3120 0003 25       		.uleb128 0x25
 3121 0004 0E       		.uleb128 0xe
 3122 0005 13       		.uleb128 0x13
 3123 0006 0B       		.uleb128 0xb
 3124 0007 03       		.uleb128 0x3
 3125 0008 0E       		.uleb128 0xe
 3126 0009 1B       		.uleb128 0x1b
 3127 000a 0E       		.uleb128 0xe
 3128 000b 55       		.uleb128 0x55
 3129 000c 06       		.uleb128 0x6
 3130 000d 11       		.uleb128 0x11
 3131 000e 01       		.uleb128 0x1
 3132 000f 52       		.uleb128 0x52
 3133 0010 01       		.uleb128 0x1
 3134 0011 10       		.uleb128 0x10
 3135 0012 06       		.uleb128 0x6
 3136 0013 00       		.byte	0
 3137 0014 00       		.byte	0
 3138 0015 02       		.uleb128 0x2
 3139 0016 24       		.uleb128 0x24
 3140 0017 00       		.byte	0
 3141 0018 0B       		.uleb128 0xb
 3142 0019 0B       		.uleb128 0xb
 3143 001a 3E       		.uleb128 0x3e
 3144 001b 0B       		.uleb128 0xb
 3145 001c 03       		.uleb128 0x3
 3146 001d 08       		.uleb128 0x8
 3147 001e 00       		.byte	0
 3148 001f 00       		.byte	0
 3149 0020 03       		.uleb128 0x3
 3150 0021 16       		.uleb128 0x16
 3151 0022 00       		.byte	0
 3152 0023 03       		.uleb128 0x3
ARM GAS  C:\Users\TaisikHam\AppData\Local\Temp\cc7fj03B.s 			page 57


 3153 0024 0E       		.uleb128 0xe
 3154 0025 3A       		.uleb128 0x3a
 3155 0026 0B       		.uleb128 0xb
 3156 0027 3B       		.uleb128 0x3b
 3157 0028 0B       		.uleb128 0xb
 3158 0029 49       		.uleb128 0x49
 3159 002a 13       		.uleb128 0x13
 3160 002b 00       		.byte	0
 3161 002c 00       		.byte	0
 3162 002d 04       		.uleb128 0x4
 3163 002e 24       		.uleb128 0x24
 3164 002f 00       		.byte	0
 3165 0030 0B       		.uleb128 0xb
 3166 0031 0B       		.uleb128 0xb
 3167 0032 3E       		.uleb128 0x3e
 3168 0033 0B       		.uleb128 0xb
 3169 0034 03       		.uleb128 0x3
 3170 0035 0E       		.uleb128 0xe
 3171 0036 00       		.byte	0
 3172 0037 00       		.byte	0
 3173 0038 05       		.uleb128 0x5
 3174 0039 13       		.uleb128 0x13
 3175 003a 01       		.byte	0x1
 3176 003b 03       		.uleb128 0x3
 3177 003c 0E       		.uleb128 0xe
 3178 003d 0B       		.uleb128 0xb
 3179 003e 0B       		.uleb128 0xb
 3180 003f 3A       		.uleb128 0x3a
 3181 0040 0B       		.uleb128 0xb
 3182 0041 3B       		.uleb128 0x3b
 3183 0042 0B       		.uleb128 0xb
 3184 0043 01       		.uleb128 0x1
 3185 0044 13       		.uleb128 0x13
 3186 0045 00       		.byte	0
 3187 0046 00       		.byte	0
 3188 0047 06       		.uleb128 0x6
 3189 0048 0D       		.uleb128 0xd
 3190 0049 00       		.byte	0
 3191 004a 03       		.uleb128 0x3
 3192 004b 0E       		.uleb128 0xe
 3193 004c 3A       		.uleb128 0x3a
 3194 004d 0B       		.uleb128 0xb
 3195 004e 3B       		.uleb128 0x3b
 3196 004f 0B       		.uleb128 0xb
 3197 0050 49       		.uleb128 0x49
 3198 0051 13       		.uleb128 0x13
 3199 0052 38       		.uleb128 0x38
 3200 0053 0A       		.uleb128 0xa
 3201 0054 00       		.byte	0
 3202 0055 00       		.byte	0
 3203 0056 07       		.uleb128 0x7
 3204 0057 0D       		.uleb128 0xd
 3205 0058 00       		.byte	0
 3206 0059 03       		.uleb128 0x3
 3207 005a 08       		.uleb128 0x8
 3208 005b 3A       		.uleb128 0x3a
 3209 005c 0B       		.uleb128 0xb
ARM GAS  C:\Users\TaisikHam\AppData\Local\Temp\cc7fj03B.s 			page 58


 3210 005d 3B       		.uleb128 0x3b
 3211 005e 0B       		.uleb128 0xb
 3212 005f 49       		.uleb128 0x49
 3213 0060 13       		.uleb128 0x13
 3214 0061 38       		.uleb128 0x38
 3215 0062 0A       		.uleb128 0xa
 3216 0063 00       		.byte	0
 3217 0064 00       		.byte	0
 3218 0065 08       		.uleb128 0x8
 3219 0066 13       		.uleb128 0x13
 3220 0067 01       		.byte	0x1
 3221 0068 0B       		.uleb128 0xb
 3222 0069 0B       		.uleb128 0xb
 3223 006a 3A       		.uleb128 0x3a
 3224 006b 0B       		.uleb128 0xb
 3225 006c 3B       		.uleb128 0x3b
 3226 006d 0B       		.uleb128 0xb
 3227 006e 01       		.uleb128 0x1
 3228 006f 13       		.uleb128 0x13
 3229 0070 00       		.byte	0
 3230 0071 00       		.byte	0
 3231 0072 09       		.uleb128 0x9
 3232 0073 0F       		.uleb128 0xf
 3233 0074 00       		.byte	0
 3234 0075 0B       		.uleb128 0xb
 3235 0076 0B       		.uleb128 0xb
 3236 0077 49       		.uleb128 0x49
 3237 0078 13       		.uleb128 0x13
 3238 0079 00       		.byte	0
 3239 007a 00       		.byte	0
 3240 007b 0A       		.uleb128 0xa
 3241 007c 0F       		.uleb128 0xf
 3242 007d 00       		.byte	0
 3243 007e 0B       		.uleb128 0xb
 3244 007f 0B       		.uleb128 0xb
 3245 0080 00       		.byte	0
 3246 0081 00       		.byte	0
 3247 0082 0B       		.uleb128 0xb
 3248 0083 13       		.uleb128 0x13
 3249 0084 01       		.byte	0x1
 3250 0085 03       		.uleb128 0x3
 3251 0086 0E       		.uleb128 0xe
 3252 0087 0B       		.uleb128 0xb
 3253 0088 0B       		.uleb128 0xb
 3254 0089 3A       		.uleb128 0x3a
 3255 008a 0B       		.uleb128 0xb
 3256 008b 3B       		.uleb128 0x3b
 3257 008c 05       		.uleb128 0x5
 3258 008d 01       		.uleb128 0x1
 3259 008e 13       		.uleb128 0x13
 3260 008f 00       		.byte	0
 3261 0090 00       		.byte	0
 3262 0091 0C       		.uleb128 0xc
 3263 0092 0D       		.uleb128 0xd
 3264 0093 00       		.byte	0
 3265 0094 03       		.uleb128 0x3
 3266 0095 08       		.uleb128 0x8
ARM GAS  C:\Users\TaisikHam\AppData\Local\Temp\cc7fj03B.s 			page 59


 3267 0096 3A       		.uleb128 0x3a
 3268 0097 0B       		.uleb128 0xb
 3269 0098 3B       		.uleb128 0x3b
 3270 0099 05       		.uleb128 0x5
 3271 009a 49       		.uleb128 0x49
 3272 009b 13       		.uleb128 0x13
 3273 009c 38       		.uleb128 0x38
 3274 009d 0A       		.uleb128 0xa
 3275 009e 00       		.byte	0
 3276 009f 00       		.byte	0
 3277 00a0 0D       		.uleb128 0xd
 3278 00a1 35       		.uleb128 0x35
 3279 00a2 00       		.byte	0
 3280 00a3 49       		.uleb128 0x49
 3281 00a4 13       		.uleb128 0x13
 3282 00a5 00       		.byte	0
 3283 00a6 00       		.byte	0
 3284 00a7 0E       		.uleb128 0xe
 3285 00a8 17       		.uleb128 0x17
 3286 00a9 01       		.byte	0x1
 3287 00aa 0B       		.uleb128 0xb
 3288 00ab 0B       		.uleb128 0xb
 3289 00ac 3A       		.uleb128 0x3a
 3290 00ad 0B       		.uleb128 0xb
 3291 00ae 3B       		.uleb128 0x3b
 3292 00af 0B       		.uleb128 0xb
 3293 00b0 01       		.uleb128 0x1
 3294 00b1 13       		.uleb128 0x13
 3295 00b2 00       		.byte	0
 3296 00b3 00       		.byte	0
 3297 00b4 0F       		.uleb128 0xf
 3298 00b5 0D       		.uleb128 0xd
 3299 00b6 00       		.byte	0
 3300 00b7 03       		.uleb128 0x3
 3301 00b8 0E       		.uleb128 0xe
 3302 00b9 3A       		.uleb128 0x3a
 3303 00ba 0B       		.uleb128 0xb
 3304 00bb 3B       		.uleb128 0x3b
 3305 00bc 0B       		.uleb128 0xb
 3306 00bd 49       		.uleb128 0x49
 3307 00be 13       		.uleb128 0x13
 3308 00bf 00       		.byte	0
 3309 00c0 00       		.byte	0
 3310 00c1 10       		.uleb128 0x10
 3311 00c2 26       		.uleb128 0x26
 3312 00c3 00       		.byte	0
 3313 00c4 49       		.uleb128 0x49
 3314 00c5 13       		.uleb128 0x13
 3315 00c6 00       		.byte	0
 3316 00c7 00       		.byte	0
 3317 00c8 11       		.uleb128 0x11
 3318 00c9 15       		.uleb128 0x15
 3319 00ca 01       		.byte	0x1
 3320 00cb 27       		.uleb128 0x27
 3321 00cc 0C       		.uleb128 0xc
 3322 00cd 49       		.uleb128 0x49
 3323 00ce 13       		.uleb128 0x13
ARM GAS  C:\Users\TaisikHam\AppData\Local\Temp\cc7fj03B.s 			page 60


 3324 00cf 01       		.uleb128 0x1
 3325 00d0 13       		.uleb128 0x13
 3326 00d1 00       		.byte	0
 3327 00d2 00       		.byte	0
 3328 00d3 12       		.uleb128 0x12
 3329 00d4 05       		.uleb128 0x5
 3330 00d5 00       		.byte	0
 3331 00d6 49       		.uleb128 0x49
 3332 00d7 13       		.uleb128 0x13
 3333 00d8 00       		.byte	0
 3334 00d9 00       		.byte	0
 3335 00da 13       		.uleb128 0x13
 3336 00db 13       		.uleb128 0x13
 3337 00dc 01       		.byte	0x1
 3338 00dd 0B       		.uleb128 0xb
 3339 00de 0B       		.uleb128 0xb
 3340 00df 3A       		.uleb128 0x3a
 3341 00e0 0B       		.uleb128 0xb
 3342 00e1 3B       		.uleb128 0x3b
 3343 00e2 05       		.uleb128 0x5
 3344 00e3 01       		.uleb128 0x1
 3345 00e4 13       		.uleb128 0x13
 3346 00e5 00       		.byte	0
 3347 00e6 00       		.byte	0
 3348 00e7 14       		.uleb128 0x14
 3349 00e8 0D       		.uleb128 0xd
 3350 00e9 00       		.byte	0
 3351 00ea 03       		.uleb128 0x3
 3352 00eb 0E       		.uleb128 0xe
 3353 00ec 3A       		.uleb128 0x3a
 3354 00ed 0B       		.uleb128 0xb
 3355 00ee 3B       		.uleb128 0x3b
 3356 00ef 05       		.uleb128 0x5
 3357 00f0 49       		.uleb128 0x49
 3358 00f1 13       		.uleb128 0x13
 3359 00f2 38       		.uleb128 0x38
 3360 00f3 0A       		.uleb128 0xa
 3361 00f4 00       		.byte	0
 3362 00f5 00       		.byte	0
 3363 00f6 15       		.uleb128 0x15
 3364 00f7 16       		.uleb128 0x16
 3365 00f8 00       		.byte	0
 3366 00f9 03       		.uleb128 0x3
 3367 00fa 0E       		.uleb128 0xe
 3368 00fb 3A       		.uleb128 0x3a
 3369 00fc 0B       		.uleb128 0xb
 3370 00fd 3B       		.uleb128 0x3b
 3371 00fe 05       		.uleb128 0x5
 3372 00ff 49       		.uleb128 0x49
 3373 0100 13       		.uleb128 0x13
 3374 0101 00       		.byte	0
 3375 0102 00       		.byte	0
 3376 0103 16       		.uleb128 0x16
 3377 0104 17       		.uleb128 0x17
 3378 0105 01       		.byte	0x1
 3379 0106 0B       		.uleb128 0xb
 3380 0107 0B       		.uleb128 0xb
ARM GAS  C:\Users\TaisikHam\AppData\Local\Temp\cc7fj03B.s 			page 61


 3381 0108 3A       		.uleb128 0x3a
 3382 0109 0B       		.uleb128 0xb
 3383 010a 3B       		.uleb128 0x3b
 3384 010b 05       		.uleb128 0x5
 3385 010c 01       		.uleb128 0x1
 3386 010d 13       		.uleb128 0x13
 3387 010e 00       		.byte	0
 3388 010f 00       		.byte	0
 3389 0110 17       		.uleb128 0x17
 3390 0111 0D       		.uleb128 0xd
 3391 0112 00       		.byte	0
 3392 0113 03       		.uleb128 0x3
 3393 0114 08       		.uleb128 0x8
 3394 0115 3A       		.uleb128 0x3a
 3395 0116 0B       		.uleb128 0xb
 3396 0117 3B       		.uleb128 0x3b
 3397 0118 05       		.uleb128 0x5
 3398 0119 49       		.uleb128 0x49
 3399 011a 13       		.uleb128 0x13
 3400 011b 00       		.byte	0
 3401 011c 00       		.byte	0
 3402 011d 18       		.uleb128 0x18
 3403 011e 04       		.uleb128 0x4
 3404 011f 01       		.byte	0x1
 3405 0120 0B       		.uleb128 0xb
 3406 0121 0B       		.uleb128 0xb
 3407 0122 3A       		.uleb128 0x3a
 3408 0123 0B       		.uleb128 0xb
 3409 0124 3B       		.uleb128 0x3b
 3410 0125 0B       		.uleb128 0xb
 3411 0126 01       		.uleb128 0x1
 3412 0127 13       		.uleb128 0x13
 3413 0128 00       		.byte	0
 3414 0129 00       		.byte	0
 3415 012a 19       		.uleb128 0x19
 3416 012b 28       		.uleb128 0x28
 3417 012c 00       		.byte	0
 3418 012d 03       		.uleb128 0x3
 3419 012e 0E       		.uleb128 0xe
 3420 012f 1C       		.uleb128 0x1c
 3421 0130 0D       		.uleb128 0xd
 3422 0131 00       		.byte	0
 3423 0132 00       		.byte	0
 3424 0133 1A       		.uleb128 0x1a
 3425 0134 15       		.uleb128 0x15
 3426 0135 01       		.byte	0x1
 3427 0136 27       		.uleb128 0x27
 3428 0137 0C       		.uleb128 0xc
 3429 0138 01       		.uleb128 0x1
 3430 0139 13       		.uleb128 0x13
 3431 013a 00       		.byte	0
 3432 013b 00       		.byte	0
 3433 013c 1B       		.uleb128 0x1b
 3434 013d 04       		.uleb128 0x4
 3435 013e 01       		.byte	0x1
 3436 013f 03       		.uleb128 0x3
 3437 0140 08       		.uleb128 0x8
ARM GAS  C:\Users\TaisikHam\AppData\Local\Temp\cc7fj03B.s 			page 62


 3438 0141 0B       		.uleb128 0xb
 3439 0142 0B       		.uleb128 0xb
 3440 0143 3A       		.uleb128 0x3a
 3441 0144 0B       		.uleb128 0xb
 3442 0145 3B       		.uleb128 0x3b
 3443 0146 0B       		.uleb128 0xb
 3444 0147 01       		.uleb128 0x1
 3445 0148 13       		.uleb128 0x13
 3446 0149 00       		.byte	0
 3447 014a 00       		.byte	0
 3448 014b 1C       		.uleb128 0x1c
 3449 014c 28       		.uleb128 0x28
 3450 014d 00       		.byte	0
 3451 014e 03       		.uleb128 0x3
 3452 014f 08       		.uleb128 0x8
 3453 0150 1C       		.uleb128 0x1c
 3454 0151 0D       		.uleb128 0xd
 3455 0152 00       		.byte	0
 3456 0153 00       		.byte	0
 3457 0154 1D       		.uleb128 0x1d
 3458 0155 2E       		.uleb128 0x2e
 3459 0156 01       		.byte	0x1
 3460 0157 3F       		.uleb128 0x3f
 3461 0158 0C       		.uleb128 0xc
 3462 0159 03       		.uleb128 0x3
 3463 015a 0E       		.uleb128 0xe
 3464 015b 3A       		.uleb128 0x3a
 3465 015c 0B       		.uleb128 0xb
 3466 015d 3B       		.uleb128 0x3b
 3467 015e 0B       		.uleb128 0xb
 3468 015f 27       		.uleb128 0x27
 3469 0160 0C       		.uleb128 0xc
 3470 0161 49       		.uleb128 0x49
 3471 0162 13       		.uleb128 0x13
 3472 0163 20       		.uleb128 0x20
 3473 0164 0B       		.uleb128 0xb
 3474 0165 01       		.uleb128 0x1
 3475 0166 13       		.uleb128 0x13
 3476 0167 00       		.byte	0
 3477 0168 00       		.byte	0
 3478 0169 1E       		.uleb128 0x1e
 3479 016a 05       		.uleb128 0x5
 3480 016b 00       		.byte	0
 3481 016c 03       		.uleb128 0x3
 3482 016d 08       		.uleb128 0x8
 3483 016e 3A       		.uleb128 0x3a
 3484 016f 0B       		.uleb128 0xb
 3485 0170 3B       		.uleb128 0x3b
 3486 0171 0B       		.uleb128 0xb
 3487 0172 49       		.uleb128 0x49
 3488 0173 13       		.uleb128 0x13
 3489 0174 00       		.byte	0
 3490 0175 00       		.byte	0
 3491 0176 1F       		.uleb128 0x1f
 3492 0177 2E       		.uleb128 0x2e
 3493 0178 01       		.byte	0x1
 3494 0179 03       		.uleb128 0x3
ARM GAS  C:\Users\TaisikHam\AppData\Local\Temp\cc7fj03B.s 			page 63


 3495 017a 0E       		.uleb128 0xe
 3496 017b 3A       		.uleb128 0x3a
 3497 017c 0B       		.uleb128 0xb
 3498 017d 3B       		.uleb128 0x3b
 3499 017e 05       		.uleb128 0x5
 3500 017f 27       		.uleb128 0x27
 3501 0180 0C       		.uleb128 0xc
 3502 0181 49       		.uleb128 0x49
 3503 0182 13       		.uleb128 0x13
 3504 0183 11       		.uleb128 0x11
 3505 0184 01       		.uleb128 0x1
 3506 0185 12       		.uleb128 0x12
 3507 0186 01       		.uleb128 0x1
 3508 0187 40       		.uleb128 0x40
 3509 0188 06       		.uleb128 0x6
 3510 0189 9742     		.uleb128 0x2117
 3511 018b 0C       		.uleb128 0xc
 3512 018c 01       		.uleb128 0x1
 3513 018d 13       		.uleb128 0x13
 3514 018e 00       		.byte	0
 3515 018f 00       		.byte	0
 3516 0190 20       		.uleb128 0x20
 3517 0191 05       		.uleb128 0x5
 3518 0192 00       		.byte	0
 3519 0193 03       		.uleb128 0x3
 3520 0194 08       		.uleb128 0x8
 3521 0195 3A       		.uleb128 0x3a
 3522 0196 0B       		.uleb128 0xb
 3523 0197 3B       		.uleb128 0x3b
 3524 0198 05       		.uleb128 0x5
 3525 0199 49       		.uleb128 0x49
 3526 019a 13       		.uleb128 0x13
 3527 019b 02       		.uleb128 0x2
 3528 019c 06       		.uleb128 0x6
 3529 019d 00       		.byte	0
 3530 019e 00       		.byte	0
 3531 019f 21       		.uleb128 0x21
 3532 01a0 898201   		.uleb128 0x4109
 3533 01a3 00       		.byte	0
 3534 01a4 11       		.uleb128 0x11
 3535 01a5 01       		.uleb128 0x1
 3536 01a6 31       		.uleb128 0x31
 3537 01a7 13       		.uleb128 0x13
 3538 01a8 00       		.byte	0
 3539 01a9 00       		.byte	0
 3540 01aa 22       		.uleb128 0x22
 3541 01ab 2E       		.uleb128 0x2e
 3542 01ac 01       		.byte	0x1
 3543 01ad 31       		.uleb128 0x31
 3544 01ae 13       		.uleb128 0x13
 3545 01af 11       		.uleb128 0x11
 3546 01b0 01       		.uleb128 0x1
 3547 01b1 12       		.uleb128 0x12
 3548 01b2 01       		.uleb128 0x1
 3549 01b3 40       		.uleb128 0x40
 3550 01b4 0A       		.uleb128 0xa
 3551 01b5 9742     		.uleb128 0x2117
ARM GAS  C:\Users\TaisikHam\AppData\Local\Temp\cc7fj03B.s 			page 64


 3552 01b7 0C       		.uleb128 0xc
 3553 01b8 01       		.uleb128 0x1
 3554 01b9 13       		.uleb128 0x13
 3555 01ba 00       		.byte	0
 3556 01bb 00       		.byte	0
 3557 01bc 23       		.uleb128 0x23
 3558 01bd 05       		.uleb128 0x5
 3559 01be 00       		.byte	0
 3560 01bf 31       		.uleb128 0x31
 3561 01c0 13       		.uleb128 0x13
 3562 01c1 02       		.uleb128 0x2
 3563 01c2 06       		.uleb128 0x6
 3564 01c3 00       		.byte	0
 3565 01c4 00       		.byte	0
 3566 01c5 24       		.uleb128 0x24
 3567 01c6 2E       		.uleb128 0x2e
 3568 01c7 01       		.byte	0x1
 3569 01c8 3F       		.uleb128 0x3f
 3570 01c9 0C       		.uleb128 0xc
 3571 01ca 03       		.uleb128 0x3
 3572 01cb 0E       		.uleb128 0xe
 3573 01cc 3A       		.uleb128 0x3a
 3574 01cd 0B       		.uleb128 0xb
 3575 01ce 3B       		.uleb128 0x3b
 3576 01cf 0B       		.uleb128 0xb
 3577 01d0 27       		.uleb128 0x27
 3578 01d1 0C       		.uleb128 0xc
 3579 01d2 11       		.uleb128 0x11
 3580 01d3 01       		.uleb128 0x1
 3581 01d4 12       		.uleb128 0x12
 3582 01d5 01       		.uleb128 0x1
 3583 01d6 40       		.uleb128 0x40
 3584 01d7 06       		.uleb128 0x6
 3585 01d8 9742     		.uleb128 0x2117
 3586 01da 0C       		.uleb128 0xc
 3587 01db 01       		.uleb128 0x1
 3588 01dc 13       		.uleb128 0x13
 3589 01dd 00       		.byte	0
 3590 01de 00       		.byte	0
 3591 01df 25       		.uleb128 0x25
 3592 01e0 05       		.uleb128 0x5
 3593 01e1 00       		.byte	0
 3594 01e2 03       		.uleb128 0x3
 3595 01e3 08       		.uleb128 0x8
 3596 01e4 3A       		.uleb128 0x3a
 3597 01e5 0B       		.uleb128 0xb
 3598 01e6 3B       		.uleb128 0x3b
 3599 01e7 0B       		.uleb128 0xb
 3600 01e8 49       		.uleb128 0x49
 3601 01e9 13       		.uleb128 0x13
 3602 01ea 02       		.uleb128 0x2
 3603 01eb 06       		.uleb128 0x6
 3604 01ec 00       		.byte	0
 3605 01ed 00       		.byte	0
 3606 01ee 26       		.uleb128 0x26
 3607 01ef 34       		.uleb128 0x34
 3608 01f0 00       		.byte	0
ARM GAS  C:\Users\TaisikHam\AppData\Local\Temp\cc7fj03B.s 			page 65


 3609 01f1 03       		.uleb128 0x3
 3610 01f2 0E       		.uleb128 0xe
 3611 01f3 3A       		.uleb128 0x3a
 3612 01f4 0B       		.uleb128 0xb
 3613 01f5 3B       		.uleb128 0x3b
 3614 01f6 0B       		.uleb128 0xb
 3615 01f7 49       		.uleb128 0x49
 3616 01f8 13       		.uleb128 0x13
 3617 01f9 02       		.uleb128 0x2
 3618 01fa 0A       		.uleb128 0xa
 3619 01fb 00       		.byte	0
 3620 01fc 00       		.byte	0
 3621 01fd 27       		.uleb128 0x27
 3622 01fe 898201   		.uleb128 0x4109
 3623 0201 01       		.byte	0x1
 3624 0202 11       		.uleb128 0x11
 3625 0203 01       		.uleb128 0x1
 3626 0204 31       		.uleb128 0x31
 3627 0205 13       		.uleb128 0x13
 3628 0206 01       		.uleb128 0x1
 3629 0207 13       		.uleb128 0x13
 3630 0208 00       		.byte	0
 3631 0209 00       		.byte	0
 3632 020a 28       		.uleb128 0x28
 3633 020b 8A8201   		.uleb128 0x410a
 3634 020e 00       		.byte	0
 3635 020f 02       		.uleb128 0x2
 3636 0210 0A       		.uleb128 0xa
 3637 0211 9142     		.uleb128 0x2111
 3638 0213 0A       		.uleb128 0xa
 3639 0214 00       		.byte	0
 3640 0215 00       		.byte	0
 3641 0216 29       		.uleb128 0x29
 3642 0217 898201   		.uleb128 0x4109
 3643 021a 01       		.byte	0x1
 3644 021b 11       		.uleb128 0x11
 3645 021c 01       		.uleb128 0x1
 3646 021d 31       		.uleb128 0x31
 3647 021e 13       		.uleb128 0x13
 3648 021f 00       		.byte	0
 3649 0220 00       		.byte	0
 3650 0221 2A       		.uleb128 0x2a
 3651 0222 2E       		.uleb128 0x2e
 3652 0223 01       		.byte	0x1
 3653 0224 3F       		.uleb128 0x3f
 3654 0225 0C       		.uleb128 0xc
 3655 0226 03       		.uleb128 0x3
 3656 0227 0E       		.uleb128 0xe
 3657 0228 3A       		.uleb128 0x3a
 3658 0229 0B       		.uleb128 0xb
 3659 022a 3B       		.uleb128 0x3b
 3660 022b 0B       		.uleb128 0xb
 3661 022c 27       		.uleb128 0x27
 3662 022d 0C       		.uleb128 0xc
 3663 022e 11       		.uleb128 0x11
 3664 022f 01       		.uleb128 0x1
 3665 0230 12       		.uleb128 0x12
ARM GAS  C:\Users\TaisikHam\AppData\Local\Temp\cc7fj03B.s 			page 66


 3666 0231 01       		.uleb128 0x1
 3667 0232 40       		.uleb128 0x40
 3668 0233 0A       		.uleb128 0xa
 3669 0234 9742     		.uleb128 0x2117
 3670 0236 0C       		.uleb128 0xc
 3671 0237 01       		.uleb128 0x1
 3672 0238 13       		.uleb128 0x13
 3673 0239 00       		.byte	0
 3674 023a 00       		.byte	0
 3675 023b 2B       		.uleb128 0x2b
 3676 023c 898201   		.uleb128 0x4109
 3677 023f 01       		.byte	0x1
 3678 0240 11       		.uleb128 0x11
 3679 0241 01       		.uleb128 0x1
 3680 0242 9542     		.uleb128 0x2115
 3681 0244 0C       		.uleb128 0xc
 3682 0245 31       		.uleb128 0x31
 3683 0246 13       		.uleb128 0x13
 3684 0247 01       		.uleb128 0x1
 3685 0248 13       		.uleb128 0x13
 3686 0249 00       		.byte	0
 3687 024a 00       		.byte	0
 3688 024b 2C       		.uleb128 0x2c
 3689 024c 898201   		.uleb128 0x4109
 3690 024f 01       		.byte	0x1
 3691 0250 11       		.uleb128 0x11
 3692 0251 01       		.uleb128 0x1
 3693 0252 9542     		.uleb128 0x2115
 3694 0254 0C       		.uleb128 0xc
 3695 0255 31       		.uleb128 0x31
 3696 0256 13       		.uleb128 0x13
 3697 0257 00       		.byte	0
 3698 0258 00       		.byte	0
 3699 0259 2D       		.uleb128 0x2d
 3700 025a 05       		.uleb128 0x5
 3701 025b 00       		.byte	0
 3702 025c 03       		.uleb128 0x3
 3703 025d 0E       		.uleb128 0xe
 3704 025e 3A       		.uleb128 0x3a
 3705 025f 0B       		.uleb128 0xb
 3706 0260 3B       		.uleb128 0x3b
 3707 0261 0B       		.uleb128 0xb
 3708 0262 49       		.uleb128 0x49
 3709 0263 13       		.uleb128 0x13
 3710 0264 02       		.uleb128 0x2
 3711 0265 0A       		.uleb128 0xa
 3712 0266 00       		.byte	0
 3713 0267 00       		.byte	0
 3714 0268 2E       		.uleb128 0x2e
 3715 0269 05       		.uleb128 0x5
 3716 026a 00       		.byte	0
 3717 026b 03       		.uleb128 0x3
 3718 026c 0E       		.uleb128 0xe
 3719 026d 3A       		.uleb128 0x3a
 3720 026e 0B       		.uleb128 0xb
 3721 026f 3B       		.uleb128 0x3b
 3722 0270 0B       		.uleb128 0xb
ARM GAS  C:\Users\TaisikHam\AppData\Local\Temp\cc7fj03B.s 			page 67


 3723 0271 49       		.uleb128 0x49
 3724 0272 13       		.uleb128 0x13
 3725 0273 02       		.uleb128 0x2
 3726 0274 06       		.uleb128 0x6
 3727 0275 00       		.byte	0
 3728 0276 00       		.byte	0
 3729 0277 2F       		.uleb128 0x2f
 3730 0278 34       		.uleb128 0x34
 3731 0279 00       		.byte	0
 3732 027a 03       		.uleb128 0x3
 3733 027b 0E       		.uleb128 0xe
 3734 027c 3A       		.uleb128 0x3a
 3735 027d 0B       		.uleb128 0xb
 3736 027e 3B       		.uleb128 0x3b
 3737 027f 0B       		.uleb128 0xb
 3738 0280 49       		.uleb128 0x49
 3739 0281 13       		.uleb128 0x13
 3740 0282 02       		.uleb128 0x2
 3741 0283 06       		.uleb128 0x6
 3742 0284 00       		.byte	0
 3743 0285 00       		.byte	0
 3744 0286 30       		.uleb128 0x30
 3745 0287 34       		.uleb128 0x34
 3746 0288 00       		.byte	0
 3747 0289 03       		.uleb128 0x3
 3748 028a 0E       		.uleb128 0xe
 3749 028b 3A       		.uleb128 0x3a
 3750 028c 0B       		.uleb128 0xb
 3751 028d 3B       		.uleb128 0x3b
 3752 028e 05       		.uleb128 0x5
 3753 028f 49       		.uleb128 0x49
 3754 0290 13       		.uleb128 0x13
 3755 0291 02       		.uleb128 0x2
 3756 0292 0A       		.uleb128 0xa
 3757 0293 00       		.byte	0
 3758 0294 00       		.byte	0
 3759 0295 31       		.uleb128 0x31
 3760 0296 2E       		.uleb128 0x2e
 3761 0297 01       		.byte	0x1
 3762 0298 3F       		.uleb128 0x3f
 3763 0299 0C       		.uleb128 0xc
 3764 029a 03       		.uleb128 0x3
 3765 029b 0E       		.uleb128 0xe
 3766 029c 3A       		.uleb128 0x3a
 3767 029d 0B       		.uleb128 0xb
 3768 029e 3B       		.uleb128 0x3b
 3769 029f 05       		.uleb128 0x5
 3770 02a0 27       		.uleb128 0x27
 3771 02a1 0C       		.uleb128 0xc
 3772 02a2 49       		.uleb128 0x49
 3773 02a3 13       		.uleb128 0x13
 3774 02a4 11       		.uleb128 0x11
 3775 02a5 01       		.uleb128 0x1
 3776 02a6 12       		.uleb128 0x12
 3777 02a7 01       		.uleb128 0x1
 3778 02a8 40       		.uleb128 0x40
 3779 02a9 06       		.uleb128 0x6
ARM GAS  C:\Users\TaisikHam\AppData\Local\Temp\cc7fj03B.s 			page 68


 3780 02aa 9742     		.uleb128 0x2117
 3781 02ac 0C       		.uleb128 0xc
 3782 02ad 01       		.uleb128 0x1
 3783 02ae 13       		.uleb128 0x13
 3784 02af 00       		.byte	0
 3785 02b0 00       		.byte	0
 3786 02b1 32       		.uleb128 0x32
 3787 02b2 01       		.uleb128 0x1
 3788 02b3 01       		.byte	0x1
 3789 02b4 49       		.uleb128 0x49
 3790 02b5 13       		.uleb128 0x13
 3791 02b6 01       		.uleb128 0x1
 3792 02b7 13       		.uleb128 0x13
 3793 02b8 00       		.byte	0
 3794 02b9 00       		.byte	0
 3795 02ba 33       		.uleb128 0x33
 3796 02bb 21       		.uleb128 0x21
 3797 02bc 00       		.byte	0
 3798 02bd 49       		.uleb128 0x49
 3799 02be 13       		.uleb128 0x13
 3800 02bf 2F       		.uleb128 0x2f
 3801 02c0 0B       		.uleb128 0xb
 3802 02c1 00       		.byte	0
 3803 02c2 00       		.byte	0
 3804 02c3 34       		.uleb128 0x34
 3805 02c4 34       		.uleb128 0x34
 3806 02c5 00       		.byte	0
 3807 02c6 03       		.uleb128 0x3
 3808 02c7 0E       		.uleb128 0xe
 3809 02c8 3A       		.uleb128 0x3a
 3810 02c9 0B       		.uleb128 0xb
 3811 02ca 3B       		.uleb128 0x3b
 3812 02cb 0B       		.uleb128 0xb
 3813 02cc 49       		.uleb128 0x49
 3814 02cd 13       		.uleb128 0x13
 3815 02ce 3F       		.uleb128 0x3f
 3816 02cf 0C       		.uleb128 0xc
 3817 02d0 3C       		.uleb128 0x3c
 3818 02d1 0C       		.uleb128 0xc
 3819 02d2 00       		.byte	0
 3820 02d3 00       		.byte	0
 3821 02d4 35       		.uleb128 0x35
 3822 02d5 34       		.uleb128 0x34
 3823 02d6 00       		.byte	0
 3824 02d7 03       		.uleb128 0x3
 3825 02d8 0E       		.uleb128 0xe
 3826 02d9 3A       		.uleb128 0x3a
 3827 02da 0B       		.uleb128 0xb
 3828 02db 3B       		.uleb128 0x3b
 3829 02dc 05       		.uleb128 0x5
 3830 02dd 49       		.uleb128 0x49
 3831 02de 13       		.uleb128 0x13
 3832 02df 3F       		.uleb128 0x3f
 3833 02e0 0C       		.uleb128 0xc
 3834 02e1 3C       		.uleb128 0x3c
 3835 02e2 0C       		.uleb128 0xc
 3836 02e3 00       		.byte	0
ARM GAS  C:\Users\TaisikHam\AppData\Local\Temp\cc7fj03B.s 			page 69


 3837 02e4 00       		.byte	0
 3838 02e5 36       		.uleb128 0x36
 3839 02e6 34       		.uleb128 0x34
 3840 02e7 00       		.byte	0
 3841 02e8 03       		.uleb128 0x3
 3842 02e9 0E       		.uleb128 0xe
 3843 02ea 3A       		.uleb128 0x3a
 3844 02eb 0B       		.uleb128 0xb
 3845 02ec 3B       		.uleb128 0x3b
 3846 02ed 0B       		.uleb128 0xb
 3847 02ee 49       		.uleb128 0x49
 3848 02ef 13       		.uleb128 0x13
 3849 02f0 3F       		.uleb128 0x3f
 3850 02f1 0C       		.uleb128 0xc
 3851 02f2 02       		.uleb128 0x2
 3852 02f3 0A       		.uleb128 0xa
 3853 02f4 00       		.byte	0
 3854 02f5 00       		.byte	0
 3855 02f6 37       		.uleb128 0x37
 3856 02f7 34       		.uleb128 0x34
 3857 02f8 00       		.byte	0
 3858 02f9 03       		.uleb128 0x3
 3859 02fa 08       		.uleb128 0x8
 3860 02fb 3A       		.uleb128 0x3a
 3861 02fc 0B       		.uleb128 0xb
 3862 02fd 3B       		.uleb128 0x3b
 3863 02fe 0B       		.uleb128 0xb
 3864 02ff 49       		.uleb128 0x49
 3865 0300 13       		.uleb128 0x13
 3866 0301 3F       		.uleb128 0x3f
 3867 0302 0C       		.uleb128 0xc
 3868 0303 02       		.uleb128 0x2
 3869 0304 0A       		.uleb128 0xa
 3870 0305 00       		.byte	0
 3871 0306 00       		.byte	0
 3872 0307 38       		.uleb128 0x38
 3873 0308 2E       		.uleb128 0x2e
 3874 0309 01       		.byte	0x1
 3875 030a 3F       		.uleb128 0x3f
 3876 030b 0C       		.uleb128 0xc
 3877 030c 03       		.uleb128 0x3
 3878 030d 0E       		.uleb128 0xe
 3879 030e 3A       		.uleb128 0x3a
 3880 030f 0B       		.uleb128 0xb
 3881 0310 3B       		.uleb128 0x3b
 3882 0311 05       		.uleb128 0x5
 3883 0312 27       		.uleb128 0x27
 3884 0313 0C       		.uleb128 0xc
 3885 0314 3C       		.uleb128 0x3c
 3886 0315 0C       		.uleb128 0xc
 3887 0316 01       		.uleb128 0x1
 3888 0317 13       		.uleb128 0x13
 3889 0318 00       		.byte	0
 3890 0319 00       		.byte	0
 3891 031a 39       		.uleb128 0x39
 3892 031b 2E       		.uleb128 0x2e
 3893 031c 00       		.byte	0
ARM GAS  C:\Users\TaisikHam\AppData\Local\Temp\cc7fj03B.s 			page 70


 3894 031d 3F       		.uleb128 0x3f
 3895 031e 0C       		.uleb128 0xc
 3896 031f 03       		.uleb128 0x3
 3897 0320 0E       		.uleb128 0xe
 3898 0321 3A       		.uleb128 0x3a
 3899 0322 0B       		.uleb128 0xb
 3900 0323 3B       		.uleb128 0x3b
 3901 0324 0B       		.uleb128 0xb
 3902 0325 27       		.uleb128 0x27
 3903 0326 0C       		.uleb128 0xc
 3904 0327 3C       		.uleb128 0x3c
 3905 0328 0C       		.uleb128 0xc
 3906 0329 00       		.byte	0
 3907 032a 00       		.byte	0
 3908 032b 3A       		.uleb128 0x3a
 3909 032c 2E       		.uleb128 0x2e
 3910 032d 01       		.byte	0x1
 3911 032e 3F       		.uleb128 0x3f
 3912 032f 0C       		.uleb128 0xc
 3913 0330 03       		.uleb128 0x3
 3914 0331 0E       		.uleb128 0xe
 3915 0332 3A       		.uleb128 0x3a
 3916 0333 0B       		.uleb128 0xb
 3917 0334 3B       		.uleb128 0x3b
 3918 0335 05       		.uleb128 0x5
 3919 0336 27       		.uleb128 0x27
 3920 0337 0C       		.uleb128 0xc
 3921 0338 49       		.uleb128 0x49
 3922 0339 13       		.uleb128 0x13
 3923 033a 3C       		.uleb128 0x3c
 3924 033b 0C       		.uleb128 0xc
 3925 033c 00       		.byte	0
 3926 033d 00       		.byte	0
 3927 033e 00       		.byte	0
 3928              		.section	.debug_loc,"",%progbits
 3929              	.Ldebug_loc0:
 3930              	.LLST0:
 3931 0000 00000000 		.4byte	.LFB123
 3932 0004 02000000 		.4byte	.LCFI0
 3933 0008 0200     		.2byte	0x2
 3934 000a 7D       		.byte	0x7d
 3935 000b 00       		.sleb128 0
 3936 000c 02000000 		.4byte	.LCFI0
 3937 0010 24000000 		.4byte	.LFE123
 3938 0014 0200     		.2byte	0x2
 3939 0016 7D       		.byte	0x7d
 3940 0017 08       		.sleb128 8
 3941 0018 00000000 		.4byte	0
 3942 001c 00000000 		.4byte	0
 3943              	.LLST1:
 3944 0020 00000000 		.4byte	.LVL0
 3945 0024 0A000000 		.4byte	.LVL1
 3946 0028 0100     		.2byte	0x1
 3947 002a 50       		.byte	0x50
 3948 002b 0A000000 		.4byte	.LVL1
 3949 002f 24000000 		.4byte	.LFE123
 3950 0033 0400     		.2byte	0x4
ARM GAS  C:\Users\TaisikHam\AppData\Local\Temp\cc7fj03B.s 			page 71


 3951 0035 F3       		.byte	0xf3
 3952 0036 01       		.uleb128 0x1
 3953 0037 50       		.byte	0x50
 3954 0038 9F       		.byte	0x9f
 3955 0039 00000000 		.4byte	0
 3956 003d 00000000 		.4byte	0
 3957              	.LLST2:
 3958 0041 00000000 		.4byte	.LVL4
 3959 0045 00000000 		.4byte	.LVL4
 3960 0049 0100     		.2byte	0x1
 3961 004b 50       		.byte	0x50
 3962 004c 00000000 		.4byte	.LVL4
 3963 0050 04000000 		.4byte	.LFE118
 3964 0054 0200     		.2byte	0x2
 3965 0056 31       		.byte	0x31
 3966 0057 9F       		.byte	0x9f
 3967 0058 00000000 		.4byte	0
 3968 005c 00000000 		.4byte	0
 3969              	.LLST3:
 3970 0060 00000000 		.4byte	.LFB119
 3971 0064 02000000 		.4byte	.LCFI1
 3972 0068 0200     		.2byte	0x2
 3973 006a 7D       		.byte	0x7d
 3974 006b 00       		.sleb128 0
 3975 006c 02000000 		.4byte	.LCFI1
 3976 0070 54000000 		.4byte	.LFE119
 3977 0074 0200     		.2byte	0x2
 3978 0076 7D       		.byte	0x7d
 3979 0077 10       		.sleb128 16
 3980 0078 00000000 		.4byte	0
 3981 007c 00000000 		.4byte	0
 3982              	.LLST4:
 3983 0080 00000000 		.4byte	.LVL5
 3984 0084 1C000000 		.4byte	.LVL6
 3985 0088 0100     		.2byte	0x1
 3986 008a 50       		.byte	0x50
 3987 008b 1C000000 		.4byte	.LVL6
 3988 008f 27000000 		.4byte	.LVL7-1
 3989 0093 0500     		.2byte	0x5
 3990 0095 03       		.byte	0x3
 3991 0096 00000000 		.4byte	cur_pos.6389
 3992 009a 27000000 		.4byte	.LVL7-1
 3993 009e 54000000 		.4byte	.LFE119
 3994 00a2 0400     		.2byte	0x4
 3995 00a4 F3       		.byte	0xf3
 3996 00a5 01       		.uleb128 0x1
 3997 00a6 50       		.byte	0x50
 3998 00a7 9F       		.byte	0x9f
 3999 00a8 00000000 		.4byte	0
 4000 00ac 00000000 		.4byte	0
 4001              	.LLST5:
 4002 00b0 00000000 		.4byte	.LFB121
 4003 00b4 02000000 		.4byte	.LCFI2
 4004 00b8 0200     		.2byte	0x2
 4005 00ba 7D       		.byte	0x7d
 4006 00bb 00       		.sleb128 0
 4007 00bc 02000000 		.4byte	.LCFI2
ARM GAS  C:\Users\TaisikHam\AppData\Local\Temp\cc7fj03B.s 			page 72


 4008 00c0 08000000 		.4byte	.LCFI3
 4009 00c4 0200     		.2byte	0x2
 4010 00c6 7D       		.byte	0x7d
 4011 00c7 0C       		.sleb128 12
 4012 00c8 08000000 		.4byte	.LCFI3
 4013 00cc 44000000 		.4byte	.LFE121
 4014 00d0 0200     		.2byte	0x2
 4015 00d2 7D       		.byte	0x7d
 4016 00d3 18       		.sleb128 24
 4017 00d4 00000000 		.4byte	0
 4018 00d8 00000000 		.4byte	0
 4019              	.LLST6:
 4020 00dc 00000000 		.4byte	.LVL18
 4021 00e0 22000000 		.4byte	.LVL20
 4022 00e4 0100     		.2byte	0x1
 4023 00e6 51       		.byte	0x51
 4024 00e7 22000000 		.4byte	.LVL20
 4025 00eb 26000000 		.4byte	.LVL21
 4026 00ef 0400     		.2byte	0x4
 4027 00f1 F3       		.byte	0xf3
 4028 00f2 01       		.uleb128 0x1
 4029 00f3 51       		.byte	0x51
 4030 00f4 9F       		.byte	0x9f
 4031 00f5 26000000 		.4byte	.LVL21
 4032 00f9 36000000 		.4byte	.LVL22
 4033 00fd 0100     		.2byte	0x1
 4034 00ff 51       		.byte	0x51
 4035 0100 36000000 		.4byte	.LVL22
 4036 0104 44000000 		.4byte	.LFE121
 4037 0108 0400     		.2byte	0x4
 4038 010a F3       		.byte	0xf3
 4039 010b 01       		.uleb128 0x1
 4040 010c 51       		.byte	0x51
 4041 010d 9F       		.byte	0x9f
 4042 010e 00000000 		.4byte	0
 4043 0112 00000000 		.4byte	0
 4044              	.LLST7:
 4045 0116 12000000 		.4byte	.LVL19
 4046 011a 22000000 		.4byte	.LVL20
 4047 011e 0100     		.2byte	0x1
 4048 0120 53       		.byte	0x53
 4049 0121 26000000 		.4byte	.LVL21
 4050 0125 3D000000 		.4byte	.LVL23-1
 4051 0129 0100     		.2byte	0x1
 4052 012b 53       		.byte	0x53
 4053 012c 00000000 		.4byte	0
 4054 0130 00000000 		.4byte	0
 4055              	.LLST8:
 4056 0134 00000000 		.4byte	.LFB122
 4057 0138 04000000 		.4byte	.LCFI4
 4058 013c 0200     		.2byte	0x2
 4059 013e 7D       		.byte	0x7d
 4060 013f 00       		.sleb128 0
 4061 0140 04000000 		.4byte	.LCFI4
 4062 0144 A4010000 		.4byte	.LFE122
 4063 0148 0200     		.2byte	0x2
 4064 014a 7D       		.byte	0x7d
ARM GAS  C:\Users\TaisikHam\AppData\Local\Temp\cc7fj03B.s 			page 73


 4065 014b 28       		.sleb128 40
 4066 014c 00000000 		.4byte	0
 4067 0150 00000000 		.4byte	0
 4068              	.LLST9:
 4069 0154 00000000 		.4byte	.LVL24
 4070 0158 16000000 		.4byte	.LVL25
 4071 015c 0100     		.2byte	0x1
 4072 015e 50       		.byte	0x50
 4073 015f 16000000 		.4byte	.LVL25
 4074 0163 A4010000 		.4byte	.LFE122
 4075 0167 0400     		.2byte	0x4
 4076 0169 F3       		.byte	0xf3
 4077 016a 01       		.uleb128 0x1
 4078 016b 50       		.byte	0x50
 4079 016c 9F       		.byte	0x9f
 4080 016d 00000000 		.4byte	0
 4081 0171 00000000 		.4byte	0
 4082              	.LLST10:
 4083 0175 00000000 		.4byte	.LFB124
 4084 0179 02000000 		.4byte	.LCFI5
 4085 017d 0200     		.2byte	0x2
 4086 017f 7D       		.byte	0x7d
 4087 0180 00       		.sleb128 0
 4088 0181 02000000 		.4byte	.LCFI5
 4089 0185 04000000 		.4byte	.LCFI6
 4090 0189 0200     		.2byte	0x2
 4091 018b 7D       		.byte	0x7d
 4092 018c 08       		.sleb128 8
 4093 018d 04000000 		.4byte	.LCFI6
 4094 0191 60000000 		.4byte	.LFE124
 4095 0195 0200     		.2byte	0x2
 4096 0197 7D       		.byte	0x7d
 4097 0198 10       		.sleb128 16
 4098 0199 00000000 		.4byte	0
 4099 019d 00000000 		.4byte	0
 4100              		.section	.debug_aranges,"",%progbits
 4101 0000 4C000000 		.4byte	0x4c
 4102 0004 0200     		.2byte	0x2
 4103 0006 00000000 		.4byte	.Ldebug_info0
 4104 000a 04       		.byte	0x4
 4105 000b 00       		.byte	0
 4106 000c 0000     		.2byte	0
 4107 000e 0000     		.2byte	0
 4108 0010 00000000 		.4byte	.LFB123
 4109 0014 24000000 		.4byte	.LFE123-.LFB123
 4110 0018 00000000 		.4byte	.LFB118
 4111 001c 04000000 		.4byte	.LFE118-.LFB118
 4112 0020 00000000 		.4byte	.LFB119
 4113 0024 54000000 		.4byte	.LFE119-.LFB119
 4114 0028 00000000 		.4byte	.LFB120
 4115 002c 88000000 		.4byte	.LFE120-.LFB120
 4116 0030 00000000 		.4byte	.LFB121
 4117 0034 44000000 		.4byte	.LFE121-.LFB121
 4118 0038 00000000 		.4byte	.LFB122
 4119 003c A4010000 		.4byte	.LFE122-.LFB122
 4120 0040 00000000 		.4byte	.LFB124
 4121 0044 60000000 		.4byte	.LFE124-.LFB124
ARM GAS  C:\Users\TaisikHam\AppData\Local\Temp\cc7fj03B.s 			page 74


 4122 0048 00000000 		.4byte	0
 4123 004c 00000000 		.4byte	0
 4124              		.section	.debug_ranges,"",%progbits
 4125              	.Ldebug_ranges0:
 4126 0000 00000000 		.4byte	.LFB123
 4127 0004 24000000 		.4byte	.LFE123
 4128 0008 00000000 		.4byte	.LFB118
 4129 000c 04000000 		.4byte	.LFE118
 4130 0010 00000000 		.4byte	.LFB119
 4131 0014 54000000 		.4byte	.LFE119
 4132 0018 00000000 		.4byte	.LFB120
 4133 001c 88000000 		.4byte	.LFE120
 4134 0020 00000000 		.4byte	.LFB121
 4135 0024 44000000 		.4byte	.LFE121
 4136 0028 00000000 		.4byte	.LFB122
 4137 002c A4010000 		.4byte	.LFE122
 4138 0030 00000000 		.4byte	.LFB124
 4139 0034 60000000 		.4byte	.LFE124
 4140 0038 00000000 		.4byte	0
 4141 003c 00000000 		.4byte	0
 4142              		.section	.debug_line,"",%progbits
 4143              	.Ldebug_line0:
 4144 0000 9C040000 		.section	.debug_str,"MS",%progbits,1
 4144      0200D602 
 4144      00000201 
 4144      FB0E0D00 
 4144      01010101 
 4145              	.LASF117:
 4146 0000 646D6172 		.ascii	"dmarx\000"
 4146      7800
 4147              	.LASF68:
 4148 0006 7466756E 		.ascii	"tfunc_t\000"
 4148      635F7400 
 4149              	.LASF2:
 4150 000e 73697A65 		.ascii	"size_t\000"
 4150      5F7400
 4151              	.LASF63:
 4152 0015 7264796D 		.ascii	"rdymsg\000"
 4152      736700
 4153              	.LASF13:
 4154 001c 75696E74 		.ascii	"uint64_t\000"
 4154      36345F74 
 4154      00
 4155              	.LASF126:
 4156 0025 4449525F 		.ascii	"DIR_t\000"
 4156      7400
 4157              	.LASF75:
 4158 002b 4F545950 		.ascii	"OTYPER\000"
 4158      455200
 4159              	.LASF109:
 4160 0032 5350495F 		.ascii	"SPI_ACTIVE\000"
 4160      41435449 
 4160      564500
 4161              	.LASF104:
 4162 003d 696F706F 		.ascii	"ioportmask_t\000"
 4162      72746D61 
 4162      736B5F74 
ARM GAS  C:\Users\TaisikHam\AppData\Local\Temp\cc7fj03B.s 			page 75


 4162      00
 4163              	.LASF74:
 4164 004a 4D4F4445 		.ascii	"MODER\000"
 4164      5200
 4165              	.LASF14:
 4166 0050 6C6F6E67 		.ascii	"long long unsigned int\000"
 4166      206C6F6E 
 4166      6720756E 
 4166      7369676E 
 4166      65642069 
 4167              	.LASF150:
 4168 0067 4F55545F 		.ascii	"OUT_Y_H\000"
 4168      595F4800 
 4169              	.LASF137:
 4170 006f 61646472 		.ascii	"addr\000"
 4170      00
 4171              	.LASF77:
 4172 0074 50555044 		.ascii	"PUPDR\000"
 4172      5200
 4173              	.LASF64:
 4174 007a 65786974 		.ascii	"exitcode\000"
 4174      636F6465 
 4174      00
 4175              	.LASF102:
 4176 0083 76656374 		.ascii	"vector\000"
 4176      6F7200
 4177              	.LASF112:
 4178 008a 53504944 		.ascii	"SPIDriver\000"
 4178      72697665 
 4178      7200
 4179              	.LASF123:
 4180 0094 7373706F 		.ascii	"ssport\000"
 4180      727400
 4181              	.LASF142:
 4182 009b 49544D5F 		.ascii	"ITM_RxBuffer\000"
 4182      52784275 
 4182      66666572 
 4182      00
 4183              	.LASF160:
 4184 00a8 73706953 		.ascii	"spiSelect\000"
 4184      656C6563 
 4184      7400
 4185              	.LASF27:
 4186 00b2 705F7072 		.ascii	"p_prio\000"
 4186      696F00
 4187              	.LASF124:
 4188 00b9 73737061 		.ascii	"sspad\000"
 4188      6400
 4189              	.LASF12:
 4190 00bf 6C6F6E67 		.ascii	"long long int\000"
 4190      206C6F6E 
 4190      6720696E 
 4190      7400
 4191              	.LASF1:
 4192 00cd 7369676E 		.ascii	"signed char\000"
 4192      65642063 
 4192      68617200 
ARM GAS  C:\Users\TaisikHam\AppData\Local\Temp\cc7fj03B.s 			page 76


 4193              	.LASF78:
 4194 00d9 42535252 		.ascii	"BSRR\000"
 4194      00
 4195              	.LASF164:
 4196 00de 63685379 		.ascii	"chSysInit\000"
 4196      73496E69 
 4196      7400
 4197              	.LASF107:
 4198 00e8 5350495F 		.ascii	"SPI_STOP\000"
 4198      53544F50 
 4198      00
 4199              	.LASF44:
 4200 00f1 705F6D70 		.ascii	"p_mpool\000"
 4200      6F6F6C00 
 4201              	.LASF131:
 4202 00f9 5F6C3367 		.ascii	"_l3gd_register_setting\000"
 4202      645F7265 
 4202      67697374 
 4202      65725F73 
 4202      65747469 
 4203              	.LASF60:
 4204 0110 6D5F7175 		.ascii	"m_queue\000"
 4204      65756500 
 4205              	.LASF19:
 4206 0118 74736C69 		.ascii	"tslices_t\000"
 4206      6365735F 
 4206      7400
 4207              	.LASF121:
 4208 0122 73706963 		.ascii	"spicallback_t\000"
 4208      616C6C62 
 4208      61636B5F 
 4208      7400
 4209              	.LASF113:
 4210 0130 73746174 		.ascii	"state\000"
 4210      6500
 4211              	.LASF9:
 4212 0136 6C6F6E67 		.ascii	"long int\000"
 4212      20696E74 
 4212      00
 4213              	.LASF17:
 4214 013f 74737461 		.ascii	"tstate_t\000"
 4214      74655F74 
 4214      00
 4215              	.LASF136:
 4216 0148 7370695F 		.ascii	"spi_thread_1\000"
 4216      74687265 
 4216      61645F31 
 4216      00
 4217              	.LASF115:
 4218 0155 74687265 		.ascii	"thread\000"
 4218      616400
 4219              	.LASF170:
 4220 015c 61737365 		.ascii	"assert_check_led\000"
 4220      72745F63 
 4220      6865636B 
 4220      5F6C6564 
 4220      00
ARM GAS  C:\Users\TaisikHam\AppData\Local\Temp\cc7fj03B.s 			page 77


 4221              	.LASF37:
 4222 016d 705F7469 		.ascii	"p_time\000"
 4222      6D6500
 4223              	.LASF29:
 4224 0174 705F6E65 		.ascii	"p_newer\000"
 4224      77657200 
 4225              	.LASF129:
 4226 017c 73656172 		.ascii	"searching_led_position\000"
 4226      6368696E 
 4226      675F6C65 
 4226      645F706F 
 4226      73697469 
 4227              	.LASF122:
 4228 0193 656E645F 		.ascii	"end_cb\000"
 4228      636200
 4229              	.LASF119:
 4230 019a 7278646D 		.ascii	"rxdmamode\000"
 4230      616D6F64 
 4230      6500
 4231              	.LASF82:
 4232 01a4 4750494F 		.ascii	"GPIO_TypeDef\000"
 4232      5F547970 
 4232      65446566 
 4232      00
 4233              	.LASF118:
 4234 01b1 646D6174 		.ascii	"dmatx\000"
 4234      7800
 4235              	.LASF149:
 4236 01b7 4F55545F 		.ascii	"OUT_Y_L\000"
 4236      595F4C00 
 4237              	.LASF140:
 4238 01bf 7370695F 		.ascii	"spi_thread_2_wa\000"
 4238      74687265 
 4238      61645F32 
 4238      5F776100 
 4239              	.LASF76:
 4240 01cf 4F535045 		.ascii	"OSPEEDR\000"
 4240      45445200 
 4241              	.LASF55:
 4242 01d7 725F6E65 		.ascii	"r_newer\000"
 4242      77657200 
 4243              	.LASF47:
 4244 01df 72656761 		.ascii	"regarm_t\000"
 4244      726D5F74 
 4244      00
 4245              	.LASF101:
 4246 01e8 73656C66 		.ascii	"selfindex\000"
 4246      696E6465 
 4246      7800
 4247              	.LASF162:
 4248 01f2 73706955 		.ascii	"spiUnselect\000"
 4248      6E73656C 
 4248      65637400 
 4249              	.LASF32:
 4250 01fe 705F7374 		.ascii	"p_stklimit\000"
 4250      6B6C696D 
 4250      697400
ARM GAS  C:\Users\TaisikHam\AppData\Local\Temp\cc7fj03B.s 			page 78


 4251              	.LASF0:
 4252 0209 756E7369 		.ascii	"unsigned int\000"
 4252      676E6564 
 4252      20696E74 
 4252      00
 4253              	.LASF169:
 4254 0216 633A5C55 		.ascii	"c:\\Users\\TaisikHam\\Documents\\GitHub\\ChibiOS\\t"
 4254      73657273 
 4254      5C546169 
 4254      73696B48 
 4254      616D5C44 
 4255 0243 65737468 		.ascii	"esthal_wrk\\STM32F30x\\TS_SPI\000"
 4255      616C5F77 
 4255      726B5C53 
 4255      544D3332 
 4255      46333078 
 4256              	.LASF70:
 4257 025f 43504152 		.ascii	"CPAR\000"
 4257      00
 4258              	.LASF39:
 4259 0264 705F6D73 		.ascii	"p_msgqueue\000"
 4259      67717565 
 4259      756500
 4260              	.LASF132:
 4261 026f 6374726C 		.ascii	"ctrl_reg\000"
 4261      5F726567 
 4261      00
 4262              	.LASF163:
 4263 0278 68616C49 		.ascii	"halInit\000"
 4263      6E697400 
 4264              	.LASF79:
 4265 0280 4C434B52 		.ascii	"LCKR\000"
 4265      00
 4266              	.LASF100:
 4267 0285 69736869 		.ascii	"ishift\000"
 4267      667400
 4268              	.LASF134:
 4269 028c 72656761 		.ascii	"regaddr\000"
 4269      64647200 
 4270              	.LASF139:
 4271 0294 7370695F 		.ascii	"spi_thread_1_wa\000"
 4271      74687265 
 4271      61645F31 
 4271      5F776100 
 4272              	.LASF7:
 4273 02a4 73686F72 		.ascii	"short unsigned int\000"
 4273      7420756E 
 4273      7369676E 
 4273      65642069 
 4273      6E7400
 4274              	.LASF21:
 4275 02b7 6D73675F 		.ascii	"msg_t\000"
 4275      7400
 4276              	.LASF161:
 4277 02bd 4C334744 		.ascii	"L3GD20_Read\000"
 4277      32305F52 
 4277      65616400 
ARM GAS  C:\Users\TaisikHam\AppData\Local\Temp\cc7fj03B.s 			page 79


 4278              	.LASF168:
 4279 02c9 6D61696E 		.ascii	"main.c\000"
 4279      2E6300
 4280              	.LASF16:
 4281 02d0 746D6F64 		.ascii	"tmode_t\000"
 4281      655F7400 
 4282              	.LASF46:
 4283 02d8 54687265 		.ascii	"ThreadsList\000"
 4283      6164734C 
 4283      69737400 
 4284              	.LASF22:
 4285 02e4 6576656E 		.ascii	"eventmask_t\000"
 4285      746D6173 
 4285      6B5F7400 
 4286              	.LASF59:
 4287 02f0 4D757465 		.ascii	"Mutex\000"
 4287      7800
 4288              	.LASF48:
 4289 02f6 73746B61 		.ascii	"stkalign_t\000"
 4289      6C69676E 
 4289      5F7400
 4290              	.LASF154:
 4291 0301 67526567 		.ascii	"gRegStatus\000"
 4291      53746174 
 4291      757300
 4292              	.LASF166:
 4293 030c 63685468 		.ascii	"chThdCreateStatic\000"
 4293      64437265 
 4293      61746553 
 4293      74617469 
 4293      6300
 4294              	.LASF24:
 4295 031e 54687265 		.ascii	"Thread\000"
 4295      616400
 4296              	.LASF95:
 4297 0325 49325350 		.ascii	"I2SPR\000"
 4297      5200
 4298              	.LASF153:
 4299 032b 57484F5F 		.ascii	"WHO_AM_I\000"
 4299      414D5F49 
 4299      00
 4300              	.LASF51:
 4301 0334 73697A65 		.ascii	"sizetype\000"
 4301      74797065 
 4301      00
 4302              	.LASF73:
 4303 033d 636C6561 		.ascii	"clear\000"
 4303      7200
 4304              	.LASF145:
 4305 0343 67537069 		.ascii	"gSpiConfig\000"
 4305      436F6E66 
 4305      696700
 4306              	.LASF133:
 4307 034e 7265675F 		.ascii	"reg_val\000"
 4307      76616C00 
 4308              	.LASF93:
 4309 0356 49325343 		.ascii	"I2SCFGR\000"
ARM GAS  C:\Users\TaisikHam\AppData\Local\Temp\cc7fj03B.s 			page 80


 4309      46475200 
 4310              	.LASF6:
 4311 035e 75696E74 		.ascii	"uint16_t\000"
 4311      31365F74 
 4311      00
 4312              	.LASF30:
 4313 0367 705F6F6C 		.ascii	"p_older\000"
 4313      64657200 
 4314              	.LASF54:
 4315 036f 725F6374 		.ascii	"r_ctx\000"
 4315      7800
 4316              	.LASF45:
 4317 0375 54687265 		.ascii	"ThreadsQueue\000"
 4317      61647351 
 4317      75657565 
 4317      00
 4318              	.LASF120:
 4319 0382 7478646D 		.ascii	"txdmamode\000"
 4319      616D6F64 
 4319      6500
 4320              	.LASF167:
 4321 038c 474E5520 		.ascii	"GNU C 4.7.2\000"
 4321      4320342E 
 4321      372E3200 
 4322              	.LASF57:
 4323 0398 725F6375 		.ascii	"r_current\000"
 4323      7272656E 
 4323      7400
 4324              	.LASF56:
 4325 03a2 725F6F6C 		.ascii	"r_older\000"
 4325      64657200 
 4326              	.LASF148:
 4327 03aa 4F55545F 		.ascii	"OUT_X_H\000"
 4327      585F4800 
 4328              	.LASF72:
 4329 03b2 444D415F 		.ascii	"DMA_Channel_TypeDef\000"
 4329      4368616E 
 4329      6E656C5F 
 4329      54797065 
 4329      44656600 
 4330              	.LASF87:
 4331 03c6 43524350 		.ascii	"CRCPR\000"
 4331      5200
 4332              	.LASF80:
 4333 03cc 4146524C 		.ascii	"AFRL\000"
 4333      00
 4334              	.LASF91:
 4335 03d1 54584352 		.ascii	"TXCRCR\000"
 4335      435200
 4336              	.LASF83:
 4337 03d8 52455345 		.ascii	"RESERVED0\000"
 4337      52564544 
 4337      3000
 4338              	.LASF84:
 4339 03e2 52455345 		.ascii	"RESERVED1\000"
 4339      52564544 
 4339      3100
ARM GAS  C:\Users\TaisikHam\AppData\Local\Temp\cc7fj03B.s 			page 81


 4340              	.LASF85:
 4341 03ec 52455345 		.ascii	"RESERVED2\000"
 4341      52564544 
 4341      3200
 4342              	.LASF86:
 4343 03f6 52455345 		.ascii	"RESERVED3\000"
 4343      52564544 
 4343      3300
 4344              	.LASF88:
 4345 0400 52455345 		.ascii	"RESERVED4\000"
 4345      52564544 
 4345      3400
 4346              	.LASF26:
 4347 040a 705F7072 		.ascii	"p_prev\000"
 4347      657600
 4348              	.LASF92:
 4349 0411 52455345 		.ascii	"RESERVED6\000"
 4349      52564544 
 4349      3600
 4350              	.LASF94:
 4351 041b 52455345 		.ascii	"RESERVED7\000"
 4351      52564544 
 4351      3700
 4352              	.LASF96:
 4353 0425 52455345 		.ascii	"RESERVED8\000"
 4353      52564544 
 4353      3800
 4354              	.LASF20:
 4355 042f 74707269 		.ascii	"tprio_t\000"
 4355      6F5F7400 
 4356              	.LASF116:
 4357 0437 6D757465 		.ascii	"mutex\000"
 4357      7800
 4358              	.LASF15:
 4359 043d 5F426F6F 		.ascii	"_Bool\000"
 4359      6C00
 4360              	.LASF8:
 4361 0443 696E7433 		.ascii	"int32_t\000"
 4361      325F7400 
 4362              	.LASF4:
 4363 044b 756E7369 		.ascii	"unsigned char\000"
 4363      676E6564 
 4363      20636861 
 4363      7200
 4364              	.LASF103:
 4365 0459 73746D33 		.ascii	"stm32_dma_stream_t\000"
 4365      325F646D 
 4365      615F7374 
 4365      7265616D 
 4365      5F7400
 4366              	.LASF143:
 4367 046c 53504944 		.ascii	"SPID1\000"
 4367      3100
 4368              	.LASF42:
 4369 0472 705F6D74 		.ascii	"p_mtxlist\000"
 4369      786C6973 
 4369      7400
ARM GAS  C:\Users\TaisikHam\AppData\Local\Temp\cc7fj03B.s 			page 82


 4370              	.LASF5:
 4371 047c 73686F72 		.ascii	"short int\000"
 4371      7420696E 
 4371      7400
 4372              	.LASF33:
 4373 0486 705F7374 		.ascii	"p_state\000"
 4373      61746500 
 4374              	.LASF36:
 4375 048e 705F7072 		.ascii	"p_preempt\000"
 4375      65656D70 
 4375      7400
 4376              	.LASF128:
 4377 0498 70726576 		.ascii	"prev_pos\000"
 4377      5F706F73 
 4377      00
 4378              	.LASF53:
 4379 04a1 725F7072 		.ascii	"r_prio\000"
 4379      696F00
 4380              	.LASF66:
 4381 04a8 65776D61 		.ascii	"ewmask\000"
 4381      736B00
 4382              	.LASF25:
 4383 04af 705F6E65 		.ascii	"p_next\000"
 4383      787400
 4384              	.LASF34:
 4385 04b6 705F666C 		.ascii	"p_flags\000"
 4385      61677300 
 4386              	.LASF98:
 4387 04be 6368616E 		.ascii	"channel\000"
 4387      6E656C00 
 4388              	.LASF41:
 4389 04c6 705F6570 		.ascii	"p_epending\000"
 4389      656E6469 
 4389      6E6700
 4390              	.LASF99:
 4391 04d1 69666372 		.ascii	"ifcr\000"
 4391      00
 4392              	.LASF158:
 4393 04d6 4C334744 		.ascii	"L3GD20_Write\000"
 4393      32305F57 
 4393      72697465 
 4393      00
 4394              	.LASF10:
 4395 04e3 75696E74 		.ascii	"uint32_t\000"
 4395      33325F74 
 4395      00
 4396              	.LASF52:
 4397 04ec 725F7175 		.ascii	"r_queue\000"
 4397      65756500 
 4398              	.LASF18:
 4399 04f4 74726566 		.ascii	"trefs_t\000"
 4399      735F7400 
 4400              	.LASF11:
 4401 04fc 6C6F6E67 		.ascii	"long unsigned int\000"
 4401      20756E73 
 4401      69676E65 
 4401      6420696E 
ARM GAS  C:\Users\TaisikHam\AppData\Local\Temp\cc7fj03B.s 			page 83


 4401      7400
 4402              	.LASF97:
 4403 050e 5350495F 		.ascii	"SPI_TypeDef\000"
 4403      54797065 
 4403      44656600 
 4404              	.LASF67:
 4405 051a 63686172 		.ascii	"char\000"
 4405      00
 4406              	.LASF110:
 4407 051f 5350495F 		.ascii	"SPI_COMPLETE\000"
 4407      434F4D50 
 4407      4C455445 
 4407      00
 4408              	.LASF114:
 4409 052c 636F6E66 		.ascii	"config\000"
 4409      696700
 4410              	.LASF130:
 4411 0533 63686563 		.ascii	"checking_coord\000"
 4411      6B696E67 
 4411      5F636F6F 
 4411      726400
 4412              	.LASF135:
 4413 0542 7370695F 		.ascii	"spi_thread_2\000"
 4413      74687265 
 4413      61645F32 
 4413      00
 4414              	.LASF111:
 4415 054f 73706973 		.ascii	"spistate_t\000"
 4415      74617465 
 4415      5F7400
 4416              	.LASF62:
 4417 055a 6D5F6E65 		.ascii	"m_next\000"
 4417      787400
 4418              	.LASF23:
 4419 0561 73797374 		.ascii	"systime_t\000"
 4419      696D655F 
 4419      7400
 4420              	.LASF43:
 4421 056b 705F7265 		.ascii	"p_realprio\000"
 4421      616C7072 
 4421      696F00
 4422              	.LASF156:
 4423 0576 73706952 		.ascii	"spiReleaseBus\000"
 4423      656C6561 
 4423      73654275 
 4423      7300
 4424              	.LASF127:
 4425 0584 6375725F 		.ascii	"cur_pos\000"
 4425      706F7300 
 4426              	.LASF105:
 4427 058c 696F706F 		.ascii	"ioportid_t\000"
 4427      72746964 
 4427      5F7400
 4428              	.LASF50:
 4429 0597 636F6E74 		.ascii	"context\000"
 4429      65787400 
 4430              	.LASF159:
ARM GAS  C:\Users\TaisikHam\AppData\Local\Temp\cc7fj03B.s 			page 84


 4431 059f 73706953 		.ascii	"spiStart\000"
 4431      74617274 
 4431      00
 4432              	.LASF90:
 4433 05a8 52455345 		.ascii	"RESERVED5\000"
 4433      52564544 
 4433      3500
 4434              	.LASF49:
 4435 05b2 696E7463 		.ascii	"intctx\000"
 4435      747800
 4436              	.LASF108:
 4437 05b9 5350495F 		.ascii	"SPI_READY\000"
 4437      52454144 
 4437      5900
 4438              	.LASF106:
 4439 05c3 5350495F 		.ascii	"SPI_UNINIT\000"
 4439      554E494E 
 4439      495400
 4440              	.LASF146:
 4441 05ce 72784275 		.ascii	"rxBuf\000"
 4441      6600
 4442              	.LASF165:
 4443 05d4 4C334744 		.ascii	"L3GD20_Init\000"
 4443      32305F49 
 4443      6E697400 
 4444              	.LASF157:
 4445 05e0 63685468 		.ascii	"chThdSleep\000"
 4445      64536C65 
 4445      657000
 4446              	.LASF35:
 4447 05eb 705F7265 		.ascii	"p_refs\000"
 4447      667300
 4448              	.LASF58:
 4449 05f2 52656164 		.ascii	"ReadyList\000"
 4449      794C6973 
 4449      7400
 4450              	.LASF69:
 4451 05fc 434E4454 		.ascii	"CNDTR\000"
 4451      5200
 4452              	.LASF71:
 4453 0602 434D4152 		.ascii	"CMAR\000"
 4453      00
 4454              	.LASF89:
 4455 0607 52584352 		.ascii	"RXCRCR\000"
 4455      435200
 4456              	.LASF141:
 4457 060e 726C6973 		.ascii	"rlist\000"
 4457      7400
 4458              	.LASF3:
 4459 0614 75696E74 		.ascii	"uint8_t\000"
 4459      385F7400 
 4460              	.LASF147:
 4461 061c 4F55545F 		.ascii	"OUT_X_L\000"
 4461      585F4C00 
 4462              	.LASF152:
 4463 0624 4F55545F 		.ascii	"OUT_Z_H\000"
 4463      5A5F4800 
ARM GAS  C:\Users\TaisikHam\AppData\Local\Temp\cc7fj03B.s 			page 85


 4464              	.LASF151:
 4465 062c 4F55545F 		.ascii	"OUT_Z_L\000"
 4465      5A5F4C00 
 4466              	.LASF65:
 4467 0634 77746F62 		.ascii	"wtobjp\000"
 4467      6A7000
 4468              	.LASF31:
 4469 063b 705F6E61 		.ascii	"p_name\000"
 4469      6D6500
 4470              	.LASF138:
 4471 0642 67526567 		.ascii	"gRegTable\000"
 4471      5461626C 
 4471      6500
 4472              	.LASF155:
 4473 064c 73706941 		.ascii	"spiAcquireBus\000"
 4473      63717569 
 4473      72654275 
 4473      7300
 4474              	.LASF125:
 4475 065a 53504943 		.ascii	"SPIConfig\000"
 4475      6F6E6669 
 4475      6700
 4476              	.LASF40:
 4477 0664 705F6D73 		.ascii	"p_msg\000"
 4477      6700
 4478              	.LASF171:
 4479 066a 6D61696E 		.ascii	"main\000"
 4479      00
 4480              	.LASF81:
 4481 066f 41465248 		.ascii	"AFRH\000"
 4481      00
 4482              	.LASF144:
 4483 0674 67537069 		.ascii	"gSpiDriver\000"
 4483      44726976 
 4483      657200
 4484              	.LASF61:
 4485 067f 6D5F6F77 		.ascii	"m_owner\000"
 4485      6E657200 
 4486              	.LASF28:
 4487 0687 705F6374 		.ascii	"p_ctx\000"
 4487      7800
 4488              	.LASF38:
 4489 068d 705F7761 		.ascii	"p_waiting\000"
 4489      6974696E 
 4489      6700
 4490              		.ident	"GCC: (GNU) 4.7.2"
ARM GAS  C:\Users\TaisikHam\AppData\Local\Temp\cc7fj03B.s 			page 86


DEFINED SYMBOLS
                            *ABS*:00000000 main.c
C:\Users\TaisikHam\AppData\Local\Temp\cc7fj03B.s:19     .text.spi_thread_2:00000000 $t
C:\Users\TaisikHam\AppData\Local\Temp\cc7fj03B.s:24     .text.spi_thread_2:00000000 spi_thread_2
C:\Users\TaisikHam\AppData\Local\Temp\cc7fj03B.s:56     .text.spi_thread_2:00000018 $d
C:\Users\TaisikHam\AppData\Local\Temp\cc7fj03B.s:63     .text.assert_check_led:00000000 $t
C:\Users\TaisikHam\AppData\Local\Temp\cc7fj03B.s:69     .text.assert_check_led:00000000 assert_check_led
C:\Users\TaisikHam\AppData\Local\Temp\cc7fj03B.s:84     .text.searching_led_position:00000000 $t
C:\Users\TaisikHam\AppData\Local\Temp\cc7fj03B.s:90     .text.searching_led_position:00000000 searching_led_position
C:\Users\TaisikHam\AppData\Local\Temp\cc7fj03B.s:148    .text.searching_led_position:0000004c $d
C:\Users\TaisikHam\AppData\Local\Temp\cc7fj03B.s:154    .text.checking_coord:00000000 $t
C:\Users\TaisikHam\AppData\Local\Temp\cc7fj03B.s:160    .text.checking_coord:00000000 checking_coord
C:\Users\TaisikHam\AppData\Local\Temp\cc7fj03B.s:268    .text.checking_coord:00000084 $d
C:\Users\TaisikHam\AppData\Local\Temp\cc7fj03B.s:273    .text._l3gd_register_setting:00000000 $t
C:\Users\TaisikHam\AppData\Local\Temp\cc7fj03B.s:279    .text._l3gd_register_setting:00000000 _l3gd_register_setting
C:\Users\TaisikHam\AppData\Local\Temp\cc7fj03B.s:340    .text._l3gd_register_setting:00000040 $d
C:\Users\TaisikHam\AppData\Local\Temp\cc7fj03B.s:345    .text.spi_thread_1:00000000 $t
C:\Users\TaisikHam\AppData\Local\Temp\cc7fj03B.s:350    .text.spi_thread_1:00000000 spi_thread_1
C:\Users\TaisikHam\AppData\Local\Temp\cc7fj03B.s:689    .bss.OUT_Z_H:00000000 .LANCHOR12
C:\Users\TaisikHam\AppData\Local\Temp\cc7fj03B.s:785    .bss.OUT_Y_L:00000000 .LANCHOR9
C:\Users\TaisikHam\AppData\Local\Temp\cc7fj03B.s:683    .bss.OUT_Y_H:00000000 .LANCHOR10
C:\Users\TaisikHam\AppData\Local\Temp\cc7fj03B.s:708    .bss.OUT_Z_L:00000000 .LANCHOR11
C:\Users\TaisikHam\AppData\Local\Temp\cc7fj03B.s:658    .bss.llx:00000000 .LANCHOR13
C:\Users\TaisikHam\AppData\Local\Temp\cc7fj03B.s:740    .bss.lhx:00000000 .LANCHOR14
C:\Users\TaisikHam\AppData\Local\Temp\cc7fj03B.s:766    .bss.gX:00000000 .LANCHOR15
C:\Users\TaisikHam\AppData\Local\Temp\cc7fj03B.s:664    .bss.lly:00000000 .LANCHOR16
C:\Users\TaisikHam\AppData\Local\Temp\cc7fj03B.s:791    .bss.lhy:00000000 .LANCHOR17
C:\Users\TaisikHam\AppData\Local\Temp\cc7fj03B.s:759    .bss.gY:00000000 .LANCHOR18
C:\Users\TaisikHam\AppData\Local\Temp\cc7fj03B.s:670    .bss.llz:00000000 .LANCHOR19
C:\Users\TaisikHam\AppData\Local\Temp\cc7fj03B.s:797    .bss.lhz:00000000 .LANCHOR20
C:\Users\TaisikHam\AppData\Local\Temp\cc7fj03B.s:559    .text.spi_thread_1:00000170 $d
C:\Users\TaisikHam\AppData\Local\Temp\cc7fj03B.s:576    .text.startup.main:00000000 $t
C:\Users\TaisikHam\AppData\Local\Temp\cc7fj03B.s:582    .text.startup.main:00000000 main
C:\Users\TaisikHam\AppData\Local\Temp\cc7fj03B.s:810    .bss.gSpiConfig:00000000 .LANCHOR4
C:\Users\TaisikHam\AppData\Local\Temp\cc7fj03B.s:677    .bss.spi_thread_1_wa:00000000 .LANCHOR21
C:\Users\TaisikHam\AppData\Local\Temp\cc7fj03B.s:696    .bss.spi_thread_2_wa:00000000 .LANCHOR22
C:\Users\TaisikHam\AppData\Local\Temp\cc7fj03B.s:717    .rodata.gRegStatus:00000000 gRegStatus
C:\Users\TaisikHam\AppData\Local\Temp\cc7fj03B.s:800    .bss.lhz:00000000 lhz
C:\Users\TaisikHam\AppData\Local\Temp\cc7fj03B.s:673    .bss.llz:00000000 llz
C:\Users\TaisikHam\AppData\Local\Temp\cc7fj03B.s:794    .bss.lhy:00000000 lhy
C:\Users\TaisikHam\AppData\Local\Temp\cc7fj03B.s:667    .bss.lly:00000000 lly
C:\Users\TaisikHam\AppData\Local\Temp\cc7fj03B.s:661    .bss.llx:00000000 llx
C:\Users\TaisikHam\AppData\Local\Temp\cc7fj03B.s:743    .bss.lhx:00000000 lhx
C:\Users\TaisikHam\AppData\Local\Temp\cc7fj03B.s:782    .bss.gZ:00000000 gZ
C:\Users\TaisikHam\AppData\Local\Temp\cc7fj03B.s:762    .bss.gY:00000000 gY
C:\Users\TaisikHam\AppData\Local\Temp\cc7fj03B.s:769    .bss.gX:00000000 gX
C:\Users\TaisikHam\AppData\Local\Temp\cc7fj03B.s:729    .bss.WHO_AM_I:00000000 WHO_AM_I
C:\Users\TaisikHam\AppData\Local\Temp\cc7fj03B.s:692    .bss.OUT_Z_H:00000000 OUT_Z_H
C:\Users\TaisikHam\AppData\Local\Temp\cc7fj03B.s:711    .bss.OUT_Z_L:00000000 OUT_Z_L
C:\Users\TaisikHam\AppData\Local\Temp\cc7fj03B.s:686    .bss.OUT_Y_H:00000000 OUT_Y_H
C:\Users\TaisikHam\AppData\Local\Temp\cc7fj03B.s:788    .bss.OUT_Y_L:00000000 OUT_Y_L
C:\Users\TaisikHam\AppData\Local\Temp\cc7fj03B.s:819    .bss.OUT_X_H:00000000 OUT_X_H
C:\Users\TaisikHam\AppData\Local\Temp\cc7fj03B.s:775    .bss.OUT_X_L:00000000 OUT_X_L
C:\Users\TaisikHam\AppData\Local\Temp\cc7fj03B.s:723    .bss.rxBuf:00000000 rxBuf
C:\Users\TaisikHam\AppData\Local\Temp\cc7fj03B.s:813    .bss.gSpiConfig:00000000 gSpiConfig
C:\Users\TaisikHam\AppData\Local\Temp\cc7fj03B.s:755    .bss.gSpiDriver:00000000 gSpiDriver
C:\Users\TaisikHam\AppData\Local\Temp\cc7fj03B.s:662    .bss.llx:00000000 $d
ARM GAS  C:\Users\TaisikHam\AppData\Local\Temp\cc7fj03B.s 			page 87


C:\Users\TaisikHam\AppData\Local\Temp\cc7fj03B.s:668    .bss.lly:00000000 $d
C:\Users\TaisikHam\AppData\Local\Temp\cc7fj03B.s:674    .bss.llz:00000000 $d
C:\Users\TaisikHam\AppData\Local\Temp\cc7fj03B.s:676    .bss.spi_thread_1_wa:00000000 $d
C:\Users\TaisikHam\AppData\Local\Temp\cc7fj03B.s:680    .bss.spi_thread_1_wa:00000000 spi_thread_1_wa
C:\Users\TaisikHam\AppData\Local\Temp\cc7fj03B.s:687    .bss.OUT_Y_H:00000000 $d
C:\Users\TaisikHam\AppData\Local\Temp\cc7fj03B.s:693    .bss.OUT_Z_H:00000000 $d
C:\Users\TaisikHam\AppData\Local\Temp\cc7fj03B.s:695    .bss.spi_thread_2_wa:00000000 $d
C:\Users\TaisikHam\AppData\Local\Temp\cc7fj03B.s:699    .bss.spi_thread_2_wa:00000000 spi_thread_2_wa
C:\Users\TaisikHam\AppData\Local\Temp\cc7fj03B.s:705    .data.cur_pos.6389:00000000 cur_pos.6389
C:\Users\TaisikHam\AppData\Local\Temp\cc7fj03B.s:712    .bss.OUT_Z_L:00000000 $d
C:\Users\TaisikHam\AppData\Local\Temp\cc7fj03B.s:714    .rodata.gRegStatus:00000000 $d
C:\Users\TaisikHam\AppData\Local\Temp\cc7fj03B.s:720    .bss.rxBuf:00000000 $d
C:\Users\TaisikHam\AppData\Local\Temp\cc7fj03B.s:730    .bss.WHO_AM_I:00000000 $d
C:\Users\TaisikHam\AppData\Local\Temp\cc7fj03B.s:732    .data.gRegTable:00000000 $d
C:\Users\TaisikHam\AppData\Local\Temp\cc7fj03B.s:736    .data.gRegTable:00000000 gRegTable
C:\Users\TaisikHam\AppData\Local\Temp\cc7fj03B.s:744    .bss.lhx:00000000 $d
C:\Users\TaisikHam\AppData\Local\Temp\cc7fj03B.s:749    .bss.prev_pos.6390:00000000 prev_pos.6390
C:\Users\TaisikHam\AppData\Local\Temp\cc7fj03B.s:750    .bss.prev_pos.6390:00000000 $d
C:\Users\TaisikHam\AppData\Local\Temp\cc7fj03B.s:752    .bss.gSpiDriver:00000000 $d
C:\Users\TaisikHam\AppData\Local\Temp\cc7fj03B.s:758    .bss.gY:00000000 $d
C:\Users\TaisikHam\AppData\Local\Temp\cc7fj03B.s:765    .bss.gX:00000000 $d
C:\Users\TaisikHam\AppData\Local\Temp\cc7fj03B.s:776    .bss.OUT_X_L:00000000 $d
C:\Users\TaisikHam\AppData\Local\Temp\cc7fj03B.s:778    .bss.gZ:00000000 $d
C:\Users\TaisikHam\AppData\Local\Temp\cc7fj03B.s:789    .bss.OUT_Y_L:00000000 $d
C:\Users\TaisikHam\AppData\Local\Temp\cc7fj03B.s:795    .bss.lhy:00000000 $d
C:\Users\TaisikHam\AppData\Local\Temp\cc7fj03B.s:801    .bss.lhz:00000000 $d
C:\Users\TaisikHam\AppData\Local\Temp\cc7fj03B.s:806    .bss.addr.6422:00000000 addr.6422
C:\Users\TaisikHam\AppData\Local\Temp\cc7fj03B.s:807    .bss.addr.6422:00000000 $d
C:\Users\TaisikHam\AppData\Local\Temp\cc7fj03B.s:809    .bss.gSpiConfig:00000000 $d
C:\Users\TaisikHam\AppData\Local\Temp\cc7fj03B.s:820    .bss.OUT_X_H:00000000 $d
C:\Users\TaisikHam\AppData\Local\Temp\cc7fj03B.s:822    .rodata.str1.4:00000000 $d
                     .debug_frame:00000010 $d
C:\Users\TaisikHam\AppData\Local\Temp\cc7fj03B.s:62     .text.spi_thread_2:00000024 $t
C:\Users\TaisikHam\AppData\Local\Temp\cc7fj03B.s:153    .text.searching_led_position:00000054 $t
C:\Users\TaisikHam\AppData\Local\Temp\cc7fj03B.s:272    .text.checking_coord:00000088 $t
C:\Users\TaisikHam\AppData\Local\Temp\cc7fj03B.s:344    .text._l3gd_register_setting:00000044 $t
C:\Users\TaisikHam\AppData\Local\Temp\cc7fj03B.s:575    .text.spi_thread_1:000001a4 $t

UNDEFINED SYMBOLS
spiAcquireBus
spiReleaseBus
rlist
SPID1
chThdSleep
L3GD20_Write
spiStart
spiSelect
L3GD20_Read
spiUnselect
halInit
chSysInit
L3GD20_Init
chThdCreateStatic
