ARM GAS  C:\cygwin\tmp\ccz87wwk.s 			page 1


   1              		.syntax unified
   2              		.cpu cortex-m4
   3              		.fpu softvfp
   4              		.eabi_attribute 20, 1
   5              		.eabi_attribute 21, 1
   6              		.eabi_attribute 23, 3
   7              		.eabi_attribute 24, 1
   8              		.eabi_attribute 25, 1
   9              		.eabi_attribute 26, 1
  10              		.eabi_attribute 30, 2
  11              		.eabi_attribute 34, 1
  12              		.eabi_attribute 18, 4
  13              		.thumb
  14              		.file	"spi.c"
  15              		.text
  16              	.Ltext0:
  17              		.cfi_sections	.debug_frame
  18              		.section	.text.spiInit,"ax",%progbits
  19              		.align	2
  20              		.p2align 4,,15
  21              		.global	spiInit
  22              		.thumb
  23              		.thumb_func
  24              		.type	spiInit, %function
  25              	spiInit:
  26              	.LFB118:
  27              		.file 1 "../../../os/hal/src/spi.c"
  28              		.loc 1 61 0
  29              		.cfi_startproc
  30              		@ args = 0, pretend = 0, frame = 0
  31              		@ frame_needed = 0, uses_anonymous_args = 0
  32              		@ link register save eliminated.
  33              		.loc 1 64 0
  34              		.loc 1 63 0
  35 0000 FFF7FEBF 		b	spi_lld_init
  36              	.LVL0:
  37              		.cfi_endproc
  38              	.LFE118:
  39              		.size	spiInit, .-spiInit
  40 0004 AFF30080 		.section	.text.spiObjectInit,"ax",%progbits
  40      AFF30080 
  40      AFF30080 
  41              		.align	2
  42              		.p2align 4,,15
  43              		.global	spiObjectInit
  44              		.thumb
  45              		.thumb_func
  46              		.type	spiObjectInit, %function
  47              	spiObjectInit:
  48              	.LFB119:
  49              		.loc 1 73 0
  50              		.cfi_startproc
  51              		@ args = 0, pretend = 0, frame = 0
  52              		@ frame_needed = 0, uses_anonymous_args = 0
  53              		@ link register save eliminated.
  54              	.LVL1:
  55              		.loc 1 76 0
ARM GAS  C:\cygwin\tmp\ccz87wwk.s 			page 2


  56 0000 0023     		movs	r3, #0
  57              		.loc 1 75 0
  58 0002 0122     		movs	r2, #1
  59 0004 0270     		strb	r2, [r0, #0]
  60              		.loc 1 76 0
  61 0006 4360     		str	r3, [r0, #4]
  62              		.loc 1 78 0
  63 0008 8360     		str	r3, [r0, #8]
  64              		.loc 1 82 0
  65 000a 0C30     		adds	r0, r0, #12
  66              	.LVL2:
  67              		.loc 1 90 0
  68              		.loc 1 82 0
  69 000c FFF7FEBF 		b	chMtxInit
  70              	.LVL3:
  71              		.cfi_endproc
  72              	.LFE119:
  73              		.size	spiObjectInit, .-spiObjectInit
  74              		.section	.text.spiStart,"ax",%progbits
  75              		.align	2
  76              		.p2align 4,,15
  77              		.global	spiStart
  78              		.thumb
  79              		.thumb_func
  80              		.type	spiStart, %function
  81              	spiStart:
  82              	.LFB120:
  83              		.loc 1 100 0
  84              		.cfi_startproc
  85              		@ args = 0, pretend = 0, frame = 0
  86              		@ frame_needed = 0, uses_anonymous_args = 0
  87              	.LVL4:
  88              		.loc 1 102 0
  89 0000 0028     		cmp	r0, #0
  90 0002 18BF     		it	ne
  91 0004 0029     		cmpne	r1, #0
  92              		.loc 1 100 0
  93 0006 38B5     		push	{r3, r4, r5, lr}
  94              	.LCFI0:
  95              		.cfi_def_cfa_offset 16
  96              		.cfi_offset 3, -16
  97              		.cfi_offset 4, -12
  98              		.cfi_offset 5, -8
  99              		.cfi_offset 14, -4
 100              		.loc 1 102 0
 101 0008 0D46     		mov	r5, r1
 102 000a 0446     		mov	r4, r0
 103 000c 17D0     		beq	.L10
 104              	.LVL5:
 105              	.L4:
 106              	.LBB2:
 107              		.loc 1 104 0
 108 000e 2023     		movs	r3, #32
 109              	.LVL6:
 110              	@ 104 "../../../os/hal/src/spi.c" 1
 111 0010 83F31188 		msr     BASEPRI, r3
 112              	@ 0 "" 2
ARM GAS  C:\cygwin\tmp\ccz87wwk.s 			page 3


 113              	.LVL7:
 114              		.thumb
 115              	.LBE2:
 116 0014 FFF7FEFF 		bl	dbg_check_lock
 117              	.LVL8:
 118              		.loc 1 105 0
 119 0018 2378     		ldrb	r3, [r4, #0]	@ zero_extendqisi2
 120 001a 013B     		subs	r3, r3, #1
 121 001c 012B     		cmp	r3, #1
 122 001e 02D9     		bls	.L5
 123              		.loc 1 105 0 is_stmt 0 discriminator 1
 124 0020 0948     		ldr	r0, .L11
 125 0022 FFF7FEFF 		bl	chDbgPanic
 126              	.LVL9:
 127              	.L5:
 128              		.loc 1 108 0 is_stmt 1
 129 0026 2046     		mov	r0, r4
 130              		.loc 1 107 0
 131 0028 6560     		str	r5, [r4, #4]
 132              		.loc 1 108 0
 133 002a FFF7FEFF 		bl	spi_lld_start
 134              	.LVL10:
 135              		.loc 1 109 0
 136 002e 0223     		movs	r3, #2
 137 0030 2370     		strb	r3, [r4, #0]
 138              		.loc 1 110 0
 139 0032 FFF7FEFF 		bl	dbg_check_unlock
 140              	.LVL11:
 141              	.LBB3:
 142 0036 0023     		movs	r3, #0
 143              	.LVL12:
 144              	@ 110 "../../../os/hal/src/spi.c" 1
 145 0038 83F31188 		msr     BASEPRI, r3
 146              	@ 0 "" 2
 147              	.LVL13:
 148              		.thumb
 149 003c 38BD     		pop	{r3, r4, r5, pc}
 150              	.LVL14:
 151              	.L10:
 152              	.LBE3:
 153              		.loc 1 102 0 discriminator 1
 154 003e 0348     		ldr	r0, .L11+4
 155              	.LVL15:
 156 0040 FFF7FEFF 		bl	chDbgPanic
 157              	.LVL16:
 158 0044 E3E7     		b	.L4
 159              	.L12:
 160 0046 00BF     		.align	2
 161              	.L11:
 162 0048 10000000 		.word	.LC1
 163 004c 00000000 		.word	.LC0
 164              		.cfi_endproc
 165              	.LFE120:
 166              		.size	spiStart, .-spiStart
 167              		.section	.text.spiStop,"ax",%progbits
 168              		.align	2
 169              		.p2align 4,,15
ARM GAS  C:\cygwin\tmp\ccz87wwk.s 			page 4


 170              		.global	spiStop
 171              		.thumb
 172              		.thumb_func
 173              		.type	spiStop, %function
 174              	spiStop:
 175              	.LFB121:
 176              		.loc 1 122 0
 177              		.cfi_startproc
 178              		@ args = 0, pretend = 0, frame = 0
 179              		@ frame_needed = 0, uses_anonymous_args = 0
 180              	.LVL17:
 181 0000 10B5     		push	{r4, lr}
 182              	.LCFI1:
 183              		.cfi_def_cfa_offset 8
 184              		.cfi_offset 4, -8
 185              		.cfi_offset 14, -4
 186              		.loc 1 124 0
 187 0002 0446     		mov	r4, r0
 188 0004 C8B1     		cbz	r0, .L16
 189              	.LVL18:
 190              	.L14:
 191              	.LBB4:
 192              		.loc 1 126 0
 193 0006 2023     		movs	r3, #32
 194              	.LVL19:
 195              	@ 126 "../../../os/hal/src/spi.c" 1
 196 0008 83F31188 		msr     BASEPRI, r3
 197              	@ 0 "" 2
 198              	.LVL20:
 199              		.thumb
 200              	.LBE4:
 201 000c FFF7FEFF 		bl	dbg_check_lock
 202              	.LVL21:
 203              		.loc 1 127 0
 204 0010 2378     		ldrb	r3, [r4, #0]	@ zero_extendqisi2
 205 0012 013B     		subs	r3, r3, #1
 206 0014 012B     		cmp	r3, #1
 207 0016 02D9     		bls	.L15
 208              		.loc 1 127 0 is_stmt 0 discriminator 1
 209 0018 0A48     		ldr	r0, .L17
 210 001a FFF7FEFF 		bl	chDbgPanic
 211              	.LVL22:
 212              	.L15:
 213              		.loc 1 129 0 is_stmt 1
 214 001e 2046     		mov	r0, r4
 215 0020 FFF7FEFF 		bl	spi_lld_unselect
 216              	.LVL23:
 217              		.loc 1 130 0
 218 0024 2046     		mov	r0, r4
 219 0026 FFF7FEFF 		bl	spi_lld_stop
 220              	.LVL24:
 221              		.loc 1 131 0
 222 002a 0123     		movs	r3, #1
 223 002c 2370     		strb	r3, [r4, #0]
 224              		.loc 1 132 0
 225 002e FFF7FEFF 		bl	dbg_check_unlock
 226              	.LVL25:
ARM GAS  C:\cygwin\tmp\ccz87wwk.s 			page 5


 227              	.LBB5:
 228 0032 0023     		movs	r3, #0
 229              	.LVL26:
 230              	@ 132 "../../../os/hal/src/spi.c" 1
 231 0034 83F31188 		msr     BASEPRI, r3
 232              	@ 0 "" 2
 233              	.LVL27:
 234              		.thumb
 235 0038 10BD     		pop	{r4, pc}
 236              	.LVL28:
 237              	.L16:
 238              	.LBE5:
 239              		.loc 1 124 0 discriminator 1
 240 003a 0348     		ldr	r0, .L17+4
 241              	.LVL29:
 242 003c FFF7FEFF 		bl	chDbgPanic
 243              	.LVL30:
 244 0040 E1E7     		b	.L14
 245              	.L18:
 246 0042 00BF     		.align	2
 247              	.L17:
 248 0044 2C000000 		.word	.LC3
 249 0048 20000000 		.word	.LC2
 250              		.cfi_endproc
 251              	.LFE121:
 252              		.size	spiStop, .-spiStop
 253 004c AFF30080 		.section	.text.spiSelect,"ax",%progbits
 254              		.align	2
 255              		.p2align 4,,15
 256              		.global	spiSelect
 257              		.thumb
 258              		.thumb_func
 259              		.type	spiSelect, %function
 260              	spiSelect:
 261              	.LFB122:
 262              		.loc 1 142 0
 263              		.cfi_startproc
 264              		@ args = 0, pretend = 0, frame = 0
 265              		@ frame_needed = 0, uses_anonymous_args = 0
 266              	.LVL31:
 267 0000 10B5     		push	{r4, lr}
 268              	.LCFI2:
 269              		.cfi_def_cfa_offset 8
 270              		.cfi_offset 4, -8
 271              		.cfi_offset 14, -4
 272              		.loc 1 144 0
 273 0002 0446     		mov	r4, r0
 274 0004 98B1     		cbz	r0, .L25
 275              	.LVL32:
 276              	.L20:
 277              	.LBB6:
 278              		.loc 1 146 0
 279 0006 2023     		movs	r3, #32
 280              	.LVL33:
 281              	@ 146 "../../../os/hal/src/spi.c" 1
 282 0008 83F31188 		msr     BASEPRI, r3
 283              	@ 0 "" 2
ARM GAS  C:\cygwin\tmp\ccz87wwk.s 			page 6


 284              	.LVL34:
 285              		.thumb
 286              	.LBE6:
 287 000c FFF7FEFF 		bl	dbg_check_lock
 288              	.LVL35:
 289              		.loc 1 147 0
 290 0010 2378     		ldrb	r3, [r4, #0]	@ zero_extendqisi2
 291 0012 022B     		cmp	r3, #2
 292 0014 02D0     		beq	.L21
 293              		.loc 1 147 0 is_stmt 0 discriminator 1
 294 0016 0848     		ldr	r0, .L26
 295 0018 FFF7FEFF 		bl	chDbgPanic
 296              	.LVL36:
 297              	.L21:
 298              		.loc 1 148 0 is_stmt 1
 299 001c 2046     		mov	r0, r4
 300 001e FFF7FEFF 		bl	spi_lld_select
 301              	.LVL37:
 302              		.loc 1 149 0
 303 0022 FFF7FEFF 		bl	dbg_check_unlock
 304              	.LVL38:
 305              	.LBB7:
 306 0026 0023     		movs	r3, #0
 307              	.LVL39:
 308              	@ 149 "../../../os/hal/src/spi.c" 1
 309 0028 83F31188 		msr     BASEPRI, r3
 310              	@ 0 "" 2
 311              	.LVL40:
 312              		.thumb
 313 002c 10BD     		pop	{r4, pc}
 314              	.LVL41:
 315              	.L25:
 316              	.LBE7:
 317              		.loc 1 144 0 discriminator 1
 318 002e 0348     		ldr	r0, .L26+4
 319              	.LVL42:
 320 0030 FFF7FEFF 		bl	chDbgPanic
 321              	.LVL43:
 322 0034 E7E7     		b	.L20
 323              	.L27:
 324 0036 00BF     		.align	2
 325              	.L26:
 326 0038 4C000000 		.word	.LC5
 327 003c 3C000000 		.word	.LC4
 328              		.cfi_endproc
 329              	.LFE122:
 330              		.size	spiSelect, .-spiSelect
 331              		.section	.text.spiUnselect,"ax",%progbits
 332              		.align	2
 333              		.p2align 4,,15
 334              		.global	spiUnselect
 335              		.thumb
 336              		.thumb_func
 337              		.type	spiUnselect, %function
 338              	spiUnselect:
 339              	.LFB123:
 340              		.loc 1 160 0
ARM GAS  C:\cygwin\tmp\ccz87wwk.s 			page 7


 341              		.cfi_startproc
 342              		@ args = 0, pretend = 0, frame = 0
 343              		@ frame_needed = 0, uses_anonymous_args = 0
 344              	.LVL44:
 345 0000 10B5     		push	{r4, lr}
 346              	.LCFI3:
 347              		.cfi_def_cfa_offset 8
 348              		.cfi_offset 4, -8
 349              		.cfi_offset 14, -4
 350              		.loc 1 162 0
 351 0002 0446     		mov	r4, r0
 352 0004 98B1     		cbz	r0, .L34
 353              	.LVL45:
 354              	.L29:
 355              	.LBB8:
 356              		.loc 1 164 0
 357 0006 2023     		movs	r3, #32
 358              	.LVL46:
 359              	@ 164 "../../../os/hal/src/spi.c" 1
 360 0008 83F31188 		msr     BASEPRI, r3
 361              	@ 0 "" 2
 362              	.LVL47:
 363              		.thumb
 364              	.LBE8:
 365 000c FFF7FEFF 		bl	dbg_check_lock
 366              	.LVL48:
 367              		.loc 1 165 0
 368 0010 2378     		ldrb	r3, [r4, #0]	@ zero_extendqisi2
 369 0012 022B     		cmp	r3, #2
 370 0014 02D0     		beq	.L30
 371              		.loc 1 165 0 is_stmt 0 discriminator 1
 372 0016 0848     		ldr	r0, .L35
 373 0018 FFF7FEFF 		bl	chDbgPanic
 374              	.LVL49:
 375              	.L30:
 376              		.loc 1 166 0 is_stmt 1
 377 001c 2046     		mov	r0, r4
 378 001e FFF7FEFF 		bl	spi_lld_unselect
 379              	.LVL50:
 380              		.loc 1 167 0
 381 0022 FFF7FEFF 		bl	dbg_check_unlock
 382              	.LVL51:
 383              	.LBB9:
 384 0026 0023     		movs	r3, #0
 385              	.LVL52:
 386              	@ 167 "../../../os/hal/src/spi.c" 1
 387 0028 83F31188 		msr     BASEPRI, r3
 388              	@ 0 "" 2
 389              	.LVL53:
 390              		.thumb
 391 002c 10BD     		pop	{r4, pc}
 392              	.LVL54:
 393              	.L34:
 394              	.LBE9:
 395              		.loc 1 162 0 discriminator 1
 396 002e 0348     		ldr	r0, .L35+4
 397              	.LVL55:
ARM GAS  C:\cygwin\tmp\ccz87wwk.s 			page 8


 398 0030 FFF7FEFF 		bl	chDbgPanic
 399              	.LVL56:
 400 0034 E7E7     		b	.L29
 401              	.L36:
 402 0036 00BF     		.align	2
 403              	.L35:
 404 0038 6C000000 		.word	.LC7
 405 003c 5C000000 		.word	.LC6
 406              		.cfi_endproc
 407              	.LFE123:
 408              		.size	spiUnselect, .-spiUnselect
 409              		.section	.text.spiStartIgnore,"ax",%progbits
 410              		.align	2
 411              		.p2align 4,,15
 412              		.global	spiStartIgnore
 413              		.thumb
 414              		.thumb_func
 415              		.type	spiStartIgnore, %function
 416              	spiStartIgnore:
 417              	.LFB124:
 418              		.loc 1 183 0
 419              		.cfi_startproc
 420              		@ args = 0, pretend = 0, frame = 0
 421              		@ frame_needed = 0, uses_anonymous_args = 0
 422              	.LVL57:
 423              		.loc 1 185 0
 424 0000 0028     		cmp	r0, #0
 425 0002 18BF     		it	ne
 426 0004 0029     		cmpne	r1, #0
 427              		.loc 1 183 0
 428 0006 38B5     		push	{r3, r4, r5, lr}
 429              	.LCFI4:
 430              		.cfi_def_cfa_offset 16
 431              		.cfi_offset 3, -16
 432              		.cfi_offset 4, -12
 433              		.cfi_offset 5, -8
 434              		.cfi_offset 14, -4
 435              		.loc 1 185 0
 436 0008 0D46     		mov	r5, r1
 437 000a 0446     		mov	r4, r0
 438 000c 16D0     		beq	.L46
 439              	.LVL58:
 440              	.L38:
 441              	.LBB10:
 442              		.loc 1 187 0
 443 000e 2023     		movs	r3, #32
 444              	.LVL59:
 445              	@ 187 "../../../os/hal/src/spi.c" 1
 446 0010 83F31188 		msr     BASEPRI, r3
 447              	@ 0 "" 2
 448              	.LVL60:
 449              		.thumb
 450              	.LBE10:
 451 0014 FFF7FEFF 		bl	dbg_check_lock
 452              	.LVL61:
 453              		.loc 1 188 0
 454 0018 2378     		ldrb	r3, [r4, #0]	@ zero_extendqisi2
ARM GAS  C:\cygwin\tmp\ccz87wwk.s 			page 9


 455 001a 022B     		cmp	r3, #2
 456 001c 02D0     		beq	.L39
 457              		.loc 1 188 0 is_stmt 0 discriminator 1
 458 001e 0948     		ldr	r0, .L47
 459 0020 FFF7FEFF 		bl	chDbgPanic
 460              	.LVL62:
 461              	.L39:
 462              		.loc 1 189 0 is_stmt 1
 463 0024 0323     		movs	r3, #3
 464 0026 2370     		strb	r3, [r4, #0]
 465 0028 2046     		mov	r0, r4
 466 002a 2946     		mov	r1, r5
 467 002c FFF7FEFF 		bl	spi_lld_ignore
 468              	.LVL63:
 469              		.loc 1 190 0
 470 0030 FFF7FEFF 		bl	dbg_check_unlock
 471              	.LVL64:
 472              	.LBB11:
 473 0034 0023     		movs	r3, #0
 474              	.LVL65:
 475              	@ 190 "../../../os/hal/src/spi.c" 1
 476 0036 83F31188 		msr     BASEPRI, r3
 477              	@ 0 "" 2
 478              	.LVL66:
 479              		.thumb
 480 003a 38BD     		pop	{r3, r4, r5, pc}
 481              	.LVL67:
 482              	.L46:
 483              	.LBE11:
 484              		.loc 1 185 0 discriminator 1
 485 003c 0248     		ldr	r0, .L47+4
 486              	.LVL68:
 487 003e FFF7FEFF 		bl	chDbgPanic
 488              	.LVL69:
 489 0042 E4E7     		b	.L38
 490              	.L48:
 491              		.align	2
 492              	.L47:
 493 0044 94000000 		.word	.LC9
 494 0048 80000000 		.word	.LC8
 495              		.cfi_endproc
 496              	.LFE124:
 497              		.size	spiStartIgnore, .-spiStartIgnore
 498 004c AFF30080 		.section	.text.spiStartExchange,"ax",%progbits
 499              		.align	2
 500              		.p2align 4,,15
 501              		.global	spiStartExchange
 502              		.thumb
 503              		.thumb_func
 504              		.type	spiStartExchange, %function
 505              	spiStartExchange:
 506              	.LFB125:
 507              		.loc 1 211 0
 508              		.cfi_startproc
 509              		@ args = 0, pretend = 0, frame = 0
 510              		@ frame_needed = 0, uses_anonymous_args = 0
 511              	.LVL70:
ARM GAS  C:\cygwin\tmp\ccz87wwk.s 			page 10


 512              		.loc 1 213 0
 513 0000 0028     		cmp	r0, #0
 514 0002 18BF     		it	ne
 515 0004 0029     		cmpne	r1, #0
 516              		.loc 1 211 0
 517 0006 F8B5     		push	{r3, r4, r5, r6, r7, lr}
 518              	.LCFI5:
 519              		.cfi_def_cfa_offset 24
 520              		.cfi_offset 3, -24
 521              		.cfi_offset 4, -20
 522              		.cfi_offset 5, -16
 523              		.cfi_offset 6, -12
 524              		.cfi_offset 7, -8
 525              		.cfi_offset 14, -4
 526              		.loc 1 213 0
 527 0008 0D46     		mov	r5, r1
 528 000a 0446     		mov	r4, r0
 529              		.loc 1 211 0
 530 000c 1646     		mov	r6, r2
 531 000e 1F46     		mov	r7, r3
 532              		.loc 1 213 0
 533 0010 1CD0     		beq	.L50
 534              		.loc 1 213 0 is_stmt 0 discriminator 2
 535 0012 002A     		cmp	r2, #0
 536 0014 18BF     		it	ne
 537 0016 002B     		cmpne	r3, #0
 538 0018 18D0     		beq	.L50
 539              	.LVL71:
 540              	.L51:
 541              	.LBB12:
 542              		.loc 1 216 0 is_stmt 1
 543 001a 2023     		movs	r3, #32
 544              	.LVL72:
 545              	@ 216 "../../../os/hal/src/spi.c" 1
 546 001c 83F31188 		msr     BASEPRI, r3
 547              	@ 0 "" 2
 548              	.LVL73:
 549              		.thumb
 550              	.LBE12:
 551 0020 FFF7FEFF 		bl	dbg_check_lock
 552              	.LVL74:
 553              		.loc 1 217 0
 554 0024 2378     		ldrb	r3, [r4, #0]	@ zero_extendqisi2
 555 0026 022B     		cmp	r3, #2
 556 0028 02D0     		beq	.L52
 557              		.loc 1 217 0 is_stmt 0 discriminator 1
 558 002a 0A48     		ldr	r0, .L59
 559 002c FFF7FEFF 		bl	chDbgPanic
 560              	.LVL75:
 561              	.L52:
 562              		.loc 1 218 0 is_stmt 1
 563 0030 2946     		mov	r1, r5
 564 0032 0325     		movs	r5, #3
 565              	.LVL76:
 566 0034 3B46     		mov	r3, r7
 567 0036 2046     		mov	r0, r4
 568 0038 3246     		mov	r2, r6
ARM GAS  C:\cygwin\tmp\ccz87wwk.s 			page 11


 569 003a 2570     		strb	r5, [r4, #0]
 570 003c FFF7FEFF 		bl	spi_lld_exchange
 571              	.LVL77:
 572              		.loc 1 219 0
 573 0040 FFF7FEFF 		bl	dbg_check_unlock
 574              	.LVL78:
 575              	.LBB13:
 576 0044 0023     		movs	r3, #0
 577              	.LVL79:
 578              	@ 219 "../../../os/hal/src/spi.c" 1
 579 0046 83F31188 		msr     BASEPRI, r3
 580              	@ 0 "" 2
 581              	.LVL80:
 582              		.thumb
 583 004a F8BD     		pop	{r3, r4, r5, r6, r7, pc}
 584              	.LVL81:
 585              	.L50:
 586              	.LBE13:
 587              		.loc 1 213 0 discriminator 1
 588 004c 0248     		ldr	r0, .L59+4
 589              	.LVL82:
 590 004e FFF7FEFF 		bl	chDbgPanic
 591              	.LVL83:
 592 0052 E2E7     		b	.L51
 593              	.L60:
 594              		.align	2
 595              	.L59:
 596 0054 C4000000 		.word	.LC11
 597 0058 AC000000 		.word	.LC10
 598              		.cfi_endproc
 599              	.LFE125:
 600              		.size	spiStartExchange, .-spiStartExchange
 601 005c AFF30080 		.section	.text.spiStartSend,"ax",%progbits
 602              		.align	2
 603              		.p2align 4,,15
 604              		.global	spiStartSend
 605              		.thumb
 606              		.thumb_func
 607              		.type	spiStartSend, %function
 608              	spiStartSend:
 609              	.LFB126:
 610              		.loc 1 237 0
 611              		.cfi_startproc
 612              		@ args = 0, pretend = 0, frame = 0
 613              		@ frame_needed = 0, uses_anonymous_args = 0
 614              	.LVL84:
 615              		.loc 1 239 0
 616 0000 0028     		cmp	r0, #0
 617 0002 18BF     		it	ne
 618 0004 0029     		cmpne	r1, #0
 619              		.loc 1 237 0
 620 0006 70B5     		push	{r4, r5, r6, lr}
 621              	.LCFI6:
 622              		.cfi_def_cfa_offset 16
 623              		.cfi_offset 4, -16
 624              		.cfi_offset 5, -12
 625              		.cfi_offset 6, -8
ARM GAS  C:\cygwin\tmp\ccz87wwk.s 			page 12


 626              		.cfi_offset 14, -4
 627              		.loc 1 239 0
 628 0008 0D46     		mov	r5, r1
 629 000a 0446     		mov	r4, r0
 630              		.loc 1 237 0
 631 000c 1646     		mov	r6, r2
 632              		.loc 1 239 0
 633 000e 18D0     		beq	.L62
 634              		.loc 1 239 0 is_stmt 0 discriminator 2
 635 0010 BAB1     		cbz	r2, .L62
 636              	.LVL85:
 637              	.L63:
 638              	.LBB14:
 639              		.loc 1 242 0 is_stmt 1
 640 0012 2023     		movs	r3, #32
 641              	.LVL86:
 642              	@ 242 "../../../os/hal/src/spi.c" 1
 643 0014 83F31188 		msr     BASEPRI, r3
 644              	@ 0 "" 2
 645              	.LVL87:
 646              		.thumb
 647              	.LBE14:
 648 0018 FFF7FEFF 		bl	dbg_check_lock
 649              	.LVL88:
 650              		.loc 1 243 0
 651 001c 2378     		ldrb	r3, [r4, #0]	@ zero_extendqisi2
 652 001e 022B     		cmp	r3, #2
 653 0020 02D0     		beq	.L64
 654              		.loc 1 243 0 is_stmt 0 discriminator 1
 655 0022 0A48     		ldr	r0, .L68
 656 0024 FFF7FEFF 		bl	chDbgPanic
 657              	.LVL89:
 658              	.L64:
 659              		.loc 1 244 0 is_stmt 1
 660 0028 0323     		movs	r3, #3
 661 002a 2370     		strb	r3, [r4, #0]
 662 002c 2046     		mov	r0, r4
 663 002e 2946     		mov	r1, r5
 664 0030 3246     		mov	r2, r6
 665 0032 FFF7FEFF 		bl	spi_lld_send
 666              	.LVL90:
 667              		.loc 1 245 0
 668 0036 FFF7FEFF 		bl	dbg_check_unlock
 669              	.LVL91:
 670              	.LBB15:
 671 003a 0023     		movs	r3, #0
 672              	.LVL92:
 673              	@ 245 "../../../os/hal/src/spi.c" 1
 674 003c 83F31188 		msr     BASEPRI, r3
 675              	@ 0 "" 2
 676              	.LVL93:
 677              		.thumb
 678 0040 70BD     		pop	{r4, r5, r6, pc}
 679              	.LVL94:
 680              	.L62:
 681              	.LBE15:
 682              		.loc 1 239 0 discriminator 1
ARM GAS  C:\cygwin\tmp\ccz87wwk.s 			page 13


 683 0042 0348     		ldr	r0, .L68+4
 684              	.LVL95:
 685 0044 FFF7FEFF 		bl	chDbgPanic
 686              	.LVL96:
 687 0048 E3E7     		b	.L63
 688              	.L69:
 689 004a 00BF     		.align	2
 690              	.L68:
 691 004c F0000000 		.word	.LC13
 692 0050 DC000000 		.word	.LC12
 693              		.cfi_endproc
 694              	.LFE126:
 695              		.size	spiStartSend, .-spiStartSend
 696              		.section	.text.spiStartReceive,"ax",%progbits
 697              		.align	2
 698              		.p2align 4,,15
 699              		.global	spiStartReceive
 700              		.thumb
 701              		.thumb_func
 702              		.type	spiStartReceive, %function
 703              	spiStartReceive:
 704              	.LFB127:
 705              		.loc 1 263 0
 706              		.cfi_startproc
 707              		@ args = 0, pretend = 0, frame = 0
 708              		@ frame_needed = 0, uses_anonymous_args = 0
 709              	.LVL97:
 710              		.loc 1 265 0
 711 0000 0028     		cmp	r0, #0
 712 0002 18BF     		it	ne
 713 0004 0029     		cmpne	r1, #0
 714              		.loc 1 263 0
 715 0006 70B5     		push	{r4, r5, r6, lr}
 716              	.LCFI7:
 717              		.cfi_def_cfa_offset 16
 718              		.cfi_offset 4, -16
 719              		.cfi_offset 5, -12
 720              		.cfi_offset 6, -8
 721              		.cfi_offset 14, -4
 722              		.loc 1 265 0
 723 0008 0D46     		mov	r5, r1
 724 000a 0446     		mov	r4, r0
 725              		.loc 1 263 0
 726 000c 1646     		mov	r6, r2
 727              		.loc 1 265 0
 728 000e 18D0     		beq	.L71
 729              		.loc 1 265 0 is_stmt 0 discriminator 2
 730 0010 BAB1     		cbz	r2, .L71
 731              	.LVL98:
 732              	.L72:
 733              	.LBB16:
 734              		.loc 1 268 0 is_stmt 1
 735 0012 2023     		movs	r3, #32
 736              	.LVL99:
 737              	@ 268 "../../../os/hal/src/spi.c" 1
 738 0014 83F31188 		msr     BASEPRI, r3
 739              	@ 0 "" 2
ARM GAS  C:\cygwin\tmp\ccz87wwk.s 			page 14


 740              	.LVL100:
 741              		.thumb
 742              	.LBE16:
 743 0018 FFF7FEFF 		bl	dbg_check_lock
 744              	.LVL101:
 745              		.loc 1 269 0
 746 001c 2378     		ldrb	r3, [r4, #0]	@ zero_extendqisi2
 747 001e 022B     		cmp	r3, #2
 748 0020 02D0     		beq	.L73
 749              		.loc 1 269 0 is_stmt 0 discriminator 1
 750 0022 0A48     		ldr	r0, .L77
 751 0024 FFF7FEFF 		bl	chDbgPanic
 752              	.LVL102:
 753              	.L73:
 754              		.loc 1 270 0 is_stmt 1
 755 0028 0323     		movs	r3, #3
 756 002a 2370     		strb	r3, [r4, #0]
 757 002c 2046     		mov	r0, r4
 758 002e 2946     		mov	r1, r5
 759 0030 3246     		mov	r2, r6
 760 0032 FFF7FEFF 		bl	spi_lld_receive
 761              	.LVL103:
 762              		.loc 1 271 0
 763 0036 FFF7FEFF 		bl	dbg_check_unlock
 764              	.LVL104:
 765              	.LBB17:
 766 003a 0023     		movs	r3, #0
 767              	.LVL105:
 768              	@ 271 "../../../os/hal/src/spi.c" 1
 769 003c 83F31188 		msr     BASEPRI, r3
 770              	@ 0 "" 2
 771              	.LVL106:
 772              		.thumb
 773 0040 70BD     		pop	{r4, r5, r6, pc}
 774              	.LVL107:
 775              	.L71:
 776              	.LBE17:
 777              		.loc 1 265 0 discriminator 1
 778 0042 0348     		ldr	r0, .L77+4
 779              	.LVL108:
 780 0044 FFF7FEFF 		bl	chDbgPanic
 781              	.LVL109:
 782 0048 E3E7     		b	.L72
 783              	.L78:
 784 004a 00BF     		.align	2
 785              	.L77:
 786 004c 18010000 		.word	.LC15
 787 0050 04010000 		.word	.LC14
 788              		.cfi_endproc
 789              	.LFE127:
 790              		.size	spiStartReceive, .-spiStartReceive
 791              		.section	.text.spiIgnore,"ax",%progbits
 792              		.align	2
 793              		.p2align 4,,15
 794              		.global	spiIgnore
 795              		.thumb
 796              		.thumb_func
ARM GAS  C:\cygwin\tmp\ccz87wwk.s 			page 15


 797              		.type	spiIgnore, %function
 798              	spiIgnore:
 799              	.LFB128:
 800              		.loc 1 289 0
 801              		.cfi_startproc
 802              		@ args = 0, pretend = 0, frame = 0
 803              		@ frame_needed = 0, uses_anonymous_args = 0
 804              	.LVL110:
 805              		.loc 1 291 0
 806 0000 0028     		cmp	r0, #0
 807 0002 18BF     		it	ne
 808 0004 0029     		cmpne	r1, #0
 809              		.loc 1 289 0
 810 0006 38B5     		push	{r3, r4, r5, lr}
 811              	.LCFI8:
 812              		.cfi_def_cfa_offset 16
 813              		.cfi_offset 3, -16
 814              		.cfi_offset 4, -12
 815              		.cfi_offset 5, -8
 816              		.cfi_offset 14, -4
 817              		.loc 1 291 0
 818 0008 0D46     		mov	r5, r1
 819 000a 0446     		mov	r4, r0
 820 000c 27D0     		beq	.L96
 821              	.LVL111:
 822              	.L80:
 823              	.LBB18:
 824              		.loc 1 293 0
 825 000e 2023     		movs	r3, #32
 826              	.LVL112:
 827              	@ 293 "../../../os/hal/src/spi.c" 1
 828 0010 83F31188 		msr     BASEPRI, r3
 829              	@ 0 "" 2
 830              	.LVL113:
 831              		.thumb
 832              	.LBE18:
 833 0014 FFF7FEFF 		bl	dbg_check_lock
 834              	.LVL114:
 835              		.loc 1 294 0
 836 0018 2378     		ldrb	r3, [r4, #0]	@ zero_extendqisi2
 837 001a 022B     		cmp	r3, #2
 838 001c 02D0     		beq	.L81
 839              		.loc 1 294 0 is_stmt 0 discriminator 1
 840 001e 1248     		ldr	r0, .L97
 841 0020 FFF7FEFF 		bl	chDbgPanic
 842              	.LVL115:
 843              	.L81:
 844              		.loc 1 295 0 is_stmt 1
 845 0024 6368     		ldr	r3, [r4, #4]
 846 0026 1B68     		ldr	r3, [r3, #0]
 847 0028 13B1     		cbz	r3, .L82
 848              		.loc 1 295 0 is_stmt 0 discriminator 1
 849 002a 1048     		ldr	r0, .L97+4
 850 002c FFF7FEFF 		bl	chDbgPanic
 851              	.LVL116:
 852              	.L82:
 853              		.loc 1 296 0 is_stmt 1
ARM GAS  C:\cygwin\tmp\ccz87wwk.s 			page 16


 854 0030 0323     		movs	r3, #3
 855 0032 2370     		strb	r3, [r4, #0]
 856 0034 2046     		mov	r0, r4
 857 0036 2946     		mov	r1, r5
 858 0038 FFF7FEFF 		bl	spi_lld_ignore
 859              	.LVL117:
 860              		.loc 1 297 0
 861 003c A368     		ldr	r3, [r4, #8]
 862 003e 13B1     		cbz	r3, .L83
 863              		.loc 1 297 0 is_stmt 0 discriminator 1
 864 0040 0B48     		ldr	r0, .L97+8
 865 0042 FFF7FEFF 		bl	chDbgPanic
 866              	.LVL118:
 867              	.L83:
 868              		.loc 1 297 0 discriminator 2
 869 0046 0B4B     		ldr	r3, .L97+12
 870 0048 9B69     		ldr	r3, [r3, #24]
 871 004a 0220     		movs	r0, #2
 872 004c A360     		str	r3, [r4, #8]
 873 004e FFF7FEFF 		bl	chSchGoSleepS
 874              	.LVL119:
 875              		.loc 1 298 0 is_stmt 1 discriminator 2
 876 0052 FFF7FEFF 		bl	dbg_check_unlock
 877              	.LVL120:
 878              	.LBB19:
 879 0056 0023     		movs	r3, #0
 880              	.LVL121:
 881              	@ 298 "../../../os/hal/src/spi.c" 1
 882 0058 83F31188 		msr     BASEPRI, r3
 883              	@ 0 "" 2
 884              	.LVL122:
 885              		.thumb
 886 005c 38BD     		pop	{r3, r4, r5, pc}
 887              	.LVL123:
 888              	.L96:
 889              	.LBE19:
 890              		.loc 1 291 0 discriminator 1
 891 005e 0648     		ldr	r0, .L97+16
 892              	.LVL124:
 893 0060 FFF7FEFF 		bl	chDbgPanic
 894              	.LVL125:
 895 0064 D3E7     		b	.L80
 896              	.L98:
 897 0066 00BF     		.align	2
 898              	.L97:
 899 0068 44010000 		.word	.LC17
 900 006c 54010000 		.word	.LC18
 901 0070 64010000 		.word	.LC19
 902 0074 00000000 		.word	rlist
 903 0078 30010000 		.word	.LC16
 904              		.cfi_endproc
 905              	.LFE128:
 906              		.size	spiIgnore, .-spiIgnore
 907 007c AFF30080 		.section	.text.spiExchange,"ax",%progbits
 908              		.align	2
 909              		.p2align 4,,15
 910              		.global	spiExchange
ARM GAS  C:\cygwin\tmp\ccz87wwk.s 			page 17


 911              		.thumb
 912              		.thumb_func
 913              		.type	spiExchange, %function
 914              	spiExchange:
 915              	.LFB129:
 916              		.loc 1 320 0
 917              		.cfi_startproc
 918              		@ args = 0, pretend = 0, frame = 0
 919              		@ frame_needed = 0, uses_anonymous_args = 0
 920              	.LVL126:
 921              		.loc 1 322 0
 922 0000 0028     		cmp	r0, #0
 923 0002 18BF     		it	ne
 924 0004 0029     		cmpne	r1, #0
 925              		.loc 1 320 0
 926 0006 F8B5     		push	{r3, r4, r5, r6, r7, lr}
 927              	.LCFI9:
 928              		.cfi_def_cfa_offset 24
 929              		.cfi_offset 3, -24
 930              		.cfi_offset 4, -20
 931              		.cfi_offset 5, -16
 932              		.cfi_offset 6, -12
 933              		.cfi_offset 7, -8
 934              		.cfi_offset 14, -4
 935              		.loc 1 322 0
 936 0008 0D46     		mov	r5, r1
 937 000a 0446     		mov	r4, r0
 938              		.loc 1 320 0
 939 000c 1746     		mov	r7, r2
 940 000e 1E46     		mov	r6, r3
 941              		.loc 1 322 0
 942 0010 2DD0     		beq	.L100
 943              		.loc 1 322 0 is_stmt 0 discriminator 2
 944 0012 002A     		cmp	r2, #0
 945 0014 18BF     		it	ne
 946 0016 002B     		cmpne	r3, #0
 947 0018 29D0     		beq	.L100
 948              	.LVL127:
 949              	.L101:
 950              	.LBB20:
 951              		.loc 1 325 0 is_stmt 1
 952 001a 2023     		movs	r3, #32
 953              	.LVL128:
 954              	@ 325 "../../../os/hal/src/spi.c" 1
 955 001c 83F31188 		msr     BASEPRI, r3
 956              	@ 0 "" 2
 957              	.LVL129:
 958              		.thumb
 959              	.LBE20:
 960 0020 FFF7FEFF 		bl	dbg_check_lock
 961              	.LVL130:
 962              		.loc 1 326 0
 963 0024 2378     		ldrb	r3, [r4, #0]	@ zero_extendqisi2
 964 0026 022B     		cmp	r3, #2
 965 0028 02D0     		beq	.L102
 966              		.loc 1 326 0 is_stmt 0 discriminator 1
 967 002a 1348     		ldr	r0, .L117
ARM GAS  C:\cygwin\tmp\ccz87wwk.s 			page 18


 968 002c FFF7FEFF 		bl	chDbgPanic
 969              	.LVL131:
 970              	.L102:
 971              		.loc 1 327 0 is_stmt 1
 972 0030 6368     		ldr	r3, [r4, #4]
 973 0032 1B68     		ldr	r3, [r3, #0]
 974 0034 13B1     		cbz	r3, .L103
 975              		.loc 1 327 0 is_stmt 0 discriminator 1
 976 0036 1148     		ldr	r0, .L117+4
 977 0038 FFF7FEFF 		bl	chDbgPanic
 978              	.LVL132:
 979              	.L103:
 980              		.loc 1 329 0 is_stmt 1
 981 003c 0323     		movs	r3, #3
 982 003e 2370     		strb	r3, [r4, #0]
 983 0040 2046     		mov	r0, r4
 984 0042 3346     		mov	r3, r6
 985 0044 2946     		mov	r1, r5
 986 0046 3A46     		mov	r2, r7
 987 0048 FFF7FEFF 		bl	spi_lld_exchange
 988              	.LVL133:
 989              		.loc 1 330 0
 990 004c A368     		ldr	r3, [r4, #8]
 991 004e 13B1     		cbz	r3, .L104
 992              		.loc 1 330 0 is_stmt 0 discriminator 1
 993 0050 0B48     		ldr	r0, .L117+8
 994 0052 FFF7FEFF 		bl	chDbgPanic
 995              	.LVL134:
 996              	.L104:
 997              		.loc 1 330 0 discriminator 2
 998 0056 0B4B     		ldr	r3, .L117+12
 999 0058 9B69     		ldr	r3, [r3, #24]
 1000 005a 0220     		movs	r0, #2
 1001 005c A360     		str	r3, [r4, #8]
 1002 005e FFF7FEFF 		bl	chSchGoSleepS
 1003              	.LVL135:
 1004              		.loc 1 331 0 is_stmt 1 discriminator 2
 1005 0062 FFF7FEFF 		bl	dbg_check_unlock
 1006              	.LVL136:
 1007              	.LBB21:
 1008 0066 0023     		movs	r3, #0
 1009              	.LVL137:
 1010              	@ 331 "../../../os/hal/src/spi.c" 1
 1011 0068 83F31188 		msr     BASEPRI, r3
 1012              	@ 0 "" 2
 1013              	.LVL138:
 1014              		.thumb
 1015 006c F8BD     		pop	{r3, r4, r5, r6, r7, pc}
 1016              	.LVL139:
 1017              	.L100:
 1018              	.LBE21:
 1019              		.loc 1 322 0 discriminator 1
 1020 006e 0648     		ldr	r0, .L117+16
 1021              	.LVL140:
 1022 0070 FFF7FEFF 		bl	chDbgPanic
 1023              	.LVL141:
 1024 0074 D1E7     		b	.L101
ARM GAS  C:\cygwin\tmp\ccz87wwk.s 			page 19


 1025              	.L118:
 1026 0076 00BF     		.align	2
 1027              	.L117:
 1028 0078 84010000 		.word	.LC21
 1029 007c 98010000 		.word	.LC22
 1030 0080 64010000 		.word	.LC19
 1031 0084 00000000 		.word	rlist
 1032 0088 74010000 		.word	.LC20
 1033              		.cfi_endproc
 1034              	.LFE129:
 1035              		.size	spiExchange, .-spiExchange
 1036 008c AFF30080 		.section	.text.spiSend,"ax",%progbits
 1037              		.align	2
 1038              		.p2align 4,,15
 1039              		.global	spiSend
 1040              		.thumb
 1041              		.thumb_func
 1042              		.type	spiSend, %function
 1043              	spiSend:
 1044              	.LFB130:
 1045              		.loc 1 350 0
 1046              		.cfi_startproc
 1047              		@ args = 0, pretend = 0, frame = 0
 1048              		@ frame_needed = 0, uses_anonymous_args = 0
 1049              	.LVL142:
 1050              		.loc 1 352 0
 1051 0000 0028     		cmp	r0, #0
 1052 0002 18BF     		it	ne
 1053 0004 0029     		cmpne	r1, #0
 1054              		.loc 1 350 0
 1055 0006 70B5     		push	{r4, r5, r6, lr}
 1056              	.LCFI10:
 1057              		.cfi_def_cfa_offset 16
 1058              		.cfi_offset 4, -16
 1059              		.cfi_offset 5, -12
 1060              		.cfi_offset 6, -8
 1061              		.cfi_offset 14, -4
 1062              		.loc 1 352 0
 1063 0008 0D46     		mov	r5, r1
 1064 000a 0446     		mov	r4, r0
 1065              		.loc 1 350 0
 1066 000c 1646     		mov	r6, r2
 1067              		.loc 1 352 0
 1068 000e 29D0     		beq	.L120
 1069              		.loc 1 352 0 is_stmt 0 discriminator 2
 1070 0010 42B3     		cbz	r2, .L120
 1071              	.LVL143:
 1072              	.L121:
 1073              	.LBB22:
 1074              		.loc 1 354 0 is_stmt 1
 1075 0012 2023     		movs	r3, #32
 1076              	.LVL144:
 1077              	@ 354 "../../../os/hal/src/spi.c" 1
 1078 0014 83F31188 		msr     BASEPRI, r3
 1079              	@ 0 "" 2
 1080              	.LVL145:
 1081              		.thumb
ARM GAS  C:\cygwin\tmp\ccz87wwk.s 			page 20


 1082              	.LBE22:
 1083 0018 FFF7FEFF 		bl	dbg_check_lock
 1084              	.LVL146:
 1085              		.loc 1 355 0
 1086 001c 2378     		ldrb	r3, [r4, #0]	@ zero_extendqisi2
 1087 001e 022B     		cmp	r3, #2
 1088 0020 02D0     		beq	.L122
 1089              		.loc 1 355 0 is_stmt 0 discriminator 1
 1090 0022 1248     		ldr	r0, .L134
 1091 0024 FFF7FEFF 		bl	chDbgPanic
 1092              	.LVL147:
 1093              	.L122:
 1094              		.loc 1 356 0 is_stmt 1
 1095 0028 6368     		ldr	r3, [r4, #4]
 1096 002a 1B68     		ldr	r3, [r3, #0]
 1097 002c 13B1     		cbz	r3, .L123
 1098              		.loc 1 356 0 is_stmt 0 discriminator 1
 1099 002e 1048     		ldr	r0, .L134+4
 1100 0030 FFF7FEFF 		bl	chDbgPanic
 1101              	.LVL148:
 1102              	.L123:
 1103              		.loc 1 357 0 is_stmt 1
 1104 0034 0323     		movs	r3, #3
 1105 0036 2370     		strb	r3, [r4, #0]
 1106 0038 2046     		mov	r0, r4
 1107 003a 2946     		mov	r1, r5
 1108 003c 3246     		mov	r2, r6
 1109 003e FFF7FEFF 		bl	spi_lld_send
 1110              	.LVL149:
 1111              		.loc 1 358 0
 1112 0042 A368     		ldr	r3, [r4, #8]
 1113 0044 13B1     		cbz	r3, .L124
 1114              		.loc 1 358 0 is_stmt 0 discriminator 1
 1115 0046 0B48     		ldr	r0, .L134+8
 1116 0048 FFF7FEFF 		bl	chDbgPanic
 1117              	.LVL150:
 1118              	.L124:
 1119              		.loc 1 358 0 discriminator 2
 1120 004c 0A4B     		ldr	r3, .L134+12
 1121 004e 9B69     		ldr	r3, [r3, #24]
 1122 0050 0220     		movs	r0, #2
 1123 0052 A360     		str	r3, [r4, #8]
 1124 0054 FFF7FEFF 		bl	chSchGoSleepS
 1125              	.LVL151:
 1126              		.loc 1 359 0 is_stmt 1 discriminator 2
 1127 0058 FFF7FEFF 		bl	dbg_check_unlock
 1128              	.LVL152:
 1129              	.LBB23:
 1130 005c 0023     		movs	r3, #0
 1131              	.LVL153:
 1132              	@ 359 "../../../os/hal/src/spi.c" 1
 1133 005e 83F31188 		msr     BASEPRI, r3
 1134              	@ 0 "" 2
 1135              	.LVL154:
 1136              		.thumb
 1137 0062 70BD     		pop	{r4, r5, r6, pc}
 1138              	.LVL155:
ARM GAS  C:\cygwin\tmp\ccz87wwk.s 			page 21


 1139              	.L120:
 1140              	.LBE23:
 1141              		.loc 1 352 0 discriminator 1
 1142 0064 0548     		ldr	r0, .L134+16
 1143              	.LVL156:
 1144 0066 FFF7FEFF 		bl	chDbgPanic
 1145              	.LVL157:
 1146 006a D2E7     		b	.L121
 1147              	.L135:
 1148              		.align	2
 1149              	.L134:
 1150 006c B8010000 		.word	.LC24
 1151 0070 C8010000 		.word	.LC25
 1152 0074 64010000 		.word	.LC19
 1153 0078 00000000 		.word	rlist
 1154 007c AC010000 		.word	.LC23
 1155              		.cfi_endproc
 1156              	.LFE130:
 1157              		.size	spiSend, .-spiSend
 1158              		.section	.text.spiReceive,"ax",%progbits
 1159              		.align	2
 1160              		.p2align 4,,15
 1161              		.global	spiReceive
 1162              		.thumb
 1163              		.thumb_func
 1164              		.type	spiReceive, %function
 1165              	spiReceive:
 1166              	.LFB131:
 1167              		.loc 1 378 0
 1168              		.cfi_startproc
 1169              		@ args = 0, pretend = 0, frame = 0
 1170              		@ frame_needed = 0, uses_anonymous_args = 0
 1171              	.LVL158:
 1172              		.loc 1 380 0
 1173 0000 0028     		cmp	r0, #0
 1174 0002 18BF     		it	ne
 1175 0004 0029     		cmpne	r1, #0
 1176              		.loc 1 378 0
 1177 0006 70B5     		push	{r4, r5, r6, lr}
 1178              	.LCFI11:
 1179              		.cfi_def_cfa_offset 16
 1180              		.cfi_offset 4, -16
 1181              		.cfi_offset 5, -12
 1182              		.cfi_offset 6, -8
 1183              		.cfi_offset 14, -4
 1184              		.loc 1 380 0
 1185 0008 0D46     		mov	r5, r1
 1186 000a 0446     		mov	r4, r0
 1187              		.loc 1 378 0
 1188 000c 1646     		mov	r6, r2
 1189              		.loc 1 380 0
 1190 000e 29D0     		beq	.L137
 1191              		.loc 1 380 0 is_stmt 0 discriminator 2
 1192 0010 42B3     		cbz	r2, .L137
 1193              	.LVL159:
 1194              	.L138:
 1195              	.LBB24:
ARM GAS  C:\cygwin\tmp\ccz87wwk.s 			page 22


 1196              		.loc 1 383 0 is_stmt 1
 1197 0012 2023     		movs	r3, #32
 1198              	.LVL160:
 1199              	@ 383 "../../../os/hal/src/spi.c" 1
 1200 0014 83F31188 		msr     BASEPRI, r3
 1201              	@ 0 "" 2
 1202              	.LVL161:
 1203              		.thumb
 1204              	.LBE24:
 1205 0018 FFF7FEFF 		bl	dbg_check_lock
 1206              	.LVL162:
 1207              		.loc 1 384 0
 1208 001c 2378     		ldrb	r3, [r4, #0]	@ zero_extendqisi2
 1209 001e 022B     		cmp	r3, #2
 1210 0020 02D0     		beq	.L139
 1211              		.loc 1 384 0 is_stmt 0 discriminator 1
 1212 0022 1248     		ldr	r0, .L151
 1213 0024 FFF7FEFF 		bl	chDbgPanic
 1214              	.LVL163:
 1215              	.L139:
 1216              		.loc 1 385 0 is_stmt 1
 1217 0028 6368     		ldr	r3, [r4, #4]
 1218 002a 1B68     		ldr	r3, [r3, #0]
 1219 002c 13B1     		cbz	r3, .L140
 1220              		.loc 1 385 0 is_stmt 0 discriminator 1
 1221 002e 1048     		ldr	r0, .L151+4
 1222 0030 FFF7FEFF 		bl	chDbgPanic
 1223              	.LVL164:
 1224              	.L140:
 1225              		.loc 1 387 0 is_stmt 1
 1226 0034 0323     		movs	r3, #3
 1227 0036 2370     		strb	r3, [r4, #0]
 1228 0038 2046     		mov	r0, r4
 1229 003a 2946     		mov	r1, r5
 1230 003c 3246     		mov	r2, r6
 1231 003e FFF7FEFF 		bl	spi_lld_receive
 1232              	.LVL165:
 1233              		.loc 1 388 0
 1234 0042 A368     		ldr	r3, [r4, #8]
 1235 0044 13B1     		cbz	r3, .L141
 1236              		.loc 1 388 0 is_stmt 0 discriminator 1
 1237 0046 0B48     		ldr	r0, .L151+8
 1238 0048 FFF7FEFF 		bl	chDbgPanic
 1239              	.LVL166:
 1240              	.L141:
 1241              		.loc 1 388 0 discriminator 2
 1242 004c 0A4B     		ldr	r3, .L151+12
 1243 004e 9B69     		ldr	r3, [r3, #24]
 1244 0050 0220     		movs	r0, #2
 1245 0052 A360     		str	r3, [r4, #8]
 1246 0054 FFF7FEFF 		bl	chSchGoSleepS
 1247              	.LVL167:
 1248              		.loc 1 389 0 is_stmt 1 discriminator 2
 1249 0058 FFF7FEFF 		bl	dbg_check_unlock
 1250              	.LVL168:
 1251              	.LBB25:
 1252 005c 0023     		movs	r3, #0
ARM GAS  C:\cygwin\tmp\ccz87wwk.s 			page 23


 1253              	.LVL169:
 1254              	@ 389 "../../../os/hal/src/spi.c" 1
 1255 005e 83F31188 		msr     BASEPRI, r3
 1256              	@ 0 "" 2
 1257              	.LVL170:
 1258              		.thumb
 1259 0062 70BD     		pop	{r4, r5, r6, pc}
 1260              	.LVL171:
 1261              	.L137:
 1262              	.LBE25:
 1263              		.loc 1 380 0 discriminator 1
 1264 0064 0548     		ldr	r0, .L151+16
 1265              	.LVL172:
 1266 0066 FFF7FEFF 		bl	chDbgPanic
 1267              	.LVL173:
 1268 006a D2E7     		b	.L138
 1269              	.L152:
 1270              		.align	2
 1271              	.L151:
 1272 006c E8010000 		.word	.LC27
 1273 0070 FC010000 		.word	.LC28
 1274 0074 64010000 		.word	.LC19
 1275 0078 00000000 		.word	rlist
 1276 007c D8010000 		.word	.LC26
 1277              		.cfi_endproc
 1278              	.LFE131:
 1279              		.size	spiReceive, .-spiReceive
 1280              		.section	.text.spiAcquireBus,"ax",%progbits
 1281              		.align	2
 1282              		.p2align 4,,15
 1283              		.global	spiAcquireBus
 1284              		.thumb
 1285              		.thumb_func
 1286              		.type	spiAcquireBus, %function
 1287              	spiAcquireBus:
 1288              	.LFB132:
 1289              		.loc 1 405 0
 1290              		.cfi_startproc
 1291              		@ args = 0, pretend = 0, frame = 0
 1292              		@ frame_needed = 0, uses_anonymous_args = 0
 1293              	.LVL174:
 1294 0000 10B5     		push	{r4, lr}
 1295              	.LCFI12:
 1296              		.cfi_def_cfa_offset 8
 1297              		.cfi_offset 4, -8
 1298              		.cfi_offset 14, -4
 1299              		.loc 1 407 0
 1300 0002 0446     		mov	r4, r0
 1301 0004 28B1     		cbz	r0, .L155
 1302              	.LVL175:
 1303              	.L154:
 1304              		.loc 1 410 0
 1305 0006 04F10C00 		add	r0, r4, #12
 1306              		.loc 1 414 0
 1307 000a BDE81040 		pop	{r4, lr}
 1308              		.loc 1 410 0
 1309 000e FFF7FEBF 		b	chMtxLock
ARM GAS  C:\cygwin\tmp\ccz87wwk.s 			page 24


 1310              	.LVL176:
 1311              	.L155:
 1312              		.loc 1 407 0 discriminator 1
 1313 0012 0248     		ldr	r0, .L156
 1314              	.LVL177:
 1315 0014 FFF7FEFF 		bl	chDbgPanic
 1316              	.LVL178:
 1317 0018 F5E7     		b	.L154
 1318              	.L157:
 1319 001a 00BF     		.align	2
 1320              	.L156:
 1321 001c 10020000 		.word	.LC29
 1322              		.cfi_endproc
 1323              	.LFE132:
 1324              		.size	spiAcquireBus, .-spiAcquireBus
 1325              		.section	.text.spiReleaseBus,"ax",%progbits
 1326              		.align	2
 1327              		.p2align 4,,15
 1328              		.global	spiReleaseBus
 1329              		.thumb
 1330              		.thumb_func
 1331              		.type	spiReleaseBus, %function
 1332              	spiReleaseBus:
 1333              	.LFB133:
 1334              		.loc 1 425 0
 1335              		.cfi_startproc
 1336              		@ args = 0, pretend = 0, frame = 0
 1337              		@ frame_needed = 0, uses_anonymous_args = 0
 1338              	.LVL179:
 1339 0000 08B5     		push	{r3, lr}
 1340              	.LCFI13:
 1341              		.cfi_def_cfa_offset 8
 1342              		.cfi_offset 3, -8
 1343              		.cfi_offset 14, -4
 1344              		.loc 1 427 0
 1345 0002 18B1     		cbz	r0, .L160
 1346              	.LVL180:
 1347              	.L159:
 1348              		.loc 1 435 0
 1349 0004 BDE80840 		pop	{r3, lr}
 1350              		.loc 1 431 0
 1351 0008 FFF7FEBF 		b	chMtxUnlock
 1352              	.LVL181:
 1353              	.L160:
 1354              		.loc 1 427 0 discriminator 1
 1355 000c 0148     		ldr	r0, .L161
 1356              	.LVL182:
 1357 000e FFF7FEFF 		bl	chDbgPanic
 1358              	.LVL183:
 1359 0012 F7E7     		b	.L159
 1360              	.L162:
 1361              		.align	2
 1362              	.L161:
 1363 0014 24020000 		.word	.LC30
 1364              		.cfi_endproc
 1365              	.LFE133:
 1366              		.size	spiReleaseBus, .-spiReleaseBus
ARM GAS  C:\cygwin\tmp\ccz87wwk.s 			page 25


 1367 0018 AFF30080 		.section	.rodata.str1.4,"aMS",%progbits,1
 1367      AFF30080 
 1368              		.align	2
 1369              	.LC0:
 1370 0000 22737069 		.ascii	"\"spiStart\"()\000"
 1370      53746172 
 1370      74222829 
 1370      00
 1371 000d 000000   		.space	3
 1372              	.LC1:
 1373 0010 73706953 		.ascii	"spiStart(), #1\000"
 1373      74617274 
 1373      28292C20 
 1373      233100
 1374 001f 00       		.space	1
 1375              	.LC2:
 1376 0020 22737069 		.ascii	"\"spiStop\"()\000"
 1376      53746F70 
 1376      22282900 
 1377              	.LC3:
 1378 002c 73706953 		.ascii	"spiStop(), #1\000"
 1378      746F7028 
 1378      292C2023 
 1378      3100
 1379 003a 0000     		.space	2
 1380              	.LC4:
 1381 003c 22737069 		.ascii	"\"spiSelect\"()\000"
 1381      53656C65 
 1381      63742228 
 1381      2900
 1382 004a 0000     		.space	2
 1383              	.LC5:
 1384 004c 73706953 		.ascii	"spiSelect(), #1\000"
 1384      656C6563 
 1384      7428292C 
 1384      20233100 
 1385              	.LC6:
 1386 005c 22737069 		.ascii	"\"spiUnselect\"()\000"
 1386      556E7365 
 1386      6C656374 
 1386      22282900 
 1387              	.LC7:
 1388 006c 73706955 		.ascii	"spiUnselect(), #1\000"
 1388      6E73656C 
 1388      65637428 
 1388      292C2023 
 1388      3100
 1389 007e 0000     		.space	2
 1390              	.LC8:
 1391 0080 22737069 		.ascii	"\"spiStartIgnore\"()\000"
 1391      53746172 
 1391      7449676E 
 1391      6F726522 
 1391      282900
 1392 0093 00       		.space	1
 1393              	.LC9:
 1394 0094 73706953 		.ascii	"spiStartIgnore(), #1\000"
ARM GAS  C:\cygwin\tmp\ccz87wwk.s 			page 26


 1394      74617274 
 1394      49676E6F 
 1394      72652829 
 1394      2C202331 
 1395 00a9 000000   		.space	3
 1396              	.LC10:
 1397 00ac 22737069 		.ascii	"\"spiStartExchange\"()\000"
 1397      53746172 
 1397      74457863 
 1397      68616E67 
 1397      65222829 
 1398 00c1 000000   		.space	3
 1399              	.LC11:
 1400 00c4 73706953 		.ascii	"spiStartExchange(), #1\000"
 1400      74617274 
 1400      45786368 
 1400      616E6765 
 1400      28292C20 
 1401 00db 00       		.space	1
 1402              	.LC12:
 1403 00dc 22737069 		.ascii	"\"spiStartSend\"()\000"
 1403      53746172 
 1403      7453656E 
 1403      64222829 
 1403      00
 1404 00ed 000000   		.space	3
 1405              	.LC13:
 1406 00f0 73706953 		.ascii	"spiStartSend(), #1\000"
 1406      74617274 
 1406      53656E64 
 1406      28292C20 
 1406      233100
 1407 0103 00       		.space	1
 1408              	.LC14:
 1409 0104 22737069 		.ascii	"\"spiStartReceive\"()\000"
 1409      53746172 
 1409      74526563 
 1409      65697665 
 1409      22282900 
 1410              	.LC15:
 1411 0118 73706953 		.ascii	"spiStartReceive(), #1\000"
 1411      74617274 
 1411      52656365 
 1411      69766528 
 1411      292C2023 
 1412 012e 0000     		.space	2
 1413              	.LC16:
 1414 0130 22737069 		.ascii	"\"spiIgnoreWait\"()\000"
 1414      49676E6F 
 1414      72655761 
 1414      69742228 
 1414      2900
 1415 0142 0000     		.space	2
 1416              	.LC17:
 1417 0144 73706949 		.ascii	"spiIgnore(), #1\000"
 1417      676E6F72 
 1417      6528292C 
ARM GAS  C:\cygwin\tmp\ccz87wwk.s 			page 27


 1417      20233100 
 1418              	.LC18:
 1419 0154 73706949 		.ascii	"spiIgnore(), #2\000"
 1419      676E6F72 
 1419      6528292C 
 1419      20233200 
 1420              	.LC19:
 1421 0164 5F737069 		.ascii	"_spi_wait(), #1\000"
 1421      5F776169 
 1421      7428292C 
 1421      20233100 
 1422              	.LC20:
 1423 0174 22737069 		.ascii	"\"spiExchange\"()\000"
 1423      45786368 
 1423      616E6765 
 1423      22282900 
 1424              	.LC21:
 1425 0184 73706945 		.ascii	"spiExchange(), #1\000"
 1425      78636861 
 1425      6E676528 
 1425      292C2023 
 1425      3100
 1426 0196 0000     		.space	2
 1427              	.LC22:
 1428 0198 73706945 		.ascii	"spiExchange(), #2\000"
 1428      78636861 
 1428      6E676528 
 1428      292C2023 
 1428      3200
 1429 01aa 0000     		.space	2
 1430              	.LC23:
 1431 01ac 22737069 		.ascii	"\"spiSend\"()\000"
 1431      53656E64 
 1431      22282900 
 1432              	.LC24:
 1433 01b8 73706953 		.ascii	"spiSend(), #1\000"
 1433      656E6428 
 1433      292C2023 
 1433      3100
 1434 01c6 0000     		.space	2
 1435              	.LC25:
 1436 01c8 73706953 		.ascii	"spiSend(), #2\000"
 1436      656E6428 
 1436      292C2023 
 1436      3200
 1437 01d6 0000     		.space	2
 1438              	.LC26:
 1439 01d8 22737069 		.ascii	"\"spiReceive\"()\000"
 1439      52656365 
 1439      69766522 
 1439      282900
 1440 01e7 00       		.space	1
 1441              	.LC27:
 1442 01e8 73706952 		.ascii	"spiReceive(), #1\000"
 1442      65636569 
 1442      76652829 
 1442      2C202331 
ARM GAS  C:\cygwin\tmp\ccz87wwk.s 			page 28


 1442      00
 1443 01f9 000000   		.space	3
 1444              	.LC28:
 1445 01fc 73706952 		.ascii	"spiReceive(), #2\000"
 1445      65636569 
 1445      76652829 
 1445      2C202332 
 1445      00
 1446 020d 000000   		.space	3
 1447              	.LC29:
 1448 0210 22737069 		.ascii	"\"spiAcquireBus\"()\000"
 1448      41637175 
 1448      69726542 
 1448      75732228 
 1448      2900
 1449 0222 0000     		.space	2
 1450              	.LC30:
 1451 0224 22737069 		.ascii	"\"spiReleaseBus\"()\000"
 1451      52656C65 
 1451      61736542 
 1451      75732228 
 1451      2900
 1452 0236 0000     		.text
 1453              	.Letext0:
 1454              		.file 2 "c:\\develop\\gimst\\chibistudio\\tools\\yagarto-tools\\yagarto-20121222\\bin\\../lib/gcc/
 1455              		.file 3 "c:/develop/gimst/chibistudio/tools/yagarto-tools/yagarto-20121222/lib/gcc/../../arm-none-
 1456              		.file 4 "../../../os/ports/GCC/ARMCMx/chtypes.h"
 1457              		.file 5 "../../../os/kernel/include/chlists.h"
 1458              		.file 6 "../../../os/kernel/include/chthreads.h"
 1459              		.file 7 "../../../os/ports/GCC/ARMCMx/chcore_v7m.h"
 1460              		.file 8 "../../../os/kernel/include/chschd.h"
 1461              		.file 9 "../../../os/kernel/include/chmtx.h"
 1462              		.file 10 "../../../os/hal/platforms/STM32F30x/stm32f30x.h"
 1463              		.file 11 "../../../os/hal/platforms/STM32F30x/stm32_dma.h"
 1464              		.file 12 "../../../os/hal/platforms/STM32/GPIOv2/pal_lld.h"
 1465              		.file 13 "../../../os/hal/include/spi.h"
 1466              		.file 14 "../../../os/hal/platforms/STM32/SPIv2/spi_lld.h"
 1467              		.file 15 "../../../os/ports/common/ARMCMx/CMSIS/include/core_cm4.h"
 1468              		.file 16 "../../../os/kernel/include/chdebug.h"