ARM GAS  C:\Users\TaisikHam\AppData\Local\Temp\ccNzzKEh.s 			page 1


   1              		.syntax unified
   2              		.cpu cortex-m4
   3              		.fpu softvfp
   4              		.eabi_attribute 20, 1
   5              		.eabi_attribute 21, 1
   6              		.eabi_attribute 23, 3
   7              		.eabi_attribute 24, 1
   8              		.eabi_attribute 25, 1
   9              		.eabi_attribute 26, 1
  10              		.eabi_attribute 30, 2
  11              		.eabi_attribute 34, 1
  12              		.eabi_attribute 18, 4
  13              		.thumb
  14              		.file	"stm32f30x_spi.c"
  15              		.text
  16              	.Ltext0:
  17              		.cfi_sections	.debug_frame
  18              		.section	.text.SPI_I2S_DeInit,"ax",%progbits
  19              		.align	2
  20              		.p2align 4,,15
  21              		.global	SPI_I2S_DeInit
  22              		.thumb
  23              		.thumb_func
  24              		.type	SPI_I2S_DeInit, %function
  25              	SPI_I2S_DeInit:
  26              	.LFB111:
  27              		.file 1 "../../../Testhal_wrk/STM32F30x/Gyro/stm32f30x_spi.c"
  28              		.loc 1 191 0
  29              		.cfi_startproc
  30              		@ args = 0, pretend = 0, frame = 0
  31              		@ frame_needed = 0, uses_anonymous_args = 0
  32              	.LVL0:
  33 0000 08B5     		push	{r3, lr}
  34              	.LCFI0:
  35              		.cfi_def_cfa_offset 8
  36              		.cfi_offset 3, -8
  37              		.cfi_offset 14, -4
  38              		.loc 1 196 0
  39 0002 4FF44053 		mov	r3, #12288
  40 0006 C4F20103 		movt	r3, 16385
  41 000a 9842     		cmp	r0, r3
  42 000c 18D0     		beq	.L6
  43              		.loc 1 203 0
  44 000e 4FF46053 		mov	r3, #14336
  45 0012 C4F20003 		movt	r3, 16384
  46 0016 9842     		cmp	r0, r3
  47 0018 1ED0     		beq	.L7
  48              		.loc 1 212 0
  49 001a 4FF47053 		mov	r3, #15360
  50 001e C4F20003 		movt	r3, 16384
  51 0022 9842     		cmp	r0, r3
  52 0024 00D0     		beq	.L8
  53 0026 08BD     		pop	{r3, pc}
  54              	.L8:
  55              		.loc 1 215 0
  56 0028 0121     		movs	r1, #1
  57 002a 4FF40040 		mov	r0, #32768
ARM GAS  C:\Users\TaisikHam\AppData\Local\Temp\ccNzzKEh.s 			page 2


  58              	.LVL1:
  59 002e FFF7FEFF 		bl	RCC_APB1PeriphResetCmd
  60              	.LVL2:
  61              		.loc 1 217 0
  62 0032 4FF40040 		mov	r0, #32768
  63 0036 0021     		movs	r1, #0
  64              		.loc 1 220 0
  65 0038 BDE80840 		pop	{r3, lr}
  66              		.loc 1 217 0
  67 003c FFF7FEBF 		b	RCC_APB1PeriphResetCmd
  68              	.LVL3:
  69              	.L6:
  70              		.loc 1 199 0
  71 0040 0121     		movs	r1, #1
  72 0042 4FF48050 		mov	r0, #4096
  73              	.LVL4:
  74 0046 FFF7FEFF 		bl	RCC_APB2PeriphResetCmd
  75              	.LVL5:
  76              		.loc 1 201 0
  77 004a 4FF48050 		mov	r0, #4096
  78 004e 0021     		movs	r1, #0
  79              		.loc 1 220 0
  80 0050 BDE80840 		pop	{r3, lr}
  81              		.loc 1 201 0
  82 0054 FFF7FEBF 		b	RCC_APB2PeriphResetCmd
  83              	.LVL6:
  84              	.L7:
  85              		.loc 1 206 0
  86 0058 0121     		movs	r1, #1
  87 005a 4FF48040 		mov	r0, #16384
  88              	.LVL7:
  89 005e FFF7FEFF 		bl	RCC_APB1PeriphResetCmd
  90              	.LVL8:
  91              		.loc 1 208 0
  92 0062 4FF48040 		mov	r0, #16384
  93 0066 0021     		movs	r1, #0
  94              		.loc 1 220 0
  95 0068 BDE80840 		pop	{r3, lr}
  96              		.loc 1 208 0
  97 006c FFF7FEBF 		b	RCC_APB1PeriphResetCmd
  98              	.LVL9:
  99              		.cfi_endproc
 100              	.LFE111:
 101              		.size	SPI_I2S_DeInit, .-SPI_I2S_DeInit
 102              		.section	.text.SPI_StructInit,"ax",%progbits
 103              		.align	2
 104              		.p2align 4,,15
 105              		.global	SPI_StructInit
 106              		.thumb
 107              		.thumb_func
 108              		.type	SPI_StructInit, %function
 109              	SPI_StructInit:
 110              	.LFB112:
 111              		.loc 1 228 0
 112              		.cfi_startproc
 113              		@ args = 0, pretend = 0, frame = 0
 114              		@ frame_needed = 0, uses_anonymous_args = 0
ARM GAS  C:\Users\TaisikHam\AppData\Local\Temp\ccNzzKEh.s 			page 3


 115              		@ link register save eliminated.
 116              	.LVL10:
 117              		.loc 1 231 0
 118 0000 0023     		movs	r3, #0
 119 0002 0380     		strh	r3, [r0, #0]	@ movhi
 120              		.loc 1 233 0
 121 0004 4380     		strh	r3, [r0, #2]	@ movhi
 122              		.loc 1 235 0
 123 0006 4FF4E062 		mov	r2, #1792
 124              		.loc 1 237 0
 125 000a C380     		strh	r3, [r0, #6]	@ movhi
 126              		.loc 1 239 0
 127 000c 0381     		strh	r3, [r0, #8]	@ movhi
 128              		.loc 1 241 0
 129 000e 4381     		strh	r3, [r0, #10]	@ movhi
 130              		.loc 1 243 0
 131 0010 8381     		strh	r3, [r0, #12]	@ movhi
 132              		.loc 1 245 0
 133 0012 C381     		strh	r3, [r0, #14]	@ movhi
 134              		.loc 1 247 0
 135 0014 0723     		movs	r3, #7
 136              		.loc 1 235 0
 137 0016 8280     		strh	r2, [r0, #4]	@ movhi
 138              		.loc 1 247 0
 139 0018 0382     		strh	r3, [r0, #16]	@ movhi
 140 001a 7047     		bx	lr
 141              		.cfi_endproc
 142              	.LFE112:
 143              		.size	SPI_StructInit, .-SPI_StructInit
 144 001c AFF30080 		.section	.text.SPI_Init,"ax",%progbits
 145              		.align	2
 146              		.p2align 4,,15
 147              		.global	SPI_Init
 148              		.thumb
 149              		.thumb_func
 150              		.type	SPI_Init, %function
 151              	SPI_Init:
 152              	.LFB113:
 153              		.loc 1 259 0
 154              		.cfi_startproc
 155              		@ args = 0, pretend = 0, frame = 0
 156              		@ frame_needed = 0, uses_anonymous_args = 0
 157              		@ link register save eliminated.
 158              	.LVL11:
 159              		.loc 1 279 0
 160 0000 4A88     		ldrh	r2, [r1, #2]
 161 0002 B2F5827F 		cmp	r2, #260
 162              		.loc 1 259 0
 163 0006 2DE9F003 		push	{r4, r5, r6, r7, r8, r9}
 164              	.LCFI1:
 165              		.cfi_def_cfa_offset 24
 166              		.cfi_offset 4, -24
 167              		.cfi_offset 5, -20
 168              		.cfi_offset 6, -16
 169              		.cfi_offset 7, -12
 170              		.cfi_offset 8, -8
 171              		.cfi_offset 9, -4
ARM GAS  C:\Users\TaisikHam\AppData\Local\Temp\ccNzzKEh.s 			page 4


 172              		.loc 1 279 0
 173 000a 2BD0     		beq	.L13
 174              		.loc 1 315 0
 175 000c 8388     		ldrh	r3, [r0, #4]
 176              	.LVL12:
 177              		.loc 1 335 0
 178 000e B1F80090 		ldrh	r9, [r1, #0]
 179              		.loc 1 319 0
 180 0012 B1F804C0 		ldrh	ip, [r1, #4]
 181              		.loc 1 337 0
 182 0016 B1F80680 		ldrh	r8, [r1, #6]
 183 001a 0F89     		ldrh	r7, [r1, #8]
 184              		.loc 1 336 0
 185 001c 4E89     		ldrh	r6, [r1, #10]
 186 001e 8D89     		ldrh	r5, [r1, #12]
 187              		.loc 1 335 0
 188 0020 CC89     		ldrh	r4, [r1, #14]
 189              		.loc 1 317 0
 190 0022 23F47063 		bic	r3, r3, #3840
 191              	.LVL13:
 192 0026 1B04     		lsls	r3, r3, #16
 193 0028 1B0C     		lsrs	r3, r3, #16
 194              	.LVL14:
 195              		.loc 1 335 0
 196 002a 42EA0902 		orr	r2, r2, r9
 197              		.loc 1 319 0
 198 002e 43EA0C0C 		orr	ip, r3, ip
 199              	.LVL15:
 200              		.loc 1 337 0
 201 0032 42EA0803 		orr	r3, r2, r8
 202              		.loc 1 321 0
 203 0036 A0F804C0 		strh	ip, [r0, #4]	@ movhi
 204              		.loc 1 337 0
 205 003a 3B43     		orrs	r3, r3, r7
 206              		.loc 1 324 0
 207 003c 0288     		ldrh	r2, [r0, #0]
 208              	.LVL16:
 209              		.loc 1 336 0
 210 003e 3343     		orrs	r3, r3, r6
 211 0040 2B43     		orrs	r3, r3, r5
 212              		.loc 1 326 0
 213 0042 02F44152 		and	r2, r2, #12352
 214              	.LVL17:
 215              		.loc 1 335 0
 216 0046 2343     		orrs	r3, r3, r4
 217 0048 1343     		orrs	r3, r3, r2
 218 004a 9BB2     		uxth	r3, r3
 219              	.LVL18:
 220              		.loc 1 341 0
 221 004c 0380     		strh	r3, [r0, #0]	@ movhi
 222              	.LVL19:
 223              	.L12:
 224              		.loc 1 345 0
 225 004e 838B     		ldrh	r3, [r0, #28]
 226              		.loc 1 349 0
 227 0050 0A8A     		ldrh	r2, [r1, #16]
 228              		.loc 1 345 0
ARM GAS  C:\Users\TaisikHam\AppData\Local\Temp\ccNzzKEh.s 			page 5


 229 0052 23F40063 		bic	r3, r3, #2048
 230 0056 1B04     		lsls	r3, r3, #16
 231 0058 1B0C     		lsrs	r3, r3, #16
 232 005a 8383     		strh	r3, [r0, #28]	@ movhi
 233              		.loc 1 349 0
 234 005c 0282     		strh	r2, [r0, #16]	@ movhi
 235              		.loc 1 350 0
 236 005e BDE8F003 		pop	{r4, r5, r6, r7, r8, r9}
 237 0062 7047     		bx	lr
 238              	.LVL20:
 239              	.L13:
 240              		.loc 1 294 0
 241 0064 B1F80080 		ldrh	r8, [r1, #0]
 242 0068 CB88     		ldrh	r3, [r1, #6]
 243              		.loc 1 296 0
 244 006a B1F808C0 		ldrh	ip, [r1, #8]
 245              		.loc 1 295 0
 246 006e 4F89     		ldrh	r7, [r1, #10]
 247 0070 8E89     		ldrh	r6, [r1, #12]
 248              		.loc 1 283 0
 249 0072 0488     		ldrh	r4, [r0, #0]
 250              	.LVL21:
 251              		.loc 1 294 0
 252 0074 CD89     		ldrh	r5, [r1, #14]
 253              		.loc 1 306 0
 254 0076 8A88     		ldrh	r2, [r1, #4]
 255              		.loc 1 294 0
 256 0078 48EA0303 		orr	r3, r8, r3
 257              		.loc 1 296 0
 258 007c 43F48273 		orr	r3, r3, #260
 259 0080 43EA0C03 		orr	r3, r3, ip
 260              		.loc 1 295 0
 261 0084 3B43     		orrs	r3, r3, r7
 262 0086 3343     		orrs	r3, r3, r6
 263              		.loc 1 285 0
 264 0088 04F44154 		and	r4, r4, #12352
 265              	.LVL22:
 266              		.loc 1 294 0
 267 008c 2B43     		orrs	r3, r3, r5
 268 008e 2343     		orrs	r3, r3, r4
 269 0090 9BB2     		uxth	r3, r3
 270              	.LVL23:
 271              		.loc 1 299 0
 272 0092 0380     		strh	r3, [r0, #0]	@ movhi
 273              		.loc 1 302 0
 274 0094 8388     		ldrh	r3, [r0, #4]
 275              	.LVL24:
 276              		.loc 1 304 0
 277 0096 23F47063 		bic	r3, r3, #3840
 278              	.LVL25:
 279 009a 1B04     		lsls	r3, r3, #16
 280 009c 1B0C     		lsrs	r3, r3, #16
 281              	.LVL26:
 282              		.loc 1 306 0
 283 009e 1343     		orrs	r3, r3, r2
 284              	.LVL27:
 285              		.loc 1 308 0
ARM GAS  C:\Users\TaisikHam\AppData\Local\Temp\ccNzzKEh.s 			page 6


 286 00a0 8380     		strh	r3, [r0, #4]	@ movhi
 287 00a2 D4E7     		b	.L12
 288              		.cfi_endproc
 289              	.LFE113:
 290              		.size	SPI_Init, .-SPI_Init
 291 00a4 AFF30080 		.section	.text.I2S_StructInit,"ax",%progbits
 291      AFF30080 
 291      AFF30080 
 292              		.align	2
 293              		.p2align 4,,15
 294              		.global	I2S_StructInit
 295              		.thumb
 296              		.thumb_func
 297              		.type	I2S_StructInit, %function
 298              	I2S_StructInit:
 299              	.LFB114:
 300              		.loc 1 358 0
 301              		.cfi_startproc
 302              		@ args = 0, pretend = 0, frame = 0
 303              		@ frame_needed = 0, uses_anonymous_args = 0
 304              		@ link register save eliminated.
 305              	.LVL28:
 306              		.loc 1 361 0
 307 0000 0023     		movs	r3, #0
 308              		.loc 1 373 0
 309 0002 0222     		movs	r2, #2
 310              		.loc 1 361 0
 311 0004 0380     		strh	r3, [r0, #0]	@ movhi
 312              		.loc 1 364 0
 313 0006 4380     		strh	r3, [r0, #2]	@ movhi
 314              		.loc 1 367 0
 315 0008 8380     		strh	r3, [r0, #4]	@ movhi
 316              		.loc 1 370 0
 317 000a C380     		strh	r3, [r0, #6]	@ movhi
 318              		.loc 1 373 0
 319 000c 8260     		str	r2, [r0, #8]
 320              		.loc 1 376 0
 321 000e 8381     		strh	r3, [r0, #12]	@ movhi
 322 0010 7047     		bx	lr
 323              		.cfi_endproc
 324              	.LFE114:
 325              		.size	I2S_StructInit, .-I2S_StructInit
 326 0012 00BFAFF3 		.section	.text.I2S_Init,"ax",%progbits
 326      0080AFF3 
 326      0080AFF3 
 326      0080
 327              		.align	2
 328              		.p2align 4,,15
 329              		.global	I2S_Init
 330              		.thumb
 331              		.thumb_func
 332              		.type	I2S_Init, %function
 333              	I2S_Init:
 334              	.LFB115:
 335              		.loc 1 395 0
 336              		.cfi_startproc
 337              		@ args = 0, pretend = 0, frame = 64
ARM GAS  C:\Users\TaisikHam\AppData\Local\Temp\ccNzzKEh.s 			page 7


 338              		@ frame_needed = 0, uses_anonymous_args = 0
 339              	.LVL29:
 340              		.loc 1 414 0
 341 0000 838B     		ldrh	r3, [r0, #28]
 342              		.loc 1 421 0
 343 0002 8A68     		ldr	r2, [r1, #8]
 344              		.loc 1 414 0
 345 0004 23F47B63 		bic	r3, r3, #4016
 346 0008 23F00F03 		bic	r3, r3, #15
 347 000c 1B04     		lsls	r3, r3, #16
 348              		.loc 1 395 0
 349 000e F0B5     		push	{r4, r5, r6, r7, lr}
 350              	.LCFI2:
 351              		.cfi_def_cfa_offset 20
 352              		.cfi_offset 4, -20
 353              		.cfi_offset 5, -16
 354              		.cfi_offset 6, -12
 355              		.cfi_offset 7, -8
 356              		.cfi_offset 14, -4
 357              		.loc 1 414 0
 358 0010 1B0C     		lsrs	r3, r3, #16
 359 0012 8383     		strh	r3, [r0, #28]	@ movhi
 360              		.loc 1 415 0
 361 0014 0223     		movs	r3, #2
 362 0016 0384     		strh	r3, [r0, #32]	@ movhi
 363              		.loc 1 418 0
 364 0018 868B     		ldrh	r6, [r0, #28]
 365              		.loc 1 421 0
 366 001a 9A42     		cmp	r2, r3
 367              		.loc 1 395 0
 368 001c 91B0     		sub	sp, sp, #68
 369              	.LCFI3:
 370              		.cfi_def_cfa_offset 88
 371              		.loc 1 395 0
 372 001e 0546     		mov	r5, r0
 373 0020 0C46     		mov	r4, r1
 374              		.loc 1 418 0
 375 0022 B6B2     		uxth	r6, r6
 376              	.LVL30:
 377 0024 08BF     		it	eq
 378 0026 CB88     		ldrheq	r3, [r1, #6]
 379              		.loc 1 421 0
 380 0028 27D0     		beq	.L21
 381              		.loc 1 430 0
 382 002a 8A88     		ldrh	r2, [r1, #4]
 383              		.loc 1 442 0
 384 002c 01A8     		add	r0, sp, #4
 385              	.LVL31:
 386              		.loc 1 433 0
 387 002e 002A     		cmp	r2, #0
 388 0030 14BF     		ite	ne
 389 0032 0227     		movne	r7, #2
 390 0034 0127     		moveq	r7, #1
 391              	.LVL32:
 392              		.loc 1 442 0
 393 0036 FFF7FEFF 		bl	RCC_GetClocksFreq
 394              	.LVL33:
ARM GAS  C:\Users\TaisikHam\AppData\Local\Temp\ccNzzKEh.s 			page 8


 395              		.loc 1 448 0
 396 003a E388     		ldrh	r3, [r4, #6]
 397              		.loc 1 445 0
 398 003c 0199     		ldr	r1, [sp, #4]
 399              	.LVL34:
 400              		.loc 1 448 0
 401 003e B3F5007F 		cmp	r3, #512
 402 0042 2DD0     		beq	.L24
 403              		.loc 1 456 0
 404 0044 7A01     		lsls	r2, r7, #5
 405 0046 B1FBF2F2 		udiv	r2, r1, r2
 406 004a 02EB8202 		add	r2, r2, r2, lsl #2
 407 004e A168     		ldr	r1, [r4, #8]
 408              	.LVL35:
 409 0050 5200     		lsls	r2, r2, #1
 410 0052 B2FBF1F2 		udiv	r2, r2, r1
 411 0056 0532     		adds	r2, r2, #5
 412 0058 92B2     		uxth	r2, r2
 413              	.LVL36:
 414              	.L20:
 415              		.loc 1 460 0
 416 005a 4CF6CD41 		movw	r1, #52429
 417 005e CCF6CC41 		movt	r1, 52428
 418 0062 A1FB0202 		umull	r0, r2, r1, r2
 419              	.LVL37:
 420 0066 D208     		lsrs	r2, r2, #3
 421              	.LVL38:
 422              		.loc 1 466 0
 423 0068 5108     		lsrs	r1, r2, #1
 424              	.LVL39:
 425              		.loc 1 473 0
 426 006a 881E     		subs	r0, r1, #2
 427              		.loc 1 466 0
 428 006c 02F00102 		and	r2, r2, #1
 429              	.LVL40:
 430              		.loc 1 473 0
 431 0070 FD28     		cmp	r0, #253
 432 0072 94BF     		ite	ls
 433 0074 41EA0222 		orrls	r2, r1, r2, lsl #8
 434 0078 0222     		movhi	r2, #2
 435              	.LVL41:
 436              	.L21:
 437              		.loc 1 485 0
 438 007a 2188     		ldrh	r1, [r4, #0]
 439              		.loc 1 484 0
 440 007c B4F802C0 		ldrh	ip, [r4, #2]
 441 0080 A788     		ldrh	r7, [r4, #4]
 442 0082 A089     		ldrh	r0, [r4, #12]
 443              		.loc 1 485 0
 444 0084 3143     		orrs	r1, r1, r6
 445 0086 41F40061 		orr	r1, r1, #2048
 446              		.loc 1 484 0
 447 008a 41EA0C01 		orr	r1, r1, ip
 448 008e 3943     		orrs	r1, r1, r7
 449              		.loc 1 481 0
 450 0090 1343     		orrs	r3, r3, r2
 451              		.loc 1 484 0
ARM GAS  C:\Users\TaisikHam\AppData\Local\Temp\ccNzzKEh.s 			page 9


 452 0092 0143     		orrs	r1, r1, r0
 453              		.loc 1 481 0
 454 0094 9BB2     		uxth	r3, r3
 455              		.loc 1 484 0
 456 0096 89B2     		uxth	r1, r1
 457              	.LVL42:
 458              		.loc 1 481 0
 459 0098 2B84     		strh	r3, [r5, #32]	@ movhi
 460              		.loc 1 489 0
 461 009a A983     		strh	r1, [r5, #28]	@ movhi
 462              		.loc 1 490 0
 463 009c 11B0     		add	sp, sp, #68
 464 009e F0BD     		pop	{r4, r5, r6, r7, pc}
 465              	.LVL43:
 466              	.L24:
 467              		.loc 1 451 0
 468 00a0 090A     		lsrs	r1, r1, #8
 469              	.LVL44:
 470 00a2 01EB8101 		add	r1, r1, r1, lsl #2
 471 00a6 A068     		ldr	r0, [r4, #8]
 472 00a8 4A00     		lsls	r2, r1, #1
 473 00aa B2FBF0F2 		udiv	r2, r2, r0
 474 00ae 0532     		adds	r2, r2, #5
 475 00b0 92B2     		uxth	r2, r2
 476              	.LVL45:
 477 00b2 D2E7     		b	.L20
 478              		.cfi_endproc
 479              	.LFE115:
 480              		.size	I2S_Init, .-I2S_Init
 481 00b4 AFF30080 		.section	.text.SPI_Cmd,"ax",%progbits
 481      AFF30080 
 481      AFF30080 
 482              		.align	2
 483              		.p2align 4,,15
 484              		.global	SPI_Cmd
 485              		.thumb
 486              		.thumb_func
 487              		.type	SPI_Cmd, %function
 488              	SPI_Cmd:
 489              	.LFB116:
 490              		.loc 1 500 0
 491              		.cfi_startproc
 492              		@ args = 0, pretend = 0, frame = 0
 493              		@ frame_needed = 0, uses_anonymous_args = 0
 494              		@ link register save eliminated.
 495              	.LVL46:
 496              		.loc 1 510 0
 497 0000 0388     		ldrh	r3, [r0, #0]
 498              		.loc 1 507 0
 499 0002 29B9     		cbnz	r1, .L28
 500              		.loc 1 515 0
 501 0004 23F04003 		bic	r3, r3, #64
 502 0008 1B04     		lsls	r3, r3, #16
 503 000a 1B0C     		lsrs	r3, r3, #16
 504 000c 0380     		strh	r3, [r0, #0]	@ movhi
 505 000e 7047     		bx	lr
 506              	.L28:
ARM GAS  C:\Users\TaisikHam\AppData\Local\Temp\ccNzzKEh.s 			page 10


 507              		.loc 1 510 0
 508 0010 9BB2     		uxth	r3, r3
 509 0012 43F04003 		orr	r3, r3, #64
 510 0016 0380     		strh	r3, [r0, #0]	@ movhi
 511 0018 7047     		bx	lr
 512              		.cfi_endproc
 513              	.LFE116:
 514              		.size	SPI_Cmd, .-SPI_Cmd
 515 001a 00BFAFF3 		.section	.text.SPI_TIModeCmd,"ax",%progbits
 515      0080
 516              		.align	2
 517              		.p2align 4,,15
 518              		.global	SPI_TIModeCmd
 519              		.thumb
 520              		.thumb_func
 521              		.type	SPI_TIModeCmd, %function
 522              	SPI_TIModeCmd:
 523              	.LFB117:
 524              		.loc 1 532 0
 525              		.cfi_startproc
 526              		@ args = 0, pretend = 0, frame = 0
 527              		@ frame_needed = 0, uses_anonymous_args = 0
 528              		@ link register save eliminated.
 529              	.LVL47:
 530              		.loc 1 542 0
 531 0000 8388     		ldrh	r3, [r0, #4]
 532              		.loc 1 539 0
 533 0002 29B9     		cbnz	r1, .L32
 534              		.loc 1 547 0
 535 0004 23F01003 		bic	r3, r3, #16
 536 0008 1B04     		lsls	r3, r3, #16
 537 000a 1B0C     		lsrs	r3, r3, #16
 538 000c 8380     		strh	r3, [r0, #4]	@ movhi
 539 000e 7047     		bx	lr
 540              	.L32:
 541              		.loc 1 542 0
 542 0010 9BB2     		uxth	r3, r3
 543 0012 43F01003 		orr	r3, r3, #16
 544 0016 8380     		strh	r3, [r0, #4]	@ movhi
 545 0018 7047     		bx	lr
 546              		.cfi_endproc
 547              	.LFE117:
 548              		.size	SPI_TIModeCmd, .-SPI_TIModeCmd
 549 001a 00BFAFF3 		.section	.text.I2S_Cmd,"ax",%progbits
 549      0080
 550              		.align	2
 551              		.p2align 4,,15
 552              		.global	I2S_Cmd
 553              		.thumb
 554              		.thumb_func
 555              		.type	I2S_Cmd, %function
 556              	I2S_Cmd:
 557              	.LFB118:
 558              		.loc 1 560 0
 559              		.cfi_startproc
 560              		@ args = 0, pretend = 0, frame = 0
 561              		@ frame_needed = 0, uses_anonymous_args = 0
ARM GAS  C:\Users\TaisikHam\AppData\Local\Temp\ccNzzKEh.s 			page 11


 562              		@ link register save eliminated.
 563              	.LVL48:
 564              		.loc 1 570 0
 565 0000 838B     		ldrh	r3, [r0, #28]
 566              		.loc 1 567 0
 567 0002 29B9     		cbnz	r1, .L36
 568              		.loc 1 575 0
 569 0004 23F48063 		bic	r3, r3, #1024
 570 0008 1B04     		lsls	r3, r3, #16
 571 000a 1B0C     		lsrs	r3, r3, #16
 572 000c 8383     		strh	r3, [r0, #28]	@ movhi
 573 000e 7047     		bx	lr
 574              	.L36:
 575              		.loc 1 570 0
 576 0010 9BB2     		uxth	r3, r3
 577 0012 43F48063 		orr	r3, r3, #1024
 578 0016 8383     		strh	r3, [r0, #28]	@ movhi
 579 0018 7047     		bx	lr
 580              		.cfi_endproc
 581              	.LFE118:
 582              		.size	I2S_Cmd, .-I2S_Cmd
 583 001a 00BFAFF3 		.section	.text.SPI_DataSizeConfig,"ax",%progbits
 583      0080
 584              		.align	2
 585              		.p2align 4,,15
 586              		.global	SPI_DataSizeConfig
 587              		.thumb
 588              		.thumb_func
 589              		.type	SPI_DataSizeConfig, %function
 590              	SPI_DataSizeConfig:
 591              	.LFB119:
 592              		.loc 1 600 0
 593              		.cfi_startproc
 594              		@ args = 0, pretend = 0, frame = 0
 595              		@ frame_needed = 0, uses_anonymous_args = 0
 596              		@ link register save eliminated.
 597              	.LVL49:
 598              		.loc 1 609 0
 599 0000 8388     		ldrh	r3, [r0, #4]
 600              	.LVL50:
 601              		.loc 1 611 0
 602 0002 23F47063 		bic	r3, r3, #3840
 603              	.LVL51:
 604 0006 1B04     		lsls	r3, r3, #16
 605 0008 1B0C     		lsrs	r3, r3, #16
 606              	.LVL52:
 607              		.loc 1 613 0
 608 000a 1943     		orrs	r1, r1, r3
 609              	.LVL53:
 610              		.loc 1 614 0
 611 000c 8180     		strh	r1, [r0, #4]	@ movhi
 612 000e 7047     		bx	lr
 613              		.cfi_endproc
 614              	.LFE119:
 615              		.size	SPI_DataSizeConfig, .-SPI_DataSizeConfig
 616              		.section	.text.SPI_RxFIFOThresholdConfig,"ax",%progbits
 617              		.align	2
ARM GAS  C:\Users\TaisikHam\AppData\Local\Temp\ccNzzKEh.s 			page 12


 618              		.p2align 4,,15
 619              		.global	SPI_RxFIFOThresholdConfig
 620              		.thumb
 621              		.thumb_func
 622              		.type	SPI_RxFIFOThresholdConfig, %function
 623              	SPI_RxFIFOThresholdConfig:
 624              	.LFB120:
 625              		.loc 1 629 0
 626              		.cfi_startproc
 627              		@ args = 0, pretend = 0, frame = 0
 628              		@ frame_needed = 0, uses_anonymous_args = 0
 629              		@ link register save eliminated.
 630              	.LVL54:
 631              		.loc 1 637 0
 632 0000 8388     		ldrh	r3, [r0, #4]
 633 0002 23F48053 		bic	r3, r3, #4096
 634 0006 1B04     		lsls	r3, r3, #16
 635 0008 1B0C     		lsrs	r3, r3, #16
 636 000a 8380     		strh	r3, [r0, #4]	@ movhi
 637              		.loc 1 640 0
 638 000c 8388     		ldrh	r3, [r0, #4]
 639 000e 9BB2     		uxth	r3, r3
 640 0010 1943     		orrs	r1, r1, r3
 641              	.LVL55:
 642 0012 8180     		strh	r1, [r0, #4]	@ movhi
 643 0014 7047     		bx	lr
 644              		.cfi_endproc
 645              	.LFE120:
 646              		.size	SPI_RxFIFOThresholdConfig, .-SPI_RxFIFOThresholdConfig
 647 0016 00BFAFF3 		.section	.text.SPI_BiDirectionalLineConfig,"ax",%progbits
 647      0080AFF3 
 647      0080
 648              		.align	2
 649              		.p2align 4,,15
 650              		.global	SPI_BiDirectionalLineConfig
 651              		.thumb
 652              		.thumb_func
 653              		.type	SPI_BiDirectionalLineConfig, %function
 654              	SPI_BiDirectionalLineConfig:
 655              	.LFB121:
 656              		.loc 1 653 0
 657              		.cfi_startproc
 658              		@ args = 0, pretend = 0, frame = 0
 659              		@ frame_needed = 0, uses_anonymous_args = 0
 660              		@ link register save eliminated.
 661              	.LVL56:
 662              		.loc 1 659 0
 663 0000 B1F5804F 		cmp	r1, #16384
 664              		.loc 1 662 0
 665 0004 0388     		ldrh	r3, [r0, #0]
 666              		.loc 1 659 0
 667 0006 05D0     		beq	.L42
 668              		.loc 1 667 0
 669 0008 23F48043 		bic	r3, r3, #16384
 670 000c 1B04     		lsls	r3, r3, #16
 671 000e 1B0C     		lsrs	r3, r3, #16
 672 0010 0380     		strh	r3, [r0, #0]	@ movhi
ARM GAS  C:\Users\TaisikHam\AppData\Local\Temp\ccNzzKEh.s 			page 13


 673 0012 7047     		bx	lr
 674              	.L42:
 675              		.loc 1 662 0
 676 0014 9BB2     		uxth	r3, r3
 677 0016 43F48043 		orr	r3, r3, #16384
 678 001a 0380     		strh	r3, [r0, #0]	@ movhi
 679 001c 7047     		bx	lr
 680              		.cfi_endproc
 681              	.LFE121:
 682              		.size	SPI_BiDirectionalLineConfig, .-SPI_BiDirectionalLineConfig
 683 001e 00BF     		.section	.text.SPI_NSSInternalSoftwareConfig,"ax",%progbits
 684              		.align	2
 685              		.p2align 4,,15
 686              		.global	SPI_NSSInternalSoftwareConfig
 687              		.thumb
 688              		.thumb_func
 689              		.type	SPI_NSSInternalSoftwareConfig, %function
 690              	SPI_NSSInternalSoftwareConfig:
 691              	.LFB122:
 692              		.loc 1 683 0
 693              		.cfi_startproc
 694              		@ args = 0, pretend = 0, frame = 0
 695              		@ frame_needed = 0, uses_anonymous_args = 0
 696              		@ link register save eliminated.
 697              	.LVL57:
 698              		.loc 1 690 0
 699 0000 4FF6FF63 		movw	r3, #65279
 700 0004 9942     		cmp	r1, r3
 701              		.loc 1 693 0
 702 0006 0388     		ldrh	r3, [r0, #0]
 703              		.loc 1 690 0
 704 0008 04D0     		beq	.L44
 705              		.loc 1 693 0
 706 000a 9BB2     		uxth	r3, r3
 707 000c 43F48073 		orr	r3, r3, #256
 708 0010 0380     		strh	r3, [r0, #0]	@ movhi
 709 0012 7047     		bx	lr
 710              	.L44:
 711              		.loc 1 698 0
 712 0014 23F48073 		bic	r3, r3, #256
 713 0018 1B04     		lsls	r3, r3, #16
 714 001a 1B0C     		lsrs	r3, r3, #16
 715 001c 0380     		strh	r3, [r0, #0]	@ movhi
 716 001e 7047     		bx	lr
 717              		.cfi_endproc
 718              	.LFE122:
 719              		.size	SPI_NSSInternalSoftwareConfig, .-SPI_NSSInternalSoftwareConfig
 720              		.section	.text.I2S_FullDuplexConfig,"ax",%progbits
 721              		.align	2
 722              		.p2align 4,,15
 723              		.global	I2S_FullDuplexConfig
 724              		.thumb
 725              		.thumb_func
 726              		.type	I2S_FullDuplexConfig, %function
 727              	I2S_FullDuplexConfig:
 728              	.LFB123:
 729              		.loc 1 722 0
ARM GAS  C:\Users\TaisikHam\AppData\Local\Temp\ccNzzKEh.s 			page 14


 730              		.cfi_startproc
 731              		@ args = 0, pretend = 0, frame = 0
 732              		@ frame_needed = 0, uses_anonymous_args = 0
 733              		@ link register save eliminated.
 734              	.LVL58:
 735              		.loc 1 737 0
 736 0000 838B     		ldrh	r3, [r0, #28]
 737 0002 23F47B63 		bic	r3, r3, #4016
 738 0006 23F00F03 		bic	r3, r3, #15
 739 000a 1B04     		lsls	r3, r3, #16
 740 000c 1B0C     		lsrs	r3, r3, #16
 741 000e 8383     		strh	r3, [r0, #28]	@ movhi
 742              		.loc 1 738 0
 743 0010 0223     		movs	r3, #2
 744 0012 0384     		strh	r3, [r0, #32]	@ movhi
 745              		.loc 1 741 0
 746 0014 828B     		ldrh	r2, [r0, #28]
 747              		.loc 1 744 0
 748 0016 0B88     		ldrh	r3, [r1, #0]
 749              		.loc 1 722 0
 750 0018 30B4     		push	{r4, r5}
 751              	.LCFI4:
 752              		.cfi_def_cfa_offset 8
 753              		.cfi_offset 4, -8
 754              		.cfi_offset 5, -4
 755              		.loc 1 759 0
 756 001a 4D88     		ldrh	r5, [r1, #2]
 757              		.loc 1 758 0
 758 001c 8C88     		ldrh	r4, [r1, #4]
 759 001e 8989     		ldrh	r1, [r1, #12]
 760              	.LVL59:
 761              		.loc 1 741 0
 762 0020 92B2     		uxth	r2, r2
 763              	.LVL60:
 764              		.loc 1 759 0
 765 0022 2A43     		orrs	r2, r2, r5
 766              	.LVL61:
 767              		.loc 1 744 0
 768 0024 23F40073 		bic	r3, r3, #512
 769              		.loc 1 759 0
 770 0028 42F40062 		orr	r2, r2, #2048
 771              		.loc 1 744 0
 772 002c 1B04     		lsls	r3, r3, #16
 773              		.loc 1 758 0
 774 002e 2243     		orrs	r2, r2, r4
 775              		.loc 1 744 0
 776 0030 1B0C     		lsrs	r3, r3, #16
 777              		.loc 1 758 0
 778 0032 0A43     		orrs	r2, r2, r1
 779              		.loc 1 746 0
 780 0034 002B     		cmp	r3, #0
 781 0036 0CBF     		ite	eq
 782 0038 4FF48073 		moveq	r3, #256
 783 003c 0023     		movne	r3, #0
 784              	.LVL62:
 785              		.loc 1 758 0
 786 003e 92B2     		uxth	r2, r2
ARM GAS  C:\Users\TaisikHam\AppData\Local\Temp\ccNzzKEh.s 			page 15


 787 0040 1343     		orrs	r3, r3, r2
 788              	.LVL63:
 789              		.loc 1 763 0
 790 0042 8383     		strh	r3, [r0, #28]	@ movhi
 791              		.loc 1 764 0
 792 0044 30BC     		pop	{r4, r5}
 793 0046 7047     		bx	lr
 794              		.cfi_endproc
 795              	.LFE123:
 796              		.size	I2S_FullDuplexConfig, .-I2S_FullDuplexConfig
 797 0048 AFF30080 		.section	.text.SPI_SSOutputCmd,"ax",%progbits
 797      AFF30080 
 798              		.align	2
 799              		.p2align 4,,15
 800              		.global	SPI_SSOutputCmd
 801              		.thumb
 802              		.thumb_func
 803              		.type	SPI_SSOutputCmd, %function
 804              	SPI_SSOutputCmd:
 805              	.LFB124:
 806              		.loc 1 776 0
 807              		.cfi_startproc
 808              		@ args = 0, pretend = 0, frame = 0
 809              		@ frame_needed = 0, uses_anonymous_args = 0
 810              		@ link register save eliminated.
 811              	.LVL64:
 812              		.loc 1 786 0
 813 0000 8388     		ldrh	r3, [r0, #4]
 814              		.loc 1 783 0
 815 0002 29B9     		cbnz	r1, .L52
 816              		.loc 1 791 0
 817 0004 23F00403 		bic	r3, r3, #4
 818 0008 1B04     		lsls	r3, r3, #16
 819 000a 1B0C     		lsrs	r3, r3, #16
 820 000c 8380     		strh	r3, [r0, #4]	@ movhi
 821 000e 7047     		bx	lr
 822              	.L52:
 823              		.loc 1 786 0
 824 0010 9BB2     		uxth	r3, r3
 825 0012 43F00403 		orr	r3, r3, #4
 826 0016 8380     		strh	r3, [r0, #4]	@ movhi
 827 0018 7047     		bx	lr
 828              		.cfi_endproc
 829              	.LFE124:
 830              		.size	SPI_SSOutputCmd, .-SPI_SSOutputCmd
 831 001a 00BFAFF3 		.section	.text.SPI_NSSPulseModeCmd,"ax",%progbits
 831      0080
 832              		.align	2
 833              		.p2align 4,,15
 834              		.global	SPI_NSSPulseModeCmd
 835              		.thumb
 836              		.thumb_func
 837              		.type	SPI_NSSPulseModeCmd, %function
 838              	SPI_NSSPulseModeCmd:
 839              	.LFB125:
 840              		.loc 1 808 0
 841              		.cfi_startproc
ARM GAS  C:\Users\TaisikHam\AppData\Local\Temp\ccNzzKEh.s 			page 16


 842              		@ args = 0, pretend = 0, frame = 0
 843              		@ frame_needed = 0, uses_anonymous_args = 0
 844              		@ link register save eliminated.
 845              	.LVL65:
 846              		.loc 1 819 0
 847 0000 8388     		ldrh	r3, [r0, #4]
 848              		.loc 1 816 0
 849 0002 29B9     		cbnz	r1, .L56
 850              		.loc 1 824 0
 851 0004 23F00803 		bic	r3, r3, #8
 852 0008 1B04     		lsls	r3, r3, #16
 853 000a 1B0C     		lsrs	r3, r3, #16
 854 000c 8380     		strh	r3, [r0, #4]	@ movhi
 855 000e 7047     		bx	lr
 856              	.L56:
 857              		.loc 1 819 0
 858 0010 9BB2     		uxth	r3, r3
 859 0012 43F00803 		orr	r3, r3, #8
 860 0016 8380     		strh	r3, [r0, #4]	@ movhi
 861 0018 7047     		bx	lr
 862              		.cfi_endproc
 863              	.LFE125:
 864              		.size	SPI_NSSPulseModeCmd, .-SPI_NSSPulseModeCmd
 865 001a 00BFAFF3 		.section	.text.SPI_SendData8,"ax",%progbits
 865      0080
 866              		.align	2
 867              		.p2align 4,,15
 868              		.global	SPI_SendData8
 869              		.thumb
 870              		.thumb_func
 871              		.type	SPI_SendData8, %function
 872              	SPI_SendData8:
 873              	.LFB126:
 874              		.loc 1 860 0
 875              		.cfi_startproc
 876              		@ args = 0, pretend = 0, frame = 0
 877              		@ frame_needed = 0, uses_anonymous_args = 0
 878              		@ link register save eliminated.
 879              	.LVL66:
 880              		.loc 1 871 0
 881 0000 0173     		strb	r1, [r0, #12]
 882 0002 7047     		bx	lr
 883              		.cfi_endproc
 884              	.LFE126:
 885              		.size	SPI_SendData8, .-SPI_SendData8
 886 0004 AFF30080 		.section	.text.SPI_I2S_SendData16,"ax",%progbits
 886      AFF30080 
 886      AFF30080 
 887              		.align	2
 888              		.p2align 4,,15
 889              		.global	SPI_I2S_SendData16
 890              		.thumb
 891              		.thumb_func
 892              		.type	SPI_I2S_SendData16, %function
 893              	SPI_I2S_SendData16:
 894              	.LFB127:
 895              		.loc 1 882 0
ARM GAS  C:\Users\TaisikHam\AppData\Local\Temp\ccNzzKEh.s 			page 17


 896              		.cfi_startproc
 897              		@ args = 0, pretend = 0, frame = 0
 898              		@ frame_needed = 0, uses_anonymous_args = 0
 899              		@ link register save eliminated.
 900              	.LVL67:
 901              		.loc 1 888 0
 902 0000 8181     		strh	r1, [r0, #12]	@ movhi
 903 0002 7047     		bx	lr
 904              		.cfi_endproc
 905              	.LFE127:
 906              		.size	SPI_I2S_SendData16, .-SPI_I2S_SendData16
 907 0004 AFF30080 		.section	.text.SPI_ReceiveData8,"ax",%progbits
 907      AFF30080 
 907      AFF30080 
 908              		.align	2
 909              		.p2align 4,,15
 910              		.global	SPI_ReceiveData8
 911              		.thumb
 912              		.thumb_func
 913              		.type	SPI_ReceiveData8, %function
 914              	SPI_ReceiveData8:
 915              	.LFB128:
 916              		.loc 1 897 0
 917              		.cfi_startproc
 918              		@ args = 0, pretend = 0, frame = 0
 919              		@ frame_needed = 0, uses_anonymous_args = 0
 920              		@ link register save eliminated.
 921              	.LVL68:
 922              		.loc 1 908 0
 923 0000 007B     		ldrb	r0, [r0, #12]	@ zero_extendqisi2
 924              	.LVL69:
 925              		.loc 1 909 0
 926 0002 7047     		bx	lr
 927              		.cfi_endproc
 928              	.LFE128:
 929              		.size	SPI_ReceiveData8, .-SPI_ReceiveData8
 930 0004 AFF30080 		.section	.text.SPI_I2S_ReceiveData16,"ax",%progbits
 930      AFF30080 
 930      AFF30080 
 931              		.align	2
 932              		.p2align 4,,15
 933              		.global	SPI_I2S_ReceiveData16
 934              		.thumb
 935              		.thumb_func
 936              		.type	SPI_I2S_ReceiveData16, %function
 937              	SPI_I2S_ReceiveData16:
 938              	.LFB129:
 939              		.loc 1 918 0
 940              		.cfi_startproc
 941              		@ args = 0, pretend = 0, frame = 0
 942              		@ frame_needed = 0, uses_anonymous_args = 0
 943              		@ link register save eliminated.
 944              	.LVL70:
 945              		.loc 1 923 0
 946 0000 8089     		ldrh	r0, [r0, #12]
 947              	.LVL71:
 948              		.loc 1 924 0
ARM GAS  C:\Users\TaisikHam\AppData\Local\Temp\ccNzzKEh.s 			page 18


 949 0002 80B2     		uxth	r0, r0
 950 0004 7047     		bx	lr
 951              		.cfi_endproc
 952              	.LFE129:
 953              		.size	SPI_I2S_ReceiveData16, .-SPI_I2S_ReceiveData16
 954 0006 00BFAFF3 		.section	.text.SPI_CRCLengthConfig,"ax",%progbits
 954      0080AFF3 
 954      0080
 955              		.align	2
 956              		.p2align 4,,15
 957              		.global	SPI_CRCLengthConfig
 958              		.thumb
 959              		.thumb_func
 960              		.type	SPI_CRCLengthConfig, %function
 961              	SPI_CRCLengthConfig:
 962              	.LFB130:
 963              		.loc 1 1001 0
 964              		.cfi_startproc
 965              		@ args = 0, pretend = 0, frame = 0
 966              		@ frame_needed = 0, uses_anonymous_args = 0
 967              		@ link register save eliminated.
 968              	.LVL72:
 969              		.loc 1 1007 0
 970 0000 0388     		ldrh	r3, [r0, #0]
 971 0002 23F40063 		bic	r3, r3, #2048
 972 0006 1B04     		lsls	r3, r3, #16
 973 0008 1B0C     		lsrs	r3, r3, #16
 974 000a 0380     		strh	r3, [r0, #0]	@ movhi
 975              		.loc 1 1010 0
 976 000c 0388     		ldrh	r3, [r0, #0]
 977 000e 9BB2     		uxth	r3, r3
 978 0010 1943     		orrs	r1, r1, r3
 979              	.LVL73:
 980 0012 0180     		strh	r1, [r0, #0]	@ movhi
 981 0014 7047     		bx	lr
 982              		.cfi_endproc
 983              	.LFE130:
 984              		.size	SPI_CRCLengthConfig, .-SPI_CRCLengthConfig
 985 0016 00BFAFF3 		.section	.text.SPI_CalculateCRC,"ax",%progbits
 985      0080AFF3 
 985      0080
 986              		.align	2
 987              		.p2align 4,,15
 988              		.global	SPI_CalculateCRC
 989              		.thumb
 990              		.thumb_func
 991              		.type	SPI_CalculateCRC, %function
 992              	SPI_CalculateCRC:
 993              	.LFB131:
 994              		.loc 1 1021 0
 995              		.cfi_startproc
 996              		@ args = 0, pretend = 0, frame = 0
 997              		@ frame_needed = 0, uses_anonymous_args = 0
 998              		@ link register save eliminated.
 999              	.LVL74:
 1000              		.loc 1 1029 0
 1001 0000 0388     		ldrh	r3, [r0, #0]
ARM GAS  C:\Users\TaisikHam\AppData\Local\Temp\ccNzzKEh.s 			page 19


 1002              		.loc 1 1026 0
 1003 0002 29B9     		cbnz	r1, .L65
 1004              		.loc 1 1034 0
 1005 0004 23F40053 		bic	r3, r3, #8192
 1006 0008 1B04     		lsls	r3, r3, #16
 1007 000a 1B0C     		lsrs	r3, r3, #16
 1008 000c 0380     		strh	r3, [r0, #0]	@ movhi
 1009 000e 7047     		bx	lr
 1010              	.L65:
 1011              		.loc 1 1029 0
 1012 0010 9BB2     		uxth	r3, r3
 1013 0012 43F40053 		orr	r3, r3, #8192
 1014 0016 0380     		strh	r3, [r0, #0]	@ movhi
 1015 0018 7047     		bx	lr
 1016              		.cfi_endproc
 1017              	.LFE131:
 1018              		.size	SPI_CalculateCRC, .-SPI_CalculateCRC
 1019 001a 00BFAFF3 		.section	.text.SPI_TransmitCRC,"ax",%progbits
 1019      0080
 1020              		.align	2
 1021              		.p2align 4,,15
 1022              		.global	SPI_TransmitCRC
 1023              		.thumb
 1024              		.thumb_func
 1025              		.type	SPI_TransmitCRC, %function
 1026              	SPI_TransmitCRC:
 1027              	.LFB132:
 1028              		.loc 1 1044 0
 1029              		.cfi_startproc
 1030              		@ args = 0, pretend = 0, frame = 0
 1031              		@ frame_needed = 0, uses_anonymous_args = 0
 1032              		@ link register save eliminated.
 1033              	.LVL75:
 1034              		.loc 1 1049 0
 1035 0000 0388     		ldrh	r3, [r0, #0]
 1036 0002 9BB2     		uxth	r3, r3
 1037 0004 43F48053 		orr	r3, r3, #4096
 1038 0008 0380     		strh	r3, [r0, #0]	@ movhi
 1039 000a 7047     		bx	lr
 1040              		.cfi_endproc
 1041              	.LFE132:
 1042              		.size	SPI_TransmitCRC, .-SPI_TransmitCRC
 1043              		.section	.text.SPI_GetCRC,"ax",%progbits
 1044              		.align	2
 1045              		.p2align 4,,15
 1046              		.global	SPI_GetCRC
 1047              		.thumb
 1048              		.thumb_func
 1049              		.type	SPI_GetCRC, %function
 1050              	SPI_GetCRC:
 1051              	.LFB133:
 1052              		.loc 1 1062 0
 1053              		.cfi_startproc
 1054              		@ args = 0, pretend = 0, frame = 0
 1055              		@ frame_needed = 0, uses_anonymous_args = 0
 1056              		@ link register save eliminated.
 1057              	.LVL76:
ARM GAS  C:\Users\TaisikHam\AppData\Local\Temp\ccNzzKEh.s 			page 20


 1058              		.loc 1 1068 0
 1059 0000 0129     		cmp	r1, #1
 1060              		.loc 1 1071 0
 1061 0002 14BF     		ite	ne
 1062 0004 008B     		ldrhne	r0, [r0, #24]
 1063              	.LVL77:
 1064              		.loc 1 1076 0
 1065 0006 808A     		ldrheq	r0, [r0, #20]
 1066 0008 80B2     		uxth	r0, r0
 1067              	.LVL78:
 1068              		.loc 1 1080 0
 1069 000a 7047     		bx	lr
 1070              		.cfi_endproc
 1071              	.LFE133:
 1072              		.size	SPI_GetCRC, .-SPI_GetCRC
 1073 000c AFF30080 		.section	.text.SPI_GetCRCPolynomial,"ax",%progbits
 1074              		.align	2
 1075              		.p2align 4,,15
 1076              		.global	SPI_GetCRCPolynomial
 1077              		.thumb
 1078              		.thumb_func
 1079              		.type	SPI_GetCRCPolynomial, %function
 1080              	SPI_GetCRCPolynomial:
 1081              	.LFB134:
 1082              		.loc 1 1088 0
 1083              		.cfi_startproc
 1084              		@ args = 0, pretend = 0, frame = 0
 1085              		@ frame_needed = 0, uses_anonymous_args = 0
 1086              		@ link register save eliminated.
 1087              	.LVL79:
 1088              		.loc 1 1093 0
 1089 0000 008A     		ldrh	r0, [r0, #16]
 1090              	.LVL80:
 1091              		.loc 1 1094 0
 1092 0002 80B2     		uxth	r0, r0
 1093 0004 7047     		bx	lr
 1094              		.cfi_endproc
 1095              	.LFE134:
 1096              		.size	SPI_GetCRCPolynomial, .-SPI_GetCRCPolynomial
 1097 0006 00BFAFF3 		.section	.text.SPI_I2S_DMACmd,"ax",%progbits
 1097      0080AFF3 
 1097      0080
 1098              		.align	2
 1099              		.p2align 4,,15
 1100              		.global	SPI_I2S_DMACmd
 1101              		.thumb
 1102              		.thumb_func
 1103              		.type	SPI_I2S_DMACmd, %function
 1104              	SPI_I2S_DMACmd:
 1105              	.LFB135:
 1106              		.loc 1 1125 0
 1107              		.cfi_startproc
 1108              		@ args = 0, pretend = 0, frame = 0
 1109              		@ frame_needed = 0, uses_anonymous_args = 0
 1110              		@ link register save eliminated.
 1111              	.LVL81:
 1112              		.loc 1 1136 0
ARM GAS  C:\Users\TaisikHam\AppData\Local\Temp\ccNzzKEh.s 			page 21


 1113 0000 8388     		ldrh	r3, [r0, #4]
 1114 0002 9BB2     		uxth	r3, r3
 1115              		.loc 1 1133 0
 1116 0004 1AB9     		cbnz	r2, .L74
 1117              		.loc 1 1141 0
 1118 0006 23EA0101 		bic	r1, r3, r1
 1119              	.LVL82:
 1120 000a 8180     		strh	r1, [r0, #4]	@ movhi
 1121 000c 7047     		bx	lr
 1122              	.LVL83:
 1123              	.L74:
 1124              		.loc 1 1136 0
 1125 000e 1943     		orrs	r1, r1, r3
 1126              	.LVL84:
 1127 0010 8180     		strh	r1, [r0, #4]	@ movhi
 1128 0012 7047     		bx	lr
 1129              		.cfi_endproc
 1130              	.LFE135:
 1131              		.size	SPI_I2S_DMACmd, .-SPI_I2S_DMACmd
 1132 0014 AFF30080 		.section	.text.SPI_LastDMATransferCmd,"ax",%progbits
 1132      AFF30080 
 1132      AFF30080 
 1133              		.align	2
 1134              		.p2align 4,,15
 1135              		.global	SPI_LastDMATransferCmd
 1136              		.thumb
 1137              		.thumb_func
 1138              		.type	SPI_LastDMATransferCmd, %function
 1139              	SPI_LastDMATransferCmd:
 1140              	.LFB136:
 1141              		.loc 1 1164 0
 1142              		.cfi_startproc
 1143              		@ args = 0, pretend = 0, frame = 0
 1144              		@ frame_needed = 0, uses_anonymous_args = 0
 1145              		@ link register save eliminated.
 1146              	.LVL85:
 1147              		.loc 1 1172 0
 1148 0000 8388     		ldrh	r3, [r0, #4]
 1149 0002 23F4C043 		bic	r3, r3, #24576
 1150 0006 1B04     		lsls	r3, r3, #16
 1151 0008 1B0C     		lsrs	r3, r3, #16
 1152 000a 8380     		strh	r3, [r0, #4]	@ movhi
 1153              		.loc 1 1175 0
 1154 000c 8388     		ldrh	r3, [r0, #4]
 1155 000e 9BB2     		uxth	r3, r3
 1156 0010 1943     		orrs	r1, r1, r3
 1157              	.LVL86:
 1158 0012 8180     		strh	r1, [r0, #4]	@ movhi
 1159 0014 7047     		bx	lr
 1160              		.cfi_endproc
 1161              	.LFE136:
 1162              		.size	SPI_LastDMATransferCmd, .-SPI_LastDMATransferCmd
 1163 0016 00BFAFF3 		.section	.text.SPI_I2S_ITConfig,"ax",%progbits
 1163      0080AFF3 
 1163      0080
 1164              		.align	2
 1165              		.p2align 4,,15
ARM GAS  C:\Users\TaisikHam\AppData\Local\Temp\ccNzzKEh.s 			page 22


 1166              		.global	SPI_I2S_ITConfig
 1167              		.thumb
 1168              		.thumb_func
 1169              		.type	SPI_I2S_ITConfig, %function
 1170              	SPI_I2S_ITConfig:
 1171              	.LFB137:
 1172              		.loc 1 1265 0
 1173              		.cfi_startproc
 1174              		@ args = 0, pretend = 0, frame = 0
 1175              		@ frame_needed = 0, uses_anonymous_args = 0
 1176              		@ link register save eliminated.
 1177              	.LVL87:
 1178              		.loc 1 1279 0
 1179 0000 0123     		movs	r3, #1
 1180 0002 0909     		lsrs	r1, r1, #4
 1181              	.LVL88:
 1182 0004 03FA01F1 		lsl	r1, r3, r1
 1183              		.loc 1 1284 0
 1184 0008 8388     		ldrh	r3, [r0, #4]
 1185              		.loc 1 1279 0
 1186 000a 89B2     		uxth	r1, r1
 1187              	.LVL89:
 1188              		.loc 1 1284 0
 1189 000c 9BB2     		uxth	r3, r3
 1190              		.loc 1 1281 0
 1191 000e 1AB9     		cbnz	r2, .L79
 1192              		.loc 1 1289 0
 1193 0010 23EA0101 		bic	r1, r3, r1
 1194              	.LVL90:
 1195 0014 8180     		strh	r1, [r0, #4]	@ movhi
 1196 0016 7047     		bx	lr
 1197              	.LVL91:
 1198              	.L79:
 1199              		.loc 1 1284 0
 1200 0018 1943     		orrs	r1, r1, r3
 1201              	.LVL92:
 1202 001a 8180     		strh	r1, [r0, #4]	@ movhi
 1203 001c 7047     		bx	lr
 1204              		.cfi_endproc
 1205              	.LFE137:
 1206              		.size	SPI_I2S_ITConfig, .-SPI_I2S_ITConfig
 1207 001e 00BF     		.section	.text.SPI_GetTransmissionFIFOStatus,"ax",%progbits
 1208              		.align	2
 1209              		.p2align 4,,15
 1210              		.global	SPI_GetTransmissionFIFOStatus
 1211              		.thumb
 1212              		.thumb_func
 1213              		.type	SPI_GetTransmissionFIFOStatus, %function
 1214              	SPI_GetTransmissionFIFOStatus:
 1215              	.LFB138:
 1216              		.loc 1 1303 0
 1217              		.cfi_startproc
 1218              		@ args = 0, pretend = 0, frame = 0
 1219              		@ frame_needed = 0, uses_anonymous_args = 0
 1220              		@ link register save eliminated.
 1221              	.LVL93:
 1222              		.loc 1 1305 0
ARM GAS  C:\Users\TaisikHam\AppData\Local\Temp\ccNzzKEh.s 			page 23


 1223 0000 0089     		ldrh	r0, [r0, #8]
 1224              	.LVL94:
 1225              		.loc 1 1306 0
 1226 0002 00F4C050 		and	r0, r0, #6144
 1227 0006 7047     		bx	lr
 1228              		.cfi_endproc
 1229              	.LFE138:
 1230              		.size	SPI_GetTransmissionFIFOStatus, .-SPI_GetTransmissionFIFOStatus
 1231 0008 AFF30080 		.section	.text.SPI_GetReceptionFIFOStatus,"ax",%progbits
 1231      AFF30080 
 1232              		.align	2
 1233              		.p2align 4,,15
 1234              		.global	SPI_GetReceptionFIFOStatus
 1235              		.thumb
 1236              		.thumb_func
 1237              		.type	SPI_GetReceptionFIFOStatus, %function
 1238              	SPI_GetReceptionFIFOStatus:
 1239              	.LFB139:
 1240              		.loc 1 1318 0
 1241              		.cfi_startproc
 1242              		@ args = 0, pretend = 0, frame = 0
 1243              		@ frame_needed = 0, uses_anonymous_args = 0
 1244              		@ link register save eliminated.
 1245              	.LVL95:
 1246              		.loc 1 1320 0
 1247 0000 0089     		ldrh	r0, [r0, #8]
 1248              	.LVL96:
 1249              		.loc 1 1321 0
 1250 0002 00F4C060 		and	r0, r0, #1536
 1251 0006 7047     		bx	lr
 1252              		.cfi_endproc
 1253              	.LFE139:
 1254              		.size	SPI_GetReceptionFIFOStatus, .-SPI_GetReceptionFIFOStatus
 1255 0008 AFF30080 		.section	.text.SPI_I2S_GetFlagStatus,"ax",%progbits
 1255      AFF30080 
 1256              		.align	2
 1257              		.p2align 4,,15
 1258              		.global	SPI_I2S_GetFlagStatus
 1259              		.thumb
 1260              		.thumb_func
 1261              		.type	SPI_I2S_GetFlagStatus, %function
 1262              	SPI_I2S_GetFlagStatus:
 1263              	.LFB140:
 1264              		.loc 1 1341 0
 1265              		.cfi_startproc
 1266              		@ args = 0, pretend = 0, frame = 0
 1267              		@ frame_needed = 0, uses_anonymous_args = 0
 1268              		@ link register save eliminated.
 1269              	.LVL97:
 1270              		.loc 1 1350 0
 1271 0000 0389     		ldrh	r3, [r0, #8]
 1272              	.LVL98:
 1273 0002 1942     		tst	r1, r3
 1274              		.loc 1 1362 0
 1275 0004 0CBF     		ite	eq
 1276 0006 0020     		moveq	r0, #0
 1277 0008 0120     		movne	r0, #1
ARM GAS  C:\Users\TaisikHam\AppData\Local\Temp\ccNzzKEh.s 			page 24


 1278              	.LVL99:
 1279 000a 7047     		bx	lr
 1280              		.cfi_endproc
 1281              	.LFE140:
 1282              		.size	SPI_I2S_GetFlagStatus, .-SPI_I2S_GetFlagStatus
 1283 000c AFF30080 		.section	.text.SPI_I2S_ClearFlag,"ax",%progbits
 1284              		.align	2
 1285              		.p2align 4,,15
 1286              		.global	SPI_I2S_ClearFlag
 1287              		.thumb
 1288              		.thumb_func
 1289              		.type	SPI_I2S_ClearFlag, %function
 1290              	SPI_I2S_ClearFlag:
 1291              	.LFB141:
 1292              		.loc 1 1379 0
 1293              		.cfi_startproc
 1294              		@ args = 0, pretend = 0, frame = 0
 1295              		@ frame_needed = 0, uses_anonymous_args = 0
 1296              		@ link register save eliminated.
 1297              	.LVL100:
 1298              		.loc 1 1387 0
 1299 0000 C943     		mvns	r1, r1
 1300              	.LVL101:
 1301 0002 89B2     		uxth	r1, r1
 1302 0004 0181     		strh	r1, [r0, #8]	@ movhi
 1303 0006 7047     		bx	lr
 1304              		.cfi_endproc
 1305              	.LFE141:
 1306              		.size	SPI_I2S_ClearFlag, .-SPI_I2S_ClearFlag
 1307 0008 AFF30080 		.section	.text.SPI_I2S_GetITStatus,"ax",%progbits
 1307      AFF30080 
 1308              		.align	2
 1309              		.p2align 4,,15
 1310              		.global	SPI_I2S_GetITStatus
 1311              		.thumb
 1312              		.thumb_func
 1313              		.type	SPI_I2S_GetITStatus, %function
 1314              	SPI_I2S_GetITStatus:
 1315              	.LFB142:
 1316              		.loc 1 1405 0
 1317              		.cfi_startproc
 1318              		@ args = 0, pretend = 0, frame = 0
 1319              		@ frame_needed = 0, uses_anonymous_args = 0
 1320              		@ link register save eliminated.
 1321              	.LVL102:
 1322 0000 10B4     		push	{r4}
 1323              	.LCFI5:
 1324              		.cfi_def_cfa_offset 4
 1325              		.cfi_offset 4, -4
 1326              		.loc 1 1425 0
 1327 0002 8488     		ldrh	r4, [r0, #4]
 1328              		.loc 1 1428 0
 1329 0004 0089     		ldrh	r0, [r0, #8]
 1330              	.LVL103:
 1331              		.loc 1 1416 0
 1332 0006 0122     		movs	r2, #1
 1333 0008 01F00F03 		and	r3, r1, #15
ARM GAS  C:\Users\TaisikHam\AppData\Local\Temp\ccNzzKEh.s 			page 25


 1334              		.loc 1 1428 0
 1335 000c 80B2     		uxth	r0, r0
 1336              		.loc 1 1416 0
 1337 000e 02FA03F3 		lsl	r3, r2, r3
 1338              		.loc 1 1428 0
 1339 0012 1840     		ands	r0, r0, r3
 1340              		.loc 1 1425 0
 1341 0014 A4B2     		uxth	r4, r4
 1342              	.LVL104:
 1343              		.loc 1 1428 0
 1344 0016 06D0     		beq	.L85
 1345              		.loc 1 1422 0 discriminator 1
 1346 0018 0909     		lsrs	r1, r1, #4
 1347              	.LVL105:
 1348 001a 02FA01F2 		lsl	r2, r2, r1
 1349              		.loc 1 1428 0 discriminator 1
 1350 001e 1442     		tst	r4, r2
 1351              		.loc 1 1431 0 discriminator 1
 1352 0020 0CBF     		ite	eq
 1353 0022 0020     		moveq	r0, #0
 1354 0024 0120     		movne	r0, #1
 1355              	.L85:
 1356              	.LVL106:
 1357              		.loc 1 1440 0
 1358 0026 10BC     		pop	{r4}
 1359 0028 7047     		bx	lr
 1360              		.cfi_endproc
 1361              	.LFE142:
 1362              		.size	SPI_I2S_GetITStatus, .-SPI_I2S_GetITStatus
 1363 002a 00BFAFF3 		.text
 1363      0080
 1364              	.Letext0:
 1365              		.file 2 "c:/develop/genist/chibistudio/tools/yagarto-tools/yagarto-20121222/lib/gcc/../../arm-none
 1366              		.file 3 "../../../os/hal/platforms/STM32F30x/stm32f30x.h"
 1367              		.file 4 "../../../Testhal_wrk/STM32F30x/Gyro/stm32f30x_spi.h"
 1368              		.file 5 "../../../Testhal_wrk/STM32F30x/Gyro/stm32f30x_rcc.h"
 1369              		.file 6 "../../../os/ports/common/ARMCMx/CMSIS/include/core_cm4.h"
 1370              		.section	.debug_info,"",%progbits
 1371              	.Ldebug_info0:
 1372 0000 290D0000 		.4byte	0xd29
 1373 0004 0200     		.2byte	0x2
 1374 0006 00000000 		.4byte	.Ldebug_abbrev0
 1375 000a 04       		.byte	0x4
 1376 000b 01       		.uleb128 0x1
 1377 000c C4010000 		.4byte	.LASF129
 1378 0010 01       		.byte	0x1
 1379 0011 D8020000 		.4byte	.LASF130
 1380 0015 7B040000 		.4byte	.LASF131
 1381 0019 00000000 		.4byte	.Ldebug_ranges0+0
 1382 001d 00000000 		.4byte	0
 1383 0021 00000000 		.4byte	0
 1384 0025 00000000 		.4byte	.Ldebug_line0
 1385 0029 02       		.uleb128 0x2
 1386 002a 01       		.byte	0x1
 1387 002b 06       		.byte	0x6
 1388 002c 15070000 		.4byte	.LASF0
 1389 0030 03       		.uleb128 0x3
ARM GAS  C:\Users\TaisikHam\AppData\Local\Temp\ccNzzKEh.s 			page 26


 1390 0031 22030000 		.4byte	.LASF3
 1391 0035 02       		.byte	0x2
 1392 0036 2A       		.byte	0x2a
 1393 0037 3B000000 		.4byte	0x3b
 1394 003b 02       		.uleb128 0x2
 1395 003c 01       		.byte	0x1
 1396 003d 08       		.byte	0x8
 1397 003e 6E060000 		.4byte	.LASF1
 1398 0042 02       		.uleb128 0x2
 1399 0043 02       		.byte	0x2
 1400 0044 05       		.byte	0x5
 1401 0045 25050000 		.4byte	.LASF2
 1402 0049 03       		.uleb128 0x3
 1403 004a 48040000 		.4byte	.LASF4
 1404 004e 02       		.byte	0x2
 1405 004f 36       		.byte	0x36
 1406 0050 54000000 		.4byte	0x54
 1407 0054 02       		.uleb128 0x2
 1408 0055 02       		.byte	0x2
 1409 0056 07       		.byte	0x7
 1410 0057 21070000 		.4byte	.LASF5
 1411 005b 03       		.uleb128 0x3
 1412 005c 39060000 		.4byte	.LASF6
 1413 0060 02       		.byte	0x2
 1414 0061 4F       		.byte	0x4f
 1415 0062 66000000 		.4byte	0x66
 1416 0066 02       		.uleb128 0x2
 1417 0067 04       		.byte	0x4
 1418 0068 05       		.byte	0x5
 1419 0069 66050000 		.4byte	.LASF7
 1420 006d 03       		.uleb128 0x3
 1421 006e 87010000 		.4byte	.LASF8
 1422 0072 02       		.byte	0x2
 1423 0073 50       		.byte	0x50
 1424 0074 78000000 		.4byte	0x78
 1425 0078 02       		.uleb128 0x2
 1426 0079 04       		.byte	0x4
 1427 007a 07       		.byte	0x7
 1428 007b 1E060000 		.4byte	.LASF9
 1429 007f 02       		.uleb128 0x2
 1430 0080 08       		.byte	0x8
 1431 0081 05       		.byte	0x5
 1432 0082 5D030000 		.4byte	.LASF10
 1433 0086 02       		.uleb128 0x2
 1434 0087 08       		.byte	0x8
 1435 0088 07       		.byte	0x7
 1436 0089 D0010000 		.4byte	.LASF11
 1437 008d 04       		.uleb128 0x4
 1438 008e 04       		.byte	0x4
 1439 008f 05       		.byte	0x5
 1440 0090 696E7400 		.ascii	"int\000"
 1441 0094 02       		.uleb128 0x2
 1442 0095 04       		.byte	0x4
 1443 0096 07       		.byte	0x7
 1444 0097 84000000 		.4byte	.LASF12
 1445 009b 02       		.uleb128 0x2
 1446 009c 04       		.byte	0x4
ARM GAS  C:\Users\TaisikHam\AppData\Local\Temp\ccNzzKEh.s 			page 27


 1447 009d 07       		.byte	0x7
 1448 009e 15060000 		.4byte	.LASF13
 1449 00a2 05       		.uleb128 0x5
 1450 00a3 49000000 		.4byte	0x49
 1451 00a7 05       		.uleb128 0x5
 1452 00a8 5B000000 		.4byte	0x5b
 1453 00ac 06       		.uleb128 0x6
 1454 00ad 01       		.byte	0x1
 1455 00ae 03       		.byte	0x3
 1456 00af 2201     		.2byte	0x122
 1457 00b1 C2000000 		.4byte	0xc2
 1458 00b5 07       		.uleb128 0x7
 1459 00b6 C1050000 		.4byte	.LASF14
 1460 00ba 00       		.sleb128 0
 1461 00bb 08       		.uleb128 0x8
 1462 00bc 53455400 		.ascii	"SET\000"
 1463 00c0 01       		.sleb128 1
 1464 00c1 00       		.byte	0
 1465 00c2 09       		.uleb128 0x9
 1466 00c3 1A010000 		.4byte	.LASF15
 1467 00c7 03       		.byte	0x3
 1468 00c8 2201     		.2byte	0x122
 1469 00ca AC000000 		.4byte	0xac
 1470 00ce 09       		.uleb128 0x9
 1471 00cf 5B020000 		.4byte	.LASF16
 1472 00d3 03       		.byte	0x3
 1473 00d4 2201     		.2byte	0x122
 1474 00d6 AC000000 		.4byte	0xac
 1475 00da 06       		.uleb128 0x6
 1476 00db 01       		.byte	0x1
 1477 00dc 03       		.byte	0x3
 1478 00dd 2401     		.2byte	0x124
 1479 00df F0000000 		.4byte	0xf0
 1480 00e3 07       		.uleb128 0x7
 1481 00e4 B1020000 		.4byte	.LASF17
 1482 00e8 00       		.sleb128 0
 1483 00e9 07       		.uleb128 0x7
 1484 00ea 0E060000 		.4byte	.LASF18
 1485 00ee 01       		.sleb128 1
 1486 00ef 00       		.byte	0
 1487 00f0 09       		.uleb128 0x9
 1488 00f1 91000000 		.4byte	.LASF19
 1489 00f5 03       		.byte	0x3
 1490 00f6 2401     		.2byte	0x124
 1491 00f8 DA000000 		.4byte	0xda
 1492 00fc 0A       		.uleb128 0xa
 1493 00fd 24       		.byte	0x24
 1494 00fe 03       		.byte	0x3
 1495 00ff DD02     		.2byte	0x2dd
 1496 0101 12020000 		.4byte	0x212
 1497 0105 0B       		.uleb128 0xb
 1498 0106 43523100 		.ascii	"CR1\000"
 1499 010a 03       		.byte	0x3
 1500 010b DF02     		.2byte	0x2df
 1501 010d A2000000 		.4byte	0xa2
 1502 0111 02       		.byte	0x2
 1503 0112 23       		.byte	0x23
ARM GAS  C:\Users\TaisikHam\AppData\Local\Temp\ccNzzKEh.s 			page 28


 1504 0113 00       		.uleb128 0
 1505 0114 0C       		.uleb128 0xc
 1506 0115 DF040000 		.4byte	.LASF20
 1507 0119 03       		.byte	0x3
 1508 011a E002     		.2byte	0x2e0
 1509 011c 49000000 		.4byte	0x49
 1510 0120 02       		.byte	0x2
 1511 0121 23       		.byte	0x23
 1512 0122 02       		.uleb128 0x2
 1513 0123 0B       		.uleb128 0xb
 1514 0124 43523200 		.ascii	"CR2\000"
 1515 0128 03       		.byte	0x3
 1516 0129 E102     		.2byte	0x2e1
 1517 012b A2000000 		.4byte	0xa2
 1518 012f 02       		.byte	0x2
 1519 0130 23       		.byte	0x23
 1520 0131 04       		.uleb128 0x4
 1521 0132 0C       		.uleb128 0xc
 1522 0133 E9040000 		.4byte	.LASF21
 1523 0137 03       		.byte	0x3
 1524 0138 E202     		.2byte	0x2e2
 1525 013a 49000000 		.4byte	0x49
 1526 013e 02       		.byte	0x2
 1527 013f 23       		.byte	0x23
 1528 0140 06       		.uleb128 0x6
 1529 0141 0B       		.uleb128 0xb
 1530 0142 535200   		.ascii	"SR\000"
 1531 0145 03       		.byte	0x3
 1532 0146 E302     		.2byte	0x2e3
 1533 0148 A2000000 		.4byte	0xa2
 1534 014c 02       		.byte	0x2
 1535 014d 23       		.byte	0x23
 1536 014e 08       		.uleb128 0x8
 1537 014f 0C       		.uleb128 0xc
 1538 0150 F3040000 		.4byte	.LASF22
 1539 0154 03       		.byte	0x3
 1540 0155 E402     		.2byte	0x2e4
 1541 0157 49000000 		.4byte	0x49
 1542 015b 02       		.byte	0x2
 1543 015c 23       		.byte	0x23
 1544 015d 0A       		.uleb128 0xa
 1545 015e 0B       		.uleb128 0xb
 1546 015f 445200   		.ascii	"DR\000"
 1547 0162 03       		.byte	0x3
 1548 0163 E502     		.2byte	0x2e5
 1549 0165 A2000000 		.4byte	0xa2
 1550 0169 02       		.byte	0x2
 1551 016a 23       		.byte	0x23
 1552 016b 0C       		.uleb128 0xc
 1553 016c 0C       		.uleb128 0xc
 1554 016d FD040000 		.4byte	.LASF23
 1555 0171 03       		.byte	0x3
 1556 0172 E602     		.2byte	0x2e6
 1557 0174 49000000 		.4byte	0x49
 1558 0178 02       		.byte	0x2
 1559 0179 23       		.byte	0x23
 1560 017a 0E       		.uleb128 0xe
ARM GAS  C:\Users\TaisikHam\AppData\Local\Temp\ccNzzKEh.s 			page 29


 1561 017b 0C       		.uleb128 0xc
 1562 017c 55060000 		.4byte	.LASF24
 1563 0180 03       		.byte	0x3
 1564 0181 E702     		.2byte	0x2e7
 1565 0183 A2000000 		.4byte	0xa2
 1566 0187 02       		.byte	0x2
 1567 0188 23       		.byte	0x23
 1568 0189 10       		.uleb128 0x10
 1569 018a 0C       		.uleb128 0xc
 1570 018b 07050000 		.4byte	.LASF25
 1571 018f 03       		.byte	0x3
 1572 0190 E802     		.2byte	0x2e8
 1573 0192 49000000 		.4byte	0x49
 1574 0196 02       		.byte	0x2
 1575 0197 23       		.byte	0x23
 1576 0198 12       		.uleb128 0x12
 1577 0199 0C       		.uleb128 0xc
 1578 019a AF000000 		.4byte	.LASF26
 1579 019e 03       		.byte	0x3
 1580 019f E902     		.2byte	0x2e9
 1581 01a1 A2000000 		.4byte	0xa2
 1582 01a5 02       		.byte	0x2
 1583 01a6 23       		.byte	0x23
 1584 01a7 14       		.uleb128 0x14
 1585 01a8 0C       		.uleb128 0xc
 1586 01a9 11050000 		.4byte	.LASF27
 1587 01ad 03       		.byte	0x3
 1588 01ae EA02     		.2byte	0x2ea
 1589 01b0 49000000 		.4byte	0x49
 1590 01b4 02       		.byte	0x2
 1591 01b5 23       		.byte	0x23
 1592 01b6 16       		.uleb128 0x16
 1593 01b7 0C       		.uleb128 0xc
 1594 01b8 82020000 		.4byte	.LASF28
 1595 01bc 03       		.byte	0x3
 1596 01bd EB02     		.2byte	0x2eb
 1597 01bf A2000000 		.4byte	0xa2
 1598 01c3 02       		.byte	0x2
 1599 01c4 23       		.byte	0x23
 1600 01c5 18       		.uleb128 0x18
 1601 01c6 0C       		.uleb128 0xc
 1602 01c7 1B050000 		.4byte	.LASF29
 1603 01cb 03       		.byte	0x3
 1604 01cc EC02     		.2byte	0x2ec
 1605 01ce 49000000 		.4byte	0x49
 1606 01d2 02       		.byte	0x2
 1607 01d3 23       		.byte	0x23
 1608 01d4 1A       		.uleb128 0x1a
 1609 01d5 0C       		.uleb128 0xc
 1610 01d6 BE060000 		.4byte	.LASF30
 1611 01da 03       		.byte	0x3
 1612 01db ED02     		.2byte	0x2ed
 1613 01dd A2000000 		.4byte	0xa2
 1614 01e1 02       		.byte	0x2
 1615 01e2 23       		.byte	0x23
 1616 01e3 1C       		.uleb128 0x1c
 1617 01e4 0C       		.uleb128 0xc
ARM GAS  C:\Users\TaisikHam\AppData\Local\Temp\ccNzzKEh.s 			page 30


 1618 01e5 67070000 		.4byte	.LASF31
 1619 01e9 03       		.byte	0x3
 1620 01ea EE02     		.2byte	0x2ee
 1621 01ec 49000000 		.4byte	0x49
 1622 01f0 02       		.byte	0x2
 1623 01f1 23       		.byte	0x23
 1624 01f2 1E       		.uleb128 0x1e
 1625 01f3 0C       		.uleb128 0xc
 1626 01f4 10040000 		.4byte	.LASF32
 1627 01f8 03       		.byte	0x3
 1628 01f9 EF02     		.2byte	0x2ef
 1629 01fb A2000000 		.4byte	0xa2
 1630 01ff 02       		.byte	0x2
 1631 0200 23       		.byte	0x23
 1632 0201 20       		.uleb128 0x20
 1633 0202 0C       		.uleb128 0xc
 1634 0203 2F050000 		.4byte	.LASF33
 1635 0207 03       		.byte	0x3
 1636 0208 F002     		.2byte	0x2f0
 1637 020a 49000000 		.4byte	0x49
 1638 020e 02       		.byte	0x2
 1639 020f 23       		.byte	0x23
 1640 0210 22       		.uleb128 0x22
 1641 0211 00       		.byte	0
 1642 0212 09       		.uleb128 0x9
 1643 0213 DE060000 		.4byte	.LASF34
 1644 0217 03       		.byte	0x3
 1645 0218 F102     		.2byte	0x2f1
 1646 021a FC000000 		.4byte	0xfc
 1647 021e 0D       		.uleb128 0xd
 1648 021f 12       		.byte	0x12
 1649 0220 04       		.byte	0x4
 1650 0221 36       		.byte	0x36
 1651 0222 A5020000 		.4byte	0x2a5
 1652 0226 0E       		.uleb128 0xe
 1653 0227 A3010000 		.4byte	.LASF35
 1654 022b 04       		.byte	0x4
 1655 022c 38       		.byte	0x38
 1656 022d 49000000 		.4byte	0x49
 1657 0231 02       		.byte	0x2
 1658 0232 23       		.byte	0x23
 1659 0233 00       		.uleb128 0
 1660 0234 0E       		.uleb128 0xe
 1661 0235 19030000 		.4byte	.LASF36
 1662 0239 04       		.byte	0x4
 1663 023a 3B       		.byte	0x3b
 1664 023b 49000000 		.4byte	0x49
 1665 023f 02       		.byte	0x2
 1666 0240 23       		.byte	0x23
 1667 0241 02       		.uleb128 0x2
 1668 0242 0E       		.uleb128 0xe
 1669 0243 5A070000 		.4byte	.LASF37
 1670 0247 04       		.byte	0x4
 1671 0248 3E       		.byte	0x3e
 1672 0249 49000000 		.4byte	0x49
 1673 024d 02       		.byte	0x2
 1674 024e 23       		.byte	0x23
ARM GAS  C:\Users\TaisikHam\AppData\Local\Temp\ccNzzKEh.s 			page 31


 1675 024f 04       		.uleb128 0x4
 1676 0250 0E       		.uleb128 0xe
 1677 0251 86070000 		.4byte	.LASF38
 1678 0255 04       		.byte	0x4
 1679 0256 41       		.byte	0x41
 1680 0257 49000000 		.4byte	0x49
 1681 025b 02       		.byte	0x2
 1682 025c 23       		.byte	0x23
 1683 025d 06       		.uleb128 0x6
 1684 025e 0E       		.uleb128 0xe
 1685 025f 6B030000 		.4byte	.LASF39
 1686 0263 04       		.byte	0x4
 1687 0264 44       		.byte	0x44
 1688 0265 49000000 		.4byte	0x49
 1689 0269 02       		.byte	0x2
 1690 026a 23       		.byte	0x23
 1691 026b 08       		.uleb128 0x8
 1692 026c 0E       		.uleb128 0xe
 1693 026d 62000000 		.4byte	.LASF40
 1694 0271 04       		.byte	0x4
 1695 0272 47       		.byte	0x47
 1696 0273 49000000 		.4byte	0x49
 1697 0277 02       		.byte	0x2
 1698 0278 23       		.byte	0x23
 1699 0279 0A       		.uleb128 0xa
 1700 027a 0E       		.uleb128 0xe
 1701 027b CA030000 		.4byte	.LASF41
 1702 027f 04       		.byte	0x4
 1703 0280 4B       		.byte	0x4b
 1704 0281 49000000 		.4byte	0x49
 1705 0285 02       		.byte	0x2
 1706 0286 23       		.byte	0x23
 1707 0287 0C       		.uleb128 0xc
 1708 0288 0E       		.uleb128 0xe
 1709 0289 34010000 		.4byte	.LASF42
 1710 028d 04       		.byte	0x4
 1711 028e 51       		.byte	0x51
 1712 028f 49000000 		.4byte	0x49
 1713 0293 02       		.byte	0x2
 1714 0294 23       		.byte	0x23
 1715 0295 0E       		.uleb128 0xe
 1716 0296 0E       		.uleb128 0xe
 1717 0297 F0000000 		.4byte	.LASF43
 1718 029b 04       		.byte	0x4
 1719 029c 54       		.byte	0x54
 1720 029d 49000000 		.4byte	0x49
 1721 02a1 02       		.byte	0x2
 1722 02a2 23       		.byte	0x23
 1723 02a3 10       		.uleb128 0x10
 1724 02a4 00       		.byte	0
 1725 02a5 03       		.uleb128 0x3
 1726 02a6 2C020000 		.4byte	.LASF44
 1727 02aa 04       		.byte	0x4
 1728 02ab 55       		.byte	0x55
 1729 02ac 1E020000 		.4byte	0x21e
 1730 02b0 0D       		.uleb128 0xd
 1731 02b1 10       		.byte	0x10
ARM GAS  C:\Users\TaisikHam\AppData\Local\Temp\ccNzzKEh.s 			page 32


 1732 02b2 04       		.byte	0x4
 1733 02b3 5C       		.byte	0x5c
 1734 02b4 0D030000 		.4byte	0x30d
 1735 02b8 0E       		.uleb128 0xe
 1736 02b9 63010000 		.4byte	.LASF45
 1737 02bd 04       		.byte	0x4
 1738 02be 5E       		.byte	0x5e
 1739 02bf 49000000 		.4byte	0x49
 1740 02c3 02       		.byte	0x2
 1741 02c4 23       		.byte	0x23
 1742 02c5 00       		.uleb128 0
 1743 02c6 0E       		.uleb128 0xe
 1744 02c7 02010000 		.4byte	.LASF46
 1745 02cb 04       		.byte	0x4
 1746 02cc 61       		.byte	0x61
 1747 02cd 49000000 		.4byte	0x49
 1748 02d1 02       		.byte	0x2
 1749 02d2 23       		.byte	0x23
 1750 02d3 02       		.uleb128 0x2
 1751 02d4 0E       		.uleb128 0xe
 1752 02d5 EA060000 		.4byte	.LASF47
 1753 02d9 04       		.byte	0x4
 1754 02da 64       		.byte	0x64
 1755 02db 49000000 		.4byte	0x49
 1756 02df 02       		.byte	0x2
 1757 02e0 23       		.byte	0x23
 1758 02e1 04       		.uleb128 0x4
 1759 02e2 0E       		.uleb128 0xe
 1760 02e3 58040000 		.4byte	.LASF48
 1761 02e7 04       		.byte	0x4
 1762 02e8 67       		.byte	0x67
 1763 02e9 49000000 		.4byte	0x49
 1764 02ed 02       		.byte	0x2
 1765 02ee 23       		.byte	0x23
 1766 02ef 06       		.uleb128 0x6
 1767 02f0 0E       		.uleb128 0xe
 1768 02f1 E7010000 		.4byte	.LASF49
 1769 02f5 04       		.byte	0x4
 1770 02f6 6A       		.byte	0x6a
 1771 02f7 6D000000 		.4byte	0x6d
 1772 02fb 02       		.byte	0x2
 1773 02fc 23       		.byte	0x23
 1774 02fd 08       		.uleb128 0x8
 1775 02fe 0E       		.uleb128 0xe
 1776 02ff 6F050000 		.4byte	.LASF50
 1777 0303 04       		.byte	0x4
 1778 0304 6D       		.byte	0x6d
 1779 0305 49000000 		.4byte	0x49
 1780 0309 02       		.byte	0x2
 1781 030a 23       		.byte	0x23
 1782 030b 0C       		.uleb128 0xc
 1783 030c 00       		.byte	0
 1784 030d 03       		.uleb128 0x3
 1785 030e 44050000 		.4byte	.LASF51
 1786 0312 04       		.byte	0x4
 1787 0313 6F       		.byte	0x6f
 1788 0314 B0020000 		.4byte	0x2b0
ARM GAS  C:\Users\TaisikHam\AppData\Local\Temp\ccNzzKEh.s 			page 33


 1789 0318 0D       		.uleb128 0xd
 1790 0319 3C       		.byte	0x3c
 1791 031a 05       		.byte	0x5
 1792 031b 32       		.byte	0x32
 1793 031c F3030000 		.4byte	0x3f3
 1794 0320 0E       		.uleb128 0xe
 1795 0321 09020000 		.4byte	.LASF52
 1796 0325 05       		.byte	0x5
 1797 0326 34       		.byte	0x34
 1798 0327 6D000000 		.4byte	0x6d
 1799 032b 02       		.byte	0x2
 1800 032c 23       		.byte	0x23
 1801 032d 00       		.uleb128 0
 1802 032e 0E       		.uleb128 0xe
 1803 032f 64020000 		.4byte	.LASF53
 1804 0333 05       		.byte	0x5
 1805 0334 35       		.byte	0x35
 1806 0335 6D000000 		.4byte	0x6d
 1807 0339 02       		.byte	0x2
 1808 033a 23       		.byte	0x23
 1809 033b 04       		.uleb128 0x4
 1810 033c 0E       		.uleb128 0xe
 1811 033d CE060000 		.4byte	.LASF54
 1812 0341 05       		.byte	0x5
 1813 0342 36       		.byte	0x36
 1814 0343 6D000000 		.4byte	0x6d
 1815 0347 02       		.byte	0x2
 1816 0348 23       		.byte	0x23
 1817 0349 08       		.uleb128 0x8
 1818 034a 0E       		.uleb128 0xe
 1819 034b E2050000 		.4byte	.LASF55
 1820 034f 05       		.byte	0x5
 1821 0350 37       		.byte	0x37
 1822 0351 6D000000 		.4byte	0x6d
 1823 0355 02       		.byte	0x2
 1824 0356 23       		.byte	0x23
 1825 0357 0C       		.uleb128 0xc
 1826 0358 0E       		.uleb128 0xe
 1827 0359 90010000 		.4byte	.LASF56
 1828 035d 05       		.byte	0x5
 1829 035e 38       		.byte	0x38
 1830 035f 6D000000 		.4byte	0x6d
 1831 0363 02       		.byte	0x2
 1832 0364 23       		.byte	0x23
 1833 0365 10       		.uleb128 0x10
 1834 0366 0E       		.uleb128 0xe
 1835 0367 B6000000 		.4byte	.LASF57
 1836 036b 05       		.byte	0x5
 1837 036c 39       		.byte	0x39
 1838 036d 6D000000 		.4byte	0x6d
 1839 0371 02       		.byte	0x2
 1840 0372 23       		.byte	0x23
 1841 0373 14       		.uleb128 0x14
 1842 0374 0E       		.uleb128 0xe
 1843 0375 2E000000 		.4byte	.LASF58
 1844 0379 05       		.byte	0x5
 1845 037a 3A       		.byte	0x3a
ARM GAS  C:\Users\TaisikHam\AppData\Local\Temp\ccNzzKEh.s 			page 34


 1846 037b 6D000000 		.4byte	0x6d
 1847 037f 02       		.byte	0x2
 1848 0380 23       		.byte	0x23
 1849 0381 18       		.uleb128 0x18
 1850 0382 0E       		.uleb128 0xe
 1851 0383 8F070000 		.4byte	.LASF59
 1852 0387 05       		.byte	0x5
 1853 0388 3B       		.byte	0x3b
 1854 0389 6D000000 		.4byte	0x6d
 1855 038d 02       		.byte	0x2
 1856 038e 23       		.byte	0x23
 1857 038f 1C       		.uleb128 0x1c
 1858 0390 0E       		.uleb128 0xe
 1859 0391 1A020000 		.4byte	.LASF60
 1860 0395 05       		.byte	0x5
 1861 0396 3C       		.byte	0x3c
 1862 0397 6D000000 		.4byte	0x6d
 1863 039b 02       		.byte	0x2
 1864 039c 23       		.byte	0x23
 1865 039d 20       		.uleb128 0x20
 1866 039e 0E       		.uleb128 0xe
 1867 039f 54050000 		.4byte	.LASF61
 1868 03a3 05       		.byte	0x5
 1869 03a4 3D       		.byte	0x3d
 1870 03a5 6D000000 		.4byte	0x6d
 1871 03a9 02       		.byte	0x2
 1872 03aa 23       		.byte	0x23
 1873 03ab 24       		.uleb128 0x24
 1874 03ac 0E       		.uleb128 0xe
 1875 03ad 67040000 		.4byte	.LASF62
 1876 03b1 05       		.byte	0x5
 1877 03b2 3E       		.byte	0x3e
 1878 03b3 6D000000 		.4byte	0x6d
 1879 03b7 02       		.byte	0x2
 1880 03b8 23       		.byte	0x23
 1881 03b9 28       		.uleb128 0x28
 1882 03ba 0E       		.uleb128 0xe
 1883 03bb 99050000 		.4byte	.LASF63
 1884 03bf 05       		.byte	0x5
 1885 03c0 3F       		.byte	0x3f
 1886 03c1 6D000000 		.4byte	0x6d
 1887 03c5 02       		.byte	0x2
 1888 03c6 23       		.byte	0x23
 1889 03c7 2C       		.uleb128 0x2c
 1890 03c8 0E       		.uleb128 0xe
 1891 03c9 AD050000 		.4byte	.LASF64
 1892 03cd 05       		.byte	0x5
 1893 03ce 40       		.byte	0x40
 1894 03cf 6D000000 		.4byte	0x6d
 1895 03d3 02       		.byte	0x2
 1896 03d4 23       		.byte	0x23
 1897 03d5 30       		.uleb128 0x30
 1898 03d6 0E       		.uleb128 0xe
 1899 03d7 B1010000 		.4byte	.LASF65
 1900 03db 05       		.byte	0x5
 1901 03dc 41       		.byte	0x41
 1902 03dd 6D000000 		.4byte	0x6d
ARM GAS  C:\Users\TaisikHam\AppData\Local\Temp\ccNzzKEh.s 			page 35


 1903 03e1 02       		.byte	0x2
 1904 03e2 23       		.byte	0x23
 1905 03e3 34       		.uleb128 0x34
 1906 03e4 0E       		.uleb128 0xe
 1907 03e5 6C010000 		.4byte	.LASF66
 1908 03e9 05       		.byte	0x5
 1909 03ea 42       		.byte	0x42
 1910 03eb 6D000000 		.4byte	0x6d
 1911 03ef 02       		.byte	0x2
 1912 03f0 23       		.byte	0x23
 1913 03f1 38       		.uleb128 0x38
 1914 03f2 00       		.byte	0
 1915 03f3 03       		.uleb128 0x3
 1916 03f4 DE000000 		.4byte	.LASF67
 1917 03f8 05       		.byte	0x5
 1918 03f9 43       		.byte	0x43
 1919 03fa 18030000 		.4byte	0x318
 1920 03fe 0F       		.uleb128 0xf
 1921 03ff 01       		.byte	0x1
 1922 0400 C9000000 		.4byte	.LASF68
 1923 0404 01       		.byte	0x1
 1924 0405 BE       		.byte	0xbe
 1925 0406 01       		.byte	0x1
 1926 0407 00000000 		.4byte	.LFB111
 1927 040b 70000000 		.4byte	.LFE111
 1928 040f 00000000 		.4byte	.LLST0
 1929 0413 01       		.byte	0x1
 1930 0414 C3040000 		.4byte	0x4c3
 1931 0418 10       		.uleb128 0x10
 1932 0419 AA000000 		.4byte	.LASF70
 1933 041d 01       		.byte	0x1
 1934 041e BE       		.byte	0xbe
 1935 041f C3040000 		.4byte	0x4c3
 1936 0423 20000000 		.4byte	.LLST1
 1937 0427 11       		.uleb128 0x11
 1938 0428 32000000 		.4byte	.LVL2
 1939 042c DD0C0000 		.4byte	0xcdd
 1940 0430 41040000 		.4byte	0x441
 1941 0434 12       		.uleb128 0x12
 1942 0435 01       		.byte	0x1
 1943 0436 51       		.byte	0x51
 1944 0437 01       		.byte	0x1
 1945 0438 31       		.byte	0x31
 1946 0439 12       		.uleb128 0x12
 1947 043a 01       		.byte	0x1
 1948 043b 50       		.byte	0x50
 1949 043c 03       		.byte	0x3
 1950 043d 0A       		.byte	0xa
 1951 043e 0080     		.2byte	0x8000
 1952 0440 00       		.byte	0
 1953 0441 13       		.uleb128 0x13
 1954 0442 40000000 		.4byte	.LVL3
 1955 0446 01       		.byte	0x1
 1956 0447 DD0C0000 		.4byte	0xcdd
 1957 044b 5C040000 		.4byte	0x45c
 1958 044f 12       		.uleb128 0x12
 1959 0450 01       		.byte	0x1
ARM GAS  C:\Users\TaisikHam\AppData\Local\Temp\ccNzzKEh.s 			page 36


 1960 0451 51       		.byte	0x51
 1961 0452 01       		.byte	0x1
 1962 0453 30       		.byte	0x30
 1963 0454 12       		.uleb128 0x12
 1964 0455 01       		.byte	0x1
 1965 0456 50       		.byte	0x50
 1966 0457 03       		.byte	0x3
 1967 0458 0A       		.byte	0xa
 1968 0459 0080     		.2byte	0x8000
 1969 045b 00       		.byte	0
 1970 045c 11       		.uleb128 0x11
 1971 045d 4A000000 		.4byte	.LVL5
 1972 0461 F70C0000 		.4byte	0xcf7
 1973 0465 76040000 		.4byte	0x476
 1974 0469 12       		.uleb128 0x12
 1975 046a 01       		.byte	0x1
 1976 046b 51       		.byte	0x51
 1977 046c 01       		.byte	0x1
 1978 046d 31       		.byte	0x31
 1979 046e 12       		.uleb128 0x12
 1980 046f 01       		.byte	0x1
 1981 0470 50       		.byte	0x50
 1982 0471 03       		.byte	0x3
 1983 0472 0A       		.byte	0xa
 1984 0473 0010     		.2byte	0x1000
 1985 0475 00       		.byte	0
 1986 0476 13       		.uleb128 0x13
 1987 0477 58000000 		.4byte	.LVL6
 1988 047b 01       		.byte	0x1
 1989 047c F70C0000 		.4byte	0xcf7
 1990 0480 91040000 		.4byte	0x491
 1991 0484 12       		.uleb128 0x12
 1992 0485 01       		.byte	0x1
 1993 0486 51       		.byte	0x51
 1994 0487 01       		.byte	0x1
 1995 0488 30       		.byte	0x30
 1996 0489 12       		.uleb128 0x12
 1997 048a 01       		.byte	0x1
 1998 048b 50       		.byte	0x50
 1999 048c 03       		.byte	0x3
 2000 048d 0A       		.byte	0xa
 2001 048e 0010     		.2byte	0x1000
 2002 0490 00       		.byte	0
 2003 0491 11       		.uleb128 0x11
 2004 0492 62000000 		.4byte	.LVL8
 2005 0496 DD0C0000 		.4byte	0xcdd
 2006 049a AB040000 		.4byte	0x4ab
 2007 049e 12       		.uleb128 0x12
 2008 049f 01       		.byte	0x1
 2009 04a0 51       		.byte	0x51
 2010 04a1 01       		.byte	0x1
 2011 04a2 31       		.byte	0x31
 2012 04a3 12       		.uleb128 0x12
 2013 04a4 01       		.byte	0x1
 2014 04a5 50       		.byte	0x50
 2015 04a6 03       		.byte	0x3
 2016 04a7 0A       		.byte	0xa
ARM GAS  C:\Users\TaisikHam\AppData\Local\Temp\ccNzzKEh.s 			page 37


 2017 04a8 0040     		.2byte	0x4000
 2018 04aa 00       		.byte	0
 2019 04ab 14       		.uleb128 0x14
 2020 04ac 70000000 		.4byte	.LVL9
 2021 04b0 01       		.byte	0x1
 2022 04b1 DD0C0000 		.4byte	0xcdd
 2023 04b5 12       		.uleb128 0x12
 2024 04b6 01       		.byte	0x1
 2025 04b7 51       		.byte	0x51
 2026 04b8 01       		.byte	0x1
 2027 04b9 30       		.byte	0x30
 2028 04ba 12       		.uleb128 0x12
 2029 04bb 01       		.byte	0x1
 2030 04bc 50       		.byte	0x50
 2031 04bd 03       		.byte	0x3
 2032 04be 0A       		.byte	0xa
 2033 04bf 0040     		.2byte	0x4000
 2034 04c1 00       		.byte	0
 2035 04c2 00       		.byte	0
 2036 04c3 15       		.uleb128 0x15
 2037 04c4 04       		.byte	0x4
 2038 04c5 12020000 		.4byte	0x212
 2039 04c9 16       		.uleb128 0x16
 2040 04ca 01       		.byte	0x1
 2041 04cb 25010000 		.4byte	.LASF69
 2042 04cf 01       		.byte	0x1
 2043 04d0 E3       		.byte	0xe3
 2044 04d1 01       		.byte	0x1
 2045 04d2 00000000 		.4byte	.LFB112
 2046 04d6 1C000000 		.4byte	.LFE112
 2047 04da 02       		.byte	0x2
 2048 04db 7D       		.byte	0x7d
 2049 04dc 00       		.sleb128 0
 2050 04dd 01       		.byte	0x1
 2051 04de F0040000 		.4byte	0x4f0
 2052 04e2 17       		.uleb128 0x17
 2053 04e3 9B060000 		.4byte	.LASF71
 2054 04e7 01       		.byte	0x1
 2055 04e8 E3       		.byte	0xe3
 2056 04e9 F0040000 		.4byte	0x4f0
 2057 04ed 01       		.byte	0x1
 2058 04ee 50       		.byte	0x50
 2059 04ef 00       		.byte	0
 2060 04f0 15       		.uleb128 0x15
 2061 04f1 04       		.byte	0x4
 2062 04f2 A5020000 		.4byte	0x2a5
 2063 04f6 18       		.uleb128 0x18
 2064 04f7 01       		.byte	0x1
 2065 04f8 A1000000 		.4byte	.LASF72
 2066 04fc 01       		.byte	0x1
 2067 04fd 0201     		.2byte	0x102
 2068 04ff 01       		.byte	0x1
 2069 0500 00000000 		.4byte	.LFB113
 2070 0504 A4000000 		.4byte	.LFE113
 2071 0508 73000000 		.4byte	.LLST2
 2072 050c 01       		.byte	0x1
 2073 050d 3E050000 		.4byte	0x53e
ARM GAS  C:\Users\TaisikHam\AppData\Local\Temp\ccNzzKEh.s 			page 38


 2074 0511 19       		.uleb128 0x19
 2075 0512 AA000000 		.4byte	.LASF70
 2076 0516 01       		.byte	0x1
 2077 0517 0201     		.2byte	0x102
 2078 0519 C3040000 		.4byte	0x4c3
 2079 051d 01       		.byte	0x1
 2080 051e 50       		.byte	0x50
 2081 051f 19       		.uleb128 0x19
 2082 0520 9B060000 		.4byte	.LASF71
 2083 0524 01       		.byte	0x1
 2084 0525 0201     		.2byte	0x102
 2085 0527 F0040000 		.4byte	0x4f0
 2086 052b 01       		.byte	0x1
 2087 052c 51       		.byte	0x51
 2088 052d 1A       		.uleb128 0x1a
 2089 052e 3E020000 		.4byte	.LASF76
 2090 0532 01       		.byte	0x1
 2091 0533 0401     		.2byte	0x104
 2092 0535 49000000 		.4byte	0x49
 2093 0539 93000000 		.4byte	.LLST3
 2094 053d 00       		.byte	0
 2095 053e 1B       		.uleb128 0x1b
 2096 053f 01       		.byte	0x1
 2097 0540 73020000 		.4byte	.LASF73
 2098 0544 01       		.byte	0x1
 2099 0545 6501     		.2byte	0x165
 2100 0547 01       		.byte	0x1
 2101 0548 00000000 		.4byte	.LFB114
 2102 054c 12000000 		.4byte	.LFE114
 2103 0550 02       		.byte	0x2
 2104 0551 7D       		.byte	0x7d
 2105 0552 00       		.sleb128 0
 2106 0553 01       		.byte	0x1
 2107 0554 67050000 		.4byte	0x567
 2108 0558 19       		.uleb128 0x19
 2109 0559 FF050000 		.4byte	.LASF74
 2110 055d 01       		.byte	0x1
 2111 055e 6501     		.2byte	0x165
 2112 0560 67050000 		.4byte	0x567
 2113 0564 01       		.byte	0x1
 2114 0565 50       		.byte	0x50
 2115 0566 00       		.byte	0
 2116 0567 15       		.uleb128 0x15
 2117 0568 04       		.byte	0x4
 2118 0569 0D030000 		.4byte	0x30d
 2119 056d 18       		.uleb128 0x18
 2120 056e 01       		.byte	0x1
 2121 056f 30060000 		.4byte	.LASF75
 2122 0573 01       		.byte	0x1
 2123 0574 8A01     		.2byte	0x18a
 2124 0576 01       		.byte	0x1
 2125 0577 00000000 		.4byte	.LFB115
 2126 057b B4000000 		.4byte	.LFE115
 2127 057f 0B010000 		.4byte	.LLST4
 2128 0583 01       		.byte	0x1
 2129 0584 2A060000 		.4byte	0x62a
 2130 0588 1C       		.uleb128 0x1c
ARM GAS  C:\Users\TaisikHam\AppData\Local\Temp\ccNzzKEh.s 			page 39


 2131 0589 AA000000 		.4byte	.LASF70
 2132 058d 01       		.byte	0x1
 2133 058e 8A01     		.2byte	0x18a
 2134 0590 C3040000 		.4byte	0x4c3
 2135 0594 38010000 		.4byte	.LLST5
 2136 0598 1C       		.uleb128 0x1c
 2137 0599 FF050000 		.4byte	.LASF74
 2138 059d 01       		.byte	0x1
 2139 059e 8A01     		.2byte	0x18a
 2140 05a0 67050000 		.4byte	0x567
 2141 05a4 56010000 		.4byte	.LLST6
 2142 05a8 1A       		.uleb128 0x1a
 2143 05a9 3E020000 		.4byte	.LASF76
 2144 05ad 01       		.byte	0x1
 2145 05ae 8C01     		.2byte	0x18c
 2146 05b0 49000000 		.4byte	0x49
 2147 05b4 74010000 		.4byte	.LLST7
 2148 05b8 1A       		.uleb128 0x1a
 2149 05b9 C4040000 		.4byte	.LASF77
 2150 05bd 01       		.byte	0x1
 2151 05be 8C01     		.2byte	0x18c
 2152 05c0 49000000 		.4byte	0x49
 2153 05c4 A9010000 		.4byte	.LLST8
 2154 05c8 1A       		.uleb128 0x1a
 2155 05c9 A6070000 		.4byte	.LASF78
 2156 05cd 01       		.byte	0x1
 2157 05ce 8C01     		.2byte	0x18c
 2158 05d0 49000000 		.4byte	0x49
 2159 05d4 D4010000 		.4byte	.LLST9
 2160 05d8 1A       		.uleb128 0x1a
 2161 05d9 0C030000 		.4byte	.LASF79
 2162 05dd 01       		.byte	0x1
 2163 05de 8C01     		.2byte	0x18c
 2164 05e0 49000000 		.4byte	0x49
 2165 05e4 14020000 		.4byte	.LLST10
 2166 05e8 1D       		.uleb128 0x1d
 2167 05e9 746D7000 		.ascii	"tmp\000"
 2168 05ed 01       		.byte	0x1
 2169 05ee 8D01     		.2byte	0x18d
 2170 05f0 6D000000 		.4byte	0x6d
 2171 05f4 3E020000 		.4byte	.LLST11
 2172 05f8 1E       		.uleb128 0x1e
 2173 05f9 3D040000 		.4byte	.LASF80
 2174 05fd 01       		.byte	0x1
 2175 05fe 8E01     		.2byte	0x18e
 2176 0600 F3030000 		.4byte	0x3f3
 2177 0604 03       		.byte	0x3
 2178 0605 91       		.byte	0x91
 2179 0606 AC7F     		.sleb128 -84
 2180 0608 1A       		.uleb128 0x1a
 2181 0609 34070000 		.4byte	.LASF81
 2182 060d 01       		.byte	0x1
 2183 060e 8F01     		.2byte	0x18f
 2184 0610 6D000000 		.4byte	0x6d
 2185 0614 7F020000 		.4byte	.LLST12
 2186 0618 1F       		.uleb128 0x1f
 2187 0619 3A000000 		.4byte	.LVL33
ARM GAS  C:\Users\TaisikHam\AppData\Local\Temp\ccNzzKEh.s 			page 40


 2188 061d 110D0000 		.4byte	0xd11
 2189 0621 12       		.uleb128 0x12
 2190 0622 01       		.byte	0x1
 2191 0623 50       		.byte	0x50
 2192 0624 03       		.byte	0x3
 2193 0625 91       		.byte	0x91
 2194 0626 AC7F     		.sleb128 -84
 2195 0628 00       		.byte	0
 2196 0629 00       		.byte	0
 2197 062a 1B       		.uleb128 0x1b
 2198 062b 01       		.byte	0x1
 2199 062c B9020000 		.4byte	.LASF82
 2200 0630 01       		.byte	0x1
 2201 0631 F301     		.2byte	0x1f3
 2202 0633 01       		.byte	0x1
 2203 0634 00000000 		.4byte	.LFB116
 2204 0638 1A000000 		.4byte	.LFE116
 2205 063c 02       		.byte	0x2
 2206 063d 7D       		.byte	0x7d
 2207 063e 00       		.sleb128 0
 2208 063f 01       		.byte	0x1
 2209 0640 61060000 		.4byte	0x661
 2210 0644 19       		.uleb128 0x19
 2211 0645 AA000000 		.4byte	.LASF70
 2212 0649 01       		.byte	0x1
 2213 064a F301     		.2byte	0x1f3
 2214 064c C3040000 		.4byte	0x4c3
 2215 0650 01       		.byte	0x1
 2216 0651 50       		.byte	0x50
 2217 0652 19       		.uleb128 0x19
 2218 0653 89020000 		.4byte	.LASF83
 2219 0657 01       		.byte	0x1
 2220 0658 F301     		.2byte	0x1f3
 2221 065a F0000000 		.4byte	0xf0
 2222 065e 01       		.byte	0x1
 2223 065f 51       		.byte	0x51
 2224 0660 00       		.byte	0
 2225 0661 1B       		.uleb128 0x1b
 2226 0662 01       		.byte	0x1
 2227 0663 A3020000 		.4byte	.LASF84
 2228 0667 01       		.byte	0x1
 2229 0668 1302     		.2byte	0x213
 2230 066a 01       		.byte	0x1
 2231 066b 00000000 		.4byte	.LFB117
 2232 066f 1A000000 		.4byte	.LFE117
 2233 0673 02       		.byte	0x2
 2234 0674 7D       		.byte	0x7d
 2235 0675 00       		.sleb128 0
 2236 0676 01       		.byte	0x1
 2237 0677 98060000 		.4byte	0x698
 2238 067b 19       		.uleb128 0x19
 2239 067c AA000000 		.4byte	.LASF70
 2240 0680 01       		.byte	0x1
 2241 0681 1302     		.2byte	0x213
 2242 0683 C3040000 		.4byte	0x4c3
 2243 0687 01       		.byte	0x1
 2244 0688 50       		.byte	0x50
ARM GAS  C:\Users\TaisikHam\AppData\Local\Temp\ccNzzKEh.s 			page 41


 2245 0689 19       		.uleb128 0x19
 2246 068a 89020000 		.4byte	.LASF83
 2247 068e 01       		.byte	0x1
 2248 068f 1302     		.2byte	0x213
 2249 0691 F0000000 		.4byte	0xf0
 2250 0695 01       		.byte	0x1
 2251 0696 51       		.byte	0x51
 2252 0697 00       		.byte	0
 2253 0698 1B       		.uleb128 0x1b
 2254 0699 01       		.byte	0x1
 2255 069a 7F010000 		.4byte	.LASF85
 2256 069e 01       		.byte	0x1
 2257 069f 2F02     		.2byte	0x22f
 2258 06a1 01       		.byte	0x1
 2259 06a2 00000000 		.4byte	.LFB118
 2260 06a6 1A000000 		.4byte	.LFE118
 2261 06aa 02       		.byte	0x2
 2262 06ab 7D       		.byte	0x7d
 2263 06ac 00       		.sleb128 0
 2264 06ad 01       		.byte	0x1
 2265 06ae CF060000 		.4byte	0x6cf
 2266 06b2 19       		.uleb128 0x19
 2267 06b3 AA000000 		.4byte	.LASF70
 2268 06b7 01       		.byte	0x1
 2269 06b8 2F02     		.2byte	0x22f
 2270 06ba C3040000 		.4byte	0x4c3
 2271 06be 01       		.byte	0x1
 2272 06bf 50       		.byte	0x50
 2273 06c0 19       		.uleb128 0x19
 2274 06c1 89020000 		.4byte	.LASF83
 2275 06c5 01       		.byte	0x1
 2276 06c6 2F02     		.2byte	0x22f
 2277 06c8 F0000000 		.4byte	0xf0
 2278 06cc 01       		.byte	0x1
 2279 06cd 51       		.byte	0x51
 2280 06ce 00       		.byte	0
 2281 06cf 1B       		.uleb128 0x1b
 2282 06d0 01       		.byte	0x1
 2283 06d1 4F000000 		.4byte	.LASF86
 2284 06d5 01       		.byte	0x1
 2285 06d6 5702     		.2byte	0x257
 2286 06d8 01       		.byte	0x1
 2287 06d9 00000000 		.4byte	.LFB119
 2288 06dd 10000000 		.4byte	.LFE119
 2289 06e1 02       		.byte	0x2
 2290 06e2 7D       		.byte	0x7d
 2291 06e3 00       		.sleb128 0
 2292 06e4 01       		.byte	0x1
 2293 06e5 18070000 		.4byte	0x718
 2294 06e9 19       		.uleb128 0x19
 2295 06ea AA000000 		.4byte	.LASF70
 2296 06ee 01       		.byte	0x1
 2297 06ef 5702     		.2byte	0x257
 2298 06f1 C3040000 		.4byte	0x4c3
 2299 06f5 01       		.byte	0x1
 2300 06f6 50       		.byte	0x50
 2301 06f7 1C       		.uleb128 0x1c
ARM GAS  C:\Users\TaisikHam\AppData\Local\Temp\ccNzzKEh.s 			page 42


 2302 06f8 5A070000 		.4byte	.LASF37
 2303 06fc 01       		.byte	0x1
 2304 06fd 5702     		.2byte	0x257
 2305 06ff 49000000 		.4byte	0x49
 2306 0703 C3020000 		.4byte	.LLST13
 2307 0707 1A       		.uleb128 0x1a
 2308 0708 3E020000 		.4byte	.LASF76
 2309 070c 01       		.byte	0x1
 2310 070d 5902     		.2byte	0x259
 2311 070f 49000000 		.4byte	0x49
 2312 0713 E4020000 		.4byte	.LLST14
 2313 0717 00       		.byte	0
 2314 0718 1B       		.uleb128 0x1b
 2315 0719 01       		.byte	0x1
 2316 071a 00000000 		.4byte	.LASF87
 2317 071e 01       		.byte	0x1
 2318 071f 7402     		.2byte	0x274
 2319 0721 01       		.byte	0x1
 2320 0722 00000000 		.4byte	.LFB120
 2321 0726 16000000 		.4byte	.LFE120
 2322 072a 02       		.byte	0x2
 2323 072b 7D       		.byte	0x7d
 2324 072c 00       		.sleb128 0
 2325 072d 01       		.byte	0x1
 2326 072e 51070000 		.4byte	0x751
 2327 0732 19       		.uleb128 0x19
 2328 0733 AA000000 		.4byte	.LASF70
 2329 0737 01       		.byte	0x1
 2330 0738 7402     		.2byte	0x274
 2331 073a C3040000 		.4byte	0x4c3
 2332 073e 01       		.byte	0x1
 2333 073f 50       		.byte	0x50
 2334 0740 1C       		.uleb128 0x1c
 2335 0741 1A000000 		.4byte	.LASF88
 2336 0745 01       		.byte	0x1
 2337 0746 7402     		.2byte	0x274
 2338 0748 49000000 		.4byte	0x49
 2339 074c 19030000 		.4byte	.LLST15
 2340 0750 00       		.byte	0
 2341 0751 1B       		.uleb128 0x1b
 2342 0752 01       		.byte	0x1
 2343 0753 F9060000 		.4byte	.LASF89
 2344 0757 01       		.byte	0x1
 2345 0758 8C02     		.2byte	0x28c
 2346 075a 01       		.byte	0x1
 2347 075b 00000000 		.4byte	.LFB121
 2348 075f 1E000000 		.4byte	.LFE121
 2349 0763 02       		.byte	0x2
 2350 0764 7D       		.byte	0x7d
 2351 0765 00       		.sleb128 0
 2352 0766 01       		.byte	0x1
 2353 0767 88070000 		.4byte	0x788
 2354 076b 19       		.uleb128 0x19
 2355 076c AA000000 		.4byte	.LASF70
 2356 0770 01       		.byte	0x1
 2357 0771 8C02     		.2byte	0x28c
 2358 0773 C3040000 		.4byte	0x4c3
ARM GAS  C:\Users\TaisikHam\AppData\Local\Temp\ccNzzKEh.s 			page 43


 2359 0777 01       		.byte	0x1
 2360 0778 50       		.byte	0x50
 2361 0779 19       		.uleb128 0x19
 2362 077a A3010000 		.4byte	.LASF35
 2363 077e 01       		.byte	0x1
 2364 077f 8C02     		.2byte	0x28c
 2365 0781 49000000 		.4byte	0x49
 2366 0785 01       		.byte	0x1
 2367 0786 51       		.byte	0x51
 2368 0787 00       		.byte	0
 2369 0788 1B       		.uleb128 0x1b
 2370 0789 01       		.byte	0x1
 2371 078a E0030000 		.4byte	.LASF90
 2372 078e 01       		.byte	0x1
 2373 078f AA02     		.2byte	0x2aa
 2374 0791 01       		.byte	0x1
 2375 0792 00000000 		.4byte	.LFB122
 2376 0796 20000000 		.4byte	.LFE122
 2377 079a 02       		.byte	0x2
 2378 079b 7D       		.byte	0x7d
 2379 079c 00       		.sleb128 0
 2380 079d 01       		.byte	0x1
 2381 079e BF070000 		.4byte	0x7bf
 2382 07a2 19       		.uleb128 0x19
 2383 07a3 AA000000 		.4byte	.LASF70
 2384 07a7 01       		.byte	0x1
 2385 07a8 AA02     		.2byte	0x2aa
 2386 07aa C3040000 		.4byte	0x4c3
 2387 07ae 01       		.byte	0x1
 2388 07af 50       		.byte	0x50
 2389 07b0 19       		.uleb128 0x19
 2390 07b1 AA060000 		.4byte	.LASF91
 2391 07b5 01       		.byte	0x1
 2392 07b6 AA02     		.2byte	0x2aa
 2393 07b8 49000000 		.4byte	0x49
 2394 07bc 01       		.byte	0x1
 2395 07bd 51       		.byte	0x51
 2396 07be 00       		.byte	0
 2397 07bf 18       		.uleb128 0x18
 2398 07c0 01       		.byte	0x1
 2399 07c1 71070000 		.4byte	.LASF92
 2400 07c5 01       		.byte	0x1
 2401 07c6 D102     		.2byte	0x2d1
 2402 07c8 01       		.byte	0x1
 2403 07c9 00000000 		.4byte	.LFB123
 2404 07cd 48000000 		.4byte	.LFE123
 2405 07d1 3A030000 		.4byte	.LLST16
 2406 07d5 01       		.byte	0x1
 2407 07d6 19080000 		.4byte	0x819
 2408 07da 19       		.uleb128 0x19
 2409 07db 93060000 		.4byte	.LASF93
 2410 07df 01       		.byte	0x1
 2411 07e0 D102     		.2byte	0x2d1
 2412 07e2 C3040000 		.4byte	0x4c3
 2413 07e6 01       		.byte	0x1
 2414 07e7 50       		.byte	0x50
 2415 07e8 1C       		.uleb128 0x1c
ARM GAS  C:\Users\TaisikHam\AppData\Local\Temp\ccNzzKEh.s 			page 44


 2416 07e9 FF050000 		.4byte	.LASF74
 2417 07ed 01       		.byte	0x1
 2418 07ee D102     		.2byte	0x2d1
 2419 07f0 67050000 		.4byte	0x567
 2420 07f4 5A030000 		.4byte	.LLST17
 2421 07f8 1A       		.uleb128 0x1a
 2422 07f9 3E020000 		.4byte	.LASF76
 2423 07fd 01       		.byte	0x1
 2424 07fe D302     		.2byte	0x2d3
 2425 0800 49000000 		.4byte	0x49
 2426 0804 7B030000 		.4byte	.LLST18
 2427 0808 1D       		.uleb128 0x1d
 2428 0809 746D7000 		.ascii	"tmp\000"
 2429 080d 01       		.byte	0x1
 2430 080e D302     		.2byte	0x2d3
 2431 0810 49000000 		.4byte	0x49
 2432 0814 A5030000 		.4byte	.LLST19
 2433 0818 00       		.byte	0
 2434 0819 1B       		.uleb128 0x1b
 2435 081a 01       		.byte	0x1
 2436 081b 4A070000 		.4byte	.LASF94
 2437 081f 01       		.byte	0x1
 2438 0820 0703     		.2byte	0x307
 2439 0822 01       		.byte	0x1
 2440 0823 00000000 		.4byte	.LFB124
 2441 0827 1A000000 		.4byte	.LFE124
 2442 082b 02       		.byte	0x2
 2443 082c 7D       		.byte	0x7d
 2444 082d 00       		.sleb128 0
 2445 082e 01       		.byte	0x1
 2446 082f 50080000 		.4byte	0x850
 2447 0833 19       		.uleb128 0x19
 2448 0834 AA000000 		.4byte	.LASF70
 2449 0838 01       		.byte	0x1
 2450 0839 0703     		.2byte	0x307
 2451 083b C3040000 		.4byte	0x4c3
 2452 083f 01       		.byte	0x1
 2453 0840 50       		.byte	0x50
 2454 0841 19       		.uleb128 0x19
 2455 0842 89020000 		.4byte	.LASF83
 2456 0846 01       		.byte	0x1
 2457 0847 0703     		.2byte	0x307
 2458 0849 F0000000 		.4byte	0xf0
 2459 084d 01       		.byte	0x1
 2460 084e 51       		.byte	0x51
 2461 084f 00       		.byte	0
 2462 0850 1B       		.uleb128 0x1b
 2463 0851 01       		.byte	0x1
 2464 0852 CB040000 		.4byte	.LASF95
 2465 0856 01       		.byte	0x1
 2466 0857 2703     		.2byte	0x327
 2467 0859 01       		.byte	0x1
 2468 085a 00000000 		.4byte	.LFB125
 2469 085e 1A000000 		.4byte	.LFE125
 2470 0862 02       		.byte	0x2
 2471 0863 7D       		.byte	0x7d
 2472 0864 00       		.sleb128 0
ARM GAS  C:\Users\TaisikHam\AppData\Local\Temp\ccNzzKEh.s 			page 45


 2473 0865 01       		.byte	0x1
 2474 0866 87080000 		.4byte	0x887
 2475 086a 19       		.uleb128 0x19
 2476 086b AA000000 		.4byte	.LASF70
 2477 086f 01       		.byte	0x1
 2478 0870 2703     		.2byte	0x327
 2479 0872 C3040000 		.4byte	0x4c3
 2480 0876 01       		.byte	0x1
 2481 0877 50       		.byte	0x50
 2482 0878 19       		.uleb128 0x19
 2483 0879 89020000 		.4byte	.LASF83
 2484 087d 01       		.byte	0x1
 2485 087e 2703     		.2byte	0x327
 2486 0880 F0000000 		.4byte	0xf0
 2487 0884 01       		.byte	0x1
 2488 0885 51       		.byte	0x51
 2489 0886 00       		.byte	0
 2490 0887 1B       		.uleb128 0x1b
 2491 0888 01       		.byte	0x1
 2492 0889 2A030000 		.4byte	.LASF96
 2493 088d 01       		.byte	0x1
 2494 088e 5B03     		.2byte	0x35b
 2495 0890 01       		.byte	0x1
 2496 0891 00000000 		.4byte	.LFB126
 2497 0895 04000000 		.4byte	.LFE126
 2498 0899 02       		.byte	0x2
 2499 089a 7D       		.byte	0x7d
 2500 089b 00       		.sleb128 0
 2501 089c 01       		.byte	0x1
 2502 089d CE080000 		.4byte	0x8ce
 2503 08a1 19       		.uleb128 0x19
 2504 08a2 AA000000 		.4byte	.LASF70
 2505 08a6 01       		.byte	0x1
 2506 08a7 5B03     		.2byte	0x35b
 2507 08a9 C3040000 		.4byte	0x4c3
 2508 08ad 01       		.byte	0x1
 2509 08ae 50       		.byte	0x50
 2510 08af 19       		.uleb128 0x19
 2511 08b0 A1070000 		.4byte	.LASF97
 2512 08b4 01       		.byte	0x1
 2513 08b5 5B03     		.2byte	0x35b
 2514 08b7 30000000 		.4byte	0x30
 2515 08bb 01       		.byte	0x1
 2516 08bc 51       		.byte	0x51
 2517 08bd 1E       		.uleb128 0x1e
 2518 08be 7B000000 		.4byte	.LASF98
 2519 08c2 01       		.byte	0x1
 2520 08c3 5D03     		.2byte	0x35d
 2521 08c5 6D000000 		.4byte	0x6d
 2522 08c9 03       		.byte	0x3
 2523 08ca 70       		.byte	0x70
 2524 08cb 0C       		.sleb128 12
 2525 08cc 9F       		.byte	0x9f
 2526 08cd 00       		.byte	0
 2527 08ce 1B       		.uleb128 0x1b
 2528 08cf 01       		.byte	0x1
 2529 08d0 5B060000 		.4byte	.LASF99
ARM GAS  C:\Users\TaisikHam\AppData\Local\Temp\ccNzzKEh.s 			page 46


 2530 08d4 01       		.byte	0x1
 2531 08d5 7103     		.2byte	0x371
 2532 08d7 01       		.byte	0x1
 2533 08d8 00000000 		.4byte	.LFB127
 2534 08dc 04000000 		.4byte	.LFE127
 2535 08e0 02       		.byte	0x2
 2536 08e1 7D       		.byte	0x7d
 2537 08e2 00       		.sleb128 0
 2538 08e3 01       		.byte	0x1
 2539 08e4 05090000 		.4byte	0x905
 2540 08e8 19       		.uleb128 0x19
 2541 08e9 AA000000 		.4byte	.LASF70
 2542 08ed 01       		.byte	0x1
 2543 08ee 7103     		.2byte	0x371
 2544 08f0 C3040000 		.4byte	0x4c3
 2545 08f4 01       		.byte	0x1
 2546 08f5 50       		.byte	0x50
 2547 08f6 19       		.uleb128 0x19
 2548 08f7 A1070000 		.4byte	.LASF97
 2549 08fb 01       		.byte	0x1
 2550 08fc 7103     		.2byte	0x371
 2551 08fe 49000000 		.4byte	0x49
 2552 0902 01       		.byte	0x1
 2553 0903 51       		.byte	0x51
 2554 0904 00       		.byte	0
 2555 0905 20       		.uleb128 0x20
 2556 0906 01       		.byte	0x1
 2557 0907 6A000000 		.4byte	.LASF100
 2558 090b 01       		.byte	0x1
 2559 090c 8003     		.2byte	0x380
 2560 090e 01       		.byte	0x1
 2561 090f 30000000 		.4byte	0x30
 2562 0913 00000000 		.4byte	.LFB128
 2563 0917 04000000 		.4byte	.LFE128
 2564 091b 02       		.byte	0x2
 2565 091c 7D       		.byte	0x7d
 2566 091d 00       		.sleb128 0
 2567 091e 01       		.byte	0x1
 2568 091f 44090000 		.4byte	0x944
 2569 0923 1C       		.uleb128 0x1c
 2570 0924 AA000000 		.4byte	.LASF70
 2571 0928 01       		.byte	0x1
 2572 0929 8003     		.2byte	0x380
 2573 092b C3040000 		.4byte	0x4c3
 2574 092f ED030000 		.4byte	.LLST20
 2575 0933 1A       		.uleb128 0x1a
 2576 0934 7B000000 		.4byte	.LASF98
 2577 0938 01       		.byte	0x1
 2578 0939 8203     		.2byte	0x382
 2579 093b 6D000000 		.4byte	0x6d
 2580 093f 0E040000 		.4byte	.LLST21
 2581 0943 00       		.byte	0
 2582 0944 20       		.uleb128 0x20
 2583 0945 01       		.byte	0x1
 2584 0946 45020000 		.4byte	.LASF101
 2585 094a 01       		.byte	0x1
 2586 094b 9503     		.2byte	0x395
ARM GAS  C:\Users\TaisikHam\AppData\Local\Temp\ccNzzKEh.s 			page 47


 2587 094d 01       		.byte	0x1
 2588 094e 49000000 		.4byte	0x49
 2589 0952 00000000 		.4byte	.LFB129
 2590 0956 06000000 		.4byte	.LFE129
 2591 095a 02       		.byte	0x2
 2592 095b 7D       		.byte	0x7d
 2593 095c 00       		.sleb128 0
 2594 095d 01       		.byte	0x1
 2595 095e 73090000 		.4byte	0x973
 2596 0962 1C       		.uleb128 0x1c
 2597 0963 AA000000 		.4byte	.LASF70
 2598 0967 01       		.byte	0x1
 2599 0968 9503     		.2byte	0x395
 2600 096a C3040000 		.4byte	0x4c3
 2601 096e 33040000 		.4byte	.LLST22
 2602 0972 00       		.byte	0
 2603 0973 1B       		.uleb128 0x1b
 2604 0974 01       		.byte	0x1
 2605 0975 85050000 		.4byte	.LASF102
 2606 0979 01       		.byte	0x1
 2607 097a E803     		.2byte	0x3e8
 2608 097c 01       		.byte	0x1
 2609 097d 00000000 		.4byte	.LFB130
 2610 0981 16000000 		.4byte	.LFE130
 2611 0985 02       		.byte	0x2
 2612 0986 7D       		.byte	0x7d
 2613 0987 00       		.sleb128 0
 2614 0988 01       		.byte	0x1
 2615 0989 AC090000 		.4byte	0x9ac
 2616 098d 19       		.uleb128 0x19
 2617 098e AA000000 		.4byte	.LASF70
 2618 0992 01       		.byte	0x1
 2619 0993 E803     		.2byte	0x3e8
 2620 0995 C3040000 		.4byte	0x4c3
 2621 0999 01       		.byte	0x1
 2622 099a 50       		.byte	0x50
 2623 099b 1C       		.uleb128 0x1c
 2624 099c 9E030000 		.4byte	.LASF103
 2625 09a0 01       		.byte	0x1
 2626 09a1 E803     		.2byte	0x3e8
 2627 09a3 49000000 		.4byte	0x49
 2628 09a7 54040000 		.4byte	.LLST23
 2629 09ab 00       		.byte	0
 2630 09ac 1B       		.uleb128 0x1b
 2631 09ad 01       		.byte	0x1
 2632 09ae 8D030000 		.4byte	.LASF104
 2633 09b2 01       		.byte	0x1
 2634 09b3 FC03     		.2byte	0x3fc
 2635 09b5 01       		.byte	0x1
 2636 09b6 00000000 		.4byte	.LFB131
 2637 09ba 1A000000 		.4byte	.LFE131
 2638 09be 02       		.byte	0x2
 2639 09bf 7D       		.byte	0x7d
 2640 09c0 00       		.sleb128 0
 2641 09c1 01       		.byte	0x1
 2642 09c2 E3090000 		.4byte	0x9e3
 2643 09c6 19       		.uleb128 0x19
ARM GAS  C:\Users\TaisikHam\AppData\Local\Temp\ccNzzKEh.s 			page 48


 2644 09c7 AA000000 		.4byte	.LASF70
 2645 09cb 01       		.byte	0x1
 2646 09cc FC03     		.2byte	0x3fc
 2647 09ce C3040000 		.4byte	0x4c3
 2648 09d2 01       		.byte	0x1
 2649 09d3 50       		.byte	0x50
 2650 09d4 19       		.uleb128 0x19
 2651 09d5 89020000 		.4byte	.LASF83
 2652 09d9 01       		.byte	0x1
 2653 09da FC03     		.2byte	0x3fc
 2654 09dc F0000000 		.4byte	0xf0
 2655 09e0 01       		.byte	0x1
 2656 09e1 51       		.byte	0x51
 2657 09e2 00       		.byte	0
 2658 09e3 1B       		.uleb128 0x1b
 2659 09e4 01       		.byte	0x1
 2660 09e5 16040000 		.4byte	.LASF105
 2661 09e9 01       		.byte	0x1
 2662 09ea 1304     		.2byte	0x413
 2663 09ec 01       		.byte	0x1
 2664 09ed 00000000 		.4byte	.LFB132
 2665 09f1 0C000000 		.4byte	.LFE132
 2666 09f5 02       		.byte	0x2
 2667 09f6 7D       		.byte	0x7d
 2668 09f7 00       		.sleb128 0
 2669 09f8 01       		.byte	0x1
 2670 09f9 0C0A0000 		.4byte	0xa0c
 2671 09fd 19       		.uleb128 0x19
 2672 09fe AA000000 		.4byte	.LASF70
 2673 0a02 01       		.byte	0x1
 2674 0a03 1304     		.2byte	0x413
 2675 0a05 C3040000 		.4byte	0x4c3
 2676 0a09 01       		.byte	0x1
 2677 0a0a 50       		.byte	0x50
 2678 0a0b 00       		.byte	0
 2679 0a0c 20       		.uleb128 0x20
 2680 0a0d 01       		.byte	0x1
 2681 0a0e 0F010000 		.4byte	.LASF106
 2682 0a12 01       		.byte	0x1
 2683 0a13 2504     		.2byte	0x425
 2684 0a15 01       		.byte	0x1
 2685 0a16 49000000 		.4byte	0x49
 2686 0a1a 00000000 		.4byte	.LFB133
 2687 0a1e 0C000000 		.4byte	.LFE133
 2688 0a22 02       		.byte	0x2
 2689 0a23 7D       		.byte	0x7d
 2690 0a24 00       		.sleb128 0
 2691 0a25 01       		.byte	0x1
 2692 0a26 590A0000 		.4byte	0xa59
 2693 0a2a 1C       		.uleb128 0x1c
 2694 0a2b AA000000 		.4byte	.LASF70
 2695 0a2f 01       		.byte	0x1
 2696 0a30 2504     		.2byte	0x425
 2697 0a32 C3040000 		.4byte	0x4c3
 2698 0a36 75040000 		.4byte	.LLST24
 2699 0a3a 19       		.uleb128 0x19
 2700 0a3b C6060000 		.4byte	.LASF107
ARM GAS  C:\Users\TaisikHam\AppData\Local\Temp\ccNzzKEh.s 			page 49


 2701 0a3f 01       		.byte	0x1
 2702 0a40 2504     		.2byte	0x425
 2703 0a42 30000000 		.4byte	0x30
 2704 0a46 01       		.byte	0x1
 2705 0a47 51       		.byte	0x51
 2706 0a48 1A       		.uleb128 0x1a
 2707 0a49 86030000 		.4byte	.LASF108
 2708 0a4d 01       		.byte	0x1
 2709 0a4e 2704     		.2byte	0x427
 2710 0a50 49000000 		.4byte	0x49
 2711 0a54 96040000 		.4byte	.LLST25
 2712 0a58 00       		.byte	0
 2713 0a59 20       		.uleb128 0x20
 2714 0a5a 01       		.byte	0x1
 2715 0a5b 4E010000 		.4byte	.LASF109
 2716 0a5f 01       		.byte	0x1
 2717 0a60 3F04     		.2byte	0x43f
 2718 0a62 01       		.byte	0x1
 2719 0a63 49000000 		.4byte	0x49
 2720 0a67 00000000 		.4byte	.LFB134
 2721 0a6b 06000000 		.4byte	.LFE134
 2722 0a6f 02       		.byte	0x2
 2723 0a70 7D       		.byte	0x7d
 2724 0a71 00       		.sleb128 0
 2725 0a72 01       		.byte	0x1
 2726 0a73 880A0000 		.4byte	0xa88
 2727 0a77 1C       		.uleb128 0x1c
 2728 0a78 AA000000 		.4byte	.LASF70
 2729 0a7c 01       		.byte	0x1
 2730 0a7d 3F04     		.2byte	0x43f
 2731 0a7f C3040000 		.4byte	0x4c3
 2732 0a83 B5040000 		.4byte	.LLST26
 2733 0a87 00       		.byte	0
 2734 0a88 1B       		.uleb128 0x1b
 2735 0a89 01       		.byte	0x1
 2736 0a8a 40000000 		.4byte	.LASF110
 2737 0a8e 01       		.byte	0x1
 2738 0a8f 6404     		.2byte	0x464
 2739 0a91 01       		.byte	0x1
 2740 0a92 00000000 		.4byte	.LFB135
 2741 0a96 14000000 		.4byte	.LFE135
 2742 0a9a 02       		.byte	0x2
 2743 0a9b 7D       		.byte	0x7d
 2744 0a9c 00       		.sleb128 0
 2745 0a9d 01       		.byte	0x1
 2746 0a9e CF0A0000 		.4byte	0xacf
 2747 0aa2 19       		.uleb128 0x19
 2748 0aa3 AA000000 		.4byte	.LASF70
 2749 0aa7 01       		.byte	0x1
 2750 0aa8 6404     		.2byte	0x464
 2751 0aaa C3040000 		.4byte	0x4c3
 2752 0aae 01       		.byte	0x1
 2753 0aaf 50       		.byte	0x50
 2754 0ab0 1C       		.uleb128 0x1c
 2755 0ab1 38030000 		.4byte	.LASF111
 2756 0ab5 01       		.byte	0x1
 2757 0ab6 6404     		.2byte	0x464
ARM GAS  C:\Users\TaisikHam\AppData\Local\Temp\ccNzzKEh.s 			page 50


 2758 0ab8 49000000 		.4byte	0x49
 2759 0abc D6040000 		.4byte	.LLST27
 2760 0ac0 19       		.uleb128 0x19
 2761 0ac1 89020000 		.4byte	.LASF83
 2762 0ac5 01       		.byte	0x1
 2763 0ac6 6404     		.2byte	0x464
 2764 0ac8 F0000000 		.4byte	0xf0
 2765 0acc 01       		.byte	0x1
 2766 0acd 52       		.byte	0x52
 2767 0ace 00       		.byte	0
 2768 0acf 1B       		.uleb128 0x1b
 2769 0ad0 01       		.byte	0x1
 2770 0ad1 C1020000 		.4byte	.LASF112
 2771 0ad5 01       		.byte	0x1
 2772 0ad6 8B04     		.2byte	0x48b
 2773 0ad8 01       		.byte	0x1
 2774 0ad9 00000000 		.4byte	.LFB136
 2775 0add 16000000 		.4byte	.LFE136
 2776 0ae1 02       		.byte	0x2
 2777 0ae2 7D       		.byte	0x7d
 2778 0ae3 00       		.sleb128 0
 2779 0ae4 01       		.byte	0x1
 2780 0ae5 080B0000 		.4byte	0xb08
 2781 0ae9 19       		.uleb128 0x19
 2782 0aea AA000000 		.4byte	.LASF70
 2783 0aee 01       		.byte	0x1
 2784 0aef 8B04     		.2byte	0x48b
 2785 0af1 C3040000 		.4byte	0x4c3
 2786 0af5 01       		.byte	0x1
 2787 0af6 50       		.byte	0x50
 2788 0af7 1C       		.uleb128 0x1c
 2789 0af8 41060000 		.4byte	.LASF113
 2790 0afc 01       		.byte	0x1
 2791 0afd 8B04     		.2byte	0x48b
 2792 0aff 49000000 		.4byte	0x49
 2793 0b03 10050000 		.4byte	.LLST28
 2794 0b07 00       		.byte	0
 2795 0b08 1B       		.uleb128 0x1b
 2796 0b09 01       		.byte	0x1
 2797 0b0a 92020000 		.4byte	.LASF114
 2798 0b0e 01       		.byte	0x1
 2799 0b0f F004     		.2byte	0x4f0
 2800 0b11 01       		.byte	0x1
 2801 0b12 00000000 		.4byte	.LFB137
 2802 0b16 1E000000 		.4byte	.LFE137
 2803 0b1a 02       		.byte	0x2
 2804 0b1b 7D       		.byte	0x7d
 2805 0b1c 00       		.sleb128 0
 2806 0b1d 01       		.byte	0x1
 2807 0b1e 6F0B0000 		.4byte	0xb6f
 2808 0b22 19       		.uleb128 0x19
 2809 0b23 AA000000 		.4byte	.LASF70
 2810 0b27 01       		.byte	0x1
 2811 0b28 F004     		.2byte	0x4f0
 2812 0b2a C3040000 		.4byte	0x4c3
 2813 0b2e 01       		.byte	0x1
 2814 0b2f 50       		.byte	0x50
ARM GAS  C:\Users\TaisikHam\AppData\Local\Temp\ccNzzKEh.s 			page 51


 2815 0b30 1C       		.uleb128 0x1c
 2816 0b31 39050000 		.4byte	.LASF115
 2817 0b35 01       		.byte	0x1
 2818 0b36 F004     		.2byte	0x4f0
 2819 0b38 30000000 		.4byte	0x30
 2820 0b3c 31050000 		.4byte	.LLST29
 2821 0b40 19       		.uleb128 0x19
 2822 0b41 89020000 		.4byte	.LASF83
 2823 0b45 01       		.byte	0x1
 2824 0b46 F004     		.2byte	0x4f0
 2825 0b48 F0000000 		.4byte	0xf0
 2826 0b4c 01       		.byte	0x1
 2827 0b4d 52       		.byte	0x52
 2828 0b4e 1A       		.uleb128 0x1a
 2829 0b4f D8000000 		.4byte	.LASF116
 2830 0b53 01       		.byte	0x1
 2831 0b54 F204     		.2byte	0x4f2
 2832 0b56 49000000 		.4byte	0x49
 2833 0b5a 52050000 		.4byte	.LLST30
 2834 0b5e 1A       		.uleb128 0x1a
 2835 0b5f 51040000 		.4byte	.LASF117
 2836 0b63 01       		.byte	0x1
 2837 0b64 F204     		.2byte	0x4f2
 2838 0b66 49000000 		.4byte	0x49
 2839 0b6a 7F050000 		.4byte	.LLST31
 2840 0b6e 00       		.byte	0
 2841 0b6f 20       		.uleb128 0x20
 2842 0b70 01       		.byte	0x1
 2843 0b71 AC030000 		.4byte	.LASF118
 2844 0b75 01       		.byte	0x1
 2845 0b76 1605     		.2byte	0x516
 2846 0b78 01       		.byte	0x1
 2847 0b79 49000000 		.4byte	0x49
 2848 0b7d 00000000 		.4byte	.LFB138
 2849 0b81 08000000 		.4byte	.LFE138
 2850 0b85 02       		.byte	0x2
 2851 0b86 7D       		.byte	0x7d
 2852 0b87 00       		.sleb128 0
 2853 0b88 01       		.byte	0x1
 2854 0b89 9E0B0000 		.4byte	0xb9e
 2855 0b8d 1C       		.uleb128 0x1c
 2856 0b8e AA000000 		.4byte	.LASF70
 2857 0b92 01       		.byte	0x1
 2858 0b93 1605     		.2byte	0x516
 2859 0b95 C3040000 		.4byte	0x4c3
 2860 0b99 A9050000 		.4byte	.LLST32
 2861 0b9d 00       		.byte	0
 2862 0b9e 20       		.uleb128 0x20
 2863 0b9f 01       		.byte	0x1
 2864 0ba0 C7050000 		.4byte	.LASF119
 2865 0ba4 01       		.byte	0x1
 2866 0ba5 2505     		.2byte	0x525
 2867 0ba7 01       		.byte	0x1
 2868 0ba8 49000000 		.4byte	0x49
 2869 0bac 00000000 		.4byte	.LFB139
 2870 0bb0 08000000 		.4byte	.LFE139
 2871 0bb4 02       		.byte	0x2
ARM GAS  C:\Users\TaisikHam\AppData\Local\Temp\ccNzzKEh.s 			page 52


 2872 0bb5 7D       		.byte	0x7d
 2873 0bb6 00       		.sleb128 0
 2874 0bb7 01       		.byte	0x1
 2875 0bb8 CD0B0000 		.4byte	0xbcd
 2876 0bbc 1C       		.uleb128 0x1c
 2877 0bbd AA000000 		.4byte	.LASF70
 2878 0bc1 01       		.byte	0x1
 2879 0bc2 2505     		.2byte	0x525
 2880 0bc4 C3040000 		.4byte	0x4c3
 2881 0bc8 CA050000 		.4byte	.LLST33
 2882 0bcc 00       		.byte	0
 2883 0bcd 20       		.uleb128 0x20
 2884 0bce 01       		.byte	0x1
 2885 0bcf 47030000 		.4byte	.LASF120
 2886 0bd3 01       		.byte	0x1
 2887 0bd4 3C05     		.2byte	0x53c
 2888 0bd6 01       		.byte	0x1
 2889 0bd7 C2000000 		.4byte	0xc2
 2890 0bdb 00000000 		.4byte	.LFB140
 2891 0bdf 0C000000 		.4byte	.LFE140
 2892 0be3 02       		.byte	0x2
 2893 0be4 7D       		.byte	0x7d
 2894 0be5 00       		.sleb128 0
 2895 0be6 01       		.byte	0x1
 2896 0be7 1A0C0000 		.4byte	0xc1a
 2897 0beb 1C       		.uleb128 0x1c
 2898 0bec AA000000 		.4byte	.LASF70
 2899 0bf0 01       		.byte	0x1
 2900 0bf1 3C05     		.2byte	0x53c
 2901 0bf3 C3040000 		.4byte	0x4c3
 2902 0bf7 EB050000 		.4byte	.LLST34
 2903 0bfb 19       		.uleb128 0x19
 2904 0bfc F2050000 		.4byte	.LASF121
 2905 0c00 01       		.byte	0x1
 2906 0c01 3C05     		.2byte	0x53c
 2907 0c03 49000000 		.4byte	0x49
 2908 0c07 01       		.byte	0x1
 2909 0c08 51       		.byte	0x51
 2910 0c09 1A       		.uleb128 0x1a
 2911 0c0a 40070000 		.4byte	.LASF122
 2912 0c0e 01       		.byte	0x1
 2913 0c0f 3E05     		.2byte	0x53e
 2914 0c11 C2000000 		.4byte	0xc2
 2915 0c15 0C060000 		.4byte	.LLST35
 2916 0c19 00       		.byte	0
 2917 0c1a 1B       		.uleb128 0x1b
 2918 0c1b 01       		.byte	0x1
 2919 0c1c FE030000 		.4byte	.LASF123
 2920 0c20 01       		.byte	0x1
 2921 0c21 6205     		.2byte	0x562
 2922 0c23 01       		.byte	0x1
 2923 0c24 00000000 		.4byte	.LFB141
 2924 0c28 08000000 		.4byte	.LFE141
 2925 0c2c 02       		.byte	0x2
 2926 0c2d 7D       		.byte	0x7d
 2927 0c2e 00       		.sleb128 0
 2928 0c2f 01       		.byte	0x1
ARM GAS  C:\Users\TaisikHam\AppData\Local\Temp\ccNzzKEh.s 			page 53


 2929 0c30 530C0000 		.4byte	0xc53
 2930 0c34 19       		.uleb128 0x19
 2931 0c35 AA000000 		.4byte	.LASF70
 2932 0c39 01       		.byte	0x1
 2933 0c3a 6205     		.2byte	0x562
 2934 0c3c C3040000 		.4byte	0x4c3
 2935 0c40 01       		.byte	0x1
 2936 0c41 50       		.byte	0x50
 2937 0c42 1C       		.uleb128 0x1c
 2938 0c43 F2050000 		.4byte	.LASF121
 2939 0c47 01       		.byte	0x1
 2940 0c48 6205     		.2byte	0x562
 2941 0c4a 49000000 		.4byte	0x49
 2942 0c4e 34060000 		.4byte	.LLST36
 2943 0c52 00       		.byte	0
 2944 0c53 21       		.uleb128 0x21
 2945 0c54 01       		.byte	0x1
 2946 0c55 F5010000 		.4byte	.LASF124
 2947 0c59 01       		.byte	0x1
 2948 0c5a 7C05     		.2byte	0x57c
 2949 0c5c 01       		.byte	0x1
 2950 0c5d CE000000 		.4byte	0xce
 2951 0c61 00000000 		.4byte	.LFB142
 2952 0c65 2A000000 		.4byte	.LFE142
 2953 0c69 55060000 		.4byte	.LLST37
 2954 0c6d 01       		.byte	0x1
 2955 0c6e CF0C0000 		.4byte	0xccf
 2956 0c72 1C       		.uleb128 0x1c
 2957 0c73 AA000000 		.4byte	.LASF70
 2958 0c77 01       		.byte	0x1
 2959 0c78 7C05     		.2byte	0x57c
 2960 0c7a C3040000 		.4byte	0x4c3
 2961 0c7e 75060000 		.4byte	.LLST38
 2962 0c82 1C       		.uleb128 0x1c
 2963 0c83 39050000 		.4byte	.LASF115
 2964 0c87 01       		.byte	0x1
 2965 0c88 7C05     		.2byte	0x57c
 2966 0c8a 30000000 		.4byte	0x30
 2967 0c8e 96060000 		.4byte	.LLST39
 2968 0c92 1A       		.uleb128 0x1a
 2969 0c93 40070000 		.4byte	.LASF122
 2970 0c97 01       		.byte	0x1
 2971 0c98 7E05     		.2byte	0x57e
 2972 0c9a CE000000 		.4byte	0xce
 2973 0c9e B7060000 		.4byte	.LLST40
 2974 0ca2 22       		.uleb128 0x22
 2975 0ca3 D8000000 		.4byte	.LASF116
 2976 0ca7 01       		.byte	0x1
 2977 0ca8 7F05     		.2byte	0x57f
 2978 0caa 49000000 		.4byte	0x49
 2979 0cae 1A       		.uleb128 0x1a
 2980 0caf 51040000 		.4byte	.LASF117
 2981 0cb3 01       		.byte	0x1
 2982 0cb4 7F05     		.2byte	0x57f
 2983 0cb6 49000000 		.4byte	0x49
 2984 0cba D6060000 		.4byte	.LLST41
 2985 0cbe 1A       		.uleb128 0x1a
ARM GAS  C:\Users\TaisikHam\AppData\Local\Temp\ccNzzKEh.s 			page 54


 2986 0cbf 41010000 		.4byte	.LASF125
 2987 0cc3 01       		.byte	0x1
 2988 0cc4 7F05     		.2byte	0x57f
 2989 0cc6 49000000 		.4byte	0x49
 2990 0cca F2060000 		.4byte	.LLST42
 2991 0cce 00       		.byte	0
 2992 0ccf 23       		.uleb128 0x23
 2993 0cd0 78050000 		.4byte	.LASF132
 2994 0cd4 06       		.byte	0x6
 2995 0cd5 9806     		.2byte	0x698
 2996 0cd7 A7000000 		.4byte	0xa7
 2997 0cdb 01       		.byte	0x1
 2998 0cdc 01       		.byte	0x1
 2999 0cdd 24       		.uleb128 0x24
 3000 0cde 01       		.byte	0x1
 3001 0cdf 7C060000 		.4byte	.LASF126
 3002 0ce3 05       		.byte	0x5
 3003 0ce4 5F02     		.2byte	0x25f
 3004 0ce6 01       		.byte	0x1
 3005 0ce7 01       		.byte	0x1
 3006 0ce8 F70C0000 		.4byte	0xcf7
 3007 0cec 25       		.uleb128 0x25
 3008 0ced 6D000000 		.4byte	0x6d
 3009 0cf1 25       		.uleb128 0x25
 3010 0cf2 F0000000 		.4byte	0xf0
 3011 0cf6 00       		.byte	0
 3012 0cf7 24       		.uleb128 0x24
 3013 0cf8 01       		.byte	0x1
 3014 0cf9 26040000 		.4byte	.LASF127
 3015 0cfd 05       		.byte	0x5
 3016 0cfe 5E02     		.2byte	0x25e
 3017 0d00 01       		.byte	0x1
 3018 0d01 01       		.byte	0x1
 3019 0d02 110D0000 		.4byte	0xd11
 3020 0d06 25       		.uleb128 0x25
 3021 0d07 6D000000 		.4byte	0x6d
 3022 0d0b 25       		.uleb128 0x25
 3023 0d0c F0000000 		.4byte	0xf0
 3024 0d10 00       		.byte	0
 3025 0d11 24       		.uleb128 0x24
 3026 0d12 01       		.byte	0x1
 3027 0d13 74030000 		.4byte	.LASF128
 3028 0d17 05       		.byte	0x5
 3029 0d18 4B02     		.2byte	0x24b
 3030 0d1a 01       		.byte	0x1
 3031 0d1b 01       		.byte	0x1
 3032 0d1c 260D0000 		.4byte	0xd26
 3033 0d20 25       		.uleb128 0x25
 3034 0d21 260D0000 		.4byte	0xd26
 3035 0d25 00       		.byte	0
 3036 0d26 15       		.uleb128 0x15
 3037 0d27 04       		.byte	0x4
 3038 0d28 F3030000 		.4byte	0x3f3
 3039 0d2c 00       		.byte	0
 3040              		.section	.debug_abbrev,"",%progbits
 3041              	.Ldebug_abbrev0:
 3042 0000 01       		.uleb128 0x1
ARM GAS  C:\Users\TaisikHam\AppData\Local\Temp\ccNzzKEh.s 			page 55


 3043 0001 11       		.uleb128 0x11
 3044 0002 01       		.byte	0x1
 3045 0003 25       		.uleb128 0x25
 3046 0004 0E       		.uleb128 0xe
 3047 0005 13       		.uleb128 0x13
 3048 0006 0B       		.uleb128 0xb
 3049 0007 03       		.uleb128 0x3
 3050 0008 0E       		.uleb128 0xe
 3051 0009 1B       		.uleb128 0x1b
 3052 000a 0E       		.uleb128 0xe
 3053 000b 55       		.uleb128 0x55
 3054 000c 06       		.uleb128 0x6
 3055 000d 11       		.uleb128 0x11
 3056 000e 01       		.uleb128 0x1
 3057 000f 52       		.uleb128 0x52
 3058 0010 01       		.uleb128 0x1
 3059 0011 10       		.uleb128 0x10
 3060 0012 06       		.uleb128 0x6
 3061 0013 00       		.byte	0
 3062 0014 00       		.byte	0
 3063 0015 02       		.uleb128 0x2
 3064 0016 24       		.uleb128 0x24
 3065 0017 00       		.byte	0
 3066 0018 0B       		.uleb128 0xb
 3067 0019 0B       		.uleb128 0xb
 3068 001a 3E       		.uleb128 0x3e
 3069 001b 0B       		.uleb128 0xb
 3070 001c 03       		.uleb128 0x3
 3071 001d 0E       		.uleb128 0xe
 3072 001e 00       		.byte	0
 3073 001f 00       		.byte	0
 3074 0020 03       		.uleb128 0x3
 3075 0021 16       		.uleb128 0x16
 3076 0022 00       		.byte	0
 3077 0023 03       		.uleb128 0x3
 3078 0024 0E       		.uleb128 0xe
 3079 0025 3A       		.uleb128 0x3a
 3080 0026 0B       		.uleb128 0xb
 3081 0027 3B       		.uleb128 0x3b
 3082 0028 0B       		.uleb128 0xb
 3083 0029 49       		.uleb128 0x49
 3084 002a 13       		.uleb128 0x13
 3085 002b 00       		.byte	0
 3086 002c 00       		.byte	0
 3087 002d 04       		.uleb128 0x4
 3088 002e 24       		.uleb128 0x24
 3089 002f 00       		.byte	0
 3090 0030 0B       		.uleb128 0xb
 3091 0031 0B       		.uleb128 0xb
 3092 0032 3E       		.uleb128 0x3e
 3093 0033 0B       		.uleb128 0xb
 3094 0034 03       		.uleb128 0x3
 3095 0035 08       		.uleb128 0x8
 3096 0036 00       		.byte	0
 3097 0037 00       		.byte	0
 3098 0038 05       		.uleb128 0x5
 3099 0039 35       		.uleb128 0x35
ARM GAS  C:\Users\TaisikHam\AppData\Local\Temp\ccNzzKEh.s 			page 56


 3100 003a 00       		.byte	0
 3101 003b 49       		.uleb128 0x49
 3102 003c 13       		.uleb128 0x13
 3103 003d 00       		.byte	0
 3104 003e 00       		.byte	0
 3105 003f 06       		.uleb128 0x6
 3106 0040 04       		.uleb128 0x4
 3107 0041 01       		.byte	0x1
 3108 0042 0B       		.uleb128 0xb
 3109 0043 0B       		.uleb128 0xb
 3110 0044 3A       		.uleb128 0x3a
 3111 0045 0B       		.uleb128 0xb
 3112 0046 3B       		.uleb128 0x3b
 3113 0047 05       		.uleb128 0x5
 3114 0048 01       		.uleb128 0x1
 3115 0049 13       		.uleb128 0x13
 3116 004a 00       		.byte	0
 3117 004b 00       		.byte	0
 3118 004c 07       		.uleb128 0x7
 3119 004d 28       		.uleb128 0x28
 3120 004e 00       		.byte	0
 3121 004f 03       		.uleb128 0x3
 3122 0050 0E       		.uleb128 0xe
 3123 0051 1C       		.uleb128 0x1c
 3124 0052 0D       		.uleb128 0xd
 3125 0053 00       		.byte	0
 3126 0054 00       		.byte	0
 3127 0055 08       		.uleb128 0x8
 3128 0056 28       		.uleb128 0x28
 3129 0057 00       		.byte	0
 3130 0058 03       		.uleb128 0x3
 3131 0059 08       		.uleb128 0x8
 3132 005a 1C       		.uleb128 0x1c
 3133 005b 0D       		.uleb128 0xd
 3134 005c 00       		.byte	0
 3135 005d 00       		.byte	0
 3136 005e 09       		.uleb128 0x9
 3137 005f 16       		.uleb128 0x16
 3138 0060 00       		.byte	0
 3139 0061 03       		.uleb128 0x3
 3140 0062 0E       		.uleb128 0xe
 3141 0063 3A       		.uleb128 0x3a
 3142 0064 0B       		.uleb128 0xb
 3143 0065 3B       		.uleb128 0x3b
 3144 0066 05       		.uleb128 0x5
 3145 0067 49       		.uleb128 0x49
 3146 0068 13       		.uleb128 0x13
 3147 0069 00       		.byte	0
 3148 006a 00       		.byte	0
 3149 006b 0A       		.uleb128 0xa
 3150 006c 13       		.uleb128 0x13
 3151 006d 01       		.byte	0x1
 3152 006e 0B       		.uleb128 0xb
 3153 006f 0B       		.uleb128 0xb
 3154 0070 3A       		.uleb128 0x3a
 3155 0071 0B       		.uleb128 0xb
 3156 0072 3B       		.uleb128 0x3b
ARM GAS  C:\Users\TaisikHam\AppData\Local\Temp\ccNzzKEh.s 			page 57


 3157 0073 05       		.uleb128 0x5
 3158 0074 01       		.uleb128 0x1
 3159 0075 13       		.uleb128 0x13
 3160 0076 00       		.byte	0
 3161 0077 00       		.byte	0
 3162 0078 0B       		.uleb128 0xb
 3163 0079 0D       		.uleb128 0xd
 3164 007a 00       		.byte	0
 3165 007b 03       		.uleb128 0x3
 3166 007c 08       		.uleb128 0x8
 3167 007d 3A       		.uleb128 0x3a
 3168 007e 0B       		.uleb128 0xb
 3169 007f 3B       		.uleb128 0x3b
 3170 0080 05       		.uleb128 0x5
 3171 0081 49       		.uleb128 0x49
 3172 0082 13       		.uleb128 0x13
 3173 0083 38       		.uleb128 0x38
 3174 0084 0A       		.uleb128 0xa
 3175 0085 00       		.byte	0
 3176 0086 00       		.byte	0
 3177 0087 0C       		.uleb128 0xc
 3178 0088 0D       		.uleb128 0xd
 3179 0089 00       		.byte	0
 3180 008a 03       		.uleb128 0x3
 3181 008b 0E       		.uleb128 0xe
 3182 008c 3A       		.uleb128 0x3a
 3183 008d 0B       		.uleb128 0xb
 3184 008e 3B       		.uleb128 0x3b
 3185 008f 05       		.uleb128 0x5
 3186 0090 49       		.uleb128 0x49
 3187 0091 13       		.uleb128 0x13
 3188 0092 38       		.uleb128 0x38
 3189 0093 0A       		.uleb128 0xa
 3190 0094 00       		.byte	0
 3191 0095 00       		.byte	0
 3192 0096 0D       		.uleb128 0xd
 3193 0097 13       		.uleb128 0x13
 3194 0098 01       		.byte	0x1
 3195 0099 0B       		.uleb128 0xb
 3196 009a 0B       		.uleb128 0xb
 3197 009b 3A       		.uleb128 0x3a
 3198 009c 0B       		.uleb128 0xb
 3199 009d 3B       		.uleb128 0x3b
 3200 009e 0B       		.uleb128 0xb
 3201 009f 01       		.uleb128 0x1
 3202 00a0 13       		.uleb128 0x13
 3203 00a1 00       		.byte	0
 3204 00a2 00       		.byte	0
 3205 00a3 0E       		.uleb128 0xe
 3206 00a4 0D       		.uleb128 0xd
 3207 00a5 00       		.byte	0
 3208 00a6 03       		.uleb128 0x3
 3209 00a7 0E       		.uleb128 0xe
 3210 00a8 3A       		.uleb128 0x3a
 3211 00a9 0B       		.uleb128 0xb
 3212 00aa 3B       		.uleb128 0x3b
 3213 00ab 0B       		.uleb128 0xb
ARM GAS  C:\Users\TaisikHam\AppData\Local\Temp\ccNzzKEh.s 			page 58


 3214 00ac 49       		.uleb128 0x49
 3215 00ad 13       		.uleb128 0x13
 3216 00ae 38       		.uleb128 0x38
 3217 00af 0A       		.uleb128 0xa
 3218 00b0 00       		.byte	0
 3219 00b1 00       		.byte	0
 3220 00b2 0F       		.uleb128 0xf
 3221 00b3 2E       		.uleb128 0x2e
 3222 00b4 01       		.byte	0x1
 3223 00b5 3F       		.uleb128 0x3f
 3224 00b6 0C       		.uleb128 0xc
 3225 00b7 03       		.uleb128 0x3
 3226 00b8 0E       		.uleb128 0xe
 3227 00b9 3A       		.uleb128 0x3a
 3228 00ba 0B       		.uleb128 0xb
 3229 00bb 3B       		.uleb128 0x3b
 3230 00bc 0B       		.uleb128 0xb
 3231 00bd 27       		.uleb128 0x27
 3232 00be 0C       		.uleb128 0xc
 3233 00bf 11       		.uleb128 0x11
 3234 00c0 01       		.uleb128 0x1
 3235 00c1 12       		.uleb128 0x12
 3236 00c2 01       		.uleb128 0x1
 3237 00c3 40       		.uleb128 0x40
 3238 00c4 06       		.uleb128 0x6
 3239 00c5 9742     		.uleb128 0x2117
 3240 00c7 0C       		.uleb128 0xc
 3241 00c8 01       		.uleb128 0x1
 3242 00c9 13       		.uleb128 0x13
 3243 00ca 00       		.byte	0
 3244 00cb 00       		.byte	0
 3245 00cc 10       		.uleb128 0x10
 3246 00cd 05       		.uleb128 0x5
 3247 00ce 00       		.byte	0
 3248 00cf 03       		.uleb128 0x3
 3249 00d0 0E       		.uleb128 0xe
 3250 00d1 3A       		.uleb128 0x3a
 3251 00d2 0B       		.uleb128 0xb
 3252 00d3 3B       		.uleb128 0x3b
 3253 00d4 0B       		.uleb128 0xb
 3254 00d5 49       		.uleb128 0x49
 3255 00d6 13       		.uleb128 0x13
 3256 00d7 02       		.uleb128 0x2
 3257 00d8 06       		.uleb128 0x6
 3258 00d9 00       		.byte	0
 3259 00da 00       		.byte	0
 3260 00db 11       		.uleb128 0x11
 3261 00dc 898201   		.uleb128 0x4109
 3262 00df 01       		.byte	0x1
 3263 00e0 11       		.uleb128 0x11
 3264 00e1 01       		.uleb128 0x1
 3265 00e2 31       		.uleb128 0x31
 3266 00e3 13       		.uleb128 0x13
 3267 00e4 01       		.uleb128 0x1
 3268 00e5 13       		.uleb128 0x13
 3269 00e6 00       		.byte	0
 3270 00e7 00       		.byte	0
ARM GAS  C:\Users\TaisikHam\AppData\Local\Temp\ccNzzKEh.s 			page 59


 3271 00e8 12       		.uleb128 0x12
 3272 00e9 8A8201   		.uleb128 0x410a
 3273 00ec 00       		.byte	0
 3274 00ed 02       		.uleb128 0x2
 3275 00ee 0A       		.uleb128 0xa
 3276 00ef 9142     		.uleb128 0x2111
 3277 00f1 0A       		.uleb128 0xa
 3278 00f2 00       		.byte	0
 3279 00f3 00       		.byte	0
 3280 00f4 13       		.uleb128 0x13
 3281 00f5 898201   		.uleb128 0x4109
 3282 00f8 01       		.byte	0x1
 3283 00f9 11       		.uleb128 0x11
 3284 00fa 01       		.uleb128 0x1
 3285 00fb 9542     		.uleb128 0x2115
 3286 00fd 0C       		.uleb128 0xc
 3287 00fe 31       		.uleb128 0x31
 3288 00ff 13       		.uleb128 0x13
 3289 0100 01       		.uleb128 0x1
 3290 0101 13       		.uleb128 0x13
 3291 0102 00       		.byte	0
 3292 0103 00       		.byte	0
 3293 0104 14       		.uleb128 0x14
 3294 0105 898201   		.uleb128 0x4109
 3295 0108 01       		.byte	0x1
 3296 0109 11       		.uleb128 0x11
 3297 010a 01       		.uleb128 0x1
 3298 010b 9542     		.uleb128 0x2115
 3299 010d 0C       		.uleb128 0xc
 3300 010e 31       		.uleb128 0x31
 3301 010f 13       		.uleb128 0x13
 3302 0110 00       		.byte	0
 3303 0111 00       		.byte	0
 3304 0112 15       		.uleb128 0x15
 3305 0113 0F       		.uleb128 0xf
 3306 0114 00       		.byte	0
 3307 0115 0B       		.uleb128 0xb
 3308 0116 0B       		.uleb128 0xb
 3309 0117 49       		.uleb128 0x49
 3310 0118 13       		.uleb128 0x13
 3311 0119 00       		.byte	0
 3312 011a 00       		.byte	0
 3313 011b 16       		.uleb128 0x16
 3314 011c 2E       		.uleb128 0x2e
 3315 011d 01       		.byte	0x1
 3316 011e 3F       		.uleb128 0x3f
 3317 011f 0C       		.uleb128 0xc
 3318 0120 03       		.uleb128 0x3
 3319 0121 0E       		.uleb128 0xe
 3320 0122 3A       		.uleb128 0x3a
 3321 0123 0B       		.uleb128 0xb
 3322 0124 3B       		.uleb128 0x3b
 3323 0125 0B       		.uleb128 0xb
 3324 0126 27       		.uleb128 0x27
 3325 0127 0C       		.uleb128 0xc
 3326 0128 11       		.uleb128 0x11
 3327 0129 01       		.uleb128 0x1
ARM GAS  C:\Users\TaisikHam\AppData\Local\Temp\ccNzzKEh.s 			page 60


 3328 012a 12       		.uleb128 0x12
 3329 012b 01       		.uleb128 0x1
 3330 012c 40       		.uleb128 0x40
 3331 012d 0A       		.uleb128 0xa
 3332 012e 9742     		.uleb128 0x2117
 3333 0130 0C       		.uleb128 0xc
 3334 0131 01       		.uleb128 0x1
 3335 0132 13       		.uleb128 0x13
 3336 0133 00       		.byte	0
 3337 0134 00       		.byte	0
 3338 0135 17       		.uleb128 0x17
 3339 0136 05       		.uleb128 0x5
 3340 0137 00       		.byte	0
 3341 0138 03       		.uleb128 0x3
 3342 0139 0E       		.uleb128 0xe
 3343 013a 3A       		.uleb128 0x3a
 3344 013b 0B       		.uleb128 0xb
 3345 013c 3B       		.uleb128 0x3b
 3346 013d 0B       		.uleb128 0xb
 3347 013e 49       		.uleb128 0x49
 3348 013f 13       		.uleb128 0x13
 3349 0140 02       		.uleb128 0x2
 3350 0141 0A       		.uleb128 0xa
 3351 0142 00       		.byte	0
 3352 0143 00       		.byte	0
 3353 0144 18       		.uleb128 0x18
 3354 0145 2E       		.uleb128 0x2e
 3355 0146 01       		.byte	0x1
 3356 0147 3F       		.uleb128 0x3f
 3357 0148 0C       		.uleb128 0xc
 3358 0149 03       		.uleb128 0x3
 3359 014a 0E       		.uleb128 0xe
 3360 014b 3A       		.uleb128 0x3a
 3361 014c 0B       		.uleb128 0xb
 3362 014d 3B       		.uleb128 0x3b
 3363 014e 05       		.uleb128 0x5
 3364 014f 27       		.uleb128 0x27
 3365 0150 0C       		.uleb128 0xc
 3366 0151 11       		.uleb128 0x11
 3367 0152 01       		.uleb128 0x1
 3368 0153 12       		.uleb128 0x12
 3369 0154 01       		.uleb128 0x1
 3370 0155 40       		.uleb128 0x40
 3371 0156 06       		.uleb128 0x6
 3372 0157 9742     		.uleb128 0x2117
 3373 0159 0C       		.uleb128 0xc
 3374 015a 01       		.uleb128 0x1
 3375 015b 13       		.uleb128 0x13
 3376 015c 00       		.byte	0
 3377 015d 00       		.byte	0
 3378 015e 19       		.uleb128 0x19
 3379 015f 05       		.uleb128 0x5
 3380 0160 00       		.byte	0
 3381 0161 03       		.uleb128 0x3
 3382 0162 0E       		.uleb128 0xe
 3383 0163 3A       		.uleb128 0x3a
 3384 0164 0B       		.uleb128 0xb
ARM GAS  C:\Users\TaisikHam\AppData\Local\Temp\ccNzzKEh.s 			page 61


 3385 0165 3B       		.uleb128 0x3b
 3386 0166 05       		.uleb128 0x5
 3387 0167 49       		.uleb128 0x49
 3388 0168 13       		.uleb128 0x13
 3389 0169 02       		.uleb128 0x2
 3390 016a 0A       		.uleb128 0xa
 3391 016b 00       		.byte	0
 3392 016c 00       		.byte	0
 3393 016d 1A       		.uleb128 0x1a
 3394 016e 34       		.uleb128 0x34
 3395 016f 00       		.byte	0
 3396 0170 03       		.uleb128 0x3
 3397 0171 0E       		.uleb128 0xe
 3398 0172 3A       		.uleb128 0x3a
 3399 0173 0B       		.uleb128 0xb
 3400 0174 3B       		.uleb128 0x3b
 3401 0175 05       		.uleb128 0x5
 3402 0176 49       		.uleb128 0x49
 3403 0177 13       		.uleb128 0x13
 3404 0178 02       		.uleb128 0x2
 3405 0179 06       		.uleb128 0x6
 3406 017a 00       		.byte	0
 3407 017b 00       		.byte	0
 3408 017c 1B       		.uleb128 0x1b
 3409 017d 2E       		.uleb128 0x2e
 3410 017e 01       		.byte	0x1
 3411 017f 3F       		.uleb128 0x3f
 3412 0180 0C       		.uleb128 0xc
 3413 0181 03       		.uleb128 0x3
 3414 0182 0E       		.uleb128 0xe
 3415 0183 3A       		.uleb128 0x3a
 3416 0184 0B       		.uleb128 0xb
 3417 0185 3B       		.uleb128 0x3b
 3418 0186 05       		.uleb128 0x5
 3419 0187 27       		.uleb128 0x27
 3420 0188 0C       		.uleb128 0xc
 3421 0189 11       		.uleb128 0x11
 3422 018a 01       		.uleb128 0x1
 3423 018b 12       		.uleb128 0x12
 3424 018c 01       		.uleb128 0x1
 3425 018d 40       		.uleb128 0x40
 3426 018e 0A       		.uleb128 0xa
 3427 018f 9742     		.uleb128 0x2117
 3428 0191 0C       		.uleb128 0xc
 3429 0192 01       		.uleb128 0x1
 3430 0193 13       		.uleb128 0x13
 3431 0194 00       		.byte	0
 3432 0195 00       		.byte	0
 3433 0196 1C       		.uleb128 0x1c
 3434 0197 05       		.uleb128 0x5
 3435 0198 00       		.byte	0
 3436 0199 03       		.uleb128 0x3
 3437 019a 0E       		.uleb128 0xe
 3438 019b 3A       		.uleb128 0x3a
 3439 019c 0B       		.uleb128 0xb
 3440 019d 3B       		.uleb128 0x3b
 3441 019e 05       		.uleb128 0x5
ARM GAS  C:\Users\TaisikHam\AppData\Local\Temp\ccNzzKEh.s 			page 62


 3442 019f 49       		.uleb128 0x49
 3443 01a0 13       		.uleb128 0x13
 3444 01a1 02       		.uleb128 0x2
 3445 01a2 06       		.uleb128 0x6
 3446 01a3 00       		.byte	0
 3447 01a4 00       		.byte	0
 3448 01a5 1D       		.uleb128 0x1d
 3449 01a6 34       		.uleb128 0x34
 3450 01a7 00       		.byte	0
 3451 01a8 03       		.uleb128 0x3
 3452 01a9 08       		.uleb128 0x8
 3453 01aa 3A       		.uleb128 0x3a
 3454 01ab 0B       		.uleb128 0xb
 3455 01ac 3B       		.uleb128 0x3b
 3456 01ad 05       		.uleb128 0x5
 3457 01ae 49       		.uleb128 0x49
 3458 01af 13       		.uleb128 0x13
 3459 01b0 02       		.uleb128 0x2
 3460 01b1 06       		.uleb128 0x6
 3461 01b2 00       		.byte	0
 3462 01b3 00       		.byte	0
 3463 01b4 1E       		.uleb128 0x1e
 3464 01b5 34       		.uleb128 0x34
 3465 01b6 00       		.byte	0
 3466 01b7 03       		.uleb128 0x3
 3467 01b8 0E       		.uleb128 0xe
 3468 01b9 3A       		.uleb128 0x3a
 3469 01ba 0B       		.uleb128 0xb
 3470 01bb 3B       		.uleb128 0x3b
 3471 01bc 05       		.uleb128 0x5
 3472 01bd 49       		.uleb128 0x49
 3473 01be 13       		.uleb128 0x13
 3474 01bf 02       		.uleb128 0x2
 3475 01c0 0A       		.uleb128 0xa
 3476 01c1 00       		.byte	0
 3477 01c2 00       		.byte	0
 3478 01c3 1F       		.uleb128 0x1f
 3479 01c4 898201   		.uleb128 0x4109
 3480 01c7 01       		.byte	0x1
 3481 01c8 11       		.uleb128 0x11
 3482 01c9 01       		.uleb128 0x1
 3483 01ca 31       		.uleb128 0x31
 3484 01cb 13       		.uleb128 0x13
 3485 01cc 00       		.byte	0
 3486 01cd 00       		.byte	0
 3487 01ce 20       		.uleb128 0x20
 3488 01cf 2E       		.uleb128 0x2e
 3489 01d0 01       		.byte	0x1
 3490 01d1 3F       		.uleb128 0x3f
 3491 01d2 0C       		.uleb128 0xc
 3492 01d3 03       		.uleb128 0x3
 3493 01d4 0E       		.uleb128 0xe
 3494 01d5 3A       		.uleb128 0x3a
 3495 01d6 0B       		.uleb128 0xb
 3496 01d7 3B       		.uleb128 0x3b
 3497 01d8 05       		.uleb128 0x5
 3498 01d9 27       		.uleb128 0x27
ARM GAS  C:\Users\TaisikHam\AppData\Local\Temp\ccNzzKEh.s 			page 63


 3499 01da 0C       		.uleb128 0xc
 3500 01db 49       		.uleb128 0x49
 3501 01dc 13       		.uleb128 0x13
 3502 01dd 11       		.uleb128 0x11
 3503 01de 01       		.uleb128 0x1
 3504 01df 12       		.uleb128 0x12
 3505 01e0 01       		.uleb128 0x1
 3506 01e1 40       		.uleb128 0x40
 3507 01e2 0A       		.uleb128 0xa
 3508 01e3 9742     		.uleb128 0x2117
 3509 01e5 0C       		.uleb128 0xc
 3510 01e6 01       		.uleb128 0x1
 3511 01e7 13       		.uleb128 0x13
 3512 01e8 00       		.byte	0
 3513 01e9 00       		.byte	0
 3514 01ea 21       		.uleb128 0x21
 3515 01eb 2E       		.uleb128 0x2e
 3516 01ec 01       		.byte	0x1
 3517 01ed 3F       		.uleb128 0x3f
 3518 01ee 0C       		.uleb128 0xc
 3519 01ef 03       		.uleb128 0x3
 3520 01f0 0E       		.uleb128 0xe
 3521 01f1 3A       		.uleb128 0x3a
 3522 01f2 0B       		.uleb128 0xb
 3523 01f3 3B       		.uleb128 0x3b
 3524 01f4 05       		.uleb128 0x5
 3525 01f5 27       		.uleb128 0x27
 3526 01f6 0C       		.uleb128 0xc
 3527 01f7 49       		.uleb128 0x49
 3528 01f8 13       		.uleb128 0x13
 3529 01f9 11       		.uleb128 0x11
 3530 01fa 01       		.uleb128 0x1
 3531 01fb 12       		.uleb128 0x12
 3532 01fc 01       		.uleb128 0x1
 3533 01fd 40       		.uleb128 0x40
 3534 01fe 06       		.uleb128 0x6
 3535 01ff 9742     		.uleb128 0x2117
 3536 0201 0C       		.uleb128 0xc
 3537 0202 01       		.uleb128 0x1
 3538 0203 13       		.uleb128 0x13
 3539 0204 00       		.byte	0
 3540 0205 00       		.byte	0
 3541 0206 22       		.uleb128 0x22
 3542 0207 34       		.uleb128 0x34
 3543 0208 00       		.byte	0
 3544 0209 03       		.uleb128 0x3
 3545 020a 0E       		.uleb128 0xe
 3546 020b 3A       		.uleb128 0x3a
 3547 020c 0B       		.uleb128 0xb
 3548 020d 3B       		.uleb128 0x3b
 3549 020e 05       		.uleb128 0x5
 3550 020f 49       		.uleb128 0x49
 3551 0210 13       		.uleb128 0x13
 3552 0211 00       		.byte	0
 3553 0212 00       		.byte	0
 3554 0213 23       		.uleb128 0x23
 3555 0214 34       		.uleb128 0x34
ARM GAS  C:\Users\TaisikHam\AppData\Local\Temp\ccNzzKEh.s 			page 64


 3556 0215 00       		.byte	0
 3557 0216 03       		.uleb128 0x3
 3558 0217 0E       		.uleb128 0xe
 3559 0218 3A       		.uleb128 0x3a
 3560 0219 0B       		.uleb128 0xb
 3561 021a 3B       		.uleb128 0x3b
 3562 021b 05       		.uleb128 0x5
 3563 021c 49       		.uleb128 0x49
 3564 021d 13       		.uleb128 0x13
 3565 021e 3F       		.uleb128 0x3f
 3566 021f 0C       		.uleb128 0xc
 3567 0220 3C       		.uleb128 0x3c
 3568 0221 0C       		.uleb128 0xc
 3569 0222 00       		.byte	0
 3570 0223 00       		.byte	0
 3571 0224 24       		.uleb128 0x24
 3572 0225 2E       		.uleb128 0x2e
 3573 0226 01       		.byte	0x1
 3574 0227 3F       		.uleb128 0x3f
 3575 0228 0C       		.uleb128 0xc
 3576 0229 03       		.uleb128 0x3
 3577 022a 0E       		.uleb128 0xe
 3578 022b 3A       		.uleb128 0x3a
 3579 022c 0B       		.uleb128 0xb
 3580 022d 3B       		.uleb128 0x3b
 3581 022e 05       		.uleb128 0x5
 3582 022f 27       		.uleb128 0x27
 3583 0230 0C       		.uleb128 0xc
 3584 0231 3C       		.uleb128 0x3c
 3585 0232 0C       		.uleb128 0xc
 3586 0233 01       		.uleb128 0x1
 3587 0234 13       		.uleb128 0x13
 3588 0235 00       		.byte	0
 3589 0236 00       		.byte	0
 3590 0237 25       		.uleb128 0x25
 3591 0238 05       		.uleb128 0x5
 3592 0239 00       		.byte	0
 3593 023a 49       		.uleb128 0x49
 3594 023b 13       		.uleb128 0x13
 3595 023c 00       		.byte	0
 3596 023d 00       		.byte	0
 3597 023e 00       		.byte	0
 3598              		.section	.debug_loc,"",%progbits
 3599              	.Ldebug_loc0:
 3600              	.LLST0:
 3601 0000 00000000 		.4byte	.LFB111
 3602 0004 02000000 		.4byte	.LCFI0
 3603 0008 0200     		.2byte	0x2
 3604 000a 7D       		.byte	0x7d
 3605 000b 00       		.sleb128 0
 3606 000c 02000000 		.4byte	.LCFI0
 3607 0010 70000000 		.4byte	.LFE111
 3608 0014 0200     		.2byte	0x2
 3609 0016 7D       		.byte	0x7d
 3610 0017 08       		.sleb128 8
 3611 0018 00000000 		.4byte	0
 3612 001c 00000000 		.4byte	0
ARM GAS  C:\Users\TaisikHam\AppData\Local\Temp\ccNzzKEh.s 			page 65


 3613              	.LLST1:
 3614 0020 00000000 		.4byte	.LVL0
 3615 0024 2E000000 		.4byte	.LVL1
 3616 0028 0100     		.2byte	0x1
 3617 002a 50       		.byte	0x50
 3618 002b 2E000000 		.4byte	.LVL1
 3619 002f 40000000 		.4byte	.LVL3
 3620 0033 0400     		.2byte	0x4
 3621 0035 F3       		.byte	0xf3
 3622 0036 01       		.uleb128 0x1
 3623 0037 50       		.byte	0x50
 3624 0038 9F       		.byte	0x9f
 3625 0039 40000000 		.4byte	.LVL3
 3626 003d 46000000 		.4byte	.LVL4
 3627 0041 0100     		.2byte	0x1
 3628 0043 50       		.byte	0x50
 3629 0044 46000000 		.4byte	.LVL4
 3630 0048 58000000 		.4byte	.LVL6
 3631 004c 0400     		.2byte	0x4
 3632 004e F3       		.byte	0xf3
 3633 004f 01       		.uleb128 0x1
 3634 0050 50       		.byte	0x50
 3635 0051 9F       		.byte	0x9f
 3636 0052 58000000 		.4byte	.LVL6
 3637 0056 5E000000 		.4byte	.LVL7
 3638 005a 0100     		.2byte	0x1
 3639 005c 50       		.byte	0x50
 3640 005d 5E000000 		.4byte	.LVL7
 3641 0061 70000000 		.4byte	.LFE111
 3642 0065 0400     		.2byte	0x4
 3643 0067 F3       		.byte	0xf3
 3644 0068 01       		.uleb128 0x1
 3645 0069 50       		.byte	0x50
 3646 006a 9F       		.byte	0x9f
 3647 006b 00000000 		.4byte	0
 3648 006f 00000000 		.4byte	0
 3649              	.LLST2:
 3650 0073 00000000 		.4byte	.LFB113
 3651 0077 0A000000 		.4byte	.LCFI1
 3652 007b 0200     		.2byte	0x2
 3653 007d 7D       		.byte	0x7d
 3654 007e 00       		.sleb128 0
 3655 007f 0A000000 		.4byte	.LCFI1
 3656 0083 A4000000 		.4byte	.LFE113
 3657 0087 0200     		.2byte	0x2
 3658 0089 7D       		.byte	0x7d
 3659 008a 18       		.sleb128 24
 3660 008b 00000000 		.4byte	0
 3661 008f 00000000 		.4byte	0
 3662              	.LLST3:
 3663 0093 00000000 		.4byte	.LVL11
 3664 0097 0E000000 		.4byte	.LVL12
 3665 009b 0200     		.2byte	0x2
 3666 009d 30       		.byte	0x30
 3667 009e 9F       		.byte	0x9f
 3668 009f 0E000000 		.4byte	.LVL12
 3669 00a3 26000000 		.4byte	.LVL13
ARM GAS  C:\Users\TaisikHam\AppData\Local\Temp\ccNzzKEh.s 			page 66


 3670 00a7 0100     		.2byte	0x1
 3671 00a9 53       		.byte	0x53
 3672 00aa 2A000000 		.4byte	.LVL14
 3673 00ae 32000000 		.4byte	.LVL15
 3674 00b2 0100     		.2byte	0x1
 3675 00b4 53       		.byte	0x53
 3676 00b5 32000000 		.4byte	.LVL15
 3677 00b9 3E000000 		.4byte	.LVL16
 3678 00bd 0100     		.2byte	0x1
 3679 00bf 5C       		.byte	0x5c
 3680 00c0 3E000000 		.4byte	.LVL16
 3681 00c4 4C000000 		.4byte	.LVL18
 3682 00c8 0100     		.2byte	0x1
 3683 00ca 52       		.byte	0x52
 3684 00cb 4C000000 		.4byte	.LVL18
 3685 00cf 4E000000 		.4byte	.LVL19
 3686 00d3 0100     		.2byte	0x1
 3687 00d5 53       		.byte	0x53
 3688 00d6 64000000 		.4byte	.LVL20
 3689 00da 74000000 		.4byte	.LVL21
 3690 00de 0200     		.2byte	0x2
 3691 00e0 30       		.byte	0x30
 3692 00e1 9F       		.byte	0x9f
 3693 00e2 74000000 		.4byte	.LVL21
 3694 00e6 92000000 		.4byte	.LVL23
 3695 00ea 0100     		.2byte	0x1
 3696 00ec 54       		.byte	0x54
 3697 00ed 92000000 		.4byte	.LVL23
 3698 00f1 9A000000 		.4byte	.LVL25
 3699 00f5 0100     		.2byte	0x1
 3700 00f7 53       		.byte	0x53
 3701 00f8 9E000000 		.4byte	.LVL26
 3702 00fc A4000000 		.4byte	.LFE113
 3703 0100 0100     		.2byte	0x1
 3704 0102 53       		.byte	0x53
 3705 0103 00000000 		.4byte	0
 3706 0107 00000000 		.4byte	0
 3707              	.LLST4:
 3708 010b 00000000 		.4byte	.LFB115
 3709 010f 10000000 		.4byte	.LCFI2
 3710 0113 0200     		.2byte	0x2
 3711 0115 7D       		.byte	0x7d
 3712 0116 00       		.sleb128 0
 3713 0117 10000000 		.4byte	.LCFI2
 3714 011b 1E000000 		.4byte	.LCFI3
 3715 011f 0200     		.2byte	0x2
 3716 0121 7D       		.byte	0x7d
 3717 0122 14       		.sleb128 20
 3718 0123 1E000000 		.4byte	.LCFI3
 3719 0127 B4000000 		.4byte	.LFE115
 3720 012b 0300     		.2byte	0x3
 3721 012d 7D       		.byte	0x7d
 3722 012e D800     		.sleb128 88
 3723 0130 00000000 		.4byte	0
 3724 0134 00000000 		.4byte	0
 3725              	.LLST5:
 3726 0138 00000000 		.4byte	.LVL29
ARM GAS  C:\Users\TaisikHam\AppData\Local\Temp\ccNzzKEh.s 			page 67


 3727 013c 2E000000 		.4byte	.LVL31
 3728 0140 0100     		.2byte	0x1
 3729 0142 50       		.byte	0x50
 3730 0143 2E000000 		.4byte	.LVL31
 3731 0147 B4000000 		.4byte	.LFE115
 3732 014b 0100     		.2byte	0x1
 3733 014d 55       		.byte	0x55
 3734 014e 00000000 		.4byte	0
 3735 0152 00000000 		.4byte	0
 3736              	.LLST6:
 3737 0156 00000000 		.4byte	.LVL29
 3738 015a 39000000 		.4byte	.LVL33-1
 3739 015e 0100     		.2byte	0x1
 3740 0160 51       		.byte	0x51
 3741 0161 39000000 		.4byte	.LVL33-1
 3742 0165 B4000000 		.4byte	.LFE115
 3743 0169 0100     		.2byte	0x1
 3744 016b 54       		.byte	0x54
 3745 016c 00000000 		.4byte	0
 3746 0170 00000000 		.4byte	0
 3747              	.LLST7:
 3748 0174 00000000 		.4byte	.LVL29
 3749 0178 24000000 		.4byte	.LVL30
 3750 017c 0200     		.2byte	0x2
 3751 017e 30       		.byte	0x30
 3752 017f 9F       		.byte	0x9f
 3753 0180 24000000 		.4byte	.LVL30
 3754 0184 98000000 		.4byte	.LVL42
 3755 0188 0100     		.2byte	0x1
 3756 018a 56       		.byte	0x56
 3757 018b 98000000 		.4byte	.LVL42
 3758 018f A0000000 		.4byte	.LVL43
 3759 0193 0100     		.2byte	0x1
 3760 0195 51       		.byte	0x51
 3761 0196 A0000000 		.4byte	.LVL43
 3762 019a B4000000 		.4byte	.LFE115
 3763 019e 0100     		.2byte	0x1
 3764 01a0 56       		.byte	0x56
 3765 01a1 00000000 		.4byte	0
 3766 01a5 00000000 		.4byte	0
 3767              	.LLST8:
 3768 01a9 00000000 		.4byte	.LVL29
 3769 01ad 6A000000 		.4byte	.LVL39
 3770 01b1 0200     		.2byte	0x2
 3771 01b3 32       		.byte	0x32
 3772 01b4 9F       		.byte	0x9f
 3773 01b5 6A000000 		.4byte	.LVL39
 3774 01b9 7A000000 		.4byte	.LVL41
 3775 01bd 0100     		.2byte	0x1
 3776 01bf 51       		.byte	0x51
 3777 01c0 A0000000 		.4byte	.LVL43
 3778 01c4 B4000000 		.4byte	.LFE115
 3779 01c8 0200     		.2byte	0x2
 3780 01ca 32       		.byte	0x32
 3781 01cb 9F       		.byte	0x9f
 3782 01cc 00000000 		.4byte	0
 3783 01d0 00000000 		.4byte	0
ARM GAS  C:\Users\TaisikHam\AppData\Local\Temp\ccNzzKEh.s 			page 68


 3784              	.LLST9:
 3785 01d4 00000000 		.4byte	.LVL29
 3786 01d8 68000000 		.4byte	.LVL38
 3787 01dc 0200     		.2byte	0x2
 3788 01de 30       		.byte	0x30
 3789 01df 9F       		.byte	0x9f
 3790 01e0 68000000 		.4byte	.LVL38
 3791 01e4 6A000000 		.4byte	.LVL39
 3792 01e8 0500     		.2byte	0x5
 3793 01ea 72       		.byte	0x72
 3794 01eb 00       		.sleb128 0
 3795 01ec 31       		.byte	0x31
 3796 01ed 1A       		.byte	0x1a
 3797 01ee 9F       		.byte	0x9f
 3798 01ef 6A000000 		.4byte	.LVL39
 3799 01f3 70000000 		.4byte	.LVL40
 3800 01f7 0700     		.2byte	0x7
 3801 01f9 72       		.byte	0x72
 3802 01fa 00       		.sleb128 0
 3803 01fb 31       		.byte	0x31
 3804 01fc 1A       		.byte	0x1a
 3805 01fd 38       		.byte	0x38
 3806 01fe 24       		.byte	0x24
 3807 01ff 9F       		.byte	0x9f
 3808 0200 A0000000 		.4byte	.LVL43
 3809 0204 B4000000 		.4byte	.LFE115
 3810 0208 0200     		.2byte	0x2
 3811 020a 30       		.byte	0x30
 3812 020b 9F       		.byte	0x9f
 3813 020c 00000000 		.4byte	0
 3814 0210 00000000 		.4byte	0
 3815              	.LLST10:
 3816 0214 00000000 		.4byte	.LVL29
 3817 0218 36000000 		.4byte	.LVL32
 3818 021c 0200     		.2byte	0x2
 3819 021e 31       		.byte	0x31
 3820 021f 9F       		.byte	0x9f
 3821 0220 36000000 		.4byte	.LVL32
 3822 0224 7A000000 		.4byte	.LVL41
 3823 0228 0100     		.2byte	0x1
 3824 022a 57       		.byte	0x57
 3825 022b A0000000 		.4byte	.LVL43
 3826 022f B4000000 		.4byte	.LFE115
 3827 0233 0100     		.2byte	0x1
 3828 0235 57       		.byte	0x57
 3829 0236 00000000 		.4byte	0
 3830 023a 00000000 		.4byte	0
 3831              	.LLST11:
 3832 023e 00000000 		.4byte	.LVL29
 3833 0242 5A000000 		.4byte	.LVL36
 3834 0246 0200     		.2byte	0x2
 3835 0248 30       		.byte	0x30
 3836 0249 9F       		.byte	0x9f
 3837 024a 5A000000 		.4byte	.LVL36
 3838 024e 66000000 		.4byte	.LVL37
 3839 0252 0100     		.2byte	0x1
 3840 0254 52       		.byte	0x52
ARM GAS  C:\Users\TaisikHam\AppData\Local\Temp\ccNzzKEh.s 			page 69


 3841 0255 68000000 		.4byte	.LVL38
 3842 0259 70000000 		.4byte	.LVL40
 3843 025d 0100     		.2byte	0x1
 3844 025f 52       		.byte	0x52
 3845 0260 A0000000 		.4byte	.LVL43
 3846 0264 B2000000 		.4byte	.LVL45
 3847 0268 0200     		.2byte	0x2
 3848 026a 30       		.byte	0x30
 3849 026b 9F       		.byte	0x9f
 3850 026c B2000000 		.4byte	.LVL45
 3851 0270 B4000000 		.4byte	.LFE115
 3852 0274 0100     		.2byte	0x1
 3853 0276 52       		.byte	0x52
 3854 0277 00000000 		.4byte	0
 3855 027b 00000000 		.4byte	0
 3856              	.LLST12:
 3857 027f 00000000 		.4byte	.LVL29
 3858 0283 3E000000 		.4byte	.LVL34
 3859 0287 0200     		.2byte	0x2
 3860 0289 30       		.byte	0x30
 3861 028a 9F       		.byte	0x9f
 3862 028b 3E000000 		.4byte	.LVL34
 3863 028f 50000000 		.4byte	.LVL35
 3864 0293 0100     		.2byte	0x1
 3865 0295 51       		.byte	0x51
 3866 0296 50000000 		.4byte	.LVL35
 3867 029a 7A000000 		.4byte	.LVL41
 3868 029e 0300     		.2byte	0x3
 3869 02a0 91       		.byte	0x91
 3870 02a1 AC7F     		.sleb128 -84
 3871 02a3 A0000000 		.4byte	.LVL43
 3872 02a7 A2000000 		.4byte	.LVL44
 3873 02ab 0100     		.2byte	0x1
 3874 02ad 51       		.byte	0x51
 3875 02ae A2000000 		.4byte	.LVL44
 3876 02b2 B4000000 		.4byte	.LFE115
 3877 02b6 0300     		.2byte	0x3
 3878 02b8 91       		.byte	0x91
 3879 02b9 AC7F     		.sleb128 -84
 3880 02bb 00000000 		.4byte	0
 3881 02bf 00000000 		.4byte	0
 3882              	.LLST13:
 3883 02c3 00000000 		.4byte	.LVL49
 3884 02c7 0C000000 		.4byte	.LVL53
 3885 02cb 0100     		.2byte	0x1
 3886 02cd 51       		.byte	0x51
 3887 02ce 0C000000 		.4byte	.LVL53
 3888 02d2 10000000 		.4byte	.LFE119
 3889 02d6 0400     		.2byte	0x4
 3890 02d8 F3       		.byte	0xf3
 3891 02d9 01       		.uleb128 0x1
 3892 02da 51       		.byte	0x51
 3893 02db 9F       		.byte	0x9f
 3894 02dc 00000000 		.4byte	0
 3895 02e0 00000000 		.4byte	0
 3896              	.LLST14:
 3897 02e4 00000000 		.4byte	.LVL49
ARM GAS  C:\Users\TaisikHam\AppData\Local\Temp\ccNzzKEh.s 			page 70


 3898 02e8 02000000 		.4byte	.LVL50
 3899 02ec 0200     		.2byte	0x2
 3900 02ee 30       		.byte	0x30
 3901 02ef 9F       		.byte	0x9f
 3902 02f0 02000000 		.4byte	.LVL50
 3903 02f4 06000000 		.4byte	.LVL51
 3904 02f8 0100     		.2byte	0x1
 3905 02fa 53       		.byte	0x53
 3906 02fb 0A000000 		.4byte	.LVL52
 3907 02ff 0C000000 		.4byte	.LVL53
 3908 0303 0100     		.2byte	0x1
 3909 0305 53       		.byte	0x53
 3910 0306 0C000000 		.4byte	.LVL53
 3911 030a 10000000 		.4byte	.LFE119
 3912 030e 0100     		.2byte	0x1
 3913 0310 51       		.byte	0x51
 3914 0311 00000000 		.4byte	0
 3915 0315 00000000 		.4byte	0
 3916              	.LLST15:
 3917 0319 00000000 		.4byte	.LVL54
 3918 031d 12000000 		.4byte	.LVL55
 3919 0321 0100     		.2byte	0x1
 3920 0323 51       		.byte	0x51
 3921 0324 12000000 		.4byte	.LVL55
 3922 0328 16000000 		.4byte	.LFE120
 3923 032c 0400     		.2byte	0x4
 3924 032e F3       		.byte	0xf3
 3925 032f 01       		.uleb128 0x1
 3926 0330 51       		.byte	0x51
 3927 0331 9F       		.byte	0x9f
 3928 0332 00000000 		.4byte	0
 3929 0336 00000000 		.4byte	0
 3930              	.LLST16:
 3931 033a 00000000 		.4byte	.LFB123
 3932 033e 1A000000 		.4byte	.LCFI4
 3933 0342 0200     		.2byte	0x2
 3934 0344 7D       		.byte	0x7d
 3935 0345 00       		.sleb128 0
 3936 0346 1A000000 		.4byte	.LCFI4
 3937 034a 48000000 		.4byte	.LFE123
 3938 034e 0200     		.2byte	0x2
 3939 0350 7D       		.byte	0x7d
 3940 0351 08       		.sleb128 8
 3941 0352 00000000 		.4byte	0
 3942 0356 00000000 		.4byte	0
 3943              	.LLST17:
 3944 035a 00000000 		.4byte	.LVL58
 3945 035e 20000000 		.4byte	.LVL59
 3946 0362 0100     		.2byte	0x1
 3947 0364 51       		.byte	0x51
 3948 0365 20000000 		.4byte	.LVL59
 3949 0369 48000000 		.4byte	.LFE123
 3950 036d 0400     		.2byte	0x4
 3951 036f F3       		.byte	0xf3
 3952 0370 01       		.uleb128 0x1
 3953 0371 51       		.byte	0x51
 3954 0372 9F       		.byte	0x9f
ARM GAS  C:\Users\TaisikHam\AppData\Local\Temp\ccNzzKEh.s 			page 71


 3955 0373 00000000 		.4byte	0
 3956 0377 00000000 		.4byte	0
 3957              	.LLST18:
 3958 037b 00000000 		.4byte	.LVL58
 3959 037f 22000000 		.4byte	.LVL60
 3960 0383 0200     		.2byte	0x2
 3961 0385 30       		.byte	0x30
 3962 0386 9F       		.byte	0x9f
 3963 0387 22000000 		.4byte	.LVL60
 3964 038b 24000000 		.4byte	.LVL61
 3965 038f 0100     		.2byte	0x1
 3966 0391 52       		.byte	0x52
 3967 0392 42000000 		.4byte	.LVL63
 3968 0396 48000000 		.4byte	.LFE123
 3969 039a 0100     		.2byte	0x1
 3970 039c 53       		.byte	0x53
 3971 039d 00000000 		.4byte	0
 3972 03a1 00000000 		.4byte	0
 3973              	.LLST19:
 3974 03a5 00000000 		.4byte	.LVL58
 3975 03a9 3E000000 		.4byte	.LVL62
 3976 03ad 0200     		.2byte	0x2
 3977 03af 30       		.byte	0x30
 3978 03b0 9F       		.byte	0x9f
 3979 03b1 3E000000 		.4byte	.LVL62
 3980 03b5 42000000 		.4byte	.LVL63
 3981 03b9 0100     		.2byte	0x1
 3982 03bb 53       		.byte	0x53
 3983 03bc 42000000 		.4byte	.LVL63
 3984 03c0 48000000 		.4byte	.LFE123
 3985 03c4 1F00     		.2byte	0x1f
 3986 03c6 0A       		.byte	0xa
 3987 03c7 0001     		.2byte	0x100
 3988 03c9 30       		.byte	0x30
 3989 03ca F3       		.byte	0xf3
 3990 03cb 01       		.uleb128 0x1
 3991 03cc 51       		.byte	0x51
 3992 03cd 94       		.byte	0x94
 3993 03ce 02       		.byte	0x2
 3994 03cf 0A       		.byte	0xa
 3995 03d0 FFFF     		.2byte	0xffff
 3996 03d2 1A       		.byte	0x1a
 3997 03d3 0C       		.byte	0xc
 3998 03d4 FFFDFFFF 		.4byte	0xfffffdff
 3999 03d8 1A       		.byte	0x1a
 4000 03d9 40       		.byte	0x40
 4001 03da 24       		.byte	0x24
 4002 03db 40       		.byte	0x40
 4003 03dc 25       		.byte	0x25
 4004 03dd 30       		.byte	0x30
 4005 03de 29       		.byte	0x29
 4006 03df 28       		.byte	0x28
 4007 03e0 0100     		.2byte	0x1
 4008 03e2 16       		.byte	0x16
 4009 03e3 13       		.byte	0x13
 4010 03e4 9F       		.byte	0x9f
 4011 03e5 00000000 		.4byte	0
ARM GAS  C:\Users\TaisikHam\AppData\Local\Temp\ccNzzKEh.s 			page 72


 4012 03e9 00000000 		.4byte	0
 4013              	.LLST20:
 4014 03ed 00000000 		.4byte	.LVL68
 4015 03f1 02000000 		.4byte	.LVL69
 4016 03f5 0100     		.2byte	0x1
 4017 03f7 50       		.byte	0x50
 4018 03f8 02000000 		.4byte	.LVL69
 4019 03fc 04000000 		.4byte	.LFE128
 4020 0400 0400     		.2byte	0x4
 4021 0402 F3       		.byte	0xf3
 4022 0403 01       		.uleb128 0x1
 4023 0404 50       		.byte	0x50
 4024 0405 9F       		.byte	0x9f
 4025 0406 00000000 		.4byte	0
 4026 040a 00000000 		.4byte	0
 4027              	.LLST21:
 4028 040e 00000000 		.4byte	.LVL68
 4029 0412 02000000 		.4byte	.LVL69
 4030 0416 0300     		.2byte	0x3
 4031 0418 70       		.byte	0x70
 4032 0419 0C       		.sleb128 12
 4033 041a 9F       		.byte	0x9f
 4034 041b 02000000 		.4byte	.LVL69
 4035 041f 04000000 		.4byte	.LFE128
 4036 0423 0600     		.2byte	0x6
 4037 0425 F3       		.byte	0xf3
 4038 0426 01       		.uleb128 0x1
 4039 0427 50       		.byte	0x50
 4040 0428 23       		.byte	0x23
 4041 0429 0C       		.uleb128 0xc
 4042 042a 9F       		.byte	0x9f
 4043 042b 00000000 		.4byte	0
 4044 042f 00000000 		.4byte	0
 4045              	.LLST22:
 4046 0433 00000000 		.4byte	.LVL70
 4047 0437 02000000 		.4byte	.LVL71
 4048 043b 0100     		.2byte	0x1
 4049 043d 50       		.byte	0x50
 4050 043e 02000000 		.4byte	.LVL71
 4051 0442 06000000 		.4byte	.LFE129
 4052 0446 0400     		.2byte	0x4
 4053 0448 F3       		.byte	0xf3
 4054 0449 01       		.uleb128 0x1
 4055 044a 50       		.byte	0x50
 4056 044b 9F       		.byte	0x9f
 4057 044c 00000000 		.4byte	0
 4058 0450 00000000 		.4byte	0
 4059              	.LLST23:
 4060 0454 00000000 		.4byte	.LVL72
 4061 0458 12000000 		.4byte	.LVL73
 4062 045c 0100     		.2byte	0x1
 4063 045e 51       		.byte	0x51
 4064 045f 12000000 		.4byte	.LVL73
 4065 0463 16000000 		.4byte	.LFE130
 4066 0467 0400     		.2byte	0x4
 4067 0469 F3       		.byte	0xf3
 4068 046a 01       		.uleb128 0x1
ARM GAS  C:\Users\TaisikHam\AppData\Local\Temp\ccNzzKEh.s 			page 73


 4069 046b 51       		.byte	0x51
 4070 046c 9F       		.byte	0x9f
 4071 046d 00000000 		.4byte	0
 4072 0471 00000000 		.4byte	0
 4073              	.LLST24:
 4074 0475 00000000 		.4byte	.LVL76
 4075 0479 06000000 		.4byte	.LVL77
 4076 047d 0100     		.2byte	0x1
 4077 047f 50       		.byte	0x50
 4078 0480 06000000 		.4byte	.LVL77
 4079 0484 0C000000 		.4byte	.LFE133
 4080 0488 0400     		.2byte	0x4
 4081 048a F3       		.byte	0xf3
 4082 048b 01       		.uleb128 0x1
 4083 048c 50       		.byte	0x50
 4084 048d 9F       		.byte	0x9f
 4085 048e 00000000 		.4byte	0
 4086 0492 00000000 		.4byte	0
 4087              	.LLST25:
 4088 0496 00000000 		.4byte	.LVL76
 4089 049a 0A000000 		.4byte	.LVL78
 4090 049e 0200     		.2byte	0x2
 4091 04a0 30       		.byte	0x30
 4092 04a1 9F       		.byte	0x9f
 4093 04a2 0A000000 		.4byte	.LVL78
 4094 04a6 0C000000 		.4byte	.LFE133
 4095 04aa 0100     		.2byte	0x1
 4096 04ac 50       		.byte	0x50
 4097 04ad 00000000 		.4byte	0
 4098 04b1 00000000 		.4byte	0
 4099              	.LLST26:
 4100 04b5 00000000 		.4byte	.LVL79
 4101 04b9 02000000 		.4byte	.LVL80
 4102 04bd 0100     		.2byte	0x1
 4103 04bf 50       		.byte	0x50
 4104 04c0 02000000 		.4byte	.LVL80
 4105 04c4 06000000 		.4byte	.LFE134
 4106 04c8 0400     		.2byte	0x4
 4107 04ca F3       		.byte	0xf3
 4108 04cb 01       		.uleb128 0x1
 4109 04cc 50       		.byte	0x50
 4110 04cd 9F       		.byte	0x9f
 4111 04ce 00000000 		.4byte	0
 4112 04d2 00000000 		.4byte	0
 4113              	.LLST27:
 4114 04d6 00000000 		.4byte	.LVL81
 4115 04da 0A000000 		.4byte	.LVL82
 4116 04de 0100     		.2byte	0x1
 4117 04e0 51       		.byte	0x51
 4118 04e1 0A000000 		.4byte	.LVL82
 4119 04e5 0E000000 		.4byte	.LVL83
 4120 04e9 0400     		.2byte	0x4
 4121 04eb F3       		.byte	0xf3
 4122 04ec 01       		.uleb128 0x1
 4123 04ed 51       		.byte	0x51
 4124 04ee 9F       		.byte	0x9f
 4125 04ef 0E000000 		.4byte	.LVL83
ARM GAS  C:\Users\TaisikHam\AppData\Local\Temp\ccNzzKEh.s 			page 74


 4126 04f3 10000000 		.4byte	.LVL84
 4127 04f7 0100     		.2byte	0x1
 4128 04f9 51       		.byte	0x51
 4129 04fa 10000000 		.4byte	.LVL84
 4130 04fe 14000000 		.4byte	.LFE135
 4131 0502 0400     		.2byte	0x4
 4132 0504 F3       		.byte	0xf3
 4133 0505 01       		.uleb128 0x1
 4134 0506 51       		.byte	0x51
 4135 0507 9F       		.byte	0x9f
 4136 0508 00000000 		.4byte	0
 4137 050c 00000000 		.4byte	0
 4138              	.LLST28:
 4139 0510 00000000 		.4byte	.LVL85
 4140 0514 12000000 		.4byte	.LVL86
 4141 0518 0100     		.2byte	0x1
 4142 051a 51       		.byte	0x51
 4143 051b 12000000 		.4byte	.LVL86
 4144 051f 16000000 		.4byte	.LFE136
 4145 0523 0400     		.2byte	0x4
 4146 0525 F3       		.byte	0xf3
 4147 0526 01       		.uleb128 0x1
 4148 0527 51       		.byte	0x51
 4149 0528 9F       		.byte	0x9f
 4150 0529 00000000 		.4byte	0
 4151 052d 00000000 		.4byte	0
 4152              	.LLST29:
 4153 0531 00000000 		.4byte	.LVL87
 4154 0535 04000000 		.4byte	.LVL88
 4155 0539 0100     		.2byte	0x1
 4156 053b 51       		.byte	0x51
 4157 053c 04000000 		.4byte	.LVL88
 4158 0540 1E000000 		.4byte	.LFE137
 4159 0544 0400     		.2byte	0x4
 4160 0546 F3       		.byte	0xf3
 4161 0547 01       		.uleb128 0x1
 4162 0548 51       		.byte	0x51
 4163 0549 9F       		.byte	0x9f
 4164 054a 00000000 		.4byte	0
 4165 054e 00000000 		.4byte	0
 4166              	.LLST30:
 4167 0552 00000000 		.4byte	.LVL87
 4168 0556 04000000 		.4byte	.LVL88
 4169 055a 0800     		.2byte	0x8
 4170 055c 71       		.byte	0x71
 4171 055d 00       		.sleb128 0
 4172 055e 34       		.byte	0x34
 4173 055f 25       		.byte	0x25
 4174 0560 08       		.byte	0x8
 4175 0561 FF       		.byte	0xff
 4176 0562 1A       		.byte	0x1a
 4177 0563 9F       		.byte	0x9f
 4178 0564 04000000 		.4byte	.LVL88
 4179 0568 1E000000 		.4byte	.LFE137
 4180 056c 0900     		.2byte	0x9
 4181 056e F3       		.byte	0xf3
 4182 056f 01       		.uleb128 0x1
ARM GAS  C:\Users\TaisikHam\AppData\Local\Temp\ccNzzKEh.s 			page 75


 4183 0570 51       		.byte	0x51
 4184 0571 34       		.byte	0x34
 4185 0572 25       		.byte	0x25
 4186 0573 08       		.byte	0x8
 4187 0574 FF       		.byte	0xff
 4188 0575 1A       		.byte	0x1a
 4189 0576 9F       		.byte	0x9f
 4190 0577 00000000 		.4byte	0
 4191 057b 00000000 		.4byte	0
 4192              	.LLST31:
 4193 057f 00000000 		.4byte	.LVL87
 4194 0583 0C000000 		.4byte	.LVL89
 4195 0587 0200     		.2byte	0x2
 4196 0589 30       		.byte	0x30
 4197 058a 9F       		.byte	0x9f
 4198 058b 0C000000 		.4byte	.LVL89
 4199 058f 14000000 		.4byte	.LVL90
 4200 0593 0100     		.2byte	0x1
 4201 0595 51       		.byte	0x51
 4202 0596 18000000 		.4byte	.LVL91
 4203 059a 1A000000 		.4byte	.LVL92
 4204 059e 0100     		.2byte	0x1
 4205 05a0 51       		.byte	0x51
 4206 05a1 00000000 		.4byte	0
 4207 05a5 00000000 		.4byte	0
 4208              	.LLST32:
 4209 05a9 00000000 		.4byte	.LVL93
 4210 05ad 02000000 		.4byte	.LVL94
 4211 05b1 0100     		.2byte	0x1
 4212 05b3 50       		.byte	0x50
 4213 05b4 02000000 		.4byte	.LVL94
 4214 05b8 08000000 		.4byte	.LFE138
 4215 05bc 0400     		.2byte	0x4
 4216 05be F3       		.byte	0xf3
 4217 05bf 01       		.uleb128 0x1
 4218 05c0 50       		.byte	0x50
 4219 05c1 9F       		.byte	0x9f
 4220 05c2 00000000 		.4byte	0
 4221 05c6 00000000 		.4byte	0
 4222              	.LLST33:
 4223 05ca 00000000 		.4byte	.LVL95
 4224 05ce 02000000 		.4byte	.LVL96
 4225 05d2 0100     		.2byte	0x1
 4226 05d4 50       		.byte	0x50
 4227 05d5 02000000 		.4byte	.LVL96
 4228 05d9 08000000 		.4byte	.LFE139
 4229 05dd 0400     		.2byte	0x4
 4230 05df F3       		.byte	0xf3
 4231 05e0 01       		.uleb128 0x1
 4232 05e1 50       		.byte	0x50
 4233 05e2 9F       		.byte	0x9f
 4234 05e3 00000000 		.4byte	0
 4235 05e7 00000000 		.4byte	0
 4236              	.LLST34:
 4237 05eb 00000000 		.4byte	.LVL97
 4238 05ef 0A000000 		.4byte	.LVL99
 4239 05f3 0100     		.2byte	0x1
ARM GAS  C:\Users\TaisikHam\AppData\Local\Temp\ccNzzKEh.s 			page 76


 4240 05f5 50       		.byte	0x50
 4241 05f6 0A000000 		.4byte	.LVL99
 4242 05fa 0C000000 		.4byte	.LFE140
 4243 05fe 0400     		.2byte	0x4
 4244 0600 F3       		.byte	0xf3
 4245 0601 01       		.uleb128 0x1
 4246 0602 50       		.byte	0x50
 4247 0603 9F       		.byte	0x9f
 4248 0604 00000000 		.4byte	0
 4249 0608 00000000 		.4byte	0
 4250              	.LLST35:
 4251 060c 00000000 		.4byte	.LVL97
 4252 0610 02000000 		.4byte	.LVL98
 4253 0614 0200     		.2byte	0x2
 4254 0616 30       		.byte	0x30
 4255 0617 9F       		.byte	0x9f
 4256 0618 02000000 		.4byte	.LVL98
 4257 061c 0C000000 		.4byte	.LFE140
 4258 0620 0A00     		.2byte	0xa
 4259 0622 71       		.byte	0x71
 4260 0623 00       		.sleb128 0
 4261 0624 73       		.byte	0x73
 4262 0625 00       		.sleb128 0
 4263 0626 1A       		.byte	0x1a
 4264 0627 40       		.byte	0x40
 4265 0628 24       		.byte	0x24
 4266 0629 30       		.byte	0x30
 4267 062a 2E       		.byte	0x2e
 4268 062b 9F       		.byte	0x9f
 4269 062c 00000000 		.4byte	0
 4270 0630 00000000 		.4byte	0
 4271              	.LLST36:
 4272 0634 00000000 		.4byte	.LVL100
 4273 0638 02000000 		.4byte	.LVL101
 4274 063c 0100     		.2byte	0x1
 4275 063e 51       		.byte	0x51
 4276 063f 02000000 		.4byte	.LVL101
 4277 0643 08000000 		.4byte	.LFE141
 4278 0647 0400     		.2byte	0x4
 4279 0649 F3       		.byte	0xf3
 4280 064a 01       		.uleb128 0x1
 4281 064b 51       		.byte	0x51
 4282 064c 9F       		.byte	0x9f
 4283 064d 00000000 		.4byte	0
 4284 0651 00000000 		.4byte	0
 4285              	.LLST37:
 4286 0655 00000000 		.4byte	.LFB142
 4287 0659 02000000 		.4byte	.LCFI5
 4288 065d 0200     		.2byte	0x2
 4289 065f 7D       		.byte	0x7d
 4290 0660 00       		.sleb128 0
 4291 0661 02000000 		.4byte	.LCFI5
 4292 0665 2A000000 		.4byte	.LFE142
 4293 0669 0200     		.2byte	0x2
 4294 066b 7D       		.byte	0x7d
 4295 066c 04       		.sleb128 4
 4296 066d 00000000 		.4byte	0
ARM GAS  C:\Users\TaisikHam\AppData\Local\Temp\ccNzzKEh.s 			page 77


 4297 0671 00000000 		.4byte	0
 4298              	.LLST38:
 4299 0675 00000000 		.4byte	.LVL102
 4300 0679 06000000 		.4byte	.LVL103
 4301 067d 0100     		.2byte	0x1
 4302 067f 50       		.byte	0x50
 4303 0680 06000000 		.4byte	.LVL103
 4304 0684 2A000000 		.4byte	.LFE142
 4305 0688 0400     		.2byte	0x4
 4306 068a F3       		.byte	0xf3
 4307 068b 01       		.uleb128 0x1
 4308 068c 50       		.byte	0x50
 4309 068d 9F       		.byte	0x9f
 4310 068e 00000000 		.4byte	0
 4311 0692 00000000 		.4byte	0
 4312              	.LLST39:
 4313 0696 00000000 		.4byte	.LVL102
 4314 069a 1A000000 		.4byte	.LVL105
 4315 069e 0100     		.2byte	0x1
 4316 06a0 51       		.byte	0x51
 4317 06a1 1A000000 		.4byte	.LVL105
 4318 06a5 2A000000 		.4byte	.LFE142
 4319 06a9 0400     		.2byte	0x4
 4320 06ab F3       		.byte	0xf3
 4321 06ac 01       		.uleb128 0x1
 4322 06ad 51       		.byte	0x51
 4323 06ae 9F       		.byte	0x9f
 4324 06af 00000000 		.4byte	0
 4325 06b3 00000000 		.4byte	0
 4326              	.LLST40:
 4327 06b7 00000000 		.4byte	.LVL102
 4328 06bb 26000000 		.4byte	.LVL106
 4329 06bf 0200     		.2byte	0x2
 4330 06c1 30       		.byte	0x30
 4331 06c2 9F       		.byte	0x9f
 4332 06c3 26000000 		.4byte	.LVL106
 4333 06c7 2A000000 		.4byte	.LFE142
 4334 06cb 0100     		.2byte	0x1
 4335 06cd 50       		.byte	0x50
 4336 06ce 00000000 		.4byte	0
 4337 06d2 00000000 		.4byte	0
 4338              	.LLST41:
 4339 06d6 00000000 		.4byte	.LVL102
 4340 06da 1A000000 		.4byte	.LVL105
 4341 06de 0A00     		.2byte	0xa
 4342 06e0 31       		.byte	0x31
 4343 06e1 71       		.byte	0x71
 4344 06e2 00       		.sleb128 0
 4345 06e3 34       		.byte	0x34
 4346 06e4 25       		.byte	0x25
 4347 06e5 08       		.byte	0x8
 4348 06e6 FF       		.byte	0xff
 4349 06e7 1A       		.byte	0x1a
 4350 06e8 24       		.byte	0x24
 4351 06e9 9F       		.byte	0x9f
 4352 06ea 00000000 		.4byte	0
 4353 06ee 00000000 		.4byte	0
ARM GAS  C:\Users\TaisikHam\AppData\Local\Temp\ccNzzKEh.s 			page 78


 4354              	.LLST42:
 4355 06f2 00000000 		.4byte	.LVL102
 4356 06f6 16000000 		.4byte	.LVL104
 4357 06fa 0200     		.2byte	0x2
 4358 06fc 30       		.byte	0x30
 4359 06fd 9F       		.byte	0x9f
 4360 06fe 16000000 		.4byte	.LVL104
 4361 0702 1A000000 		.4byte	.LVL105
 4362 0706 0D00     		.2byte	0xd
 4363 0708 31       		.byte	0x31
 4364 0709 71       		.byte	0x71
 4365 070a 00       		.sleb128 0
 4366 070b 34       		.byte	0x34
 4367 070c 25       		.byte	0x25
 4368 070d 08       		.byte	0x8
 4369 070e FF       		.byte	0xff
 4370 070f 1A       		.byte	0x1a
 4371 0710 24       		.byte	0x24
 4372 0711 74       		.byte	0x74
 4373 0712 00       		.sleb128 0
 4374 0713 1A       		.byte	0x1a
 4375 0714 9F       		.byte	0x9f
 4376 0715 00000000 		.4byte	0
 4377 0719 00000000 		.4byte	0
 4378              		.section	.debug_aranges,"",%progbits
 4379 0000 14010000 		.4byte	0x114
 4380 0004 0200     		.2byte	0x2
 4381 0006 00000000 		.4byte	.Ldebug_info0
 4382 000a 04       		.byte	0x4
 4383 000b 00       		.byte	0
 4384 000c 0000     		.2byte	0
 4385 000e 0000     		.2byte	0
 4386 0010 00000000 		.4byte	.LFB111
 4387 0014 70000000 		.4byte	.LFE111-.LFB111
 4388 0018 00000000 		.4byte	.LFB112
 4389 001c 1C000000 		.4byte	.LFE112-.LFB112
 4390 0020 00000000 		.4byte	.LFB113
 4391 0024 A4000000 		.4byte	.LFE113-.LFB113
 4392 0028 00000000 		.4byte	.LFB114
 4393 002c 12000000 		.4byte	.LFE114-.LFB114
 4394 0030 00000000 		.4byte	.LFB115
 4395 0034 B4000000 		.4byte	.LFE115-.LFB115
 4396 0038 00000000 		.4byte	.LFB116
 4397 003c 1A000000 		.4byte	.LFE116-.LFB116
 4398 0040 00000000 		.4byte	.LFB117
 4399 0044 1A000000 		.4byte	.LFE117-.LFB117
 4400 0048 00000000 		.4byte	.LFB118
 4401 004c 1A000000 		.4byte	.LFE118-.LFB118
 4402 0050 00000000 		.4byte	.LFB119
 4403 0054 10000000 		.4byte	.LFE119-.LFB119
 4404 0058 00000000 		.4byte	.LFB120
 4405 005c 16000000 		.4byte	.LFE120-.LFB120
 4406 0060 00000000 		.4byte	.LFB121
 4407 0064 1E000000 		.4byte	.LFE121-.LFB121
 4408 0068 00000000 		.4byte	.LFB122
 4409 006c 20000000 		.4byte	.LFE122-.LFB122
 4410 0070 00000000 		.4byte	.LFB123
ARM GAS  C:\Users\TaisikHam\AppData\Local\Temp\ccNzzKEh.s 			page 79


 4411 0074 48000000 		.4byte	.LFE123-.LFB123
 4412 0078 00000000 		.4byte	.LFB124
 4413 007c 1A000000 		.4byte	.LFE124-.LFB124
 4414 0080 00000000 		.4byte	.LFB125
 4415 0084 1A000000 		.4byte	.LFE125-.LFB125
 4416 0088 00000000 		.4byte	.LFB126
 4417 008c 04000000 		.4byte	.LFE126-.LFB126
 4418 0090 00000000 		.4byte	.LFB127
 4419 0094 04000000 		.4byte	.LFE127-.LFB127
 4420 0098 00000000 		.4byte	.LFB128
 4421 009c 04000000 		.4byte	.LFE128-.LFB128
 4422 00a0 00000000 		.4byte	.LFB129
 4423 00a4 06000000 		.4byte	.LFE129-.LFB129
 4424 00a8 00000000 		.4byte	.LFB130
 4425 00ac 16000000 		.4byte	.LFE130-.LFB130
 4426 00b0 00000000 		.4byte	.LFB131
 4427 00b4 1A000000 		.4byte	.LFE131-.LFB131
 4428 00b8 00000000 		.4byte	.LFB132
 4429 00bc 0C000000 		.4byte	.LFE132-.LFB132
 4430 00c0 00000000 		.4byte	.LFB133
 4431 00c4 0C000000 		.4byte	.LFE133-.LFB133
 4432 00c8 00000000 		.4byte	.LFB134
 4433 00cc 06000000 		.4byte	.LFE134-.LFB134
 4434 00d0 00000000 		.4byte	.LFB135
 4435 00d4 14000000 		.4byte	.LFE135-.LFB135
 4436 00d8 00000000 		.4byte	.LFB136
 4437 00dc 16000000 		.4byte	.LFE136-.LFB136
 4438 00e0 00000000 		.4byte	.LFB137
 4439 00e4 1E000000 		.4byte	.LFE137-.LFB137
 4440 00e8 00000000 		.4byte	.LFB138
 4441 00ec 08000000 		.4byte	.LFE138-.LFB138
 4442 00f0 00000000 		.4byte	.LFB139
 4443 00f4 08000000 		.4byte	.LFE139-.LFB139
 4444 00f8 00000000 		.4byte	.LFB140
 4445 00fc 0C000000 		.4byte	.LFE140-.LFB140
 4446 0100 00000000 		.4byte	.LFB141
 4447 0104 08000000 		.4byte	.LFE141-.LFB141
 4448 0108 00000000 		.4byte	.LFB142
 4449 010c 2A000000 		.4byte	.LFE142-.LFB142
 4450 0110 00000000 		.4byte	0
 4451 0114 00000000 		.4byte	0
 4452              		.section	.debug_ranges,"",%progbits
 4453              	.Ldebug_ranges0:
 4454 0000 00000000 		.4byte	.LFB111
 4455 0004 70000000 		.4byte	.LFE111
 4456 0008 00000000 		.4byte	.LFB112
 4457 000c 1C000000 		.4byte	.LFE112
 4458 0010 00000000 		.4byte	.LFB113
 4459 0014 A4000000 		.4byte	.LFE113
 4460 0018 00000000 		.4byte	.LFB114
 4461 001c 12000000 		.4byte	.LFE114
 4462 0020 00000000 		.4byte	.LFB115
 4463 0024 B4000000 		.4byte	.LFE115
 4464 0028 00000000 		.4byte	.LFB116
 4465 002c 1A000000 		.4byte	.LFE116
 4466 0030 00000000 		.4byte	.LFB117
 4467 0034 1A000000 		.4byte	.LFE117
ARM GAS  C:\Users\TaisikHam\AppData\Local\Temp\ccNzzKEh.s 			page 80


 4468 0038 00000000 		.4byte	.LFB118
 4469 003c 1A000000 		.4byte	.LFE118
 4470 0040 00000000 		.4byte	.LFB119
 4471 0044 10000000 		.4byte	.LFE119
 4472 0048 00000000 		.4byte	.LFB120
 4473 004c 16000000 		.4byte	.LFE120
 4474 0050 00000000 		.4byte	.LFB121
 4475 0054 1E000000 		.4byte	.LFE121
 4476 0058 00000000 		.4byte	.LFB122
 4477 005c 20000000 		.4byte	.LFE122
 4478 0060 00000000 		.4byte	.LFB123
 4479 0064 48000000 		.4byte	.LFE123
 4480 0068 00000000 		.4byte	.LFB124
 4481 006c 1A000000 		.4byte	.LFE124
 4482 0070 00000000 		.4byte	.LFB125
 4483 0074 1A000000 		.4byte	.LFE125
 4484 0078 00000000 		.4byte	.LFB126
 4485 007c 04000000 		.4byte	.LFE126
 4486 0080 00000000 		.4byte	.LFB127
 4487 0084 04000000 		.4byte	.LFE127
 4488 0088 00000000 		.4byte	.LFB128
 4489 008c 04000000 		.4byte	.LFE128
 4490 0090 00000000 		.4byte	.LFB129
 4491 0094 06000000 		.4byte	.LFE129
 4492 0098 00000000 		.4byte	.LFB130
 4493 009c 16000000 		.4byte	.LFE130
 4494 00a0 00000000 		.4byte	.LFB131
 4495 00a4 1A000000 		.4byte	.LFE131
 4496 00a8 00000000 		.4byte	.LFB132
 4497 00ac 0C000000 		.4byte	.LFE132
 4498 00b0 00000000 		.4byte	.LFB133
 4499 00b4 0C000000 		.4byte	.LFE133
 4500 00b8 00000000 		.4byte	.LFB134
 4501 00bc 06000000 		.4byte	.LFE134
 4502 00c0 00000000 		.4byte	.LFB135
 4503 00c4 14000000 		.4byte	.LFE135
 4504 00c8 00000000 		.4byte	.LFB136
 4505 00cc 16000000 		.4byte	.LFE136
 4506 00d0 00000000 		.4byte	.LFB137
 4507 00d4 1E000000 		.4byte	.LFE137
 4508 00d8 00000000 		.4byte	.LFB138
 4509 00dc 08000000 		.4byte	.LFE138
 4510 00e0 00000000 		.4byte	.LFB139
 4511 00e4 08000000 		.4byte	.LFE139
 4512 00e8 00000000 		.4byte	.LFB140
 4513 00ec 0C000000 		.4byte	.LFE140
 4514 00f0 00000000 		.4byte	.LFB141
 4515 00f4 08000000 		.4byte	.LFE141
 4516 00f8 00000000 		.4byte	.LFB142
 4517 00fc 2A000000 		.4byte	.LFE142
 4518 0100 00000000 		.4byte	0
 4519 0104 00000000 		.4byte	0
 4520              		.section	.debug_line,"",%progbits
 4521              	.Ldebug_line0:
 4522 0000 E0040000 		.section	.debug_str,"MS",%progbits,1
 4522      02005601 
 4522      00000201 
ARM GAS  C:\Users\TaisikHam\AppData\Local\Temp\ccNzzKEh.s 			page 81


 4522      FB0E0D00 
 4522      01010101 
 4523              	.LASF87:
 4524 0000 5350495F 		.ascii	"SPI_RxFIFOThresholdConfig\000"
 4524      52784649 
 4524      464F5468 
 4524      72657368 
 4524      6F6C6443 
 4525              	.LASF88:
 4526 001a 5350495F 		.ascii	"SPI_RxFIFOThreshold\000"
 4526      52784649 
 4526      464F5468 
 4526      72657368 
 4526      6F6C6400 
 4527              	.LASF58:
 4528 002e 49324331 		.ascii	"I2C1CLK_Frequency\000"
 4528      434C4B5F 
 4528      46726571 
 4528      75656E63 
 4528      7900
 4529              	.LASF110:
 4530 0040 5350495F 		.ascii	"SPI_I2S_DMACmd\000"
 4530      4932535F 
 4530      444D4143 
 4530      6D6400
 4531              	.LASF86:
 4532 004f 5350495F 		.ascii	"SPI_DataSizeConfig\000"
 4532      44617461 
 4532      53697A65 
 4532      436F6E66 
 4532      696700
 4533              	.LASF40:
 4534 0062 5350495F 		.ascii	"SPI_NSS\000"
 4534      4E535300 
 4535              	.LASF100:
 4536 006a 5350495F 		.ascii	"SPI_ReceiveData8\000"
 4536      52656365 
 4536      69766544 
 4536      61746138 
 4536      00
 4537              	.LASF98:
 4538 007b 73706978 		.ascii	"spixbase\000"
 4538      62617365 
 4538      00
 4539              	.LASF12:
 4540 0084 756E7369 		.ascii	"unsigned int\000"
 4540      676E6564 
 4540      20696E74 
 4540      00
 4541              	.LASF19:
 4542 0091 46756E63 		.ascii	"FunctionalState\000"
 4542      74696F6E 
 4542      616C5374 
 4542      61746500 
 4543              	.LASF72:
 4544 00a1 5350495F 		.ascii	"SPI_Init\000"
 4544      496E6974 
ARM GAS  C:\Users\TaisikHam\AppData\Local\Temp\ccNzzKEh.s 			page 82


 4544      00
 4545              	.LASF70:
 4546 00aa 53504978 		.ascii	"SPIx\000"
 4546      00
 4547              	.LASF26:
 4548 00af 52584352 		.ascii	"RXCRCR\000"
 4548      435200
 4549              	.LASF57:
 4550 00b6 41444333 		.ascii	"ADC34CLK_Frequency\000"
 4550      34434C4B 
 4550      5F467265 
 4550      7175656E 
 4550      637900
 4551              	.LASF68:
 4552 00c9 5350495F 		.ascii	"SPI_I2S_DeInit\000"
 4552      4932535F 
 4552      4465496E 
 4552      697400
 4553              	.LASF116:
 4554 00d8 6974706F 		.ascii	"itpos\000"
 4554      7300
 4555              	.LASF67:
 4556 00de 5243435F 		.ascii	"RCC_ClocksTypeDef\000"
 4556      436C6F63 
 4556      6B735479 
 4556      70654465 
 4556      6600
 4557              	.LASF43:
 4558 00f0 5350495F 		.ascii	"SPI_CRCPolynomial\000"
 4558      43524350 
 4558      6F6C796E 
 4558      6F6D6961 
 4558      6C00
 4559              	.LASF46:
 4560 0102 4932535F 		.ascii	"I2S_Standard\000"
 4560      5374616E 
 4560      64617264 
 4560      00
 4561              	.LASF106:
 4562 010f 5350495F 		.ascii	"SPI_GetCRC\000"
 4562      47657443 
 4562      524300
 4563              	.LASF15:
 4564 011a 466C6167 		.ascii	"FlagStatus\000"
 4564      53746174 
 4564      757300
 4565              	.LASF69:
 4566 0125 5350495F 		.ascii	"SPI_StructInit\000"
 4566      53747275 
 4566      6374496E 
 4566      697400
 4567              	.LASF42:
 4568 0134 5350495F 		.ascii	"SPI_FirstBit\000"
 4568      46697273 
 4568      74426974 
 4568      00
 4569              	.LASF125:
ARM GAS  C:\Users\TaisikHam\AppData\Local\Temp\ccNzzKEh.s 			page 83


 4570 0141 656E6162 		.ascii	"enablestatus\000"
 4570      6C657374 
 4570      61747573 
 4570      00
 4571              	.LASF109:
 4572 014e 5350495F 		.ascii	"SPI_GetCRCPolynomial\000"
 4572      47657443 
 4572      5243506F 
 4572      6C796E6F 
 4572      6D69616C 
 4573              	.LASF45:
 4574 0163 4932535F 		.ascii	"I2S_Mode\000"
 4574      4D6F6465 
 4574      00
 4575              	.LASF66:
 4576 016c 55415254 		.ascii	"UART5CLK_Frequency\000"
 4576      35434C4B 
 4576      5F467265 
 4576      7175656E 
 4576      637900
 4577              	.LASF85:
 4578 017f 4932535F 		.ascii	"I2S_Cmd\000"
 4578      436D6400 
 4579              	.LASF8:
 4580 0187 75696E74 		.ascii	"uint32_t\000"
 4580      33325F74 
 4580      00
 4581              	.LASF56:
 4582 0190 41444331 		.ascii	"ADC12CLK_Frequency\000"
 4582      32434C4B 
 4582      5F467265 
 4582      7175656E 
 4582      637900
 4583              	.LASF35:
 4584 01a3 5350495F 		.ascii	"SPI_Direction\000"
 4584      44697265 
 4584      6374696F 
 4584      6E00
 4585              	.LASF65:
 4586 01b1 55415254 		.ascii	"UART4CLK_Frequency\000"
 4586      34434C4B 
 4586      5F467265 
 4586      7175656E 
 4586      637900
 4587              	.LASF129:
 4588 01c4 474E5520 		.ascii	"GNU C 4.7.2\000"
 4588      4320342E 
 4588      372E3200 
 4589              	.LASF11:
 4590 01d0 6C6F6E67 		.ascii	"long long unsigned int\000"
 4590      206C6F6E 
 4590      6720756E 
 4590      7369676E 
 4590      65642069 
 4591              	.LASF49:
 4592 01e7 4932535F 		.ascii	"I2S_AudioFreq\000"
 4592      41756469 
ARM GAS  C:\Users\TaisikHam\AppData\Local\Temp\ccNzzKEh.s 			page 84


 4592      6F467265 
 4592      7100
 4593              	.LASF124:
 4594 01f5 5350495F 		.ascii	"SPI_I2S_GetITStatus\000"
 4594      4932535F 
 4594      47657449 
 4594      54537461 
 4594      74757300 
 4595              	.LASF52:
 4596 0209 53595343 		.ascii	"SYSCLK_Frequency\000"
 4596      4C4B5F46 
 4596      72657175 
 4596      656E6379 
 4596      00
 4597              	.LASF60:
 4598 021a 54494D31 		.ascii	"TIM1CLK_Frequency\000"
 4598      434C4B5F 
 4598      46726571 
 4598      75656E63 
 4598      7900
 4599              	.LASF44:
 4600 022c 5350495F 		.ascii	"SPI_InitTypeDef_A\000"
 4600      496E6974 
 4600      54797065 
 4600      4465665F 
 4600      4100
 4601              	.LASF76:
 4602 023e 746D7072 		.ascii	"tmpreg\000"
 4602      656700
 4603              	.LASF101:
 4604 0245 5350495F 		.ascii	"SPI_I2S_ReceiveData16\000"
 4604      4932535F 
 4604      52656365 
 4604      69766544 
 4604      61746131 
 4605              	.LASF16:
 4606 025b 49545374 		.ascii	"ITStatus\000"
 4606      61747573 
 4606      00
 4607              	.LASF53:
 4608 0264 48434C4B 		.ascii	"HCLK_Frequency\000"
 4608      5F467265 
 4608      7175656E 
 4608      637900
 4609              	.LASF73:
 4610 0273 4932535F 		.ascii	"I2S_StructInit\000"
 4610      53747275 
 4610      6374496E 
 4610      697400
 4611              	.LASF28:
 4612 0282 54584352 		.ascii	"TXCRCR\000"
 4612      435200
 4613              	.LASF83:
 4614 0289 4E657753 		.ascii	"NewState\000"
 4614      74617465 
 4614      00
 4615              	.LASF114:
ARM GAS  C:\Users\TaisikHam\AppData\Local\Temp\ccNzzKEh.s 			page 85


 4616 0292 5350495F 		.ascii	"SPI_I2S_ITConfig\000"
 4616      4932535F 
 4616      4954436F 
 4616      6E666967 
 4616      00
 4617              	.LASF84:
 4618 02a3 5350495F 		.ascii	"SPI_TIModeCmd\000"
 4618      54494D6F 
 4618      6465436D 
 4618      6400
 4619              	.LASF17:
 4620 02b1 44495341 		.ascii	"DISABLE\000"
 4620      424C4500 
 4621              	.LASF82:
 4622 02b9 5350495F 		.ascii	"SPI_Cmd\000"
 4622      436D6400 
 4623              	.LASF112:
 4624 02c1 5350495F 		.ascii	"SPI_LastDMATransferCmd\000"
 4624      4C617374 
 4624      444D4154 
 4624      72616E73 
 4624      66657243 
 4625              	.LASF130:
 4626 02d8 2E2E2F2E 		.ascii	"../../../Testhal_wrk/STM32F30x/Gyro/stm32f30x_spi.c"
 4626      2E2F2E2E 
 4626      2F546573 
 4626      7468616C 
 4626      5F77726B 
 4627 030b 00       		.ascii	"\000"
 4628              	.LASF79:
 4629 030c 7061636B 		.ascii	"packetlength\000"
 4629      65746C65 
 4629      6E677468 
 4629      00
 4630              	.LASF36:
 4631 0319 5350495F 		.ascii	"SPI_Mode\000"
 4631      4D6F6465 
 4631      00
 4632              	.LASF3:
 4633 0322 75696E74 		.ascii	"uint8_t\000"
 4633      385F7400 
 4634              	.LASF96:
 4635 032a 5350495F 		.ascii	"SPI_SendData8\000"
 4635      53656E64 
 4635      44617461 
 4635      3800
 4636              	.LASF111:
 4637 0338 5350495F 		.ascii	"SPI_I2S_DMAReq\000"
 4637      4932535F 
 4637      444D4152 
 4637      657100
 4638              	.LASF120:
 4639 0347 5350495F 		.ascii	"SPI_I2S_GetFlagStatus\000"
 4639      4932535F 
 4639      47657446 
 4639      6C616753 
 4639      74617475 
ARM GAS  C:\Users\TaisikHam\AppData\Local\Temp\ccNzzKEh.s 			page 86


 4640              	.LASF10:
 4641 035d 6C6F6E67 		.ascii	"long long int\000"
 4641      206C6F6E 
 4641      6720696E 
 4641      7400
 4642              	.LASF39:
 4643 036b 5350495F 		.ascii	"SPI_CPHA\000"
 4643      43504841 
 4643      00
 4644              	.LASF128:
 4645 0374 5243435F 		.ascii	"RCC_GetClocksFreq\000"
 4645      47657443 
 4645      6C6F636B 
 4645      73467265 
 4645      7100
 4646              	.LASF108:
 4647 0386 63726372 		.ascii	"crcreg\000"
 4647      656700
 4648              	.LASF104:
 4649 038d 5350495F 		.ascii	"SPI_CalculateCRC\000"
 4649      43616C63 
 4649      756C6174 
 4649      65435243 
 4649      00
 4650              	.LASF103:
 4651 039e 5350495F 		.ascii	"SPI_CRCLength\000"
 4651      4352434C 
 4651      656E6774 
 4651      6800
 4652              	.LASF118:
 4653 03ac 5350495F 		.ascii	"SPI_GetTransmissionFIFOStatus\000"
 4653      47657454 
 4653      72616E73 
 4653      6D697373 
 4653      696F6E46 
 4654              	.LASF41:
 4655 03ca 5350495F 		.ascii	"SPI_BaudRatePrescaler\000"
 4655      42617564 
 4655      52617465 
 4655      50726573 
 4655      63616C65 
 4656              	.LASF90:
 4657 03e0 5350495F 		.ascii	"SPI_NSSInternalSoftwareConfig\000"
 4657      4E535349 
 4657      6E746572 
 4657      6E616C53 
 4657      6F667477 
 4658              	.LASF123:
 4659 03fe 5350495F 		.ascii	"SPI_I2S_ClearFlag\000"
 4659      4932535F 
 4659      436C6561 
 4659      72466C61 
 4659      6700
 4660              	.LASF32:
 4661 0410 49325350 		.ascii	"I2SPR\000"
 4661      5200
 4662              	.LASF105:
ARM GAS  C:\Users\TaisikHam\AppData\Local\Temp\ccNzzKEh.s 			page 87


 4663 0416 5350495F 		.ascii	"SPI_TransmitCRC\000"
 4663      5472616E 
 4663      736D6974 
 4663      43524300 
 4664              	.LASF127:
 4665 0426 5243435F 		.ascii	"RCC_APB2PeriphResetCmd\000"
 4665      41504232 
 4665      50657269 
 4665      70685265 
 4665      73657443 
 4666              	.LASF80:
 4667 043d 5243435F 		.ascii	"RCC_Clocks\000"
 4667      436C6F63 
 4667      6B7300
 4668              	.LASF4:
 4669 0448 75696E74 		.ascii	"uint16_t\000"
 4669      31365F74 
 4669      00
 4670              	.LASF117:
 4671 0451 69746D61 		.ascii	"itmask\000"
 4671      736B00
 4672              	.LASF48:
 4673 0458 4932535F 		.ascii	"I2S_MCLKOutput\000"
 4673      4D434C4B 
 4673      4F757470 
 4673      757400
 4674              	.LASF62:
 4675 0467 55534152 		.ascii	"USART1CLK_Frequency\000"
 4675      5431434C 
 4675      4B5F4672 
 4675      65717565 
 4675      6E637900 
 4676              	.LASF131:
 4677 047b 633A5C55 		.ascii	"c:\\Users\\TaisikHam\\Documents\\GitHub\\ChibiOS\\t"
 4677      73657273 
 4677      5C546169 
 4677      73696B48 
 4677      616D5C44 
 4678 04a8 65737468 		.ascii	"esthal_wrk\\STM32F30x\\TS_SPI\000"
 4678      616C5F77 
 4678      726B5C53 
 4678      544D3332 
 4678      46333078 
 4679              	.LASF77:
 4680 04c4 69327364 		.ascii	"i2sdiv\000"
 4680      697600
 4681              	.LASF95:
 4682 04cb 5350495F 		.ascii	"SPI_NSSPulseModeCmd\000"
 4682      4E535350 
 4682      756C7365 
 4682      4D6F6465 
 4682      436D6400 
 4683              	.LASF20:
 4684 04df 52455345 		.ascii	"RESERVED0\000"
 4684      52564544 
 4684      3000
 4685              	.LASF21:
ARM GAS  C:\Users\TaisikHam\AppData\Local\Temp\ccNzzKEh.s 			page 88


 4686 04e9 52455345 		.ascii	"RESERVED1\000"
 4686      52564544 
 4686      3100
 4687              	.LASF22:
 4688 04f3 52455345 		.ascii	"RESERVED2\000"
 4688      52564544 
 4688      3200
 4689              	.LASF23:
 4690 04fd 52455345 		.ascii	"RESERVED3\000"
 4690      52564544 
 4690      3300
 4691              	.LASF25:
 4692 0507 52455345 		.ascii	"RESERVED4\000"
 4692      52564544 
 4692      3400
 4693              	.LASF27:
 4694 0511 52455345 		.ascii	"RESERVED5\000"
 4694      52564544 
 4694      3500
 4695              	.LASF29:
 4696 051b 52455345 		.ascii	"RESERVED6\000"
 4696      52564544 
 4696      3600
 4697              	.LASF2:
 4698 0525 73686F72 		.ascii	"short int\000"
 4698      7420696E 
 4698      7400
 4699              	.LASF33:
 4700 052f 52455345 		.ascii	"RESERVED8\000"
 4700      52564544 
 4700      3800
 4701              	.LASF115:
 4702 0539 5350495F 		.ascii	"SPI_I2S_IT\000"
 4702      4932535F 
 4702      495400
 4703              	.LASF51:
 4704 0544 4932535F 		.ascii	"I2S_InitTypeDef\000"
 4704      496E6974 
 4704      54797065 
 4704      44656600 
 4705              	.LASF61:
 4706 0554 54494D38 		.ascii	"TIM8CLK_Frequency\000"
 4706      434C4B5F 
 4706      46726571 
 4706      75656E63 
 4706      7900
 4707              	.LASF7:
 4708 0566 6C6F6E67 		.ascii	"long int\000"
 4708      20696E74 
 4708      00
 4709              	.LASF50:
 4710 056f 4932535F 		.ascii	"I2S_CPOL\000"
 4710      43504F4C 
 4710      00
 4711              	.LASF132:
 4712 0578 49544D5F 		.ascii	"ITM_RxBuffer\000"
 4712      52784275 
ARM GAS  C:\Users\TaisikHam\AppData\Local\Temp\ccNzzKEh.s 			page 89


 4712      66666572 
 4712      00
 4713              	.LASF102:
 4714 0585 5350495F 		.ascii	"SPI_CRCLengthConfig\000"
 4714      4352434C 
 4714      656E6774 
 4714      68436F6E 
 4714      66696700 
 4715              	.LASF63:
 4716 0599 55534152 		.ascii	"USART2CLK_Frequency\000"
 4716      5432434C 
 4716      4B5F4672 
 4716      65717565 
 4716      6E637900 
 4717              	.LASF64:
 4718 05ad 55534152 		.ascii	"USART3CLK_Frequency\000"
 4718      5433434C 
 4718      4B5F4672 
 4718      65717565 
 4718      6E637900 
 4719              	.LASF14:
 4720 05c1 52455345 		.ascii	"RESET\000"
 4720      5400
 4721              	.LASF119:
 4722 05c7 5350495F 		.ascii	"SPI_GetReceptionFIFOStatus\000"
 4722      47657452 
 4722      65636570 
 4722      74696F6E 
 4722      4649464F 
 4723              	.LASF55:
 4724 05e2 50434C4B 		.ascii	"PCLK2_Frequency\000"
 4724      325F4672 
 4724      65717565 
 4724      6E637900 
 4725              	.LASF121:
 4726 05f2 5350495F 		.ascii	"SPI_I2S_FLAG\000"
 4726      4932535F 
 4726      464C4147 
 4726      00
 4727              	.LASF74:
 4728 05ff 4932535F 		.ascii	"I2S_InitStruct\000"
 4728      496E6974 
 4728      53747275 
 4728      637400
 4729              	.LASF18:
 4730 060e 454E4142 		.ascii	"ENABLE\000"
 4730      4C4500
 4731              	.LASF13:
 4732 0615 73697A65 		.ascii	"sizetype\000"
 4732      74797065 
 4732      00
 4733              	.LASF9:
 4734 061e 6C6F6E67 		.ascii	"long unsigned int\000"
 4734      20756E73 
 4734      69676E65 
 4734      6420696E 
 4734      7400
ARM GAS  C:\Users\TaisikHam\AppData\Local\Temp\ccNzzKEh.s 			page 90


 4735              	.LASF75:
 4736 0630 4932535F 		.ascii	"I2S_Init\000"
 4736      496E6974 
 4736      00
 4737              	.LASF6:
 4738 0639 696E7433 		.ascii	"int32_t\000"
 4738      325F7400 
 4739              	.LASF113:
 4740 0641 5350495F 		.ascii	"SPI_LastDMATransfer\000"
 4740      4C617374 
 4740      444D4154 
 4740      72616E73 
 4740      66657200 
 4741              	.LASF24:
 4742 0655 43524350 		.ascii	"CRCPR\000"
 4742      5200
 4743              	.LASF99:
 4744 065b 5350495F 		.ascii	"SPI_I2S_SendData16\000"
 4744      4932535F 
 4744      53656E64 
 4744      44617461 
 4744      313600
 4745              	.LASF1:
 4746 066e 756E7369 		.ascii	"unsigned char\000"
 4746      676E6564 
 4746      20636861 
 4746      7200
 4747              	.LASF126:
 4748 067c 5243435F 		.ascii	"RCC_APB1PeriphResetCmd\000"
 4748      41504231 
 4748      50657269 
 4748      70685265 
 4748      73657443 
 4749              	.LASF93:
 4750 0693 49325378 		.ascii	"I2Sxext\000"
 4750      65787400 
 4751              	.LASF71:
 4752 069b 5350495F 		.ascii	"SPI_InitStruct\000"
 4752      496E6974 
 4752      53747275 
 4752      637400
 4753              	.LASF91:
 4754 06aa 5350495F 		.ascii	"SPI_NSSInternalSoft\000"
 4754      4E535349 
 4754      6E746572 
 4754      6E616C53 
 4754      6F667400 
 4755              	.LASF30:
 4756 06be 49325343 		.ascii	"I2SCFGR\000"
 4756      46475200 
 4757              	.LASF107:
 4758 06c6 5350495F 		.ascii	"SPI_CRC\000"
 4758      43524300 
 4759              	.LASF54:
 4760 06ce 50434C4B 		.ascii	"PCLK1_Frequency\000"
 4760      315F4672 
 4760      65717565 
ARM GAS  C:\Users\TaisikHam\AppData\Local\Temp\ccNzzKEh.s 			page 91


 4760      6E637900 
 4761              	.LASF34:
 4762 06de 5350495F 		.ascii	"SPI_TypeDef\000"
 4762      54797065 
 4762      44656600 
 4763              	.LASF47:
 4764 06ea 4932535F 		.ascii	"I2S_DataFormat\000"
 4764      44617461 
 4764      466F726D 
 4764      617400
 4765              	.LASF89:
 4766 06f9 5350495F 		.ascii	"SPI_BiDirectionalLineConfig\000"
 4766      42694469 
 4766      72656374 
 4766      696F6E61 
 4766      6C4C696E 
 4767              	.LASF0:
 4768 0715 7369676E 		.ascii	"signed char\000"
 4768      65642063 
 4768      68617200 
 4769              	.LASF5:
 4770 0721 73686F72 		.ascii	"short unsigned int\000"
 4770      7420756E 
 4770      7369676E 
 4770      65642069 
 4770      6E7400
 4771              	.LASF81:
 4772 0734 736F7572 		.ascii	"sourceclock\000"
 4772      6365636C 
 4772      6F636B00 
 4773              	.LASF122:
 4774 0740 62697473 		.ascii	"bitstatus\000"
 4774      74617475 
 4774      7300
 4775              	.LASF94:
 4776 074a 5350495F 		.ascii	"SPI_SSOutputCmd\000"
 4776      53534F75 
 4776      74707574 
 4776      436D6400 
 4777              	.LASF37:
 4778 075a 5350495F 		.ascii	"SPI_DataSize\000"
 4778      44617461 
 4778      53697A65 
 4778      00
 4779              	.LASF31:
 4780 0767 52455345 		.ascii	"RESERVED7\000"
 4780      52564544 
 4780      3700
 4781              	.LASF92:
 4782 0771 4932535F 		.ascii	"I2S_FullDuplexConfig\000"
 4782      46756C6C 
 4782      4475706C 
 4782      6578436F 
 4782      6E666967 
 4783              	.LASF38:
 4784 0786 5350495F 		.ascii	"SPI_CPOL\000"
 4784      43504F4C 
ARM GAS  C:\Users\TaisikHam\AppData\Local\Temp\ccNzzKEh.s 			page 92


 4784      00
 4785              	.LASF59:
 4786 078f 49324332 		.ascii	"I2C2CLK_Frequency\000"
 4786      434C4B5F 
 4786      46726571 
 4786      75656E63 
 4786      7900
 4787              	.LASF97:
 4788 07a1 44617461 		.ascii	"Data\000"
 4788      00
 4789              	.LASF78:
 4790 07a6 6932736F 		.ascii	"i2sodd\000"
 4790      646400
 4791              		.ident	"GCC: (GNU) 4.7.2"
ARM GAS  C:\Users\TaisikHam\AppData\Local\Temp\ccNzzKEh.s 			page 93


DEFINED SYMBOLS
                            *ABS*:00000000 stm32f30x_spi.c
C:\Users\TaisikHam\AppData\Local\Temp\ccNzzKEh.s:19     .text.SPI_I2S_DeInit:00000000 $t
C:\Users\TaisikHam\AppData\Local\Temp\ccNzzKEh.s:25     .text.SPI_I2S_DeInit:00000000 SPI_I2S_DeInit
C:\Users\TaisikHam\AppData\Local\Temp\ccNzzKEh.s:103    .text.SPI_StructInit:00000000 $t
C:\Users\TaisikHam\AppData\Local\Temp\ccNzzKEh.s:109    .text.SPI_StructInit:00000000 SPI_StructInit
C:\Users\TaisikHam\AppData\Local\Temp\ccNzzKEh.s:145    .text.SPI_Init:00000000 $t
C:\Users\TaisikHam\AppData\Local\Temp\ccNzzKEh.s:151    .text.SPI_Init:00000000 SPI_Init
C:\Users\TaisikHam\AppData\Local\Temp\ccNzzKEh.s:292    .text.I2S_StructInit:00000000 $t
C:\Users\TaisikHam\AppData\Local\Temp\ccNzzKEh.s:298    .text.I2S_StructInit:00000000 I2S_StructInit
C:\Users\TaisikHam\AppData\Local\Temp\ccNzzKEh.s:327    .text.I2S_Init:00000000 $t
C:\Users\TaisikHam\AppData\Local\Temp\ccNzzKEh.s:333    .text.I2S_Init:00000000 I2S_Init
C:\Users\TaisikHam\AppData\Local\Temp\ccNzzKEh.s:482    .text.SPI_Cmd:00000000 $t
C:\Users\TaisikHam\AppData\Local\Temp\ccNzzKEh.s:488    .text.SPI_Cmd:00000000 SPI_Cmd
C:\Users\TaisikHam\AppData\Local\Temp\ccNzzKEh.s:516    .text.SPI_TIModeCmd:00000000 $t
C:\Users\TaisikHam\AppData\Local\Temp\ccNzzKEh.s:522    .text.SPI_TIModeCmd:00000000 SPI_TIModeCmd
C:\Users\TaisikHam\AppData\Local\Temp\ccNzzKEh.s:550    .text.I2S_Cmd:00000000 $t
C:\Users\TaisikHam\AppData\Local\Temp\ccNzzKEh.s:556    .text.I2S_Cmd:00000000 I2S_Cmd
C:\Users\TaisikHam\AppData\Local\Temp\ccNzzKEh.s:584    .text.SPI_DataSizeConfig:00000000 $t
C:\Users\TaisikHam\AppData\Local\Temp\ccNzzKEh.s:590    .text.SPI_DataSizeConfig:00000000 SPI_DataSizeConfig
C:\Users\TaisikHam\AppData\Local\Temp\ccNzzKEh.s:617    .text.SPI_RxFIFOThresholdConfig:00000000 $t
C:\Users\TaisikHam\AppData\Local\Temp\ccNzzKEh.s:623    .text.SPI_RxFIFOThresholdConfig:00000000 SPI_RxFIFOThresholdConfig
C:\Users\TaisikHam\AppData\Local\Temp\ccNzzKEh.s:648    .text.SPI_BiDirectionalLineConfig:00000000 $t
C:\Users\TaisikHam\AppData\Local\Temp\ccNzzKEh.s:654    .text.SPI_BiDirectionalLineConfig:00000000 SPI_BiDirectionalLineConfig
C:\Users\TaisikHam\AppData\Local\Temp\ccNzzKEh.s:684    .text.SPI_NSSInternalSoftwareConfig:00000000 $t
C:\Users\TaisikHam\AppData\Local\Temp\ccNzzKEh.s:690    .text.SPI_NSSInternalSoftwareConfig:00000000 SPI_NSSInternalSoftwareConfig
C:\Users\TaisikHam\AppData\Local\Temp\ccNzzKEh.s:721    .text.I2S_FullDuplexConfig:00000000 $t
C:\Users\TaisikHam\AppData\Local\Temp\ccNzzKEh.s:727    .text.I2S_FullDuplexConfig:00000000 I2S_FullDuplexConfig
C:\Users\TaisikHam\AppData\Local\Temp\ccNzzKEh.s:798    .text.SPI_SSOutputCmd:00000000 $t
C:\Users\TaisikHam\AppData\Local\Temp\ccNzzKEh.s:804    .text.SPI_SSOutputCmd:00000000 SPI_SSOutputCmd
C:\Users\TaisikHam\AppData\Local\Temp\ccNzzKEh.s:832    .text.SPI_NSSPulseModeCmd:00000000 $t
C:\Users\TaisikHam\AppData\Local\Temp\ccNzzKEh.s:838    .text.SPI_NSSPulseModeCmd:00000000 SPI_NSSPulseModeCmd
C:\Users\TaisikHam\AppData\Local\Temp\ccNzzKEh.s:866    .text.SPI_SendData8:00000000 $t
C:\Users\TaisikHam\AppData\Local\Temp\ccNzzKEh.s:872    .text.SPI_SendData8:00000000 SPI_SendData8
C:\Users\TaisikHam\AppData\Local\Temp\ccNzzKEh.s:887    .text.SPI_I2S_SendData16:00000000 $t
C:\Users\TaisikHam\AppData\Local\Temp\ccNzzKEh.s:893    .text.SPI_I2S_SendData16:00000000 SPI_I2S_SendData16
C:\Users\TaisikHam\AppData\Local\Temp\ccNzzKEh.s:908    .text.SPI_ReceiveData8:00000000 $t
C:\Users\TaisikHam\AppData\Local\Temp\ccNzzKEh.s:914    .text.SPI_ReceiveData8:00000000 SPI_ReceiveData8
C:\Users\TaisikHam\AppData\Local\Temp\ccNzzKEh.s:931    .text.SPI_I2S_ReceiveData16:00000000 $t
C:\Users\TaisikHam\AppData\Local\Temp\ccNzzKEh.s:937    .text.SPI_I2S_ReceiveData16:00000000 SPI_I2S_ReceiveData16
C:\Users\TaisikHam\AppData\Local\Temp\ccNzzKEh.s:955    .text.SPI_CRCLengthConfig:00000000 $t
C:\Users\TaisikHam\AppData\Local\Temp\ccNzzKEh.s:961    .text.SPI_CRCLengthConfig:00000000 SPI_CRCLengthConfig
C:\Users\TaisikHam\AppData\Local\Temp\ccNzzKEh.s:986    .text.SPI_CalculateCRC:00000000 $t
C:\Users\TaisikHam\AppData\Local\Temp\ccNzzKEh.s:992    .text.SPI_CalculateCRC:00000000 SPI_CalculateCRC
C:\Users\TaisikHam\AppData\Local\Temp\ccNzzKEh.s:1020   .text.SPI_TransmitCRC:00000000 $t
C:\Users\TaisikHam\AppData\Local\Temp\ccNzzKEh.s:1026   .text.SPI_TransmitCRC:00000000 SPI_TransmitCRC
C:\Users\TaisikHam\AppData\Local\Temp\ccNzzKEh.s:1044   .text.SPI_GetCRC:00000000 $t
C:\Users\TaisikHam\AppData\Local\Temp\ccNzzKEh.s:1050   .text.SPI_GetCRC:00000000 SPI_GetCRC
C:\Users\TaisikHam\AppData\Local\Temp\ccNzzKEh.s:1074   .text.SPI_GetCRCPolynomial:00000000 $t
C:\Users\TaisikHam\AppData\Local\Temp\ccNzzKEh.s:1080   .text.SPI_GetCRCPolynomial:00000000 SPI_GetCRCPolynomial
C:\Users\TaisikHam\AppData\Local\Temp\ccNzzKEh.s:1098   .text.SPI_I2S_DMACmd:00000000 $t
C:\Users\TaisikHam\AppData\Local\Temp\ccNzzKEh.s:1104   .text.SPI_I2S_DMACmd:00000000 SPI_I2S_DMACmd
C:\Users\TaisikHam\AppData\Local\Temp\ccNzzKEh.s:1133   .text.SPI_LastDMATransferCmd:00000000 $t
C:\Users\TaisikHam\AppData\Local\Temp\ccNzzKEh.s:1139   .text.SPI_LastDMATransferCmd:00000000 SPI_LastDMATransferCmd
C:\Users\TaisikHam\AppData\Local\Temp\ccNzzKEh.s:1164   .text.SPI_I2S_ITConfig:00000000 $t
C:\Users\TaisikHam\AppData\Local\Temp\ccNzzKEh.s:1170   .text.SPI_I2S_ITConfig:00000000 SPI_I2S_ITConfig
C:\Users\TaisikHam\AppData\Local\Temp\ccNzzKEh.s:1208   .text.SPI_GetTransmissionFIFOStatus:00000000 $t
ARM GAS  C:\Users\TaisikHam\AppData\Local\Temp\ccNzzKEh.s 			page 94


C:\Users\TaisikHam\AppData\Local\Temp\ccNzzKEh.s:1214   .text.SPI_GetTransmissionFIFOStatus:00000000 SPI_GetTransmissionFIFOStatus
C:\Users\TaisikHam\AppData\Local\Temp\ccNzzKEh.s:1232   .text.SPI_GetReceptionFIFOStatus:00000000 $t
C:\Users\TaisikHam\AppData\Local\Temp\ccNzzKEh.s:1238   .text.SPI_GetReceptionFIFOStatus:00000000 SPI_GetReceptionFIFOStatus
C:\Users\TaisikHam\AppData\Local\Temp\ccNzzKEh.s:1256   .text.SPI_I2S_GetFlagStatus:00000000 $t
C:\Users\TaisikHam\AppData\Local\Temp\ccNzzKEh.s:1262   .text.SPI_I2S_GetFlagStatus:00000000 SPI_I2S_GetFlagStatus
C:\Users\TaisikHam\AppData\Local\Temp\ccNzzKEh.s:1284   .text.SPI_I2S_ClearFlag:00000000 $t
C:\Users\TaisikHam\AppData\Local\Temp\ccNzzKEh.s:1290   .text.SPI_I2S_ClearFlag:00000000 SPI_I2S_ClearFlag
C:\Users\TaisikHam\AppData\Local\Temp\ccNzzKEh.s:1308   .text.SPI_I2S_GetITStatus:00000000 $t
C:\Users\TaisikHam\AppData\Local\Temp\ccNzzKEh.s:1314   .text.SPI_I2S_GetITStatus:00000000 SPI_I2S_GetITStatus
                     .debug_frame:00000010 $d

UNDEFINED SYMBOLS
RCC_APB1PeriphResetCmd
RCC_APB2PeriphResetCmd
RCC_GetClocksFreq
