ARM GAS  C:\Users\TaisikHam\AppData\Local\Temp\cclELrfj.s 			page 1


   1              		.syntax unified
   2              		.cpu cortex-m4
   3              		.fpu softvfp
   4              		.eabi_attribute 20, 1
   5              		.eabi_attribute 21, 1
   6              		.eabi_attribute 23, 3
   7              		.eabi_attribute 24, 1
   8              		.eabi_attribute 25, 1
   9              		.eabi_attribute 26, 1
  10              		.eabi_attribute 30, 2
  11              		.eabi_attribute 34, 1
  12              		.eabi_attribute 18, 4
  13              		.thumb
  14              		.file	"stm32f30x_rcc.c"
  15              		.text
  16              	.Ltext0:
  17              		.cfi_sections	.debug_frame
  18              		.section	.text.RCC_DeInit,"ax",%progbits
  19              		.align	2
  20              		.p2align 4,,15
  21              		.global	RCC_DeInit
  22              		.thumb
  23              		.thumb_func
  24              		.type	RCC_DeInit, %function
  25              	RCC_DeInit:
  26              	.LFB111:
  27              		.file 1 "../../../Testhal_wrk/STM32F30x/Gyro/stm32f30x_rcc.c"
  28              		.loc 1 203 0
  29              		.cfi_startproc
  30              		@ args = 0, pretend = 0, frame = 0
  31              		@ frame_needed = 0, uses_anonymous_args = 0
  32              		@ link register save eliminated.
  33              		.loc 1 205 0
  34 0000 4FF48053 		mov	r3, #4096
  35 0004 C4F20203 		movt	r3, 16386
  36              		.loc 1 208 0
  37 0008 4FF44042 		mov	r2, #49152
  38              		.loc 1 205 0
  39 000c 1968     		ldr	r1, [r3, #0]
  40 000e 41F00101 		orr	r1, r1, #1
  41 0012 1960     		str	r1, [r3, #0]
  42              		.loc 1 208 0
  43 0014 5968     		ldr	r1, [r3, #4]
  44 0016 CFF6FF02 		movt	r2, 63743
  45 001a 0A40     		ands	r2, r2, r1
  46 001c 5A60     		str	r2, [r3, #4]
  47              		.loc 1 211 0
  48 001e 1A68     		ldr	r2, [r3, #0]
  49 0020 22F08472 		bic	r2, r2, #17301504
  50 0024 22F48032 		bic	r2, r2, #65536
  51 0028 1A60     		str	r2, [r3, #0]
  52              		.loc 1 214 0
  53 002a 1A68     		ldr	r2, [r3, #0]
  54 002c 22F48022 		bic	r2, r2, #262144
  55 0030 1A60     		str	r2, [r3, #0]
  56              		.loc 1 217 0
  57 0032 5A68     		ldr	r2, [r3, #4]
ARM GAS  C:\Users\TaisikHam\AppData\Local\Temp\cclELrfj.s 			page 2


  58 0034 22F4FE02 		bic	r2, r2, #8323072
  59 0038 5A60     		str	r2, [r3, #4]
  60              		.loc 1 220 0
  61 003a DA6A     		ldr	r2, [r3, #44]
  62 003c 22F47F52 		bic	r2, r2, #16320
  63 0040 22F03F02 		bic	r2, r2, #63
  64 0044 DA62     		str	r2, [r3, #44]
  65              		.loc 1 223 0
  66 0046 196B     		ldr	r1, [r3, #48]
  67 0048 4FF6CC42 		movw	r2, #64716
  68 004c C0F60072 		movt	r2, 3840
  69 0050 0A40     		ands	r2, r2, r1
  70 0052 1A63     		str	r2, [r3, #48]
  71              		.loc 1 226 0
  72 0054 0022     		movs	r2, #0
  73 0056 9A60     		str	r2, [r3, #8]
  74 0058 7047     		bx	lr
  75              		.cfi_endproc
  76              	.LFE111:
  77              		.size	RCC_DeInit, .-RCC_DeInit
  78 005a 00BFAFF3 		.section	.text.RCC_HSEConfig,"ax",%progbits
  78      0080
  79              		.align	2
  80              		.p2align 4,,15
  81              		.global	RCC_HSEConfig
  82              		.thumb
  83              		.thumb_func
  84              		.type	RCC_HSEConfig, %function
  85              	RCC_HSEConfig:
  86              	.LFB112:
  87              		.loc 1 250 0
  88              		.cfi_startproc
  89              		@ args = 0, pretend = 0, frame = 0
  90              		@ frame_needed = 0, uses_anonymous_args = 0
  91              		@ link register save eliminated.
  92              	.LVL0:
  93              		.loc 1 255 0
  94 0000 41F20203 		movw	r3, #4098
  95 0004 C4F20203 		movt	r3, 16386
  96 0008 0022     		movs	r2, #0
  97 000a 1A70     		strb	r2, [r3, #0]
  98              		.loc 1 258 0
  99 000c 1870     		strb	r0, [r3, #0]
 100 000e 7047     		bx	lr
 101              		.cfi_endproc
 102              	.LFE112:
 103              		.size	RCC_HSEConfig, .-RCC_HSEConfig
 104              		.section	.text.RCC_AdjustHSICalibrationValue,"ax",%progbits
 105              		.align	2
 106              		.p2align 4,,15
 107              		.global	RCC_AdjustHSICalibrationValue
 108              		.thumb
 109              		.thumb_func
 110              		.type	RCC_AdjustHSICalibrationValue, %function
 111              	RCC_AdjustHSICalibrationValue:
 112              	.LFB114:
 113              		.loc 1 309 0
ARM GAS  C:\Users\TaisikHam\AppData\Local\Temp\cclELrfj.s 			page 3


 114              		.cfi_startproc
 115              		@ args = 0, pretend = 0, frame = 0
 116              		@ frame_needed = 0, uses_anonymous_args = 0
 117              		@ link register save eliminated.
 118              	.LVL1:
 119              		.loc 1 315 0
 120 0000 4FF48053 		mov	r3, #4096
 121 0004 C4F20203 		movt	r3, 16386
 122 0008 1A68     		ldr	r2, [r3, #0]
 123              	.LVL2:
 124              		.loc 1 318 0
 125 000a 22F0F802 		bic	r2, r2, #248
 126              	.LVL3:
 127              		.loc 1 321 0
 128 000e 42EAC000 		orr	r0, r2, r0, lsl #3
 129              	.LVL4:
 130              		.loc 1 324 0
 131 0012 1860     		str	r0, [r3, #0]
 132 0014 7047     		bx	lr
 133              		.cfi_endproc
 134              	.LFE114:
 135              		.size	RCC_AdjustHSICalibrationValue, .-RCC_AdjustHSICalibrationValue
 136 0016 00BFAFF3 		.section	.text.RCC_HSICmd,"ax",%progbits
 136      0080AFF3 
 136      0080
 137              		.align	2
 138              		.p2align 4,,15
 139              		.global	RCC_HSICmd
 140              		.thumb
 141              		.thumb_func
 142              		.type	RCC_HSICmd, %function
 143              	RCC_HSICmd:
 144              	.LFB115:
 145              		.loc 1 343 0
 146              		.cfi_startproc
 147              		@ args = 0, pretend = 0, frame = 0
 148              		@ frame_needed = 0, uses_anonymous_args = 0
 149              		@ link register save eliminated.
 150              	.LVL5:
 151              		.loc 1 347 0
 152 0000 0023     		movs	r3, #0
 153 0002 C4F24223 		movt	r3, 16962
 154 0006 1860     		str	r0, [r3, #0]
 155 0008 7047     		bx	lr
 156              		.cfi_endproc
 157              	.LFE115:
 158              		.size	RCC_HSICmd, .-RCC_HSICmd
 159 000a 00BFAFF3 		.section	.text.RCC_LSEConfig,"ax",%progbits
 159      0080
 160              		.align	2
 161              		.p2align 4,,15
 162              		.global	RCC_LSEConfig
 163              		.thumb
 164              		.thumb_func
 165              		.type	RCC_LSEConfig, %function
 166              	RCC_LSEConfig:
 167              	.LFB116:
ARM GAS  C:\Users\TaisikHam\AppData\Local\Temp\cclELrfj.s 			page 4


 168              		.loc 1 368 0
 169              		.cfi_startproc
 170              		@ args = 0, pretend = 0, frame = 0
 171              		@ frame_needed = 0, uses_anonymous_args = 0
 172              		@ link register save eliminated.
 173              	.LVL6:
 174              		.loc 1 374 0
 175 0000 4FF48053 		mov	r3, #4096
 176 0004 C4F20203 		movt	r3, 16386
 177 0008 1A6A     		ldr	r2, [r3, #32]
 178 000a 22F00102 		bic	r2, r2, #1
 179 000e 1A62     		str	r2, [r3, #32]
 180              		.loc 1 377 0
 181 0010 1A6A     		ldr	r2, [r3, #32]
 182 0012 22F00402 		bic	r2, r2, #4
 183 0016 1A62     		str	r2, [r3, #32]
 184              		.loc 1 380 0
 185 0018 1A6A     		ldr	r2, [r3, #32]
 186 001a 1043     		orrs	r0, r0, r2
 187              	.LVL7:
 188 001c 1862     		str	r0, [r3, #32]
 189 001e 7047     		bx	lr
 190              		.cfi_endproc
 191              	.LFE116:
 192              		.size	RCC_LSEConfig, .-RCC_LSEConfig
 193              		.section	.text.RCC_LSEDriveConfig,"ax",%progbits
 194              		.align	2
 195              		.p2align 4,,15
 196              		.global	RCC_LSEDriveConfig
 197              		.thumb
 198              		.thumb_func
 199              		.type	RCC_LSEDriveConfig, %function
 200              	RCC_LSEDriveConfig:
 201              	.LFB117:
 202              		.loc 1 394 0
 203              		.cfi_startproc
 204              		@ args = 0, pretend = 0, frame = 0
 205              		@ frame_needed = 0, uses_anonymous_args = 0
 206              		@ link register save eliminated.
 207              	.LVL8:
 208              		.loc 1 399 0
 209 0000 4FF48053 		mov	r3, #4096
 210 0004 C4F20203 		movt	r3, 16386
 211 0008 1A6A     		ldr	r2, [r3, #32]
 212 000a 22F01802 		bic	r2, r2, #24
 213 000e 1A62     		str	r2, [r3, #32]
 214              		.loc 1 402 0
 215 0010 1A6A     		ldr	r2, [r3, #32]
 216 0012 1043     		orrs	r0, r0, r2
 217              	.LVL9:
 218 0014 1862     		str	r0, [r3, #32]
 219 0016 7047     		bx	lr
 220              		.cfi_endproc
 221              	.LFE117:
 222              		.size	RCC_LSEDriveConfig, .-RCC_LSEDriveConfig
 223 0018 AFF30080 		.section	.text.RCC_LSICmd,"ax",%progbits
 223      AFF30080 
ARM GAS  C:\Users\TaisikHam\AppData\Local\Temp\cclELrfj.s 			page 5


 224              		.align	2
 225              		.p2align 4,,15
 226              		.global	RCC_LSICmd
 227              		.thumb
 228              		.thumb_func
 229              		.type	RCC_LSICmd, %function
 230              	RCC_LSICmd:
 231              	.LFB118:
 232              		.loc 1 418 0
 233              		.cfi_startproc
 234              		@ args = 0, pretend = 0, frame = 0
 235              		@ frame_needed = 0, uses_anonymous_args = 0
 236              		@ link register save eliminated.
 237              	.LVL10:
 238              		.loc 1 422 0
 239 0000 4FF49063 		mov	r3, #1152
 240 0004 C4F24223 		movt	r3, 16962
 241 0008 1860     		str	r0, [r3, #0]
 242 000a 7047     		bx	lr
 243              		.cfi_endproc
 244              	.LFE118:
 245              		.size	RCC_LSICmd, .-RCC_LSICmd
 246 000c AFF30080 		.section	.text.RCC_PLLConfig,"ax",%progbits
 247              		.align	2
 248              		.p2align 4,,15
 249              		.global	RCC_PLLConfig
 250              		.thumb
 251              		.thumb_func
 252              		.type	RCC_PLLConfig, %function
 253              	RCC_PLLConfig:
 254              	.LFB119:
 255              		.loc 1 441 0
 256              		.cfi_startproc
 257              		@ args = 0, pretend = 0, frame = 0
 258              		@ frame_needed = 0, uses_anonymous_args = 0
 259              		@ link register save eliminated.
 260              	.LVL11:
 261              		.loc 1 449 0
 262 0000 4FF48053 		mov	r3, #4096
 263 0004 C4F20203 		movt	r3, 16386
 264 0008 5A68     		ldr	r2, [r3, #4]
 265 000a 22F47412 		bic	r2, r2, #3997696
 266 000e 5A60     		str	r2, [r3, #4]
 267              		.loc 1 452 0
 268 0010 5A68     		ldr	r2, [r3, #4]
 269 0012 1043     		orrs	r0, r0, r2
 270              	.LVL12:
 271 0014 0143     		orrs	r1, r1, r0
 272              	.LVL13:
 273 0016 5960     		str	r1, [r3, #4]
 274 0018 7047     		bx	lr
 275              		.cfi_endproc
 276              	.LFE119:
 277              		.size	RCC_PLLConfig, .-RCC_PLLConfig
 278 001a 00BFAFF3 		.section	.text.RCC_PLLCmd,"ax",%progbits
 278      0080
 279              		.align	2
ARM GAS  C:\Users\TaisikHam\AppData\Local\Temp\cclELrfj.s 			page 6


 280              		.p2align 4,,15
 281              		.global	RCC_PLLCmd
 282              		.thumb
 283              		.thumb_func
 284              		.type	RCC_PLLCmd, %function
 285              	RCC_PLLCmd:
 286              	.LFB120:
 287              		.loc 1 467 0
 288              		.cfi_startproc
 289              		@ args = 0, pretend = 0, frame = 0
 290              		@ frame_needed = 0, uses_anonymous_args = 0
 291              		@ link register save eliminated.
 292              	.LVL14:
 293              		.loc 1 471 0
 294 0000 6023     		movs	r3, #96
 295 0002 C4F24223 		movt	r3, 16962
 296 0006 1860     		str	r0, [r3, #0]
 297 0008 7047     		bx	lr
 298              		.cfi_endproc
 299              	.LFE120:
 300              		.size	RCC_PLLCmd, .-RCC_PLLCmd
 301 000a 00BFAFF3 		.section	.text.RCC_PREDIV1Config,"ax",%progbits
 301      0080
 302              		.align	2
 303              		.p2align 4,,15
 304              		.global	RCC_PREDIV1Config
 305              		.thumb
 306              		.thumb_func
 307              		.type	RCC_PREDIV1Config, %function
 308              	RCC_PREDIV1Config:
 309              	.LFB121:
 310              		.loc 1 482 0
 311              		.cfi_startproc
 312              		@ args = 0, pretend = 0, frame = 0
 313              		@ frame_needed = 0, uses_anonymous_args = 0
 314              		@ link register save eliminated.
 315              	.LVL15:
 316              		.loc 1 488 0
 317 0000 4FF48053 		mov	r3, #4096
 318 0004 C4F20203 		movt	r3, 16386
 319 0008 DA6A     		ldr	r2, [r3, #44]
 320              	.LVL16:
 321              		.loc 1 490 0
 322 000a 22F00F02 		bic	r2, r2, #15
 323              	.LVL17:
 324              		.loc 1 493 0
 325 000e 1043     		orrs	r0, r0, r2
 326              	.LVL18:
 327              		.loc 1 496 0
 328 0010 D862     		str	r0, [r3, #44]
 329 0012 7047     		bx	lr
 330              		.cfi_endproc
 331              	.LFE121:
 332              		.size	RCC_PREDIV1Config, .-RCC_PREDIV1Config
 333 0014 AFF30080 		.section	.text.RCC_ClockSecuritySystemCmd,"ax",%progbits
 333      AFF30080 
 333      AFF30080 
ARM GAS  C:\Users\TaisikHam\AppData\Local\Temp\cclELrfj.s 			page 7


 334              		.align	2
 335              		.p2align 4,,15
 336              		.global	RCC_ClockSecuritySystemCmd
 337              		.thumb
 338              		.thumb_func
 339              		.type	RCC_ClockSecuritySystemCmd, %function
 340              	RCC_ClockSecuritySystemCmd:
 341              	.LFB122:
 342              		.loc 1 511 0
 343              		.cfi_startproc
 344              		@ args = 0, pretend = 0, frame = 0
 345              		@ frame_needed = 0, uses_anonymous_args = 0
 346              		@ link register save eliminated.
 347              	.LVL19:
 348              		.loc 1 515 0
 349 0000 4C23     		movs	r3, #76
 350 0002 C4F24223 		movt	r3, 16962
 351 0006 1860     		str	r0, [r3, #0]
 352 0008 7047     		bx	lr
 353              		.cfi_endproc
 354              	.LFE122:
 355              		.size	RCC_ClockSecuritySystemCmd, .-RCC_ClockSecuritySystemCmd
 356 000a 00BFAFF3 		.section	.text.RCC_MCOConfig,"ax",%progbits
 356      0080
 357              		.align	2
 358              		.p2align 4,,15
 359              		.global	RCC_MCOConfig
 360              		.thumb
 361              		.thumb_func
 362              		.type	RCC_MCOConfig, %function
 363              	RCC_MCOConfig:
 364              	.LFB123:
 365              		.loc 1 534 0
 366              		.cfi_startproc
 367              		@ args = 0, pretend = 0, frame = 0
 368              		@ frame_needed = 0, uses_anonymous_args = 0
 369              		@ link register save eliminated.
 370              	.LVL20:
 371              		.loc 1 539 0
 372 0000 41F20703 		movw	r3, #4103
 373 0004 C4F20203 		movt	r3, 16386
 374 0008 1870     		strb	r0, [r3, #0]
 375 000a 7047     		bx	lr
 376              		.cfi_endproc
 377              	.LFE123:
 378              		.size	RCC_MCOConfig, .-RCC_MCOConfig
 379 000c AFF30080 		.section	.text.RCC_SYSCLKConfig,"ax",%progbits
 380              		.align	2
 381              		.p2align 4,,15
 382              		.global	RCC_SYSCLKConfig
 383              		.thumb
 384              		.thumb_func
 385              		.type	RCC_SYSCLKConfig, %function
 386              	RCC_SYSCLKConfig:
 387              	.LFB124:
 388              		.loc 1 640 0
 389              		.cfi_startproc
ARM GAS  C:\Users\TaisikHam\AppData\Local\Temp\cclELrfj.s 			page 8


 390              		@ args = 0, pretend = 0, frame = 0
 391              		@ frame_needed = 0, uses_anonymous_args = 0
 392              		@ link register save eliminated.
 393              	.LVL21:
 394              		.loc 1 646 0
 395 0000 4FF48053 		mov	r3, #4096
 396 0004 C4F20203 		movt	r3, 16386
 397 0008 5A68     		ldr	r2, [r3, #4]
 398              	.LVL22:
 399              		.loc 1 649 0
 400 000a 22F00302 		bic	r2, r2, #3
 401              	.LVL23:
 402              		.loc 1 652 0
 403 000e 1043     		orrs	r0, r0, r2
 404              	.LVL24:
 405              		.loc 1 655 0
 406 0010 5860     		str	r0, [r3, #4]
 407 0012 7047     		bx	lr
 408              		.cfi_endproc
 409              	.LFE124:
 410              		.size	RCC_SYSCLKConfig, .-RCC_SYSCLKConfig
 411 0014 AFF30080 		.section	.text.RCC_GetSYSCLKSource,"ax",%progbits
 411      AFF30080 
 411      AFF30080 
 412              		.align	2
 413              		.p2align 4,,15
 414              		.global	RCC_GetSYSCLKSource
 415              		.thumb
 416              		.thumb_func
 417              		.type	RCC_GetSYSCLKSource, %function
 418              	RCC_GetSYSCLKSource:
 419              	.LFB125:
 420              		.loc 1 668 0
 421              		.cfi_startproc
 422              		@ args = 0, pretend = 0, frame = 0
 423              		@ frame_needed = 0, uses_anonymous_args = 0
 424              		@ link register save eliminated.
 425              		.loc 1 669 0
 426 0000 4FF48053 		mov	r3, #4096
 427 0004 C4F20203 		movt	r3, 16386
 428 0008 5868     		ldr	r0, [r3, #4]
 429              		.loc 1 670 0
 430 000a 00F00C00 		and	r0, r0, #12
 431 000e 7047     		bx	lr
 432              		.cfi_endproc
 433              	.LFE125:
 434              		.size	RCC_GetSYSCLKSource, .-RCC_GetSYSCLKSource
 435              		.section	.text.RCC_HCLKConfig,"ax",%progbits
 436              		.align	2
 437              		.p2align 4,,15
 438              		.global	RCC_HCLKConfig
 439              		.thumb
 440              		.thumb_func
 441              		.type	RCC_HCLKConfig, %function
 442              	RCC_HCLKConfig:
 443              	.LFB126:
 444              		.loc 1 693 0
ARM GAS  C:\Users\TaisikHam\AppData\Local\Temp\cclELrfj.s 			page 9


 445              		.cfi_startproc
 446              		@ args = 0, pretend = 0, frame = 0
 447              		@ frame_needed = 0, uses_anonymous_args = 0
 448              		@ link register save eliminated.
 449              	.LVL25:
 450              		.loc 1 699 0
 451 0000 4FF48053 		mov	r3, #4096
 452 0004 C4F20203 		movt	r3, 16386
 453 0008 5A68     		ldr	r2, [r3, #4]
 454              	.LVL26:
 455              		.loc 1 702 0
 456 000a 22F0F002 		bic	r2, r2, #240
 457              	.LVL27:
 458              		.loc 1 705 0
 459 000e 1043     		orrs	r0, r0, r2
 460              	.LVL28:
 461              		.loc 1 708 0
 462 0010 5860     		str	r0, [r3, #4]
 463 0012 7047     		bx	lr
 464              		.cfi_endproc
 465              	.LFE126:
 466              		.size	RCC_HCLKConfig, .-RCC_HCLKConfig
 467 0014 AFF30080 		.section	.text.RCC_PCLK1Config,"ax",%progbits
 467      AFF30080 
 467      AFF30080 
 468              		.align	2
 469              		.p2align 4,,15
 470              		.global	RCC_PCLK1Config
 471              		.thumb
 472              		.thumb_func
 473              		.type	RCC_PCLK1Config, %function
 474              	RCC_PCLK1Config:
 475              	.LFB127:
 476              		.loc 1 724 0
 477              		.cfi_startproc
 478              		@ args = 0, pretend = 0, frame = 0
 479              		@ frame_needed = 0, uses_anonymous_args = 0
 480              		@ link register save eliminated.
 481              	.LVL29:
 482              		.loc 1 730 0
 483 0000 4FF48053 		mov	r3, #4096
 484 0004 C4F20203 		movt	r3, 16386
 485 0008 5A68     		ldr	r2, [r3, #4]
 486              	.LVL30:
 487              		.loc 1 732 0
 488 000a 22F4E062 		bic	r2, r2, #1792
 489              	.LVL31:
 490              		.loc 1 735 0
 491 000e 1043     		orrs	r0, r0, r2
 492              	.LVL32:
 493              		.loc 1 738 0
 494 0010 5860     		str	r0, [r3, #4]
 495 0012 7047     		bx	lr
 496              		.cfi_endproc
 497              	.LFE127:
 498              		.size	RCC_PCLK1Config, .-RCC_PCLK1Config
 499 0014 AFF30080 		.section	.text.RCC_PCLK2Config,"ax",%progbits
ARM GAS  C:\Users\TaisikHam\AppData\Local\Temp\cclELrfj.s 			page 10


 499      AFF30080 
 499      AFF30080 
 500              		.align	2
 501              		.p2align 4,,15
 502              		.global	RCC_PCLK2Config
 503              		.thumb
 504              		.thumb_func
 505              		.type	RCC_PCLK2Config, %function
 506              	RCC_PCLK2Config:
 507              	.LFB128:
 508              		.loc 1 754 0
 509              		.cfi_startproc
 510              		@ args = 0, pretend = 0, frame = 0
 511              		@ frame_needed = 0, uses_anonymous_args = 0
 512              		@ link register save eliminated.
 513              	.LVL33:
 514              		.loc 1 760 0
 515 0000 4FF48053 		mov	r3, #4096
 516 0004 C4F20203 		movt	r3, 16386
 517 0008 5A68     		ldr	r2, [r3, #4]
 518              	.LVL34:
 519              		.loc 1 762 0
 520 000a 22F46052 		bic	r2, r2, #14336
 521              	.LVL35:
 522              		.loc 1 764 0
 523 000e 42EAC000 		orr	r0, r2, r0, lsl #3
 524              	.LVL36:
 525              		.loc 1 766 0
 526 0012 5860     		str	r0, [r3, #4]
 527 0014 7047     		bx	lr
 528              		.cfi_endproc
 529              	.LFE128:
 530              		.size	RCC_PCLK2Config, .-RCC_PCLK2Config
 531 0016 00BFAFF3 		.section	.text.RCC_GetClocksFreq,"ax",%progbits
 531      0080AFF3 
 531      0080
 532              		.align	2
 533              		.p2align 4,,15
 534              		.global	RCC_GetClocksFreq
 535              		.thumb
 536              		.thumb_func
 537              		.type	RCC_GetClocksFreq, %function
 538              	RCC_GetClocksFreq:
 539              	.LFB129:
 540              		.loc 1 811 0
 541              		.cfi_startproc
 542              		@ args = 0, pretend = 0, frame = 0
 543              		@ frame_needed = 0, uses_anonymous_args = 0
 544              		@ link register save eliminated.
 545              	.LVL37:
 546              		.loc 1 816 0
 547 0000 4FF48053 		mov	r3, #4096
 548 0004 C4F20203 		movt	r3, 16386
 549              		.loc 1 811 0
 550 0008 2DE9F001 		push	{r4, r5, r6, r7, r8}
 551              	.LCFI0:
 552              		.cfi_def_cfa_offset 20
ARM GAS  C:\Users\TaisikHam\AppData\Local\Temp\cclELrfj.s 			page 11


 553              		.cfi_offset 4, -20
 554              		.cfi_offset 5, -16
 555              		.cfi_offset 6, -12
 556              		.cfi_offset 7, -8
 557              		.cfi_offset 8, -4
 558              		.loc 1 816 0
 559 000c 5E68     		ldr	r6, [r3, #4]
 560              	.LVL38:
 561 000e 06F00C06 		and	r6, r6, #12
 562              	.LVL39:
 563              		.loc 1 818 0
 564 0012 042E     		cmp	r6, #4
 565 0014 00F06281 		beq	.L21
 566 0018 082E     		cmp	r6, #8
 567 001a 00F04981 		beq	.L22
 568              		.loc 1 821 0
 569 001e 4FF49052 		mov	r2, #4608
 570 0022 C0F27A02 		movt	r2, 122
 571 0026 0260     		str	r2, [r0, #0]
 572              		.loc 1 818 0
 573 0028 002E     		cmp	r6, #0
 574 002a 40F03F81 		bne	.L63
 575              	.LVL40:
 576              	.L23:
 577              		.loc 1 851 0
 578 002e 4FF48053 		mov	r3, #4096
 579 0032 C4F20203 		movt	r3, 16386
 580              		.loc 1 853 0
 581 0036 B34C     		ldr	r4, .L68
 582              		.loc 1 851 0
 583 0038 5968     		ldr	r1, [r3, #4]
 584              	.LVL41:
 585              		.loc 1 874 0
 586 003a B34F     		ldr	r7, .L68+4
 587              		.loc 1 852 0
 588 003c C1F30311 		ubfx	r1, r1, #4, #4
 589              	.LVL42:
 590              		.loc 1 853 0
 591 0040 14F801C0 		ldrb	ip, [r4, r1]	@ zero_extendqisi2
 592              	.LVL43:
 593              		.loc 1 855 0
 594 0044 22FA0CF1 		lsr	r1, r2, ip
 595              	.LVL44:
 596 0048 4160     		str	r1, [r0, #4]
 597              		.loc 1 858 0
 598 004a 5D68     		ldr	r5, [r3, #4]
 599              	.LVL45:
 600              		.loc 1 859 0
 601 004c C5F30225 		ubfx	r5, r5, #8, #3
 602              	.LVL46:
 603              		.loc 1 860 0
 604 0050 655D     		ldrb	r5, [r4, r5]	@ zero_extendqisi2
 605              	.LVL47:
 606              		.loc 1 862 0
 607 0052 21FA05F5 		lsr	r5, r1, r5
 608              	.LVL48:
 609 0056 8560     		str	r5, [r0, #8]
ARM GAS  C:\Users\TaisikHam\AppData\Local\Temp\cclELrfj.s 			page 12


 610              		.loc 1 865 0
 611 0058 D3F80480 		ldr	r8, [r3, #4]
 612              	.LVL49:
 613              		.loc 1 866 0
 614 005c C8F3C228 		ubfx	r8, r8, #11, #3
 615              	.LVL50:
 616              		.loc 1 867 0
 617 0060 14F80840 		ldrb	r4, [r4, r8]	@ zero_extendqisi2
 618              	.LVL51:
 619              		.loc 1 869 0
 620 0064 21FA04F1 		lsr	r1, r1, r4
 621 0068 C160     		str	r1, [r0, #12]
 622              		.loc 1 872 0
 623 006a DB6A     		ldr	r3, [r3, #44]
 624              	.LVL52:
 625              		.loc 1 873 0
 626 006c C3F30413 		ubfx	r3, r3, #4, #5
 627              	.LVL53:
 628              		.loc 1 874 0
 629 0070 37F81330 		ldrh	r3, [r7, r3, lsl #1]
 630              	.LVL54:
 631 0074 9BB2     		uxth	r3, r3
 632              	.LVL55:
 633              		.loc 1 875 0
 634 0076 03F01008 		and	r8, r3, #16
 635 007a 1FFA88F8 		uxth	r8, r8
 636 007e B8F1000F 		cmp	r8, #0
 637 0082 00F01181 		beq	.L26
 638              		.loc 1 878 0
 639 0086 B6FBF3F3 		udiv	r3, r6, r3
 640              	.LVL56:
 641 008a 0361     		str	r3, [r0, #16]
 642              	.L27:
 643              		.loc 1 887 0
 644 008c 4FF48053 		mov	r3, #4096
 645 0090 C4F20203 		movt	r3, 16386
 646 0094 DB6A     		ldr	r3, [r3, #44]
 647              	.LVL57:
 648              		.loc 1 888 0
 649 0096 C3F34423 		ubfx	r3, r3, #9, #5
 650              	.LVL58:
 651              		.loc 1 889 0
 652 009a 37F81330 		ldrh	r3, [r7, r3, lsl #1]
 653              	.LVL59:
 654 009e 9BB2     		uxth	r3, r3
 655              	.LVL60:
 656              		.loc 1 890 0
 657 00a0 03F01007 		and	r7, r3, #16
 658 00a4 BFB2     		uxth	r7, r7
 659 00a6 002F     		cmp	r7, #0
 660 00a8 00F0FC80 		beq	.L28
 661              		.loc 1 893 0
 662 00ac B6FBF3F3 		udiv	r3, r6, r3
 663              	.LVL61:
 664 00b0 4361     		str	r3, [r0, #20]
 665              	.L29:
 666              		.loc 1 902 0
ARM GAS  C:\Users\TaisikHam\AppData\Local\Temp\cclELrfj.s 			page 13


 667 00b2 4FF48053 		mov	r3, #4096
 668 00b6 C4F20203 		movt	r3, 16386
 669 00ba 1B6B     		ldr	r3, [r3, #48]
 670 00bc DF06     		lsls	r7, r3, #27
 671              		.loc 1 905 0
 672 00be 5EBF     		ittt	pl
 673 00c0 4FF49053 		movpl	r3, #4608
 674 00c4 C0F27A03 		movtpl	r3, 122
 675 00c8 8361     		strpl	r3, [r0, #24]
 676              		.loc 1 914 0
 677 00ca 4FF48053 		mov	r3, #4096
 678 00ce C4F20203 		movt	r3, 16386
 679              		.loc 1 910 0
 680 00d2 48BF     		it	mi
 681 00d4 8261     		strmi	r2, [r0, #24]
 682              		.loc 1 914 0
 683 00d6 1B6B     		ldr	r3, [r3, #48]
 684 00d8 9B06     		lsls	r3, r3, #26
 685              		.loc 1 917 0
 686 00da 5EBF     		ittt	pl
 687 00dc 4FF49053 		movpl	r3, #4608
 688 00e0 C0F27A03 		movtpl	r3, 122
 689 00e4 C361     		strpl	r3, [r0, #28]
 690              		.loc 1 926 0
 691 00e6 4FF48053 		mov	r3, #4096
 692 00ea C4F20203 		movt	r3, 16386
 693              		.loc 1 922 0
 694 00ee 48BF     		it	mi
 695 00f0 C261     		strmi	r2, [r0, #28]
 696              		.loc 1 926 0
 697 00f2 1F6B     		ldr	r7, [r3, #48]
 698 00f4 17F4807F 		tst	r7, #256
 699 00f8 00F0C680 		beq	.L34
 700              		.loc 1 926 0 is_stmt 0 discriminator 1
 701 00fc 9642     		cmp	r6, r2
 702 00fe 02D1     		bne	.L36
 703              		.loc 1 927 0 is_stmt 1
 704 0100 6445     		cmp	r4, ip
 705 0102 00F00381 		beq	.L65
 706              	.L36:
 707              		.loc 1 935 0
 708 0106 0162     		str	r1, [r0, #32]
 709              		.loc 1 939 0
 710 0108 1B6B     		ldr	r3, [r3, #48]
 711              	.LVL62:
 712              	.L38:
 713              		.loc 1 948 0
 714 010a 4162     		str	r1, [r0, #36]
 715              	.L39:
 716              		.loc 1 952 0
 717 010c 4FF48053 		mov	r3, #4096
 718 0110 C4F20203 		movt	r3, 16386
 719 0114 1C6B     		ldr	r4, [r3, #48]
 720 0116 14F0030F 		tst	r4, #3
 721              		.loc 1 955 0
 722 011a 08BF     		it	eq
 723 011c 8162     		streq	r1, [r0, #40]
ARM GAS  C:\Users\TaisikHam\AppData\Local\Temp\cclELrfj.s 			page 14


 724              		.loc 1 952 0
 725 011e 19D0     		beq	.L41
 726              		.loc 1 957 0
 727 0120 196B     		ldr	r1, [r3, #48]
 728 0122 01F00301 		and	r1, r1, #3
 729 0126 0129     		cmp	r1, #1
 730              		.loc 1 960 0
 731 0128 08BF     		it	eq
 732 012a 8262     		streq	r2, [r0, #40]
 733              		.loc 1 957 0
 734 012c 12D0     		beq	.L41
 735              		.loc 1 962 0
 736 012e 196B     		ldr	r1, [r3, #48]
 737 0130 01F00301 		and	r1, r1, #3
 738 0134 0229     		cmp	r1, #2
 739              		.loc 1 965 0
 740 0136 04BF     		itt	eq
 741 0138 4FF40043 		moveq	r3, #32768
 742 013c 8362     		streq	r3, [r0, #40]
 743              		.loc 1 962 0
 744 013e 09D0     		beq	.L41
 745              		.loc 1 967 0
 746 0140 1B6B     		ldr	r3, [r3, #48]
 747 0142 03F00303 		and	r3, r3, #3
 748 0146 032B     		cmp	r3, #3
 749              		.loc 1 970 0
 750 0148 02BF     		ittt	eq
 751 014a 4FF49053 		moveq	r3, #4608
 752 014e C0F27A03 		movteq	r3, 122
 753 0152 8362     		streq	r3, [r0, #40]
 754              	.L41:
 755              		.loc 1 974 0
 756 0154 4FF48053 		mov	r3, #4096
 757 0158 C4F20203 		movt	r3, 16386
 758 015c 196B     		ldr	r1, [r3, #48]
 759 015e 11F4403F 		tst	r1, #196608
 760              		.loc 1 977 0
 761 0162 08BF     		it	eq
 762 0164 C562     		streq	r5, [r0, #44]
 763              		.loc 1 974 0
 764 0166 1CD0     		beq	.L45
 765              		.loc 1 979 0
 766 0168 196B     		ldr	r1, [r3, #48]
 767 016a 01F44031 		and	r1, r1, #196608
 768 016e B1F5803F 		cmp	r1, #65536
 769              		.loc 1 982 0
 770 0172 08BF     		it	eq
 771 0174 C262     		streq	r2, [r0, #44]
 772              		.loc 1 979 0
 773 0176 14D0     		beq	.L45
 774              		.loc 1 984 0
 775 0178 196B     		ldr	r1, [r3, #48]
 776 017a 01F44031 		and	r1, r1, #196608
 777 017e B1F5003F 		cmp	r1, #131072
 778              		.loc 1 987 0
 779 0182 04BF     		itt	eq
 780 0184 4FF40043 		moveq	r3, #32768
ARM GAS  C:\Users\TaisikHam\AppData\Local\Temp\cclELrfj.s 			page 15


 781 0188 C362     		streq	r3, [r0, #44]
 782              		.loc 1 984 0
 783 018a 0AD0     		beq	.L45
 784              		.loc 1 989 0
 785 018c 1B6B     		ldr	r3, [r3, #48]
 786 018e 03F44033 		and	r3, r3, #196608
 787 0192 B3F5403F 		cmp	r3, #196608
 788              		.loc 1 992 0
 789 0196 02BF     		ittt	eq
 790 0198 4FF49053 		moveq	r3, #4608
 791 019c C0F27A03 		movteq	r3, 122
 792 01a0 C362     		streq	r3, [r0, #44]
 793              	.L45:
 794              		.loc 1 996 0
 795 01a2 4FF48053 		mov	r3, #4096
 796 01a6 C4F20203 		movt	r3, 16386
 797 01aa 196B     		ldr	r1, [r3, #48]
 798 01ac 11F4402F 		tst	r1, #786432
 799              		.loc 1 999 0
 800 01b0 08BF     		it	eq
 801 01b2 0563     		streq	r5, [r0, #48]
 802              		.loc 1 996 0
 803 01b4 1CD0     		beq	.L49
 804              		.loc 1 1001 0
 805 01b6 196B     		ldr	r1, [r3, #48]
 806 01b8 01F44021 		and	r1, r1, #786432
 807 01bc B1F5802F 		cmp	r1, #262144
 808              		.loc 1 1004 0
 809 01c0 08BF     		it	eq
 810 01c2 0263     		streq	r2, [r0, #48]
 811              		.loc 1 1001 0
 812 01c4 14D0     		beq	.L49
 813              		.loc 1 1006 0
 814 01c6 196B     		ldr	r1, [r3, #48]
 815 01c8 01F44021 		and	r1, r1, #786432
 816 01cc B1F5002F 		cmp	r1, #524288
 817              		.loc 1 1009 0
 818 01d0 04BF     		itt	eq
 819 01d2 4FF40043 		moveq	r3, #32768
 820 01d6 0363     		streq	r3, [r0, #48]
 821              		.loc 1 1006 0
 822 01d8 0AD0     		beq	.L49
 823              		.loc 1 1011 0
 824 01da 1B6B     		ldr	r3, [r3, #48]
 825 01dc 03F44023 		and	r3, r3, #786432
 826 01e0 B3F5402F 		cmp	r3, #786432
 827              		.loc 1 1014 0
 828 01e4 02BF     		ittt	eq
 829 01e6 4FF49053 		moveq	r3, #4608
 830 01ea C0F27A03 		movteq	r3, 122
 831 01ee 0363     		streq	r3, [r0, #48]
 832              	.L49:
 833              		.loc 1 1018 0
 834 01f0 4FF48053 		mov	r3, #4096
 835 01f4 C4F20203 		movt	r3, 16386
 836 01f8 196B     		ldr	r1, [r3, #48]
 837 01fa 11F4401F 		tst	r1, #3145728
ARM GAS  C:\Users\TaisikHam\AppData\Local\Temp\cclELrfj.s 			page 16


 838              		.loc 1 1021 0
 839 01fe 08BF     		it	eq
 840 0200 4563     		streq	r5, [r0, #52]
 841              		.loc 1 1018 0
 842 0202 1CD0     		beq	.L53
 843              		.loc 1 1023 0
 844 0204 196B     		ldr	r1, [r3, #48]
 845 0206 01F44011 		and	r1, r1, #3145728
 846 020a B1F5801F 		cmp	r1, #1048576
 847              		.loc 1 1026 0
 848 020e 08BF     		it	eq
 849 0210 4263     		streq	r2, [r0, #52]
 850              		.loc 1 1023 0
 851 0212 14D0     		beq	.L53
 852              		.loc 1 1028 0
 853 0214 196B     		ldr	r1, [r3, #48]
 854 0216 01F44011 		and	r1, r1, #3145728
 855 021a B1F5001F 		cmp	r1, #2097152
 856              		.loc 1 1031 0
 857 021e 04BF     		itt	eq
 858 0220 4FF40043 		moveq	r3, #32768
 859 0224 4363     		streq	r3, [r0, #52]
 860              		.loc 1 1028 0
 861 0226 0AD0     		beq	.L53
 862              		.loc 1 1033 0
 863 0228 1B6B     		ldr	r3, [r3, #48]
 864 022a 03F44013 		and	r3, r3, #3145728
 865 022e B3F5401F 		cmp	r3, #3145728
 866              		.loc 1 1036 0
 867 0232 02BF     		ittt	eq
 868 0234 4FF49053 		moveq	r3, #4608
 869 0238 C0F27A03 		movteq	r3, 122
 870 023c 4363     		streq	r3, [r0, #52]
 871              	.L53:
 872              		.loc 1 1040 0
 873 023e 4FF48053 		mov	r3, #4096
 874 0242 C4F20203 		movt	r3, 16386
 875 0246 196B     		ldr	r1, [r3, #48]
 876 0248 11F4400F 		tst	r1, #12582912
 877              		.loc 1 1043 0
 878 024c 08BF     		it	eq
 879 024e 8563     		streq	r5, [r0, #56]
 880              		.loc 1 1040 0
 881 0250 17D0     		beq	.L18
 882              		.loc 1 1045 0
 883 0252 196B     		ldr	r1, [r3, #48]
 884 0254 01F44001 		and	r1, r1, #12582912
 885 0258 B1F5800F 		cmp	r1, #4194304
 886              		.loc 1 1048 0
 887 025c 08BF     		it	eq
 888 025e 8263     		streq	r2, [r0, #56]
 889              		.loc 1 1045 0
 890 0260 0FD0     		beq	.L18
 891              		.loc 1 1050 0
 892 0262 1A6B     		ldr	r2, [r3, #48]
 893 0264 02F44002 		and	r2, r2, #12582912
 894 0268 B2F5000F 		cmp	r2, #8388608
ARM GAS  C:\Users\TaisikHam\AppData\Local\Temp\cclELrfj.s 			page 17


 895              		.loc 1 1053 0
 896 026c 04BF     		itt	eq
 897 026e 4FF40043 		moveq	r3, #32768
 898 0272 8363     		streq	r3, [r0, #56]
 899              		.loc 1 1050 0
 900 0274 05D0     		beq	.L18
 901              		.loc 1 1055 0
 902 0276 1B6B     		ldr	r3, [r3, #48]
 903 0278 03F44003 		and	r3, r3, #12582912
 904 027c B3F5400F 		cmp	r3, #12582912
 905 0280 33D0     		beq	.L66
 906              	.L18:
 907              		.loc 1 1060 0
 908 0282 BDE8F001 		pop	{r4, r5, r6, r7, r8}
 909 0286 7047     		bx	lr
 910              	.LVL63:
 911              	.L34:
 912              		.loc 1 935 0
 913 0288 0162     		str	r1, [r0, #32]
 914              		.loc 1 939 0
 915 028a 1B6B     		ldr	r3, [r3, #48]
 916 028c 9B05     		lsls	r3, r3, #22
 917 028e 7FF53CAF 		bpl	.L38
 918              		.loc 1 939 0 is_stmt 0 discriminator 1
 919 0292 9642     		cmp	r6, r2
 920 0294 7FF439AF 		bne	.L38
 921              		.loc 1 940 0 is_stmt 1
 922 0298 6445     		cmp	r4, ip
 923 029a 7FF436AF 		bne	.L38
 924 029e 5400     		lsls	r4, r2, #1
 925              	.LVL64:
 926              	.L37:
 927              		.loc 1 943 0
 928 02a0 4462     		str	r4, [r0, #36]
 929 02a2 33E7     		b	.L39
 930              	.LVL65:
 931              	.L28:
 932              		.loc 1 898 0
 933 02a4 4261     		str	r2, [r0, #20]
 934 02a6 04E7     		b	.L29
 935              	.L26:
 936              		.loc 1 883 0
 937 02a8 0261     		str	r2, [r0, #16]
 938 02aa EFE6     		b	.L27
 939              	.LVL66:
 940              	.L63:
 941              		.loc 1 812 0
 942 02ac 0026     		movs	r6, #0
 943              	.LVL67:
 944              		.loc 1 847 0
 945 02ae BEE6     		b	.L23
 946              	.LVL68:
 947              	.L22:
 948              		.loc 1 828 0
 949 02b0 5A68     		ldr	r2, [r3, #4]
 950              	.LVL69:
 951              		.loc 1 829 0
ARM GAS  C:\Users\TaisikHam\AppData\Local\Temp\cclELrfj.s 			page 18


 952 02b2 5968     		ldr	r1, [r3, #4]
 953              	.LVL70:
 954              		.loc 1 830 0
 955 02b4 C2F38342 		ubfx	r2, r2, #18, #4
 956              	.LVL71:
 957 02b8 0232     		adds	r2, r2, #2
 958              	.LVL72:
 959              		.loc 1 832 0
 960 02ba C903     		lsls	r1, r1, #15
 961              	.LVL73:
 962 02bc 1BD5     		bpl	.L67
 963              		.loc 1 839 0
 964 02be DE6A     		ldr	r6, [r3, #44]
 965              	.LVL74:
 966              		.loc 1 841 0
 967 02c0 4FF49053 		mov	r3, #4608
 968              		.loc 1 839 0
 969 02c4 06F00F06 		and	r6, r6, #15
 970              	.LVL75:
 971 02c8 0136     		adds	r6, r6, #1
 972              	.LVL76:
 973              		.loc 1 841 0
 974 02ca C0F27A03 		movt	r3, 122
 975 02ce B3FBF6F6 		udiv	r6, r3, r6
 976              	.LVL77:
 977 02d2 02FB06F6 		mul	r6, r2, r6
 978              	.LVL78:
 979              	.L25:
 980              		.loc 1 843 0
 981 02d6 0660     		str	r6, [r0, #0]
 982              		.loc 1 844 0
 983 02d8 3246     		mov	r2, r6
 984              	.LVL79:
 985 02da A8E6     		b	.L23
 986              	.LVL80:
 987              	.L21:
 988              		.loc 1 824 0
 989 02dc 4FF49052 		mov	r2, #4608
 990 02e0 C0F27A02 		movt	r2, 122
 991 02e4 0260     		str	r2, [r0, #0]
 992              		.loc 1 812 0
 993 02e6 0026     		movs	r6, #0
 994              	.LVL81:
 995              		.loc 1 825 0
 996 02e8 A1E6     		b	.L23
 997              	.LVL82:
 998              	.L66:
 999              		.loc 1 1058 0
 1000 02ea 4FF49053 		mov	r3, #4608
 1001 02ee C0F27A03 		movt	r3, 122
 1002 02f2 8363     		str	r3, [r0, #56]
 1003 02f4 C5E7     		b	.L18
 1004              	.LVL83:
 1005              	.L67:
 1006              		.loc 1 835 0
 1007 02f6 4FF41066 		mov	r6, #2304
 1008              	.LVL84:
ARM GAS  C:\Users\TaisikHam\AppData\Local\Temp\cclELrfj.s 			page 19


 1009 02fa C0F23D06 		movt	r6, 61
 1010 02fe 06FB02F6 		mul	r6, r6, r2
 1011              	.LVL85:
 1012 0302 E8E7     		b	.L25
 1013              	.L69:
 1014              		.align	2
 1015              	.L68:
 1016 0304 00000000 		.word	.LANCHOR0
 1017 0308 00000000 		.word	.LANCHOR1
 1018              	.LVL86:
 1019              	.L65:
 1020              		.loc 1 930 0
 1021 030c 5400     		lsls	r4, r2, #1
 1022              	.LVL87:
 1023 030e 0462     		str	r4, [r0, #32]
 1024              		.loc 1 939 0
 1025 0310 1B6B     		ldr	r3, [r3, #48]
 1026 0312 9B05     		lsls	r3, r3, #22
 1027 0314 C4D4     		bmi	.L37
 1028 0316 F8E6     		b	.L38
 1029              		.cfi_endproc
 1030              	.LFE129:
 1031              		.size	RCC_GetClocksFreq, .-RCC_GetClocksFreq
 1032              		.section	.text.RCC_ADCCLKConfig,"ax",%progbits
 1033              		.align	2
 1034              		.p2align 4,,15
 1035              		.global	RCC_ADCCLKConfig
 1036              		.thumb
 1037              		.thumb_func
 1038              		.type	RCC_ADCCLKConfig, %function
 1039              	RCC_ADCCLKConfig:
 1040              	.LFB130:
 1041              		.loc 1 1122 0
 1042              		.cfi_startproc
 1043              		@ args = 0, pretend = 0, frame = 0
 1044              		@ frame_needed = 0, uses_anonymous_args = 0
 1045              		@ link register save eliminated.
 1046              	.LVL88:
 1047              		.loc 1 1131 0
 1048 0000 030F     		lsrs	r3, r0, #28
 1049              		.loc 1 1133 0
 1050 0002 4FF48053 		mov	r3, #4096
 1051 0006 C4F20203 		movt	r3, 16386
 1052 000a DA6A     		ldr	r2, [r3, #44]
 1053 000c 14BF     		ite	ne
 1054 000e 22F47852 		bicne	r2, r2, #15872
 1055              		.loc 1 1138 0
 1056 0012 22F4F872 		biceq	r2, r2, #496
 1057 0016 DA62     		str	r2, [r3, #44]
 1058              		.loc 1 1141 0
 1059 0018 4FF48053 		mov	r3, #4096
 1060 001c C4F20203 		movt	r3, 16386
 1061 0020 DA6A     		ldr	r2, [r3, #44]
 1062 0022 1043     		orrs	r0, r0, r2
 1063              	.LVL89:
 1064 0024 D862     		str	r0, [r3, #44]
 1065 0026 7047     		bx	lr
ARM GAS  C:\Users\TaisikHam\AppData\Local\Temp\cclELrfj.s 			page 20


 1066              		.cfi_endproc
 1067              	.LFE130:
 1068              		.size	RCC_ADCCLKConfig, .-RCC_ADCCLKConfig
 1069 0028 AFF30080 		.section	.text.RCC_I2CCLKConfig,"ax",%progbits
 1069      AFF30080 
 1070              		.align	2
 1071              		.p2align 4,,15
 1072              		.global	RCC_I2CCLKConfig
 1073              		.thumb
 1074              		.thumb_func
 1075              		.type	RCC_I2CCLKConfig, %function
 1076              	RCC_I2CCLKConfig:
 1077              	.LFB131:
 1078              		.loc 1 1155 0
 1079              		.cfi_startproc
 1080              		@ args = 0, pretend = 0, frame = 0
 1081              		@ frame_needed = 0, uses_anonymous_args = 0
 1082              		@ link register save eliminated.
 1083              	.LVL90:
 1084              		.loc 1 1164 0
 1085 0000 030F     		lsrs	r3, r0, #28
 1086              		.loc 1 1166 0
 1087 0002 4FF48053 		mov	r3, #4096
 1088 0006 C4F20203 		movt	r3, 16386
 1089 000a 1A6B     		ldr	r2, [r3, #48]
 1090 000c 14BF     		ite	ne
 1091 000e 22F02002 		bicne	r2, r2, #32
 1092              		.loc 1 1170 0
 1093 0012 22F01002 		biceq	r2, r2, #16
 1094 0016 1A63     		str	r2, [r3, #48]
 1095              		.loc 1 1173 0
 1096 0018 4FF48053 		mov	r3, #4096
 1097 001c C4F20203 		movt	r3, 16386
 1098 0020 1A6B     		ldr	r2, [r3, #48]
 1099 0022 1043     		orrs	r0, r0, r2
 1100              	.LVL91:
 1101 0024 1863     		str	r0, [r3, #48]
 1102 0026 7047     		bx	lr
 1103              		.cfi_endproc
 1104              	.LFE131:
 1105              		.size	RCC_I2CCLKConfig, .-RCC_I2CCLKConfig
 1106 0028 AFF30080 		.section	.text.RCC_TIMCLKConfig,"ax",%progbits
 1106      AFF30080 
 1107              		.align	2
 1108              		.p2align 4,,15
 1109              		.global	RCC_TIMCLKConfig
 1110              		.thumb
 1111              		.thumb_func
 1112              		.type	RCC_TIMCLKConfig, %function
 1113              	RCC_TIMCLKConfig:
 1114              	.LFB132:
 1115              		.loc 1 1191 0
 1116              		.cfi_startproc
 1117              		@ args = 0, pretend = 0, frame = 0
 1118              		@ frame_needed = 0, uses_anonymous_args = 0
 1119              		@ link register save eliminated.
 1120              	.LVL92:
ARM GAS  C:\Users\TaisikHam\AppData\Local\Temp\cclELrfj.s 			page 21


 1121              		.loc 1 1200 0
 1122 0000 030F     		lsrs	r3, r0, #28
 1123              		.loc 1 1202 0
 1124 0002 4FF48053 		mov	r3, #4096
 1125 0006 C4F20203 		movt	r3, 16386
 1126 000a 1A6B     		ldr	r2, [r3, #48]
 1127 000c 14BF     		ite	ne
 1128 000e 22F40072 		bicne	r2, r2, #512
 1129              		.loc 1 1206 0
 1130 0012 22F48072 		biceq	r2, r2, #256
 1131 0016 1A63     		str	r2, [r3, #48]
 1132              		.loc 1 1209 0
 1133 0018 4FF48053 		mov	r3, #4096
 1134 001c C4F20203 		movt	r3, 16386
 1135 0020 1A6B     		ldr	r2, [r3, #48]
 1136 0022 1043     		orrs	r0, r0, r2
 1137              	.LVL93:
 1138 0024 1863     		str	r0, [r3, #48]
 1139 0026 7047     		bx	lr
 1140              		.cfi_endproc
 1141              	.LFE132:
 1142              		.size	RCC_TIMCLKConfig, .-RCC_TIMCLKConfig
 1143 0028 AFF30080 		.section	.text.RCC_USARTCLKConfig,"ax",%progbits
 1143      AFF30080 
 1144              		.align	2
 1145              		.p2align 4,,15
 1146              		.global	RCC_USARTCLKConfig
 1147              		.thumb
 1148              		.thumb_func
 1149              		.type	RCC_USARTCLKConfig, %function
 1150              	RCC_USARTCLKConfig:
 1151              	.LFB133:
 1152              		.loc 1 1225 0
 1153              		.cfi_startproc
 1154              		@ args = 0, pretend = 0, frame = 0
 1155              		@ frame_needed = 0, uses_anonymous_args = 0
 1156              		@ link register save eliminated.
 1157              	.LVL94:
 1158              		.loc 1 1231 0
 1159 0000 030F     		lsrs	r3, r0, #28
 1160              	.LVL95:
 1161              		.loc 1 1234 0
 1162 0002 013B     		subs	r3, r3, #1
 1163              	.LVL96:
 1164 0004 042B     		cmp	r3, #4
 1165 0006 0CD8     		bhi	.L80
 1166 0008 DFE803F0 		tbb	[pc, r3]
 1167              	.L86:
 1168 000c 03       		.byte	(.L81-.L86)/2
 1169 000d 1C       		.byte	(.L82-.L86)/2
 1170 000e 25       		.byte	(.L83-.L86)/2
 1171 000f 2E       		.byte	(.L84-.L86)/2
 1172 0010 13       		.byte	(.L85-.L86)/2
 1173 0011 00       		.align	1
 1174              	.L81:
 1175              		.loc 1 1237 0
 1176 0012 4FF48053 		mov	r3, #4096
ARM GAS  C:\Users\TaisikHam\AppData\Local\Temp\cclELrfj.s 			page 22


 1177              	.LVL97:
 1178 0016 C4F20203 		movt	r3, 16386
 1179 001a 1A6B     		ldr	r2, [r3, #48]
 1180 001c 22F00302 		bic	r2, r2, #3
 1181 0020 1A63     		str	r2, [r3, #48]
 1182              	.L80:
 1183              		.loc 1 1256 0
 1184 0022 4FF48053 		mov	r3, #4096
 1185 0026 C4F20203 		movt	r3, 16386
 1186 002a 1A6B     		ldr	r2, [r3, #48]
 1187 002c 1043     		orrs	r0, r0, r2
 1188              	.LVL98:
 1189 002e 1863     		str	r0, [r3, #48]
 1190 0030 7047     		bx	lr
 1191              	.LVL99:
 1192              	.L85:
 1193              		.loc 1 1249 0
 1194 0032 4FF48053 		mov	r3, #4096
 1195              	.LVL100:
 1196 0036 C4F20203 		movt	r3, 16386
 1197 003a 1A6B     		ldr	r2, [r3, #48]
 1198 003c 22F44002 		bic	r2, r2, #12582912
 1199 0040 1A63     		str	r2, [r3, #48]
 1200              		.loc 1 1250 0
 1201 0042 EEE7     		b	.L80
 1202              	.L82:
 1203              		.loc 1 1240 0
 1204 0044 4FF48053 		mov	r3, #4096
 1205 0048 C4F20203 		movt	r3, 16386
 1206 004c 1A6B     		ldr	r2, [r3, #48]
 1207 004e 22F44032 		bic	r2, r2, #196608
 1208 0052 1A63     		str	r2, [r3, #48]
 1209              		.loc 1 1241 0
 1210 0054 E5E7     		b	.L80
 1211              	.L83:
 1212              		.loc 1 1243 0
 1213 0056 4FF48053 		mov	r3, #4096
 1214 005a C4F20203 		movt	r3, 16386
 1215 005e 1A6B     		ldr	r2, [r3, #48]
 1216 0060 22F44022 		bic	r2, r2, #786432
 1217 0064 1A63     		str	r2, [r3, #48]
 1218              		.loc 1 1244 0
 1219 0066 DCE7     		b	.L80
 1220              	.L84:
 1221              		.loc 1 1246 0
 1222 0068 4FF48053 		mov	r3, #4096
 1223 006c C4F20203 		movt	r3, 16386
 1224 0070 1A6B     		ldr	r2, [r3, #48]
 1225 0072 22F44012 		bic	r2, r2, #3145728
 1226 0076 1A63     		str	r2, [r3, #48]
 1227              		.loc 1 1247 0
 1228 0078 D3E7     		b	.L80
 1229              		.cfi_endproc
 1230              	.LFE133:
 1231              		.size	RCC_USARTCLKConfig, .-RCC_USARTCLKConfig
 1232 007a 00BFAFF3 		.section	.text.RCC_USBCLKConfig,"ax",%progbits
 1232      0080
ARM GAS  C:\Users\TaisikHam\AppData\Local\Temp\cclELrfj.s 			page 23


 1233              		.align	2
 1234              		.p2align 4,,15
 1235              		.global	RCC_USBCLKConfig
 1236              		.thumb
 1237              		.thumb_func
 1238              		.type	RCC_USBCLKConfig, %function
 1239              	RCC_USBCLKConfig:
 1240              	.LFB134:
 1241              		.loc 1 1270 0
 1242              		.cfi_startproc
 1243              		@ args = 0, pretend = 0, frame = 0
 1244              		@ frame_needed = 0, uses_anonymous_args = 0
 1245              		@ link register save eliminated.
 1246              	.LVL101:
 1247              		.loc 1 1274 0
 1248 0000 D823     		movs	r3, #216
 1249 0002 C4F24223 		movt	r3, 16962
 1250 0006 1860     		str	r0, [r3, #0]
 1251 0008 7047     		bx	lr
 1252              		.cfi_endproc
 1253              	.LFE134:
 1254              		.size	RCC_USBCLKConfig, .-RCC_USBCLKConfig
 1255 000a 00BFAFF3 		.section	.text.RCC_RTCCLKConfig,"ax",%progbits
 1255      0080
 1256              		.align	2
 1257              		.p2align 4,,15
 1258              		.global	RCC_RTCCLKConfig
 1259              		.thumb
 1260              		.thumb_func
 1261              		.type	RCC_RTCCLKConfig, %function
 1262              	RCC_RTCCLKConfig:
 1263              	.LFB135:
 1264              		.loc 1 1301 0
 1265              		.cfi_startproc
 1266              		@ args = 0, pretend = 0, frame = 0
 1267              		@ frame_needed = 0, uses_anonymous_args = 0
 1268              		@ link register save eliminated.
 1269              	.LVL102:
 1270              		.loc 1 1306 0
 1271 0000 4FF48053 		mov	r3, #4096
 1272 0004 C4F20203 		movt	r3, 16386
 1273 0008 1A6A     		ldr	r2, [r3, #32]
 1274 000a 1043     		orrs	r0, r0, r2
 1275              	.LVL103:
 1276 000c 1862     		str	r0, [r3, #32]
 1277 000e 7047     		bx	lr
 1278              		.cfi_endproc
 1279              	.LFE135:
 1280              		.size	RCC_RTCCLKConfig, .-RCC_RTCCLKConfig
 1281              		.section	.text.RCC_I2SCLKConfig,"ax",%progbits
 1282              		.align	2
 1283              		.p2align 4,,15
 1284              		.global	RCC_I2SCLKConfig
 1285              		.thumb
 1286              		.thumb_func
 1287              		.type	RCC_I2SCLKConfig, %function
 1288              	RCC_I2SCLKConfig:
ARM GAS  C:\Users\TaisikHam\AppData\Local\Temp\cclELrfj.s 			page 24


 1289              	.LFB136:
 1290              		.loc 1 1320 0
 1291              		.cfi_startproc
 1292              		@ args = 0, pretend = 0, frame = 0
 1293              		@ frame_needed = 0, uses_anonymous_args = 0
 1294              		@ link register save eliminated.
 1295              	.LVL104:
 1296              		.loc 1 1324 0
 1297 0000 DC23     		movs	r3, #220
 1298 0002 C4F24223 		movt	r3, 16962
 1299 0006 1860     		str	r0, [r3, #0]
 1300 0008 7047     		bx	lr
 1301              		.cfi_endproc
 1302              	.LFE136:
 1303              		.size	RCC_I2SCLKConfig, .-RCC_I2SCLKConfig
 1304 000a 00BFAFF3 		.section	.text.RCC_RTCCLKCmd,"ax",%progbits
 1304      0080
 1305              		.align	2
 1306              		.p2align 4,,15
 1307              		.global	RCC_RTCCLKCmd
 1308              		.thumb
 1309              		.thumb_func
 1310              		.type	RCC_RTCCLKCmd, %function
 1311              	RCC_RTCCLKCmd:
 1312              	.LFB137:
 1313              		.loc 1 1336 0
 1314              		.cfi_startproc
 1315              		@ args = 0, pretend = 0, frame = 0
 1316              		@ frame_needed = 0, uses_anonymous_args = 0
 1317              		@ link register save eliminated.
 1318              	.LVL105:
 1319              		.loc 1 1340 0
 1320 0000 40F23C43 		movw	r3, #1084
 1321 0004 C4F24223 		movt	r3, 16962
 1322 0008 1860     		str	r0, [r3, #0]
 1323 000a 7047     		bx	lr
 1324              		.cfi_endproc
 1325              	.LFE137:
 1326              		.size	RCC_RTCCLKCmd, .-RCC_RTCCLKCmd
 1327 000c AFF30080 		.section	.text.RCC_BackupResetCmd,"ax",%progbits
 1328              		.align	2
 1329              		.p2align 4,,15
 1330              		.global	RCC_BackupResetCmd
 1331              		.thumb
 1332              		.thumb_func
 1333              		.type	RCC_BackupResetCmd, %function
 1334              	RCC_BackupResetCmd:
 1335              	.LFB138:
 1336              		.loc 1 1352 0
 1337              		.cfi_startproc
 1338              		@ args = 0, pretend = 0, frame = 0
 1339              		@ frame_needed = 0, uses_anonymous_args = 0
 1340              		@ link register save eliminated.
 1341              	.LVL106:
 1342              		.loc 1 1356 0
 1343 0000 4FF48863 		mov	r3, #1088
 1344 0004 C4F24223 		movt	r3, 16962
ARM GAS  C:\Users\TaisikHam\AppData\Local\Temp\cclELrfj.s 			page 25


 1345 0008 1860     		str	r0, [r3, #0]
 1346 000a 7047     		bx	lr
 1347              		.cfi_endproc
 1348              	.LFE138:
 1349              		.size	RCC_BackupResetCmd, .-RCC_BackupResetCmd
 1350 000c AFF30080 		.section	.text.RCC_AHBPeriphClockCmd,"ax",%progbits
 1351              		.align	2
 1352              		.p2align 4,,15
 1353              		.global	RCC_AHBPeriphClockCmd
 1354              		.thumb
 1355              		.thumb_func
 1356              		.type	RCC_AHBPeriphClockCmd, %function
 1357              	RCC_AHBPeriphClockCmd:
 1358              	.LFB139:
 1359              		.loc 1 1385 0
 1360              		.cfi_startproc
 1361              		@ args = 0, pretend = 0, frame = 0
 1362              		@ frame_needed = 0, uses_anonymous_args = 0
 1363              		@ link register save eliminated.
 1364              	.LVL107:
 1365              		.loc 1 1392 0
 1366 0000 4FF48053 		mov	r3, #4096
 1367 0004 C4F20203 		movt	r3, 16386
 1368 0008 5A69     		ldr	r2, [r3, #20]
 1369              		.loc 1 1390 0
 1370 000a 19B9     		cbnz	r1, .L95
 1371              		.loc 1 1396 0
 1372 000c 22EA0000 		bic	r0, r2, r0
 1373              	.LVL108:
 1374 0010 5861     		str	r0, [r3, #20]
 1375 0012 7047     		bx	lr
 1376              	.LVL109:
 1377              	.L95:
 1378              		.loc 1 1392 0
 1379 0014 1043     		orrs	r0, r0, r2
 1380              	.LVL110:
 1381 0016 5861     		str	r0, [r3, #20]
 1382 0018 7047     		bx	lr
 1383              		.cfi_endproc
 1384              	.LFE139:
 1385              		.size	RCC_AHBPeriphClockCmd, .-RCC_AHBPeriphClockCmd
 1386 001a 00BFAFF3 		.section	.text.RCC_APB2PeriphClockCmd,"ax",%progbits
 1386      0080
 1387              		.align	2
 1388              		.p2align 4,,15
 1389              		.global	RCC_APB2PeriphClockCmd
 1390              		.thumb
 1391              		.thumb_func
 1392              		.type	RCC_APB2PeriphClockCmd, %function
 1393              	RCC_APB2PeriphClockCmd:
 1394              	.LFB140:
 1395              		.loc 1 1420 0
 1396              		.cfi_startproc
 1397              		@ args = 0, pretend = 0, frame = 0
 1398              		@ frame_needed = 0, uses_anonymous_args = 0
 1399              		@ link register save eliminated.
 1400              	.LVL111:
ARM GAS  C:\Users\TaisikHam\AppData\Local\Temp\cclELrfj.s 			page 26


 1401              		.loc 1 1427 0
 1402 0000 4FF48053 		mov	r3, #4096
 1403 0004 C4F20203 		movt	r3, 16386
 1404 0008 9A69     		ldr	r2, [r3, #24]
 1405              		.loc 1 1425 0
 1406 000a 19B9     		cbnz	r1, .L99
 1407              		.loc 1 1431 0
 1408 000c 22EA0000 		bic	r0, r2, r0
 1409              	.LVL112:
 1410 0010 9861     		str	r0, [r3, #24]
 1411 0012 7047     		bx	lr
 1412              	.LVL113:
 1413              	.L99:
 1414              		.loc 1 1427 0
 1415 0014 1043     		orrs	r0, r0, r2
 1416              	.LVL114:
 1417 0016 9861     		str	r0, [r3, #24]
 1418 0018 7047     		bx	lr
 1419              		.cfi_endproc
 1420              	.LFE140:
 1421              		.size	RCC_APB2PeriphClockCmd, .-RCC_APB2PeriphClockCmd
 1422 001a 00BFAFF3 		.section	.text.RCC_APB1PeriphClockCmd,"ax",%progbits
 1422      0080
 1423              		.align	2
 1424              		.p2align 4,,15
 1425              		.global	RCC_APB1PeriphClockCmd
 1426              		.thumb
 1427              		.thumb_func
 1428              		.type	RCC_APB1PeriphClockCmd, %function
 1429              	RCC_APB1PeriphClockCmd:
 1430              	.LFB141:
 1431              		.loc 1 1465 0
 1432              		.cfi_startproc
 1433              		@ args = 0, pretend = 0, frame = 0
 1434              		@ frame_needed = 0, uses_anonymous_args = 0
 1435              		@ link register save eliminated.
 1436              	.LVL115:
 1437              		.loc 1 1472 0
 1438 0000 4FF48053 		mov	r3, #4096
 1439 0004 C4F20203 		movt	r3, 16386
 1440 0008 DA69     		ldr	r2, [r3, #28]
 1441              		.loc 1 1470 0
 1442 000a 19B9     		cbnz	r1, .L103
 1443              		.loc 1 1476 0
 1444 000c 22EA0000 		bic	r0, r2, r0
 1445              	.LVL116:
 1446 0010 D861     		str	r0, [r3, #28]
 1447 0012 7047     		bx	lr
 1448              	.LVL117:
 1449              	.L103:
 1450              		.loc 1 1472 0
 1451 0014 1043     		orrs	r0, r0, r2
 1452              	.LVL118:
 1453 0016 D861     		str	r0, [r3, #28]
 1454 0018 7047     		bx	lr
 1455              		.cfi_endproc
 1456              	.LFE141:
ARM GAS  C:\Users\TaisikHam\AppData\Local\Temp\cclELrfj.s 			page 27


 1457              		.size	RCC_APB1PeriphClockCmd, .-RCC_APB1PeriphClockCmd
 1458 001a 00BFAFF3 		.section	.text.RCC_AHBPeriphResetCmd,"ax",%progbits
 1458      0080
 1459              		.align	2
 1460              		.p2align 4,,15
 1461              		.global	RCC_AHBPeriphResetCmd
 1462              		.thumb
 1463              		.thumb_func
 1464              		.type	RCC_AHBPeriphResetCmd, %function
 1465              	RCC_AHBPeriphResetCmd:
 1466              	.LFB142:
 1467              		.loc 1 1498 0
 1468              		.cfi_startproc
 1469              		@ args = 0, pretend = 0, frame = 0
 1470              		@ frame_needed = 0, uses_anonymous_args = 0
 1471              		@ link register save eliminated.
 1472              	.LVL119:
 1473              		.loc 1 1505 0
 1474 0000 4FF48053 		mov	r3, #4096
 1475 0004 C4F20203 		movt	r3, 16386
 1476 0008 9A6A     		ldr	r2, [r3, #40]
 1477              		.loc 1 1503 0
 1478 000a 19B9     		cbnz	r1, .L107
 1479              		.loc 1 1509 0
 1480 000c 22EA0000 		bic	r0, r2, r0
 1481              	.LVL120:
 1482 0010 9862     		str	r0, [r3, #40]
 1483 0012 7047     		bx	lr
 1484              	.LVL121:
 1485              	.L107:
 1486              		.loc 1 1505 0
 1487 0014 1043     		orrs	r0, r0, r2
 1488              	.LVL122:
 1489 0016 9862     		str	r0, [r3, #40]
 1490 0018 7047     		bx	lr
 1491              		.cfi_endproc
 1492              	.LFE142:
 1493              		.size	RCC_AHBPeriphResetCmd, .-RCC_AHBPeriphResetCmd
 1494 001a 00BFAFF3 		.section	.text.RCC_APB2PeriphResetCmd,"ax",%progbits
 1494      0080
 1495              		.align	2
 1496              		.p2align 4,,15
 1497              		.global	RCC_APB2PeriphResetCmd
 1498              		.thumb
 1499              		.thumb_func
 1500              		.type	RCC_APB2PeriphResetCmd, %function
 1501              	RCC_APB2PeriphResetCmd:
 1502              	.LFB143:
 1503              		.loc 1 1530 0
 1504              		.cfi_startproc
 1505              		@ args = 0, pretend = 0, frame = 0
 1506              		@ frame_needed = 0, uses_anonymous_args = 0
 1507              		@ link register save eliminated.
 1508              	.LVL123:
 1509              		.loc 1 1537 0
 1510 0000 4FF48053 		mov	r3, #4096
 1511 0004 C4F20203 		movt	r3, 16386
ARM GAS  C:\Users\TaisikHam\AppData\Local\Temp\cclELrfj.s 			page 28


 1512 0008 DA68     		ldr	r2, [r3, #12]
 1513              		.loc 1 1535 0
 1514 000a 19B9     		cbnz	r1, .L111
 1515              		.loc 1 1541 0
 1516 000c 22EA0000 		bic	r0, r2, r0
 1517              	.LVL124:
 1518 0010 D860     		str	r0, [r3, #12]
 1519 0012 7047     		bx	lr
 1520              	.LVL125:
 1521              	.L111:
 1522              		.loc 1 1537 0
 1523 0014 1043     		orrs	r0, r0, r2
 1524              	.LVL126:
 1525 0016 D860     		str	r0, [r3, #12]
 1526 0018 7047     		bx	lr
 1527              		.cfi_endproc
 1528              	.LFE143:
 1529              		.size	RCC_APB2PeriphResetCmd, .-RCC_APB2PeriphResetCmd
 1530 001a 00BFAFF3 		.section	.text.RCC_APB1PeriphResetCmd,"ax",%progbits
 1530      0080
 1531              		.align	2
 1532              		.p2align 4,,15
 1533              		.global	RCC_APB1PeriphResetCmd
 1534              		.thumb
 1535              		.thumb_func
 1536              		.type	RCC_APB1PeriphResetCmd, %function
 1537              	RCC_APB1PeriphResetCmd:
 1538              	.LFB144:
 1539              		.loc 1 1572 0
 1540              		.cfi_startproc
 1541              		@ args = 0, pretend = 0, frame = 0
 1542              		@ frame_needed = 0, uses_anonymous_args = 0
 1543              		@ link register save eliminated.
 1544              	.LVL127:
 1545              		.loc 1 1579 0
 1546 0000 4FF48053 		mov	r3, #4096
 1547 0004 C4F20203 		movt	r3, 16386
 1548 0008 1A69     		ldr	r2, [r3, #16]
 1549              		.loc 1 1577 0
 1550 000a 19B9     		cbnz	r1, .L115
 1551              		.loc 1 1583 0
 1552 000c 22EA0000 		bic	r0, r2, r0
 1553              	.LVL128:
 1554 0010 1861     		str	r0, [r3, #16]
 1555 0012 7047     		bx	lr
 1556              	.LVL129:
 1557              	.L115:
 1558              		.loc 1 1579 0
 1559 0014 1043     		orrs	r0, r0, r2
 1560              	.LVL130:
 1561 0016 1861     		str	r0, [r3, #16]
 1562 0018 7047     		bx	lr
 1563              		.cfi_endproc
 1564              	.LFE144:
 1565              		.size	RCC_APB1PeriphResetCmd, .-RCC_APB1PeriphResetCmd
 1566 001a 00BFAFF3 		.section	.text.RCC_ITConfig,"ax",%progbits
 1566      0080
ARM GAS  C:\Users\TaisikHam\AppData\Local\Temp\cclELrfj.s 			page 29


 1567              		.align	2
 1568              		.p2align 4,,15
 1569              		.global	RCC_ITConfig
 1570              		.thumb
 1571              		.thumb_func
 1572              		.type	RCC_ITConfig, %function
 1573              	RCC_ITConfig:
 1574              	.LFB145:
 1575              		.loc 1 1623 0
 1576              		.cfi_startproc
 1577              		@ args = 0, pretend = 0, frame = 0
 1578              		@ frame_needed = 0, uses_anonymous_args = 0
 1579              		@ link register save eliminated.
 1580              	.LVL131:
 1581              		.loc 1 1631 0
 1582 0000 41F20903 		movw	r3, #4105
 1583 0004 C4F20203 		movt	r3, 16386
 1584 0008 1A78     		ldrb	r2, [r3, #0]	@ zero_extendqisi2
 1585              		.loc 1 1628 0
 1586 000a 19B9     		cbnz	r1, .L119
 1587              		.loc 1 1636 0
 1588 000c 22EA0000 		bic	r0, r2, r0
 1589              	.LVL132:
 1590 0010 1870     		strb	r0, [r3, #0]
 1591 0012 7047     		bx	lr
 1592              	.LVL133:
 1593              	.L119:
 1594              		.loc 1 1631 0
 1595 0014 1043     		orrs	r0, r0, r2
 1596              	.LVL134:
 1597 0016 1870     		strb	r0, [r3, #0]
 1598 0018 7047     		bx	lr
 1599              		.cfi_endproc
 1600              	.LFE145:
 1601              		.size	RCC_ITConfig, .-RCC_ITConfig
 1602 001a 00BFAFF3 		.section	.text.RCC_GetFlagStatus,"ax",%progbits
 1602      0080
 1603              		.align	2
 1604              		.p2align 4,,15
 1605              		.global	RCC_GetFlagStatus
 1606              		.thumb
 1607              		.thumb_func
 1608              		.type	RCC_GetFlagStatus, %function
 1609              	RCC_GetFlagStatus:
 1610              	.LFB146:
 1611              		.loc 1 1660 0
 1612              		.cfi_startproc
 1613              		@ args = 0, pretend = 0, frame = 0
 1614              		@ frame_needed = 0, uses_anonymous_args = 0
 1615              		@ link register save eliminated.
 1616              	.LVL135:
 1617              		.loc 1 1671 0
 1618 0000 4309     		lsrs	r3, r0, #5
 1619              	.LVL136:
 1620 0002 0BD1     		bne	.L121
 1621              		.loc 1 1673 0
 1622 0004 4FF48053 		mov	r3, #4096
ARM GAS  C:\Users\TaisikHam\AppData\Local\Temp\cclELrfj.s 			page 30


 1623              	.LVL137:
 1624 0008 C4F20203 		movt	r3, 16386
 1625 000c 1B68     		ldr	r3, [r3, #0]
 1626              	.LVL138:
 1627              	.L122:
 1628              		.loc 1 1691 0
 1629 000e 00F01F00 		and	r0, r0, #31
 1630              	.LVL139:
 1631 0012 23FA00F0 		lsr	r0, r3, r0
 1632              		.loc 1 1701 0
 1633 0016 00F00100 		and	r0, r0, #1
 1634 001a 7047     		bx	lr
 1635              	.LVL140:
 1636              	.L121:
 1637              		.loc 1 1675 0
 1638 001c 012B     		cmp	r3, #1
 1639 001e 08D0     		beq	.L125
 1640              		.loc 1 1679 0
 1641 0020 042B     		cmp	r3, #4
 1642              		.loc 1 1681 0
 1643 0022 4FF48053 		mov	r3, #4096
 1644              	.LVL141:
 1645 0026 C4F20203 		movt	r3, 16386
 1646 002a 0CBF     		ite	eq
 1647 002c 5B68     		ldreq	r3, [r3, #4]
 1648              	.LVL142:
 1649              		.loc 1 1685 0
 1650 002e 5B6A     		ldrne	r3, [r3, #36]
 1651              	.LVL143:
 1652 0030 EDE7     		b	.L122
 1653              	.LVL144:
 1654              	.L125:
 1655              		.loc 1 1677 0
 1656 0032 4FF48053 		mov	r3, #4096
 1657              	.LVL145:
 1658 0036 C4F20203 		movt	r3, 16386
 1659 003a 1B6A     		ldr	r3, [r3, #32]
 1660              	.LVL146:
 1661 003c E7E7     		b	.L122
 1662              		.cfi_endproc
 1663              	.LFE146:
 1664              		.size	RCC_GetFlagStatus, .-RCC_GetFlagStatus
 1665 003e 00BF     		.section	.text.RCC_WaitForHSEStartUp,"ax",%progbits
 1666              		.align	2
 1667              		.p2align 4,,15
 1668              		.global	RCC_WaitForHSEStartUp
 1669              		.thumb
 1670              		.thumb_func
 1671              		.type	RCC_WaitForHSEStartUp, %function
 1672              	RCC_WaitForHSEStartUp:
 1673              	.LFB113:
 1674              		.loc 1 275 0
 1675              		.cfi_startproc
 1676              		@ args = 0, pretend = 0, frame = 8
 1677              		@ frame_needed = 0, uses_anonymous_args = 0
 1678 0000 00B5     		push	{lr}
 1679              	.LCFI1:
ARM GAS  C:\Users\TaisikHam\AppData\Local\Temp\cclELrfj.s 			page 31


 1680              		.cfi_def_cfa_offset 4
 1681              		.cfi_offset 14, -4
 1682 0002 83B0     		sub	sp, sp, #12
 1683              	.LCFI2:
 1684              		.cfi_def_cfa_offset 16
 1685              		.loc 1 276 0
 1686 0004 0023     		movs	r3, #0
 1687 0006 0193     		str	r3, [sp, #4]
 1688              	.LVL147:
 1689 0008 00E0     		b	.L128
 1690              	.LVL148:
 1691              	.L136:
 1692              		.loc 1 285 0 discriminator 1
 1693 000a 48B9     		cbnz	r0, .L127
 1694              	.LVL149:
 1695              	.L128:
 1696              		.loc 1 283 0 discriminator 1
 1697 000c 1120     		movs	r0, #17
 1698 000e FFF7FEFF 		bl	RCC_GetFlagStatus
 1699              	.LVL150:
 1700              		.loc 1 284 0 discriminator 1
 1701 0012 019B     		ldr	r3, [sp, #4]
 1702 0014 0133     		adds	r3, r3, #1
 1703              	.LVL151:
 1704 0016 0193     		str	r3, [sp, #4]
 1705              	.LVL152:
 1706              		.loc 1 285 0 discriminator 1
 1707 0018 019B     		ldr	r3, [sp, #4]
 1708              	.LVL153:
 1709 001a B3F5A06F 		cmp	r3, #1280
 1710 001e F4D1     		bne	.L136
 1711              	.L127:
 1712              		.loc 1 287 0
 1713 0020 1120     		movs	r0, #17
 1714              	.LVL154:
 1715 0022 FFF7FEFF 		bl	RCC_GetFlagStatus
 1716              	.LVL155:
 1717              		.loc 1 296 0
 1718 0026 0030     		adds	r0, r0, #0
 1719              	.LVL156:
 1720 0028 18BF     		it	ne
 1721 002a 0120     		movne	r0, #1
 1722 002c 03B0     		add	sp, sp, #12
 1723 002e 00BD     		pop	{pc}
 1724              		.cfi_endproc
 1725              	.LFE113:
 1726              		.size	RCC_WaitForHSEStartUp, .-RCC_WaitForHSEStartUp
 1727              		.section	.text.RCC_ClearFlag,"ax",%progbits
 1728              		.align	2
 1729              		.p2align 4,,15
 1730              		.global	RCC_ClearFlag
 1731              		.thumb
 1732              		.thumb_func
 1733              		.type	RCC_ClearFlag, %function
 1734              	RCC_ClearFlag:
 1735              	.LFB147:
 1736              		.loc 1 1711 0
ARM GAS  C:\Users\TaisikHam\AppData\Local\Temp\cclELrfj.s 			page 32


 1737              		.cfi_startproc
 1738              		@ args = 0, pretend = 0, frame = 0
 1739              		@ frame_needed = 0, uses_anonymous_args = 0
 1740              		@ link register save eliminated.
 1741              		.loc 1 1713 0
 1742 0000 4FF48053 		mov	r3, #4096
 1743 0004 C4F20203 		movt	r3, 16386
 1744 0008 5A6A     		ldr	r2, [r3, #36]
 1745 000a 42F08072 		orr	r2, r2, #16777216
 1746 000e 5A62     		str	r2, [r3, #36]
 1747 0010 7047     		bx	lr
 1748              		.cfi_endproc
 1749              	.LFE147:
 1750              		.size	RCC_ClearFlag, .-RCC_ClearFlag
 1751              		.section	.text.RCC_GetITStatus,"ax",%progbits
 1752              		.align	2
 1753              		.p2align 4,,15
 1754              		.global	RCC_GetITStatus
 1755              		.thumb
 1756              		.thumb_func
 1757              		.type	RCC_GetITStatus, %function
 1758              	RCC_GetITStatus:
 1759              	.LFB148:
 1760              		.loc 1 1729 0
 1761              		.cfi_startproc
 1762              		@ args = 0, pretend = 0, frame = 0
 1763              		@ frame_needed = 0, uses_anonymous_args = 0
 1764              		@ link register save eliminated.
 1765              	.LVL157:
 1766              		.loc 1 1736 0
 1767 0000 4FF48053 		mov	r3, #4096
 1768 0004 C4F20203 		movt	r3, 16386
 1769 0008 9B68     		ldr	r3, [r3, #8]
 1770              	.LVL158:
 1771 000a 1842     		tst	r0, r3
 1772              		.loc 1 1746 0
 1773 000c 0CBF     		ite	eq
 1774 000e 0020     		moveq	r0, #0
 1775 0010 0120     		movne	r0, #1
 1776              	.LVL159:
 1777 0012 7047     		bx	lr
 1778              		.cfi_endproc
 1779              	.LFE148:
 1780              		.size	RCC_GetITStatus, .-RCC_GetITStatus
 1781 0014 AFF30080 		.section	.text.RCC_ClearITPendingBit,"ax",%progbits
 1781      AFF30080 
 1781      AFF30080 
 1782              		.align	2
 1783              		.p2align 4,,15
 1784              		.global	RCC_ClearITPendingBit
 1785              		.thumb
 1786              		.thumb_func
 1787              		.type	RCC_ClearITPendingBit, %function
 1788              	RCC_ClearITPendingBit:
 1789              	.LFB149:
 1790              		.loc 1 1761 0
 1791              		.cfi_startproc
ARM GAS  C:\Users\TaisikHam\AppData\Local\Temp\cclELrfj.s 			page 33


 1792              		@ args = 0, pretend = 0, frame = 0
 1793              		@ frame_needed = 0, uses_anonymous_args = 0
 1794              		@ link register save eliminated.
 1795              	.LVL160:
 1796              		.loc 1 1767 0
 1797 0000 41F20A03 		movw	r3, #4106
 1798 0004 C4F20203 		movt	r3, 16386
 1799 0008 1870     		strb	r0, [r3, #0]
 1800 000a 7047     		bx	lr
 1801              		.cfi_endproc
 1802              	.LFE149:
 1803              		.size	RCC_ClearITPendingBit, .-RCC_ClearITPendingBit
 1804 000c AFF30080 		.section	.data.ADCPrescTable,"aw",%progbits
 1805              		.align	2
 1806              		.set	.LANCHOR1,. + 0
 1807              		.type	ADCPrescTable, %object
 1808              		.size	ADCPrescTable, 26
 1809              	ADCPrescTable:
 1810 0000 0000     		.short	0
 1811 0002 0100     		.short	1
 1812 0004 0200     		.short	2
 1813 0006 0400     		.short	4
 1814 0008 0600     		.short	6
 1815 000a 0800     		.short	8
 1816 000c 0A00     		.short	10
 1817 000e 0C00     		.short	12
 1818 0010 1000     		.short	16
 1819 0012 2000     		.short	32
 1820 0014 4000     		.short	64
 1821 0016 8000     		.short	128
 1822 0018 0001     		.short	256
 1823 001a 0000     		.section	.data.APBAHBPrescTable,"aw",%progbits
 1824              		.align	2
 1825              		.set	.LANCHOR0,. + 0
 1826              		.type	APBAHBPrescTable, %object
 1827              		.size	APBAHBPrescTable, 16
 1828              	APBAHBPrescTable:
 1829 0000 00       		.byte	0
 1830 0001 00       		.byte	0
 1831 0002 00       		.byte	0
 1832 0003 00       		.byte	0
 1833 0004 01       		.byte	1
 1834 0005 02       		.byte	2
 1835 0006 03       		.byte	3
 1836 0007 04       		.byte	4
 1837 0008 01       		.byte	1
 1838 0009 02       		.byte	2
 1839 000a 03       		.byte	3
 1840 000b 04       		.byte	4
 1841 000c 06       		.byte	6
 1842 000d 07       		.byte	7
 1843 000e 08       		.byte	8
 1844 000f 09       		.byte	9
 1845              		.text
 1846              	.Letext0:
 1847              		.file 2 "c:/develop/genist/chibistudio/tools/yagarto-tools/yagarto-20121222/lib/gcc/../../arm-none
 1848              		.file 3 "../../../os/hal/platforms/STM32F30x/stm32f30x.h"
ARM GAS  C:\Users\TaisikHam\AppData\Local\Temp\cclELrfj.s 			page 34


 1849              		.file 4 "../../../Testhal_wrk/STM32F30x/Gyro/stm32f30x_rcc.h"
 1850              		.file 5 "../../../os/ports/common/ARMCMx/CMSIS/include/core_cm4.h"