ARM GAS  C:\Users\TaisikHam\AppData\Local\Temp\ccNzzKEh.s 			page 1


   1              		.syntax unified
   2              		.cpu cortex-m4
   3              		.fpu softvfp
   4              		.eabi_attribute 20, 1
   5              		.eabi_attribute 21, 1
   6              		.eabi_attribute 23, 3
   7              		.eabi_attribute 24, 1
   8              		.eabi_attribute 25, 1
   9              		.eabi_attribute 26, 1
  10              		.eabi_attribute 30, 2
  11              		.eabi_attribute 34, 1
  12              		.eabi_attribute 18, 4
  13              		.thumb
  14              		.file	"stm32f30x_spi.c"
  15              		.text
  16              	.Ltext0:
  17              		.cfi_sections	.debug_frame
  18              		.section	.text.SPI_I2S_DeInit,"ax",%progbits
  19              		.align	2
  20              		.p2align 4,,15
  21              		.global	SPI_I2S_DeInit
  22              		.thumb
  23              		.thumb_func
  24              		.type	SPI_I2S_DeInit, %function
  25              	SPI_I2S_DeInit:
  26              	.LFB111:
  27              		.file 1 "../../../Testhal_wrk/STM32F30x/Gyro/stm32f30x_spi.c"
  28              		.loc 1 191 0
  29              		.cfi_startproc
  30              		@ args = 0, pretend = 0, frame = 0
  31              		@ frame_needed = 0, uses_anonymous_args = 0
  32              	.LVL0:
  33 0000 08B5     		push	{r3, lr}
  34              	.LCFI0:
  35              		.cfi_def_cfa_offset 8
  36              		.cfi_offset 3, -8
  37              		.cfi_offset 14, -4
  38              		.loc 1 196 0
  39 0002 4FF44053 		mov	r3, #12288
  40 0006 C4F20103 		movt	r3, 16385
  41 000a 9842     		cmp	r0, r3
  42 000c 18D0     		beq	.L6
  43              		.loc 1 203 0
  44 000e 4FF46053 		mov	r3, #14336
  45 0012 C4F20003 		movt	r3, 16384
  46 0016 9842     		cmp	r0, r3
  47 0018 1ED0     		beq	.L7
  48              		.loc 1 212 0
  49 001a 4FF47053 		mov	r3, #15360
  50 001e C4F20003 		movt	r3, 16384
  51 0022 9842     		cmp	r0, r3
  52 0024 00D0     		beq	.L8
  53 0026 08BD     		pop	{r3, pc}
  54              	.L8:
  55              		.loc 1 215 0
  56 0028 0121     		movs	r1, #1
  57 002a 4FF40040 		mov	r0, #32768
ARM GAS  C:\Users\TaisikHam\AppData\Local\Temp\ccNzzKEh.s 			page 2


  58              	.LVL1:
  59 002e FFF7FEFF 		bl	RCC_APB1PeriphResetCmd
  60              	.LVL2:
  61              		.loc 1 217 0
  62 0032 4FF40040 		mov	r0, #32768
  63 0036 0021     		movs	r1, #0
  64              		.loc 1 220 0
  65 0038 BDE80840 		pop	{r3, lr}
  66              		.loc 1 217 0
  67 003c FFF7FEBF 		b	RCC_APB1PeriphResetCmd
  68              	.LVL3:
  69              	.L6:
  70              		.loc 1 199 0
  71 0040 0121     		movs	r1, #1
  72 0042 4FF48050 		mov	r0, #4096
  73              	.LVL4:
  74 0046 FFF7FEFF 		bl	RCC_APB2PeriphResetCmd
  75              	.LVL5:
  76              		.loc 1 201 0
  77 004a 4FF48050 		mov	r0, #4096
  78 004e 0021     		movs	r1, #0
  79              		.loc 1 220 0
  80 0050 BDE80840 		pop	{r3, lr}
  81              		.loc 1 201 0
  82 0054 FFF7FEBF 		b	RCC_APB2PeriphResetCmd
  83              	.LVL6:
  84              	.L7:
  85              		.loc 1 206 0
  86 0058 0121     		movs	r1, #1
  87 005a 4FF48040 		mov	r0, #16384
  88              	.LVL7:
  89 005e FFF7FEFF 		bl	RCC_APB1PeriphResetCmd
  90              	.LVL8:
  91              		.loc 1 208 0
  92 0062 4FF48040 		mov	r0, #16384
  93 0066 0021     		movs	r1, #0
  94              		.loc 1 220 0
  95 0068 BDE80840 		pop	{r3, lr}
  96              		.loc 1 208 0
  97 006c FFF7FEBF 		b	RCC_APB1PeriphResetCmd
  98              	.LVL9:
  99              		.cfi_endproc
 100              	.LFE111:
 101              		.size	SPI_I2S_DeInit, .-SPI_I2S_DeInit
 102              		.section	.text.SPI_StructInit,"ax",%progbits
 103              		.align	2
 104              		.p2align 4,,15
 105              		.global	SPI_StructInit
 106              		.thumb
 107              		.thumb_func
 108              		.type	SPI_StructInit, %function
 109              	SPI_StructInit:
 110              	.LFB112:
 111              		.loc 1 228 0
 112              		.cfi_startproc
 113              		@ args = 0, pretend = 0, frame = 0
 114              		@ frame_needed = 0, uses_anonymous_args = 0
ARM GAS  C:\Users\TaisikHam\AppData\Local\Temp\ccNzzKEh.s 			page 3


 115              		@ link register save eliminated.
 116              	.LVL10:
 117              		.loc 1 231 0
 118 0000 0023     		movs	r3, #0
 119 0002 0380     		strh	r3, [r0, #0]	@ movhi
 120              		.loc 1 233 0
 121 0004 4380     		strh	r3, [r0, #2]	@ movhi
 122              		.loc 1 235 0
 123 0006 4FF4E062 		mov	r2, #1792
 124              		.loc 1 237 0
 125 000a C380     		strh	r3, [r0, #6]	@ movhi
 126              		.loc 1 239 0
 127 000c 0381     		strh	r3, [r0, #8]	@ movhi
 128              		.loc 1 241 0
 129 000e 4381     		strh	r3, [r0, #10]	@ movhi
 130              		.loc 1 243 0
 131 0010 8381     		strh	r3, [r0, #12]	@ movhi
 132              		.loc 1 245 0
 133 0012 C381     		strh	r3, [r0, #14]	@ movhi
 134              		.loc 1 247 0
 135 0014 0723     		movs	r3, #7
 136              		.loc 1 235 0
 137 0016 8280     		strh	r2, [r0, #4]	@ movhi
 138              		.loc 1 247 0
 139 0018 0382     		strh	r3, [r0, #16]	@ movhi
 140 001a 7047     		bx	lr
 141              		.cfi_endproc
 142              	.LFE112:
 143              		.size	SPI_StructInit, .-SPI_StructInit
 144 001c AFF30080 		.section	.text.SPI_Init,"ax",%progbits
 145              		.align	2
 146              		.p2align 4,,15
 147              		.global	SPI_Init
 148              		.thumb
 149              		.thumb_func
 150              		.type	SPI_Init, %function
 151              	SPI_Init:
 152              	.LFB113:
 153              		.loc 1 259 0
 154              		.cfi_startproc
 155              		@ args = 0, pretend = 0, frame = 0
 156              		@ frame_needed = 0, uses_anonymous_args = 0
 157              		@ link register save eliminated.
 158              	.LVL11:
 159              		.loc 1 279 0
 160 0000 4A88     		ldrh	r2, [r1, #2]
 161 0002 B2F5827F 		cmp	r2, #260
 162              		.loc 1 259 0
 163 0006 2DE9F003 		push	{r4, r5, r6, r7, r8, r9}
 164              	.LCFI1:
 165              		.cfi_def_cfa_offset 24
 166              		.cfi_offset 4, -24
 167              		.cfi_offset 5, -20
 168              		.cfi_offset 6, -16
 169              		.cfi_offset 7, -12
 170              		.cfi_offset 8, -8
 171              		.cfi_offset 9, -4
ARM GAS  C:\Users\TaisikHam\AppData\Local\Temp\ccNzzKEh.s 			page 4


 172              		.loc 1 279 0
 173 000a 2BD0     		beq	.L13
 174              		.loc 1 315 0
 175 000c 8388     		ldrh	r3, [r0, #4]
 176              	.LVL12:
 177              		.loc 1 335 0
 178 000e B1F80090 		ldrh	r9, [r1, #0]
 179              		.loc 1 319 0
 180 0012 B1F804C0 		ldrh	ip, [r1, #4]
 181              		.loc 1 337 0
 182 0016 B1F80680 		ldrh	r8, [r1, #6]
 183 001a 0F89     		ldrh	r7, [r1, #8]
 184              		.loc 1 336 0
 185 001c 4E89     		ldrh	r6, [r1, #10]
 186 001e 8D89     		ldrh	r5, [r1, #12]
 187              		.loc 1 335 0
 188 0020 CC89     		ldrh	r4, [r1, #14]
 189              		.loc 1 317 0
 190 0022 23F47063 		bic	r3, r3, #3840
 191              	.LVL13:
 192 0026 1B04     		lsls	r3, r3, #16
 193 0028 1B0C     		lsrs	r3, r3, #16
 194              	.LVL14:
 195              		.loc 1 335 0
 196 002a 42EA0902 		orr	r2, r2, r9
 197              		.loc 1 319 0
 198 002e 43EA0C0C 		orr	ip, r3, ip
 199              	.LVL15:
 200              		.loc 1 337 0
 201 0032 42EA0803 		orr	r3, r2, r8
 202              		.loc 1 321 0
 203 0036 A0F804C0 		strh	ip, [r0, #4]	@ movhi
 204              		.loc 1 337 0
 205 003a 3B43     		orrs	r3, r3, r7
 206              		.loc 1 324 0
 207 003c 0288     		ldrh	r2, [r0, #0]
 208              	.LVL16:
 209              		.loc 1 336 0
 210 003e 3343     		orrs	r3, r3, r6
 211 0040 2B43     		orrs	r3, r3, r5
 212              		.loc 1 326 0
 213 0042 02F44152 		and	r2, r2, #12352
 214              	.LVL17:
 215              		.loc 1 335 0
 216 0046 2343     		orrs	r3, r3, r4
 217 0048 1343     		orrs	r3, r3, r2
 218 004a 9BB2     		uxth	r3, r3
 219              	.LVL18:
 220              		.loc 1 341 0
 221 004c 0380     		strh	r3, [r0, #0]	@ movhi
 222              	.LVL19:
 223              	.L12:
 224              		.loc 1 345 0
 225 004e 838B     		ldrh	r3, [r0, #28]
 226              		.loc 1 349 0
 227 0050 0A8A     		ldrh	r2, [r1, #16]
 228              		.loc 1 345 0
ARM GAS  C:\Users\TaisikHam\AppData\Local\Temp\ccNzzKEh.s 			page 5


 229 0052 23F40063 		bic	r3, r3, #2048
 230 0056 1B04     		lsls	r3, r3, #16
 231 0058 1B0C     		lsrs	r3, r3, #16
 232 005a 8383     		strh	r3, [r0, #28]	@ movhi
 233              		.loc 1 349 0
 234 005c 0282     		strh	r2, [r0, #16]	@ movhi
 235              		.loc 1 350 0
 236 005e BDE8F003 		pop	{r4, r5, r6, r7, r8, r9}
 237 0062 7047     		bx	lr
 238              	.LVL20:
 239              	.L13:
 240              		.loc 1 294 0
 241 0064 B1F80080 		ldrh	r8, [r1, #0]
 242 0068 CB88     		ldrh	r3, [r1, #6]
 243              		.loc 1 296 0
 244 006a B1F808C0 		ldrh	ip, [r1, #8]
 245              		.loc 1 295 0
 246 006e 4F89     		ldrh	r7, [r1, #10]
 247 0070 8E89     		ldrh	r6, [r1, #12]
 248              		.loc 1 283 0
 249 0072 0488     		ldrh	r4, [r0, #0]
 250              	.LVL21:
 251              		.loc 1 294 0
 252 0074 CD89     		ldrh	r5, [r1, #14]
 253              		.loc 1 306 0
 254 0076 8A88     		ldrh	r2, [r1, #4]
 255              		.loc 1 294 0
 256 0078 48EA0303 		orr	r3, r8, r3
 257              		.loc 1 296 0
 258 007c 43F48273 		orr	r3, r3, #260
 259 0080 43EA0C03 		orr	r3, r3, ip
 260              		.loc 1 295 0
 261 0084 3B43     		orrs	r3, r3, r7
 262 0086 3343     		orrs	r3, r3, r6
 263              		.loc 1 285 0
 264 0088 04F44154 		and	r4, r4, #12352
 265              	.LVL22:
 266              		.loc 1 294 0
 267 008c 2B43     		orrs	r3, r3, r5
 268 008e 2343     		orrs	r3, r3, r4
 269 0090 9BB2     		uxth	r3, r3
 270              	.LVL23:
 271              		.loc 1 299 0
 272 0092 0380     		strh	r3, [r0, #0]	@ movhi
 273              		.loc 1 302 0
 274 0094 8388     		ldrh	r3, [r0, #4]
 275              	.LVL24:
 276              		.loc 1 304 0
 277 0096 23F47063 		bic	r3, r3, #3840
 278              	.LVL25:
 279 009a 1B04     		lsls	r3, r3, #16
 280 009c 1B0C     		lsrs	r3, r3, #16
 281              	.LVL26:
 282              		.loc 1 306 0
 283 009e 1343     		orrs	r3, r3, r2
 284              	.LVL27:
 285              		.loc 1 308 0
ARM GAS  C:\Users\TaisikHam\AppData\Local\Temp\ccNzzKEh.s 			page 6


 286 00a0 8380     		strh	r3, [r0, #4]	@ movhi
 287 00a2 D4E7     		b	.L12
 288              		.cfi_endproc
 289              	.LFE113:
 290              		.size	SPI_Init, .-SPI_Init
 291 00a4 AFF30080 		.section	.text.I2S_StructInit,"ax",%progbits
 291      AFF30080 
 291      AFF30080 
 292              		.align	2
 293              		.p2align 4,,15
 294              		.global	I2S_StructInit
 295              		.thumb
 296              		.thumb_func
 297              		.type	I2S_StructInit, %function
 298              	I2S_StructInit:
 299              	.LFB114:
 300              		.loc 1 358 0
 301              		.cfi_startproc
 302              		@ args = 0, pretend = 0, frame = 0
 303              		@ frame_needed = 0, uses_anonymous_args = 0
 304              		@ link register save eliminated.
 305              	.LVL28:
 306              		.loc 1 361 0
 307 0000 0023     		movs	r3, #0
 308              		.loc 1 373 0
 309 0002 0222     		movs	r2, #2
 310              		.loc 1 361 0
 311 0004 0380     		strh	r3, [r0, #0]	@ movhi
 312              		.loc 1 364 0
 313 0006 4380     		strh	r3, [r0, #2]	@ movhi
 314              		.loc 1 367 0
 315 0008 8380     		strh	r3, [r0, #4]	@ movhi
 316              		.loc 1 370 0
 317 000a C380     		strh	r3, [r0, #6]	@ movhi
 318              		.loc 1 373 0
 319 000c 8260     		str	r2, [r0, #8]
 320              		.loc 1 376 0
 321 000e 8381     		strh	r3, [r0, #12]	@ movhi
 322 0010 7047     		bx	lr
 323              		.cfi_endproc
 324              	.LFE114:
 325              		.size	I2S_StructInit, .-I2S_StructInit
 326 0012 00BFAFF3 		.section	.text.I2S_Init,"ax",%progbits
 326      0080AFF3 
 326      0080AFF3 
 326      0080
 327              		.align	2
 328              		.p2align 4,,15
 329              		.global	I2S_Init
 330              		.thumb
 331              		.thumb_func
 332              		.type	I2S_Init, %function
 333              	I2S_Init:
 334              	.LFB115:
 335              		.loc 1 395 0
 336              		.cfi_startproc
 337              		@ args = 0, pretend = 0, frame = 64
ARM GAS  C:\Users\TaisikHam\AppData\Local\Temp\ccNzzKEh.s 			page 7


 338              		@ frame_needed = 0, uses_anonymous_args = 0
 339              	.LVL29:
 340              		.loc 1 414 0
 341 0000 838B     		ldrh	r3, [r0, #28]
 342              		.loc 1 421 0
 343 0002 8A68     		ldr	r2, [r1, #8]
 344              		.loc 1 414 0
 345 0004 23F47B63 		bic	r3, r3, #4016
 346 0008 23F00F03 		bic	r3, r3, #15
 347 000c 1B04     		lsls	r3, r3, #16
 348              		.loc 1 395 0
 349 000e F0B5     		push	{r4, r5, r6, r7, lr}
 350              	.LCFI2:
 351              		.cfi_def_cfa_offset 20
 352              		.cfi_offset 4, -20
 353              		.cfi_offset 5, -16
 354              		.cfi_offset 6, -12
 355              		.cfi_offset 7, -8
 356              		.cfi_offset 14, -4
 357              		.loc 1 414 0
 358 0010 1B0C     		lsrs	r3, r3, #16
 359 0012 8383     		strh	r3, [r0, #28]	@ movhi
 360              		.loc 1 415 0
 361 0014 0223     		movs	r3, #2
 362 0016 0384     		strh	r3, [r0, #32]	@ movhi
 363              		.loc 1 418 0
 364 0018 868B     		ldrh	r6, [r0, #28]
 365              		.loc 1 421 0
 366 001a 9A42     		cmp	r2, r3
 367              		.loc 1 395 0
 368 001c 91B0     		sub	sp, sp, #68
 369              	.LCFI3:
 370              		.cfi_def_cfa_offset 88
 371              		.loc 1 395 0
 372 001e 0546     		mov	r5, r0
 373 0020 0C46     		mov	r4, r1
 374              		.loc 1 418 0
 375 0022 B6B2     		uxth	r6, r6
 376              	.LVL30:
 377 0024 08BF     		it	eq
 378 0026 CB88     		ldrheq	r3, [r1, #6]
 379              		.loc 1 421 0
 380 0028 27D0     		beq	.L21
 381              		.loc 1 430 0
 382 002a 8A88     		ldrh	r2, [r1, #4]
 383              		.loc 1 442 0
 384 002c 01A8     		add	r0, sp, #4
 385              	.LVL31:
 386              		.loc 1 433 0
 387 002e 002A     		cmp	r2, #0
 388 0030 14BF     		ite	ne
 389 0032 0227     		movne	r7, #2
 390 0034 0127     		moveq	r7, #1
 391              	.LVL32:
 392              		.loc 1 442 0
 393 0036 FFF7FEFF 		bl	RCC_GetClocksFreq
 394              	.LVL33:
ARM GAS  C:\Users\TaisikHam\AppData\Local\Temp\ccNzzKEh.s 			page 8


 395              		.loc 1 448 0
 396 003a E388     		ldrh	r3, [r4, #6]
 397              		.loc 1 445 0
 398 003c 0199     		ldr	r1, [sp, #4]
 399              	.LVL34:
 400              		.loc 1 448 0
 401 003e B3F5007F 		cmp	r3, #512
 402 0042 2DD0     		beq	.L24
 403              		.loc 1 456 0
 404 0044 7A01     		lsls	r2, r7, #5
 405 0046 B1FBF2F2 		udiv	r2, r1, r2
 406 004a 02EB8202 		add	r2, r2, r2, lsl #2
 407 004e A168     		ldr	r1, [r4, #8]
 408              	.LVL35:
 409 0050 5200     		lsls	r2, r2, #1
 410 0052 B2FBF1F2 		udiv	r2, r2, r1
 411 0056 0532     		adds	r2, r2, #5
 412 0058 92B2     		uxth	r2, r2
 413              	.LVL36:
 414              	.L20:
 415              		.loc 1 460 0
 416 005a 4CF6CD41 		movw	r1, #52429
 417 005e CCF6CC41 		movt	r1, 52428
 418 0062 A1FB0202 		umull	r0, r2, r1, r2
 419              	.LVL37:
 420 0066 D208     		lsrs	r2, r2, #3
 421              	.LVL38:
 422              		.loc 1 466 0
 423 0068 5108     		lsrs	r1, r2, #1
 424              	.LVL39:
 425              		.loc 1 473 0
 426 006a 881E     		subs	r0, r1, #2
 427              		.loc 1 466 0
 428 006c 02F00102 		and	r2, r2, #1
 429              	.LVL40:
 430              		.loc 1 473 0
 431 0070 FD28     		cmp	r0, #253
 432 0072 94BF     		ite	ls
 433 0074 41EA0222 		orrls	r2, r1, r2, lsl #8
 434 0078 0222     		movhi	r2, #2
 435              	.LVL41:
 436              	.L21:
 437              		.loc 1 485 0
 438 007a 2188     		ldrh	r1, [r4, #0]
 439              		.loc 1 484 0
 440 007c B4F802C0 		ldrh	ip, [r4, #2]
 441 0080 A788     		ldrh	r7, [r4, #4]
 442 0082 A089     		ldrh	r0, [r4, #12]
 443              		.loc 1 485 0
 444 0084 3143     		orrs	r1, r1, r6
 445 0086 41F40061 		orr	r1, r1, #2048
 446              		.loc 1 484 0
 447 008a 41EA0C01 		orr	r1, r1, ip
 448 008e 3943     		orrs	r1, r1, r7
 449              		.loc 1 481 0
 450 0090 1343     		orrs	r3, r3, r2
 451              		.loc 1 484 0
ARM GAS  C:\Users\TaisikHam\AppData\Local\Temp\ccNzzKEh.s 			page 9


 452 0092 0143     		orrs	r1, r1, r0
 453              		.loc 1 481 0
 454 0094 9BB2     		uxth	r3, r3
 455              		.loc 1 484 0
 456 0096 89B2     		uxth	r1, r1
 457              	.LVL42:
 458              		.loc 1 481 0
 459 0098 2B84     		strh	r3, [r5, #32]	@ movhi
 460              		.loc 1 489 0
 461 009a A983     		strh	r1, [r5, #28]	@ movhi
 462              		.loc 1 490 0
 463 009c 11B0     		add	sp, sp, #68
 464 009e F0BD     		pop	{r4, r5, r6, r7, pc}
 465              	.LVL43:
 466              	.L24:
 467              		.loc 1 451 0
 468 00a0 090A     		lsrs	r1, r1, #8
 469              	.LVL44:
 470 00a2 01EB8101 		add	r1, r1, r1, lsl #2
 471 00a6 A068     		ldr	r0, [r4, #8]
 472 00a8 4A00     		lsls	r2, r1, #1
 473 00aa B2FBF0F2 		udiv	r2, r2, r0
 474 00ae 0532     		adds	r2, r2, #5
 475 00b0 92B2     		uxth	r2, r2
 476              	.LVL45:
 477 00b2 D2E7     		b	.L20
 478              		.cfi_endproc
 479              	.LFE115:
 480              		.size	I2S_Init, .-I2S_Init
 481 00b4 AFF30080 		.section	.text.SPI_Cmd,"ax",%progbits
 481      AFF30080 
 481      AFF30080 
 482              		.align	2
 483              		.p2align 4,,15
 484              		.global	SPI_Cmd
 485              		.thumb
 486              		.thumb_func
 487              		.type	SPI_Cmd, %function
 488              	SPI_Cmd:
 489              	.LFB116:
 490              		.loc 1 500 0
 491              		.cfi_startproc
 492              		@ args = 0, pretend = 0, frame = 0
 493              		@ frame_needed = 0, uses_anonymous_args = 0
 494              		@ link register save eliminated.
 495              	.LVL46:
 496              		.loc 1 510 0
 497 0000 0388     		ldrh	r3, [r0, #0]
 498              		.loc 1 507 0
 499 0002 29B9     		cbnz	r1, .L28
 500              		.loc 1 515 0
 501 0004 23F04003 		bic	r3, r3, #64
 502 0008 1B04     		lsls	r3, r3, #16
 503 000a 1B0C     		lsrs	r3, r3, #16
 504 000c 0380     		strh	r3, [r0, #0]	@ movhi
 505 000e 7047     		bx	lr
 506              	.L28:
ARM GAS  C:\Users\TaisikHam\AppData\Local\Temp\ccNzzKEh.s 			page 10


 507              		.loc 1 510 0
 508 0010 9BB2     		uxth	r3, r3
 509 0012 43F04003 		orr	r3, r3, #64
 510 0016 0380     		strh	r3, [r0, #0]	@ movhi
 511 0018 7047     		bx	lr
 512              		.cfi_endproc
 513              	.LFE116:
 514              		.size	SPI_Cmd, .-SPI_Cmd
 515 001a 00BFAFF3 		.section	.text.SPI_TIModeCmd,"ax",%progbits
 515      0080
 516              		.align	2
 517              		.p2align 4,,15
 518              		.global	SPI_TIModeCmd
 519              		.thumb
 520              		.thumb_func
 521              		.type	SPI_TIModeCmd, %function
 522              	SPI_TIModeCmd:
 523              	.LFB117:
 524              		.loc 1 532 0
 525              		.cfi_startproc
 526              		@ args = 0, pretend = 0, frame = 0
 527              		@ frame_needed = 0, uses_anonymous_args = 0
 528              		@ link register save eliminated.
 529              	.LVL47:
 530              		.loc 1 542 0
 531 0000 8388     		ldrh	r3, [r0, #4]
 532              		.loc 1 539 0
 533 0002 29B9     		cbnz	r1, .L32
 534              		.loc 1 547 0
 535 0004 23F01003 		bic	r3, r3, #16
 536 0008 1B04     		lsls	r3, r3, #16
 537 000a 1B0C     		lsrs	r3, r3, #16
 538 000c 8380     		strh	r3, [r0, #4]	@ movhi
 539 000e 7047     		bx	lr
 540              	.L32:
 541              		.loc 1 542 0
 542 0010 9BB2     		uxth	r3, r3
 543 0012 43F01003 		orr	r3, r3, #16
 544 0016 8380     		strh	r3, [r0, #4]	@ movhi
 545 0018 7047     		bx	lr
 546              		.cfi_endproc
 547              	.LFE117:
 548              		.size	SPI_TIModeCmd, .-SPI_TIModeCmd
 549 001a 00BFAFF3 		.section	.text.I2S_Cmd,"ax",%progbits
 549      0080
 550              		.align	2
 551              		.p2align 4,,15
 552              		.global	I2S_Cmd
 553              		.thumb
 554              		.thumb_func
 555              		.type	I2S_Cmd, %function
 556              	I2S_Cmd:
 557              	.LFB118:
 558              		.loc 1 560 0
 559              		.cfi_startproc
 560              		@ args = 0, pretend = 0, frame = 0
 561              		@ frame_needed = 0, uses_anonymous_args = 0
ARM GAS  C:\Users\TaisikHam\AppData\Local\Temp\ccNzzKEh.s 			page 11


 562              		@ link register save eliminated.
 563              	.LVL48:
 564              		.loc 1 570 0
 565 0000 838B     		ldrh	r3, [r0, #28]
 566              		.loc 1 567 0
 567 0002 29B9     		cbnz	r1, .L36
 568              		.loc 1 575 0
 569 0004 23F48063 		bic	r3, r3, #1024
 570 0008 1B04     		lsls	r3, r3, #16
 571 000a 1B0C     		lsrs	r3, r3, #16
 572 000c 8383     		strh	r3, [r0, #28]	@ movhi
 573 000e 7047     		bx	lr
 574              	.L36:
 575              		.loc 1 570 0
 576 0010 9BB2     		uxth	r3, r3
 577 0012 43F48063 		orr	r3, r3, #1024
 578 0016 8383     		strh	r3, [r0, #28]	@ movhi
 579 0018 7047     		bx	lr
 580              		.cfi_endproc
 581              	.LFE118:
 582              		.size	I2S_Cmd, .-I2S_Cmd
 583 001a 00BFAFF3 		.section	.text.SPI_DataSizeConfig,"ax",%progbits
 583      0080
 584              		.align	2
 585              		.p2align 4,,15
 586              		.global	SPI_DataSizeConfig
 587              		.thumb
 588              		.thumb_func
 589              		.type	SPI_DataSizeConfig, %function
 590              	SPI_DataSizeConfig:
 591              	.LFB119:
 592              		.loc 1 600 0
 593              		.cfi_startproc
 594              		@ args = 0, pretend = 0, frame = 0
 595              		@ frame_needed = 0, uses_anonymous_args = 0
 596              		@ link register save eliminated.
 597              	.LVL49:
 598              		.loc 1 609 0
 599 0000 8388     		ldrh	r3, [r0, #4]
 600              	.LVL50:
 601              		.loc 1 611 0
 602 0002 23F47063 		bic	r3, r3, #3840
 603              	.LVL51:
 604 0006 1B04     		lsls	r3, r3, #16
 605 0008 1B0C     		lsrs	r3, r3, #16
 606              	.LVL52:
 607              		.loc 1 613 0
 608 000a 1943     		orrs	r1, r1, r3
 609              	.LVL53:
 610              		.loc 1 614 0
 611 000c 8180     		strh	r1, [r0, #4]	@ movhi
 612 000e 7047     		bx	lr
 613              		.cfi_endproc
 614              	.LFE119:
 615              		.size	SPI_DataSizeConfig, .-SPI_DataSizeConfig
 616              		.section	.text.SPI_RxFIFOThresholdConfig,"ax",%progbits
 617              		.align	2
ARM GAS  C:\Users\TaisikHam\AppData\Local\Temp\ccNzzKEh.s 			page 12


 618              		.p2align 4,,15
 619              		.global	SPI_RxFIFOThresholdConfig
 620              		.thumb
 621              		.thumb_func
 622              		.type	SPI_RxFIFOThresholdConfig, %function
 623              	SPI_RxFIFOThresholdConfig:
 624              	.LFB120:
 625              		.loc 1 629 0
 626              		.cfi_startproc
 627              		@ args = 0, pretend = 0, frame = 0
 628              		@ frame_needed = 0, uses_anonymous_args = 0
 629              		@ link register save eliminated.
 630              	.LVL54:
 631              		.loc 1 637 0
 632 0000 8388     		ldrh	r3, [r0, #4]
 633 0002 23F48053 		bic	r3, r3, #4096
 634 0006 1B04     		lsls	r3, r3, #16
 635 0008 1B0C     		lsrs	r3, r3, #16
 636 000a 8380     		strh	r3, [r0, #4]	@ movhi
 637              		.loc 1 640 0
 638 000c 8388     		ldrh	r3, [r0, #4]
 639 000e 9BB2     		uxth	r3, r3
 640 0010 1943     		orrs	r1, r1, r3
 641              	.LVL55:
 642 0012 8180     		strh	r1, [r0, #4]	@ movhi
 643 0014 7047     		bx	lr
 644              		.cfi_endproc
 645              	.LFE120:
 646              		.size	SPI_RxFIFOThresholdConfig, .-SPI_RxFIFOThresholdConfig
 647 0016 00BFAFF3 		.section	.text.SPI_BiDirectionalLineConfig,"ax",%progbits
 647      0080AFF3 
 647      0080
 648              		.align	2
 649              		.p2align 4,,15
 650              		.global	SPI_BiDirectionalLineConfig
 651              		.thumb
 652              		.thumb_func
 653              		.type	SPI_BiDirectionalLineConfig, %function
 654              	SPI_BiDirectionalLineConfig:
 655              	.LFB121:
 656              		.loc 1 653 0
 657              		.cfi_startproc
 658              		@ args = 0, pretend = 0, frame = 0
 659              		@ frame_needed = 0, uses_anonymous_args = 0
 660              		@ link register save eliminated.
 661              	.LVL56:
 662              		.loc 1 659 0
 663 0000 B1F5804F 		cmp	r1, #16384
 664              		.loc 1 662 0
 665 0004 0388     		ldrh	r3, [r0, #0]
 666              		.loc 1 659 0
 667 0006 05D0     		beq	.L42
 668              		.loc 1 667 0
 669 0008 23F48043 		bic	r3, r3, #16384
 670 000c 1B04     		lsls	r3, r3, #16
 671 000e 1B0C     		lsrs	r3, r3, #16
 672 0010 0380     		strh	r3, [r0, #0]	@ movhi
ARM GAS  C:\Users\TaisikHam\AppData\Local\Temp\ccNzzKEh.s 			page 13


 673 0012 7047     		bx	lr
 674              	.L42:
 675              		.loc 1 662 0
 676 0014 9BB2     		uxth	r3, r3
 677 0016 43F48043 		orr	r3, r3, #16384
 678 001a 0380     		strh	r3, [r0, #0]	@ movhi
 679 001c 7047     		bx	lr
 680              		.cfi_endproc
 681              	.LFE121:
 682              		.size	SPI_BiDirectionalLineConfig, .-SPI_BiDirectionalLineConfig
 683 001e 00BF     		.section	.text.SPI_NSSInternalSoftwareConfig,"ax",%progbits
 684              		.align	2
 685              		.p2align 4,,15
 686              		.global	SPI_NSSInternalSoftwareConfig
 687              		.thumb
 688              		.thumb_func
 689              		.type	SPI_NSSInternalSoftwareConfig, %function
 690              	SPI_NSSInternalSoftwareConfig:
 691              	.LFB122:
 692              		.loc 1 683 0
 693              		.cfi_startproc
 694              		@ args = 0, pretend = 0, frame = 0
 695              		@ frame_needed = 0, uses_anonymous_args = 0
 696              		@ link register save eliminated.
 697              	.LVL57:
 698              		.loc 1 690 0
 699 0000 4FF6FF63 		movw	r3, #65279
 700 0004 9942     		cmp	r1, r3
 701              		.loc 1 693 0
 702 0006 0388     		ldrh	r3, [r0, #0]
 703              		.loc 1 690 0
 704 0008 04D0     		beq	.L44
 705              		.loc 1 693 0
 706 000a 9BB2     		uxth	r3, r3
 707 000c 43F48073 		orr	r3, r3, #256
 708 0010 0380     		strh	r3, [r0, #0]	@ movhi
 709 0012 7047     		bx	lr
 710              	.L44:
 711              		.loc 1 698 0
 712 0014 23F48073 		bic	r3, r3, #256
 713 0018 1B04     		lsls	r3, r3, #16
 714 001a 1B0C     		lsrs	r3, r3, #16
 715 001c 0380     		strh	r3, [r0, #0]	@ movhi
 716 001e 7047     		bx	lr
 717              		.cfi_endproc
 718              	.LFE122:
 719              		.size	SPI_NSSInternalSoftwareConfig, .-SPI_NSSInternalSoftwareConfig
 720              		.section	.text.I2S_FullDuplexConfig,"ax",%progbits
 721              		.align	2
 722              		.p2align 4,,15
 723              		.global	I2S_FullDuplexConfig
 724              		.thumb
 725              		.thumb_func
 726              		.type	I2S_FullDuplexConfig, %function
 727              	I2S_FullDuplexConfig:
 728              	.LFB123:
 729              		.loc 1 722 0
ARM GAS  C:\Users\TaisikHam\AppData\Local\Temp\ccNzzKEh.s 			page 14


 730              		.cfi_startproc
 731              		@ args = 0, pretend = 0, frame = 0
 732              		@ frame_needed = 0, uses_anonymous_args = 0
 733              		@ link register save eliminated.
 734              	.LVL58:
 735              		.loc 1 737 0
 736 0000 838B     		ldrh	r3, [r0, #28]
 737 0002 23F47B63 		bic	r3, r3, #4016
 738 0006 23F00F03 		bic	r3, r3, #15
 739 000a 1B04     		lsls	r3, r3, #16
 740 000c 1B0C     		lsrs	r3, r3, #16
 741 000e 8383     		strh	r3, [r0, #28]	@ movhi
 742              		.loc 1 738 0
 743 0010 0223     		movs	r3, #2
 744 0012 0384     		strh	r3, [r0, #32]	@ movhi
 745              		.loc 1 741 0
 746 0014 828B     		ldrh	r2, [r0, #28]
 747              		.loc 1 744 0
 748 0016 0B88     		ldrh	r3, [r1, #0]
 749              		.loc 1 722 0
 750 0018 30B4     		push	{r4, r5}
 751              	.LCFI4:
 752              		.cfi_def_cfa_offset 8
 753              		.cfi_offset 4, -8
 754              		.cfi_offset 5, -4
 755              		.loc 1 759 0
 756 001a 4D88     		ldrh	r5, [r1, #2]
 757              		.loc 1 758 0
 758 001c 8C88     		ldrh	r4, [r1, #4]
 759 001e 8989     		ldrh	r1, [r1, #12]
 760              	.LVL59:
 761              		.loc 1 741 0
 762 0020 92B2     		uxth	r2, r2
 763              	.LVL60:
 764              		.loc 1 759 0
 765 0022 2A43     		orrs	r2, r2, r5
 766              	.LVL61:
 767              		.loc 1 744 0
 768 0024 23F40073 		bic	r3, r3, #512
 769              		.loc 1 759 0
 770 0028 42F40062 		orr	r2, r2, #2048
 771              		.loc 1 744 0
 772 002c 1B04     		lsls	r3, r3, #16
 773              		.loc 1 758 0
 774 002e 2243     		orrs	r2, r2, r4
 775              		.loc 1 744 0
 776 0030 1B0C     		lsrs	r3, r3, #16
 777              		.loc 1 758 0
 778 0032 0A43     		orrs	r2, r2, r1
 779              		.loc 1 746 0
 780 0034 002B     		cmp	r3, #0
 781 0036 0CBF     		ite	eq
 782 0038 4FF48073 		moveq	r3, #256
 783 003c 0023     		movne	r3, #0
 784              	.LVL62:
 785              		.loc 1 758 0
 786 003e 92B2     		uxth	r2, r2
ARM GAS  C:\Users\TaisikHam\AppData\Local\Temp\ccNzzKEh.s 			page 15


 787 0040 1343     		orrs	r3, r3, r2
 788              	.LVL63:
 789              		.loc 1 763 0
 790 0042 8383     		strh	r3, [r0, #28]	@ movhi
 791              		.loc 1 764 0
 792 0044 30BC     		pop	{r4, r5}
 793 0046 7047     		bx	lr
 794              		.cfi_endproc
 795              	.LFE123:
 796              		.size	I2S_FullDuplexConfig, .-I2S_FullDuplexConfig
 797 0048 AFF30080 		.section	.text.SPI_SSOutputCmd,"ax",%progbits
 797      AFF30080 
 798              		.align	2
 799              		.p2align 4,,15
 800              		.global	SPI_SSOutputCmd
 801              		.thumb
 802              		.thumb_func
 803              		.type	SPI_SSOutputCmd, %function
 804              	SPI_SSOutputCmd:
 805              	.LFB124:
 806              		.loc 1 776 0
 807              		.cfi_startproc
 808              		@ args = 0, pretend = 0, frame = 0
 809              		@ frame_needed = 0, uses_anonymous_args = 0
 810              		@ link register save eliminated.
 811              	.LVL64:
 812              		.loc 1 786 0
 813 0000 8388     		ldrh	r3, [r0, #4]
 814              		.loc 1 783 0
 815 0002 29B9     		cbnz	r1, .L52
 816              		.loc 1 791 0
 817 0004 23F00403 		bic	r3, r3, #4
 818 0008 1B04     		lsls	r3, r3, #16
 819 000a 1B0C     		lsrs	r3, r3, #16
 820 000c 8380     		strh	r3, [r0, #4]	@ movhi
 821 000e 7047     		bx	lr
 822              	.L52:
 823              		.loc 1 786 0
 824 0010 9BB2     		uxth	r3, r3
 825 0012 43F00403 		orr	r3, r3, #4
 826 0016 8380     		strh	r3, [r0, #4]	@ movhi
 827 0018 7047     		bx	lr
 828              		.cfi_endproc
 829              	.LFE124:
 830              		.size	SPI_SSOutputCmd, .-SPI_SSOutputCmd
 831 001a 00BFAFF3 		.section	.text.SPI_NSSPulseModeCmd,"ax",%progbits
 831      0080
 832              		.align	2
 833              		.p2align 4,,15
 834              		.global	SPI_NSSPulseModeCmd
 835              		.thumb
 836              		.thumb_func
 837              		.type	SPI_NSSPulseModeCmd, %function
 838              	SPI_NSSPulseModeCmd:
 839              	.LFB125:
 840              		.loc 1 808 0
 841              		.cfi_startproc
ARM GAS  C:\Users\TaisikHam\AppData\Local\Temp\ccNzzKEh.s 			page 16


 842              		@ args = 0, pretend = 0, frame = 0
 843              		@ frame_needed = 0, uses_anonymous_args = 0
 844              		@ link register save eliminated.
 845              	.LVL65:
 846              		.loc 1 819 0
 847 0000 8388     		ldrh	r3, [r0, #4]
 848              		.loc 1 816 0
 849 0002 29B9     		cbnz	r1, .L56
 850              		.loc 1 824 0
 851 0004 23F00803 		bic	r3, r3, #8
 852 0008 1B04     		lsls	r3, r3, #16
 853 000a 1B0C     		lsrs	r3, r3, #16
 854 000c 8380     		strh	r3, [r0, #4]	@ movhi
 855 000e 7047     		bx	lr
 856              	.L56:
 857              		.loc 1 819 0
 858 0010 9BB2     		uxth	r3, r3
 859 0012 43F00803 		orr	r3, r3, #8
 860 0016 8380     		strh	r3, [r0, #4]	@ movhi
 861 0018 7047     		bx	lr
 862              		.cfi_endproc
 863              	.LFE125:
 864              		.size	SPI_NSSPulseModeCmd, .-SPI_NSSPulseModeCmd
 865 001a 00BFAFF3 		.section	.text.SPI_SendData8,"ax",%progbits
 865      0080
 866              		.align	2
 867              		.p2align 4,,15
 868              		.global	SPI_SendData8
 869              		.thumb
 870              		.thumb_func
 871              		.type	SPI_SendData8, %function
 872              	SPI_SendData8:
 873              	.LFB126:
 874              		.loc 1 860 0
 875              		.cfi_startproc
 876              		@ args = 0, pretend = 0, frame = 0
 877              		@ frame_needed = 0, uses_anonymous_args = 0
 878              		@ link register save eliminated.
 879              	.LVL66:
 880              		.loc 1 871 0
 881 0000 0173     		strb	r1, [r0, #12]
 882 0002 7047     		bx	lr
 883              		.cfi_endproc
 884              	.LFE126:
 885              		.size	SPI_SendData8, .-SPI_SendData8
 886 0004 AFF30080 		.section	.text.SPI_I2S_SendData16,"ax",%progbits
 886      AFF30080 
 886      AFF30080 
 887              		.align	2
 888              		.p2align 4,,15
 889              		.global	SPI_I2S_SendData16
 890              		.thumb
 891              		.thumb_func
 892              		.type	SPI_I2S_SendData16, %function
 893              	SPI_I2S_SendData16:
 894              	.LFB127:
 895              		.loc 1 882 0
ARM GAS  C:\Users\TaisikHam\AppData\Local\Temp\ccNzzKEh.s 			page 17


 896              		.cfi_startproc
 897              		@ args = 0, pretend = 0, frame = 0
 898              		@ frame_needed = 0, uses_anonymous_args = 0
 899              		@ link register save eliminated.
 900              	.LVL67:
 901              		.loc 1 888 0
 902 0000 8181     		strh	r1, [r0, #12]	@ movhi
 903 0002 7047     		bx	lr
 904              		.cfi_endproc
 905              	.LFE127:
 906              		.size	SPI_I2S_SendData16, .-SPI_I2S_SendData16
 907 0004 AFF30080 		.section	.text.SPI_ReceiveData8,"ax",%progbits
 907      AFF30080 
 907      AFF30080 
 908              		.align	2
 909              		.p2align 4,,15
 910              		.global	SPI_ReceiveData8
 911              		.thumb
 912              		.thumb_func
 913              		.type	SPI_ReceiveData8, %function
 914              	SPI_ReceiveData8:
 915              	.LFB128:
 916              		.loc 1 897 0
 917              		.cfi_startproc
 918              		@ args = 0, pretend = 0, frame = 0
 919              		@ frame_needed = 0, uses_anonymous_args = 0
 920              		@ link register save eliminated.
 921              	.LVL68:
 922              		.loc 1 908 0
 923 0000 007B     		ldrb	r0, [r0, #12]	@ zero_extendqisi2
 924              	.LVL69:
 925              		.loc 1 909 0
 926 0002 7047     		bx	lr
 927              		.cfi_endproc
 928              	.LFE128:
 929              		.size	SPI_ReceiveData8, .-SPI_ReceiveData8
 930 0004 AFF30080 		.section	.text.SPI_I2S_ReceiveData16,"ax",%progbits
 930      AFF30080 
 930      AFF30080 
 931              		.align	2
 932              		.p2align 4,,15
 933              		.global	SPI_I2S_ReceiveData16
 934              		.thumb
 935              		.thumb_func
 936              		.type	SPI_I2S_ReceiveData16, %function
 937              	SPI_I2S_ReceiveData16:
 938              	.LFB129:
 939              		.loc 1 918 0
 940              		.cfi_startproc
 941              		@ args = 0, pretend = 0, frame = 0
 942              		@ frame_needed = 0, uses_anonymous_args = 0
 943              		@ link register save eliminated.
 944              	.LVL70:
 945              		.loc 1 923 0
 946 0000 8089     		ldrh	r0, [r0, #12]
 947              	.LVL71:
 948              		.loc 1 924 0
ARM GAS  C:\Users\TaisikHam\AppData\Local\Temp\ccNzzKEh.s 			page 18


 949 0002 80B2     		uxth	r0, r0
 950 0004 7047     		bx	lr
 951              		.cfi_endproc
 952              	.LFE129:
 953              		.size	SPI_I2S_ReceiveData16, .-SPI_I2S_ReceiveData16
 954 0006 00BFAFF3 		.section	.text.SPI_CRCLengthConfig,"ax",%progbits
 954      0080AFF3 
 954      0080
 955              		.align	2
 956              		.p2align 4,,15
 957              		.global	SPI_CRCLengthConfig
 958              		.thumb
 959              		.thumb_func
 960              		.type	SPI_CRCLengthConfig, %function
 961              	SPI_CRCLengthConfig:
 962              	.LFB130:
 963              		.loc 1 1001 0
 964              		.cfi_startproc
 965              		@ args = 0, pretend = 0, frame = 0
 966              		@ frame_needed = 0, uses_anonymous_args = 0
 967              		@ link register save eliminated.
 968              	.LVL72:
 969              		.loc 1 1007 0
 970 0000 0388     		ldrh	r3, [r0, #0]
 971 0002 23F40063 		bic	r3, r3, #2048
 972 0006 1B04     		lsls	r3, r3, #16
 973 0008 1B0C     		lsrs	r3, r3, #16
 974 000a 0380     		strh	r3, [r0, #0]	@ movhi
 975              		.loc 1 1010 0
 976 000c 0388     		ldrh	r3, [r0, #0]
 977 000e 9BB2     		uxth	r3, r3
 978 0010 1943     		orrs	r1, r1, r3
 979              	.LVL73:
 980 0012 0180     		strh	r1, [r0, #0]	@ movhi
 981 0014 7047     		bx	lr
 982              		.cfi_endproc
 983              	.LFE130:
 984              		.size	SPI_CRCLengthConfig, .-SPI_CRCLengthConfig
 985 0016 00BFAFF3 		.section	.text.SPI_CalculateCRC,"ax",%progbits
 985      0080AFF3 
 985      0080
 986              		.align	2
 987              		.p2align 4,,15
 988              		.global	SPI_CalculateCRC
 989              		.thumb
 990              		.thumb_func
 991              		.type	SPI_CalculateCRC, %function
 992              	SPI_CalculateCRC:
 993              	.LFB131:
 994              		.loc 1 1021 0
 995              		.cfi_startproc
 996              		@ args = 0, pretend = 0, frame = 0
 997              		@ frame_needed = 0, uses_anonymous_args = 0
 998              		@ link register save eliminated.
 999              	.LVL74:
 1000              		.loc 1 1029 0
 1001 0000 0388     		ldrh	r3, [r0, #0]
ARM GAS  C:\Users\TaisikHam\AppData\Local\Temp\ccNzzKEh.s 			page 19


 1002              		.loc 1 1026 0
 1003 0002 29B9     		cbnz	r1, .L65
 1004              		.loc 1 1034 0
 1005 0004 23F40053 		bic	r3, r3, #8192
 1006 0008 1B04     		lsls	r3, r3, #16
 1007 000a 1B0C     		lsrs	r3, r3, #16
 1008 000c 0380     		strh	r3, [r0, #0]	@ movhi
 1009 000e 7047     		bx	lr
 1010              	.L65:
 1011              		.loc 1 1029 0
 1012 0010 9BB2     		uxth	r3, r3
 1013 0012 43F40053 		orr	r3, r3, #8192
 1014 0016 0380     		strh	r3, [r0, #0]	@ movhi
 1015 0018 7047     		bx	lr
 1016              		.cfi_endproc
 1017              	.LFE131:
 1018              		.size	SPI_CalculateCRC, .-SPI_CalculateCRC
 1019 001a 00BFAFF3 		.section	.text.SPI_TransmitCRC,"ax",%progbits
 1019      0080
 1020              		.align	2
 1021              		.p2align 4,,15
 1022              		.global	SPI_TransmitCRC
 1023              		.thumb
 1024              		.thumb_func
 1025              		.type	SPI_TransmitCRC, %function
 1026              	SPI_TransmitCRC:
 1027              	.LFB132:
 1028              		.loc 1 1044 0
 1029              		.cfi_startproc
 1030              		@ args = 0, pretend = 0, frame = 0
 1031              		@ frame_needed = 0, uses_anonymous_args = 0
 1032              		@ link register save eliminated.
 1033              	.LVL75:
 1034              		.loc 1 1049 0
 1035 0000 0388     		ldrh	r3, [r0, #0]
 1036 0002 9BB2     		uxth	r3, r3
 1037 0004 43F48053 		orr	r3, r3, #4096
 1038 0008 0380     		strh	r3, [r0, #0]	@ movhi
 1039 000a 7047     		bx	lr
 1040              		.cfi_endproc
 1041              	.LFE132:
 1042              		.size	SPI_TransmitCRC, .-SPI_TransmitCRC
 1043              		.section	.text.SPI_GetCRC,"ax",%progbits
 1044              		.align	2
 1045              		.p2align 4,,15
 1046              		.global	SPI_GetCRC
 1047              		.thumb
 1048              		.thumb_func
 1049              		.type	SPI_GetCRC, %function
 1050              	SPI_GetCRC:
 1051              	.LFB133:
 1052              		.loc 1 1062 0
 1053              		.cfi_startproc
 1054              		@ args = 0, pretend = 0, frame = 0
 1055              		@ frame_needed = 0, uses_anonymous_args = 0
 1056              		@ link register save eliminated.
 1057              	.LVL76:
ARM GAS  C:\Users\TaisikHam\AppData\Local\Temp\ccNzzKEh.s 			page 20


 1058              		.loc 1 1068 0
 1059 0000 0129     		cmp	r1, #1
 1060              		.loc 1 1071 0
 1061 0002 14BF     		ite	ne
 1062 0004 008B     		ldrhne	r0, [r0, #24]
 1063              	.LVL77:
 1064              		.loc 1 1076 0
 1065 0006 808A     		ldrheq	r0, [r0, #20]
 1066 0008 80B2     		uxth	r0, r0
 1067              	.LVL78:
 1068              		.loc 1 1080 0
 1069 000a 7047     		bx	lr
 1070              		.cfi_endproc
 1071              	.LFE133:
 1072              		.size	SPI_GetCRC, .-SPI_GetCRC
 1073 000c AFF30080 		.section	.text.SPI_GetCRCPolynomial,"ax",%progbits
 1074              		.align	2
 1075              		.p2align 4,,15
 1076              		.global	SPI_GetCRCPolynomial
 1077              		.thumb
 1078              		.thumb_func
 1079              		.type	SPI_GetCRCPolynomial, %function
 1080              	SPI_GetCRCPolynomial:
 1081              	.LFB134:
 1082              		.loc 1 1088 0
 1083              		.cfi_startproc
 1084              		@ args = 0, pretend = 0, frame = 0
 1085              		@ frame_needed = 0, uses_anonymous_args = 0
 1086              		@ link register save eliminated.
 1087              	.LVL79:
 1088              		.loc 1 1093 0
 1089 0000 008A     		ldrh	r0, [r0, #16]
 1090              	.LVL80:
 1091              		.loc 1 1094 0
 1092 0002 80B2     		uxth	r0, r0
 1093 0004 7047     		bx	lr
 1094              		.cfi_endproc
 1095              	.LFE134:
 1096              		.size	SPI_GetCRCPolynomial, .-SPI_GetCRCPolynomial
 1097 0006 00BFAFF3 		.section	.text.SPI_I2S_DMACmd,"ax",%progbits
 1097      0080AFF3 
 1097      0080
 1098              		.align	2
 1099              		.p2align 4,,15
 1100              		.global	SPI_I2S_DMACmd
 1101              		.thumb
 1102              		.thumb_func
 1103              		.type	SPI_I2S_DMACmd, %function
 1104              	SPI_I2S_DMACmd:
 1105              	.LFB135:
 1106              		.loc 1 1125 0
 1107              		.cfi_startproc
 1108              		@ args = 0, pretend = 0, frame = 0
 1109              		@ frame_needed = 0, uses_anonymous_args = 0
 1110              		@ link register save eliminated.
 1111              	.LVL81:
 1112              		.loc 1 1136 0
ARM GAS  C:\Users\TaisikHam\AppData\Local\Temp\ccNzzKEh.s 			page 21


 1113 0000 8388     		ldrh	r3, [r0, #4]
 1114 0002 9BB2     		uxth	r3, r3
 1115              		.loc 1 1133 0
 1116 0004 1AB9     		cbnz	r2, .L74
 1117              		.loc 1 1141 0
 1118 0006 23EA0101 		bic	r1, r3, r1
 1119              	.LVL82:
 1120 000a 8180     		strh	r1, [r0, #4]	@ movhi
 1121 000c 7047     		bx	lr
 1122              	.LVL83:
 1123              	.L74:
 1124              		.loc 1 1136 0
 1125 000e 1943     		orrs	r1, r1, r3
 1126              	.LVL84:
 1127 0010 8180     		strh	r1, [r0, #4]	@ movhi
 1128 0012 7047     		bx	lr
 1129              		.cfi_endproc
 1130              	.LFE135:
 1131              		.size	SPI_I2S_DMACmd, .-SPI_I2S_DMACmd
 1132 0014 AFF30080 		.section	.text.SPI_LastDMATransferCmd,"ax",%progbits
 1132      AFF30080 
 1132      AFF30080 
 1133              		.align	2
 1134              		.p2align 4,,15
 1135              		.global	SPI_LastDMATransferCmd
 1136              		.thumb
 1137              		.thumb_func
 1138              		.type	SPI_LastDMATransferCmd, %function
 1139              	SPI_LastDMATransferCmd:
 1140              	.LFB136:
 1141              		.loc 1 1164 0
 1142              		.cfi_startproc
 1143              		@ args = 0, pretend = 0, frame = 0
 1144              		@ frame_needed = 0, uses_anonymous_args = 0
 1145              		@ link register save eliminated.
 1146              	.LVL85:
 1147              		.loc 1 1172 0
 1148 0000 8388     		ldrh	r3, [r0, #4]
 1149 0002 23F4C043 		bic	r3, r3, #24576
 1150 0006 1B04     		lsls	r3, r3, #16
 1151 0008 1B0C     		lsrs	r3, r3, #16
 1152 000a 8380     		strh	r3, [r0, #4]	@ movhi
 1153              		.loc 1 1175 0
 1154 000c 8388     		ldrh	r3, [r0, #4]
 1155 000e 9BB2     		uxth	r3, r3
 1156 0010 1943     		orrs	r1, r1, r3
 1157              	.LVL86:
 1158 0012 8180     		strh	r1, [r0, #4]	@ movhi
 1159 0014 7047     		bx	lr
 1160              		.cfi_endproc
 1161              	.LFE136:
 1162              		.size	SPI_LastDMATransferCmd, .-SPI_LastDMATransferCmd
 1163 0016 00BFAFF3 		.section	.text.SPI_I2S_ITConfig,"ax",%progbits
 1163      0080AFF3 
 1163      0080
 1164              		.align	2
 1165              		.p2align 4,,15
ARM GAS  C:\Users\TaisikHam\AppData\Local\Temp\ccNzzKEh.s 			page 22


 1166              		.global	SPI_I2S_ITConfig
 1167              		.thumb
 1168              		.thumb_func
 1169              		.type	SPI_I2S_ITConfig, %function
 1170              	SPI_I2S_ITConfig:
 1171              	.LFB137:
 1172              		.loc 1 1265 0
 1173              		.cfi_startproc
 1174              		@ args = 0, pretend = 0, frame = 0
 1175              		@ frame_needed = 0, uses_anonymous_args = 0
 1176              		@ link register save eliminated.
 1177              	.LVL87:
 1178              		.loc 1 1279 0
 1179 0000 0123     		movs	r3, #1
 1180 0002 0909     		lsrs	r1, r1, #4
 1181              	.LVL88:
 1182 0004 03FA01F1 		lsl	r1, r3, r1
 1183              		.loc 1 1284 0
 1184 0008 8388     		ldrh	r3, [r0, #4]
 1185              		.loc 1 1279 0
 1186 000a 89B2     		uxth	r1, r1
 1187              	.LVL89:
 1188              		.loc 1 1284 0
 1189 000c 9BB2     		uxth	r3, r3
 1190              		.loc 1 1281 0
 1191 000e 1AB9     		cbnz	r2, .L79
 1192              		.loc 1 1289 0
 1193 0010 23EA0101 		bic	r1, r3, r1
 1194              	.LVL90:
 1195 0014 8180     		strh	r1, [r0, #4]	@ movhi
 1196 0016 7047     		bx	lr
 1197              	.LVL91:
 1198              	.L79:
 1199              		.loc 1 1284 0
 1200 0018 1943     		orrs	r1, r1, r3
 1201              	.LVL92:
 1202 001a 8180     		strh	r1, [r0, #4]	@ movhi
 1203 001c 7047     		bx	lr
 1204              		.cfi_endproc
 1205              	.LFE137:
 1206              		.size	SPI_I2S_ITConfig, .-SPI_I2S_ITConfig
 1207 001e 00BF     		.section	.text.SPI_GetTransmissionFIFOStatus,"ax",%progbits
 1208              		.align	2
 1209              		.p2align 4,,15
 1210              		.global	SPI_GetTransmissionFIFOStatus
 1211              		.thumb
 1212              		.thumb_func
 1213              		.type	SPI_GetTransmissionFIFOStatus, %function
 1214              	SPI_GetTransmissionFIFOStatus:
 1215              	.LFB138:
 1216              		.loc 1 1303 0
 1217              		.cfi_startproc
 1218              		@ args = 0, pretend = 0, frame = 0
 1219              		@ frame_needed = 0, uses_anonymous_args = 0
 1220              		@ link register save eliminated.
 1221              	.LVL93:
 1222              		.loc 1 1305 0
ARM GAS  C:\Users\TaisikHam\AppData\Local\Temp\ccNzzKEh.s 			page 23


 1223 0000 0089     		ldrh	r0, [r0, #8]
 1224              	.LVL94:
 1225              		.loc 1 1306 0
 1226 0002 00F4C050 		and	r0, r0, #6144
 1227 0006 7047     		bx	lr
 1228              		.cfi_endproc
 1229              	.LFE138:
 1230              		.size	SPI_GetTransmissionFIFOStatus, .-SPI_GetTransmissionFIFOStatus
 1231 0008 AFF30080 		.section	.text.SPI_GetReceptionFIFOStatus,"ax",%progbits
 1231      AFF30080 
 1232              		.align	2
 1233              		.p2align 4,,15
 1234              		.global	SPI_GetReceptionFIFOStatus
 1235              		.thumb
 1236              		.thumb_func
 1237              		.type	SPI_GetReceptionFIFOStatus, %function
 1238              	SPI_GetReceptionFIFOStatus:
 1239              	.LFB139:
 1240              		.loc 1 1318 0
 1241              		.cfi_startproc
 1242              		@ args = 0, pretend = 0, frame = 0
 1243              		@ frame_needed = 0, uses_anonymous_args = 0
 1244              		@ link register save eliminated.
 1245              	.LVL95:
 1246              		.loc 1 1320 0
 1247 0000 0089     		ldrh	r0, [r0, #8]
 1248              	.LVL96:
 1249              		.loc 1 1321 0
 1250 0002 00F4C060 		and	r0, r0, #1536
 1251 0006 7047     		bx	lr
 1252              		.cfi_endproc
 1253              	.LFE139:
 1254              		.size	SPI_GetReceptionFIFOStatus, .-SPI_GetReceptionFIFOStatus
 1255 0008 AFF30080 		.section	.text.SPI_I2S_GetFlagStatus,"ax",%progbits
 1255      AFF30080 
 1256              		.align	2
 1257              		.p2align 4,,15
 1258              		.global	SPI_I2S_GetFlagStatus
 1259              		.thumb
 1260              		.thumb_func
 1261              		.type	SPI_I2S_GetFlagStatus, %function
 1262              	SPI_I2S_GetFlagStatus:
 1263              	.LFB140:
 1264              		.loc 1 1341 0
 1265              		.cfi_startproc
 1266              		@ args = 0, pretend = 0, frame = 0
 1267              		@ frame_needed = 0, uses_anonymous_args = 0
 1268              		@ link register save eliminated.
 1269              	.LVL97:
 1270              		.loc 1 1350 0
 1271 0000 0389     		ldrh	r3, [r0, #8]
 1272              	.LVL98:
 1273 0002 1942     		tst	r1, r3
 1274              		.loc 1 1362 0
 1275 0004 0CBF     		ite	eq
 1276 0006 0020     		moveq	r0, #0
 1277 0008 0120     		movne	r0, #1
ARM GAS  C:\Users\TaisikHam\AppData\Local\Temp\ccNzzKEh.s 			page 24


 1278              	.LVL99:
 1279 000a 7047     		bx	lr
 1280              		.cfi_endproc
 1281              	.LFE140:
 1282              		.size	SPI_I2S_GetFlagStatus, .-SPI_I2S_GetFlagStatus
 1283 000c AFF30080 		.section	.text.SPI_I2S_ClearFlag,"ax",%progbits
 1284              		.align	2
 1285              		.p2align 4,,15
 1286              		.global	SPI_I2S_ClearFlag
 1287              		.thumb
 1288              		.thumb_func
 1289              		.type	SPI_I2S_ClearFlag, %function
 1290              	SPI_I2S_ClearFlag:
 1291              	.LFB141:
 1292              		.loc 1 1379 0
 1293              		.cfi_startproc
 1294              		@ args = 0, pretend = 0, frame = 0
 1295              		@ frame_needed = 0, uses_anonymous_args = 0
 1296              		@ link register save eliminated.
 1297              	.LVL100:
 1298              		.loc 1 1387 0
 1299 0000 C943     		mvns	r1, r1
 1300              	.LVL101:
 1301 0002 89B2     		uxth	r1, r1
 1302 0004 0181     		strh	r1, [r0, #8]	@ movhi
 1303 0006 7047     		bx	lr
 1304              		.cfi_endproc
 1305              	.LFE141:
 1306              		.size	SPI_I2S_ClearFlag, .-SPI_I2S_ClearFlag
 1307 0008 AFF30080 		.section	.text.SPI_I2S_GetITStatus,"ax",%progbits
 1307      AFF30080 
 1308              		.align	2
 1309              		.p2align 4,,15
 1310              		.global	SPI_I2S_GetITStatus
 1311              		.thumb
 1312              		.thumb_func
 1313              		.type	SPI_I2S_GetITStatus, %function
 1314              	SPI_I2S_GetITStatus:
 1315              	.LFB142:
 1316              		.loc 1 1405 0
 1317              		.cfi_startproc
 1318              		@ args = 0, pretend = 0, frame = 0
 1319              		@ frame_needed = 0, uses_anonymous_args = 0
 1320              		@ link register save eliminated.
 1321              	.LVL102:
 1322 0000 10B4     		push	{r4}
 1323              	.LCFI5:
 1324              		.cfi_def_cfa_offset 4
 1325              		.cfi_offset 4, -4
 1326              		.loc 1 1425 0
 1327 0002 8488     		ldrh	r4, [r0, #4]
 1328              		.loc 1 1428 0
 1329 0004 0089     		ldrh	r0, [r0, #8]
 1330              	.LVL103:
 1331              		.loc 1 1416 0
 1332 0006 0122     		movs	r2, #1
 1333 0008 01F00F03 		and	r3, r1, #15
ARM GAS  C:\Users\TaisikHam\AppData\Local\Temp\ccNzzKEh.s 			page 25


 1334              		.loc 1 1428 0
 1335 000c 80B2     		uxth	r0, r0
 1336              		.loc 1 1416 0
 1337 000e 02FA03F3 		lsl	r3, r2, r3
 1338              		.loc 1 1428 0
 1339 0012 1840     		ands	r0, r0, r3
 1340              		.loc 1 1425 0
 1341 0014 A4B2     		uxth	r4, r4
 1342              	.LVL104:
 1343              		.loc 1 1428 0
 1344 0016 06D0     		beq	.L85
 1345              		.loc 1 1422 0 discriminator 1
 1346 0018 0909     		lsrs	r1, r1, #4
 1347              	.LVL105:
 1348 001a 02FA01F2 		lsl	r2, r2, r1
 1349              		.loc 1 1428 0 discriminator 1
 1350 001e 1442     		tst	r4, r2
 1351              		.loc 1 1431 0 discriminator 1
 1352 0020 0CBF     		ite	eq
 1353 0022 0020     		moveq	r0, #0
 1354 0024 0120     		movne	r0, #1
 1355              	.L85:
 1356              	.LVL106:
 1357              		.loc 1 1440 0
 1358 0026 10BC     		pop	{r4}
 1359 0028 7047     		bx	lr
 1360              		.cfi_endproc
 1361              	.LFE142:
 1362              		.size	SPI_I2S_GetITStatus, .-SPI_I2S_GetITStatus
 1363 002a 00BFAFF3 		.text
 1363      0080
 1364              	.Letext0:
 1365              		.file 2 "c:/develop/genist/chibistudio/tools/yagarto-tools/yagarto-20121222/lib/gcc/../../arm-none
 1366              		.file 3 "../../../os/hal/platforms/STM32F30x/stm32f30x.h"
 1367              		.file 4 "../../../Testhal_wrk/STM32F30x/Gyro/stm32f30x_spi.h"
 1368              		.file 5 "../../../Testhal_wrk/STM32F30x/Gyro/stm32f30x_rcc.h"
 1369              		.file 6 "../../../os/ports/common/ARMCMx/CMSIS/include/core_cm4.h"