ARM GAS  C:\cygwin\tmp\cciKAwAx.s 			page 1


   1              		.syntax unified
   2              		.cpu cortex-m4
   3              		.fpu softvfp
   4              		.eabi_attribute 20, 1
   5              		.eabi_attribute 21, 1
   6              		.eabi_attribute 23, 3
   7              		.eabi_attribute 24, 1
   8              		.eabi_attribute 25, 1
   9              		.eabi_attribute 26, 1
  10              		.eabi_attribute 30, 2
  11              		.eabi_attribute 34, 1
  12              		.eabi_attribute 18, 4
  13              		.thumb
  14              		.file	"testbmk.c"
  15              		.text
  16              	.Ltext0:
  17              		.cfi_sections	.debug_frame
  18              		.section	.text.thread2,"ax",%progbits
  19              		.align	2
  20              		.p2align 4,,15
  21              		.thumb
  22              		.thumb_func
  23              		.type	thread2, %function
  24              	thread2:
  25              	.LFB11:
  26              		.file 1 "../../../test/testbmk.c"
  27              		.loc 1 158 0
  28              		.cfi_startproc
  29              		@ args = 0, pretend = 0, frame = 0
  30              		@ frame_needed = 0, uses_anonymous_args = 0
  31              		@ link register save eliminated.
  32              	.LVL0:
  33              		.loc 1 161 0
  34 0000 7047     		bx	lr
  35              		.cfi_endproc
  36              	.LFE11:
  37              		.size	thread2, .-thread2
  38 0002 00BFAFF3 		.section	.text.tmo,"ax",%progbits
  38      0080AFF3 
  38      0080AFF3 
  38      0080
  39              		.align	2
  40              		.p2align 4,,15
  41              		.thumb
  42              		.thumb_func
  43              		.type	tmo, %function
  44              	tmo:
  45              	.LFB23:
  46              		.loc 1 504 0
  47              		.cfi_startproc
  48              		@ args = 0, pretend = 0, frame = 0
  49              		@ frame_needed = 0, uses_anonymous_args = 0
  50              		@ link register save eliminated.
  51              	.LVL1:
  52 0000 7047     		bx	lr
  53              		.cfi_endproc
  54              	.LFE23:
ARM GAS  C:\cygwin\tmp\cciKAwAx.s 			page 2


  55              		.size	tmo, .-tmo
  56 0002 00BFAFF3 		.section	.text.bmk13_execute,"ax",%progbits
  56      0080AFF3 
  56      0080AFF3 
  56      0080
  57              		.align	2
  58              		.p2align 4,,15
  59              		.thumb
  60              		.thumb_func
  61              		.type	bmk13_execute, %function
  62              	bmk13_execute:
  63              	.LFB29:
  64              		.loc 1 637 0
  65              		.cfi_startproc
  66              		@ args = 0, pretend = 0, frame = 0
  67              		@ frame_needed = 0, uses_anonymous_args = 0
  68              		.loc 1 639 0
  69 0000 40F20000 		movw	r0, #:lower16:.LC0
  70              		.loc 1 637 0
  71 0004 10B5     		push	{r4, lr}
  72              	.LCFI0:
  73              		.cfi_def_cfa_offset 8
  74              		.cfi_offset 4, -8
  75              		.cfi_offset 14, -4
  76              		.loc 1 639 0
  77 0006 C0F20000 		movt	r0, #:upper16:.LC0
  78              		.loc 1 645 0
  79 000a 40F20004 		movw	r4, #:lower16:.LC1
  80 000e C0F20004 		movt	r4, #:upper16:.LC1
  81              		.loc 1 639 0
  82 0012 FFF7FEFF 		bl	test_print
  83              	.LVL2:
  84              		.loc 1 640 0
  85 0016 4FF4CE70 		mov	r0, #412
  86 001a FFF7FEFF 		bl	test_printn
  87              	.LVL3:
  88              		.loc 1 645 0
  89 001e 2046     		mov	r0, r4
  90 0020 FFF7FEFF 		bl	test_println
  91              	.LVL4:
  92              		.loc 1 646 0
  93 0024 40F20000 		movw	r0, #:lower16:.LC2
  94 0028 C0F20000 		movt	r0, #:upper16:.LC2
  95 002c FFF7FEFF 		bl	test_print
  96              	.LVL5:
  97              		.loc 1 647 0
  98 0030 4C20     		movs	r0, #76
  99 0032 FFF7FEFF 		bl	test_printn
 100              	.LVL6:
 101              		.loc 1 648 0
 102 0036 2046     		mov	r0, r4
 103 0038 FFF7FEFF 		bl	test_println
 104              	.LVL7:
 105              		.loc 1 649 0
 106 003c 40F20000 		movw	r0, #:lower16:.LC3
 107 0040 C0F20000 		movt	r0, #:upper16:.LC3
 108 0044 FFF7FEFF 		bl	test_print
ARM GAS  C:\cygwin\tmp\cciKAwAx.s 			page 3


 109              	.LVL8:
 110              		.loc 1 650 0
 111 0048 1420     		movs	r0, #20
 112 004a FFF7FEFF 		bl	test_printn
 113              	.LVL9:
 114              		.loc 1 651 0
 115 004e 2046     		mov	r0, r4
 116 0050 FFF7FEFF 		bl	test_println
 117              	.LVL10:
 118              		.loc 1 652 0
 119 0054 40F20000 		movw	r0, #:lower16:.LC4
 120 0058 C0F20000 		movt	r0, #:upper16:.LC4
 121 005c FFF7FEFF 		bl	test_print
 122              	.LVL11:
 123              		.loc 1 653 0
 124 0060 0C20     		movs	r0, #12
 125 0062 FFF7FEFF 		bl	test_printn
 126              	.LVL12:
 127              		.loc 1 654 0
 128 0066 2046     		mov	r0, r4
 129 0068 FFF7FEFF 		bl	test_println
 130              	.LVL13:
 131              		.loc 1 656 0
 132 006c 40F20000 		movw	r0, #:lower16:.LC5
 133 0070 C0F20000 		movt	r0, #:upper16:.LC5
 134 0074 FFF7FEFF 		bl	test_print
 135              	.LVL14:
 136              		.loc 1 657 0
 137 0078 0420     		movs	r0, #4
 138 007a FFF7FEFF 		bl	test_printn
 139              	.LVL15:
 140              		.loc 1 658 0
 141 007e 2046     		mov	r0, r4
 142 0080 FFF7FEFF 		bl	test_println
 143              	.LVL16:
 144              		.loc 1 659 0
 145 0084 40F20000 		movw	r0, #:lower16:.LC6
 146 0088 C0F20000 		movt	r0, #:upper16:.LC6
 147 008c FFF7FEFF 		bl	test_print
 148              	.LVL17:
 149              		.loc 1 660 0
 150 0090 1020     		movs	r0, #16
 151 0092 FFF7FEFF 		bl	test_printn
 152              	.LVL18:
 153              		.loc 1 661 0
 154 0096 2046     		mov	r0, r4
 155 0098 FFF7FEFF 		bl	test_println
 156              	.LVL19:
 157              		.loc 1 664 0
 158 009c 40F20000 		movw	r0, #:lower16:.LC7
 159 00a0 C0F20000 		movt	r0, #:upper16:.LC7
 160 00a4 FFF7FEFF 		bl	test_print
 161              	.LVL20:
 162              		.loc 1 665 0
 163 00a8 1020     		movs	r0, #16
 164 00aa FFF7FEFF 		bl	test_printn
 165              	.LVL21:
ARM GAS  C:\cygwin\tmp\cciKAwAx.s 			page 4


 166              		.loc 1 666 0
 167 00ae 2046     		mov	r0, r4
 168 00b0 FFF7FEFF 		bl	test_println
 169              	.LVL22:
 170              		.loc 1 669 0
 171 00b4 40F20000 		movw	r0, #:lower16:.LC8
 172 00b8 C0F20000 		movt	r0, #:upper16:.LC8
 173 00bc FFF7FEFF 		bl	test_print
 174              	.LVL23:
 175              		.loc 1 670 0
 176 00c0 0820     		movs	r0, #8
 177 00c2 FFF7FEFF 		bl	test_printn
 178              	.LVL24:
 179              		.loc 1 671 0
 180 00c6 2046     		mov	r0, r4
 181 00c8 FFF7FEFF 		bl	test_println
 182              	.LVL25:
 183              		.loc 1 674 0
 184 00cc 40F20000 		movw	r0, #:lower16:.LC9
 185 00d0 C0F20000 		movt	r0, #:upper16:.LC9
 186 00d4 FFF7FEFF 		bl	test_print
 187              	.LVL26:
 188              		.loc 1 675 0
 189 00d8 2420     		movs	r0, #36
 190 00da FFF7FEFF 		bl	test_printn
 191              	.LVL27:
 192              		.loc 1 676 0
 193 00de 2046     		mov	r0, r4
 194 00e0 FFF7FEFF 		bl	test_println
 195              	.LVL28:
 196              		.loc 1 679 0
 197 00e4 40F20000 		movw	r0, #:lower16:.LC10
 198 00e8 C0F20000 		movt	r0, #:upper16:.LC10
 199 00ec FFF7FEFF 		bl	test_print
 200              	.LVL29:
 201              		.loc 1 680 0
 202 00f0 2820     		movs	r0, #40
 203 00f2 FFF7FEFF 		bl	test_printn
 204              	.LVL30:
 205              		.loc 1 681 0
 206 00f6 2046     		mov	r0, r4
 207              		.loc 1 683 0
 208 00f8 BDE81040 		pop	{r4, lr}
 209              		.loc 1 681 0
 210 00fc FFF7FEBF 		b	test_println
 211              	.LVL31:
 212              		.cfi_endproc
 213              	.LFE29:
 214              		.size	bmk13_execute, .-bmk13_execute
 215              		.section	.text.bmk12_execute,"ax",%progbits
 216              		.align	2
 217              		.p2align 4,,15
 218              		.thumb
 219              		.thumb_func
 220              		.type	bmk12_execute, %function
 221              	bmk12_execute:
 222              	.LFB28:
ARM GAS  C:\cygwin\tmp\cciKAwAx.s 			page 5


 223              		.loc 1 598 0
 224              		.cfi_startproc
 225              		@ args = 0, pretend = 0, frame = 0
 226              		@ frame_needed = 0, uses_anonymous_args = 0
 227              	.LVL32:
 228 0000 38B5     		push	{r3, r4, r5, lr}
 229              	.LCFI1:
 230              		.cfi_def_cfa_offset 16
 231              		.cfi_offset 3, -16
 232              		.cfi_offset 4, -12
 233              		.cfi_offset 5, -8
 234              		.cfi_offset 14, -4
 235              		.loc 1 601 0
 236 0002 FFF7FEFF 		bl	test_wait_tick
 237              	.LVL33:
 238              		.loc 1 602 0
 239 0006 4FF47A70 		mov	r0, #1000
 240 000a FFF7FEFF 		bl	test_start_timer
 241              	.LVL34:
 242 000e 124D     		ldr	r5, .L11
 243              		.loc 1 599 0
 244 0010 0024     		movs	r4, #0
 245              	.LVL35:
 246              	.L5:
 247              		.loc 1 604 0 discriminator 1
 248 0012 1248     		ldr	r0, .L11+4
 249 0014 FFF7FEFF 		bl	chMtxLock
 250              	.LVL36:
 251              		.loc 1 605 0 discriminator 1
 252 0018 FFF7FEFF 		bl	chMtxUnlock
 253              	.LVL37:
 254              		.loc 1 606 0 discriminator 1
 255 001c 0F48     		ldr	r0, .L11+4
 256 001e FFF7FEFF 		bl	chMtxLock
 257              	.LVL38:
 258              		.loc 1 607 0 discriminator 1
 259 0022 FFF7FEFF 		bl	chMtxUnlock
 260              	.LVL39:
 261              		.loc 1 608 0 discriminator 1
 262 0026 0D48     		ldr	r0, .L11+4
 263 0028 FFF7FEFF 		bl	chMtxLock
 264              	.LVL40:
 265              		.loc 1 609 0 discriminator 1
 266 002c FFF7FEFF 		bl	chMtxUnlock
 267              	.LVL41:
 268              		.loc 1 610 0 discriminator 1
 269 0030 0A48     		ldr	r0, .L11+4
 270 0032 FFF7FEFF 		bl	chMtxLock
 271              	.LVL42:
 272              		.loc 1 611 0 discriminator 1
 273 0036 FFF7FEFF 		bl	chMtxUnlock
 274              	.LVL43:
 275              		.loc 1 616 0 discriminator 1
 276 003a 2B78     		ldrb	r3, [r5, #0]	@ zero_extendqisi2
 277              		.loc 1 612 0 discriminator 1
 278 003c 0134     		adds	r4, r4, #1
 279              	.LVL44:
ARM GAS  C:\cygwin\tmp\cciKAwAx.s 			page 6


 280              		.loc 1 616 0 discriminator 1
 281 003e 002B     		cmp	r3, #0
 282 0040 E7D0     		beq	.L5
 283              		.loc 1 617 0
 284 0042 0748     		ldr	r0, .L11+8
 285 0044 FFF7FEFF 		bl	test_print
 286              	.LVL45:
 287              		.loc 1 618 0
 288 0048 A000     		lsls	r0, r4, #2
 289 004a FFF7FEFF 		bl	test_printn
 290              	.LVL46:
 291              		.loc 1 619 0
 292 004e 0548     		ldr	r0, .L11+12
 293              		.loc 1 620 0
 294 0050 BDE83840 		pop	{r3, r4, r5, lr}
 295              		.loc 1 619 0
 296 0054 FFF7FEBF 		b	test_println
 297              	.LVL47:
 298              	.L12:
 299              		.align	2
 300              	.L11:
 301 0058 00000000 		.word	test_timer_done
 302 005c 00000000 		.word	.LANCHOR0
 303 0060 A8000000 		.word	.LC11
 304 0064 B8000000 		.word	.LC12
 305              		.cfi_endproc
 306              	.LFE28:
 307              		.size	bmk12_execute, .-bmk12_execute
 308 0068 AFF30080 		.section	.text.bmk12_setup,"ax",%progbits
 308      AFF30080 
 309              		.align	2
 310              		.p2align 4,,15
 311              		.thumb
 312              		.thumb_func
 313              		.type	bmk12_setup, %function
 314              	bmk12_setup:
 315              	.LFB27:
 316              		.loc 1 593 0
 317              		.cfi_startproc
 318              		@ args = 0, pretend = 0, frame = 0
 319              		@ frame_needed = 0, uses_anonymous_args = 0
 320              		@ link register save eliminated.
 321              		.loc 1 595 0
 322 0000 40F20000 		movw	r0, #:lower16:.LANCHOR0
 323 0004 C0F20000 		movt	r0, #:upper16:.LANCHOR0
 324              		.loc 1 596 0
 325              		.loc 1 595 0
 326 0008 FFF7FEBF 		b	chMtxInit
 327              	.LVL48:
 328              		.cfi_endproc
 329              	.LFE27:
 330              		.size	bmk12_setup, .-bmk12_setup
 331 000c AFF30080 		.section	.text.thread3,"ax",%progbits
 332              		.align	2
 333              		.p2align 4,,15
 334              		.thumb
 335              		.thumb_func
ARM GAS  C:\cygwin\tmp\cciKAwAx.s 			page 7


 336              		.type	thread3, %function
 337              	thread3:
 338              	.LFB17:
 339              		.loc 1 345 0
 340              		.cfi_startproc
 341              		@ args = 0, pretend = 0, frame = 0
 342              		@ frame_needed = 0, uses_anonymous_args = 0
 343              	.LVL49:
 344 0000 10B5     		push	{r4, lr}
 345              	.LCFI2:
 346              		.cfi_def_cfa_offset 8
 347              		.cfi_offset 4, -8
 348              		.cfi_offset 14, -4
 349              		.loc 1 348 0
 350 0002 074C     		ldr	r4, .L27
 351 0004 02E0     		b	.L25
 352              	.LVL50:
 353              	.L26:
 354              		.loc 1 349 0
 355 0006 0748     		ldr	r0, .L27+4
 356 0008 FFF7FEFF 		bl	chSemWait
 357              	.LVL51:
 358              	.L25:
 359              		.loc 1 348 0
 360 000c A369     		ldr	r3, [r4, #24]
 361 000e 93F82130 		ldrb	r3, [r3, #33]	@ zero_extendqisi2
 362 0012 03F00403 		and	r3, r3, #4
 363 0016 DBB2     		uxtb	r3, r3
 364 0018 002B     		cmp	r3, #0
 365 001a F4D0     		beq	.L26
 366              		.loc 1 351 0
 367 001c 0020     		movs	r0, #0
 368 001e 10BD     		pop	{r4, pc}
 369              	.L28:
 370              		.align	2
 371              	.L27:
 372 0020 00000000 		.word	rlist
 373 0024 00000000 		.word	.LANCHOR1
 374              		.cfi_endproc
 375              	.LFE17:
 376              		.size	thread3, .-thread3
 377 0028 AFF30080 		.section	.text.bmk11_execute,"ax",%progbits
 377      AFF30080 
 378              		.align	2
 379              		.p2align 4,,15
 380              		.thumb
 381              		.thumb_func
 382              		.type	bmk11_execute, %function
 383              	bmk11_execute:
 384              	.LFB26:
 385              		.loc 1 551 0
 386              		.cfi_startproc
 387              		@ args = 0, pretend = 0, frame = 0
 388              		@ frame_needed = 0, uses_anonymous_args = 0
 389              	.LVL52:
 390 0000 38B5     		push	{r3, r4, r5, lr}
 391              	.LCFI3:
ARM GAS  C:\cygwin\tmp\cciKAwAx.s 			page 8


 392              		.cfi_def_cfa_offset 16
 393              		.cfi_offset 3, -16
 394              		.cfi_offset 4, -12
 395              		.cfi_offset 5, -8
 396              		.cfi_offset 14, -4
 397              		.loc 1 554 0
 398 0002 FFF7FEFF 		bl	test_wait_tick
 399              	.LVL53:
 400              		.loc 1 555 0
 401 0006 4FF47A70 		mov	r0, #1000
 402 000a FFF7FEFF 		bl	test_start_timer
 403              	.LVL54:
 404 000e 144D     		ldr	r5, .L35
 405              		.loc 1 552 0
 406 0010 0024     		movs	r4, #0
 407              	.LVL55:
 408              	.L30:
 409              		.loc 1 557 0 discriminator 1
 410 0012 1448     		ldr	r0, .L35+4
 411 0014 FFF7FEFF 		bl	chSemWait
 412              	.LVL56:
 413              		.loc 1 558 0 discriminator 1
 414 0018 1248     		ldr	r0, .L35+4
 415 001a FFF7FEFF 		bl	chSemSignal
 416              	.LVL57:
 417              		.loc 1 559 0 discriminator 1
 418 001e 1148     		ldr	r0, .L35+4
 419 0020 FFF7FEFF 		bl	chSemWait
 420              	.LVL58:
 421              		.loc 1 560 0 discriminator 1
 422 0024 0F48     		ldr	r0, .L35+4
 423 0026 FFF7FEFF 		bl	chSemSignal
 424              	.LVL59:
 425              		.loc 1 561 0 discriminator 1
 426 002a 0E48     		ldr	r0, .L35+4
 427 002c FFF7FEFF 		bl	chSemWait
 428              	.LVL60:
 429              		.loc 1 562 0 discriminator 1
 430 0030 0C48     		ldr	r0, .L35+4
 431 0032 FFF7FEFF 		bl	chSemSignal
 432              	.LVL61:
 433              		.loc 1 563 0 discriminator 1
 434 0036 0B48     		ldr	r0, .L35+4
 435 0038 FFF7FEFF 		bl	chSemWait
 436              	.LVL62:
 437              		.loc 1 564 0 discriminator 1
 438 003c 0948     		ldr	r0, .L35+4
 439 003e FFF7FEFF 		bl	chSemSignal
 440              	.LVL63:
 441              		.loc 1 569 0 discriminator 1
 442 0042 2B78     		ldrb	r3, [r5, #0]	@ zero_extendqisi2
 443              		.loc 1 565 0 discriminator 1
 444 0044 0134     		adds	r4, r4, #1
 445              	.LVL64:
 446              		.loc 1 569 0 discriminator 1
 447 0046 002B     		cmp	r3, #0
 448 0048 E3D0     		beq	.L30
ARM GAS  C:\cygwin\tmp\cciKAwAx.s 			page 9


 449              		.loc 1 570 0
 450 004a 0748     		ldr	r0, .L35+8
 451 004c FFF7FEFF 		bl	test_print
 452              	.LVL65:
 453              		.loc 1 571 0
 454 0050 A000     		lsls	r0, r4, #2
 455 0052 FFF7FEFF 		bl	test_printn
 456              	.LVL66:
 457              		.loc 1 572 0
 458 0056 0548     		ldr	r0, .L35+12
 459              		.loc 1 573 0
 460 0058 BDE83840 		pop	{r3, r4, r5, lr}
 461              		.loc 1 572 0
 462 005c FFF7FEBF 		b	test_println
 463              	.LVL67:
 464              	.L36:
 465              		.align	2
 466              	.L35:
 467 0060 00000000 		.word	test_timer_done
 468 0064 00000000 		.word	.LANCHOR1
 469 0068 A8000000 		.word	.LC11
 470 006c C8000000 		.word	.LC13
 471              		.cfi_endproc
 472              	.LFE26:
 473              		.size	bmk11_execute, .-bmk11_execute
 474              		.section	.text.bmk11_setup,"ax",%progbits
 475              		.align	2
 476              		.p2align 4,,15
 477              		.thumb
 478              		.thumb_func
 479              		.type	bmk11_setup, %function
 480              	bmk11_setup:
 481              	.LFB25:
 482              		.loc 1 546 0
 483              		.cfi_startproc
 484              		@ args = 0, pretend = 0, frame = 0
 485              		@ frame_needed = 0, uses_anonymous_args = 0
 486              		@ link register save eliminated.
 487              		.loc 1 548 0
 488 0000 40F20000 		movw	r0, #:lower16:.LANCHOR1
 489 0004 C0F20000 		movt	r0, #:upper16:.LANCHOR1
 490 0008 0121     		movs	r1, #1
 491              		.loc 1 549 0
 492              		.loc 1 548 0
 493 000a FFF7FEBF 		b	chSemInit
 494              	.LVL68:
 495              		.cfi_endproc
 496              	.LFE25:
 497              		.size	bmk11_setup, .-bmk11_setup
 498 000e 00BF     		.section	.text.bmk7_setup,"ax",%progbits
 499              		.align	2
 500              		.p2align 4,,15
 501              		.thumb
 502              		.thumb_func
 503              		.type	bmk7_setup, %function
 504              	bmk7_setup:
 505              	.LFB18:
ARM GAS  C:\cygwin\tmp\cciKAwAx.s 			page 10


 506              		.loc 1 353 0
 507              		.cfi_startproc
 508              		@ args = 0, pretend = 0, frame = 0
 509              		@ frame_needed = 0, uses_anonymous_args = 0
 510              		@ link register save eliminated.
 511              		.loc 1 355 0
 512 0000 40F20000 		movw	r0, #:lower16:.LANCHOR1
 513 0004 C0F20000 		movt	r0, #:upper16:.LANCHOR1
 514 0008 0021     		movs	r1, #0
 515              		.loc 1 356 0
 516              		.loc 1 355 0
 517 000a FFF7FEBF 		b	chSemInit
 518              	.LVL69:
 519              		.cfi_endproc
 520              	.LFE18:
 521              		.size	bmk7_setup, .-bmk7_setup
 522 000e 00BF     		.section	.text.bmk10_execute,"ax",%progbits
 523              		.align	2
 524              		.p2align 4,,15
 525              		.thumb
 526              		.thumb_func
 527              		.type	bmk10_execute, %function
 528              	bmk10_execute:
 529              	.LFB24:
 530              		.loc 1 506 0
 531              		.cfi_startproc
 532              		@ args = 0, pretend = 0, frame = 0
 533              		@ frame_needed = 0, uses_anonymous_args = 0
 534              	.LVL70:
 535 0000 38B5     		push	{r3, r4, r5, lr}
 536              	.LCFI4:
 537              		.cfi_def_cfa_offset 16
 538              		.cfi_offset 3, -16
 539              		.cfi_offset 4, -12
 540              		.cfi_offset 5, -8
 541              		.cfi_offset 14, -4
 542              		.loc 1 510 0
 543 0002 FFF7FEFF 		bl	test_wait_tick
 544              	.LVL71:
 545              		.loc 1 511 0
 546 0006 4FF47A70 		mov	r0, #1000
 547 000a FFF7FEFF 		bl	test_start_timer
 548              	.LVL72:
 549 000e 174D     		ldr	r5, .L45
 550              		.loc 1 508 0
 551 0010 0024     		movs	r4, #0
 552              	.LVL73:
 553              	.L40:
 554              	.LBB2:
 555              		.loc 1 513 0 discriminator 1
 556 0012 2023     		movs	r3, #32
 557              	.LVL74:
 558              	@ 513 "../../../test/testbmk.c" 1
 559 0014 83F31188 		msr     BASEPRI, r3
 560              	@ 0 "" 2
 561              	.LVL75:
 562              		.thumb
ARM GAS  C:\cygwin\tmp\cciKAwAx.s 			page 11


 563              	.LBE2:
 564 0018 FFF7FEFF 		bl	dbg_check_lock
 565              	.LVL76:
 566              		.loc 1 514 0 discriminator 1
 567 001c 0121     		movs	r1, #1
 568 001e 0023     		movs	r3, #0
 569 0020 1348     		ldr	r0, .L45+4
 570 0022 144A     		ldr	r2, .L45+8
 571 0024 FFF7FEFF 		bl	chVTSetI
 572              	.LVL77:
 573              		.loc 1 515 0 discriminator 1
 574 0028 0023     		movs	r3, #0
 575 002a 42F21071 		movw	r1, #10000
 576 002e 114A     		ldr	r2, .L45+8
 577 0030 1148     		ldr	r0, .L45+12
 578 0032 FFF7FEFF 		bl	chVTSetI
 579              	.LVL78:
 580              		.loc 1 516 0 discriminator 1
 581 0036 0E48     		ldr	r0, .L45+4
 582 0038 FFF7FEFF 		bl	chVTResetI
 583              	.LVL79:
 584              		.loc 1 517 0 discriminator 1
 585 003c 0E48     		ldr	r0, .L45+12
 586 003e FFF7FEFF 		bl	chVTResetI
 587              	.LVL80:
 588              		.loc 1 518 0 discriminator 1
 589 0042 FFF7FEFF 		bl	dbg_check_unlock
 590              	.LVL81:
 591              	.LBB3:
 592 0046 0023     		movs	r3, #0
 593              	.LVL82:
 594              	@ 518 "../../../test/testbmk.c" 1
 595 0048 83F31188 		msr     BASEPRI, r3
 596              	@ 0 "" 2
 597              	.LVL83:
 598              		.thumb
 599              	.LBE3:
 600              		.loc 1 523 0 discriminator 1
 601 004c 2B78     		ldrb	r3, [r5, #0]	@ zero_extendqisi2
 602              	.LVL84:
 603              		.loc 1 519 0 discriminator 1
 604 004e 0134     		adds	r4, r4, #1
 605              	.LVL85:
 606              		.loc 1 523 0 discriminator 1
 607 0050 002B     		cmp	r3, #0
 608 0052 DED0     		beq	.L40
 609              		.loc 1 524 0
 610 0054 0948     		ldr	r0, .L45+16
 611 0056 FFF7FEFF 		bl	test_print
 612              	.LVL86:
 613              		.loc 1 525 0
 614 005a 6000     		lsls	r0, r4, #1
 615 005c FFF7FEFF 		bl	test_printn
 616              	.LVL87:
 617              		.loc 1 526 0
 618 0060 0748     		ldr	r0, .L45+20
 619              		.loc 1 527 0
ARM GAS  C:\cygwin\tmp\cciKAwAx.s 			page 12


 620 0062 BDE83840 		pop	{r3, r4, r5, lr}
 621              		.loc 1 526 0
 622 0066 FFF7FEBF 		b	test_println
 623              	.LVL88:
 624              	.L46:
 625 006a 00BF     		.align	2
 626              	.L45:
 627 006c 00000000 		.word	test_timer_done
 628 0070 00000000 		.word	.LANCHOR2
 629 0074 00000000 		.word	tmo
 630 0078 00000000 		.word	.LANCHOR3
 631 007c A8000000 		.word	.LC11
 632 0080 D8000000 		.word	.LC14
 633              		.cfi_endproc
 634              	.LFE24:
 635              		.size	bmk10_execute, .-bmk10_execute
 636 0084 AFF30080 		.section	.text.bmk9_execute,"ax",%progbits
 636      AFF30080 
 636      AFF30080 
 637              		.align	2
 638              		.p2align 4,,15
 639              		.thumb
 640              		.thumb_func
 641              		.type	bmk9_execute, %function
 642              	bmk9_execute:
 643              	.LFB22:
 644              		.loc 1 458 0
 645              		.cfi_startproc
 646              		@ args = 0, pretend = 0, frame = 0
 647              		@ frame_needed = 0, uses_anonymous_args = 0
 648 0000 30B5     		push	{r4, r5, lr}
 649              	.LCFI5:
 650              		.cfi_def_cfa_offset 12
 651              		.cfi_offset 4, -12
 652              		.cfi_offset 5, -8
 653              		.cfi_offset 14, -4
 654 0002 83B0     		sub	sp, sp, #12
 655              	.LCFI6:
 656              		.cfi_def_cfa_offset 24
 657              		.loc 1 463 0
 658 0004 0024     		movs	r4, #0
 659 0006 2649     		ldr	r1, .L53
 660 0008 2648     		ldr	r0, .L53+4
 661 000a 0094     		str	r4, [sp, #0]
 662 000c 1022     		movs	r2, #16
 663 000e 2346     		mov	r3, r4
 664 0010 FFF7FEFF 		bl	chIQInit
 665              	.LVL89:
 666              		.loc 1 465 0
 667 0014 FFF7FEFF 		bl	test_wait_tick
 668              	.LVL90:
 669              		.loc 1 466 0
 670 0018 4FF47A70 		mov	r0, #1000
 671 001c FFF7FEFF 		bl	test_start_timer
 672              	.LVL91:
 673 0020 214D     		ldr	r5, .L53+8
 674              	.LVL92:
ARM GAS  C:\cygwin\tmp\cciKAwAx.s 			page 13


 675              	.L48:
 676              	.LBB4:
 677              		.loc 1 468 0 discriminator 1
 678 0022 2023     		movs	r3, #32
 679              	.LVL93:
 680              	@ 468 "../../../test/testbmk.c" 1
 681 0024 83F31188 		msr     BASEPRI, r3
 682              	@ 0 "" 2
 683              	.LVL94:
 684              		.thumb
 685              	.LBE4:
 686 0028 FFF7FEFF 		bl	dbg_check_lock
 687              	.LVL95:
 688              		.loc 1 469 0 discriminator 1
 689 002c 0021     		movs	r1, #0
 690 002e 1D48     		ldr	r0, .L53+4
 691 0030 FFF7FEFF 		bl	chIQPutI
 692              	.LVL96:
 693              		.loc 1 470 0 discriminator 1
 694 0034 0121     		movs	r1, #1
 695 0036 1B48     		ldr	r0, .L53+4
 696 0038 FFF7FEFF 		bl	chIQPutI
 697              	.LVL97:
 698              		.loc 1 471 0 discriminator 1
 699 003c 0221     		movs	r1, #2
 700 003e 1948     		ldr	r0, .L53+4
 701 0040 FFF7FEFF 		bl	chIQPutI
 702              	.LVL98:
 703              		.loc 1 472 0 discriminator 1
 704 0044 0321     		movs	r1, #3
 705 0046 1748     		ldr	r0, .L53+4
 706 0048 FFF7FEFF 		bl	chIQPutI
 707              	.LVL99:
 708              		.loc 1 473 0 discriminator 1
 709 004c FFF7FEFF 		bl	dbg_check_unlock
 710              	.LVL100:
 711              	.LBB5:
 712 0050 0023     		movs	r3, #0
 713              	.LVL101:
 714              	@ 473 "../../../test/testbmk.c" 1
 715 0052 83F31188 		msr     BASEPRI, r3
 716              	@ 0 "" 2
 717              	.LVL102:
 718              		.thumb
 719              	.LBE5:
 720              		.loc 1 474 0 discriminator 1
 721 0056 4FF0FF31 		mov	r1, #-1
 722 005a 1248     		ldr	r0, .L53+4
 723 005c FFF7FEFF 		bl	chIQGetTimeout
 724              	.LVL103:
 725              		.loc 1 475 0 discriminator 1
 726 0060 4FF0FF31 		mov	r1, #-1
 727 0064 0F48     		ldr	r0, .L53+4
 728 0066 FFF7FEFF 		bl	chIQGetTimeout
 729              	.LVL104:
 730              		.loc 1 476 0 discriminator 1
 731 006a 4FF0FF31 		mov	r1, #-1
ARM GAS  C:\cygwin\tmp\cciKAwAx.s 			page 14


 732 006e 0D48     		ldr	r0, .L53+4
 733 0070 FFF7FEFF 		bl	chIQGetTimeout
 734              	.LVL105:
 735              		.loc 1 477 0 discriminator 1
 736 0074 0B48     		ldr	r0, .L53+4
 737 0076 4FF0FF31 		mov	r1, #-1
 738 007a FFF7FEFF 		bl	chIQGetTimeout
 739              	.LVL106:
 740              		.loc 1 482 0 discriminator 1
 741 007e 2B78     		ldrb	r3, [r5, #0]	@ zero_extendqisi2
 742              		.loc 1 478 0 discriminator 1
 743 0080 0134     		adds	r4, r4, #1
 744              	.LVL107:
 745              		.loc 1 482 0 discriminator 1
 746 0082 002B     		cmp	r3, #0
 747 0084 CDD0     		beq	.L48
 748              		.loc 1 483 0
 749 0086 0948     		ldr	r0, .L53+12
 750 0088 FFF7FEFF 		bl	test_print
 751              	.LVL108:
 752              		.loc 1 484 0
 753 008c A000     		lsls	r0, r4, #2
 754 008e FFF7FEFF 		bl	test_printn
 755              	.LVL109:
 756              		.loc 1 485 0
 757 0092 0748     		ldr	r0, .L53+16
 758              		.loc 1 486 0
 759 0094 03B0     		add	sp, sp, #12
 760 0096 BDE83040 		pop	{r4, r5, lr}
 761              		.loc 1 485 0
 762 009a FFF7FEBF 		b	test_println
 763              	.LVL110:
 764              	.L54:
 765 009e 00BF     		.align	2
 766              	.L53:
 767 00a0 00000000 		.word	.LANCHOR5
 768 00a4 00000000 		.word	.LANCHOR4
 769 00a8 00000000 		.word	test_timer_done
 770 00ac A8000000 		.word	.LC11
 771 00b0 E4000000 		.word	.LC15
 772              		.cfi_endproc
 773              	.LFE22:
 774              		.size	bmk9_execute, .-bmk9_execute
 775 00b4 AFF30080 		.section	.text.bmk6_execute,"ax",%progbits
 775      AFF30080 
 775      AFF30080 
 776              		.align	2
 777              		.p2align 4,,15
 778              		.thumb
 779              		.thumb_func
 780              		.type	bmk6_execute, %function
 781              	bmk6_execute:
 782              	.LFB16:
 783              		.loc 1 308 0
 784              		.cfi_startproc
 785              		@ args = 0, pretend = 0, frame = 0
 786              		@ frame_needed = 0, uses_anonymous_args = 0
ARM GAS  C:\cygwin\tmp\cciKAwAx.s 			page 15


 787              	.LVL111:
 788 0000 2DE9F041 		push	{r4, r5, r6, r7, r8, lr}
 789              	.LCFI7:
 790              		.cfi_def_cfa_offset 24
 791              		.cfi_offset 4, -24
 792              		.cfi_offset 5, -20
 793              		.cfi_offset 6, -16
 794              		.cfi_offset 7, -12
 795              		.cfi_offset 8, -8
 796              		.cfi_offset 14, -4
 797              		.loc 1 312 0
 798 0004 144B     		ldr	r3, .L61
 799              		.loc 1 311 0
 800 0006 154A     		ldr	r2, .L61+4
 801              		.loc 1 312 0
 802 0008 9B69     		ldr	r3, [r3, #24]
 803              		.loc 1 311 0
 804 000a D2F80080 		ldr	r8, [r2, #0]
 805              	.LVL112:
 806              		.loc 1 312 0
 807 000e 9E68     		ldr	r6, [r3, #8]
 808 0010 134F     		ldr	r7, .L61+8
 809              		.loc 1 308 0
 810 0012 82B0     		sub	sp, sp, #8
 811              	.LCFI8:
 812              		.cfi_def_cfa_offset 32
 813              		.loc 1 313 0
 814 0014 FFF7FEFF 		bl	test_wait_tick
 815              	.LVL113:
 816              		.loc 1 314 0
 817 0018 4FF47A70 		mov	r0, #1000
 818 001c FFF7FEFF 		bl	test_start_timer
 819              	.LVL114:
 820              		.loc 1 310 0
 821 0020 0024     		movs	r4, #0
 822              		.loc 1 312 0
 823 0022 0136     		adds	r6, r6, #1
 824              	.LVL115:
 825              		.loc 1 316 0
 826 0024 2546     		mov	r5, r4
 827              	.LVL116:
 828              	.L56:
 829              		.loc 1 316 0 is_stmt 0 discriminator 1
 830 0026 0F4B     		ldr	r3, .L61+12
 831 0028 0095     		str	r5, [sp, #0]
 832 002a 4046     		mov	r0, r8
 833 002c 4FF49871 		mov	r1, #304
 834 0030 3246     		mov	r2, r6
 835 0032 FFF7FEFF 		bl	chThdCreateStatic
 836              	.LVL117:
 837              		.loc 1 321 0 is_stmt 1 discriminator 1
 838 0036 3B78     		ldrb	r3, [r7, #0]	@ zero_extendqisi2
 839              		.loc 1 317 0 discriminator 1
 840 0038 0134     		adds	r4, r4, #1
 841              	.LVL118:
 842              		.loc 1 321 0 discriminator 1
 843 003a 002B     		cmp	r3, #0
ARM GAS  C:\cygwin\tmp\cciKAwAx.s 			page 16


 844 003c F3D0     		beq	.L56
 845              		.loc 1 322 0
 846 003e 0A48     		ldr	r0, .L61+16
 847 0040 FFF7FEFF 		bl	test_print
 848              	.LVL119:
 849              		.loc 1 323 0
 850 0044 2046     		mov	r0, r4
 851 0046 FFF7FEFF 		bl	test_printn
 852              	.LVL120:
 853              		.loc 1 324 0
 854 004a 0848     		ldr	r0, .L61+20
 855              		.loc 1 325 0
 856 004c 02B0     		add	sp, sp, #8
 857 004e BDE8F041 		pop	{r4, r5, r6, r7, r8, lr}
 858              		.loc 1 324 0
 859 0052 FFF7FEBF 		b	test_println
 860              	.LVL121:
 861              	.L62:
 862 0056 00BF     		.align	2
 863              	.L61:
 864 0058 00000000 		.word	rlist
 865 005c 00000000 		.word	wa
 866 0060 00000000 		.word	test_timer_done
 867 0064 00000000 		.word	thread2
 868 0068 A8000000 		.word	.LC11
 869 006c F0000000 		.word	.LC16
 870              		.cfi_endproc
 871              	.LFE16:
 872              		.size	bmk6_execute, .-bmk6_execute
 873              		.section	.text.bmk8_execute,"ax",%progbits
 874              		.align	2
 875              		.p2align 4,,15
 876              		.thumb
 877              		.thumb_func
 878              		.type	bmk8_execute, %function
 879              	bmk8_execute:
 880              	.LFB21:
 881              		.loc 1 420 0
 882              		.cfi_startproc
 883              		@ args = 0, pretend = 0, frame = 8
 884              		@ frame_needed = 0, uses_anonymous_args = 0
 885 0000 2DE9F043 		push	{r4, r5, r6, r7, r8, r9, lr}
 886              	.LCFI9:
 887              		.cfi_def_cfa_offset 28
 888              		.cfi_offset 4, -28
 889              		.cfi_offset 5, -24
 890              		.cfi_offset 6, -20
 891              		.cfi_offset 7, -16
 892              		.cfi_offset 8, -12
 893              		.cfi_offset 9, -8
 894              		.cfi_offset 14, -4
 895              		.loc 1 426 0
 896 0004 40F20009 		movw	r9, #:lower16:rlist
 897              		.loc 1 420 0
 898 0008 85B0     		sub	sp, sp, #20
 899              	.LCFI10:
 900              		.cfi_def_cfa_offset 48
ARM GAS  C:\cygwin\tmp\cciKAwAx.s 			page 17


 901              		.loc 1 423 0
 902 000a 04AC     		add	r4, sp, #16
 903              		.loc 1 426 0
 904 000c C0F20009 		movt	r9, #:upper16:rlist
 905              		.loc 1 423 0
 906 0010 0023     		movs	r3, #0
 907 0012 44F8043D 		str	r3, [r4, #-4]!
 908              	.LVL122:
 909              		.loc 1 424 0
 910 0016 FFF7FEFF 		bl	test_wait_tick
 911              	.LVL123:
 912              		.loc 1 426 0
 913 001a D9F81830 		ldr	r3, [r9, #24]
 914 001e 40F20008 		movw	r8, #:lower16:wa
 915 0022 C0F20008 		movt	r8, #:upper16:wa
 916 0026 9A68     		ldr	r2, [r3, #8]
 917 0028 D8F80000 		ldr	r0, [r8, #0]
 918 002c 0094     		str	r4, [sp, #0]
 919 002e 40F20006 		movw	r6, #:lower16:thread8
 920 0032 C0F20006 		movt	r6, #:upper16:thread8
 921 0036 013A     		subs	r2, r2, #1
 922 0038 3346     		mov	r3, r6
 923 003a 4FF49871 		mov	r1, #304
 924 003e FFF7FEFF 		bl	chThdCreateStatic
 925              	.LVL124:
 926              		.loc 1 427 0
 927 0042 D9F81830 		ldr	r3, [r9, #24]
 928 0046 D8F80470 		ldr	r7, [r8, #4]
 929 004a 9A68     		ldr	r2, [r3, #8]
 930 004c 0094     		str	r4, [sp, #0]
 931              		.loc 1 426 0
 932 004e 40F20005 		movw	r5, #:lower16:threads
 933 0052 C0F20005 		movt	r5, #:upper16:threads
 934              		.loc 1 427 0
 935 0056 013A     		subs	r2, r2, #1
 936              		.loc 1 426 0
 937 0058 2860     		str	r0, [r5, #0]
 938              		.loc 1 427 0
 939 005a 3346     		mov	r3, r6
 940 005c 4FF49871 		mov	r1, #304
 941 0060 3846     		mov	r0, r7
 942 0062 FFF7FEFF 		bl	chThdCreateStatic
 943              	.LVL125:
 944              		.loc 1 428 0
 945 0066 D9F81830 		ldr	r3, [r9, #24]
 946 006a D8F80870 		ldr	r7, [r8, #8]
 947 006e 9A68     		ldr	r2, [r3, #8]
 948              		.loc 1 427 0
 949 0070 6860     		str	r0, [r5, #4]
 950              		.loc 1 428 0
 951 0072 013A     		subs	r2, r2, #1
 952 0074 3346     		mov	r3, r6
 953 0076 4FF49871 		mov	r1, #304
 954 007a 0094     		str	r4, [sp, #0]
 955 007c 3846     		mov	r0, r7
 956 007e FFF7FEFF 		bl	chThdCreateStatic
 957              	.LVL126:
ARM GAS  C:\cygwin\tmp\cciKAwAx.s 			page 18


 958              		.loc 1 429 0
 959 0082 D9F81830 		ldr	r3, [r9, #24]
 960 0086 D8F80C70 		ldr	r7, [r8, #12]
 961 008a 9A68     		ldr	r2, [r3, #8]
 962              		.loc 1 428 0
 963 008c A860     		str	r0, [r5, #8]
 964              		.loc 1 429 0
 965 008e 013A     		subs	r2, r2, #1
 966 0090 3346     		mov	r3, r6
 967 0092 4FF49871 		mov	r1, #304
 968 0096 0094     		str	r4, [sp, #0]
 969 0098 3846     		mov	r0, r7
 970 009a FFF7FEFF 		bl	chThdCreateStatic
 971              	.LVL127:
 972              		.loc 1 430 0
 973 009e D9F81830 		ldr	r3, [r9, #24]
 974 00a2 D8F81070 		ldr	r7, [r8, #16]
 975 00a6 9A68     		ldr	r2, [r3, #8]
 976              		.loc 1 429 0
 977 00a8 E860     		str	r0, [r5, #12]
 978              		.loc 1 430 0
 979 00aa 4FF49871 		mov	r1, #304
 980 00ae 013A     		subs	r2, r2, #1
 981 00b0 3346     		mov	r3, r6
 982 00b2 0094     		str	r4, [sp, #0]
 983 00b4 3846     		mov	r0, r7
 984 00b6 FFF7FEFF 		bl	chThdCreateStatic
 985              	.LVL128:
 986 00ba 2861     		str	r0, [r5, #16]
 987              		.loc 1 432 0
 988 00bc 4FF47A70 		mov	r0, #1000
 989 00c0 FFF7FEFF 		bl	chThdSleep
 990              	.LVL129:
 991              		.loc 1 433 0
 992 00c4 FFF7FEFF 		bl	test_terminate_threads
 993              	.LVL130:
 994              		.loc 1 434 0
 995 00c8 FFF7FEFF 		bl	test_wait_threads
 996              	.LVL131:
 997              		.loc 1 436 0
 998 00cc 40F20000 		movw	r0, #:lower16:.LC11
 999 00d0 C0F20000 		movt	r0, #:upper16:.LC11
 1000 00d4 FFF7FEFF 		bl	test_print
 1001              	.LVL132:
 1002              		.loc 1 437 0
 1003 00d8 0398     		ldr	r0, [sp, #12]
 1004 00da FFF7FEFF 		bl	test_printn
 1005              	.LVL133:
 1006              		.loc 1 438 0
 1007 00de 40F20000 		movw	r0, #:lower16:.LC17
 1008 00e2 C0F20000 		movt	r0, #:upper16:.LC17
 1009 00e6 FFF7FEFF 		bl	test_println
 1010              	.LVL134:
 1011              		.loc 1 439 0
 1012 00ea 05B0     		add	sp, sp, #20
 1013 00ec BDE8F083 		pop	{r4, r5, r6, r7, r8, r9, pc}
 1014              		.cfi_endproc
ARM GAS  C:\cygwin\tmp\cciKAwAx.s 			page 19


 1015              	.LFE21:
 1016              		.size	bmk8_execute, .-bmk8_execute
 1017              		.section	.text.thread8,"ax",%progbits
 1018              		.align	2
 1019              		.p2align 4,,15
 1020              		.thumb
 1021              		.thumb_func
 1022              		.type	thread8, %function
 1023              	thread8:
 1024              	.LFB20:
 1025              		.loc 1 405 0
 1026              		.cfi_startproc
 1027              		@ args = 0, pretend = 0, frame = 0
 1028              		@ frame_needed = 0, uses_anonymous_args = 0
 1029              	.LVL135:
 1030 0000 38B5     		push	{r3, r4, r5, lr}
 1031              	.LCFI11:
 1032              		.cfi_def_cfa_offset 16
 1033              		.cfi_offset 3, -16
 1034              		.cfi_offset 4, -12
 1035              		.cfi_offset 5, -8
 1036              		.cfi_offset 14, -4
 1037 0002 0B4D     		ldr	r5, .L70
 1038              		.loc 1 405 0
 1039 0004 0446     		mov	r4, r0
 1040              	.LVL136:
 1041              	.L65:
 1042              		.loc 1 408 0 discriminator 1
 1043 0006 FFF7FEFF 		bl	chThdYield
 1044              	.LVL137:
 1045              		.loc 1 409 0 discriminator 1
 1046 000a FFF7FEFF 		bl	chThdYield
 1047              	.LVL138:
 1048              		.loc 1 410 0 discriminator 1
 1049 000e FFF7FEFF 		bl	chThdYield
 1050              	.LVL139:
 1051              		.loc 1 411 0 discriminator 1
 1052 0012 FFF7FEFF 		bl	chThdYield
 1053              	.LVL140:
 1054              		.loc 1 412 0 discriminator 1
 1055 0016 2268     		ldr	r2, [r4, #0]
 1056              		.loc 1 416 0 discriminator 1
 1057 0018 AB69     		ldr	r3, [r5, #24]
 1058              		.loc 1 412 0 discriminator 1
 1059 001a 0432     		adds	r2, r2, #4
 1060 001c 2260     		str	r2, [r4, #0]
 1061              		.loc 1 416 0 discriminator 1
 1062 001e 93F82130 		ldrb	r3, [r3, #33]	@ zero_extendqisi2
 1063 0022 03F00403 		and	r3, r3, #4
 1064 0026 DBB2     		uxtb	r3, r3
 1065 0028 002B     		cmp	r3, #0
 1066 002a ECD0     		beq	.L65
 1067              		.loc 1 418 0
 1068 002c 0020     		movs	r0, #0
 1069 002e 38BD     		pop	{r3, r4, r5, pc}
 1070              	.L71:
 1071              		.align	2
ARM GAS  C:\cygwin\tmp\cciKAwAx.s 			page 20


 1072              	.L70:
 1073 0030 00000000 		.word	rlist
 1074              		.cfi_endproc
 1075              	.LFE20:
 1076              		.size	thread8, .-thread8
 1077 0034 AFF30080 		.section	.text.bmk7_execute,"ax",%progbits
 1077      AFF30080 
 1077      AFF30080 
 1078              		.align	2
 1079              		.p2align 4,,15
 1080              		.thumb
 1081              		.thumb_func
 1082              		.type	bmk7_execute, %function
 1083              	bmk7_execute:
 1084              	.LFB19:
 1085              		.loc 1 358 0
 1086              		.cfi_startproc
 1087              		@ args = 0, pretend = 0, frame = 8
 1088              		@ frame_needed = 0, uses_anonymous_args = 0
 1089 0000 2DE9F042 		push	{r4, r5, r6, r7, r9, lr}
 1090              	.LCFI12:
 1091              		.cfi_def_cfa_offset 24
 1092              		.cfi_offset 4, -24
 1093              		.cfi_offset 5, -20
 1094              		.cfi_offset 6, -16
 1095              		.cfi_offset 7, -12
 1096              		.cfi_offset 9, -8
 1097              		.cfi_offset 14, -4
 1098              		.loc 1 361 0
 1099 0004 DFF80491 		ldr	r9, .L78+32
 1100 0008 384F     		ldr	r7, .L78
 1101 000a D9F81830 		ldr	r3, [r9, #24]
 1102 000e 3868     		ldr	r0, [r7, #0]
 1103 0010 9A68     		ldr	r2, [r3, #8]
 1104 0012 374B     		ldr	r3, .L78+4
 1105 0014 374E     		ldr	r6, .L78+8
 1106 0016 384D     		ldr	r5, .L78+12
 1107              		.loc 1 358 0
 1108 0018 84B0     		sub	sp, sp, #16
 1109              	.LCFI13:
 1110              		.cfi_def_cfa_offset 40
 1111              		.loc 1 361 0
 1112 001a 0024     		movs	r4, #0
 1113 001c 4FF49871 		mov	r1, #304
 1114 0020 0532     		adds	r2, r2, #5
 1115 0022 0094     		str	r4, [sp, #0]
 1116 0024 FFF7FEFF 		bl	chThdCreateStatic
 1117              	.LVL141:
 1118              		.loc 1 362 0
 1119 0028 7A68     		ldr	r2, [r7, #4]
 1120 002a D9F81830 		ldr	r3, [r9, #24]
 1121 002e 0392     		str	r2, [sp, #12]
 1122 0030 9A68     		ldr	r2, [r3, #8]
 1123              		.loc 1 361 0
 1124 0032 3060     		str	r0, [r6, #0]
 1125              		.loc 1 362 0
 1126 0034 4FF49871 		mov	r1, #304
ARM GAS  C:\cygwin\tmp\cciKAwAx.s 			page 21


 1127 0038 0432     		adds	r2, r2, #4
 1128 003a 2D4B     		ldr	r3, .L78+4
 1129 003c 0094     		str	r4, [sp, #0]
 1130 003e 0398     		ldr	r0, [sp, #12]
 1131 0040 FFF7FEFF 		bl	chThdCreateStatic
 1132              	.LVL142:
 1133              		.loc 1 363 0
 1134 0044 BA68     		ldr	r2, [r7, #8]
 1135 0046 D9F81830 		ldr	r3, [r9, #24]
 1136 004a 0392     		str	r2, [sp, #12]
 1137 004c 9A68     		ldr	r2, [r3, #8]
 1138              		.loc 1 362 0
 1139 004e 7060     		str	r0, [r6, #4]
 1140              		.loc 1 363 0
 1141 0050 4FF49871 		mov	r1, #304
 1142 0054 0332     		adds	r2, r2, #3
 1143 0056 264B     		ldr	r3, .L78+4
 1144 0058 0094     		str	r4, [sp, #0]
 1145 005a 0398     		ldr	r0, [sp, #12]
 1146 005c FFF7FEFF 		bl	chThdCreateStatic
 1147              	.LVL143:
 1148              		.loc 1 364 0
 1149 0060 FA68     		ldr	r2, [r7, #12]
 1150 0062 D9F81830 		ldr	r3, [r9, #24]
 1151 0066 0392     		str	r2, [sp, #12]
 1152 0068 9A68     		ldr	r2, [r3, #8]
 1153              		.loc 1 363 0
 1154 006a B060     		str	r0, [r6, #8]
 1155              		.loc 1 364 0
 1156 006c 4FF49871 		mov	r1, #304
 1157 0070 0232     		adds	r2, r2, #2
 1158 0072 1F4B     		ldr	r3, .L78+4
 1159 0074 0094     		str	r4, [sp, #0]
 1160 0076 0398     		ldr	r0, [sp, #12]
 1161 0078 FFF7FEFF 		bl	chThdCreateStatic
 1162              	.LVL144:
 1163              		.loc 1 365 0
 1164 007c D9F81830 		ldr	r3, [r9, #24]
 1165 0080 3F69     		ldr	r7, [r7, #16]
 1166 0082 9A68     		ldr	r2, [r3, #8]
 1167 0084 1A4B     		ldr	r3, .L78+4
 1168              		.loc 1 364 0
 1169 0086 F060     		str	r0, [r6, #12]
 1170              		.loc 1 365 0
 1171 0088 4FF49871 		mov	r1, #304
 1172 008c 0132     		adds	r2, r2, #1
 1173 008e 0094     		str	r4, [sp, #0]
 1174 0090 3846     		mov	r0, r7
 1175 0092 FFF7FEFF 		bl	chThdCreateStatic
 1176              	.LVL145:
 1177 0096 3061     		str	r0, [r6, #16]
 1178              	.LVL146:
 1179              		.loc 1 368 0
 1180 0098 FFF7FEFF 		bl	test_wait_tick
 1181              	.LVL147:
 1182              		.loc 1 369 0
 1183 009c 4FF47A70 		mov	r0, #1000
ARM GAS  C:\cygwin\tmp\cciKAwAx.s 			page 22


 1184 00a0 FFF7FEFF 		bl	test_start_timer
 1185              	.LVL148:
 1186              	.L73:
 1187              		.loc 1 371 0 discriminator 1
 1188 00a4 1548     		ldr	r0, .L78+16
 1189 00a6 0021     		movs	r1, #0
 1190 00a8 FFF7FEFF 		bl	chSemReset
 1191              	.LVL149:
 1192              		.loc 1 376 0 discriminator 1
 1193 00ac 2B78     		ldrb	r3, [r5, #0]	@ zero_extendqisi2
 1194              		.loc 1 372 0 discriminator 1
 1195 00ae 0134     		adds	r4, r4, #1
 1196              	.LVL150:
 1197              		.loc 1 376 0 discriminator 1
 1198 00b0 002B     		cmp	r3, #0
 1199 00b2 F7D0     		beq	.L73
 1200              		.loc 1 377 0
 1201 00b4 FFF7FEFF 		bl	test_terminate_threads
 1202              	.LVL151:
 1203              		.loc 1 378 0
 1204 00b8 0021     		movs	r1, #0
 1205 00ba 1048     		ldr	r0, .L78+16
 1206 00bc FFF7FEFF 		bl	chSemReset
 1207              	.LVL152:
 1208              		.loc 1 379 0
 1209 00c0 FFF7FEFF 		bl	test_wait_threads
 1210              	.LVL153:
 1211              		.loc 1 381 0
 1212 00c4 0E48     		ldr	r0, .L78+20
 1213 00c6 FFF7FEFF 		bl	test_print
 1214              	.LVL154:
 1215              		.loc 1 382 0
 1216 00ca 2046     		mov	r0, r4
 1217 00cc FFF7FEFF 		bl	test_printn
 1218              	.LVL155:
 1219              		.loc 1 383 0
 1220 00d0 0C48     		ldr	r0, .L78+24
 1221 00d2 FFF7FEFF 		bl	test_print
 1222              	.LVL156:
 1223              		.loc 1 384 0
 1224 00d6 04EB4400 		add	r0, r4, r4, lsl #1
 1225 00da 4000     		lsls	r0, r0, #1
 1226 00dc FFF7FEFF 		bl	test_printn
 1227              	.LVL157:
 1228              		.loc 1 385 0
 1229 00e0 0948     		ldr	r0, .L78+28
 1230              		.loc 1 386 0
 1231 00e2 04B0     		add	sp, sp, #16
 1232 00e4 BDE8F042 		pop	{r4, r5, r6, r7, r9, lr}
 1233              		.loc 1 385 0
 1234 00e8 FFF7FEBF 		b	test_println
 1235              	.LVL158:
 1236              	.L79:
 1237              		.align	2
 1238              	.L78:
 1239 00ec 00000000 		.word	wa
 1240 00f0 00000000 		.word	thread3
ARM GAS  C:\cygwin\tmp\cciKAwAx.s 			page 23


 1241 00f4 00000000 		.word	threads
 1242 00f8 00000000 		.word	test_timer_done
 1243 00fc 00000000 		.word	.LANCHOR1
 1244 0100 A8000000 		.word	.LC11
 1245 0104 08010000 		.word	.LC18
 1246 0108 FC000000 		.word	.LC17
 1247 010c 00000000 		.word	rlist
 1248              		.cfi_endproc
 1249              	.LFE19:
 1250              		.size	bmk7_execute, .-bmk7_execute
 1251              		.section	.text.bmk5_execute,"ax",%progbits
 1252              		.align	2
 1253              		.p2align 4,,15
 1254              		.thumb
 1255              		.thumb_func
 1256              		.type	bmk5_execute, %function
 1257              	bmk5_execute:
 1258              	.LFB15:
 1259              		.loc 1 269 0
 1260              		.cfi_startproc
 1261              		@ args = 0, pretend = 0, frame = 0
 1262              		@ frame_needed = 0, uses_anonymous_args = 0
 1263              	.LVL159:
 1264 0000 2DE9F041 		push	{r4, r5, r6, r7, r8, lr}
 1265              	.LCFI14:
 1266              		.cfi_def_cfa_offset 24
 1267              		.cfi_offset 4, -24
 1268              		.cfi_offset 5, -20
 1269              		.cfi_offset 6, -16
 1270              		.cfi_offset 7, -12
 1271              		.cfi_offset 8, -8
 1272              		.cfi_offset 14, -4
 1273              		.loc 1 273 0
 1274 0004 154B     		ldr	r3, .L86
 1275              		.loc 1 272 0
 1276 0006 164A     		ldr	r2, .L86+4
 1277              		.loc 1 273 0
 1278 0008 9B69     		ldr	r3, [r3, #24]
 1279              		.loc 1 272 0
 1280 000a D2F80080 		ldr	r8, [r2, #0]
 1281              	.LVL160:
 1282              		.loc 1 273 0
 1283 000e 9E68     		ldr	r6, [r3, #8]
 1284 0010 144F     		ldr	r7, .L86+8
 1285              		.loc 1 269 0
 1286 0012 82B0     		sub	sp, sp, #8
 1287              	.LCFI15:
 1288              		.cfi_def_cfa_offset 32
 1289              		.loc 1 274 0
 1290 0014 FFF7FEFF 		bl	test_wait_tick
 1291              	.LVL161:
 1292              		.loc 1 275 0
 1293 0018 4FF47A70 		mov	r0, #1000
 1294 001c FFF7FEFF 		bl	test_start_timer
 1295              	.LVL162:
 1296              		.loc 1 271 0
 1297 0020 0024     		movs	r4, #0
ARM GAS  C:\cygwin\tmp\cciKAwAx.s 			page 24


 1298              		.loc 1 273 0
 1299 0022 013E     		subs	r6, r6, #1
 1300              	.LVL163:
 1301              		.loc 1 277 0
 1302 0024 2546     		mov	r5, r4
 1303              	.LVL164:
 1304              	.L81:
 1305              		.loc 1 277 0 is_stmt 0 discriminator 1
 1306 0026 104B     		ldr	r3, .L86+12
 1307 0028 0095     		str	r5, [sp, #0]
 1308 002a 4FF49871 		mov	r1, #304
 1309 002e 3246     		mov	r2, r6
 1310 0030 4046     		mov	r0, r8
 1311 0032 FFF7FEFF 		bl	chThdCreateStatic
 1312              	.LVL165:
 1313 0036 FFF7FEFF 		bl	chThdWait
 1314              	.LVL166:
 1315              		.loc 1 282 0 is_stmt 1 discriminator 1
 1316 003a 3B78     		ldrb	r3, [r7, #0]	@ zero_extendqisi2
 1317              		.loc 1 278 0 discriminator 1
 1318 003c 0134     		adds	r4, r4, #1
 1319              	.LVL167:
 1320              		.loc 1 282 0 discriminator 1
 1321 003e 002B     		cmp	r3, #0
 1322 0040 F1D0     		beq	.L81
 1323              		.loc 1 283 0
 1324 0042 0A48     		ldr	r0, .L86+16
 1325 0044 FFF7FEFF 		bl	test_print
 1326              	.LVL168:
 1327              		.loc 1 284 0
 1328 0048 2046     		mov	r0, r4
 1329 004a FFF7FEFF 		bl	test_printn
 1330              	.LVL169:
 1331              		.loc 1 285 0
 1332 004e 0848     		ldr	r0, .L86+20
 1333              		.loc 1 286 0
 1334 0050 02B0     		add	sp, sp, #8
 1335 0052 BDE8F041 		pop	{r4, r5, r6, r7, r8, lr}
 1336              		.loc 1 285 0
 1337 0056 FFF7FEBF 		b	test_println
 1338              	.LVL170:
 1339              	.L87:
 1340 005a 00BF     		.align	2
 1341              	.L86:
 1342 005c 00000000 		.word	rlist
 1343 0060 00000000 		.word	wa
 1344 0064 00000000 		.word	test_timer_done
 1345 0068 00000000 		.word	thread2
 1346 006c A8000000 		.word	.LC11
 1347 0070 F0000000 		.word	.LC16
 1348              		.cfi_endproc
 1349              	.LFE15:
 1350              		.size	bmk5_execute, .-bmk5_execute
 1351 0074 AFF30080 		.section	.text.bmk4_execute,"ax",%progbits
 1351      AFF30080 
 1351      AFF30080 
 1352              		.align	2
ARM GAS  C:\cygwin\tmp\cciKAwAx.s 			page 25


 1353              		.p2align 4,,15
 1354              		.thumb
 1355              		.thumb_func
 1356              		.type	bmk4_execute, %function
 1357              	bmk4_execute:
 1358              	.LFB14:
 1359              		.loc 1 221 0
 1360              		.cfi_startproc
 1361              		@ args = 0, pretend = 0, frame = 0
 1362              		@ frame_needed = 0, uses_anonymous_args = 0
 1363 0000 70B5     		push	{r4, r5, r6, lr}
 1364              	.LCFI16:
 1365              		.cfi_def_cfa_offset 16
 1366              		.cfi_offset 4, -16
 1367              		.cfi_offset 5, -12
 1368              		.cfi_offset 6, -8
 1369              		.cfi_offset 14, -4
 1370              		.loc 1 225 0
 1371 0002 294B     		ldr	r3, .L94
 1372 0004 2948     		ldr	r0, .L94+4
 1373 0006 9B69     		ldr	r3, [r3, #24]
 1374 0008 0068     		ldr	r0, [r0, #0]
 1375 000a 9A68     		ldr	r2, [r3, #8]
 1376 000c 284B     		ldr	r3, .L94+8
 1377 000e 294E     		ldr	r6, .L94+12
 1378              		.loc 1 221 0
 1379 0010 82B0     		sub	sp, sp, #8
 1380              	.LCFI17:
 1381              		.cfi_def_cfa_offset 24
 1382              		.loc 1 225 0
 1383 0012 0025     		movs	r5, #0
 1384 0014 4FF49871 		mov	r1, #304
 1385 0018 0132     		adds	r2, r2, #1
 1386 001a 0095     		str	r5, [sp, #0]
 1387 001c FFF7FEFF 		bl	chThdCreateStatic
 1388              	.LVL171:
 1389 0020 254B     		ldr	r3, .L94+16
 1390 0022 0446     		mov	r4, r0
 1391 0024 1860     		str	r0, [r3, #0]
 1392              	.LVL172:
 1393              		.loc 1 227 0
 1394 0026 FFF7FEFF 		bl	test_wait_tick
 1395              	.LVL173:
 1396              		.loc 1 228 0
 1397 002a 4FF47A70 		mov	r0, #1000
 1398 002e FFF7FEFF 		bl	test_start_timer
 1399              	.LVL174:
 1400              	.L89:
 1401              	.LBB6:
 1402              		.loc 1 230 0 discriminator 1
 1403 0032 2023     		movs	r3, #32
 1404              	.LVL175:
 1405              	@ 230 "../../../test/testbmk.c" 1
 1406 0034 83F31188 		msr     BASEPRI, r3
 1407              	@ 0 "" 2
 1408              	.LVL176:
 1409              		.thumb
ARM GAS  C:\cygwin\tmp\cciKAwAx.s 			page 26


 1410              	.LBE6:
 1411 0038 FFF7FEFF 		bl	dbg_check_lock
 1412              	.LVL177:
 1413              		.loc 1 231 0 discriminator 1
 1414 003c 2046     		mov	r0, r4
 1415 003e 0021     		movs	r1, #0
 1416 0040 FFF7FEFF 		bl	chSchWakeupS
 1417              	.LVL178:
 1418              		.loc 1 232 0 discriminator 1
 1419 0044 2046     		mov	r0, r4
 1420 0046 0021     		movs	r1, #0
 1421 0048 FFF7FEFF 		bl	chSchWakeupS
 1422              	.LVL179:
 1423              		.loc 1 233 0 discriminator 1
 1424 004c 2046     		mov	r0, r4
 1425 004e 0021     		movs	r1, #0
 1426 0050 FFF7FEFF 		bl	chSchWakeupS
 1427              	.LVL180:
 1428              		.loc 1 234 0 discriminator 1
 1429 0054 2046     		mov	r0, r4
 1430 0056 0021     		movs	r1, #0
 1431 0058 FFF7FEFF 		bl	chSchWakeupS
 1432              	.LVL181:
 1433              		.loc 1 235 0 discriminator 1
 1434 005c FFF7FEFF 		bl	dbg_check_unlock
 1435              	.LVL182:
 1436              	.LBB7:
 1437 0060 0023     		movs	r3, #0
 1438              	.LVL183:
 1439              	@ 235 "../../../test/testbmk.c" 1
 1440 0062 83F31188 		msr     BASEPRI, r3
 1441              	@ 0 "" 2
 1442              	.LVL184:
 1443              		.thumb
 1444              	.LBE7:
 1445              		.loc 1 240 0 discriminator 1
 1446 0066 3378     		ldrb	r3, [r6, #0]	@ zero_extendqisi2
 1447              	.LVL185:
 1448              		.loc 1 236 0 discriminator 1
 1449 0068 0435     		adds	r5, r5, #4
 1450              	.LVL186:
 1451              		.loc 1 240 0 discriminator 1
 1452 006a 002B     		cmp	r3, #0
 1453 006c E1D0     		beq	.L89
 1454              	.LBB8:
 1455              		.loc 1 241 0
 1456 006e 2023     		movs	r3, #32
 1457              	.LVL187:
 1458              	@ 241 "../../../test/testbmk.c" 1
 1459 0070 83F31188 		msr     BASEPRI, r3
 1460              	@ 0 "" 2
 1461              	.LVL188:
 1462              		.thumb
 1463              	.LBE8:
 1464 0074 FFF7FEFF 		bl	dbg_check_lock
 1465              	.LVL189:
 1466              		.loc 1 242 0
ARM GAS  C:\cygwin\tmp\cciKAwAx.s 			page 27


 1467 0078 2046     		mov	r0, r4
 1468 007a 4FF0FF31 		mov	r1, #-1
 1469 007e FFF7FEFF 		bl	chSchWakeupS
 1470              	.LVL190:
 1471              		.loc 1 243 0
 1472 0082 FFF7FEFF 		bl	dbg_check_unlock
 1473              	.LVL191:
 1474              	.LBB9:
 1475 0086 0023     		movs	r3, #0
 1476              	.LVL192:
 1477              	@ 243 "../../../test/testbmk.c" 1
 1478 0088 83F31188 		msr     BASEPRI, r3
 1479              	@ 0 "" 2
 1480              	.LVL193:
 1481              		.thumb
 1482              	.LBE9:
 1483              		.loc 1 245 0
 1484 008c FFF7FEFF 		bl	test_wait_threads
 1485              	.LVL194:
 1486              		.loc 1 246 0
 1487 0090 0A48     		ldr	r0, .L94+20
 1488 0092 FFF7FEFF 		bl	test_print
 1489              	.LVL195:
 1490              		.loc 1 247 0
 1491 0096 6800     		lsls	r0, r5, #1
 1492 0098 FFF7FEFF 		bl	test_printn
 1493              	.LVL196:
 1494              		.loc 1 248 0
 1495 009c 0848     		ldr	r0, .L94+24
 1496              		.loc 1 249 0
 1497 009e 02B0     		add	sp, sp, #8
 1498 00a0 BDE87040 		pop	{r4, r5, r6, lr}
 1499              		.loc 1 248 0
 1500 00a4 FFF7FEBF 		b	test_println
 1501              	.LVL197:
 1502              	.L95:
 1503              		.align	2
 1504              	.L94:
 1505 00a8 00000000 		.word	rlist
 1506 00ac 00000000 		.word	wa
 1507 00b0 00000000 		.word	thread4
 1508 00b4 00000000 		.word	test_timer_done
 1509 00b8 00000000 		.word	threads
 1510 00bc A8000000 		.word	.LC11
 1511 00c0 FC000000 		.word	.LC17
 1512              		.cfi_endproc
 1513              	.LFE14:
 1514              		.size	bmk4_execute, .-bmk4_execute
 1515 00c4 AFF30080 		.section	.text.msg_loop_test,"ax",%progbits
 1515      AFF30080 
 1515      AFF30080 
 1516              		.align	2
 1517              		.p2align 4,,15
 1518              		.thumb
 1519              		.thumb_func
 1520              		.type	msg_loop_test, %function
 1521              	msg_loop_test:
ARM GAS  C:\cygwin\tmp\cciKAwAx.s 			page 28


 1522              	.LFB8:
 1523              		.loc 1 84 0
 1524              		.cfi_startproc
 1525              		@ args = 0, pretend = 0, frame = 0
 1526              		@ frame_needed = 0, uses_anonymous_args = 0
 1527              	.LVL198:
 1528 0000 70B5     		push	{r4, r5, r6, lr}
 1529              	.LCFI18:
 1530              		.cfi_def_cfa_offset 16
 1531              		.cfi_offset 4, -16
 1532              		.cfi_offset 5, -12
 1533              		.cfi_offset 6, -8
 1534              		.cfi_offset 14, -4
 1535              		.loc 1 84 0
 1536 0002 0546     		mov	r5, r0
 1537              		.loc 1 87 0
 1538 0004 FFF7FEFF 		bl	test_wait_tick
 1539              	.LVL199:
 1540              		.loc 1 88 0
 1541 0008 4FF47A70 		mov	r0, #1000
 1542 000c FFF7FEFF 		bl	test_start_timer
 1543              	.LVL200:
 1544 0010 074E     		ldr	r6, .L102
 1545              		.loc 1 86 0
 1546 0012 0024     		movs	r4, #0
 1547              	.LVL201:
 1548              	.L97:
 1549              		.loc 1 90 0 discriminator 1
 1550 0014 2846     		mov	r0, r5
 1551 0016 0121     		movs	r1, #1
 1552 0018 FFF7FEFF 		bl	chMsgSend
 1553              	.LVL202:
 1554              		.loc 1 95 0 discriminator 1
 1555 001c 3378     		ldrb	r3, [r6, #0]	@ zero_extendqisi2
 1556              		.loc 1 91 0 discriminator 1
 1557 001e 0134     		adds	r4, r4, #1
 1558              	.LVL203:
 1559              		.loc 1 95 0 discriminator 1
 1560 0020 002B     		cmp	r3, #0
 1561 0022 F7D0     		beq	.L97
 1562              		.loc 1 96 0
 1563 0024 2846     		mov	r0, r5
 1564 0026 0021     		movs	r1, #0
 1565 0028 FFF7FEFF 		bl	chMsgSend
 1566              	.LVL204:
 1567              		.loc 1 98 0
 1568 002c 2046     		mov	r0, r4
 1569 002e 70BD     		pop	{r4, r5, r6, pc}
 1570              	.L103:
 1571              		.align	2
 1572              	.L102:
 1573 0030 00000000 		.word	test_timer_done
 1574              		.cfi_endproc
 1575              	.LFE8:
 1576              		.size	msg_loop_test, .-msg_loop_test
 1577 0034 AFF30080 		.section	.text.bmk3_execute,"ax",%progbits
 1577      AFF30080 
ARM GAS  C:\cygwin\tmp\cciKAwAx.s 			page 29


 1577      AFF30080 
 1578              		.align	2
 1579              		.p2align 4,,15
 1580              		.thumb
 1581              		.thumb_func
 1582              		.type	bmk3_execute, %function
 1583              	bmk3_execute:
 1584              	.LFB12:
 1585              		.loc 1 173 0
 1586              		.cfi_startproc
 1587              		@ args = 0, pretend = 0, frame = 0
 1588              		@ frame_needed = 0, uses_anonymous_args = 0
 1589 0000 2DE9F041 		push	{r4, r5, r6, r7, r8, lr}
 1590              	.LCFI19:
 1591              		.cfi_def_cfa_offset 24
 1592              		.cfi_offset 4, -24
 1593              		.cfi_offset 5, -20
 1594              		.cfi_offset 6, -16
 1595              		.cfi_offset 7, -12
 1596              		.cfi_offset 8, -8
 1597              		.cfi_offset 14, -4
 1598              		.loc 1 176 0
 1599 0004 40F20006 		movw	r6, #:lower16:rlist
 1600 0008 C0F20006 		movt	r6, #:upper16:rlist
 1601 000c 40F20005 		movw	r5, #:lower16:wa
 1602 0010 B369     		ldr	r3, [r6, #24]
 1603              		.loc 1 173 0
 1604 0012 82B0     		sub	sp, sp, #8
 1605              	.LCFI20:
 1606              		.cfi_def_cfa_offset 32
 1607              		.loc 1 176 0
 1608 0014 C0F20005 		movt	r5, #:upper16:wa
 1609 0018 9A68     		ldr	r2, [r3, #8]
 1610 001a 2868     		ldr	r0, [r5, #0]
 1611 001c 0027     		movs	r7, #0
 1612 001e 40F20003 		movw	r3, #:lower16:thread1
 1613 0022 0132     		adds	r2, r2, #1
 1614 0024 4FF49871 		mov	r1, #304
 1615 0028 C0F20003 		movt	r3, #:upper16:thread1
 1616 002c 0097     		str	r7, [sp, #0]
 1617 002e FFF7FEFF 		bl	chThdCreateStatic
 1618              	.LVL205:
 1619              		.loc 1 177 0
 1620 0032 B369     		ldr	r3, [r6, #24]
 1621              		.loc 1 176 0
 1622 0034 40F20004 		movw	r4, #:lower16:threads
 1623 0038 C0F20004 		movt	r4, #:upper16:threads
 1624              		.loc 1 177 0
 1625 003c 9A68     		ldr	r2, [r3, #8]
 1626 003e 0097     		str	r7, [sp, #0]
 1627 0040 40F20008 		movw	r8, #:lower16:thread2
 1628 0044 C0F20008 		movt	r8, #:upper16:thread2
 1629              		.loc 1 176 0
 1630 0048 2060     		str	r0, [r4, #0]
 1631              		.loc 1 177 0
 1632 004a 023A     		subs	r2, r2, #2
 1633 004c 4346     		mov	r3, r8
ARM GAS  C:\cygwin\tmp\cciKAwAx.s 			page 30


 1634 004e 4FF49871 		mov	r1, #304
 1635 0052 6868     		ldr	r0, [r5, #4]
 1636 0054 FFF7FEFF 		bl	chThdCreateStatic
 1637              	.LVL206:
 1638              		.loc 1 178 0
 1639 0058 B369     		ldr	r3, [r6, #24]
 1640 005a 9A68     		ldr	r2, [r3, #8]
 1641              		.loc 1 177 0
 1642 005c 6060     		str	r0, [r4, #4]
 1643              		.loc 1 178 0
 1644 005e 033A     		subs	r2, r2, #3
 1645 0060 4346     		mov	r3, r8
 1646 0062 4FF49871 		mov	r1, #304
 1647 0066 0097     		str	r7, [sp, #0]
 1648 0068 A868     		ldr	r0, [r5, #8]
 1649 006a FFF7FEFF 		bl	chThdCreateStatic
 1650              	.LVL207:
 1651              		.loc 1 179 0
 1652 006e B369     		ldr	r3, [r6, #24]
 1653 0070 9A68     		ldr	r2, [r3, #8]
 1654              		.loc 1 178 0
 1655 0072 A060     		str	r0, [r4, #8]
 1656              		.loc 1 179 0
 1657 0074 043A     		subs	r2, r2, #4
 1658 0076 4346     		mov	r3, r8
 1659 0078 4FF49871 		mov	r1, #304
 1660 007c 0097     		str	r7, [sp, #0]
 1661 007e E868     		ldr	r0, [r5, #12]
 1662 0080 FFF7FEFF 		bl	chThdCreateStatic
 1663              	.LVL208:
 1664              		.loc 1 180 0
 1665 0084 B369     		ldr	r3, [r6, #24]
 1666 0086 2D69     		ldr	r5, [r5, #16]
 1667 0088 9A68     		ldr	r2, [r3, #8]
 1668              		.loc 1 179 0
 1669 008a E060     		str	r0, [r4, #12]
 1670              		.loc 1 180 0
 1671 008c 4FF49871 		mov	r1, #304
 1672 0090 053A     		subs	r2, r2, #5
 1673 0092 4346     		mov	r3, r8
 1674 0094 0097     		str	r7, [sp, #0]
 1675 0096 2846     		mov	r0, r5
 1676 0098 FFF7FEFF 		bl	chThdCreateStatic
 1677              	.LVL209:
 1678 009c 2061     		str	r0, [r4, #16]
 1679              		.loc 1 181 0
 1680 009e 2068     		ldr	r0, [r4, #0]
 1681 00a0 FFF7FEFF 		bl	msg_loop_test
 1682              	.LVL210:
 1683 00a4 0446     		mov	r4, r0
 1684              	.LVL211:
 1685              		.loc 1 182 0
 1686 00a6 FFF7FEFF 		bl	test_wait_threads
 1687              	.LVL212:
 1688              		.loc 1 183 0
 1689 00aa 40F20000 		movw	r0, #:lower16:.LC11
 1690 00ae C0F20000 		movt	r0, #:upper16:.LC11
ARM GAS  C:\cygwin\tmp\cciKAwAx.s 			page 31


 1691 00b2 FFF7FEFF 		bl	test_print
 1692              	.LVL213:
 1693              		.loc 1 184 0
 1694 00b6 2046     		mov	r0, r4
 1695 00b8 FFF7FEFF 		bl	test_printn
 1696              	.LVL214:
 1697              		.loc 1 185 0
 1698 00bc 40F20000 		movw	r0, #:lower16:.LC19
 1699 00c0 C0F20000 		movt	r0, #:upper16:.LC19
 1700 00c4 FFF7FEFF 		bl	test_print
 1701              	.LVL215:
 1702              		.loc 1 186 0
 1703 00c8 6000     		lsls	r0, r4, #1
 1704 00ca FFF7FEFF 		bl	test_printn
 1705              	.LVL216:
 1706              		.loc 1 187 0
 1707 00ce 40F20000 		movw	r0, #:lower16:.LC17
 1708 00d2 C0F20000 		movt	r0, #:upper16:.LC17
 1709              		.loc 1 188 0
 1710 00d6 02B0     		add	sp, sp, #8
 1711 00d8 BDE8F041 		pop	{r4, r5, r6, r7, r8, lr}
 1712              		.loc 1 187 0
 1713 00dc FFF7FEBF 		b	test_println
 1714              	.LVL217:
 1715              		.cfi_endproc
 1716              	.LFE12:
 1717              		.size	bmk3_execute, .-bmk3_execute
 1718              		.section	.text.bmk2_execute,"ax",%progbits
 1719              		.align	2
 1720              		.p2align 4,,15
 1721              		.thumb
 1722              		.thumb_func
 1723              		.type	bmk2_execute, %function
 1724              	bmk2_execute:
 1725              	.LFB10:
 1726              		.loc 1 138 0
 1727              		.cfi_startproc
 1728              		@ args = 0, pretend = 0, frame = 0
 1729              		@ frame_needed = 0, uses_anonymous_args = 0
 1730 0000 10B5     		push	{r4, lr}
 1731              	.LCFI21:
 1732              		.cfi_def_cfa_offset 8
 1733              		.cfi_offset 4, -8
 1734              		.cfi_offset 14, -4
 1735              		.loc 1 141 0
 1736 0002 40F20002 		movw	r2, #:lower16:rlist
 1737 0006 C0F20002 		movt	r2, #:upper16:rlist
 1738 000a 40F20003 		movw	r3, #:lower16:wa
 1739 000e 9269     		ldr	r2, [r2, #24]
 1740 0010 C0F20003 		movt	r3, #:upper16:wa
 1741              		.loc 1 138 0
 1742 0014 82B0     		sub	sp, sp, #8
 1743              	.LCFI22:
 1744              		.cfi_def_cfa_offset 16
 1745              		.loc 1 141 0
 1746 0016 9268     		ldr	r2, [r2, #8]
 1747 0018 1868     		ldr	r0, [r3, #0]
ARM GAS  C:\cygwin\tmp\cciKAwAx.s 			page 32


 1748 001a 0024     		movs	r4, #0
 1749 001c 40F20003 		movw	r3, #:lower16:thread1
 1750 0020 4FF49871 		mov	r1, #304
 1751 0024 0132     		adds	r2, r2, #1
 1752 0026 0094     		str	r4, [sp, #0]
 1753 0028 C0F20003 		movt	r3, #:upper16:thread1
 1754 002c FFF7FEFF 		bl	chThdCreateStatic
 1755              	.LVL218:
 1756 0030 40F20003 		movw	r3, #:lower16:threads
 1757 0034 C0F20003 		movt	r3, #:upper16:threads
 1758 0038 1860     		str	r0, [r3, #0]
 1759              		.loc 1 142 0
 1760 003a FFF7FEFF 		bl	msg_loop_test
 1761              	.LVL219:
 1762 003e 0446     		mov	r4, r0
 1763              	.LVL220:
 1764              		.loc 1 143 0
 1765 0040 FFF7FEFF 		bl	test_wait_threads
 1766              	.LVL221:
 1767              		.loc 1 144 0
 1768 0044 40F20000 		movw	r0, #:lower16:.LC11
 1769 0048 C0F20000 		movt	r0, #:upper16:.LC11
 1770 004c FFF7FEFF 		bl	test_print
 1771              	.LVL222:
 1772              		.loc 1 145 0
 1773 0050 2046     		mov	r0, r4
 1774 0052 FFF7FEFF 		bl	test_printn
 1775              	.LVL223:
 1776              		.loc 1 146 0
 1777 0056 40F20000 		movw	r0, #:lower16:.LC19
 1778 005a C0F20000 		movt	r0, #:upper16:.LC19
 1779 005e FFF7FEFF 		bl	test_print
 1780              	.LVL224:
 1781              		.loc 1 147 0
 1782 0062 6000     		lsls	r0, r4, #1
 1783 0064 FFF7FEFF 		bl	test_printn
 1784              	.LVL225:
 1785              		.loc 1 148 0
 1786 0068 40F20000 		movw	r0, #:lower16:.LC17
 1787 006c C0F20000 		movt	r0, #:upper16:.LC17
 1788              		.loc 1 149 0
 1789 0070 02B0     		add	sp, sp, #8
 1790 0072 BDE81040 		pop	{r4, lr}
 1791              		.loc 1 148 0
 1792 0076 FFF7FEBF 		b	test_println
 1793              	.LVL226:
 1794              		.cfi_endproc
 1795              	.LFE10:
 1796              		.size	bmk2_execute, .-bmk2_execute
 1797 007a 00BFAFF3 		.section	.text.bmk1_execute,"ax",%progbits
 1797      0080
 1798              		.align	2
 1799              		.p2align 4,,15
 1800              		.thumb
 1801              		.thumb_func
 1802              		.type	bmk1_execute, %function
 1803              	bmk1_execute:
ARM GAS  C:\cygwin\tmp\cciKAwAx.s 			page 33


 1804              	.LFB9:
 1805              		.loc 1 109 0
 1806              		.cfi_startproc
 1807              		@ args = 0, pretend = 0, frame = 0
 1808              		@ frame_needed = 0, uses_anonymous_args = 0
 1809 0000 10B5     		push	{r4, lr}
 1810              	.LCFI23:
 1811              		.cfi_def_cfa_offset 8
 1812              		.cfi_offset 4, -8
 1813              		.cfi_offset 14, -4
 1814              		.loc 1 112 0
 1815 0002 40F20002 		movw	r2, #:lower16:rlist
 1816 0006 C0F20002 		movt	r2, #:upper16:rlist
 1817 000a 40F20003 		movw	r3, #:lower16:wa
 1818 000e 9269     		ldr	r2, [r2, #24]
 1819 0010 C0F20003 		movt	r3, #:upper16:wa
 1820              		.loc 1 109 0
 1821 0014 82B0     		sub	sp, sp, #8
 1822              	.LCFI24:
 1823              		.cfi_def_cfa_offset 16
 1824              		.loc 1 112 0
 1825 0016 9268     		ldr	r2, [r2, #8]
 1826 0018 1868     		ldr	r0, [r3, #0]
 1827 001a 0024     		movs	r4, #0
 1828 001c 40F20003 		movw	r3, #:lower16:thread1
 1829 0020 4FF49871 		mov	r1, #304
 1830 0024 013A     		subs	r2, r2, #1
 1831 0026 0094     		str	r4, [sp, #0]
 1832 0028 C0F20003 		movt	r3, #:upper16:thread1
 1833 002c FFF7FEFF 		bl	chThdCreateStatic
 1834              	.LVL227:
 1835 0030 40F20003 		movw	r3, #:lower16:threads
 1836 0034 C0F20003 		movt	r3, #:upper16:threads
 1837 0038 1860     		str	r0, [r3, #0]
 1838              		.loc 1 113 0
 1839 003a FFF7FEFF 		bl	msg_loop_test
 1840              	.LVL228:
 1841 003e 0446     		mov	r4, r0
 1842              	.LVL229:
 1843              		.loc 1 114 0
 1844 0040 FFF7FEFF 		bl	test_wait_threads
 1845              	.LVL230:
 1846              		.loc 1 115 0
 1847 0044 40F20000 		movw	r0, #:lower16:.LC11
 1848 0048 C0F20000 		movt	r0, #:upper16:.LC11
 1849 004c FFF7FEFF 		bl	test_print
 1850              	.LVL231:
 1851              		.loc 1 116 0
 1852 0050 2046     		mov	r0, r4
 1853 0052 FFF7FEFF 		bl	test_printn
 1854              	.LVL232:
 1855              		.loc 1 117 0
 1856 0056 40F20000 		movw	r0, #:lower16:.LC19
 1857 005a C0F20000 		movt	r0, #:upper16:.LC19
 1858 005e FFF7FEFF 		bl	test_print
 1859              	.LVL233:
 1860              		.loc 1 118 0
ARM GAS  C:\cygwin\tmp\cciKAwAx.s 			page 34


 1861 0062 6000     		lsls	r0, r4, #1
 1862 0064 FFF7FEFF 		bl	test_printn
 1863              	.LVL234:
 1864              		.loc 1 119 0
 1865 0068 40F20000 		movw	r0, #:lower16:.LC17
 1866 006c C0F20000 		movt	r0, #:upper16:.LC17
 1867              		.loc 1 120 0
 1868 0070 02B0     		add	sp, sp, #8
 1869 0072 BDE81040 		pop	{r4, lr}
 1870              		.loc 1 119 0
 1871 0076 FFF7FEBF 		b	test_println
 1872              	.LVL235:
 1873              		.cfi_endproc
 1874              	.LFE9:
 1875              		.size	bmk1_execute, .-bmk1_execute
 1876 007a 00BFAFF3 		.section	.text.thread1,"ax",%progbits
 1876      0080
 1877              		.align	2
 1878              		.p2align 4,,15
 1879              		.thumb
 1880              		.thumb_func
 1881              		.type	thread1, %function
 1882              	thread1:
 1883              	.LFB7:
 1884              		.loc 1 68 0
 1885              		.cfi_startproc
 1886              		@ args = 0, pretend = 0, frame = 0
 1887              		@ frame_needed = 0, uses_anonymous_args = 0
 1888              	.LVL236:
 1889 0000 10B5     		push	{r4, lr}
 1890              	.LCFI25:
 1891              		.cfi_def_cfa_offset 8
 1892              		.cfi_offset 4, -8
 1893              		.cfi_offset 14, -4
 1894              	.LVL237:
 1895              	.L108:
 1896              		.loc 1 74 0 discriminator 1
 1897 0002 FFF7FEFF 		bl	chMsgWait
 1898              	.LVL238:
 1899              		.loc 1 75 0 discriminator 1
 1900 0006 846B     		ldr	r4, [r0, #56]
 1901              	.LVL239:
 1902              		.loc 1 76 0 discriminator 1
 1903 0008 2146     		mov	r1, r4
 1904 000a FFF7FEFF 		bl	chMsgRelease
 1905              	.LVL240:
 1906              		.loc 1 77 0 discriminator 1
 1907 000e 002C     		cmp	r4, #0
 1908 0010 F7D1     		bne	.L108
 1909              		.loc 1 79 0
 1910 0012 2046     		mov	r0, r4
 1911 0014 10BD     		pop	{r4, pc}
 1912              		.cfi_endproc
 1913              	.LFE7:
 1914              		.size	thread1, .-thread1
 1915 0016 00BFAFF3 		.section	.text.thread4,"ax",%progbits
 1915      0080AFF3 
ARM GAS  C:\cygwin\tmp\cciKAwAx.s 			page 35


 1915      0080
 1916              		.align	2
 1917              		.p2align 4,,15
 1918              		.global	thread4
 1919              		.thumb
 1920              		.thumb_func
 1921              		.type	thread4, %function
 1922              	thread4:
 1923              	.LFB13:
 1924              		.loc 1 207 0
 1925              		.cfi_startproc
 1926              		@ args = 0, pretend = 0, frame = 0
 1927              		@ frame_needed = 0, uses_anonymous_args = 0
 1928              	.LVL241:
 1929              		.loc 1 209 0
 1930 0000 0A4A     		ldr	r2, .L116
 1931              		.loc 1 207 0
 1932 0002 10B5     		push	{r4, lr}
 1933              	.LCFI26:
 1934              		.cfi_def_cfa_offset 8
 1935              		.cfi_offset 4, -8
 1936              		.cfi_offset 14, -4
 1937              	.LBB10:
 1938              		.loc 1 212 0
 1939 0004 2023     		movs	r3, #32
 1940              	.LVL242:
 1941              	.LBE10:
 1942              		.loc 1 209 0
 1943 0006 9469     		ldr	r4, [r2, #24]
 1944              	.LVL243:
 1945              	.LBB11:
 1946              		.loc 1 212 0
 1947              	@ 212 "../../../test/testbmk.c" 1
 1948 0008 83F31188 		msr     BASEPRI, r3
 1949              	@ 0 "" 2
 1950              	.LVL244:
 1951              		.thumb
 1952              	.LBE11:
 1953 000c FFF7FEFF 		bl	dbg_check_lock
 1954              	.LVL245:
 1955              	.L111:
 1956              		.loc 1 214 0 discriminator 1
 1957 0010 0220     		movs	r0, #2
 1958 0012 FFF7FEFF 		bl	chSchGoSleepS
 1959              	.LVL246:
 1960              		.loc 1 216 0 discriminator 1
 1961 0016 A36A     		ldr	r3, [r4, #40]
 1962 0018 002B     		cmp	r3, #0
 1963 001a F9D0     		beq	.L111
 1964              		.loc 1 217 0
 1965 001c FFF7FEFF 		bl	dbg_check_unlock
 1966              	.LVL247:
 1967              	.LBB12:
 1968 0020 0023     		movs	r3, #0
 1969              	.LVL248:
 1970              	@ 217 "../../../test/testbmk.c" 1
 1971 0022 83F31188 		msr     BASEPRI, r3
ARM GAS  C:\cygwin\tmp\cciKAwAx.s 			page 36


 1972              	@ 0 "" 2
 1973              	.LVL249:
 1974              		.thumb
 1975              	.LBE12:
 1976              		.loc 1 219 0
 1977 0026 1846     		mov	r0, r3
 1978 0028 10BD     		pop	{r4, pc}
 1979              	.L117:
 1980 002a 00BF     		.align	2
 1981              	.L116:
 1982 002c 00000000 		.word	rlist
 1983              		.cfi_endproc
 1984              	.LFE13:
 1985              		.size	thread4, .-thread4
 1986              		.global	patternbmk
 1987              		.global	testbmk13
 1988              		.global	testbmk12
 1989              		.global	testbmk11
 1990              		.global	testbmk10
 1991              		.global	testbmk9
 1992              		.global	testbmk8
 1993              		.global	testbmk7
 1994              		.global	testbmk6
 1995              		.global	testbmk5
 1996              		.global	testbmk4
 1997              		.global	testbmk3
 1998              		.global	testbmk2
 1999              		.global	testbmk1
 2000              		.section	.rodata.testbmk8,"a",%progbits
 2001              		.align	2
 2002              		.type	testbmk8, %object
 2003              		.size	testbmk8, 16
 2004              	testbmk8:
 2005 0000 D0010000 		.word	.LC25
 2006 0004 00000000 		.word	0
 2007 0008 00000000 		.word	0
 2008 000c 00000000 		.word	bmk8_execute
 2009              		.section	.bss.iq.4968,"aw",%nobits
 2010              		.align	2
 2011              		.set	.LANCHOR4,. + 0
 2012              		.type	iq.4968, %object
 2013              		.size	iq.4968, 36
 2014              	iq.4968:
 2015 0000 00000000 		.space	36
 2015      00000000 
 2015      00000000 
 2015      00000000 
 2015      00000000 
 2016              		.section	.rodata.testbmk2,"a",%progbits
 2017              		.align	2
 2018              		.type	testbmk2, %object
 2019              		.size	testbmk2, 16
 2020              	testbmk2:
 2021 0000 98020000 		.word	.LC31
 2022 0004 00000000 		.word	0
 2023 0008 00000000 		.word	0
 2024 000c 00000000 		.word	bmk2_execute
ARM GAS  C:\cygwin\tmp\cciKAwAx.s 			page 37


 2025              		.section	.rodata.testbmk9,"a",%progbits
 2026              		.align	2
 2027              		.type	testbmk9, %object
 2028              		.size	testbmk9, 16
 2029              	testbmk9:
 2030 0000 AC010000 		.word	.LC24
 2031 0004 00000000 		.word	0
 2032 0008 00000000 		.word	0
 2033 000c 00000000 		.word	bmk9_execute
 2034              		.section	.rodata.testbmk10,"a",%progbits
 2035              		.align	2
 2036              		.type	testbmk10, %object
 2037              		.size	testbmk10, 16
 2038              	testbmk10:
 2039 0000 88010000 		.word	.LC23
 2040 0004 00000000 		.word	0
 2041 0008 00000000 		.word	0
 2042 000c 00000000 		.word	bmk10_execute
 2043              		.section	.rodata.testbmk4,"a",%progbits
 2044              		.align	2
 2045              		.type	testbmk4, %object
 2046              		.size	testbmk4, 16
 2047              	testbmk4:
 2048 0000 64020000 		.word	.LC29
 2049 0004 00000000 		.word	0
 2050 0008 00000000 		.word	0
 2051 000c 00000000 		.word	bmk4_execute
 2052              		.section	.bss.mtx1,"aw",%nobits
 2053              		.align	2
 2054              		.set	.LANCHOR0,. + 0
 2055              		.type	mtx1, %object
 2056              		.size	mtx1, 16
 2057              	mtx1:
 2058 0000 00000000 		.space	16
 2058      00000000 
 2058      00000000 
 2058      00000000 
 2059              		.section	.rodata.testbmk3,"a",%progbits
 2060              		.align	2
 2061              		.type	testbmk3, %object
 2062              		.size	testbmk3, 16
 2063              	testbmk3:
 2064 0000 80020000 		.word	.LC30
 2065 0004 00000000 		.word	0
 2066 0008 00000000 		.word	0
 2067 000c 00000000 		.word	bmk3_execute
 2068              		.section	.rodata.testbmk13,"a",%progbits
 2069              		.align	2
 2070              		.type	testbmk13, %object
 2071              		.size	testbmk13, 16
 2072              	testbmk13:
 2073 0000 28010000 		.word	.LC20
 2074 0004 00000000 		.word	0
 2075 0008 00000000 		.word	0
 2076 000c 00000000 		.word	bmk13_execute
 2077              		.section	.bss.vt2.4981,"aw",%nobits
 2078              		.align	2
ARM GAS  C:\cygwin\tmp\cciKAwAx.s 			page 38


 2079              		.set	.LANCHOR3,. + 0
 2080              		.type	vt2.4981, %object
 2081              		.size	vt2.4981, 20
 2082              	vt2.4981:
 2083 0000 00000000 		.space	20
 2083      00000000 
 2083      00000000 
 2083      00000000 
 2083      00000000 
 2084              		.section	.rodata.str1.4,"aMS",%progbits,1
 2085              		.align	2
 2086              	.LC0:
 2087 0000 2D2D2D20 		.ascii	"--- System: \000"
 2087      53797374 
 2087      656D3A20 
 2087      00
 2088 000d 000000   		.space	3
 2089              	.LC1:
 2090 0010 20627974 		.ascii	" bytes\000"
 2090      657300
 2091 0017 00       		.space	1
 2092              	.LC2:
 2093 0018 2D2D2D20 		.ascii	"--- Thread: \000"
 2093      54687265 
 2093      61643A20 
 2093      00
 2094 0025 000000   		.space	3
 2095              	.LC3:
 2096 0028 2D2D2D20 		.ascii	"--- Timer : \000"
 2096      54696D65 
 2096      72203A20 
 2096      00
 2097 0035 000000   		.space	3
 2098              	.LC4:
 2099 0038 2D2D2D20 		.ascii	"--- Semaph: \000"
 2099      53656D61 
 2099      70683A20 
 2099      00
 2100 0045 000000   		.space	3
 2101              	.LC5:
 2102 0048 2D2D2D20 		.ascii	"--- EventS: \000"
 2102      4576656E 
 2102      74533A20 
 2102      00
 2103 0055 000000   		.space	3
 2104              	.LC6:
 2105 0058 2D2D2D20 		.ascii	"--- EventL: \000"
 2105      4576656E 
 2105      744C3A20 
 2105      00
 2106 0065 000000   		.space	3
 2107              	.LC7:
 2108 0068 2D2D2D20 		.ascii	"--- Mutex : \000"
 2108      4D757465 
 2108      78203A20 
 2108      00
 2109 0075 000000   		.space	3
ARM GAS  C:\cygwin\tmp\cciKAwAx.s 			page 39


 2110              	.LC8:
 2111 0078 2D2D2D20 		.ascii	"--- CondV.: \000"
 2111      436F6E64 
 2111      562E3A20 
 2111      00
 2112 0085 000000   		.space	3
 2113              	.LC9:
 2114 0088 2D2D2D20 		.ascii	"--- Queue : \000"
 2114      51756575 
 2114      65203A20 
 2114      00
 2115 0095 000000   		.space	3
 2116              	.LC10:
 2117 0098 2D2D2D20 		.ascii	"--- MailB.: \000"
 2117      4D61696C 
 2117      422E3A20 
 2117      00
 2118 00a5 000000   		.space	3
 2119              	.LC11:
 2120 00a8 2D2D2D20 		.ascii	"--- Score : \000"
 2120      53636F72 
 2120      65203A20 
 2120      00
 2121 00b5 000000   		.space	3
 2122              	.LC12:
 2123 00b8 206C6F63 		.ascii	" lock+unlock/S\000"
 2123      6B2B756E 
 2123      6C6F636B 
 2123      2F5300
 2124 00c7 00       		.space	1
 2125              	.LC13:
 2126 00c8 20776169 		.ascii	" wait+signal/S\000"
 2126      742B7369 
 2126      676E616C 
 2126      2F5300
 2127 00d7 00       		.space	1
 2128              	.LC14:
 2129 00d8 2074696D 		.ascii	" timers/S\000"
 2129      6572732F 
 2129      5300
 2130 00e2 0000     		.space	2
 2131              	.LC15:
 2132 00e4 20627974 		.ascii	" bytes/S\000"
 2132      65732F53 
 2132      00
 2133 00ed 000000   		.space	3
 2134              	.LC16:
 2135 00f0 20746872 		.ascii	" threads/S\000"
 2135      65616473 
 2135      2F5300
 2136 00fb 00       		.space	1
 2137              	.LC17:
 2138 00fc 20637478 		.ascii	" ctxswc/S\000"
 2138      7377632F 
 2138      5300
 2139 0106 0000     		.space	2
 2140              	.LC18:
ARM GAS  C:\cygwin\tmp\cciKAwAx.s 			page 40


 2141 0108 20726573 		.ascii	" reschedules/S, \000"
 2141      63686564 
 2141      756C6573 
 2141      2F532C20 
 2141      00
 2142 0119 000000   		.space	3
 2143              	.LC19:
 2144 011c 206D7367 		.ascii	" msgs/S, \000"
 2144      732F532C 
 2144      2000
 2145 0126 0000     		.space	2
 2146              	.LC20:
 2147 0128 42656E63 		.ascii	"Benchmark, RAM footprint\000"
 2147      686D6172 
 2147      6B2C2052 
 2147      414D2066 
 2147      6F6F7470 
 2148 0141 000000   		.space	3
 2149              	.LC21:
 2150 0144 42656E63 		.ascii	"Benchmark, mutexes lock/unlock\000"
 2150      686D6172 
 2150      6B2C206D 
 2150      75746578 
 2150      6573206C 
 2151 0163 00       		.space	1
 2152              	.LC22:
 2153 0164 42656E63 		.ascii	"Benchmark, semaphores wait/signal\000"
 2153      686D6172 
 2153      6B2C2073 
 2153      656D6170 
 2153      686F7265 
 2154 0186 0000     		.space	2
 2155              	.LC23:
 2156 0188 42656E63 		.ascii	"Benchmark, virtual timers set/reset\000"
 2156      686D6172 
 2156      6B2C2076 
 2156      69727475 
 2156      616C2074 
 2157              	.LC24:
 2158 01ac 42656E63 		.ascii	"Benchmark, I/O Queues throughput\000"
 2158      686D6172 
 2158      6B2C2049 
 2158      2F4F2051 
 2158      75657565 
 2159 01cd 000000   		.space	3
 2160              	.LC25:
 2161 01d0 42656E63 		.ascii	"Benchmark, round robin context switching\000"
 2161      686D6172 
 2161      6B2C2072 
 2161      6F756E64 
 2161      20726F62 
 2162 01f9 000000   		.space	3
 2163              	.LC26:
 2164 01fc 42656E63 		.ascii	"Benchmark, mass reschedule, 5 threads\000"
 2164      686D6172 
 2164      6B2C206D 
 2164      61737320 
ARM GAS  C:\cygwin\tmp\cciKAwAx.s 			page 41


 2164      72657363 
 2165 0222 0000     		.space	2
 2166              	.LC27:
 2167 0224 42656E63 		.ascii	"Benchmark, threads, create only\000"
 2167      686D6172 
 2167      6B2C2074 
 2167      68726561 
 2167      64732C20 
 2168              	.LC28:
 2169 0244 42656E63 		.ascii	"Benchmark, threads, full cycle\000"
 2169      686D6172 
 2169      6B2C2074 
 2169      68726561 
 2169      64732C20 
 2170 0263 00       		.space	1
 2171              	.LC29:
 2172 0264 42656E63 		.ascii	"Benchmark, context switch\000"
 2172      686D6172 
 2172      6B2C2063 
 2172      6F6E7465 
 2172      78742073 
 2173 027e 0000     		.space	2
 2174              	.LC30:
 2175 0280 42656E63 		.ascii	"Benchmark, messages #3\000"
 2175      686D6172 
 2175      6B2C206D 
 2175      65737361 
 2175      67657320 
 2176 0297 00       		.space	1
 2177              	.LC31:
 2178 0298 42656E63 		.ascii	"Benchmark, messages #2\000"
 2178      686D6172 
 2178      6B2C206D 
 2178      65737361 
 2178      67657320 
 2179 02af 00       		.space	1
 2180              	.LC32:
 2181 02b0 42656E63 		.ascii	"Benchmark, messages #1\000"
 2181      686D6172 
 2181      6B2C206D 
 2181      65737361 
 2181      67657320 
 2182 02c7 00       		.section	.bss.vt1.4980,"aw",%nobits
 2183              		.align	2
 2184              		.set	.LANCHOR2,. + 0
 2185              		.type	vt1.4980, %object
 2186              		.size	vt1.4980, 20
 2187              	vt1.4980:
 2188 0000 00000000 		.space	20
 2188      00000000 
 2188      00000000 
 2188      00000000 
 2188      00000000 
 2189              		.section	.bss.sem1,"aw",%nobits
 2190              		.align	2
 2191              		.set	.LANCHOR1,. + 0
 2192              		.type	sem1, %object
ARM GAS  C:\cygwin\tmp\cciKAwAx.s 			page 42


 2193              		.size	sem1, 12
 2194              	sem1:
 2195 0000 00000000 		.space	12
 2195      00000000 
 2195      00000000 
 2196              		.section	.bss.ib.4967,"aw",%nobits
 2197              		.align	2
 2198              		.set	.LANCHOR5,. + 0
 2199              		.type	ib.4967, %object
 2200              		.size	ib.4967, 16
 2201              	ib.4967:
 2202 0000 00000000 		.space	16
 2202      00000000 
 2202      00000000 
 2202      00000000 
 2203              		.section	.rodata.testbmk1,"a",%progbits
 2204              		.align	2
 2205              		.type	testbmk1, %object
 2206              		.size	testbmk1, 16
 2207              	testbmk1:
 2208 0000 B0020000 		.word	.LC32
 2209 0004 00000000 		.word	0
 2210 0008 00000000 		.word	0
 2211 000c 00000000 		.word	bmk1_execute
 2212              		.section	.rodata.testbmk11,"a",%progbits
 2213              		.align	2
 2214              		.type	testbmk11, %object
 2215              		.size	testbmk11, 16
 2216              	testbmk11:
 2217 0000 64010000 		.word	.LC22
 2218 0004 00000000 		.word	bmk11_setup
 2219 0008 00000000 		.word	0
 2220 000c 00000000 		.word	bmk11_execute
 2221              		.section	.rodata.testbmk12,"a",%progbits
 2222              		.align	2
 2223              		.type	testbmk12, %object
 2224              		.size	testbmk12, 16
 2225              	testbmk12:
 2226 0000 44010000 		.word	.LC21
 2227 0004 00000000 		.word	bmk12_setup
 2228 0008 00000000 		.word	0
 2229 000c 00000000 		.word	bmk12_execute
 2230              		.section	.rodata.patternbmk,"a",%progbits
 2231              		.align	2
 2232              		.type	patternbmk, %object
 2233              		.size	patternbmk, 56
 2234              	patternbmk:
 2235 0000 00000000 		.word	testbmk1
 2236 0004 00000000 		.word	testbmk2
 2237 0008 00000000 		.word	testbmk3
 2238 000c 00000000 		.word	testbmk4
 2239 0010 00000000 		.word	testbmk5
 2240 0014 00000000 		.word	testbmk6
 2241 0018 00000000 		.word	testbmk7
 2242 001c 00000000 		.word	testbmk8
 2243 0020 00000000 		.word	testbmk9
 2244 0024 00000000 		.word	testbmk10
ARM GAS  C:\cygwin\tmp\cciKAwAx.s 			page 43


 2245 0028 00000000 		.word	testbmk11
 2246 002c 00000000 		.word	testbmk12
 2247 0030 00000000 		.word	testbmk13
 2248 0034 00000000 		.word	0
 2249              		.section	.rodata.testbmk5,"a",%progbits
 2250              		.align	2
 2251              		.type	testbmk5, %object
 2252              		.size	testbmk5, 16
 2253              	testbmk5:
 2254 0000 44020000 		.word	.LC28
 2255 0004 00000000 		.word	0
 2256 0008 00000000 		.word	0
 2257 000c 00000000 		.word	bmk5_execute
 2258              		.section	.rodata.testbmk6,"a",%progbits
 2259              		.align	2
 2260              		.type	testbmk6, %object
 2261              		.size	testbmk6, 16
 2262              	testbmk6:
 2263 0000 24020000 		.word	.LC27
 2264 0004 00000000 		.word	0
 2265 0008 00000000 		.word	0
 2266 000c 00000000 		.word	bmk6_execute
 2267              		.section	.rodata.testbmk7,"a",%progbits
 2268              		.align	2
 2269              		.type	testbmk7, %object
 2270              		.size	testbmk7, 16
 2271              	testbmk7:
 2272 0000 FC010000 		.word	.LC26
 2273 0004 00000000 		.word	bmk7_setup
 2274 0008 00000000 		.word	0
 2275 000c 00000000 		.word	bmk7_execute
 2276              		.text
 2277              	.Letext0:
 2278              		.file 2 "c:\\develop\\gimst\\chibistudio\\tools\\yagarto-tools\\yagarto-20121222\\bin\\../lib/gcc/
 2279              		.file 3 "c:/develop/gimst/chibistudio/tools/yagarto-tools/yagarto-20121222/lib/gcc/../../arm-none-
 2280              		.file 4 "../../../os/ports/GCC/ARMCMx/chtypes.h"
 2281              		.file 5 "../../../os/kernel/include/chlists.h"
 2282              		.file 6 "../../../os/kernel/include/chthreads.h"
 2283              		.file 7 "../../../os/ports/GCC/ARMCMx/chcore_v7m.h"
 2284              		.file 8 "../../../os/kernel/include/chvt.h"
 2285              		.file 9 "../../../os/kernel/include/chschd.h"
 2286              		.file 10 "../../../os/kernel/include/chsem.h"
 2287              		.file 11 "../../../os/kernel/include/chmtx.h"
 2288              		.file 12 "../../../os/kernel/include/chqueues.h"
 2289              		.file 13 "../../../test/test.h"
 2290              		.file 14 "../../../os/kernel/include/chdebug.h"
 2291              		.file 15 "../../../os/kernel/include/chmsg.h"